; Listing generated by Microsoft (R) Optimizing Compiler Version 19.16.27026.1 

include listing.inc

INCLUDELIB MSVCRT
INCLUDELIB OLDNAMES

_DATA	SEGMENT
COMM	number_zero:BYTE:038H
COMM	number_one:BYTE:038H
COMM	hLocalHeap:QWORD
_DATA	ENDS
PUBLIC	AllocateHeapArea
PUBLIC	DeallocateHeapArea
PUBLIC	AllocateBlock
PUBLIC	DeallocateBlock
PUBLIC	CheckBlockLight
PUBLIC	AttatchNumber
PUBLIC	AllocateNumber
PUBLIC	DetatchNumber
PUBLIC	DeallocateNumber
PUBLIC	CommitNumber
PUBLIC	CheckNumber
PUBLIC	DuplicateNumber
PUBLIC	Initialize_Memory
PUBLIC	PMC_Dispose
EXTRN	__imp_HeapCreate:PROC
EXTRN	__imp_HeapDestroy:PROC
EXTRN	__imp_HeapAlloc:PROC
EXTRN	__imp_HeapFree:PROC
;	COMDAT pdata
pdata	SEGMENT
$pdata$AllocateHeapArea DD imagerel $LN5
	DD	imagerel $LN5+42
	DD	imagerel $unwind$AllocateHeapArea
pdata	ENDS
;	COMDAT pdata
pdata	SEGMENT
$pdata$DeallocateHeapArea DD imagerel $LN5
	DD	imagerel $LN5+38
	DD	imagerel $unwind$DeallocateHeapArea
pdata	ENDS
;	COMDAT pdata
pdata	SEGMENT
$pdata$AllocateBlock DD imagerel $LN8
	DD	imagerel $LN8+128
	DD	imagerel $unwind$AllocateBlock
pdata	ENDS
;	COMDAT pdata
pdata	SEGMENT
$pdata$DeallocateBlock DD imagerel $LN9
	DD	imagerel $LN9+23
	DD	imagerel $unwind$DeallocateBlock
pdata	ENDS
;	COMDAT pdata
pdata	SEGMENT
$pdata$0$DeallocateBlock DD imagerel $LN9+23
	DD	imagerel $LN9+69
	DD	imagerel $chain$0$DeallocateBlock
pdata	ENDS
;	COMDAT pdata
pdata	SEGMENT
$pdata$1$DeallocateBlock DD imagerel $LN9+69
	DD	imagerel $LN9+79
	DD	imagerel $chain$1$DeallocateBlock
pdata	ENDS
;	COMDAT pdata
pdata	SEGMENT
$pdata$AttatchNumber DD imagerel $LN5
	DD	imagerel $LN5+31
	DD	imagerel $unwind$AttatchNumber
pdata	ENDS
;	COMDAT pdata
pdata	SEGMENT
$pdata$AllocateNumber DD imagerel $LN6
	DD	imagerel $LN6+110
	DD	imagerel $unwind$AllocateNumber
pdata	ENDS
;	COMDAT pdata
pdata	SEGMENT
$pdata$DeallocateNumber DD imagerel $LN27
	DD	imagerel $LN27+85
	DD	imagerel $unwind$DeallocateNumber
pdata	ENDS
;	COMDAT pdata
pdata	SEGMENT
$pdata$CommitNumber DD imagerel $LN39
	DD	imagerel $LN39+349
	DD	imagerel $unwind$CommitNumber
pdata	ENDS
;	COMDAT pdata
pdata	SEGMENT
$pdata$DuplicateNumber DD imagerel $LN18
	DD	imagerel $LN18+194
	DD	imagerel $unwind$DuplicateNumber
pdata	ENDS
;	COMDAT pdata
pdata	SEGMENT
$pdata$Initialize_Memory DD imagerel $LN89
	DD	imagerel $LN89+318
	DD	imagerel $unwind$Initialize_Memory
pdata	ENDS
;	COMDAT pdata
pdata	SEGMENT
$pdata$PMC_Dispose DD imagerel $LN32
	DD	imagerel $LN32+85
	DD	imagerel $unwind$PMC_Dispose
pdata	ENDS
;	COMDAT pdata
pdata	SEGMENT
$pdata$_COPY_MEMORY_UNIT DD imagerel _COPY_MEMORY_UNIT
	DD	imagerel _COPY_MEMORY_UNIT+33
	DD	imagerel $unwind$_COPY_MEMORY_UNIT
pdata	ENDS
;	COMDAT pdata
pdata	SEGMENT
$pdata$_ZERO_MEMORY_BYTE DD imagerel _ZERO_MEMORY_BYTE
	DD	imagerel _ZERO_MEMORY_BYTE+21
	DD	imagerel $unwind$_ZERO_MEMORY_BYTE
pdata	ENDS
;	COMDAT pdata
pdata	SEGMENT
$pdata$_ZERO_MEMORY_16 DD imagerel _ZERO_MEMORY_16
	DD	imagerel _ZERO_MEMORY_16+22
	DD	imagerel $unwind$_ZERO_MEMORY_16
pdata	ENDS
;	COMDAT pdata
pdata	SEGMENT
$pdata$_ZERO_MEMORY_32 DD imagerel _ZERO_MEMORY_32
	DD	imagerel _ZERO_MEMORY_32+21
	DD	imagerel $unwind$_ZERO_MEMORY_32
pdata	ENDS
;	COMDAT pdata
pdata	SEGMENT
$pdata$_ZERO_MEMORY_64 DD imagerel _ZERO_MEMORY_64
	DD	imagerel _ZERO_MEMORY_64+22
	DD	imagerel $unwind$_ZERO_MEMORY_64
pdata	ENDS
;	COMDAT pdata
pdata	SEGMENT
$pdata$_FILL_MEMORY_BYTE DD imagerel _FILL_MEMORY_BYTE
	DD	imagerel _FILL_MEMORY_BYTE+22
	DD	imagerel $unwind$_FILL_MEMORY_BYTE
pdata	ENDS
;	COMDAT pdata
pdata	SEGMENT
$pdata$_FILL_MEMORY_16 DD imagerel _FILL_MEMORY_16
	DD	imagerel _FILL_MEMORY_16+23
	DD	imagerel $unwind$_FILL_MEMORY_16
pdata	ENDS
;	COMDAT pdata
pdata	SEGMENT
$pdata$_FILL_MEMORY_32 DD imagerel _FILL_MEMORY_32
	DD	imagerel _FILL_MEMORY_32+21
	DD	imagerel $unwind$_FILL_MEMORY_32
pdata	ENDS
;	COMDAT pdata
pdata	SEGMENT
$pdata$_FILL_MEMORY_64 DD imagerel _FILL_MEMORY_64
	DD	imagerel _FILL_MEMORY_64+23
	DD	imagerel $unwind$_FILL_MEMORY_64
pdata	ENDS
;	COMDAT pdata
pdata	SEGMENT
$pdata$_FILL_MEMORY_UNIT DD imagerel _FILL_MEMORY_UNIT
	DD	imagerel _FILL_MEMORY_UNIT+23
	DD	imagerel $unwind$_FILL_MEMORY_UNIT
pdata	ENDS
;	COMDAT pdata
pdata	SEGMENT
$pdata$InitializeNumber DD imagerel InitializeNumber
	DD	imagerel InitializeNumber+191
	DD	imagerel $unwind$InitializeNumber
pdata	ENDS
;	COMDAT pdata
pdata	SEGMENT
$pdata$CleanUpNumber DD imagerel CleanUpNumber
	DD	imagerel CleanUpNumber+35
	DD	imagerel $unwind$CleanUpNumber
pdata	ENDS
;	COMDAT pdata
pdata	SEGMENT
$pdata$0$CleanUpNumber DD imagerel CleanUpNumber+35
	DD	imagerel CleanUpNumber+76
	DD	imagerel $chain$0$CleanUpNumber
pdata	ENDS
;	COMDAT pdata
pdata	SEGMENT
$pdata$1$CleanUpNumber DD imagerel CleanUpNumber+76
	DD	imagerel CleanUpNumber+90
	DD	imagerel $chain$1$CleanUpNumber
pdata	ENDS
;	COMDAT xdata
xdata	SEGMENT
$chain$1$CleanUpNumber DD 021H
	DD	imagerel CleanUpNumber
	DD	imagerel CleanUpNumber+35
	DD	imagerel $unwind$CleanUpNumber
xdata	ENDS
;	COMDAT xdata
xdata	SEGMENT
$chain$0$CleanUpNumber DD 020521H
	DD	067405H
	DD	imagerel CleanUpNumber
	DD	imagerel CleanUpNumber+35
	DD	imagerel $unwind$CleanUpNumber
xdata	ENDS
;	COMDAT xdata
xdata	SEGMENT
$unwind$CleanUpNumber DD 020601H
	DD	030023206H
xdata	ENDS
;	COMDAT xdata
xdata	SEGMENT
$unwind$InitializeNumber DD 0a1a01H
	DD	09741aH
	DD	08641aH
	DD	07541aH
	DD	06341aH
	DD	0e016321aH
xdata	ENDS
;	COMDAT xdata
xdata	SEGMENT
$unwind$_FILL_MEMORY_UNIT DD 020501H
	DD	017405H
xdata	ENDS
;	COMDAT xdata
xdata	SEGMENT
$unwind$_FILL_MEMORY_64 DD 020501H
	DD	017405H
xdata	ENDS
;	COMDAT xdata
xdata	SEGMENT
$unwind$_FILL_MEMORY_32 DD 020501H
	DD	017405H
xdata	ENDS
;	COMDAT xdata
xdata	SEGMENT
$unwind$_FILL_MEMORY_16 DD 020501H
	DD	017405H
xdata	ENDS
;	COMDAT xdata
xdata	SEGMENT
$unwind$_FILL_MEMORY_BYTE DD 020501H
	DD	017405H
xdata	ENDS
;	COMDAT xdata
xdata	SEGMENT
$unwind$_ZERO_MEMORY_64 DD 020501H
	DD	017405H
xdata	ENDS
;	COMDAT xdata
xdata	SEGMENT
$unwind$_ZERO_MEMORY_32 DD 020501H
	DD	017405H
xdata	ENDS
;	COMDAT xdata
xdata	SEGMENT
$unwind$_ZERO_MEMORY_16 DD 020501H
	DD	017405H
xdata	ENDS
;	COMDAT xdata
xdata	SEGMENT
$unwind$_ZERO_MEMORY_BYTE DD 020501H
	DD	017405H
xdata	ENDS
;	COMDAT xdata
xdata	SEGMENT
$unwind$_COPY_MEMORY_UNIT DD 040a01H
	DD	02740aH
	DD	016405H
xdata	ENDS
;	COMDAT xdata
xdata	SEGMENT
$unwind$PMC_Dispose DD 020a01H
	DD	03006320aH
xdata	ENDS
;	COMDAT xdata
xdata	SEGMENT
$unwind$Initialize_Memory DD 040a01H
	DD	06340aH
	DD	07006320aH
xdata	ENDS
;	COMDAT xdata
xdata	SEGMENT
$unwind$DuplicateNumber DD 085401H
	DD	077454H
	DD	06344fH
	DD	08640bH
	DD	0e007320bH
xdata	ENDS
;	COMDAT xdata
xdata	SEGMENT
$unwind$CommitNumber DD 010401H
	DD	04204H
xdata	ENDS
;	COMDAT xdata
xdata	SEGMENT
$unwind$DeallocateNumber DD 020a01H
	DD	03006320aH
xdata	ENDS
;	COMDAT xdata
xdata	SEGMENT
$unwind$AllocateNumber DD 081401H
	DD	086414H
	DD	075414H
	DD	063414H
	DD	070103214H
xdata	ENDS
;	COMDAT xdata
xdata	SEGMENT
$unwind$AttatchNumber DD 020601H
	DD	030023206H
xdata	ENDS
;	COMDAT xdata
xdata	SEGMENT
$chain$1$DeallocateBlock DD 021H
	DD	imagerel $LN9
	DD	imagerel $LN9+23
	DD	imagerel $unwind$DeallocateBlock
xdata	ENDS
;	COMDAT xdata
xdata	SEGMENT
$chain$0$DeallocateBlock DD 020521H
	DD	047405H
	DD	imagerel $LN9
	DD	imagerel $LN9+23
	DD	imagerel $unwind$DeallocateBlock
xdata	ENDS
;	COMDAT xdata
xdata	SEGMENT
$unwind$DeallocateBlock DD 010401H
	DD	04204H
xdata	ENDS
;	COMDAT xdata
xdata	SEGMENT
$unwind$AllocateBlock DD 060f01H
	DD	07640fH
	DD	06340fH
	DD	0700b320fH
xdata	ENDS
;	COMDAT xdata
xdata	SEGMENT
$unwind$DeallocateHeapArea DD 010401H
	DD	04204H
xdata	ENDS
;	COMDAT xdata
xdata	SEGMENT
$unwind$AllocateHeapArea DD 010401H
	DD	04204H
xdata	ENDS
; Function compile flags: /Ogtpy
; File z:\sources\lunor\repos\rougemeilland\palmtree.math.core.implements\palmtree.math.core.implements\memory.c
; File z:\sources\lunor\repos\rougemeilland\palmtree.math.core.implements\palmtree.math.core.implements\pmc_internal.h
; File z:\sources\lunor\repos\rougemeilland\palmtree.math.core.implements\palmtree.math.core.implements\memory.c
;	COMDAT GetTrailingZeroBitCount
_TEXT	SEGMENT
p$ = 8
word_count$ = 16
GetTrailingZeroBitCount PROC				; COMDAT

; 451  :     __UNIT_TYPE bit_count = 0;

	xor	r8d, r8d

; 452  :     while (word_count > 0)

	test	rdx, rdx
	je	SHORT $LN3@GetTrailin
	npad	8
$LL2@GetTrailin:

; 453  :     {
; 454  :         --word_count;
; 455  :         if (*p != 0)

	mov	rax, QWORD PTR [rcx]
	dec	rdx
	test	rax, rax
	jne	SHORT $LN10@GetTrailin

; 457  :         bit_count += __UNIT_TYPE_BIT_COUNT;

	add	r8, 64					; 00000040H

; 458  :         ++p;

	add	rcx, 8
	test	rdx, rdx
	jne	SHORT $LL2@GetTrailin
$LN3@GetTrailin:

; 459  :     }
; 460  :     // このルートには到達しないはず
; 461  :     return (0);

	xor	eax, eax

; 462  : }

	ret	0
$LN10@GetTrailin:
; File z:\sources\lunor\repos\rougemeilland\palmtree.math.core.implements\palmtree.math.core.implements\pmc_internal.h

; 1005 :     _BitScanForward64(&pos, x);

	bsf	rax, rax
; File z:\sources\lunor\repos\rougemeilland\palmtree.math.core.implements\palmtree.math.core.implements\memory.c

; 456  :             return (bit_count + _TZCNT_ALT_UNIT(*p));

	cdqe
	add	rax, r8

; 462  : }

	ret	0
GetTrailingZeroBitCount ENDP
_TEXT	ENDS
; Function compile flags: /Ogtpy
; File z:\sources\lunor\repos\rougemeilland\palmtree.math.core.implements\palmtree.math.core.implements\memory.c
; File z:\sources\lunor\repos\rougemeilland\palmtree.math.core.implements\palmtree.math.core.implements\pmc_internal.h
; File z:\sources\lunor\repos\rougemeilland\palmtree.math.core.implements\palmtree.math.core.implements\memory.c
; File z:\sources\lunor\repos\rougemeilland\palmtree.math.core.implements\palmtree.math.core.implements\pmc_internal.h
; File z:\sources\lunor\repos\rougemeilland\palmtree.math.core.implements\palmtree.math.core.implements\memory.c
; File z:\sources\lunor\repos\rougemeilland\palmtree.math.core.implements\palmtree.math.core.implements\pmc_internal.h
; File z:\sources\lunor\repos\rougemeilland\palmtree.math.core.implements\palmtree.math.core.implements\memory.c
;	COMDAT GetEffectiveBitLength
_TEXT	SEGMENT
p$ = 8
word_count$ = 16
effective_word_count$ = 24
GetEffectiveBitLength PROC				; COMDAT

; 429  :     if (p == NULL)

	test	rcx, rcx
	je	SHORT $LN3@GetEffecti

; 430  :     {
; 431  :         *effective_word_count = 0;
; 432  :         return (0);
; 433  :     }
; 434  :     p += word_count;

	lea	rax, QWORD PTR [rcx+rdx*8]

; 435  :     while (word_count != 0)

	test	rdx, rdx
	je	SHORT $LN3@GetEffecti
	npad	2
$LL2@GetEffecti:

; 436  :     {
; 437  :         --p;
; 438  :         if (*p != 0)

	cmp	QWORD PTR [rax-8], 0
	lea	rax, QWORD PTR [rax-8]
	jne	SHORT $LN11@GetEffecti

; 442  :         }
; 443  :         --word_count;

	sub	rdx, 1
	jne	SHORT $LL2@GetEffecti
$LN3@GetEffecti:

; 444  :     }
; 445  :     *effective_word_count = 0;

	mov	QWORD PTR [r8], 0

; 446  :     return (0);

	xor	eax, eax

; 447  : }

	ret	0
$LN11@GetEffecti:

; 439  :         {
; 440  :             *effective_word_count = word_count;

	mov	QWORD PTR [r8], rdx

; 441  :             return (word_count * __UNIT_TYPE_BIT_COUNT - _LZCNT_ALT_UNIT(*p));

	mov	rcx, QWORD PTR [rax]
; File z:\sources\lunor\repos\rougemeilland\palmtree.math.core.implements\palmtree.math.core.implements\pmc_internal.h

; 911  :     if (x == 0)

	test	rcx, rcx
	jne	SHORT $LN8@GetEffecti

; 912  :         return (sizeof(x) * 8);

	mov	ecx, 64					; 00000040H
; File z:\sources\lunor\repos\rougemeilland\palmtree.math.core.implements\palmtree.math.core.implements\memory.c

; 441  :             return (word_count * __UNIT_TYPE_BIT_COUNT - _LZCNT_ALT_UNIT(*p));

	shl	rdx, 6
	movsxd	rax, ecx
	sub	rdx, rax
	mov	rax, rdx

; 447  : }

	ret	0
$LN8@GetEffecti:
; File z:\sources\lunor\repos\rougemeilland\palmtree.math.core.implements\palmtree.math.core.implements\pmc_internal.h

; 925  :     _BitScanReverse64(&pos, x);

	bsr	rax, rcx

; 935  :     return (sizeof(x) * 8 - 1 - pos);

	mov	ecx, 63					; 0000003fH
; File z:\sources\lunor\repos\rougemeilland\palmtree.math.core.implements\palmtree.math.core.implements\memory.c

; 441  :             return (word_count * __UNIT_TYPE_BIT_COUNT - _LZCNT_ALT_UNIT(*p));

	shl	rdx, 6
; File z:\sources\lunor\repos\rougemeilland\palmtree.math.core.implements\palmtree.math.core.implements\pmc_internal.h

; 935  :     return (sizeof(x) * 8 - 1 - pos);

	sub	ecx, eax
; File z:\sources\lunor\repos\rougemeilland\palmtree.math.core.implements\palmtree.math.core.implements\memory.c

; 441  :             return (word_count * __UNIT_TYPE_BIT_COUNT - _LZCNT_ALT_UNIT(*p));

	movsxd	rax, ecx
	sub	rdx, rax
	mov	rax, rdx

; 447  : }

	ret	0
GetEffectiveBitLength ENDP
_TEXT	ENDS
; Function compile flags: /Ogtpy
; File z:\sources\lunor\repos\rougemeilland\palmtree.math.core.implements\palmtree.math.core.implements\memory.c
; File z:\sources\lunor\repos\rougemeilland\palmtree.math.core.implements\palmtree.math.core.implements\pmc_internal.h
; File z:\sources\lunor\repos\rougemeilland\palmtree.math.core.implements\palmtree.math.core.implements\memory.c
;	COMDAT CleanUpNumber
_TEXT	SEGMENT
p$ = 48
CleanUpNumber PROC					; COMDAT

; 381  : {

	push	rbx
	sub	rsp, 32					; 00000020H

; 382  :     if (p->BLOCK != NULL)

	mov	rax, QWORD PTR [rcx+48]
	mov	rbx, rcx
	test	rax, rax
	je	SHORT $LN2@CleanUpNum

; 383  :     {
; 384  :         DeallocateBlock(p->BLOCK, p->BLOCK_COUNT);

	mov	rcx, QWORD PTR [rcx+40]

; 206  :         __UNIT_TYPE* p = buffer - 1;

	lea	r8, QWORD PTR [rax-8]

; 207  :         if (*p != buffer_words)

	cmp	QWORD PTR [r8], rcx
	jne	SHORT $LN7@CleanUpNum

; 208  :         {
; 209  :             // もし、buffer の指す内容が壊れていることが明らかならば、二重解放の恐れがあるので解放処理はしない。
; 210  :         }
; 211  :         else
; 212  :         {
; 213  :             // 使用済みのバッファを既定のデータで塗りつぶす。
; 214  :             _FILL_MEMORY_UNIT(p, DEFAULT_MEMORY_DATA, buffer_words + 2);

	add	rcx, 2
	mov	QWORD PTR [rsp+48], rdi
; File z:\sources\lunor\repos\rougemeilland\palmtree.math.core.implements\palmtree.math.core.implements\pmc_internal.h

; 451  :     __stosq(d, x, count);

	mov	rdi, r8
	mov	rax, -3689348814741910324		; ccccccccccccccccH
	rep stosq
; File z:\sources\lunor\repos\rougemeilland\palmtree.math.core.implements\palmtree.math.core.implements\memory.c

; 216  :             HeapFree(hLocalHeap, 0, p);

	mov	rcx, QWORD PTR hLocalHeap
	xor	edx, edx
	call	QWORD PTR __imp_HeapFree
	mov	rdi, QWORD PTR [rsp+48]
$LN7@CleanUpNum:

; 385  :         p->BLOCK = NULL;

	mov	QWORD PTR [rbx+48], 0
$LN2@CleanUpNum:

; 386  :     }
; 387  : }

	add	rsp, 32					; 00000020H
	pop	rbx
	ret	0
CleanUpNumber ENDP
_TEXT	ENDS
; Function compile flags: /Ogtpy
; File z:\sources\lunor\repos\rougemeilland\palmtree.math.core.implements\palmtree.math.core.implements\memory.c
; File z:\sources\lunor\repos\rougemeilland\palmtree.math.core.implements\palmtree.math.core.implements\pmc_internal.h
; File z:\sources\lunor\repos\rougemeilland\palmtree.math.core.implements\palmtree.math.core.implements\memory.c
;	COMDAT InitializeNumber
_TEXT	SEGMENT
p$ = 48
bit_count$ = 56
light_check_code$ = 64
InitializeNumber PROC					; COMDAT

; 358  : {

	mov	QWORD PTR [rsp+8], rbx
	mov	QWORD PTR [rsp+16], rbp
	mov	QWORD PTR [rsp+24], rsi
	mov	QWORD PTR [rsp+32], rdi
	push	r14
	sub	rsp, 32					; 00000020H

; 281  :         __p[0] = 0;

	xor	ebx, ebx

; 358  : {

	mov	r14, r8

; 281  :         __p[0] = 0;

	mov	QWORD PTR [rcx], rbx

; 358  : {

	mov	rbp, rdx

; 282  :         __p[1] = 0;

	mov	QWORD PTR [rcx+8], rbx

; 358  : {

	mov	rdi, rcx

; 283  :         __p[2] = 0;

	mov	QWORD PTR [rcx+16], rbx

; 284  :         __p[3] = 0;

	mov	QWORD PTR [rcx+24], rbx

; 285  :         __p[4] = 0;

	mov	QWORD PTR [rcx+32], rbx

; 286  :         __p[5] = 0;

	mov	QWORD PTR [rcx+40], rbx

; 287  :         __p[6] = 0;

	mov	QWORD PTR [rcx+48], rbx

; 359  :     ClearNumberHeader(p);
; 360  :     if (bit_count > 0)

	test	rdx, rdx
	je	SHORT $LN2@Initialize

; 169  : 	__UNIT_TYPE* buffer = (__UNIT_TYPE*)HeapAlloc(hLocalHeap, HEAP_ZERO_MEMORY, bytes);

	mov	rcx, QWORD PTR hLocalHeap
; File z:\sources\lunor\repos\rougemeilland\palmtree.math.core.implements\palmtree.math.core.implements\pmc_internal.h

; 475  :     return ((u + v - 1) / v);

	lea	rsi, QWORD PTR [rdx+63]
	shr	rsi, 6
; File z:\sources\lunor\repos\rougemeilland\palmtree.math.core.implements\palmtree.math.core.implements\memory.c

; 169  : 	__UNIT_TYPE* buffer = (__UNIT_TYPE*)HeapAlloc(hLocalHeap, HEAP_ZERO_MEMORY, bytes);

	lea	edx, QWORD PTR [rbx+8]
	lea	r8, QWORD PTR [rsi*8+16]
	call	QWORD PTR __imp_HeapAlloc

; 170  : 	if (buffer == NULL)

	test	rax, rax
	je	SHORT $LN32@Initialize

; 171  : 		return (NULL);
; 172  : 	buffer[0] = words1;

	mov	QWORD PTR [rax], rsi

; 173  :     *allocated_block_words = words1;
; 174  : #ifdef _DEBUG
; 175  :     // 乱数もどきを生成する。
; 176  : #ifdef _M_IX86
; 177  :     __UNIT_TYPE r = GetTickCount();
; 178  : #elif defined(_M_IX64)
; 179  : #ifdef _MSC_VER
; 180  :     __UNIT_TYPE r = GetTickCount64();
; 181  : #elif defined(__GNUC__)
; 182  :     _UINT32_T temp = GetTickCount();
; 183  :     __UNIT_TYPE r = _FROMWORDTODWORD(temp, temp);
; 184  : #else
; 185  : #error unknown compiler
; 186  : #endif
; 187  : #else
; 188  : #error unknown platform
; 189  : #endif
; 190  :     __UNIT_TYPE check_code = configuration_info.MEMORY_VERIFICATION_ENABLED ? CalculateCheckCode(&buffer[1], words1) : CHECK_CODE_INIT | r;
; 191  : #else
; 192  :     __UNIT_TYPE check_code = 0;
; 193  : #endif
; 194  :     buffer[words1 + 1] = check_code ^ (__UNIT_TYPE)&buffer[words1 + 1];

	lea	rcx, QWORD PTR [rsi+1]
	lea	rcx, QWORD PTR [rax+rcx*8]
	mov	QWORD PTR [rcx], rcx

; 195  :     if (code != NULL)

	test	r14, r14
	je	SHORT $LN28@Initialize

; 196  :         *code = check_code;

	mov	QWORD PTR [r14], rbx
$LN28@Initialize:

; 197  :     return (&buffer[1]);

	lea	rbx, QWORD PTR [rax+8]

; 361  :     {
; 362  :         __UNIT_TYPE word_count;
; 363  :         __UNIT_TYPE* block = AllocateBlock(bit_count, &word_count, light_check_code);
; 364  :         if (block == NULL)

	test	rbx, rbx
	jne	SHORT $LN3@Initialize
$LN32@Initialize:

; 365  :             return (PMC_STATUS_NOT_ENOUGH_MEMORY);

	mov	eax, -5
	jmp	SHORT $LN1@Initialize
$LN2@Initialize:

; 366  :         p->UNIT_BIT_COUNT = bit_count;
; 367  :         p->BLOCK_COUNT = word_count;
; 368  :         p->BLOCK = block;
; 369  :     }
; 370  :     else
; 371  :     {
; 372  :         // bit_count に 0 が与えられるのは、数値が 0 の場合。
; 373  :         p->UNIT_BIT_COUNT = 0;
; 374  :         p->BLOCK_COUNT = 0;
; 375  :         p->BLOCK = NULL;

	mov	rsi, rbx
	mov	rbp, rbx
$LN3@Initialize:

; 376  :     }
; 377  :     return (PMC_STATUS_OK);

	mov	QWORD PTR [rdi+8], rbp
	xor	eax, eax
	mov	QWORD PTR [rdi+40], rsi
	mov	QWORD PTR [rdi+48], rbx
$LN1@Initialize:

; 378  : }

	mov	rbx, QWORD PTR [rsp+48]
	mov	rbp, QWORD PTR [rsp+56]
	mov	rsi, QWORD PTR [rsp+64]
	mov	rdi, QWORD PTR [rsp+72]
	add	rsp, 32					; 00000020H
	pop	r14
	ret	0
InitializeNumber ENDP
_TEXT	ENDS
; Function compile flags: /Ogtpy
; File z:\sources\lunor\repos\rougemeilland\palmtree.math.core.implements\palmtree.math.core.implements\memory.c
;	COMDAT FillNumberHeader
_TEXT	SEGMENT
p$ = 8
FillNumberHeader PROC					; COMDAT

; 318  : #ifdef _M_IX64
; 319  :     if (sizeof(*p) == sizeof(_UINT64_T) * 7)
; 320  :     {
; 321  :         _UINT64_T* __p = (_UINT64_T*)p;
; 322  :         __p[0] = DEFAULT_MEMORY_DATA;

	mov	rax, -3689348814741910324		; ccccccccccccccccH
	mov	QWORD PTR [rcx], rax

; 323  :         __p[1] = DEFAULT_MEMORY_DATA;

	mov	QWORD PTR [rcx+8], rax

; 324  :         __p[2] = DEFAULT_MEMORY_DATA;

	mov	QWORD PTR [rcx+16], rax

; 325  :         __p[3] = DEFAULT_MEMORY_DATA;

	mov	QWORD PTR [rcx+24], rax

; 326  :         __p[4] = DEFAULT_MEMORY_DATA;

	mov	QWORD PTR [rcx+32], rax

; 327  :         __p[5] = DEFAULT_MEMORY_DATA;

	mov	QWORD PTR [rcx+40], rax

; 328  :         __p[6] = DEFAULT_MEMORY_DATA;

	mov	QWORD PTR [rcx+48], rax

; 329  :     }
; 330  :     else if (sizeof(*p) % sizeof(_UINT64_T) == 0)
; 331  :         _FILL_MEMORY_64((_UINT64_T*)p, DEFAULT_MEMORY_DATA, sizeof(*p) / sizeof(_UINT64_T));
; 332  :     else
; 333  :     {
; 334  : #endif
; 335  :         if (sizeof(*p) == sizeof(_UINT32_T) * 7)
; 336  :         {
; 337  :             _UINT32_T* __p = (_UINT32_T*)p;
; 338  :             __p[0] = (_UINT32_T)DEFAULT_MEMORY_DATA;
; 339  :             __p[1] = (_UINT32_T)DEFAULT_MEMORY_DATA;
; 340  :             __p[2] = (_UINT32_T)DEFAULT_MEMORY_DATA;
; 341  :             __p[3] = (_UINT32_T)DEFAULT_MEMORY_DATA;
; 342  :             __p[4] = (_UINT32_T)DEFAULT_MEMORY_DATA;
; 343  :             __p[5] = (_UINT32_T)DEFAULT_MEMORY_DATA;
; 344  :             __p[6] = (_UINT32_T)DEFAULT_MEMORY_DATA;
; 345  :         }
; 346  :         else if (sizeof(*p) % sizeof(_UINT32_T) == 0)
; 347  :             _FILL_MEMORY_32((_UINT32_T*)p, (_UINT32_T)DEFAULT_MEMORY_DATA, sizeof(*p) / sizeof(_UINT32_T));
; 348  :         else if (sizeof(*p) % sizeof(_UINT16_T) == 0)
; 349  :             _FILL_MEMORY_16((_UINT16_T*)p, (_UINT16_T)DEFAULT_MEMORY_DATA, sizeof(*p) / sizeof(_UINT16_T));
; 350  :         else
; 351  :             _FILL_MEMORY_BYTE(p, (unsigned char)DEFAULT_MEMORY_DATA, sizeof(*p));
; 352  : #ifdef _M_IX64
; 353  :     }
; 354  : #endif
; 355  : }

	ret	0
FillNumberHeader ENDP
_TEXT	ENDS
; Function compile flags: /Ogtpy
; File z:\sources\lunor\repos\rougemeilland\palmtree.math.core.implements\palmtree.math.core.implements\memory.c
;	COMDAT ClearNumberHeader
_TEXT	SEGMENT
p$ = 8
ClearNumberHeader PROC					; COMDAT

; 277  : #ifdef _M_IX64
; 278  :     if (sizeof(*p) == sizeof(_UINT64_T) * 7)
; 279  :     {
; 280  :         _UINT64_T* __p = (_UINT64_T*)p;
; 281  :         __p[0] = 0;

	xor	eax, eax
	mov	QWORD PTR [rcx], rax

; 282  :         __p[1] = 0;

	mov	QWORD PTR [rcx+8], rax

; 283  :         __p[2] = 0;

	mov	QWORD PTR [rcx+16], rax

; 284  :         __p[3] = 0;

	mov	QWORD PTR [rcx+24], rax

; 285  :         __p[4] = 0;

	mov	QWORD PTR [rcx+32], rax

; 286  :         __p[5] = 0;

	mov	QWORD PTR [rcx+40], rax

; 287  :         __p[6] = 0;

	mov	QWORD PTR [rcx+48], rax

; 288  :     }
; 289  :     else if (sizeof(*p) % sizeof(_UINT64_T) == 0)
; 290  :         _ZERO_MEMORY_64((_UINT64_T*)p, sizeof(*p) / sizeof(_UINT64_T));
; 291  :     else
; 292  :     {
; 293  : #endif
; 294  :         if (sizeof(*p) == sizeof(_UINT32_T) * 7)
; 295  :         {
; 296  :             _UINT32_T* __p = (_UINT32_T*)p;
; 297  :             __p[0] = 0;
; 298  :             __p[1] = 0;
; 299  :             __p[2] = 0;
; 300  :             __p[3] = 0;
; 301  :             __p[4] = 0;
; 302  :             __p[5] = 0;
; 303  :             __p[6] = 0;
; 304  :         }
; 305  :         else if (sizeof(*p) % sizeof(_UINT32_T) == 0)
; 306  :             _ZERO_MEMORY_32((_UINT32_T*)p, sizeof(*p) / sizeof(_UINT32_T));
; 307  :         else if (sizeof(*p) % sizeof(_UINT16_T) == 0)
; 308  :             _ZERO_MEMORY_16((_UINT16_T*)p, sizeof(*p) / sizeof(_UINT16_T));
; 309  :         else
; 310  :             _ZERO_MEMORY_BYTE(p, sizeof(*p));
; 311  : #ifdef _M_IX64
; 312  :     }
; 313  : #endif
; 314  : }

	ret	0
ClearNumberHeader ENDP
_TEXT	ENDS
; Function compile flags: /Ogtpy
; File z:\sources\lunor\repos\rougemeilland\palmtree.math.core.implements\palmtree.math.core.implements\memory.c
;	COMDAT CommitBlock
_TEXT	SEGMENT
buffer$ = 8
CommitBlock PROC					; COMDAT

; 224  :     if (buffer != NULL)

	test	rcx, rcx
	je	SHORT $LN2@CommitBloc

; 225  :     {
; 226  :         --buffer;
; 227  :         __UNIT_TYPE words = buffer[0];
; 228  : #ifdef _DEBUG
; 229  :         __UNIT_TYPE code = CalculateCheckCode(&buffer[1], words);
; 230  : #else
; 231  :         __UNIT_TYPE code = 0;
; 232  : #endif
; 233  :         buffer[words + 1] = code;

	mov	rax, QWORD PTR [rcx-8]
	mov	QWORD PTR [rcx+rax*8], 0
$LN2@CommitBloc:

; 234  :     }
; 235  : }

	ret	0
CommitBlock ENDP
_TEXT	ENDS
; Function compile flags: /Ogtpy
; File z:\sources\lunor\repos\rougemeilland\palmtree.math.core.implements\palmtree.math.core.implements\memory.c
; File z:\sources\lunor\repos\rougemeilland\palmtree.math.core.implements\palmtree.math.core.implements\pmc_internal.h
; File z:\sources\lunor\repos\rougemeilland\palmtree.math.core.implements\palmtree.math.core.implements\memory.c
; File z:\sources\lunor\repos\rougemeilland\palmtree.math.core.implements\palmtree.math.core.implements\pmc_internal.h
; File z:\sources\lunor\repos\rougemeilland\palmtree.math.core.implements\palmtree.math.core.implements\memory.c
; File z:\sources\lunor\repos\rougemeilland\palmtree.math.core.implements\palmtree.math.core.implements\pmc_internal.h
; File z:\sources\lunor\repos\rougemeilland\palmtree.math.core.implements\palmtree.math.core.implements\memory.c
; File z:\sources\lunor\repos\rougemeilland\palmtree.math.core.implements\palmtree.math.core.implements\pmc_internal.h
; File z:\sources\lunor\repos\rougemeilland\palmtree.math.core.implements\palmtree.math.core.implements\memory.c
; File z:\sources\lunor\repos\rougemeilland\palmtree.math.core.implements\palmtree.math.core.implements\pmc_internal.h
; File z:\sources\lunor\repos\rougemeilland\palmtree.math.core.implements\palmtree.math.core.implements\memory.c
; File z:\sources\lunor\repos\rougemeilland\palmtree.math.core.implements\palmtree.math.core.implements\pmc_internal.h
; File z:\sources\lunor\repos\rougemeilland\palmtree.math.core.implements\palmtree.math.core.implements\memory.c
; File z:\sources\lunor\repos\rougemeilland\palmtree.math.core.implements\palmtree.math.core.implements\pmc_internal.h
; File z:\sources\lunor\repos\rougemeilland\palmtree.math.core.implements\palmtree.math.core.implements\memory.c
; File z:\sources\lunor\repos\rougemeilland\palmtree.math.core.implements\palmtree.math.core.implements\pmc_internal.h
; File z:\sources\lunor\repos\rougemeilland\palmtree.math.core.implements\palmtree.math.core.implements\memory.c
; File z:\sources\lunor\repos\rougemeilland\palmtree.math.core.implements\palmtree.math.core.implements\pmc_internal.h
; File z:\sources\lunor\repos\rougemeilland\palmtree.math.core.implements\palmtree.math.core.implements\memory.c
; File z:\sources\lunor\repos\rougemeilland\palmtree.math.core.implements\palmtree.math.core.implements\pmc_internal.h
; File z:\sources\lunor\repos\rougemeilland\palmtree.math.core.implements\palmtree.math.core.implements\memory.c
; File z:\sources\lunor\repos\rougemeilland\palmtree.math.core.implements\palmtree.math.core.implements\pmc_internal.h
; File z:\sources\lunor\repos\rougemeilland\palmtree.math.core.implements\palmtree.math.core.implements\memory.c
; File z:\sources\lunor\repos\rougemeilland\palmtree.math.core.implements\palmtree.math.core.implements\pmc_internal.h
; File z:\sources\lunor\repos\rougemeilland\palmtree.math.core.implements\palmtree.math.core.implements\memory.c
; File z:\sources\lunor\repos\rougemeilland\palmtree.math.core.implements\palmtree.math.core.implements\pmc_internal.h
; File z:\sources\lunor\repos\rougemeilland\palmtree.math.core.implements\palmtree.math.core.implements\memory.c
; File z:\sources\lunor\repos\rougemeilland\palmtree.math.core.implements\palmtree.math.core.implements\pmc_internal.h
; File z:\sources\lunor\repos\rougemeilland\palmtree.math.core.implements\palmtree.math.core.implements\memory.c
; File z:\sources\lunor\repos\rougemeilland\palmtree.math.core.implements\palmtree.math.core.implements\pmc_internal.h
; File z:\sources\lunor\repos\rougemeilland\palmtree.math.core.implements\palmtree.math.core.implements\memory.c
; File z:\sources\lunor\repos\rougemeilland\palmtree.math.core.implements\palmtree.math.core.implements\pmc_internal.h
; File z:\sources\lunor\repos\rougemeilland\palmtree.math.core.implements\palmtree.math.core.implements\memory.c
; File z:\sources\lunor\repos\rougemeilland\palmtree.math.core.implements\palmtree.math.core.implements\pmc_internal.h
; File z:\sources\lunor\repos\rougemeilland\palmtree.math.core.implements\palmtree.math.core.implements\memory.c
; File z:\sources\lunor\repos\rougemeilland\palmtree.math.core.implements\palmtree.math.core.implements\pmc_internal.h
; File z:\sources\lunor\repos\rougemeilland\palmtree.math.core.implements\palmtree.math.core.implements\memory.c
; File z:\sources\lunor\repos\rougemeilland\palmtree.math.core.implements\palmtree.math.core.implements\pmc_internal.h
; File z:\sources\lunor\repos\rougemeilland\palmtree.math.core.implements\palmtree.math.core.implements\memory.c
; File z:\sources\lunor\repos\rougemeilland\palmtree.math.core.implements\palmtree.math.core.implements\pmc_internal.h
; File z:\sources\lunor\repos\rougemeilland\palmtree.math.core.implements\palmtree.math.core.implements\memory.c
; File z:\sources\lunor\repos\rougemeilland\palmtree.math.core.implements\palmtree.math.core.implements\pmc_internal.h
; File z:\sources\lunor\repos\rougemeilland\palmtree.math.core.implements\palmtree.math.core.implements\memory.c
; File z:\sources\lunor\repos\rougemeilland\palmtree.math.core.implements\palmtree.math.core.implements\pmc_internal.h
; File z:\sources\lunor\repos\rougemeilland\palmtree.math.core.implements\palmtree.math.core.implements\memory.c
; File z:\sources\lunor\repos\rougemeilland\palmtree.math.core.implements\palmtree.math.core.implements\pmc_internal.h
; File z:\sources\lunor\repos\rougemeilland\palmtree.math.core.implements\palmtree.math.core.implements\memory.c
; File z:\sources\lunor\repos\rougemeilland\palmtree.math.core.implements\palmtree.math.core.implements\pmc_internal.h
; File z:\sources\lunor\repos\rougemeilland\palmtree.math.core.implements\palmtree.math.core.implements\memory.c
; File z:\sources\lunor\repos\rougemeilland\palmtree.math.core.implements\palmtree.math.core.implements\pmc_internal.h
; File z:\sources\lunor\repos\rougemeilland\palmtree.math.core.implements\palmtree.math.core.implements\memory.c
; File z:\sources\lunor\repos\rougemeilland\palmtree.math.core.implements\palmtree.math.core.implements\pmc_internal.h
; File z:\sources\lunor\repos\rougemeilland\palmtree.math.core.implements\palmtree.math.core.implements\memory.c
; File z:\sources\lunor\repos\rougemeilland\palmtree.math.core.implements\palmtree.math.core.implements\pmc_internal.h
; File z:\sources\lunor\repos\rougemeilland\palmtree.math.core.implements\palmtree.math.core.implements\memory.c
; File z:\sources\lunor\repos\rougemeilland\palmtree.math.core.implements\palmtree.math.core.implements\pmc_internal.h
; File z:\sources\lunor\repos\rougemeilland\palmtree.math.core.implements\palmtree.math.core.implements\memory.c
; File z:\sources\lunor\repos\rougemeilland\palmtree.math.core.implements\palmtree.math.core.implements\pmc_internal.h
; File z:\sources\lunor\repos\rougemeilland\palmtree.math.core.implements\palmtree.math.core.implements\memory.c
; File z:\sources\lunor\repos\rougemeilland\palmtree.math.core.implements\palmtree.math.core.implements\pmc_internal.h
; File z:\sources\lunor\repos\rougemeilland\palmtree.math.core.implements\palmtree.math.core.implements\memory.c
; File z:\sources\lunor\repos\rougemeilland\palmtree.math.core.implements\palmtree.math.core.implements\pmc_internal.h
; File z:\sources\lunor\repos\rougemeilland\palmtree.math.core.implements\palmtree.math.core.implements\memory.c
; File z:\sources\lunor\repos\rougemeilland\palmtree.math.core.implements\palmtree.math.core.implements\pmc_internal.h
; File z:\sources\lunor\repos\rougemeilland\palmtree.math.core.implements\palmtree.math.core.implements\memory.c
; File z:\sources\lunor\repos\rougemeilland\palmtree.math.core.implements\palmtree.math.core.implements\pmc_internal.h
; File z:\sources\lunor\repos\rougemeilland\palmtree.math.core.implements\palmtree.math.core.implements\memory.c
; File z:\sources\lunor\repos\rougemeilland\palmtree.math.core.implements\palmtree.math.core.implements\pmc_internal.h
; File z:\sources\lunor\repos\rougemeilland\palmtree.math.core.implements\palmtree.math.core.implements\memory.c
; File z:\sources\lunor\repos\rougemeilland\palmtree.math.core.implements\palmtree.math.core.implements\pmc_internal.h
; File z:\sources\lunor\repos\rougemeilland\palmtree.math.core.implements\palmtree.math.core.implements\memory.c
; File z:\sources\lunor\repos\rougemeilland\palmtree.math.core.implements\palmtree.math.core.implements\pmc_internal.h
; File z:\sources\lunor\repos\rougemeilland\palmtree.math.core.implements\palmtree.math.core.implements\memory.c
; File z:\sources\lunor\repos\rougemeilland\palmtree.math.core.implements\palmtree.math.core.implements\pmc_internal.h
; File z:\sources\lunor\repos\rougemeilland\palmtree.math.core.implements\palmtree.math.core.implements\memory.c
; File z:\sources\lunor\repos\rougemeilland\palmtree.math.core.implements\palmtree.math.core.implements\pmc_internal.h
; File z:\sources\lunor\repos\rougemeilland\palmtree.math.core.implements\palmtree.math.core.implements\memory.c
; File z:\sources\lunor\repos\rougemeilland\palmtree.math.core.implements\palmtree.math.core.implements\pmc_internal.h
; File z:\sources\lunor\repos\rougemeilland\palmtree.math.core.implements\palmtree.math.core.implements\memory.c
; File z:\sources\lunor\repos\rougemeilland\palmtree.math.core.implements\palmtree.math.core.implements\pmc_internal.h
; File z:\sources\lunor\repos\rougemeilland\palmtree.math.core.implements\palmtree.math.core.implements\memory.c
; File z:\sources\lunor\repos\rougemeilland\palmtree.math.core.implements\palmtree.math.core.implements\pmc_internal.h
; File z:\sources\lunor\repos\rougemeilland\palmtree.math.core.implements\palmtree.math.core.implements\memory.c
; File z:\sources\lunor\repos\rougemeilland\palmtree.math.core.implements\palmtree.math.core.implements\pmc_internal.h
; File z:\sources\lunor\repos\rougemeilland\palmtree.math.core.implements\palmtree.math.core.implements\memory.c
; File z:\sources\lunor\repos\rougemeilland\palmtree.math.core.implements\palmtree.math.core.implements\pmc_internal.h
; File z:\sources\lunor\repos\rougemeilland\palmtree.math.core.implements\palmtree.math.core.implements\memory.c
; File z:\sources\lunor\repos\rougemeilland\palmtree.math.core.implements\palmtree.math.core.implements\pmc_internal.h
; File z:\sources\lunor\repos\rougemeilland\palmtree.math.core.implements\palmtree.math.core.implements\memory.c
; File z:\sources\lunor\repos\rougemeilland\palmtree.math.core.implements\palmtree.math.core.implements\pmc_internal.h
; File z:\sources\lunor\repos\rougemeilland\palmtree.math.core.implements\palmtree.math.core.implements\memory.c
; File z:\sources\lunor\repos\rougemeilland\palmtree.math.core.implements\palmtree.math.core.implements\pmc_internal.h
; File z:\sources\lunor\repos\rougemeilland\palmtree.math.core.implements\palmtree.math.core.implements\memory.c
; File z:\sources\lunor\repos\rougemeilland\palmtree.math.core.implements\palmtree.math.core.implements\pmc_internal.h
; File z:\sources\lunor\repos\rougemeilland\palmtree.math.core.implements\palmtree.math.core.implements\memory.c
; File z:\sources\lunor\repos\rougemeilland\palmtree.math.core.implements\palmtree.math.core.implements\pmc_internal.h
; File z:\sources\lunor\repos\rougemeilland\palmtree.math.core.implements\palmtree.math.core.implements\memory.c
; File z:\sources\lunor\repos\rougemeilland\palmtree.math.core.implements\palmtree.math.core.implements\pmc_internal.h
; File z:\sources\lunor\repos\rougemeilland\palmtree.math.core.implements\palmtree.math.core.implements\memory.c
; File z:\sources\lunor\repos\rougemeilland\palmtree.math.core.implements\palmtree.math.core.implements\pmc_internal.h
; File z:\sources\lunor\repos\rougemeilland\palmtree.math.core.implements\palmtree.math.core.implements\memory.c
; File z:\sources\lunor\repos\rougemeilland\palmtree.math.core.implements\palmtree.math.core.implements\pmc_internal.h
; File z:\sources\lunor\repos\rougemeilland\palmtree.math.core.implements\palmtree.math.core.implements\memory.c
; File z:\sources\lunor\repos\rougemeilland\palmtree.math.core.implements\palmtree.math.core.implements\pmc_internal.h
; File z:\sources\lunor\repos\rougemeilland\palmtree.math.core.implements\palmtree.math.core.implements\memory.c
; File z:\sources\lunor\repos\rougemeilland\palmtree.math.core.implements\palmtree.math.core.implements\pmc_internal.h
; File z:\sources\lunor\repos\rougemeilland\palmtree.math.core.implements\palmtree.math.core.implements\memory.c
; File z:\sources\lunor\repos\rougemeilland\palmtree.math.core.implements\palmtree.math.core.implements\pmc_internal.h
; File z:\sources\lunor\repos\rougemeilland\palmtree.math.core.implements\palmtree.math.core.implements\memory.c
; File z:\sources\lunor\repos\rougemeilland\palmtree.math.core.implements\palmtree.math.core.implements\pmc_internal.h
; File z:\sources\lunor\repos\rougemeilland\palmtree.math.core.implements\palmtree.math.core.implements\memory.c
; File z:\sources\lunor\repos\rougemeilland\palmtree.math.core.implements\palmtree.math.core.implements\pmc_internal.h
; File z:\sources\lunor\repos\rougemeilland\palmtree.math.core.implements\palmtree.math.core.implements\memory.c
; File z:\sources\lunor\repos\rougemeilland\palmtree.math.core.implements\palmtree.math.core.implements\pmc_internal.h
; File z:\sources\lunor\repos\rougemeilland\palmtree.math.core.implements\palmtree.math.core.implements\memory.c
; File z:\sources\lunor\repos\rougemeilland\palmtree.math.core.implements\palmtree.math.core.implements\pmc_internal.h
; File z:\sources\lunor\repos\rougemeilland\palmtree.math.core.implements\palmtree.math.core.implements\memory.c
; File z:\sources\lunor\repos\rougemeilland\palmtree.math.core.implements\palmtree.math.core.implements\pmc_internal.h
; File z:\sources\lunor\repos\rougemeilland\palmtree.math.core.implements\palmtree.math.core.implements\memory.c
; File z:\sources\lunor\repos\rougemeilland\palmtree.math.core.implements\palmtree.math.core.implements\pmc_internal.h
; File z:\sources\lunor\repos\rougemeilland\palmtree.math.core.implements\palmtree.math.core.implements\memory.c
; File z:\sources\lunor\repos\rougemeilland\palmtree.math.core.implements\palmtree.math.core.implements\pmc_internal.h
; File z:\sources\lunor\repos\rougemeilland\palmtree.math.core.implements\palmtree.math.core.implements\memory.c
; File z:\sources\lunor\repos\rougemeilland\palmtree.math.core.implements\palmtree.math.core.implements\pmc_internal.h
; File z:\sources\lunor\repos\rougemeilland\palmtree.math.core.implements\palmtree.math.core.implements\memory.c
; File z:\sources\lunor\repos\rougemeilland\palmtree.math.core.implements\palmtree.math.core.implements\pmc_internal.h
; File z:\sources\lunor\repos\rougemeilland\palmtree.math.core.implements\palmtree.math.core.implements\memory.c
;	COMDAT CalculateCheckCode
_TEXT	SEGMENT
p$ = 8
words$ = 16
CalculateCheckCode PROC					; COMDAT

; 59   : 	__UNIT_TYPE code = CHECK_CODE_INIT;
; 60   : 	
; 61   :     __UNIT_TYPE count = words >> 5;

	mov	r8, rdx
	mov	rax, -8897841259083430780		; 8484848484848484H
	shr	r8, 5

; 62   : 	while (count != 0)

	test	r8, r8
	je	$LN3@CalculateC
	npad	6
$LL2@CalculateC:
; File z:\sources\lunor\repos\rougemeilland\palmtree.math.core.implements\palmtree.math.core.implements\pmc_internal.h

; 766  :     return (_rotl64(x, count));

	rol	rax, 3
; File z:\sources\lunor\repos\rougemeilland\palmtree.math.core.implements\palmtree.math.core.implements\memory.c

; 64   :         code = _ROTATE_L_UNIT(code, 3) ^ p[0];

	xor	rax, QWORD PTR [rcx]
; File z:\sources\lunor\repos\rougemeilland\palmtree.math.core.implements\palmtree.math.core.implements\pmc_internal.h

; 766  :     return (_rotl64(x, count));

	rol	rax, 3
; File z:\sources\lunor\repos\rougemeilland\palmtree.math.core.implements\palmtree.math.core.implements\memory.c

; 65   :         code = _ROTATE_L_UNIT(code, 3) ^ p[1];

	xor	rax, QWORD PTR [rcx+8]
; File z:\sources\lunor\repos\rougemeilland\palmtree.math.core.implements\palmtree.math.core.implements\pmc_internal.h

; 766  :     return (_rotl64(x, count));

	rol	rax, 3
; File z:\sources\lunor\repos\rougemeilland\palmtree.math.core.implements\palmtree.math.core.implements\memory.c

; 66   :         code = _ROTATE_L_UNIT(code, 3) ^ p[2];

	xor	rax, QWORD PTR [rcx+16]
; File z:\sources\lunor\repos\rougemeilland\palmtree.math.core.implements\palmtree.math.core.implements\pmc_internal.h

; 766  :     return (_rotl64(x, count));

	rol	rax, 3
; File z:\sources\lunor\repos\rougemeilland\palmtree.math.core.implements\palmtree.math.core.implements\memory.c

; 67   :         code = _ROTATE_L_UNIT(code, 3) ^ p[3];

	xor	rax, QWORD PTR [rcx+24]
; File z:\sources\lunor\repos\rougemeilland\palmtree.math.core.implements\palmtree.math.core.implements\pmc_internal.h

; 766  :     return (_rotl64(x, count));

	rol	rax, 3
; File z:\sources\lunor\repos\rougemeilland\palmtree.math.core.implements\palmtree.math.core.implements\memory.c

; 68   :         code = _ROTATE_L_UNIT(code, 3) ^ p[4];

	xor	rax, QWORD PTR [rcx+32]
; File z:\sources\lunor\repos\rougemeilland\palmtree.math.core.implements\palmtree.math.core.implements\pmc_internal.h

; 766  :     return (_rotl64(x, count));

	rol	rax, 3
; File z:\sources\lunor\repos\rougemeilland\palmtree.math.core.implements\palmtree.math.core.implements\memory.c

; 69   :         code = _ROTATE_L_UNIT(code, 3) ^ p[5];

	xor	rax, QWORD PTR [rcx+40]
; File z:\sources\lunor\repos\rougemeilland\palmtree.math.core.implements\palmtree.math.core.implements\pmc_internal.h

; 766  :     return (_rotl64(x, count));

	rol	rax, 3
; File z:\sources\lunor\repos\rougemeilland\palmtree.math.core.implements\palmtree.math.core.implements\memory.c

; 70   :         code = _ROTATE_L_UNIT(code, 3) ^ p[6];

	xor	rax, QWORD PTR [rcx+48]
; File z:\sources\lunor\repos\rougemeilland\palmtree.math.core.implements\palmtree.math.core.implements\pmc_internal.h

; 766  :     return (_rotl64(x, count));

	rol	rax, 3
; File z:\sources\lunor\repos\rougemeilland\palmtree.math.core.implements\palmtree.math.core.implements\memory.c

; 71   :         code = _ROTATE_L_UNIT(code, 3) ^ p[7];

	xor	rax, QWORD PTR [rcx+56]
; File z:\sources\lunor\repos\rougemeilland\palmtree.math.core.implements\palmtree.math.core.implements\pmc_internal.h

; 766  :     return (_rotl64(x, count));

	rol	rax, 3
; File z:\sources\lunor\repos\rougemeilland\palmtree.math.core.implements\palmtree.math.core.implements\memory.c

; 72   :         code = _ROTATE_L_UNIT(code, 3) ^ p[8];

	xor	rax, QWORD PTR [rcx+64]
; File z:\sources\lunor\repos\rougemeilland\palmtree.math.core.implements\palmtree.math.core.implements\pmc_internal.h

; 766  :     return (_rotl64(x, count));

	rol	rax, 3
; File z:\sources\lunor\repos\rougemeilland\palmtree.math.core.implements\palmtree.math.core.implements\memory.c

; 73   :         code = _ROTATE_L_UNIT(code, 3) ^ p[9];

	xor	rax, QWORD PTR [rcx+72]
; File z:\sources\lunor\repos\rougemeilland\palmtree.math.core.implements\palmtree.math.core.implements\pmc_internal.h

; 766  :     return (_rotl64(x, count));

	rol	rax, 3
; File z:\sources\lunor\repos\rougemeilland\palmtree.math.core.implements\palmtree.math.core.implements\memory.c

; 74   :         code = _ROTATE_L_UNIT(code, 3) ^ p[10];

	xor	rax, QWORD PTR [rcx+80]
; File z:\sources\lunor\repos\rougemeilland\palmtree.math.core.implements\palmtree.math.core.implements\pmc_internal.h

; 766  :     return (_rotl64(x, count));

	rol	rax, 3
; File z:\sources\lunor\repos\rougemeilland\palmtree.math.core.implements\palmtree.math.core.implements\memory.c

; 75   :         code = _ROTATE_L_UNIT(code, 3) ^ p[11];

	xor	rax, QWORD PTR [rcx+88]
; File z:\sources\lunor\repos\rougemeilland\palmtree.math.core.implements\palmtree.math.core.implements\pmc_internal.h

; 766  :     return (_rotl64(x, count));

	rol	rax, 3
; File z:\sources\lunor\repos\rougemeilland\palmtree.math.core.implements\palmtree.math.core.implements\memory.c

; 76   :         code = _ROTATE_L_UNIT(code, 3) ^ p[12];

	xor	rax, QWORD PTR [rcx+96]
; File z:\sources\lunor\repos\rougemeilland\palmtree.math.core.implements\palmtree.math.core.implements\pmc_internal.h

; 766  :     return (_rotl64(x, count));

	rol	rax, 3
; File z:\sources\lunor\repos\rougemeilland\palmtree.math.core.implements\palmtree.math.core.implements\memory.c

; 77   :         code = _ROTATE_L_UNIT(code, 3) ^ p[13];

	xor	rax, QWORD PTR [rcx+104]
; File z:\sources\lunor\repos\rougemeilland\palmtree.math.core.implements\palmtree.math.core.implements\pmc_internal.h

; 766  :     return (_rotl64(x, count));

	rol	rax, 3
; File z:\sources\lunor\repos\rougemeilland\palmtree.math.core.implements\palmtree.math.core.implements\memory.c

; 78   :         code = _ROTATE_L_UNIT(code, 3) ^ p[14];

	xor	rax, QWORD PTR [rcx+112]
; File z:\sources\lunor\repos\rougemeilland\palmtree.math.core.implements\palmtree.math.core.implements\pmc_internal.h

; 766  :     return (_rotl64(x, count));

	rol	rax, 3
; File z:\sources\lunor\repos\rougemeilland\palmtree.math.core.implements\palmtree.math.core.implements\memory.c

; 79   :         code = _ROTATE_L_UNIT(code, 3) ^ p[15];

	xor	rax, QWORD PTR [rcx+120]
; File z:\sources\lunor\repos\rougemeilland\palmtree.math.core.implements\palmtree.math.core.implements\pmc_internal.h

; 766  :     return (_rotl64(x, count));

	rol	rax, 3
; File z:\sources\lunor\repos\rougemeilland\palmtree.math.core.implements\palmtree.math.core.implements\memory.c

; 80   :         code = _ROTATE_L_UNIT(code, 3) ^ p[16];

	xor	rax, QWORD PTR [rcx+128]
; File z:\sources\lunor\repos\rougemeilland\palmtree.math.core.implements\palmtree.math.core.implements\pmc_internal.h

; 766  :     return (_rotl64(x, count));

	rol	rax, 3
; File z:\sources\lunor\repos\rougemeilland\palmtree.math.core.implements\palmtree.math.core.implements\memory.c

; 81   :         code = _ROTATE_L_UNIT(code, 3) ^ p[17];

	xor	rax, QWORD PTR [rcx+136]
; File z:\sources\lunor\repos\rougemeilland\palmtree.math.core.implements\palmtree.math.core.implements\pmc_internal.h

; 766  :     return (_rotl64(x, count));

	rol	rax, 3
; File z:\sources\lunor\repos\rougemeilland\palmtree.math.core.implements\palmtree.math.core.implements\memory.c

; 82   :         code = _ROTATE_L_UNIT(code, 3) ^ p[18];

	xor	rax, QWORD PTR [rcx+144]
; File z:\sources\lunor\repos\rougemeilland\palmtree.math.core.implements\palmtree.math.core.implements\pmc_internal.h

; 766  :     return (_rotl64(x, count));

	rol	rax, 3
; File z:\sources\lunor\repos\rougemeilland\palmtree.math.core.implements\palmtree.math.core.implements\memory.c

; 83   :         code = _ROTATE_L_UNIT(code, 3) ^ p[19];

	xor	rax, QWORD PTR [rcx+152]
; File z:\sources\lunor\repos\rougemeilland\palmtree.math.core.implements\palmtree.math.core.implements\pmc_internal.h

; 766  :     return (_rotl64(x, count));

	rol	rax, 3
; File z:\sources\lunor\repos\rougemeilland\palmtree.math.core.implements\palmtree.math.core.implements\memory.c

; 84   :         code = _ROTATE_L_UNIT(code, 3) ^ p[20];

	xor	rax, QWORD PTR [rcx+160]
; File z:\sources\lunor\repos\rougemeilland\palmtree.math.core.implements\palmtree.math.core.implements\pmc_internal.h

; 766  :     return (_rotl64(x, count));

	rol	rax, 3
; File z:\sources\lunor\repos\rougemeilland\palmtree.math.core.implements\palmtree.math.core.implements\memory.c

; 85   :         code = _ROTATE_L_UNIT(code, 3) ^ p[21];

	xor	rax, QWORD PTR [rcx+168]
; File z:\sources\lunor\repos\rougemeilland\palmtree.math.core.implements\palmtree.math.core.implements\pmc_internal.h

; 766  :     return (_rotl64(x, count));

	rol	rax, 3
; File z:\sources\lunor\repos\rougemeilland\palmtree.math.core.implements\palmtree.math.core.implements\memory.c

; 86   :         code = _ROTATE_L_UNIT(code, 3) ^ p[22];

	xor	rax, QWORD PTR [rcx+176]
; File z:\sources\lunor\repos\rougemeilland\palmtree.math.core.implements\palmtree.math.core.implements\pmc_internal.h

; 766  :     return (_rotl64(x, count));

	rol	rax, 3
; File z:\sources\lunor\repos\rougemeilland\palmtree.math.core.implements\palmtree.math.core.implements\memory.c

; 87   :         code = _ROTATE_L_UNIT(code, 3) ^ p[23];

	xor	rax, QWORD PTR [rcx+184]
; File z:\sources\lunor\repos\rougemeilland\palmtree.math.core.implements\palmtree.math.core.implements\pmc_internal.h

; 766  :     return (_rotl64(x, count));

	rol	rax, 3
; File z:\sources\lunor\repos\rougemeilland\palmtree.math.core.implements\palmtree.math.core.implements\memory.c

; 88   :         code = _ROTATE_L_UNIT(code, 3) ^ p[24];

	xor	rax, QWORD PTR [rcx+192]
; File z:\sources\lunor\repos\rougemeilland\palmtree.math.core.implements\palmtree.math.core.implements\pmc_internal.h

; 766  :     return (_rotl64(x, count));

	rol	rax, 3
; File z:\sources\lunor\repos\rougemeilland\palmtree.math.core.implements\palmtree.math.core.implements\memory.c

; 89   :         code = _ROTATE_L_UNIT(code, 3) ^ p[25];

	xor	rax, QWORD PTR [rcx+200]
; File z:\sources\lunor\repos\rougemeilland\palmtree.math.core.implements\palmtree.math.core.implements\pmc_internal.h

; 766  :     return (_rotl64(x, count));

	rol	rax, 3
; File z:\sources\lunor\repos\rougemeilland\palmtree.math.core.implements\palmtree.math.core.implements\memory.c

; 90   :         code = _ROTATE_L_UNIT(code, 3) ^ p[26];

	xor	rax, QWORD PTR [rcx+208]
; File z:\sources\lunor\repos\rougemeilland\palmtree.math.core.implements\palmtree.math.core.implements\pmc_internal.h

; 766  :     return (_rotl64(x, count));

	rol	rax, 3
; File z:\sources\lunor\repos\rougemeilland\palmtree.math.core.implements\palmtree.math.core.implements\memory.c

; 91   :         code = _ROTATE_L_UNIT(code, 3) ^ p[27];

	xor	rax, QWORD PTR [rcx+216]
; File z:\sources\lunor\repos\rougemeilland\palmtree.math.core.implements\palmtree.math.core.implements\pmc_internal.h

; 766  :     return (_rotl64(x, count));

	rol	rax, 3
; File z:\sources\lunor\repos\rougemeilland\palmtree.math.core.implements\palmtree.math.core.implements\memory.c

; 92   :         code = _ROTATE_L_UNIT(code, 3) ^ p[28];

	xor	rax, QWORD PTR [rcx+224]
; File z:\sources\lunor\repos\rougemeilland\palmtree.math.core.implements\palmtree.math.core.implements\pmc_internal.h

; 766  :     return (_rotl64(x, count));

	rol	rax, 3
; File z:\sources\lunor\repos\rougemeilland\palmtree.math.core.implements\palmtree.math.core.implements\memory.c

; 93   :         code = _ROTATE_L_UNIT(code, 3) ^ p[29];

	xor	rax, QWORD PTR [rcx+232]
; File z:\sources\lunor\repos\rougemeilland\palmtree.math.core.implements\palmtree.math.core.implements\pmc_internal.h

; 766  :     return (_rotl64(x, count));

	rol	rax, 3
; File z:\sources\lunor\repos\rougemeilland\palmtree.math.core.implements\palmtree.math.core.implements\memory.c

; 94   :         code = _ROTATE_L_UNIT(code, 3) ^ p[30];

	xor	rax, QWORD PTR [rcx+240]
; File z:\sources\lunor\repos\rougemeilland\palmtree.math.core.implements\palmtree.math.core.implements\pmc_internal.h

; 766  :     return (_rotl64(x, count));

	rol	rax, 3
; File z:\sources\lunor\repos\rougemeilland\palmtree.math.core.implements\palmtree.math.core.implements\memory.c

; 95   :         code = _ROTATE_L_UNIT(code, 3) ^ p[31];

	xor	rax, QWORD PTR [rcx+248]

; 96   :         p += 32;

	add	rcx, 256				; 00000100H

; 97   :         --count;

	sub	r8, 1
	jne	$LL2@CalculateC
$LN3@CalculateC:

; 98   :     }
; 99   : 
; 100  : 	if (words & 0x10)

	test	dl, 16
	je	$LN4@CalculateC
; File z:\sources\lunor\repos\rougemeilland\palmtree.math.core.implements\palmtree.math.core.implements\pmc_internal.h

; 766  :     return (_rotl64(x, count));

	rol	rax, 3
; File z:\sources\lunor\repos\rougemeilland\palmtree.math.core.implements\palmtree.math.core.implements\memory.c

; 102  :         code = _ROTATE_L_UNIT(code, 3) ^ p[0];

	xor	rax, QWORD PTR [rcx]
; File z:\sources\lunor\repos\rougemeilland\palmtree.math.core.implements\palmtree.math.core.implements\pmc_internal.h

; 766  :     return (_rotl64(x, count));

	rol	rax, 3
; File z:\sources\lunor\repos\rougemeilland\palmtree.math.core.implements\palmtree.math.core.implements\memory.c

; 103  :         code = _ROTATE_L_UNIT(code, 3) ^ p[1];

	xor	rax, QWORD PTR [rcx+8]
; File z:\sources\lunor\repos\rougemeilland\palmtree.math.core.implements\palmtree.math.core.implements\pmc_internal.h

; 766  :     return (_rotl64(x, count));

	rol	rax, 3
; File z:\sources\lunor\repos\rougemeilland\palmtree.math.core.implements\palmtree.math.core.implements\memory.c

; 104  :         code = _ROTATE_L_UNIT(code, 3) ^ p[2];

	xor	rax, QWORD PTR [rcx+16]
; File z:\sources\lunor\repos\rougemeilland\palmtree.math.core.implements\palmtree.math.core.implements\pmc_internal.h

; 766  :     return (_rotl64(x, count));

	rol	rax, 3
; File z:\sources\lunor\repos\rougemeilland\palmtree.math.core.implements\palmtree.math.core.implements\memory.c

; 105  :         code = _ROTATE_L_UNIT(code, 3) ^ p[3];

	xor	rax, QWORD PTR [rcx+24]
; File z:\sources\lunor\repos\rougemeilland\palmtree.math.core.implements\palmtree.math.core.implements\pmc_internal.h

; 766  :     return (_rotl64(x, count));

	rol	rax, 3
; File z:\sources\lunor\repos\rougemeilland\palmtree.math.core.implements\palmtree.math.core.implements\memory.c

; 106  :         code = _ROTATE_L_UNIT(code, 3) ^ p[4];

	xor	rax, QWORD PTR [rcx+32]
; File z:\sources\lunor\repos\rougemeilland\palmtree.math.core.implements\palmtree.math.core.implements\pmc_internal.h

; 766  :     return (_rotl64(x, count));

	rol	rax, 3
; File z:\sources\lunor\repos\rougemeilland\palmtree.math.core.implements\palmtree.math.core.implements\memory.c

; 107  :         code = _ROTATE_L_UNIT(code, 3) ^ p[5];

	xor	rax, QWORD PTR [rcx+40]
; File z:\sources\lunor\repos\rougemeilland\palmtree.math.core.implements\palmtree.math.core.implements\pmc_internal.h

; 766  :     return (_rotl64(x, count));

	rol	rax, 3
; File z:\sources\lunor\repos\rougemeilland\palmtree.math.core.implements\palmtree.math.core.implements\memory.c

; 108  :         code = _ROTATE_L_UNIT(code, 3) ^ p[6];

	xor	rax, QWORD PTR [rcx+48]
; File z:\sources\lunor\repos\rougemeilland\palmtree.math.core.implements\palmtree.math.core.implements\pmc_internal.h

; 766  :     return (_rotl64(x, count));

	rol	rax, 3
; File z:\sources\lunor\repos\rougemeilland\palmtree.math.core.implements\palmtree.math.core.implements\memory.c

; 109  :         code = _ROTATE_L_UNIT(code, 3) ^ p[7];

	xor	rax, QWORD PTR [rcx+56]
; File z:\sources\lunor\repos\rougemeilland\palmtree.math.core.implements\palmtree.math.core.implements\pmc_internal.h

; 766  :     return (_rotl64(x, count));

	rol	rax, 3
; File z:\sources\lunor\repos\rougemeilland\palmtree.math.core.implements\palmtree.math.core.implements\memory.c

; 110  :         code = _ROTATE_L_UNIT(code, 3) ^ p[8];

	xor	rax, QWORD PTR [rcx+64]
; File z:\sources\lunor\repos\rougemeilland\palmtree.math.core.implements\palmtree.math.core.implements\pmc_internal.h

; 766  :     return (_rotl64(x, count));

	rol	rax, 3
; File z:\sources\lunor\repos\rougemeilland\palmtree.math.core.implements\palmtree.math.core.implements\memory.c

; 111  :         code = _ROTATE_L_UNIT(code, 3) ^ p[9];

	xor	rax, QWORD PTR [rcx+72]
; File z:\sources\lunor\repos\rougemeilland\palmtree.math.core.implements\palmtree.math.core.implements\pmc_internal.h

; 766  :     return (_rotl64(x, count));

	rol	rax, 3
; File z:\sources\lunor\repos\rougemeilland\palmtree.math.core.implements\palmtree.math.core.implements\memory.c

; 112  :         code = _ROTATE_L_UNIT(code, 3) ^ p[10];

	xor	rax, QWORD PTR [rcx+80]
; File z:\sources\lunor\repos\rougemeilland\palmtree.math.core.implements\palmtree.math.core.implements\pmc_internal.h

; 766  :     return (_rotl64(x, count));

	rol	rax, 3
; File z:\sources\lunor\repos\rougemeilland\palmtree.math.core.implements\palmtree.math.core.implements\memory.c

; 113  :         code = _ROTATE_L_UNIT(code, 3) ^ p[11];

	xor	rax, QWORD PTR [rcx+88]
; File z:\sources\lunor\repos\rougemeilland\palmtree.math.core.implements\palmtree.math.core.implements\pmc_internal.h

; 766  :     return (_rotl64(x, count));

	rol	rax, 3
; File z:\sources\lunor\repos\rougemeilland\palmtree.math.core.implements\palmtree.math.core.implements\memory.c

; 114  :         code = _ROTATE_L_UNIT(code, 3) ^ p[12];

	xor	rax, QWORD PTR [rcx+96]
; File z:\sources\lunor\repos\rougemeilland\palmtree.math.core.implements\palmtree.math.core.implements\pmc_internal.h

; 766  :     return (_rotl64(x, count));

	rol	rax, 3
; File z:\sources\lunor\repos\rougemeilland\palmtree.math.core.implements\palmtree.math.core.implements\memory.c

; 115  :         code = _ROTATE_L_UNIT(code, 3) ^ p[13];

	xor	rax, QWORD PTR [rcx+104]
; File z:\sources\lunor\repos\rougemeilland\palmtree.math.core.implements\palmtree.math.core.implements\pmc_internal.h

; 766  :     return (_rotl64(x, count));

	rol	rax, 3
; File z:\sources\lunor\repos\rougemeilland\palmtree.math.core.implements\palmtree.math.core.implements\memory.c

; 116  :         code = _ROTATE_L_UNIT(code, 3) ^ p[14];

	xor	rax, QWORD PTR [rcx+112]
; File z:\sources\lunor\repos\rougemeilland\palmtree.math.core.implements\palmtree.math.core.implements\pmc_internal.h

; 766  :     return (_rotl64(x, count));

	rol	rax, 3
; File z:\sources\lunor\repos\rougemeilland\palmtree.math.core.implements\palmtree.math.core.implements\memory.c

; 117  :         code = _ROTATE_L_UNIT(code, 3) ^ p[15];

	xor	rax, QWORD PTR [rcx+120]

; 118  :         p += 16;

	sub	rcx, -128				; ffffffffffffff80H
$LN4@CalculateC:

; 119  :     }
; 120  : 
; 121  :     if (words & 0x8)

	test	dl, 8
	je	SHORT $LN5@CalculateC
; File z:\sources\lunor\repos\rougemeilland\palmtree.math.core.implements\palmtree.math.core.implements\pmc_internal.h

; 766  :     return (_rotl64(x, count));

	rol	rax, 3
; File z:\sources\lunor\repos\rougemeilland\palmtree.math.core.implements\palmtree.math.core.implements\memory.c

; 123  :         code = _ROTATE_L_UNIT(code, 3) ^ p[0];

	xor	rax, QWORD PTR [rcx]
; File z:\sources\lunor\repos\rougemeilland\palmtree.math.core.implements\palmtree.math.core.implements\pmc_internal.h

; 766  :     return (_rotl64(x, count));

	rol	rax, 3
; File z:\sources\lunor\repos\rougemeilland\palmtree.math.core.implements\palmtree.math.core.implements\memory.c

; 124  :         code = _ROTATE_L_UNIT(code, 3) ^ p[1];

	xor	rax, QWORD PTR [rcx+8]
; File z:\sources\lunor\repos\rougemeilland\palmtree.math.core.implements\palmtree.math.core.implements\pmc_internal.h

; 766  :     return (_rotl64(x, count));

	rol	rax, 3
; File z:\sources\lunor\repos\rougemeilland\palmtree.math.core.implements\palmtree.math.core.implements\memory.c

; 125  :         code = _ROTATE_L_UNIT(code, 3) ^ p[2];

	xor	rax, QWORD PTR [rcx+16]
; File z:\sources\lunor\repos\rougemeilland\palmtree.math.core.implements\palmtree.math.core.implements\pmc_internal.h

; 766  :     return (_rotl64(x, count));

	rol	rax, 3
; File z:\sources\lunor\repos\rougemeilland\palmtree.math.core.implements\palmtree.math.core.implements\memory.c

; 126  :         code = _ROTATE_L_UNIT(code, 3) ^ p[3];

	xor	rax, QWORD PTR [rcx+24]
; File z:\sources\lunor\repos\rougemeilland\palmtree.math.core.implements\palmtree.math.core.implements\pmc_internal.h

; 766  :     return (_rotl64(x, count));

	rol	rax, 3
; File z:\sources\lunor\repos\rougemeilland\palmtree.math.core.implements\palmtree.math.core.implements\memory.c

; 127  :         code = _ROTATE_L_UNIT(code, 3) ^ p[4];

	xor	rax, QWORD PTR [rcx+32]
; File z:\sources\lunor\repos\rougemeilland\palmtree.math.core.implements\palmtree.math.core.implements\pmc_internal.h

; 766  :     return (_rotl64(x, count));

	rol	rax, 3
; File z:\sources\lunor\repos\rougemeilland\palmtree.math.core.implements\palmtree.math.core.implements\memory.c

; 128  :         code = _ROTATE_L_UNIT(code, 3) ^ p[5];

	xor	rax, QWORD PTR [rcx+40]
; File z:\sources\lunor\repos\rougemeilland\palmtree.math.core.implements\palmtree.math.core.implements\pmc_internal.h

; 766  :     return (_rotl64(x, count));

	rol	rax, 3
; File z:\sources\lunor\repos\rougemeilland\palmtree.math.core.implements\palmtree.math.core.implements\memory.c

; 129  :         code = _ROTATE_L_UNIT(code, 3) ^ p[6];

	xor	rax, QWORD PTR [rcx+48]
; File z:\sources\lunor\repos\rougemeilland\palmtree.math.core.implements\palmtree.math.core.implements\pmc_internal.h

; 766  :     return (_rotl64(x, count));

	rol	rax, 3
; File z:\sources\lunor\repos\rougemeilland\palmtree.math.core.implements\palmtree.math.core.implements\memory.c

; 130  :         code = _ROTATE_L_UNIT(code, 3) ^ p[7];

	xor	rax, QWORD PTR [rcx+56]

; 131  :         p += 8;

	add	rcx, 64					; 00000040H
$LN5@CalculateC:

; 132  :     }
; 133  : 
; 134  :     if (words & 0x4)

	test	dl, 4
	je	SHORT $LN6@CalculateC
; File z:\sources\lunor\repos\rougemeilland\palmtree.math.core.implements\palmtree.math.core.implements\pmc_internal.h

; 766  :     return (_rotl64(x, count));

	rol	rax, 3
; File z:\sources\lunor\repos\rougemeilland\palmtree.math.core.implements\palmtree.math.core.implements\memory.c

; 136  :         code = _ROTATE_L_UNIT(code, 3) ^ p[0];

	xor	rax, QWORD PTR [rcx]
; File z:\sources\lunor\repos\rougemeilland\palmtree.math.core.implements\palmtree.math.core.implements\pmc_internal.h

; 766  :     return (_rotl64(x, count));

	rol	rax, 3
; File z:\sources\lunor\repos\rougemeilland\palmtree.math.core.implements\palmtree.math.core.implements\memory.c

; 137  :         code = _ROTATE_L_UNIT(code, 3) ^ p[1];

	xor	rax, QWORD PTR [rcx+8]
; File z:\sources\lunor\repos\rougemeilland\palmtree.math.core.implements\palmtree.math.core.implements\pmc_internal.h

; 766  :     return (_rotl64(x, count));

	rol	rax, 3
; File z:\sources\lunor\repos\rougemeilland\palmtree.math.core.implements\palmtree.math.core.implements\memory.c

; 138  :         code = _ROTATE_L_UNIT(code, 3) ^ p[2];

	xor	rax, QWORD PTR [rcx+16]
; File z:\sources\lunor\repos\rougemeilland\palmtree.math.core.implements\palmtree.math.core.implements\pmc_internal.h

; 766  :     return (_rotl64(x, count));

	rol	rax, 3
; File z:\sources\lunor\repos\rougemeilland\palmtree.math.core.implements\palmtree.math.core.implements\memory.c

; 139  :         code = _ROTATE_L_UNIT(code, 3) ^ p[3];

	xor	rax, QWORD PTR [rcx+24]

; 140  :         p += 4;

	add	rcx, 32					; 00000020H
$LN6@CalculateC:

; 141  :     }
; 142  : 
; 143  :     if (words & 0x2)

	test	dl, 2
	je	SHORT $LN7@CalculateC
; File z:\sources\lunor\repos\rougemeilland\palmtree.math.core.implements\palmtree.math.core.implements\pmc_internal.h

; 766  :     return (_rotl64(x, count));

	rol	rax, 3
; File z:\sources\lunor\repos\rougemeilland\palmtree.math.core.implements\palmtree.math.core.implements\memory.c

; 145  :         code = _ROTATE_L_UNIT(code, 3) ^ p[0];

	xor	rax, QWORD PTR [rcx]
; File z:\sources\lunor\repos\rougemeilland\palmtree.math.core.implements\palmtree.math.core.implements\pmc_internal.h

; 766  :     return (_rotl64(x, count));

	rol	rax, 3
; File z:\sources\lunor\repos\rougemeilland\palmtree.math.core.implements\palmtree.math.core.implements\memory.c

; 146  :         code = _ROTATE_L_UNIT(code, 3) ^ p[1];

	xor	rax, QWORD PTR [rcx+8]

; 147  :         p += 2;

	add	rcx, 16
$LN7@CalculateC:

; 148  :     }
; 149  : 
; 150  :     if (words & 0x1)

	test	dl, 1
	je	SHORT $LN140@CalculateC
; File z:\sources\lunor\repos\rougemeilland\palmtree.math.core.implements\palmtree.math.core.implements\pmc_internal.h

; 766  :     return (_rotl64(x, count));

	rol	rax, 3
; File z:\sources\lunor\repos\rougemeilland\palmtree.math.core.implements\palmtree.math.core.implements\memory.c

; 151  :         code = _ROTATE_L_UNIT(code, 3) ^ p[0];

	xor	rax, QWORD PTR [rcx]
$LN140@CalculateC:

; 152  :     
; 153  :     return (code);
; 154  : }

	ret	0
CalculateCheckCode ENDP
_TEXT	ENDS
; Function compile flags: /Ogtpy
; File z:\sources\lunor\repos\rougemeilland\palmtree.math.core.implements\palmtree.math.core.implements\pmc_internal.h
;	COMDAT _TZCNT_ALT_UNIT
_TEXT	SEGMENT
x$ = 8
_TZCNT_ALT_UNIT PROC					; COMDAT

; 991  :     if (x == 0)

	test	rcx, rcx
	jne	SHORT $LN2@TZCNT_ALT_

; 992  :         return (sizeof(x) * 8);

	lea	eax, QWORD PTR [rcx+64]

; 1006 : #elif defined(__GNUC__)
; 1007 :     _UINT64_T pos;
; 1008 :     __asm__("bsfq %1, %0" : "=r"(pos) : "rm"(x));
; 1009 : #else
; 1010 : #error unknown compiler
; 1011 : #endif
; 1012 : #else
; 1013 : #error unknown platform
; 1014 : #endif
; 1015 :     return (pos);
; 1016 : }

	ret	0
$LN2@TZCNT_ALT_:

; 993  : #ifdef _M_IX86
; 994  :     _UINT32_T pos;
; 995  : #ifdef _MSC_VER
; 996  :     _BitScanForward(&pos, x);
; 997  : #elif defined(__GNUC__)
; 998  :     __asm__("bsfl %1, %0" : "=r"(pos) : "rm"(x));
; 999  : #else
; 1000 : #error unknown compiler
; 1001 : #endif
; 1002 : #elif defined(_M_X64)
; 1003 : #ifdef _MSC_VER
; 1004 :     _UINT32_T pos;
; 1005 :     _BitScanForward64(&pos, x);

	bsf	rax, rcx

; 1006 : #elif defined(__GNUC__)
; 1007 :     _UINT64_T pos;
; 1008 :     __asm__("bsfq %1, %0" : "=r"(pos) : "rm"(x));
; 1009 : #else
; 1010 : #error unknown compiler
; 1011 : #endif
; 1012 : #else
; 1013 : #error unknown platform
; 1014 : #endif
; 1015 :     return (pos);
; 1016 : }

	ret	0
_TZCNT_ALT_UNIT ENDP
_TEXT	ENDS
; Function compile flags: /Ogtpy
; File z:\sources\lunor\repos\rougemeilland\palmtree.math.core.implements\palmtree.math.core.implements\pmc_internal.h
;	COMDAT _LZCNT_ALT_UNIT
_TEXT	SEGMENT
x$ = 8
_LZCNT_ALT_UNIT PROC					; COMDAT

; 911  :     if (x == 0)

	test	rcx, rcx
	jne	SHORT $LN2@LZCNT_ALT_

; 912  :         return (sizeof(x) * 8);

	mov	eax, 64					; 00000040H

; 936  : }

	ret	0
$LN2@LZCNT_ALT_:

; 913  : #ifdef _M_IX86
; 914  :     _UINT32_T pos;
; 915  : #ifdef _MSC_VER
; 916  :     _BitScanReverse(&pos, x);
; 917  : #elif defined(__GNUC__)
; 918  :     __asm__("bsrl %1, %0" : "=r"(pos) : "rm"(x));
; 919  : #else
; 920  : #error unknown compiler
; 921  : #endif
; 922  : #elif defined(_M_X64)
; 923  : #ifdef _MSC_VER
; 924  :     _UINT32_T pos;
; 925  :     _BitScanReverse64(&pos, x);

	bsr	rcx, rcx

; 926  : #elif defined(__GNUC__)
; 927  :     _UINT64_T pos;
; 928  :     __asm__("bsrq %1, %0" : "=r"(pos) : "rm"(x));
; 929  : #else
; 930  : #error unknown compiler
; 931  : #endif
; 932  : #else
; 933  : #error unknown platform
; 934  : #endif
; 935  :     return (sizeof(x) * 8 - 1 - pos);

	mov	eax, 63					; 0000003fH
	sub	eax, ecx

; 936  : }

	ret	0
_LZCNT_ALT_UNIT ENDP
_TEXT	ENDS
; Function compile flags: /Ogtpy
; File z:\sources\lunor\repos\rougemeilland\palmtree.math.core.implements\palmtree.math.core.implements\pmc_internal.h
;	COMDAT _ROTATE_L_UNIT
_TEXT	SEGMENT
x$ = 8
count$ = 16
_ROTATE_L_UNIT PROC					; COMDAT

; 762  : {

	mov	rax, rcx

; 763  : #ifdef _M_IX86
; 764  :     return (_rotl(x, count));
; 765  : #elif defined(_M_X64)
; 766  :     return (_rotl64(x, count));

	mov	ecx, edx
	rol	rax, cl

; 767  : #else
; 768  : #error unknown platform
; 769  : #endif
; 770  : }

	ret	0
_ROTATE_L_UNIT ENDP
_TEXT	ENDS
; Function compile flags: /Ogtpy
; File z:\sources\lunor\repos\rougemeilland\palmtree.math.core.implements\palmtree.math.core.implements\pmc_internal.h
;	COMDAT _DIVIDE_CEILING_UNIT
_TEXT	SEGMENT
u$ = 8
v$ = 16
_DIVIDE_CEILING_UNIT PROC				; COMDAT

; 475  :     return ((u + v - 1) / v);

	lea	rax, QWORD PTR [rdx-1]
	mov	r8, rdx
	add	rax, rcx
	xor	edx, edx
	div	r8

; 476  : }

	ret	0
_DIVIDE_CEILING_UNIT ENDP
_TEXT	ENDS
; Function compile flags: /Ogtpy
; File z:\sources\lunor\repos\rougemeilland\palmtree.math.core.implements\palmtree.math.core.implements\pmc_internal.h
;	COMDAT _FILL_MEMORY_UNIT
_TEXT	SEGMENT
d$ = 8
x$ = 16
count$ = 24
_FILL_MEMORY_UNIT PROC					; COMDAT

; 447  : {

	mov	QWORD PTR [rsp+8], rdi

; 448  : #ifdef _M_IX86
; 449  :     __stosd((unsigned long*)d, x, (unsigned long)count);
; 450  : #elif defined(_M_X64)
; 451  :     __stosq(d, x, count);

	mov	rdi, rcx
	mov	rax, rdx
	mov	rcx, r8
	rep stosq

; 452  : #else
; 453  : #error unknown platform
; 454  : #endif
; 455  : }

	mov	rdi, QWORD PTR [rsp+8]
	ret	0
_FILL_MEMORY_UNIT ENDP
_TEXT	ENDS
; Function compile flags: /Ogtpy
; File z:\sources\lunor\repos\rougemeilland\palmtree.math.core.implements\palmtree.math.core.implements\pmc_internal.h
;	COMDAT _FILL_MEMORY_64
_TEXT	SEGMENT
d$ = 8
x$ = 16
count$ = 24
_FILL_MEMORY_64 PROC					; COMDAT

; 441  : {

	mov	QWORD PTR [rsp+8], rdi

; 442  :     __stosq(d, x, count);

	mov	rdi, rcx
	mov	rax, rdx
	mov	rcx, r8
	rep stosq

; 443  : }

	mov	rdi, QWORD PTR [rsp+8]
	ret	0
_FILL_MEMORY_64 ENDP
_TEXT	ENDS
; Function compile flags: /Ogtpy
; File z:\sources\lunor\repos\rougemeilland\palmtree.math.core.implements\palmtree.math.core.implements\pmc_internal.h
;	COMDAT _FILL_MEMORY_32
_TEXT	SEGMENT
d$ = 8
x$ = 16
count$ = 24
_FILL_MEMORY_32 PROC					; COMDAT

; 435  : {

	mov	QWORD PTR [rsp+8], rdi

; 436  :     __stosd(( unsigned long*)d, x, count);

	mov	rdi, rcx
	mov	eax, edx
	mov	rcx, r8
	rep stosd

; 437  : }

	mov	rdi, QWORD PTR [rsp+8]
	ret	0
_FILL_MEMORY_32 ENDP
_TEXT	ENDS
; Function compile flags: /Ogtpy
; File z:\sources\lunor\repos\rougemeilland\palmtree.math.core.implements\palmtree.math.core.implements\pmc_internal.h
;	COMDAT _FILL_MEMORY_16
_TEXT	SEGMENT
d$ = 8
x$ = 16
count$ = 24
_FILL_MEMORY_16 PROC					; COMDAT

; 430  : {

	mov	QWORD PTR [rsp+8], rdi

; 431  :     __stosw(d, x, count);

	mov	rdi, rcx
	movzx	eax, dx
	mov	rcx, r8
	rep stosw

; 432  : }

	mov	rdi, QWORD PTR [rsp+8]
	ret	0
_FILL_MEMORY_16 ENDP
_TEXT	ENDS
; Function compile flags: /Ogtpy
; File z:\sources\lunor\repos\rougemeilland\palmtree.math.core.implements\palmtree.math.core.implements\pmc_internal.h
;	COMDAT _FILL_MEMORY_BYTE
_TEXT	SEGMENT
d$ = 8
x$ = 16
count$ = 24
_FILL_MEMORY_BYTE PROC					; COMDAT

; 425  : {

	mov	QWORD PTR [rsp+8], rdi

; 426  :     __stosb(d, x, count);

	mov	rdi, rcx
	movzx	eax, dl
	mov	rcx, r8
	rep stosb

; 427  : }

	mov	rdi, QWORD PTR [rsp+8]
	ret	0
_FILL_MEMORY_BYTE ENDP
_TEXT	ENDS
; Function compile flags: /Ogtpy
; File z:\sources\lunor\repos\rougemeilland\palmtree.math.core.implements\palmtree.math.core.implements\pmc_internal.h
;	COMDAT _ZERO_MEMORY_64
_TEXT	SEGMENT
d$ = 8
count$ = 16
_ZERO_MEMORY_64 PROC					; COMDAT

; 391  : {

	mov	QWORD PTR [rsp+8], rdi

; 392  :     __stosq(d, 0, count);

	mov	rdi, rcx
	xor	eax, eax
	mov	rcx, rdx
	rep stosq

; 393  : }

	mov	rdi, QWORD PTR [rsp+8]
	ret	0
_ZERO_MEMORY_64 ENDP
_TEXT	ENDS
; Function compile flags: /Ogtpy
; File z:\sources\lunor\repos\rougemeilland\palmtree.math.core.implements\palmtree.math.core.implements\pmc_internal.h
;	COMDAT _ZERO_MEMORY_32
_TEXT	SEGMENT
d$ = 8
count$ = 16
_ZERO_MEMORY_32 PROC					; COMDAT

; 385  : {

	mov	QWORD PTR [rsp+8], rdi

; 386  :     __stosd((unsigned long*)d, 0, count);

	mov	rdi, rcx
	xor	eax, eax
	mov	rcx, rdx
	rep stosd

; 387  : }

	mov	rdi, QWORD PTR [rsp+8]
	ret	0
_ZERO_MEMORY_32 ENDP
_TEXT	ENDS
; Function compile flags: /Ogtpy
; File z:\sources\lunor\repos\rougemeilland\palmtree.math.core.implements\palmtree.math.core.implements\pmc_internal.h
;	COMDAT _ZERO_MEMORY_16
_TEXT	SEGMENT
d$ = 8
count$ = 16
_ZERO_MEMORY_16 PROC					; COMDAT

; 380  : {

	mov	QWORD PTR [rsp+8], rdi

; 381  :     __stosw(d, 0, count);

	mov	rdi, rcx
	xor	eax, eax
	mov	rcx, rdx
	rep stosw

; 382  : }

	mov	rdi, QWORD PTR [rsp+8]
	ret	0
_ZERO_MEMORY_16 ENDP
_TEXT	ENDS
; Function compile flags: /Ogtpy
; File z:\sources\lunor\repos\rougemeilland\palmtree.math.core.implements\palmtree.math.core.implements\pmc_internal.h
;	COMDAT _ZERO_MEMORY_BYTE
_TEXT	SEGMENT
d$ = 8
count$ = 16
_ZERO_MEMORY_BYTE PROC					; COMDAT

; 375  : {

	mov	QWORD PTR [rsp+8], rdi

; 376  :     __stosb(d, 0, count);

	mov	rdi, rcx
	xor	eax, eax
	mov	rcx, rdx
	rep stosb

; 377  : }

	mov	rdi, QWORD PTR [rsp+8]
	ret	0
_ZERO_MEMORY_BYTE ENDP
_TEXT	ENDS
; Function compile flags: /Ogtpy
; File z:\sources\lunor\repos\rougemeilland\palmtree.math.core.implements\palmtree.math.core.implements\pmc_internal.h
;	COMDAT _COPY_MEMORY_UNIT
_TEXT	SEGMENT
d$ = 8
s$ = 16
count$ = 24
_COPY_MEMORY_UNIT PROC					; COMDAT

; 347  : {

	mov	QWORD PTR [rsp+8], rsi
	mov	QWORD PTR [rsp+16], rdi

; 348  : #ifdef _M_IX86
; 349  :     __movsd((unsigned long *)d, (unsigned long *)s, (unsigned long)count);
; 350  : #elif defined(_M_X64)
; 351  :     __movsq(d, s, count);

	mov	rdi, rcx
	mov	rsi, rdx
	mov	rcx, r8
	rep movsq

; 352  : #else
; 353  : #error unknown platform
; 354  : #endif
; 355  : }

	mov	rsi, QWORD PTR [rsp+8]
	mov	rdi, QWORD PTR [rsp+16]
	ret	0
_COPY_MEMORY_UNIT ENDP
_TEXT	ENDS
; Function compile flags: /Ogtpy
; File z:\sources\lunor\repos\rougemeilland\palmtree.math.core.implements\palmtree.math.core.implements\memory.c
;	COMDAT PMC_Dispose
_TEXT	SEGMENT
p$ = 48
PMC_Dispose PROC					; COMDAT

; 539  : {

$LN32:

; 420  :     if (p == NULL || p->IS_STATIC)

	test	rcx, rcx
	je	SHORT $LN30@PMC_Dispos
	push	rbx
	sub	rsp, 32					; 00000020H
	test	BYTE PTR [rcx+32], 1

; 539  : {

	mov	rbx, rcx

; 420  :     if (p == NULL || p->IS_STATIC)

	jne	SHORT $LN8@PMC_Dispos

; 421  :         return;
; 422  :     CleanUpNumber(p);

	call	CleanUpNumber

; 322  :         __p[0] = DEFAULT_MEMORY_DATA;

	mov	rax, -3689348814741910324		; ccccccccccccccccH

; 424  :     HeapFree(hLocalHeap, 0, p);

	mov	r8, rbx

; 322  :         __p[0] = DEFAULT_MEMORY_DATA;

	mov	QWORD PTR [rbx], rax

; 424  :     HeapFree(hLocalHeap, 0, p);

	xor	edx, edx

; 323  :         __p[1] = DEFAULT_MEMORY_DATA;

	mov	QWORD PTR [rbx+8], rax

; 324  :         __p[2] = DEFAULT_MEMORY_DATA;

	mov	QWORD PTR [rbx+16], rax

; 325  :         __p[3] = DEFAULT_MEMORY_DATA;

	mov	QWORD PTR [rbx+24], rax

; 326  :         __p[4] = DEFAULT_MEMORY_DATA;

	mov	QWORD PTR [rbx+32], rax

; 327  :         __p[5] = DEFAULT_MEMORY_DATA;

	mov	QWORD PTR [rbx+40], rax

; 328  :         __p[6] = DEFAULT_MEMORY_DATA;

	mov	QWORD PTR [rbx+48], rax

; 424  :     HeapFree(hLocalHeap, 0, p);

	mov	rcx, QWORD PTR hLocalHeap
	call	QWORD PTR __imp_HeapFree
$LN8@PMC_Dispos:

; 540  :     NUMBER_HEADER* np = (NUMBER_HEADER*)p;
; 541  :     PMC_STATUS_CODE result = CheckNumber(np);
; 542  :     if (result != PMC_STATUS_OK)
; 543  :         return;
; 544  :     DeallocateNumber(np);
; 545  :     return;
; 546  : }

	add	rsp, 32					; 00000020H
	pop	rbx
$LN30@PMC_Dispos:
	ret	0
PMC_Dispose ENDP
_TEXT	ENDS
; Function compile flags: /Ogtpy
; File z:\sources\lunor\repos\rougemeilland\palmtree.math.core.implements\palmtree.math.core.implements\memory.c
;	COMDAT Initialize_Memory
_TEXT	SEGMENT
feature$ = 48
Initialize_Memory PROC					; COMDAT

; 549  : {

$LN89:
	mov	QWORD PTR [rsp+8], rbx
	push	rdi
	sub	rsp, 32					; 00000020H

; 281  :         __p[0] = 0;

	xor	edi, edi

; 550  :     PMC_STATUS_CODE result = PMC_STATUS_OK;
; 551  : 
; 552  :     BOOL number_zero_ok = TRUE;
; 553  :     BOOL number_one_ok = TRUE;
; 554  :     if (result == PMC_STATUS_OK)
; 555  :     {
; 556  :         result = AttatchNumber(&number_zero, 0);
; 557  :         if (result == PMC_STATUS_OK)
; 558  :         {
; 559  :             CommitNumber(&number_zero);

	lea	rcx, OFFSET FLAT:number_zero
	xorps	xmm0, xmm0

; 285  :         __p[4] = 0;

	mov	QWORD PTR number_zero+32, rdi

; 394  :     p->IS_STATIC = TRUE;

	mov	DWORD PTR number_zero+32, 1

; 281  :         __p[0] = 0;

	mov	QWORD PTR number_zero, rdi

; 283  :         __p[2] = 0;

	movdqu	XMMWORD PTR number_zero+16, xmm0

; 373  :         p->UNIT_BIT_COUNT = 0;

	mov	QWORD PTR number_zero+8, rdi

; 374  :         p->BLOCK_COUNT = 0;

	mov	QWORD PTR number_zero+40, rdi

; 375  :         p->BLOCK = NULL;

	mov	QWORD PTR number_zero+48, rdi

; 550  :     PMC_STATUS_CODE result = PMC_STATUS_OK;
; 551  : 
; 552  :     BOOL number_zero_ok = TRUE;
; 553  :     BOOL number_one_ok = TRUE;
; 554  :     if (result == PMC_STATUS_OK)
; 555  :     {
; 556  :         result = AttatchNumber(&number_zero, 0);
; 557  :         if (result == PMC_STATUS_OK)
; 558  :         {
; 559  :             CommitNumber(&number_zero);

	call	CommitNumber

; 169  : 	__UNIT_TYPE* buffer = (__UNIT_TYPE*)HeapAlloc(hLocalHeap, HEAP_ZERO_MEMORY, bytes);

	mov	rcx, QWORD PTR hLocalHeap
	lea	edx, QWORD PTR [rdi+8]
	xorps	xmm0, xmm0

; 281  :         __p[0] = 0;

	mov	QWORD PTR number_one, rdi

; 169  : 	__UNIT_TYPE* buffer = (__UNIT_TYPE*)HeapAlloc(hLocalHeap, HEAP_ZERO_MEMORY, bytes);

	lea	r8d, QWORD PTR [rdi+24]

; 282  :         __p[1] = 0;

	mov	QWORD PTR number_one+8, rdi

; 283  :         __p[2] = 0;

	movdqu	XMMWORD PTR number_one+16, xmm0

; 284  :         __p[3] = 0;
; 285  :         __p[4] = 0;

	mov	QWORD PTR number_one+32, rdi

; 286  :         __p[5] = 0;

	mov	QWORD PTR number_one+40, rdi

; 287  :         __p[6] = 0;

	mov	QWORD PTR number_one+48, rdi

; 169  : 	__UNIT_TYPE* buffer = (__UNIT_TYPE*)HeapAlloc(hLocalHeap, HEAP_ZERO_MEMORY, bytes);

	call	QWORD PTR __imp_HeapAlloc

; 170  : 	if (buffer == NULL)

	test	rax, rax
	je	SHORT $LN86@Initialize

; 171  : 		return (NULL);
; 172  : 	buffer[0] = words1;
; 173  :     *allocated_block_words = words1;
; 174  : #ifdef _DEBUG
; 175  :     // 乱数もどきを生成する。
; 176  : #ifdef _M_IX86
; 177  :     __UNIT_TYPE r = GetTickCount();
; 178  : #elif defined(_M_IX64)
; 179  : #ifdef _MSC_VER
; 180  :     __UNIT_TYPE r = GetTickCount64();
; 181  : #elif defined(__GNUC__)
; 182  :     _UINT32_T temp = GetTickCount();
; 183  :     __UNIT_TYPE r = _FROMWORDTODWORD(temp, temp);
; 184  : #else
; 185  : #error unknown compiler
; 186  : #endif
; 187  : #else
; 188  : #error unknown platform
; 189  : #endif
; 190  :     __UNIT_TYPE check_code = configuration_info.MEMORY_VERIFICATION_ENABLED ? CalculateCheckCode(&buffer[1], words1) : CHECK_CODE_INIT | r;
; 191  : #else
; 192  :     __UNIT_TYPE check_code = 0;
; 193  : #endif
; 194  :     buffer[words1 + 1] = check_code ^ (__UNIT_TYPE)&buffer[words1 + 1];

	lea	rcx, QWORD PTR [rax+8]
	mov	QWORD PTR [rax], 1
	add	rax, 16
	mov	QWORD PTR [rcx+8], rax

; 364  :         if (block == NULL)

	test	rcx, rcx
	je	SHORT $LN86@Initialize

; 392  :     if (result != PMC_STATUS_OK)

	or	DWORD PTR number_one+32, 1
	mov	ebx, edi

; 366  :         p->UNIT_BIT_COUNT = bit_count;

	mov	QWORD PTR number_one+8, 1

; 367  :         p->BLOCK_COUNT = word_count;

	mov	QWORD PTR number_one+40, 1

; 368  :         p->BLOCK = block;

	mov	QWORD PTR number_one+48, rcx

; 394  :     p->IS_STATIC = TRUE;

	jmp	SHORT $LN44@Initialize
$LN86@Initialize:

; 365  :             return (PMC_STATUS_NOT_ENOUGH_MEMORY);

	mov	rcx, QWORD PTR number_one+48
	mov	ebx, -5
$LN44@Initialize:

; 560  :             number_zero_ok = TRUE;
; 561  :         }
; 562  :     }
; 563  : 
; 564  :     if (result == PMC_STATUS_OK)
; 565  :     {
; 566  :         result = AttatchNumber(&number_one, 1);
; 567  :         if (result == PMC_STATUS_OK)

	test	ebx, ebx
	jne	SHORT $LN5@Initialize

; 568  :         {
; 569  :             number_one.BLOCK[0] = 1;

	mov	QWORD PTR [rcx], 1

; 570  :             CommitNumber(&number_one);

	lea	rcx, OFFSET FLAT:number_one
	call	CommitNumber

; 571  :             number_one_ok = TRUE;
; 572  :         }
; 573  :     }
; 574  : 
; 575  :     if (result != PMC_STATUS_OK)
; 576  :     {
; 577  :         if (number_zero_ok)
; 578  :             DetatchNumber(&number_zero);
; 579  :         if (number_one_ok)
; 580  :             DetatchNumber(&number_one);
; 581  :     }
; 582  : 
; 583  :     return (result);

	mov	eax, edi

; 584  : }

	mov	rbx, QWORD PTR [rsp+48]
	add	rsp, 32					; 00000020H
	pop	rdi
	ret	0
$LN5@Initialize:

; 413  :     if (p == NULL || !p->IS_STATIC)

	test	BYTE PTR number_zero+32, 1
	je	SHORT $LN80@Initialize

; 414  :         return;
; 415  :     CleanUpNumber(p);

	lea	rcx, OFFSET FLAT:number_zero
	call	CleanUpNumber
$LN80@Initialize:

; 413  :     if (p == NULL || !p->IS_STATIC)

	test	BYTE PTR number_one+32, 1
	je	SHORT $LN87@Initialize

; 414  :         return;
; 415  :     CleanUpNumber(p);

	lea	rcx, OFFSET FLAT:number_one
	call	CleanUpNumber
$LN87@Initialize:

; 584  : }

	mov	eax, ebx
	mov	rbx, QWORD PTR [rsp+48]
	add	rsp, 32					; 00000020H
	pop	rdi
	ret	0
Initialize_Memory ENDP
_TEXT	ENDS
; Function compile flags: /Ogtpy
; File z:\sources\lunor\repos\rougemeilland\palmtree.math.core.implements\palmtree.math.core.implements\memory.c
; File z:\sources\lunor\repos\rougemeilland\palmtree.math.core.implements\palmtree.math.core.implements\pmc_internal.h
; File z:\sources\lunor\repos\rougemeilland\palmtree.math.core.implements\palmtree.math.core.implements\memory.c
;	COMDAT DuplicateNumber
_TEXT	SEGMENT
x$ = 48
op$ = 56
DuplicateNumber PROC					; COMDAT

; 515  : {

$LN18:
	mov	QWORD PTR [rsp+24], rsi
	push	r14
	sub	rsp, 32					; 00000020H

; 516  :     if (x->IS_STATIC)

	mov	eax, DWORD PTR [rcx+32]
	mov	r14, rdx
	mov	rsi, rcx
	test	al, 1
	je	SHORT $LN2@DuplicateN

; 517  :     {
; 518  :         *op = x;

	mov	QWORD PTR [rdx], rcx

; 519  :         return (PMC_STATUS_OK);

	xor	eax, eax

; 535  : }

	mov	rsi, QWORD PTR [rsp+64]
	add	rsp, 32					; 00000020H
	pop	r14
	ret	0
$LN2@DuplicateN:

; 520  :     }
; 521  :     if (x->IS_ZERO)

	test	al, 2
	je	SHORT $LN3@DuplicateN

; 522  :     {
; 523  :         *op = &number_zero;

	lea	rax, OFFSET FLAT:number_zero
	mov	QWORD PTR [rdx], rax

; 524  :         return (PMC_STATUS_OK);

	xor	eax, eax

; 535  : }

	mov	rsi, QWORD PTR [rsp+64]
	add	rsp, 32					; 00000020H
	pop	r14
	ret	0
$LN3@DuplicateN:

; 400  :     NUMBER_HEADER* p = (NUMBER_HEADER*)HeapAlloc(hLocalHeap, HEAP_ZERO_MEMORY, sizeof(NUMBER_HEADER));

	mov	edx, 8
	mov	QWORD PTR [rsp+48], rbx
	mov	QWORD PTR [rsp+56], rdi

; 525  :     }
; 526  :     __UNIT_TYPE x_bit_count = x->UNIT_BIT_COUNT;

	mov	rdi, QWORD PTR [rcx+8]

; 400  :     NUMBER_HEADER* p = (NUMBER_HEADER*)HeapAlloc(hLocalHeap, HEAP_ZERO_MEMORY, sizeof(NUMBER_HEADER));

	mov	rcx, QWORD PTR hLocalHeap
	lea	r8d, QWORD PTR [rdx+48]
	call	QWORD PTR __imp_HeapAlloc
	mov	rbx, rax

; 401  :     if (p == NULL)

	test	rax, rax
	jne	SHORT $LN7@DuplicateN

; 402  :         return (PMC_STATUS_NOT_ENOUGH_MEMORY);

	lea	eax, QWORD PTR [rbx-5]
	jmp	SHORT $LN16@DuplicateN
$LN7@DuplicateN:

; 403  :     PMC_STATUS_CODE result = InitializeNumber(p, bit_count, light_check_code);

	xor	r8d, r8d
	mov	rdx, rdi
	mov	rcx, rbx
	call	InitializeNumber

; 404  :     if (result != PMC_STATUS_OK)

	test	eax, eax
	jne	SHORT $LN16@DuplicateN

; 405  :         return (result);
; 406  :     p->IS_STATIC = FALSE;

	and	DWORD PTR [rbx+32], -2			; fffffffeH
; File z:\sources\lunor\repos\rougemeilland\palmtree.math.core.implements\palmtree.math.core.implements\pmc_internal.h

; 475  :     return ((u + v - 1) / v);

	lea	rcx, QWORD PTR [rdi+63]

; 351  :     __movsq(d, s, count);

	mov	rdi, QWORD PTR [rbx+48]
	mov	rsi, QWORD PTR [rsi+48]

; 475  :     return ((u + v - 1) / v);

	shr	rcx, 6

; 351  :     __movsq(d, s, count);

	rep movsq
; File z:\sources\lunor\repos\rougemeilland\palmtree.math.core.implements\palmtree.math.core.implements\memory.c

; 532  :     CommitNumber(o);

	mov	rcx, rbx
	call	CommitNumber

; 533  :     *op = o;
; 534  :     return (PMC_STATUS_OK);

	xor	eax, eax
	mov	QWORD PTR [r14], rbx
$LN16@DuplicateN:

; 535  : }

	mov	rbx, QWORD PTR [rsp+48]
	mov	rdi, QWORD PTR [rsp+56]
	mov	rsi, QWORD PTR [rsp+64]
	add	rsp, 32					; 00000020H
	pop	r14
	ret	0
DuplicateNumber ENDP
_TEXT	ENDS
; Function compile flags: /Ogtpy
; File z:\sources\lunor\repos\rougemeilland\palmtree.math.core.implements\palmtree.math.core.implements\memory.c
;	COMDAT CheckNumber
_TEXT	SEGMENT
p$ = 8
CheckNumber PROC					; COMDAT

; 499  : #ifdef _DEBUG
; 500  :     if (!p->IS_ZERO)
; 501  :     {
; 502  :         PMC_STATUS_CODE result;
; 503  :         if ((result = CheckBlock(p->BLOCK)) != PMC_STATUS_OK)
; 504  :             return (result);
; 505  :         __UNIT_TYPE desired_hash_code = CalculateCheckCode(p->BLOCK, p->UNIT_WORD_COUNT);
; 506  :         if (desired_hash_code != p->HASH_CODE)
; 507  :             return (PMC_STATUS_BAD_BUFFER);
; 508  :     }
; 509  : #endif
; 510  :     return (PMC_STATUS_OK);

	xor	eax, eax

; 511  : }

	ret	0
CheckNumber ENDP
_TEXT	ENDS
; Function compile flags: /Ogtpy
; File z:\sources\lunor\repos\rougemeilland\palmtree.math.core.implements\palmtree.math.core.implements\memory.c
; File z:\sources\lunor\repos\rougemeilland\palmtree.math.core.implements\palmtree.math.core.implements\pmc_internal.h
; File z:\sources\lunor\repos\rougemeilland\palmtree.math.core.implements\palmtree.math.core.implements\memory.c
; File z:\sources\lunor\repos\rougemeilland\palmtree.math.core.implements\palmtree.math.core.implements\pmc_internal.h
; File z:\sources\lunor\repos\rougemeilland\palmtree.math.core.implements\palmtree.math.core.implements\memory.c
; File z:\sources\lunor\repos\rougemeilland\palmtree.math.core.implements\palmtree.math.core.implements\pmc_internal.h
; File z:\sources\lunor\repos\rougemeilland\palmtree.math.core.implements\palmtree.math.core.implements\memory.c
; File z:\sources\lunor\repos\rougemeilland\palmtree.math.core.implements\palmtree.math.core.implements\pmc_internal.h
; File z:\sources\lunor\repos\rougemeilland\palmtree.math.core.implements\palmtree.math.core.implements\memory.c
;	COMDAT CommitNumber
_TEXT	SEGMENT
p$ = 48
CommitNumber PROC					; COMDAT

; 465  : {

$LN39:
	sub	rsp, 40					; 00000028H
	mov	r10, rcx

; 224  :     if (buffer != NULL)

	xor	r11d, r11d

; 466  :     CommitBlock(p->BLOCK);

	mov	rcx, QWORD PTR [rcx+48]

; 224  :     if (buffer != NULL)

	test	rcx, rcx
	je	SHORT $LN8@CommitNumb

; 225  :     {
; 226  :         --buffer;
; 227  :         __UNIT_TYPE words = buffer[0];
; 228  : #ifdef _DEBUG
; 229  :         __UNIT_TYPE code = CalculateCheckCode(&buffer[1], words);
; 230  : #else
; 231  :         __UNIT_TYPE code = 0;
; 232  : #endif
; 233  :         buffer[words + 1] = code;

	mov	rax, QWORD PTR [rcx-8]
	mov	QWORD PTR [rcx+rax*8], r11
	mov	rcx, QWORD PTR [r10+48]
$LN8@CommitNumb:

; 467  :     p->UNIT_BIT_COUNT = GetEffectiveBitLength(p->BLOCK, p->BLOCK_COUNT, &p->UNIT_WORD_COUNT);

	mov	r9, QWORD PTR [r10+40]

; 429  :     if (p == NULL)

	test	rcx, rcx
	je	SHORT $LN12@CommitNumb

; 430  :     {
; 431  :         *effective_word_count = 0;
; 432  :         return (0);
; 433  :     }
; 434  :     p += word_count;

	lea	rax, QWORD PTR [rcx+r9*8]

; 435  :     while (word_count != 0)

	test	r9, r9
	je	SHORT $LN12@CommitNumb
$LL11@CommitNumb:

; 436  :     {
; 437  :         --p;
; 438  :         if (*p != 0)

	cmp	QWORD PTR [rax-8], r11
	lea	rax, QWORD PTR [rax-8]
	jne	SHORT $LN29@CommitNumb

; 442  :         }
; 443  :         --word_count;

	sub	r9, 1
	jne	SHORT $LL11@CommitNumb
$LN12@CommitNumb:

; 467  :     p->UNIT_BIT_COUNT = GetEffectiveBitLength(p->BLOCK, p->BLOCK_COUNT, &p->UNIT_WORD_COUNT);

	mov	r9, r11
	mov	QWORD PTR [r10], r11
$LN10@CommitNumb:
	mov	QWORD PTR [r10+8], r9

; 468  :     if (p->UNIT_BIT_COUNT <= 0)

	test	r9, r9
	jne	SHORT $LN2@CommitNumb

; 469  :     {
; 470  :         p->HASH_CODE = 0;
; 471  :         p->IS_ZERO = TRUE;

	mov	eax, DWORD PTR [r10+32]
	and	eax, -21				; ffffffebH
	mov	QWORD PTR [r10+16], r11

; 472  :         p->IS_ONE = FALSE;
; 473  :         p->IS_EVEN = TRUE;
; 474  :         p->TRAILING_ZERO_BITS_COUNT = 0;
; 475  :         p->IS_POWER_OF_TWO = FALSE;

	or	eax, 10
	mov	QWORD PTR [r10+24], r11

; 494  :     }
; 495  : }

	mov	DWORD PTR [r10+32], eax
	add	rsp, 40					; 00000028H
	ret	0
$LN29@CommitNumb:

; 440  :             *effective_word_count = word_count;

	mov	QWORD PTR [r10], r9

; 441  :             return (word_count * __UNIT_TYPE_BIT_COUNT - _LZCNT_ALT_UNIT(*p));

	mov	rcx, QWORD PTR [rax]
; File z:\sources\lunor\repos\rougemeilland\palmtree.math.core.implements\palmtree.math.core.implements\pmc_internal.h

; 911  :     if (x == 0)

	test	rcx, rcx
	jne	SHORT $LN17@CommitNumb

; 912  :         return (sizeof(x) * 8);

	mov	ecx, 64					; 00000040H
; File z:\sources\lunor\repos\rougemeilland\palmtree.math.core.implements\palmtree.math.core.implements\memory.c

; 441  :             return (word_count * __UNIT_TYPE_BIT_COUNT - _LZCNT_ALT_UNIT(*p));

	shl	r9, 6
	movsxd	rax, ecx
	sub	r9, rax
	jmp	SHORT $LN10@CommitNumb
$LN17@CommitNumb:
; File z:\sources\lunor\repos\rougemeilland\palmtree.math.core.implements\palmtree.math.core.implements\pmc_internal.h

; 925  :     _BitScanReverse64(&pos, x);

	bsr	rax, rcx

; 935  :     return (sizeof(x) * 8 - 1 - pos);

	mov	ecx, 63					; 0000003fH
; File z:\sources\lunor\repos\rougemeilland\palmtree.math.core.implements\palmtree.math.core.implements\memory.c

; 441  :             return (word_count * __UNIT_TYPE_BIT_COUNT - _LZCNT_ALT_UNIT(*p));

	shl	r9, 6
; File z:\sources\lunor\repos\rougemeilland\palmtree.math.core.implements\palmtree.math.core.implements\pmc_internal.h

; 935  :     return (sizeof(x) * 8 - 1 - pos);

	sub	ecx, eax
; File z:\sources\lunor\repos\rougemeilland\palmtree.math.core.implements\palmtree.math.core.implements\memory.c

; 441  :             return (word_count * __UNIT_TYPE_BIT_COUNT - _LZCNT_ALT_UNIT(*p));

	movsxd	rax, ecx
	sub	r9, rax
	jmp	SHORT $LN10@CommitNumb
$LN2@CommitNumb:

; 476  :     }
; 477  :     else if (p->UNIT_BIT_COUNT == 1)

	mov	rdx, QWORD PTR [r10]
	mov	rcx, QWORD PTR [r10+48]
	call	CalculateCheckCode
	mov	QWORD PTR [r10+16], rax
	mov	edx, DWORD PTR [r10+32]
	and	edx, -3					; fffffffdH
	mov	DWORD PTR [r10+32], edx
	mov	rcx, QWORD PTR [r10+48]
	cmp	r9, 1
	jne	SHORT $LN4@CommitNumb

; 478  :     {
; 479  :         p->HASH_CODE = CalculateCheckCode(p->BLOCK, p->UNIT_WORD_COUNT);
; 480  :         p->IS_ZERO = FALSE;
; 481  :         p->IS_ONE = p->BLOCK[0] == 1; // 無条件でTRUEでも大丈夫だが念のため。

	mov	rax, QWORD PTR [rcx]
	mov	ecx, 4

; 482  :         p->IS_EVEN = FALSE;
; 483  :         p->TRAILING_ZERO_BITS_COUNT = 0;

	mov	QWORD PTR [r10+24], r11
	cmp	rax, r9
	cmove	r11d, ecx
	and	edx, -5					; fffffffbH

; 484  :         p->IS_POWER_OF_TWO = TRUE;

	or	r11d, edx
	and	r11d, -9				; fffffff7H
	or	r11d, 16

; 494  :     }
; 495  : }

	mov	DWORD PTR [r10+32], r11d
	add	rsp, 40					; 00000028H
	ret	0
$LN4@CommitNumb:

; 485  :     }
; 486  :     else
; 487  :     {
; 488  :         p->HASH_CODE = CalculateCheckCode(p->BLOCK, p->UNIT_WORD_COUNT);
; 489  :         p->IS_ZERO = FALSE;
; 490  :         p->IS_ONE = FALSE;

	and	edx, -5					; fffffffbH
	mov	DWORD PTR [r10+32], edx

; 491  :         p->IS_EVEN = !(p->BLOCK[0] & 1);

	mov	eax, DWORD PTR [rcx]
	shl	eax, 3
	not	eax
	xor	eax, edx
	and	eax, 8
	xor	eax, edx

; 451  :     __UNIT_TYPE bit_count = 0;

	mov	rdx, r11

; 491  :         p->IS_EVEN = !(p->BLOCK[0] & 1);

	mov	DWORD PTR [r10+32], eax

; 492  :         p->TRAILING_ZERO_BITS_COUNT = GetTrailingZeroBitCount(p->BLOCK, p->UNIT_WORD_COUNT);

	mov	rax, QWORD PTR [r10]

; 452  :     while (word_count > 0)

	test	rax, rax
	je	SHORT $LN21@CommitNumb
$LL20@CommitNumb:

; 453  :     {
; 454  :         --word_count;
; 455  :         if (*p != 0)

	mov	r8, QWORD PTR [rcx]
	dec	rax
	test	r8, r8
	jne	SHORT $LN30@CommitNumb

; 457  :         bit_count += __UNIT_TYPE_BIT_COUNT;

	add	rdx, 64					; 00000040H

; 458  :         ++p;

	add	rcx, 8
	test	rax, rax
	jne	SHORT $LL20@CommitNumb
$LN21@CommitNumb:

; 459  :     }
; 460  :     // このルートには到達しないはず
; 461  :     return (0);

	mov	rax, r11
$LN19@CommitNumb:

; 492  :         p->TRAILING_ZERO_BITS_COUNT = GetTrailingZeroBitCount(p->BLOCK, p->UNIT_WORD_COUNT);

	mov	QWORD PTR [r10+24], rax

; 493  :         p->IS_POWER_OF_TWO = p->TRAILING_ZERO_BITS_COUNT + 1 == p->UNIT_BIT_COUNT;

	mov	ecx, 16
	inc	rax
	cmp	rax, r9
	mov	eax, DWORD PTR [r10+32]
	cmove	r11d, ecx
	and	eax, -17				; ffffffefH
	or	r11d, eax

; 494  :     }
; 495  : }

	mov	DWORD PTR [r10+32], r11d
	add	rsp, 40					; 00000028H
	ret	0
$LN30@CommitNumb:
; File z:\sources\lunor\repos\rougemeilland\palmtree.math.core.implements\palmtree.math.core.implements\pmc_internal.h

; 1005 :     _BitScanForward64(&pos, x);

	bsf	rax, r8
; File z:\sources\lunor\repos\rougemeilland\palmtree.math.core.implements\palmtree.math.core.implements\memory.c

; 456  :             return (bit_count + _TZCNT_ALT_UNIT(*p));

	cdqe
	add	rax, rdx
	jmp	SHORT $LN19@CommitNumb
CommitNumber ENDP
_TEXT	ENDS
; Function compile flags: /Ogtpy
; File z:\sources\lunor\repos\rougemeilland\palmtree.math.core.implements\palmtree.math.core.implements\memory.c
;	COMDAT DeallocateNumber
_TEXT	SEGMENT
p$ = 48
DeallocateNumber PROC					; COMDAT

; 419  : {

$LN27:

; 420  :     if (p == NULL || p->IS_STATIC)

	test	rcx, rcx
	je	SHORT $LN25@Deallocate
	push	rbx
	sub	rsp, 32					; 00000020H
	test	BYTE PTR [rcx+32], 1
	mov	rbx, rcx
	jne	SHORT $LN3@Deallocate

; 421  :         return;
; 422  :     CleanUpNumber(p);

	call	CleanUpNumber

; 322  :         __p[0] = DEFAULT_MEMORY_DATA;

	mov	rax, -3689348814741910324		; ccccccccccccccccH

; 423  :     FillNumberHeader(p);
; 424  :     HeapFree(hLocalHeap, 0, p);

	mov	r8, rbx

; 322  :         __p[0] = DEFAULT_MEMORY_DATA;

	mov	QWORD PTR [rbx], rax

; 423  :     FillNumberHeader(p);
; 424  :     HeapFree(hLocalHeap, 0, p);

	xor	edx, edx

; 323  :         __p[1] = DEFAULT_MEMORY_DATA;

	mov	QWORD PTR [rbx+8], rax

; 324  :         __p[2] = DEFAULT_MEMORY_DATA;

	mov	QWORD PTR [rbx+16], rax

; 325  :         __p[3] = DEFAULT_MEMORY_DATA;

	mov	QWORD PTR [rbx+24], rax

; 326  :         __p[4] = DEFAULT_MEMORY_DATA;

	mov	QWORD PTR [rbx+32], rax

; 327  :         __p[5] = DEFAULT_MEMORY_DATA;

	mov	QWORD PTR [rbx+40], rax

; 328  :         __p[6] = DEFAULT_MEMORY_DATA;

	mov	QWORD PTR [rbx+48], rax

; 423  :     FillNumberHeader(p);
; 424  :     HeapFree(hLocalHeap, 0, p);

	mov	rcx, QWORD PTR hLocalHeap
	call	QWORD PTR __imp_HeapFree
$LN3@Deallocate:

; 425  : }

	add	rsp, 32					; 00000020H
	pop	rbx
$LN25@Deallocate:
	ret	0
DeallocateNumber ENDP
_TEXT	ENDS
; Function compile flags: /Ogtpy
; File z:\sources\lunor\repos\rougemeilland\palmtree.math.core.implements\palmtree.math.core.implements\memory.c
;	COMDAT DetatchNumber
_TEXT	SEGMENT
p$ = 8
DetatchNumber PROC					; COMDAT

; 413  :     if (p == NULL || !p->IS_STATIC)

	test	rcx, rcx
	je	SHORT $LN3@DetatchNum
	test	BYTE PTR [rcx+32], 1
	jne	CleanUpNumber
$LN3@DetatchNum:

; 414  :         return;
; 415  :     CleanUpNumber(p);
; 416  : }

	ret	0
DetatchNumber ENDP
_TEXT	ENDS
; Function compile flags: /Ogtpy
; File z:\sources\lunor\repos\rougemeilland\palmtree.math.core.implements\palmtree.math.core.implements\memory.c
;	COMDAT AllocateNumber
_TEXT	SEGMENT
pp$ = 48
bit_count$ = 56
light_check_code$ = 64
AllocateNumber PROC					; COMDAT

; 399  : {

$LN6:
	mov	QWORD PTR [rsp+8], rbx
	mov	QWORD PTR [rsp+16], rbp
	mov	QWORD PTR [rsp+24], rsi
	push	rdi
	sub	rsp, 32					; 00000020H
	mov	rbp, rdx
	mov	rsi, r8

; 400  :     NUMBER_HEADER* p = (NUMBER_HEADER*)HeapAlloc(hLocalHeap, HEAP_ZERO_MEMORY, sizeof(NUMBER_HEADER));

	mov	edx, 8
	mov	rdi, rcx
	mov	rcx, QWORD PTR hLocalHeap
	lea	r8d, QWORD PTR [rdx+48]
	call	QWORD PTR __imp_HeapAlloc
	mov	rbx, rax

; 401  :     if (p == NULL)

	test	rax, rax
	jne	SHORT $LN2@AllocateNu

; 402  :         return (PMC_STATUS_NOT_ENOUGH_MEMORY);

	lea	eax, QWORD PTR [rbx-5]
	jmp	SHORT $LN1@AllocateNu
$LN2@AllocateNu:

; 403  :     PMC_STATUS_CODE result = InitializeNumber(p, bit_count, light_check_code);

	mov	r8, rsi
	mov	rdx, rbp
	mov	rcx, rbx
	call	InitializeNumber

; 404  :     if (result != PMC_STATUS_OK)

	test	eax, eax
	jne	SHORT $LN1@AllocateNu

; 405  :         return (result);
; 406  :     p->IS_STATIC = FALSE;

	and	DWORD PTR [rbx+32], -2			; fffffffeH

; 407  :     *pp = p;

	mov	QWORD PTR [rdi], rbx
$LN1@AllocateNu:

; 408  :     return (PMC_STATUS_OK);
; 409  : }

	mov	rbx, QWORD PTR [rsp+48]
	mov	rbp, QWORD PTR [rsp+56]
	mov	rsi, QWORD PTR [rsp+64]
	add	rsp, 32					; 00000020H
	pop	rdi
	ret	0
AllocateNumber ENDP
_TEXT	ENDS
; Function compile flags: /Ogtpy
; File z:\sources\lunor\repos\rougemeilland\palmtree.math.core.implements\palmtree.math.core.implements\memory.c
;	COMDAT AttatchNumber
_TEXT	SEGMENT
p$ = 48
bit_count$ = 56
AttatchNumber PROC					; COMDAT

; 390  : {

$LN5:
	push	rbx
	sub	rsp, 32					; 00000020H

; 391  :     PMC_STATUS_CODE result = InitializeNumber(p, bit_count, NULL);

	xor	r8d, r8d
	mov	rbx, rcx
	call	InitializeNumber

; 392  :     if (result != PMC_STATUS_OK)

	test	eax, eax
	jne	SHORT $LN1@AttatchNum

; 393  :         return (result);
; 394  :     p->IS_STATIC = TRUE;

	or	DWORD PTR [rbx+32], 1
$LN1@AttatchNum:

; 395  :     return (PMC_STATUS_OK);
; 396  : }

	add	rsp, 32					; 00000020H
	pop	rbx
	ret	0
AttatchNumber ENDP
_TEXT	ENDS
; Function compile flags: /Ogtpy
; File z:\sources\lunor\repos\rougemeilland\palmtree.math.core.implements\palmtree.math.core.implements\memory.c
;	COMDAT CheckBlockLight
_TEXT	SEGMENT
buffer$ = 8
code$ = 16
CheckBlockLight PROC					; COMDAT

; 259  : #ifdef _DEBUG
; 260  :     if (buffer == NULL)
; 261  :         return (PMC_STATUS_OK);
; 262  :     --buffer;
; 263  :     __UNIT_TYPE words = buffer[0];
; 264  :     __UNIT_TYPE code_desired = buffer[words + 1] ^ (__UNIT_TYPE)&buffer[words + 1];
; 265  :     __UNIT_TYPE code_actual = code;
; 266  :     if (code_actual == code_desired)
; 267  :         return (PMC_STATUS_OK);
; 268  :     else
; 269  :         return (PMC_STATUS_BAD_BUFFER);
; 270  : #else
; 271  :     return (PMC_STATUS_OK);

	xor	eax, eax

; 272  : #endif
; 273  : }

	ret	0
CheckBlockLight ENDP
_TEXT	ENDS
; Function compile flags: /Ogtpy
; File z:\sources\lunor\repos\rougemeilland\palmtree.math.core.implements\palmtree.math.core.implements\memory.c
; File z:\sources\lunor\repos\rougemeilland\palmtree.math.core.implements\palmtree.math.core.implements\pmc_internal.h
; File z:\sources\lunor\repos\rougemeilland\palmtree.math.core.implements\palmtree.math.core.implements\memory.c
;	COMDAT DeallocateBlock
_TEXT	SEGMENT
buffer$ = 48
buffer_words$ = 56
DeallocateBlock PROC					; COMDAT

; 203  : {

$LN9:
	sub	rsp, 40					; 00000028H

; 204  : 	if (buffer != NULL)

	test	rcx, rcx
	je	SHORT $LN4@Deallocate

; 205  : 	{
; 206  :         __UNIT_TYPE* p = buffer - 1;
; 207  :         if (*p != buffer_words)

	cmp	QWORD PTR [rcx-8], rdx
	lea	r8, QWORD PTR [rcx-8]
	jne	SHORT $LN4@Deallocate

; 208  :         {
; 209  :             // もし、buffer の指す内容が壊れていることが明らかならば、二重解放の恐れがあるので解放処理はしない。
; 210  :         }
; 211  :         else
; 212  :         {
; 213  :             // 使用済みのバッファを既定のデータで塗りつぶす。
; 214  :             _FILL_MEMORY_UNIT(p, DEFAULT_MEMORY_DATA, buffer_words + 2);

	lea	rcx, QWORD PTR [rdx+2]
	mov	QWORD PTR [rsp+32], rdi
; File z:\sources\lunor\repos\rougemeilland\palmtree.math.core.implements\palmtree.math.core.implements\pmc_internal.h

; 451  :     __stosq(d, x, count);

	mov	rdi, r8
	mov	rax, -3689348814741910324		; ccccccccccccccccH
	rep stosq
; File z:\sources\lunor\repos\rougemeilland\palmtree.math.core.implements\palmtree.math.core.implements\memory.c

; 216  :             HeapFree(hLocalHeap, 0, p);

	mov	rcx, QWORD PTR hLocalHeap
	xor	edx, edx
	mov	rdi, QWORD PTR [rsp+32]

; 217  :         }
; 218  : 	}
; 219  : }

	add	rsp, 40					; 00000028H

; 216  :             HeapFree(hLocalHeap, 0, p);

	rex_jmp	QWORD PTR __imp_HeapFree
	mov	rdi, QWORD PTR [rsp+32]
$LN4@Deallocate:

; 217  :         }
; 218  : 	}
; 219  : }

	add	rsp, 40					; 00000028H
	ret	0
DeallocateBlock ENDP
_TEXT	ENDS
; Function compile flags: /Ogtpy
; File z:\sources\lunor\repos\rougemeilland\palmtree.math.core.implements\palmtree.math.core.implements\memory.c
; File z:\sources\lunor\repos\rougemeilland\palmtree.math.core.implements\palmtree.math.core.implements\pmc_internal.h
; File z:\sources\lunor\repos\rougemeilland\palmtree.math.core.implements\palmtree.math.core.implements\memory.c
; File z:\sources\lunor\repos\rougemeilland\palmtree.math.core.implements\palmtree.math.core.implements\pmc_internal.h
; File z:\sources\lunor\repos\rougemeilland\palmtree.math.core.implements\palmtree.math.core.implements\memory.c
;	COMDAT AllocateBlock
_TEXT	SEGMENT
bits$ = 48
allocated_block_words$ = 56
code$ = 64
AllocateBlock PROC					; COMDAT

; 161  : {

$LN8:
	mov	QWORD PTR [rsp+8], rbx
	mov	QWORD PTR [rsp+16], rsi
	push	rdi
	sub	rsp, 32					; 00000020H
; File z:\sources\lunor\repos\rougemeilland\palmtree.math.core.implements\palmtree.math.core.implements\pmc_internal.h

; 475  :     return ((u + v - 1) / v);

	lea	rbx, QWORD PTR [rcx+63]
; File z:\sources\lunor\repos\rougemeilland\palmtree.math.core.implements\palmtree.math.core.implements\memory.c

; 161  : {

	mov	rdi, r8

; 169  : 	__UNIT_TYPE* buffer = (__UNIT_TYPE*)HeapAlloc(hLocalHeap, HEAP_ZERO_MEMORY, bytes);

	mov	rcx, QWORD PTR hLocalHeap
	mov	rsi, rdx
; File z:\sources\lunor\repos\rougemeilland\palmtree.math.core.implements\palmtree.math.core.implements\pmc_internal.h

; 475  :     return ((u + v - 1) / v);

	shr	rbx, 6
; File z:\sources\lunor\repos\rougemeilland\palmtree.math.core.implements\palmtree.math.core.implements\memory.c

; 169  : 	__UNIT_TYPE* buffer = (__UNIT_TYPE*)HeapAlloc(hLocalHeap, HEAP_ZERO_MEMORY, bytes);

	mov	edx, 8
	lea	r8, QWORD PTR [rbx*8+16]
	call	QWORD PTR __imp_HeapAlloc
	mov	rcx, rax

; 170  : 	if (buffer == NULL)

	test	rax, rax
	jne	SHORT $LN2@AllocateBl

; 197  :     return (&buffer[1]);
; 198  : }

	mov	rbx, QWORD PTR [rsp+48]
	mov	rsi, QWORD PTR [rsp+56]
	add	rsp, 32					; 00000020H
	pop	rdi
	ret	0
$LN2@AllocateBl:

; 171  : 		return (NULL);
; 172  : 	buffer[0] = words1;

	mov	QWORD PTR [rax], rbx

; 173  :     *allocated_block_words = words1;
; 174  : #ifdef _DEBUG
; 175  :     // 乱数もどきを生成する。
; 176  : #ifdef _M_IX86
; 177  :     __UNIT_TYPE r = GetTickCount();
; 178  : #elif defined(_M_IX64)
; 179  : #ifdef _MSC_VER
; 180  :     __UNIT_TYPE r = GetTickCount64();
; 181  : #elif defined(__GNUC__)
; 182  :     _UINT32_T temp = GetTickCount();
; 183  :     __UNIT_TYPE r = _FROMWORDTODWORD(temp, temp);
; 184  : #else
; 185  : #error unknown compiler
; 186  : #endif
; 187  : #else
; 188  : #error unknown platform
; 189  : #endif
; 190  :     __UNIT_TYPE check_code = configuration_info.MEMORY_VERIFICATION_ENABLED ? CalculateCheckCode(&buffer[1], words1) : CHECK_CODE_INIT | r;
; 191  : #else
; 192  :     __UNIT_TYPE check_code = 0;
; 193  : #endif
; 194  :     buffer[words1 + 1] = check_code ^ (__UNIT_TYPE)&buffer[words1 + 1];

	lea	rax, QWORD PTR [rbx+1]
	mov	QWORD PTR [rsi], rbx
	lea	rax, QWORD PTR [rcx+rax*8]
	mov	QWORD PTR [rax], rax

; 195  :     if (code != NULL)

	test	rdi, rdi
	je	SHORT $LN3@AllocateBl

; 196  :         *code = check_code;

	mov	QWORD PTR [rdi], 0
$LN3@AllocateBl:

; 197  :     return (&buffer[1]);
; 198  : }

	mov	rbx, QWORD PTR [rsp+48]
	lea	rax, QWORD PTR [rcx+8]
	mov	rsi, QWORD PTR [rsp+56]
	add	rsp, 32					; 00000020H
	pop	rdi
	ret	0
AllocateBlock ENDP
_TEXT	ENDS
; Function compile flags: /Ogtpy
; File z:\sources\lunor\repos\rougemeilland\palmtree.math.core.implements\palmtree.math.core.implements\memory.c
;	COMDAT DeallocateHeapArea
_TEXT	SEGMENT
DeallocateHeapArea PROC					; COMDAT

; 595  : {

$LN5:
	sub	rsp, 40					; 00000028H

; 596  :     if (hLocalHeap != NULL)

	mov	rcx, QWORD PTR hLocalHeap
	test	rcx, rcx
	je	SHORT $LN2@Deallocate

; 597  :     {
; 598  :         HeapDestroy(hLocalHeap);

	call	QWORD PTR __imp_HeapDestroy

; 599  :         hLocalHeap = NULL;

	mov	QWORD PTR hLocalHeap, 0
$LN2@Deallocate:

; 600  :     }
; 601  : }

	add	rsp, 40					; 00000028H
	ret	0
DeallocateHeapArea ENDP
_TEXT	ENDS
; Function compile flags: /Ogtpy
; File z:\sources\lunor\repos\rougemeilland\palmtree.math.core.implements\palmtree.math.core.implements\memory.c
;	COMDAT AllocateHeapArea
_TEXT	SEGMENT
AllocateHeapArea PROC					; COMDAT

; 587  : {

$LN5:
	sub	rsp, 40					; 00000028H

; 588  :     hLocalHeap = HeapCreate(0, 0x1000, 0);

	xor	r8d, r8d
	mov	edx, 4096				; 00001000H
	xor	ecx, ecx
	call	QWORD PTR __imp_HeapCreate

; 589  :     if (hLocalHeap == NULL)

	xor	ecx, ecx
	mov	QWORD PTR hLocalHeap, rax
	test	rax, rax
	setne	cl
	mov	eax, ecx

; 590  :         return (FALSE);
; 591  :     return (TRUE);
; 592  : }

	add	rsp, 40					; 00000028H
	ret	0
AllocateHeapArea ENDP
_TEXT	ENDS
END
