; Listing generated by Microsoft (R) Optimizing Compiler Version 19.16.27026.1 

include listing.inc

INCLUDELIB MSVCRT
INCLUDELIB OLDNAMES

PUBLIC	DivRem_X_1W
PUBLIC	DivRem_X_X
PUBLIC	Initialize_DivRem
PUBLIC	PMC_DivRem_I_X
PUBLIC	PMC_DivRem_L_X
PUBLIC	PMC_DivRem_X_I
PUBLIC	PMC_DivRem_X_L
PUBLIC	PMC_DivRem_X_X
EXTRN	AllocateBlock:PROC
EXTRN	DeallocateBlock:PROC
EXTRN	CheckBlockLight:PROC
EXTRN	AllocateNumber:PROC
EXTRN	DeallocateNumber:PROC
EXTRN	CommitNumber:PROC
EXTRN	CheckNumber:PROC
EXTRN	DuplicateNumber:PROC
EXTRN	RightShift_Imp_DIV:PROC
EXTRN	LeftShift_Imp_DIV:PROC
EXTRN	__GSHandlerCheck:PROC
EXTRN	__security_check_cookie:PROC
EXTRN	number_zero:BYTE
EXTRN	statistics_info:BYTE
EXTRN	__security_cookie:QWORD
_BSS	SEGMENT
fp_DivRem_X_X DQ 01H DUP (?)
_BSS	ENDS
;	COMDAT pdata
pdata	SEGMENT
$pdata$DivRem_X_X DD imagerel $LN29
	DD	imagerel $LN29+231
	DD	imagerel $unwind$DivRem_X_X
pdata	ENDS
;	COMDAT pdata
pdata	SEGMENT
$pdata$PMC_DivRem_I_X DD imagerel $LN34
	DD	imagerel $LN34+206
	DD	imagerel $unwind$PMC_DivRem_I_X
pdata	ENDS
;	COMDAT pdata
pdata	SEGMENT
$pdata$PMC_DivRem_L_X DD imagerel $LN72
	DD	imagerel $LN72+523
	DD	imagerel $unwind$PMC_DivRem_L_X
pdata	ENDS
;	COMDAT pdata
pdata	SEGMENT
$pdata$PMC_DivRem_X_I DD imagerel $LN25
	DD	imagerel $LN25+385
	DD	imagerel $unwind$PMC_DivRem_X_I
pdata	ENDS
;	COMDAT pdata
pdata	SEGMENT
$pdata$PMC_DivRem_X_L DD imagerel $LN62
	DD	imagerel $LN62+89
	DD	imagerel $unwind$PMC_DivRem_X_L
pdata	ENDS
;	COMDAT pdata
pdata	SEGMENT
$pdata$1$PMC_DivRem_X_L DD imagerel $LN62+89
	DD	imagerel $LN62+496
	DD	imagerel $chain$1$PMC_DivRem_X_L
pdata	ENDS
;	COMDAT pdata
pdata	SEGMENT
$pdata$2$PMC_DivRem_X_L DD imagerel $LN62+496
	DD	imagerel $LN62+507
	DD	imagerel $chain$2$PMC_DivRem_X_L
pdata	ENDS
;	COMDAT pdata
pdata	SEGMENT
$pdata$3$PMC_DivRem_X_L DD imagerel $LN62+507
	DD	imagerel $LN62+674
	DD	imagerel $chain$3$PMC_DivRem_X_L
pdata	ENDS
;	COMDAT pdata
pdata	SEGMENT
$pdata$4$PMC_DivRem_X_L DD imagerel $LN62+674
	DD	imagerel $LN62+690
	DD	imagerel $chain$4$PMC_DivRem_X_L
pdata	ENDS
;	COMDAT pdata
pdata	SEGMENT
$pdata$PMC_DivRem_X_X DD imagerel $LN44
	DD	imagerel $LN44+120
	DD	imagerel $unwind$PMC_DivRem_X_X
pdata	ENDS
;	COMDAT pdata
pdata	SEGMENT
$pdata$0$PMC_DivRem_X_X DD imagerel $LN44+120
	DD	imagerel $LN44+434
	DD	imagerel $chain$0$PMC_DivRem_X_X
pdata	ENDS
;	COMDAT pdata
pdata	SEGMENT
$pdata$1$PMC_DivRem_X_X DD imagerel $LN44+434
	DD	imagerel $LN44+456
	DD	imagerel $chain$1$PMC_DivRem_X_X
pdata	ENDS
;	COMDAT pdata
pdata	SEGMENT
$pdata$2$PMC_DivRem_X_X DD imagerel $LN44+456
	DD	imagerel $LN44+777
	DD	imagerel $chain$2$PMC_DivRem_X_X
pdata	ENDS
;	COMDAT pdata
pdata	SEGMENT
$pdata$3$PMC_DivRem_X_X DD imagerel $LN44+777
	DD	imagerel $LN44+787
	DD	imagerel $chain$3$PMC_DivRem_X_X
pdata	ENDS
;	COMDAT pdata
pdata	SEGMENT
$pdata$_COPY_MEMORY_UNIT DD imagerel _COPY_MEMORY_UNIT
	DD	imagerel _COPY_MEMORY_UNIT+33
	DD	imagerel $unwind$_COPY_MEMORY_UNIT
pdata	ENDS
;	COMDAT pdata
pdata	SEGMENT
$pdata$_COPY_MEMORY_UNIT_DIV DD imagerel _COPY_MEMORY_UNIT_DIV
	DD	imagerel _COPY_MEMORY_UNIT_DIV+32
	DD	imagerel $unwind$_COPY_MEMORY_UNIT_DIV
pdata	ENDS
;	COMDAT pdata
pdata	SEGMENT
$pdata$CalculateQ_ DD imagerel CalculateQ_
	DD	imagerel CalculateQ_+252
	DD	imagerel $unwind$CalculateQ_
pdata	ENDS
;	COMDAT pdata
pdata	SEGMENT
$pdata$CalculateQ_X DD imagerel CalculateQ_X
	DD	imagerel CalculateQ_X+252
	DD	imagerel $unwind$CalculateQ_X
pdata	ENDS
;	COMDAT pdata
pdata	SEGMENT
$pdata$_MULTIPLY_DIGIT_UNIT_DIV DD imagerel _MULTIPLY_DIGIT_UNIT_DIV
	DD	imagerel _MULTIPLY_DIGIT_UNIT_DIV+64
	DD	imagerel $unwind$_MULTIPLY_DIGIT_UNIT_DIV
pdata	ENDS
;	COMDAT pdata
pdata	SEGMENT
$pdata$_MULTIPLYX_DIGIT_UNIT_DIV DD imagerel _MULTIPLYX_DIGIT_UNIT_DIV
	DD	imagerel _MULTIPLYX_DIGIT_UNIT_DIV+71
	DD	imagerel $unwind$_MULTIPLYX_DIGIT_UNIT_DIV
pdata	ENDS
;	COMDAT pdata
pdata	SEGMENT
$pdata$SubtructOneLine DD imagerel SubtructOneLine
	DD	imagerel SubtructOneLine+3192
	DD	imagerel $unwind$SubtructOneLine
pdata	ENDS
;	COMDAT pdata
pdata	SEGMENT
$pdata$SubtructOneLineX DD imagerel SubtructOneLineX
	DD	imagerel SubtructOneLineX+3382
	DD	imagerel $unwind$SubtructOneLineX
pdata	ENDS
;	COMDAT pdata
pdata	SEGMENT
$pdata$AddOneLine DD imagerel AddOneLine
	DD	imagerel AddOneLine+855
	DD	imagerel $unwind$AddOneLine
pdata	ENDS
;	COMDAT pdata
pdata	SEGMENT
$pdata$AddOneLineX DD imagerel AddOneLineX
	DD	imagerel AddOneLineX+927
	DD	imagerel $unwind$AddOneLineX
pdata	ENDS
;	COMDAT pdata
pdata	SEGMENT
$pdata$DivRem_X_X_using_ADC_MUL DD imagerel DivRem_X_X_using_ADC_MUL
	DD	imagerel DivRem_X_X_using_ADC_MUL+734
	DD	imagerel $unwind$DivRem_X_X_using_ADC_MUL
pdata	ENDS
;	COMDAT pdata
pdata	SEGMENT
$pdata$DivRem_X_X_using_ADX_MULX DD imagerel DivRem_X_X_using_ADX_MULX
	DD	imagerel DivRem_X_X_using_ADX_MULX+734
	DD	imagerel $unwind$DivRem_X_X_using_ADX_MULX
pdata	ENDS
;	COMDAT xdata
xdata	SEGMENT
$unwind$DivRem_X_X_using_ADX_MULX DD 091101H
	DD	0f00da211H
	DD	0d009e00bH
	DD	07005c007H
	DD	050036004H
	DD	03002H
xdata	ENDS
;	COMDAT xdata
xdata	SEGMENT
$unwind$DivRem_X_X_using_ADC_MUL DD 091101H
	DD	0f00da211H
	DD	0d009e00bH
	DD	07005c007H
	DD	050036004H
	DD	03002H
xdata	ENDS
;	COMDAT xdata
xdata	SEGMENT
$unwind$AddOneLineX DD 040a01H
	DD	06340aH
	DD	07006320aH
xdata	ENDS
;	COMDAT xdata
xdata	SEGMENT
$unwind$AddOneLine DD 020501H
	DD	013405H
xdata	ENDS
;	COMDAT xdata
xdata	SEGMENT
$unwind$SubtructOneLineX DD 0a2001H
	DD	03f0120H
	DD	0e00ff011H
	DD	0c00bd00dH
	DD	060087009H
	DD	050063007H
xdata	ENDS
;	COMDAT xdata
xdata	SEGMENT
$unwind$SubtructOneLine DD 0a2001H
	DD	03f0120H
	DD	0e00ff011H
	DD	0c00bd00dH
	DD	060087009H
	DD	050063007H
xdata	ENDS
;	COMDAT xdata
xdata	SEGMENT
$unwind$_MULTIPLYX_DIGIT_UNIT_DIV DD 020501H
	DD	023405H
xdata	ENDS
;	COMDAT xdata
xdata	SEGMENT
$unwind$_MULTIPLY_DIGIT_UNIT_DIV DD 020501H
	DD	023405H
xdata	ENDS
;	COMDAT xdata
xdata	SEGMENT
$unwind$CalculateQ_X DD 050701H
	DD	07005e007H
	DD	050036004H
	DD	03002H
xdata	ENDS
;	COMDAT xdata
xdata	SEGMENT
$unwind$CalculateQ_ DD 050701H
	DD	07005e007H
	DD	050036004H
	DD	03002H
xdata	ENDS
;	COMDAT xdata
xdata	SEGMENT
$unwind$_COPY_MEMORY_UNIT_DIV DD 040a01H
	DD	02740aH
	DD	016405H
xdata	ENDS
;	COMDAT xdata
xdata	SEGMENT
$unwind$_COPY_MEMORY_UNIT DD 040a01H
	DD	02740aH
	DD	016405H
xdata	ENDS
;	COMDAT xdata
xdata	SEGMENT
$chain$3$PMC_DivRem_X_X DD 021H
	DD	imagerel $LN44
	DD	imagerel $LN44+120
	DD	imagerel $unwind$PMC_DivRem_X_X
xdata	ENDS
;	COMDAT xdata
xdata	SEGMENT
$chain$2$PMC_DivRem_X_X DD 020021H
	DD	0136400H
	DD	imagerel $LN44
	DD	imagerel $LN44+120
	DD	imagerel $unwind$PMC_DivRem_X_X
xdata	ENDS
;	COMDAT xdata
xdata	SEGMENT
$chain$1$PMC_DivRem_X_X DD 021H
	DD	imagerel $LN44
	DD	imagerel $LN44+120
	DD	imagerel $unwind$PMC_DivRem_X_X
xdata	ENDS
;	COMDAT xdata
xdata	SEGMENT
$chain$0$PMC_DivRem_X_X DD 020821H
	DD	0136408H
	DD	imagerel $LN44
	DD	imagerel $LN44+120
	DD	imagerel $unwind$PMC_DivRem_X_X
xdata	ENDS
;	COMDAT xdata
xdata	SEGMENT
$unwind$PMC_DivRem_X_X DD 081601H
	DD	0157416H
	DD	0143416H
	DD	0f00fd216H
	DD	0500be00dH
xdata	ENDS
;	COMDAT xdata
xdata	SEGMENT
$chain$4$PMC_DivRem_X_L DD 021H
	DD	imagerel $LN62
	DD	imagerel $LN62+89
	DD	imagerel $unwind$PMC_DivRem_X_L
xdata	ENDS
;	COMDAT xdata
xdata	SEGMENT
$chain$3$PMC_DivRem_X_L DD 040021H
	DD	016f400H
	DD	015e400H
	DD	imagerel $LN62
	DD	imagerel $LN62+89
	DD	imagerel $unwind$PMC_DivRem_X_L
xdata	ENDS
;	COMDAT xdata
xdata	SEGMENT
$chain$2$PMC_DivRem_X_L DD 021H
	DD	imagerel $LN62
	DD	imagerel $LN62+89
	DD	imagerel $unwind$PMC_DivRem_X_L
xdata	ENDS
;	COMDAT xdata
xdata	SEGMENT
$chain$1$PMC_DivRem_X_L DD 041021H
	DD	016f410H
	DD	015e408H
	DD	imagerel $LN62
	DD	imagerel $LN62+89
	DD	imagerel $unwind$PMC_DivRem_X_L
xdata	ENDS
;	COMDAT xdata
xdata	SEGMENT
$unwind$PMC_DivRem_X_L DD 060e01H
	DD	0c007d20eH
	DD	060047005H
	DD	050023003H
xdata	ENDS
;	COMDAT xdata
xdata	SEGMENT
$unwind$PMC_DivRem_X_I DD 081501H
	DD	0d7415H
	DD	0c6415H
	DD	0b3415H
	DD	0e0117215H
xdata	ENDS
;	COMDAT xdata
xdata	SEGMENT
$unwind$PMC_DivRem_L_X DD 072119H
	DD	0140113H
	DD	07005e007H
	DD	030036004H
	DD	05002H
	DD	imagerel __GSHandlerCheck
	DD	098H
xdata	ENDS
;	COMDAT xdata
xdata	SEGMENT
$unwind$PMC_DivRem_I_X DD 081401H
	DD	096414H
	DD	085414H
	DD	063414H
	DD	070103214H
xdata	ENDS
;	COMDAT xdata
xdata	SEGMENT
$unwind$DivRem_X_X DD 040a01H
	DD	0b640aH
	DD	07006720aH
xdata	ENDS
; Function compile flags: /Ogtpy
; File z:\sources\lunor\repos\rougemeilland\palmtree.math.core.implements\palmtree.math.core.implements\pmc_divrem.c
; File z:\sources\lunor\repos\rougemeilland\palmtree.math.core.implements\palmtree.math.core.implements\pmc_internal.h
; File z:\sources\lunor\repos\rougemeilland\palmtree.math.core.implements\palmtree.math.core.implements\pmc_divrem.c
; File z:\sources\lunor\repos\rougemeilland\palmtree.math.core.implements\palmtree.math.core.implements\pmc_internal.h
; File z:\sources\lunor\repos\rougemeilland\palmtree.math.core.implements\palmtree.math.core.implements\pmc_divrem.c
; File z:\sources\lunor\repos\rougemeilland\palmtree.math.core.implements\palmtree.math.core.implements\pmc_internal.h
; File z:\sources\lunor\repos\rougemeilland\palmtree.math.core.implements\palmtree.math.core.implements\pmc_divrem.c
; File z:\sources\lunor\repos\rougemeilland\palmtree.math.core.implements\palmtree.math.core.implements\pmc_internal.h
; File z:\sources\lunor\repos\rougemeilland\palmtree.math.core.implements\palmtree.math.core.implements\pmc_divrem.c
; File z:\sources\lunor\repos\rougemeilland\palmtree.math.core.implements\palmtree.math.core.implements\pmc_internal.h
; File z:\sources\lunor\repos\rougemeilland\palmtree.math.core.implements\palmtree.math.core.implements\pmc_divrem.c
;	COMDAT DivRem_X_X_using_ADX_MULX
_TEXT	SEGMENT
value$1$ = 48
tv960 = 56
tv965 = 64
tv964 = 72
$T1 = 160
u_buf$ = 160
rh_hi$2 = 168
u_buf_len$ = 168
rh_mi$3 = 176
v_buf$ = 176
pos$4 = 184
v_buf_len$ = 184
work_v_buf$ = 192
rh_mi$5 = 200
q_buf$ = 200
rh_hi$6 = 208
r_buf$ = 208
DivRem_X_X_using_ADX_MULX PROC				; COMDAT

; 974  : {

	push	rbx
	push	rbp
	push	rsi
	push	rdi
	push	r12
	push	r13
	push	r14
	push	r15
	sub	rsp, 88					; 00000058H

; 975  :     // u および v の最上位ワードは 0 でありうることに注意すること。
; 976  :     if (sizeof(__UNIT_TYPE) != sizeof(__UNIT_TYPE_DIV))
; 977  :     {
; 978  :         while (u_buf[u_buf_len - 1] == 0)

	lea	rax, QWORD PTR [rcx-4]
	mov	rbp, r9
	cmp	DWORD PTR [rax+rdx*4], 0
	lea	rax, QWORD PTR [rax+rdx*4]
	mov	r14, r8
	mov	rbx, rdx
	mov	rsi, rcx
	jne	SHORT $LN99@DivRem_X_X
	npad	5
$LL2@DivRem_X_X:

; 979  :             --u_buf_len;

	dec	rbx
	lea	rax, QWORD PTR [rax-4]
	cmp	DWORD PTR [rax], 0
	je	SHORT $LL2@DivRem_X_X
$LN99@DivRem_X_X:

; 980  :         while (v_buf[v_buf_len - 1] == 0)

	lea	rax, QWORD PTR [r9-1]
	cmp	DWORD PTR [r8+rax*4], 0
	lea	rax, QWORD PTR [r8+rax*4]
	jne	SHORT $LN5@DivRem_X_X
	npad	5
$LL4@DivRem_X_X:

; 981  :             --v_buf_len;

	dec	rbp
	lea	rax, QWORD PTR [rax-4]
	cmp	DWORD PTR [rax], 0
	je	SHORT $LL4@DivRem_X_X
$LN5@DivRem_X_X:

; 982  :     }
; 983  : 
; 984  : #ifdef _DEBUG
; 985  :     if (v_buf[v_buf_len - 1] == 0)
; 986  :     {
; 987  :         ; // このルートには到達しないはず。デバッグ用。
; 988  :     }
; 989  : #endif
; 990  : 
; 991  : #ifdef DO_TRACE
; 992  :     ReportLabel("uとvのシフト");
; 993  :     ReportDump("u", (__UNIT_TYPE*)u_buf, _DIVIDE_CEILING_UNIT(u_buf_len * sizeof(__UNIT_TYPE_DIV), sizeof(__UNIT_TYPE)));
; 994  :     ReportDump("v", (__UNIT_TYPE*)v_buf, _DIVIDE_CEILING_UNIT(v_buf_len * sizeof(__UNIT_TYPE_DIV), sizeof(__UNIT_TYPE)));
; 995  : #endif
; 996  : 
; 997  :     __UNIT_TYPE_DIV d_factor = _LZCNT_ALT_UNIT_DIV(v_buf[v_buf_len - 1]);

	mov	eax, DWORD PTR [r8+rbp*4-4]
; File z:\sources\lunor\repos\rougemeilland\palmtree.math.core.implements\palmtree.math.core.implements\pmc_internal.h

; 935  :     if (x == 0)

	test	eax, eax
	jne	$LN18@DivRem_X_X

; 936  :         return (sizeof(x) * 8);

	mov	ecx, 32					; 00000020H
	mov	DWORD PTR $T1[rsp], ecx
$LN10@DivRem_X_X:
; File z:\sources\lunor\repos\rougemeilland\palmtree.math.core.implements\palmtree.math.core.implements\pmc_divrem.c

; 1006 :         LeftShift_Imp_DIV(u_buf, u_buf_len, d_factor, r_buf, FALSE);

	mov	r15, QWORD PTR r_buf$[rsp]
	xor	r13d, r13d
	mov	edi, ecx
	mov	r9, r15
	mov	r8d, ecx
	mov	rdx, rbx
	mov	rcx, rsi
	mov	DWORD PTR [rsp+32], r13d
	call	LeftShift_Imp_DIV

; 1007 :         LeftShift_Imp_DIV(v_buf, v_buf_len, d_factor, work_v_buf, FALSE);

	mov	r12, QWORD PTR work_v_buf$[rsp]
	mov	r8d, edi
	mov	r9, r12
	mov	DWORD PTR [rsp+32], r13d
	mov	rdx, rbp
	mov	rcx, r14
	call	LeftShift_Imp_DIV
$LN11@DivRem_X_X:

; 1008 :     }
; 1009 : #ifdef DO_TRACE
; 1010 :     ReportDump("⇒u", (__UNIT_TYPE*)r_buf, _DIVIDE_CEILING_UNIT((u_buf_len + 1) * sizeof(__UNIT_TYPE_DIV), sizeof(__UNIT_TYPE)));
; 1011 :     ReportDump("⇒v", (__UNIT_TYPE*)work_v_buf, _DIVIDE_CEILING_UNIT(v_buf_len * sizeof(__UNIT_TYPE_DIV), sizeof(__UNIT_TYPE)));
; 1012 : #endif
; 1013 : 
; 1014 :     __UNIT_TYPE_DIV* work_u_buf = r_buf;
; 1015 :     __UNIT_TYPE q_index = u_buf_len - v_buf_len;

	mov	rax, QWORD PTR q_buf$[rsp]
	lea	rdx, QWORD PTR [rbp-1]
	mov	ecx, 2
	lea	rdi, QWORD PTR [rbp-2]
	sub	rcx, rbp
	lea	rdx, QWORD PTR [r12+rdx*4]
	shl	rcx, 2
	lea	rdi, QWORD PTR [r12+rdi*4]
	mov	r14, rbx
	mov	QWORD PTR tv965[rsp], rdx
	sub	rcx, r15
	mov	QWORD PTR tv964[rsp], rdi
	sub	r14, rbp
	lea	rsi, QWORD PTR [rbx-2]
	add	rax, rcx
	lea	rsi, QWORD PTR [r15+rsi*4]
	mov	QWORD PTR tv960[rsp], rax
	npad	3
$LL6@DivRem_X_X:

; 370  :     __UNIT_TYPE_DIV v1 = v_buf[v_buf_len - 1];

	mov	eax, DWORD PTR [rdx]
	mov	r8d, DWORD PTR [rsi+8]

; 371  :     __UNIT_TYPE_DIV v2 = v_buf[v_buf_len - 2];

	mov	r13d, eax
	mov	r10d, DWORD PTR [rsi+4]
	mov	r12d, DWORD PTR [rsi]
	mov	r9d, DWORD PTR [rdi]

; 249  :     if (uj == v1)

	cmp	r8d, eax
	jne	SHORT $LN29@DivRem_X_X

; 250  :         return (-1);

	mov	edi, -1					; ffffffffH
	jmp	SHORT $LN28@DivRem_X_X
$LN18@DivRem_X_X:
; File z:\sources\lunor\repos\rougemeilland\palmtree.math.core.implements\palmtree.math.core.implements\pmc_internal.h

; 949  :     _BitScanReverse(&pos, x);

	bsr	eax, eax

; 950  : #elif defined(__GNUC__)
; 951  :     _UINT64_T pos;
; 952  :     __asm__("bsrq %1, %0" : "=r"(pos) : "rm"(x));
; 953  : #else
; 954  : #error unknown compiler
; 955  : #endif
; 956  : #else
; 957  : #error unknown platform
; 958  : #endif
; 959  :     return (sizeof(x) * 8 - 1 - pos);

	mov	ecx, 31
	sub	ecx, eax
	mov	DWORD PTR pos$4[rsp], eax
	mov	DWORD PTR $T1[rsp], ecx
; File z:\sources\lunor\repos\rougemeilland\palmtree.math.core.implements\palmtree.math.core.implements\pmc_divrem.c

; 998  :     if (d_factor == 0)

	jne	$LN10@DivRem_X_X
; File z:\sources\lunor\repos\rougemeilland\palmtree.math.core.implements\palmtree.math.core.implements\pmc_internal.h

; 358  :     __movsd((unsigned long *)d, (unsigned long *)s, (unsigned long)count);

	mov	r15, QWORD PTR r_buf$[rsp]
	mov	r12, QWORD PTR work_v_buf$[rsp]
	mov	rdi, r15
	mov	ecx, ebx
	rep movsd
	mov	ecx, ebp
	mov	rdi, r12
	mov	rsi, r14
	rep movsd
; File z:\sources\lunor\repos\rougemeilland\palmtree.math.core.implements\palmtree.math.core.implements\pmc_divrem.c

; 1002 :         r_buf[u_buf_len] = 0;

	mov	DWORD PTR [r15+rbx*4], 0

; 1003 :     }

	jmp	$LN11@DivRem_X_X
$LN29@DivRem_X_X:
; File z:\sources\lunor\repos\rougemeilland\palmtree.math.core.implements\palmtree.math.core.implements\pmc_internal.h

; 1062 :     _InterlockedIncrement(&statistics_info.COUNT_DIV32);

	lock inc DWORD PTR statistics_info+12

; 454  :     return (((_UINT64_T)value_high << 32) | value_low);

	mov	rax, r8

; 667  :         return ((_UINT32_T)(t / v));

	xor	edx, edx

; 454  :     return (((_UINT64_T)value_high << 32) | value_low);

	shl	rax, 32					; 00000020H
	or	rax, r10

; 667  :         return ((_UINT32_T)(t / v));

	div	r13
	mov	rdi, rax
$LN28@DivRem_X_X:

; 640  :     return (_FROMDWORDTOWORD((_UINT64_T)u * v, w_hi));

	mov	rax, r9
	mov	edx, edi
	imul	rax, rdx
	imul	rdx, r13
	mov	QWORD PTR value$1$[rsp], rax
	mov	r11, r9

; 459  :     *result_high = (_UINT32_T)(value >> 32);

	mov	r9, rax

; 558  :     return (_subborrow_u32(borrow, u, v, w));

	mov	eax, r10d

; 459  :     *result_high = (_UINT32_T)(value >> 32);

	shr	r9, 32					; 00000020H

; 558  :     return (_subborrow_u32(borrow, u, v, w));

	sub	eax, edx
	mov	DWORD PTR rh_mi$5[rsp], eax
	mov	eax, r8d
	setb	cl

; 459  :     *result_high = (_UINT32_T)(value >> 32);

	shr	rdx, 32					; 00000020H

; 558  :     return (_subborrow_u32(borrow, u, v, w));

	add	cl, -1
	sbb	eax, edx
	mov	DWORD PTR rh_hi$6[rsp], eax

; 1097 :     _InterlockedExchangeAdd(&statistics_info.COUNT_MULTI32, value);

	mov	eax, 2
	lock xadd DWORD PTR statistics_info+4, eax
; File z:\sources\lunor\repos\rougemeilland\palmtree.math.core.implements\palmtree.math.core.implements\pmc_divrem.c

; 316  :     if (rh_hi > 0)

	cmp	DWORD PTR rh_hi$6[rsp], 0
	ja	SHORT $LN110@DivRem_X_X

; 317  :     {
; 318  : #ifdef DO_TRACE
; 319  :         ReportVar("result", 0);
; 320  : #endif
; 321  :         return (FALSE);
; 322  :     }
; 323  :     else if (lh_mi > rh_mi)

	cmp	r9d, DWORD PTR rh_mi$5[rsp]
	ja	SHORT $LN25@DivRem_X_X

; 324  :     {
; 325  : #ifdef DO_TRACE
; 326  :         ReportVar("result", 1);
; 327  : #endif
; 328  :         return (TRUE);
; 329  :     }
; 330  :     else if (lh_mi < rh_mi)

	jb	SHORT $LN110@DivRem_X_X

; 380  :     if (!CheckQ_X(q_, uj, uj_1, uj_2, v1, v2))

	cmp	DWORD PTR value$1$[rsp], r12d
	jbe	SHORT $LN110@DivRem_X_X
$LN25@DivRem_X_X:

; 381  :         return (q_);
; 382  :     --q_;

	dec	edi
; File z:\sources\lunor\repos\rougemeilland\palmtree.math.core.implements\palmtree.math.core.implements\pmc_internal.h

; 640  :     return (_FROMDWORDTOWORD((_UINT64_T)u * v, w_hi));

	mov	ecx, edi
	imul	r11, rcx
	imul	rcx, r13

; 459  :     *result_high = (_UINT32_T)(value >> 32);

	mov	rdx, r11
	shr	rdx, 32					; 00000020H

; 558  :     return (_subborrow_u32(borrow, u, v, w));

	sub	r10d, ecx
	mov	DWORD PTR rh_mi$3[rsp], r10d
	setb	al

; 459  :     *result_high = (_UINT32_T)(value >> 32);

	shr	rcx, 32					; 00000020H

; 558  :     return (_subborrow_u32(borrow, u, v, w));

	add	al, -1

; 1097 :     _InterlockedExchangeAdd(&statistics_info.COUNT_MULTI32, value);

	mov	eax, 2

; 558  :     return (_subborrow_u32(borrow, u, v, w));

	sbb	r8d, ecx
	mov	DWORD PTR rh_hi$2[rsp], r8d

; 1097 :     _InterlockedExchangeAdd(&statistics_info.COUNT_MULTI32, value);

	lock xadd DWORD PTR statistics_info+4, eax
; File z:\sources\lunor\repos\rougemeilland\palmtree.math.core.implements\palmtree.math.core.implements\pmc_divrem.c

; 316  :     if (rh_hi > 0)

	cmp	DWORD PTR rh_hi$2[rsp], 0
	ja	SHORT $LN110@DivRem_X_X

; 317  :     {
; 318  : #ifdef DO_TRACE
; 319  :         ReportVar("result", 0);
; 320  : #endif
; 321  :         return (FALSE);
; 322  :     }
; 323  :     else if (lh_mi > rh_mi)

	cmp	edx, DWORD PTR rh_mi$3[rsp]
	ja	SHORT $LN26@DivRem_X_X

; 324  :     {
; 325  : #ifdef DO_TRACE
; 326  :         ReportVar("result", 1);
; 327  : #endif
; 328  :         return (TRUE);
; 329  :     }
; 330  :     else if (lh_mi < rh_mi)

	jb	SHORT $LN110@DivRem_X_X

; 383  :     if (!CheckQ_X(q_, uj, uj_1, uj_2, v1, v2))

	cmp	r11d, r12d
	jbe	SHORT $LN110@DivRem_X_X
$LN26@DivRem_X_X:

; 384  :         return (q_);
; 385  :     --q_;

	dec	edi
$LN110@DivRem_X_X:

; 1016 : 
; 1017 :     for (;;)
; 1018 :     {
; 1019 :         __UNIT_TYPE_DIV q_ = CalculateQ_X(work_u_buf, work_v_buf, v_buf_len, q_index);
; 1020 : 
; 1021 : #ifdef DO_TRACE
; 1022 :         ReportLabel("uの減算");
; 1023 :         ReportDump("u", (__UNIT_TYPE*)work_u_buf, _DIVIDE_CEILING_UNIT(u_buf_len * sizeof(__UNIT_TYPE_DIV), sizeof(__UNIT_TYPE)));
; 1024 :         ReportDump("v", (__UNIT_TYPE*)work_v_buf, _DIVIDE_CEILING_UNIT(v_buf_len * sizeof(__UNIT_TYPE_DIV), sizeof(__UNIT_TYPE)));
; 1025 :         ReportVar("q_", q_);
; 1026 : #endif
; 1027 :         if (SubtructOneLineX(work_u_buf, u_buf_len, work_v_buf, v_buf_len, q_index, q_))

	mov	r12, QWORD PTR work_v_buf$[rsp]
	mov	r9, rbp
	mov	r8, r12
	mov	DWORD PTR [rsp+40], edi
	mov	rdx, rbx
	mov	QWORD PTR [rsp+32], r14
	mov	rcx, r15
	call	SubtructOneLineX
	test	eax, eax
	je	SHORT $LN12@DivRem_X_X

; 1028 :         {
; 1029 : #ifdef DO_TRACE
; 1030 :             ReportDump("⇒u", (__UNIT_TYPE*)work_u_buf, _DIVIDE_CEILING_UNIT(u_buf_len * sizeof(__UNIT_TYPE_DIV), sizeof(__UNIT_TYPE)));
; 1031 : #endif
; 1032 :             // 桁借りが発生した場合
; 1033 : 
; 1034 : #ifdef DO_TRACE
; 1035 :             ReportLabel("uの加え戻しとq_の更新");
; 1036 :             ReportDump("u", (__UNIT_TYPE*)work_u_buf, _DIVIDE_CEILING_UNIT(u_buf_len * sizeof(__UNIT_TYPE_DIV), sizeof(__UNIT_TYPE)));
; 1037 : #endif
; 1038 :             --q_;

	dec	edi

; 1039 :             AddOneLineX(work_u_buf, u_buf_len, work_v_buf, v_buf_len, q_index);

	mov	QWORD PTR [rsp+32], r14
	mov	r9, rbp
	mov	r8, r12
	mov	rdx, rbx
	mov	rcx, r15
	call	AddOneLineX
$LN12@DivRem_X_X:

; 1040 : #ifdef DO_TRACE
; 1041 :             ReportVar("q_", q_);
; 1042 :             ReportDump("⇒u", (__UNIT_TYPE*)work_u_buf, _DIVIDE_CEILING_UNIT(u_buf_len * sizeof(__UNIT_TYPE_DIV), sizeof(__UNIT_TYPE)));
; 1043 : #endif
; 1044 :         }
; 1045 :         else
; 1046 :         {
; 1047 : #ifdef DO_TRACE
; 1048 :             ReportDump("⇒u", (__UNIT_TYPE*)work_u_buf, _DIVIDE_CEILING_UNIT(u_buf_len * sizeof(__UNIT_TYPE_DIV), sizeof(__UNIT_TYPE)));
; 1049 : #endif
; 1050 :         }
; 1051 : 
; 1052 :         q_buf[q_index] = q_;

	mov	rax, QWORD PTR tv960[rsp]
	mov	DWORD PTR [rsi+rax], edi

; 1053 : 
; 1054 : #ifdef DO_TRACE
; 1055 :         ReportLabel("qの現在値");
; 1056 :         ReportDump("q", (__UNIT_TYPE*)q_buf, _DIVIDE_CEILING_UNIT((u_buf_len - v_buf_len) * sizeof(__UNIT_TYPE_DIV), sizeof(__UNIT_TYPE)));
; 1057 : #endif
; 1058 : 
; 1059 :         if (q_index == 0)

	test	r14, r14
	je	SHORT $LN101@DivRem_X_X

; 1060 :             break;
; 1061 :         --q_index;
; 1062 :     }

	mov	rdx, QWORD PTR tv965[rsp]
	dec	r14
	mov	rdi, QWORD PTR tv964[rsp]
	sub	rsi, 4
	jmp	$LL6@DivRem_X_X
$LN101@DivRem_X_X:

; 1063 : 
; 1064 :     if (d_factor > 0)

	mov	eax, DWORD PTR $T1[rsp]
	test	eax, eax
	je	SHORT $LN15@DivRem_X_X

; 1065 :         RightShift_Imp_DIV(work_u_buf, u_buf_len + 1, d_factor, work_u_buf, FALSE);

	mov	r8d, eax
	mov	DWORD PTR [rsp+32], 0
	lea	rdx, QWORD PTR [rbx+1]
	mov	r9, r15
	mov	rcx, r15
	call	RightShift_Imp_DIV
$LN15@DivRem_X_X:

; 1066 : 
; 1067 : #ifdef DO_TRACE
; 1068 :     ReportLabel("計算終了");
; 1069 :     ReportDump("q", (__UNIT_TYPE*)q_buf, _DIVIDE_CEILING_UNIT((u_buf_len - v_buf_len) * sizeof(__UNIT_TYPE_DIV), sizeof(__UNIT_TYPE)));
; 1070 :     ReportDump("r", (__UNIT_TYPE*)work_u_buf, _DIVIDE_CEILING_UNIT((u_buf_len + 1) * sizeof(__UNIT_TYPE_DIV), sizeof(__UNIT_TYPE)));
; 1071 : #endif
; 1072 : }

	add	rsp, 88					; 00000058H
	pop	r15
	pop	r14
	pop	r13
	pop	r12
	pop	rdi
	pop	rsi
	pop	rbp
	pop	rbx
	ret	0
DivRem_X_X_using_ADX_MULX ENDP
_TEXT	ENDS
; Function compile flags: /Ogtpy
; File z:\sources\lunor\repos\rougemeilland\palmtree.math.core.implements\palmtree.math.core.implements\pmc_divrem.c
; File z:\sources\lunor\repos\rougemeilland\palmtree.math.core.implements\palmtree.math.core.implements\pmc_internal.h
; File z:\sources\lunor\repos\rougemeilland\palmtree.math.core.implements\palmtree.math.core.implements\pmc_divrem.c
; File z:\sources\lunor\repos\rougemeilland\palmtree.math.core.implements\palmtree.math.core.implements\pmc_internal.h
; File z:\sources\lunor\repos\rougemeilland\palmtree.math.core.implements\palmtree.math.core.implements\pmc_divrem.c
; File z:\sources\lunor\repos\rougemeilland\palmtree.math.core.implements\palmtree.math.core.implements\pmc_internal.h
; File z:\sources\lunor\repos\rougemeilland\palmtree.math.core.implements\palmtree.math.core.implements\pmc_divrem.c
; File z:\sources\lunor\repos\rougemeilland\palmtree.math.core.implements\palmtree.math.core.implements\pmc_internal.h
; File z:\sources\lunor\repos\rougemeilland\palmtree.math.core.implements\palmtree.math.core.implements\pmc_divrem.c
; File z:\sources\lunor\repos\rougemeilland\palmtree.math.core.implements\palmtree.math.core.implements\pmc_internal.h
; File z:\sources\lunor\repos\rougemeilland\palmtree.math.core.implements\palmtree.math.core.implements\pmc_divrem.c
;	COMDAT DivRem_X_X_using_ADC_MUL
_TEXT	SEGMENT
value$1$ = 48
tv960 = 56
tv965 = 64
tv964 = 72
$T1 = 160
u_buf$ = 160
rh_hi$2 = 168
u_buf_len$ = 168
rh_mi$3 = 176
v_buf$ = 176
pos$4 = 184
v_buf_len$ = 184
work_v_buf$ = 192
rh_mi$5 = 200
q_buf$ = 200
rh_hi$6 = 208
r_buf$ = 208
DivRem_X_X_using_ADC_MUL PROC				; COMDAT

; 918  : {

	push	rbx
	push	rbp
	push	rsi
	push	rdi
	push	r12
	push	r13
	push	r14
	push	r15
	sub	rsp, 88					; 00000058H

; 919  :     // u および v の最上位ワードは 0 でありうることに注意すること。
; 920  :     if (sizeof(__UNIT_TYPE) != sizeof(__UNIT_TYPE_DIV))
; 921  :     {
; 922  :         while (u_buf[u_buf_len - 1] == 0)

	lea	rax, QWORD PTR [rcx-4]
	mov	rbp, r9
	cmp	DWORD PTR [rax+rdx*4], 0
	lea	rax, QWORD PTR [rax+rdx*4]
	mov	r14, r8
	mov	rbx, rdx
	mov	rsi, rcx
	jne	SHORT $LN98@DivRem_X_X
	npad	5
$LL2@DivRem_X_X:

; 923  :             --u_buf_len;

	dec	rbx
	lea	rax, QWORD PTR [rax-4]
	cmp	DWORD PTR [rax], 0
	je	SHORT $LL2@DivRem_X_X
$LN98@DivRem_X_X:

; 924  :         while (v_buf[v_buf_len - 1] == 0)

	lea	rax, QWORD PTR [r9-1]
	cmp	DWORD PTR [r8+rax*4], 0
	lea	rax, QWORD PTR [r8+rax*4]
	jne	SHORT $LN5@DivRem_X_X
	npad	5
$LL4@DivRem_X_X:

; 925  :             --v_buf_len;

	dec	rbp
	lea	rax, QWORD PTR [rax-4]
	cmp	DWORD PTR [rax], 0
	je	SHORT $LL4@DivRem_X_X
$LN5@DivRem_X_X:

; 926  :     }
; 927  : 
; 928  : #ifdef _DEBUG
; 929  :     if (v_buf[v_buf_len - 1] == 0)
; 930  :     {
; 931  :         ; // このルートには到達しないはず。デバッグ用。
; 932  :     }
; 933  : #endif
; 934  : 
; 935  :     __UNIT_TYPE_DIV d_factor = _LZCNT_ALT_UNIT_DIV(v_buf[v_buf_len - 1]);

	mov	eax, DWORD PTR [r8+rbp*4-4]
; File z:\sources\lunor\repos\rougemeilland\palmtree.math.core.implements\palmtree.math.core.implements\pmc_internal.h

; 935  :     if (x == 0)

	test	eax, eax
	jne	$LN17@DivRem_X_X

; 936  :         return (sizeof(x) * 8);

	mov	ecx, 32					; 00000020H
	mov	DWORD PTR $T1[rsp], ecx
$LN10@DivRem_X_X:
; File z:\sources\lunor\repos\rougemeilland\palmtree.math.core.implements\palmtree.math.core.implements\pmc_divrem.c

; 944  :         LeftShift_Imp_DIV(u_buf, u_buf_len, d_factor, r_buf, FALSE);

	mov	r15, QWORD PTR r_buf$[rsp]
	xor	r13d, r13d
	mov	edi, ecx
	mov	r9, r15
	mov	r8d, ecx
	mov	rdx, rbx
	mov	rcx, rsi
	mov	DWORD PTR [rsp+32], r13d
	call	LeftShift_Imp_DIV

; 945  :         LeftShift_Imp_DIV(v_buf, v_buf_len, d_factor, work_v_buf, FALSE);

	mov	r12, QWORD PTR work_v_buf$[rsp]
	mov	r8d, edi
	mov	r9, r12
	mov	DWORD PTR [rsp+32], r13d
	mov	rdx, rbp
	mov	rcx, r14
	call	LeftShift_Imp_DIV
$LN11@DivRem_X_X:

; 946  :     }
; 947  : 
; 948  :     __UNIT_TYPE_DIV* work_u_buf = r_buf;
; 949  :     __UNIT_TYPE q_index = u_buf_len - v_buf_len;

	mov	rax, QWORD PTR q_buf$[rsp]
	lea	rdx, QWORD PTR [rbp-1]
	mov	ecx, 2
	lea	rdi, QWORD PTR [rbp-2]
	sub	rcx, rbp
	lea	rdx, QWORD PTR [r12+rdx*4]
	shl	rcx, 2
	lea	rdi, QWORD PTR [r12+rdi*4]
	mov	r14, rbx
	mov	QWORD PTR tv965[rsp], rdx
	sub	rcx, r15
	mov	QWORD PTR tv964[rsp], rdi
	sub	r14, rbp
	lea	rsi, QWORD PTR [rbx-2]
	add	rax, rcx
	lea	rsi, QWORD PTR [r15+rsi*4]
	mov	QWORD PTR tv960[rsp], rax
	npad	3
$LL6@DivRem_X_X:

; 352  :     __UNIT_TYPE_DIV v1 = v_buf[v_buf_len - 1];

	mov	eax, DWORD PTR [rdx]
	mov	r8d, DWORD PTR [rsi+8]

; 353  :     __UNIT_TYPE_DIV v2 = v_buf[v_buf_len - 2];

	mov	r13d, eax
	mov	r10d, DWORD PTR [rsi+4]
	mov	r12d, DWORD PTR [rsi]
	mov	r9d, DWORD PTR [rdi]

; 249  :     if (uj == v1)

	cmp	r8d, eax
	jne	SHORT $LN28@DivRem_X_X

; 250  :         return (-1);

	mov	edi, -1					; ffffffffH
	jmp	SHORT $LN27@DivRem_X_X
$LN17@DivRem_X_X:
; File z:\sources\lunor\repos\rougemeilland\palmtree.math.core.implements\palmtree.math.core.implements\pmc_internal.h

; 949  :     _BitScanReverse(&pos, x);

	bsr	eax, eax

; 950  : #elif defined(__GNUC__)
; 951  :     _UINT64_T pos;
; 952  :     __asm__("bsrq %1, %0" : "=r"(pos) : "rm"(x));
; 953  : #else
; 954  : #error unknown compiler
; 955  : #endif
; 956  : #else
; 957  : #error unknown platform
; 958  : #endif
; 959  :     return (sizeof(x) * 8 - 1 - pos);

	mov	ecx, 31
	sub	ecx, eax
	mov	DWORD PTR pos$4[rsp], eax
	mov	DWORD PTR $T1[rsp], ecx
; File z:\sources\lunor\repos\rougemeilland\palmtree.math.core.implements\palmtree.math.core.implements\pmc_divrem.c

; 936  :     if (d_factor == 0)

	jne	$LN10@DivRem_X_X
; File z:\sources\lunor\repos\rougemeilland\palmtree.math.core.implements\palmtree.math.core.implements\pmc_internal.h

; 358  :     __movsd((unsigned long *)d, (unsigned long *)s, (unsigned long)count);

	mov	r15, QWORD PTR r_buf$[rsp]
	mov	r12, QWORD PTR work_v_buf$[rsp]
	mov	rdi, r15
	mov	ecx, ebx
	rep movsd
	mov	ecx, ebp
	mov	rdi, r12
	mov	rsi, r14
	rep movsd
; File z:\sources\lunor\repos\rougemeilland\palmtree.math.core.implements\palmtree.math.core.implements\pmc_divrem.c

; 940  :         r_buf[u_buf_len] = 0;

	mov	DWORD PTR [r15+rbx*4], 0

; 941  :     }

	jmp	$LN11@DivRem_X_X
$LN28@DivRem_X_X:
; File z:\sources\lunor\repos\rougemeilland\palmtree.math.core.implements\palmtree.math.core.implements\pmc_internal.h

; 1062 :     _InterlockedIncrement(&statistics_info.COUNT_DIV32);

	lock inc DWORD PTR statistics_info+12

; 454  :     return (((_UINT64_T)value_high << 32) | value_low);

	mov	rax, r8

; 667  :         return ((_UINT32_T)(t / v));

	xor	edx, edx

; 454  :     return (((_UINT64_T)value_high << 32) | value_low);

	shl	rax, 32					; 00000020H
	or	rax, r10

; 667  :         return ((_UINT32_T)(t / v));

	div	r13
	mov	rdi, rax
$LN27@DivRem_X_X:

; 594  :     return (_FROMDWORDTOWORD((_UINT64_T)u * v, w_hi));

	mov	rax, r9
	mov	edx, edi
	imul	rax, rdx
	imul	rdx, r13
	mov	QWORD PTR value$1$[rsp], rax
	mov	r11, r9

; 459  :     *result_high = (_UINT32_T)(value >> 32);

	mov	r9, rax

; 558  :     return (_subborrow_u32(borrow, u, v, w));

	mov	eax, r10d

; 459  :     *result_high = (_UINT32_T)(value >> 32);

	shr	r9, 32					; 00000020H

; 558  :     return (_subborrow_u32(borrow, u, v, w));

	sub	eax, edx
	mov	DWORD PTR rh_mi$5[rsp], eax
	mov	eax, r8d
	setb	cl

; 459  :     *result_high = (_UINT32_T)(value >> 32);

	shr	rdx, 32					; 00000020H

; 558  :     return (_subborrow_u32(borrow, u, v, w));

	add	cl, -1
	sbb	eax, edx
	mov	DWORD PTR rh_hi$6[rsp], eax

; 1097 :     _InterlockedExchangeAdd(&statistics_info.COUNT_MULTI32, value);

	mov	eax, 2
	lock xadd DWORD PTR statistics_info+4, eax
; File z:\sources\lunor\repos\rougemeilland\palmtree.math.core.implements\palmtree.math.core.implements\pmc_divrem.c

; 279  :     if (rh_hi > 0)

	cmp	DWORD PTR rh_hi$6[rsp], 0
	ja	SHORT $LN109@DivRem_X_X

; 280  :         return (FALSE);
; 281  :     else if (lh_mi > rh_mi)

	cmp	r9d, DWORD PTR rh_mi$5[rsp]
	ja	SHORT $LN24@DivRem_X_X

; 282  :         return (TRUE);
; 283  :     else if (lh_mi < rh_mi)

	jb	SHORT $LN109@DivRem_X_X

; 355  :     if (!CheckQ_(q_, uj, uj_1, uj_2, v1, v2))

	cmp	DWORD PTR value$1$[rsp], r12d
	jbe	SHORT $LN109@DivRem_X_X
$LN24@DivRem_X_X:

; 356  :         return (q_);
; 357  :     --q_;

	dec	edi
; File z:\sources\lunor\repos\rougemeilland\palmtree.math.core.implements\palmtree.math.core.implements\pmc_internal.h

; 594  :     return (_FROMDWORDTOWORD((_UINT64_T)u * v, w_hi));

	mov	ecx, edi
	imul	r11, rcx
	imul	rcx, r13

; 459  :     *result_high = (_UINT32_T)(value >> 32);

	mov	rdx, r11
	shr	rdx, 32					; 00000020H

; 558  :     return (_subborrow_u32(borrow, u, v, w));

	sub	r10d, ecx
	mov	DWORD PTR rh_mi$3[rsp], r10d
	setb	al

; 459  :     *result_high = (_UINT32_T)(value >> 32);

	shr	rcx, 32					; 00000020H

; 558  :     return (_subborrow_u32(borrow, u, v, w));

	add	al, -1

; 1097 :     _InterlockedExchangeAdd(&statistics_info.COUNT_MULTI32, value);

	mov	eax, 2

; 558  :     return (_subborrow_u32(borrow, u, v, w));

	sbb	r8d, ecx
	mov	DWORD PTR rh_hi$2[rsp], r8d

; 1097 :     _InterlockedExchangeAdd(&statistics_info.COUNT_MULTI32, value);

	lock xadd DWORD PTR statistics_info+4, eax
; File z:\sources\lunor\repos\rougemeilland\palmtree.math.core.implements\palmtree.math.core.implements\pmc_divrem.c

; 279  :     if (rh_hi > 0)

	cmp	DWORD PTR rh_hi$2[rsp], 0
	ja	SHORT $LN109@DivRem_X_X

; 280  :         return (FALSE);
; 281  :     else if (lh_mi > rh_mi)

	cmp	edx, DWORD PTR rh_mi$3[rsp]
	ja	SHORT $LN25@DivRem_X_X

; 282  :         return (TRUE);
; 283  :     else if (lh_mi < rh_mi)

	jb	SHORT $LN109@DivRem_X_X

; 358  :     if (!CheckQ_(q_, uj, uj_1, uj_2, v1, v2))

	cmp	r11d, r12d
	jbe	SHORT $LN109@DivRem_X_X
$LN25@DivRem_X_X:

; 359  :         return (q_);
; 360  :     --q_;

	dec	edi
$LN109@DivRem_X_X:

; 950  : 
; 951  :     for (;;)
; 952  :     {
; 953  :         __UNIT_TYPE_DIV q_ = CalculateQ_(work_u_buf, work_v_buf, v_buf_len, q_index);
; 954  : 
; 955  : 
; 956  :         if (SubtructOneLine(work_u_buf, u_buf_len, work_v_buf, v_buf_len, q_index, q_))

	mov	r12, QWORD PTR work_v_buf$[rsp]
	mov	r9, rbp
	mov	r8, r12
	mov	DWORD PTR [rsp+40], edi
	mov	rdx, rbx
	mov	QWORD PTR [rsp+32], r14
	mov	rcx, r15
	call	SubtructOneLine
	test	eax, eax
	je	SHORT $LN12@DivRem_X_X

; 957  :         {
; 958  :             // 桁借りが発生した場合
; 959  :             --q_;

	dec	edi

; 960  :             AddOneLine(work_u_buf, u_buf_len, work_v_buf, v_buf_len, q_index);

	mov	QWORD PTR [rsp+32], r14
	mov	r9, rbp
	mov	r8, r12
	mov	rdx, rbx
	mov	rcx, r15
	call	AddOneLine
$LN12@DivRem_X_X:

; 961  :         }
; 962  : 
; 963  :         q_buf[q_index] = q_;

	mov	rax, QWORD PTR tv960[rsp]
	mov	DWORD PTR [rsi+rax], edi

; 964  :         if (q_index == 0)

	test	r14, r14
	je	SHORT $LN100@DivRem_X_X

; 965  :             break;
; 966  :         --q_index;
; 967  :     }

	mov	rdx, QWORD PTR tv965[rsp]
	dec	r14
	mov	rdi, QWORD PTR tv964[rsp]
	sub	rsi, 4
	jmp	$LL6@DivRem_X_X
$LN100@DivRem_X_X:

; 968  : 
; 969  :     if (d_factor > 0)

	mov	eax, DWORD PTR $T1[rsp]
	test	eax, eax
	je	SHORT $LN14@DivRem_X_X

; 970  :         RightShift_Imp_DIV(work_u_buf, u_buf_len + 1, d_factor, work_u_buf, FALSE);

	mov	r8d, eax
	mov	DWORD PTR [rsp+32], 0
	lea	rdx, QWORD PTR [rbx+1]
	mov	r9, r15
	mov	rcx, r15
	call	RightShift_Imp_DIV
$LN14@DivRem_X_X:

; 971  : }

	add	rsp, 88					; 00000058H
	pop	r15
	pop	r14
	pop	r13
	pop	r12
	pop	rdi
	pop	rsi
	pop	rbp
	pop	rbx
	ret	0
DivRem_X_X_using_ADC_MUL ENDP
_TEXT	ENDS
; Function compile flags: /Ogtpy
; File z:\sources\lunor\repos\rougemeilland\palmtree.math.core.implements\palmtree.math.core.implements\pmc_divrem.c
; File z:\sources\lunor\repos\rougemeilland\palmtree.math.core.implements\palmtree.math.core.implements\autogenerated_inline_func.h
; File z:\sources\lunor\repos\rougemeilland\palmtree.math.core.implements\palmtree.math.core.implements\pmc_internal.h
; File z:\sources\lunor\repos\rougemeilland\palmtree.math.core.implements\palmtree.math.core.implements\autogenerated_inline_func.h
; File z:\sources\lunor\repos\rougemeilland\palmtree.math.core.implements\palmtree.math.core.implements\pmc_internal.h
; File z:\sources\lunor\repos\rougemeilland\palmtree.math.core.implements\palmtree.math.core.implements\autogenerated_inline_func.h
; File z:\sources\lunor\repos\rougemeilland\palmtree.math.core.implements\palmtree.math.core.implements\pmc_internal.h
; File z:\sources\lunor\repos\rougemeilland\palmtree.math.core.implements\palmtree.math.core.implements\autogenerated_inline_func.h
; File z:\sources\lunor\repos\rougemeilland\palmtree.math.core.implements\palmtree.math.core.implements\pmc_internal.h
; File z:\sources\lunor\repos\rougemeilland\palmtree.math.core.implements\palmtree.math.core.implements\autogenerated_inline_func.h
; File z:\sources\lunor\repos\rougemeilland\palmtree.math.core.implements\palmtree.math.core.implements\pmc_internal.h
; File z:\sources\lunor\repos\rougemeilland\palmtree.math.core.implements\palmtree.math.core.implements\autogenerated_inline_func.h
; File z:\sources\lunor\repos\rougemeilland\palmtree.math.core.implements\palmtree.math.core.implements\pmc_internal.h
; File z:\sources\lunor\repos\rougemeilland\palmtree.math.core.implements\palmtree.math.core.implements\autogenerated_inline_func.h
; File z:\sources\lunor\repos\rougemeilland\palmtree.math.core.implements\palmtree.math.core.implements\pmc_internal.h
; File z:\sources\lunor\repos\rougemeilland\palmtree.math.core.implements\palmtree.math.core.implements\autogenerated_inline_func.h
; File z:\sources\lunor\repos\rougemeilland\palmtree.math.core.implements\palmtree.math.core.implements\pmc_internal.h
; File z:\sources\lunor\repos\rougemeilland\palmtree.math.core.implements\palmtree.math.core.implements\autogenerated_inline_func.h
; File z:\sources\lunor\repos\rougemeilland\palmtree.math.core.implements\palmtree.math.core.implements\pmc_internal.h
; File z:\sources\lunor\repos\rougemeilland\palmtree.math.core.implements\palmtree.math.core.implements\autogenerated_inline_func.h
; File z:\sources\lunor\repos\rougemeilland\palmtree.math.core.implements\palmtree.math.core.implements\pmc_internal.h
; File z:\sources\lunor\repos\rougemeilland\palmtree.math.core.implements\palmtree.math.core.implements\autogenerated_inline_func.h
; File z:\sources\lunor\repos\rougemeilland\palmtree.math.core.implements\palmtree.math.core.implements\pmc_internal.h
; File z:\sources\lunor\repos\rougemeilland\palmtree.math.core.implements\palmtree.math.core.implements\autogenerated_inline_func.h
; File z:\sources\lunor\repos\rougemeilland\palmtree.math.core.implements\palmtree.math.core.implements\pmc_internal.h
; File z:\sources\lunor\repos\rougemeilland\palmtree.math.core.implements\palmtree.math.core.implements\autogenerated_inline_func.h
; File z:\sources\lunor\repos\rougemeilland\palmtree.math.core.implements\palmtree.math.core.implements\pmc_internal.h
; File z:\sources\lunor\repos\rougemeilland\palmtree.math.core.implements\palmtree.math.core.implements\autogenerated_inline_func.h
; File z:\sources\lunor\repos\rougemeilland\palmtree.math.core.implements\palmtree.math.core.implements\pmc_internal.h
; File z:\sources\lunor\repos\rougemeilland\palmtree.math.core.implements\palmtree.math.core.implements\autogenerated_inline_func.h
; File z:\sources\lunor\repos\rougemeilland\palmtree.math.core.implements\palmtree.math.core.implements\pmc_internal.h
; File z:\sources\lunor\repos\rougemeilland\palmtree.math.core.implements\palmtree.math.core.implements\autogenerated_inline_func.h
; File z:\sources\lunor\repos\rougemeilland\palmtree.math.core.implements\palmtree.math.core.implements\pmc_internal.h
; File z:\sources\lunor\repos\rougemeilland\palmtree.math.core.implements\palmtree.math.core.implements\autogenerated_inline_func.h
; File z:\sources\lunor\repos\rougemeilland\palmtree.math.core.implements\palmtree.math.core.implements\pmc_internal.h
; File z:\sources\lunor\repos\rougemeilland\palmtree.math.core.implements\palmtree.math.core.implements\autogenerated_inline_func.h
; File z:\sources\lunor\repos\rougemeilland\palmtree.math.core.implements\palmtree.math.core.implements\pmc_internal.h
; File z:\sources\lunor\repos\rougemeilland\palmtree.math.core.implements\palmtree.math.core.implements\autogenerated_inline_func.h
; File z:\sources\lunor\repos\rougemeilland\palmtree.math.core.implements\palmtree.math.core.implements\pmc_internal.h
; File z:\sources\lunor\repos\rougemeilland\palmtree.math.core.implements\palmtree.math.core.implements\autogenerated_inline_func.h
; File z:\sources\lunor\repos\rougemeilland\palmtree.math.core.implements\palmtree.math.core.implements\pmc_internal.h
; File z:\sources\lunor\repos\rougemeilland\palmtree.math.core.implements\palmtree.math.core.implements\autogenerated_inline_func.h
; File z:\sources\lunor\repos\rougemeilland\palmtree.math.core.implements\palmtree.math.core.implements\pmc_internal.h
; File z:\sources\lunor\repos\rougemeilland\palmtree.math.core.implements\palmtree.math.core.implements\autogenerated_inline_func.h
; File z:\sources\lunor\repos\rougemeilland\palmtree.math.core.implements\palmtree.math.core.implements\pmc_internal.h
; File z:\sources\lunor\repos\rougemeilland\palmtree.math.core.implements\palmtree.math.core.implements\autogenerated_inline_func.h
; File z:\sources\lunor\repos\rougemeilland\palmtree.math.core.implements\palmtree.math.core.implements\pmc_internal.h
; File z:\sources\lunor\repos\rougemeilland\palmtree.math.core.implements\palmtree.math.core.implements\autogenerated_inline_func.h
; File z:\sources\lunor\repos\rougemeilland\palmtree.math.core.implements\palmtree.math.core.implements\pmc_internal.h
; File z:\sources\lunor\repos\rougemeilland\palmtree.math.core.implements\palmtree.math.core.implements\autogenerated_inline_func.h
; File z:\sources\lunor\repos\rougemeilland\palmtree.math.core.implements\palmtree.math.core.implements\pmc_internal.h
; File z:\sources\lunor\repos\rougemeilland\palmtree.math.core.implements\palmtree.math.core.implements\autogenerated_inline_func.h
; File z:\sources\lunor\repos\rougemeilland\palmtree.math.core.implements\palmtree.math.core.implements\pmc_internal.h
; File z:\sources\lunor\repos\rougemeilland\palmtree.math.core.implements\palmtree.math.core.implements\autogenerated_inline_func.h
; File z:\sources\lunor\repos\rougemeilland\palmtree.math.core.implements\palmtree.math.core.implements\pmc_internal.h
; File z:\sources\lunor\repos\rougemeilland\palmtree.math.core.implements\palmtree.math.core.implements\autogenerated_inline_func.h
; File z:\sources\lunor\repos\rougemeilland\palmtree.math.core.implements\palmtree.math.core.implements\pmc_internal.h
; File z:\sources\lunor\repos\rougemeilland\palmtree.math.core.implements\palmtree.math.core.implements\autogenerated_inline_func.h
; File z:\sources\lunor\repos\rougemeilland\palmtree.math.core.implements\palmtree.math.core.implements\pmc_internal.h
; File z:\sources\lunor\repos\rougemeilland\palmtree.math.core.implements\palmtree.math.core.implements\autogenerated_inline_func.h
; File z:\sources\lunor\repos\rougemeilland\palmtree.math.core.implements\palmtree.math.core.implements\pmc_internal.h
; File z:\sources\lunor\repos\rougemeilland\palmtree.math.core.implements\palmtree.math.core.implements\autogenerated_inline_func.h
; File z:\sources\lunor\repos\rougemeilland\palmtree.math.core.implements\palmtree.math.core.implements\pmc_internal.h
; File z:\sources\lunor\repos\rougemeilland\palmtree.math.core.implements\palmtree.math.core.implements\autogenerated_inline_func.h
; File z:\sources\lunor\repos\rougemeilland\palmtree.math.core.implements\palmtree.math.core.implements\pmc_internal.h
; File z:\sources\lunor\repos\rougemeilland\palmtree.math.core.implements\palmtree.math.core.implements\pmc_divrem.c
; File z:\sources\lunor\repos\rougemeilland\palmtree.math.core.implements\palmtree.math.core.implements\autogenerated_inline_func.h
; File z:\sources\lunor\repos\rougemeilland\palmtree.math.core.implements\palmtree.math.core.implements\pmc_internal.h
; File z:\sources\lunor\repos\rougemeilland\palmtree.math.core.implements\palmtree.math.core.implements\autogenerated_inline_func.h
; File z:\sources\lunor\repos\rougemeilland\palmtree.math.core.implements\palmtree.math.core.implements\pmc_internal.h
; File z:\sources\lunor\repos\rougemeilland\palmtree.math.core.implements\palmtree.math.core.implements\autogenerated_inline_func.h
; File z:\sources\lunor\repos\rougemeilland\palmtree.math.core.implements\palmtree.math.core.implements\pmc_internal.h
; File z:\sources\lunor\repos\rougemeilland\palmtree.math.core.implements\palmtree.math.core.implements\autogenerated_inline_func.h
; File z:\sources\lunor\repos\rougemeilland\palmtree.math.core.implements\palmtree.math.core.implements\pmc_internal.h
; File z:\sources\lunor\repos\rougemeilland\palmtree.math.core.implements\palmtree.math.core.implements\autogenerated_inline_func.h
; File z:\sources\lunor\repos\rougemeilland\palmtree.math.core.implements\palmtree.math.core.implements\pmc_internal.h
; File z:\sources\lunor\repos\rougemeilland\palmtree.math.core.implements\palmtree.math.core.implements\autogenerated_inline_func.h
; File z:\sources\lunor\repos\rougemeilland\palmtree.math.core.implements\palmtree.math.core.implements\pmc_internal.h
; File z:\sources\lunor\repos\rougemeilland\palmtree.math.core.implements\palmtree.math.core.implements\autogenerated_inline_func.h
; File z:\sources\lunor\repos\rougemeilland\palmtree.math.core.implements\palmtree.math.core.implements\pmc_internal.h
; File z:\sources\lunor\repos\rougemeilland\palmtree.math.core.implements\palmtree.math.core.implements\autogenerated_inline_func.h
; File z:\sources\lunor\repos\rougemeilland\palmtree.math.core.implements\palmtree.math.core.implements\pmc_internal.h
; File z:\sources\lunor\repos\rougemeilland\palmtree.math.core.implements\palmtree.math.core.implements\pmc_divrem.c
; File z:\sources\lunor\repos\rougemeilland\palmtree.math.core.implements\palmtree.math.core.implements\autogenerated_inline_func.h
; File z:\sources\lunor\repos\rougemeilland\palmtree.math.core.implements\palmtree.math.core.implements\pmc_internal.h
; File z:\sources\lunor\repos\rougemeilland\palmtree.math.core.implements\palmtree.math.core.implements\autogenerated_inline_func.h
; File z:\sources\lunor\repos\rougemeilland\palmtree.math.core.implements\palmtree.math.core.implements\pmc_internal.h
; File z:\sources\lunor\repos\rougemeilland\palmtree.math.core.implements\palmtree.math.core.implements\autogenerated_inline_func.h
; File z:\sources\lunor\repos\rougemeilland\palmtree.math.core.implements\palmtree.math.core.implements\pmc_internal.h
; File z:\sources\lunor\repos\rougemeilland\palmtree.math.core.implements\palmtree.math.core.implements\autogenerated_inline_func.h
; File z:\sources\lunor\repos\rougemeilland\palmtree.math.core.implements\palmtree.math.core.implements\pmc_internal.h
; File z:\sources\lunor\repos\rougemeilland\palmtree.math.core.implements\palmtree.math.core.implements\pmc_divrem.c
; File z:\sources\lunor\repos\rougemeilland\palmtree.math.core.implements\palmtree.math.core.implements\autogenerated_inline_func.h
; File z:\sources\lunor\repos\rougemeilland\palmtree.math.core.implements\palmtree.math.core.implements\pmc_internal.h
; File z:\sources\lunor\repos\rougemeilland\palmtree.math.core.implements\palmtree.math.core.implements\autogenerated_inline_func.h
; File z:\sources\lunor\repos\rougemeilland\palmtree.math.core.implements\palmtree.math.core.implements\pmc_internal.h
; File z:\sources\lunor\repos\rougemeilland\palmtree.math.core.implements\palmtree.math.core.implements\pmc_divrem.c
; File z:\sources\lunor\repos\rougemeilland\palmtree.math.core.implements\palmtree.math.core.implements\pmc_internal.h
; File z:\sources\lunor\repos\rougemeilland\palmtree.math.core.implements\palmtree.math.core.implements\pmc_divrem.c
; File z:\sources\lunor\repos\rougemeilland\palmtree.math.core.implements\palmtree.math.core.implements\pmc_internal.h
; File z:\sources\lunor\repos\rougemeilland\palmtree.math.core.implements\palmtree.math.core.implements\pmc_divrem.c
;	COMDAT AddOneLineX
_TEXT	SEGMENT
u_buf$ = 48
u_buf_len$ = 56
v_buf$ = 64
v_buf_len$ = 72
q_index$ = 80
AddOneLineX PROC					; COMDAT

; 852  : {

	mov	QWORD PTR [rsp+8], rbx
	push	rdi
	sub	rsp, 32					; 00000020H

; 853  :     __UNIT_TYPE_DIV* u_ptr = &u_buf[q_index];

	mov	rax, QWORD PTR q_index$[rsp]
	mov	r10, r9

; 854  :     __UNIT_TYPE_DIV* v_ptr = &v_buf[0];
; 855  :     __UNIT_TYPE v_count = v_buf_len;
; 856  :     char c = 0;
; 857  : 
; 858  :     // まず 32 ワードずつ加算をする。
; 859  :     __UNIT_TYPE count = v_count >> 5;

	mov	r11, r10
	mov	rbx, rcx
	shr	r11, 5
	mov	rdi, rdx
	lea	r9, QWORD PTR [rcx+rax*4]
	xor	cl, cl

; 860  :     while (count != 0)

	test	r11, r11
	je	$LN3@AddOneLine
	npad	2
$LL2@AddOneLine:
; File z:\sources\lunor\repos\rougemeilland\palmtree.math.core.implements\palmtree.math.core.implements\autogenerated_inline_func.h

; 1312 :     c = _ADDX_UNIT_DIV(c, xp[0], yp[0], &zp[0]);

	mov	eax, DWORD PTR [r9]
; File z:\sources\lunor\repos\rougemeilland\palmtree.math.core.implements\palmtree.math.core.implements\pmc_internal.h

; 530  :     return (_addcarryx_u32(carry, u, v, w));

	add	cl, -1
	adcx	eax, DWORD PTR [r8]
	mov	DWORD PTR [r9], eax
; File z:\sources\lunor\repos\rougemeilland\palmtree.math.core.implements\palmtree.math.core.implements\autogenerated_inline_func.h

; 1313 :     c = _ADDX_UNIT_DIV(c, xp[1], yp[1], &zp[1]);

	mov	eax, DWORD PTR [r9+4]
; File z:\sources\lunor\repos\rougemeilland\palmtree.math.core.implements\palmtree.math.core.implements\pmc_internal.h

; 530  :     return (_addcarryx_u32(carry, u, v, w));

	adcx	eax, DWORD PTR [r8+4]
	mov	DWORD PTR [r9+4], eax
; File z:\sources\lunor\repos\rougemeilland\palmtree.math.core.implements\palmtree.math.core.implements\autogenerated_inline_func.h

; 1314 :     c = _ADDX_UNIT_DIV(c, xp[2], yp[2], &zp[2]);

	mov	eax, DWORD PTR [r9+8]
; File z:\sources\lunor\repos\rougemeilland\palmtree.math.core.implements\palmtree.math.core.implements\pmc_internal.h

; 530  :     return (_addcarryx_u32(carry, u, v, w));

	adcx	eax, DWORD PTR [r8+8]
	mov	DWORD PTR [r9+8], eax
; File z:\sources\lunor\repos\rougemeilland\palmtree.math.core.implements\palmtree.math.core.implements\autogenerated_inline_func.h

; 1315 :     c = _ADDX_UNIT_DIV(c, xp[3], yp[3], &zp[3]);

	mov	eax, DWORD PTR [r9+12]
; File z:\sources\lunor\repos\rougemeilland\palmtree.math.core.implements\palmtree.math.core.implements\pmc_internal.h

; 530  :     return (_addcarryx_u32(carry, u, v, w));

	adcx	eax, DWORD PTR [r8+12]
	mov	DWORD PTR [r9+12], eax
; File z:\sources\lunor\repos\rougemeilland\palmtree.math.core.implements\palmtree.math.core.implements\autogenerated_inline_func.h

; 1316 :     c = _ADDX_UNIT_DIV(c, xp[4], yp[4], &zp[4]);

	mov	eax, DWORD PTR [r9+16]
; File z:\sources\lunor\repos\rougemeilland\palmtree.math.core.implements\palmtree.math.core.implements\pmc_internal.h

; 530  :     return (_addcarryx_u32(carry, u, v, w));

	adcx	eax, DWORD PTR [r8+16]
	mov	DWORD PTR [r9+16], eax
; File z:\sources\lunor\repos\rougemeilland\palmtree.math.core.implements\palmtree.math.core.implements\autogenerated_inline_func.h

; 1317 :     c = _ADDX_UNIT_DIV(c, xp[5], yp[5], &zp[5]);

	mov	eax, DWORD PTR [r9+20]
; File z:\sources\lunor\repos\rougemeilland\palmtree.math.core.implements\palmtree.math.core.implements\pmc_internal.h

; 530  :     return (_addcarryx_u32(carry, u, v, w));

	adcx	eax, DWORD PTR [r8+20]
	mov	DWORD PTR [r9+20], eax
; File z:\sources\lunor\repos\rougemeilland\palmtree.math.core.implements\palmtree.math.core.implements\autogenerated_inline_func.h

; 1318 :     c = _ADDX_UNIT_DIV(c, xp[6], yp[6], &zp[6]);

	mov	eax, DWORD PTR [r9+24]
; File z:\sources\lunor\repos\rougemeilland\palmtree.math.core.implements\palmtree.math.core.implements\pmc_internal.h

; 530  :     return (_addcarryx_u32(carry, u, v, w));

	adcx	eax, DWORD PTR [r8+24]
	mov	DWORD PTR [r9+24], eax
; File z:\sources\lunor\repos\rougemeilland\palmtree.math.core.implements\palmtree.math.core.implements\autogenerated_inline_func.h

; 1319 :     c = _ADDX_UNIT_DIV(c, xp[7], yp[7], &zp[7]);

	mov	eax, DWORD PTR [r9+28]
; File z:\sources\lunor\repos\rougemeilland\palmtree.math.core.implements\palmtree.math.core.implements\pmc_internal.h

; 530  :     return (_addcarryx_u32(carry, u, v, w));

	adcx	eax, DWORD PTR [r8+28]
	mov	DWORD PTR [r9+28], eax
; File z:\sources\lunor\repos\rougemeilland\palmtree.math.core.implements\palmtree.math.core.implements\autogenerated_inline_func.h

; 1320 :     c = _ADDX_UNIT_DIV(c, xp[8], yp[8], &zp[8]);

	mov	eax, DWORD PTR [r9+32]
; File z:\sources\lunor\repos\rougemeilland\palmtree.math.core.implements\palmtree.math.core.implements\pmc_internal.h

; 530  :     return (_addcarryx_u32(carry, u, v, w));

	adcx	eax, DWORD PTR [r8+32]
	mov	DWORD PTR [r9+32], eax
; File z:\sources\lunor\repos\rougemeilland\palmtree.math.core.implements\palmtree.math.core.implements\autogenerated_inline_func.h

; 1321 :     c = _ADDX_UNIT_DIV(c, xp[9], yp[9], &zp[9]);

	mov	eax, DWORD PTR [r9+36]
; File z:\sources\lunor\repos\rougemeilland\palmtree.math.core.implements\palmtree.math.core.implements\pmc_internal.h

; 530  :     return (_addcarryx_u32(carry, u, v, w));

	adcx	eax, DWORD PTR [r8+36]
	mov	DWORD PTR [r9+36], eax
; File z:\sources\lunor\repos\rougemeilland\palmtree.math.core.implements\palmtree.math.core.implements\autogenerated_inline_func.h

; 1322 :     c = _ADDX_UNIT_DIV(c, xp[10], yp[10], &zp[10]);

	mov	eax, DWORD PTR [r9+40]
; File z:\sources\lunor\repos\rougemeilland\palmtree.math.core.implements\palmtree.math.core.implements\pmc_internal.h

; 530  :     return (_addcarryx_u32(carry, u, v, w));

	adcx	eax, DWORD PTR [r8+40]
	mov	DWORD PTR [r9+40], eax
; File z:\sources\lunor\repos\rougemeilland\palmtree.math.core.implements\palmtree.math.core.implements\autogenerated_inline_func.h

; 1323 :     c = _ADDX_UNIT_DIV(c, xp[11], yp[11], &zp[11]);

	mov	eax, DWORD PTR [r9+44]
; File z:\sources\lunor\repos\rougemeilland\palmtree.math.core.implements\palmtree.math.core.implements\pmc_internal.h

; 530  :     return (_addcarryx_u32(carry, u, v, w));

	adcx	eax, DWORD PTR [r8+44]
	mov	DWORD PTR [r9+44], eax
; File z:\sources\lunor\repos\rougemeilland\palmtree.math.core.implements\palmtree.math.core.implements\autogenerated_inline_func.h

; 1324 :     c = _ADDX_UNIT_DIV(c, xp[12], yp[12], &zp[12]);

	mov	eax, DWORD PTR [r9+48]
; File z:\sources\lunor\repos\rougemeilland\palmtree.math.core.implements\palmtree.math.core.implements\pmc_internal.h

; 530  :     return (_addcarryx_u32(carry, u, v, w));

	adcx	eax, DWORD PTR [r8+48]
	mov	DWORD PTR [r9+48], eax
; File z:\sources\lunor\repos\rougemeilland\palmtree.math.core.implements\palmtree.math.core.implements\autogenerated_inline_func.h

; 1325 :     c = _ADDX_UNIT_DIV(c, xp[13], yp[13], &zp[13]);

	mov	eax, DWORD PTR [r9+52]
; File z:\sources\lunor\repos\rougemeilland\palmtree.math.core.implements\palmtree.math.core.implements\pmc_internal.h

; 530  :     return (_addcarryx_u32(carry, u, v, w));

	adcx	eax, DWORD PTR [r8+52]
	mov	DWORD PTR [r9+52], eax
; File z:\sources\lunor\repos\rougemeilland\palmtree.math.core.implements\palmtree.math.core.implements\autogenerated_inline_func.h

; 1326 :     c = _ADDX_UNIT_DIV(c, xp[14], yp[14], &zp[14]);

	mov	eax, DWORD PTR [r9+56]
; File z:\sources\lunor\repos\rougemeilland\palmtree.math.core.implements\palmtree.math.core.implements\pmc_internal.h

; 530  :     return (_addcarryx_u32(carry, u, v, w));

	adcx	eax, DWORD PTR [r8+56]
	mov	DWORD PTR [r9+56], eax
; File z:\sources\lunor\repos\rougemeilland\palmtree.math.core.implements\palmtree.math.core.implements\autogenerated_inline_func.h

; 1327 :     c = _ADDX_UNIT_DIV(c, xp[15], yp[15], &zp[15]);

	mov	eax, DWORD PTR [r9+60]
; File z:\sources\lunor\repos\rougemeilland\palmtree.math.core.implements\palmtree.math.core.implements\pmc_internal.h

; 530  :     return (_addcarryx_u32(carry, u, v, w));

	adcx	eax, DWORD PTR [r8+60]
	mov	DWORD PTR [r9+60], eax
; File z:\sources\lunor\repos\rougemeilland\palmtree.math.core.implements\palmtree.math.core.implements\autogenerated_inline_func.h

; 1328 :     c = _ADDX_UNIT_DIV(c, xp[16], yp[16], &zp[16]);

	mov	eax, DWORD PTR [r9+64]
; File z:\sources\lunor\repos\rougemeilland\palmtree.math.core.implements\palmtree.math.core.implements\pmc_internal.h

; 530  :     return (_addcarryx_u32(carry, u, v, w));

	adcx	eax, DWORD PTR [r8+64]
	mov	DWORD PTR [r9+64], eax
; File z:\sources\lunor\repos\rougemeilland\palmtree.math.core.implements\palmtree.math.core.implements\autogenerated_inline_func.h

; 1329 :     c = _ADDX_UNIT_DIV(c, xp[17], yp[17], &zp[17]);

	mov	eax, DWORD PTR [r9+68]
; File z:\sources\lunor\repos\rougemeilland\palmtree.math.core.implements\palmtree.math.core.implements\pmc_internal.h

; 530  :     return (_addcarryx_u32(carry, u, v, w));

	adcx	eax, DWORD PTR [r8+68]
	mov	DWORD PTR [r9+68], eax
; File z:\sources\lunor\repos\rougemeilland\palmtree.math.core.implements\palmtree.math.core.implements\autogenerated_inline_func.h

; 1330 :     c = _ADDX_UNIT_DIV(c, xp[18], yp[18], &zp[18]);

	mov	eax, DWORD PTR [r9+72]
; File z:\sources\lunor\repos\rougemeilland\palmtree.math.core.implements\palmtree.math.core.implements\pmc_internal.h

; 530  :     return (_addcarryx_u32(carry, u, v, w));

	adcx	eax, DWORD PTR [r8+72]
	mov	DWORD PTR [r9+72], eax
; File z:\sources\lunor\repos\rougemeilland\palmtree.math.core.implements\palmtree.math.core.implements\autogenerated_inline_func.h

; 1331 :     c = _ADDX_UNIT_DIV(c, xp[19], yp[19], &zp[19]);

	mov	eax, DWORD PTR [r9+76]
; File z:\sources\lunor\repos\rougemeilland\palmtree.math.core.implements\palmtree.math.core.implements\pmc_internal.h

; 530  :     return (_addcarryx_u32(carry, u, v, w));

	adcx	eax, DWORD PTR [r8+76]
	mov	DWORD PTR [r9+76], eax
; File z:\sources\lunor\repos\rougemeilland\palmtree.math.core.implements\palmtree.math.core.implements\autogenerated_inline_func.h

; 1332 :     c = _ADDX_UNIT_DIV(c, xp[20], yp[20], &zp[20]);

	mov	eax, DWORD PTR [r9+80]
; File z:\sources\lunor\repos\rougemeilland\palmtree.math.core.implements\palmtree.math.core.implements\pmc_internal.h

; 530  :     return (_addcarryx_u32(carry, u, v, w));

	adcx	eax, DWORD PTR [r8+80]
	mov	DWORD PTR [r9+80], eax
; File z:\sources\lunor\repos\rougemeilland\palmtree.math.core.implements\palmtree.math.core.implements\autogenerated_inline_func.h

; 1333 :     c = _ADDX_UNIT_DIV(c, xp[21], yp[21], &zp[21]);

	mov	eax, DWORD PTR [r9+84]
; File z:\sources\lunor\repos\rougemeilland\palmtree.math.core.implements\palmtree.math.core.implements\pmc_internal.h

; 530  :     return (_addcarryx_u32(carry, u, v, w));

	adcx	eax, DWORD PTR [r8+84]
	mov	DWORD PTR [r9+84], eax
; File z:\sources\lunor\repos\rougemeilland\palmtree.math.core.implements\palmtree.math.core.implements\autogenerated_inline_func.h

; 1334 :     c = _ADDX_UNIT_DIV(c, xp[22], yp[22], &zp[22]);

	mov	eax, DWORD PTR [r9+88]
; File z:\sources\lunor\repos\rougemeilland\palmtree.math.core.implements\palmtree.math.core.implements\pmc_internal.h

; 530  :     return (_addcarryx_u32(carry, u, v, w));

	adcx	eax, DWORD PTR [r8+88]
	mov	DWORD PTR [r9+88], eax
; File z:\sources\lunor\repos\rougemeilland\palmtree.math.core.implements\palmtree.math.core.implements\autogenerated_inline_func.h

; 1335 :     c = _ADDX_UNIT_DIV(c, xp[23], yp[23], &zp[23]);

	mov	eax, DWORD PTR [r9+92]
; File z:\sources\lunor\repos\rougemeilland\palmtree.math.core.implements\palmtree.math.core.implements\pmc_internal.h

; 530  :     return (_addcarryx_u32(carry, u, v, w));

	adcx	eax, DWORD PTR [r8+92]
	mov	DWORD PTR [r9+92], eax
; File z:\sources\lunor\repos\rougemeilland\palmtree.math.core.implements\palmtree.math.core.implements\autogenerated_inline_func.h

; 1336 :     c = _ADDX_UNIT_DIV(c, xp[24], yp[24], &zp[24]);

	mov	eax, DWORD PTR [r9+96]
; File z:\sources\lunor\repos\rougemeilland\palmtree.math.core.implements\palmtree.math.core.implements\pmc_internal.h

; 530  :     return (_addcarryx_u32(carry, u, v, w));

	adcx	eax, DWORD PTR [r8+96]
	mov	DWORD PTR [r9+96], eax
; File z:\sources\lunor\repos\rougemeilland\palmtree.math.core.implements\palmtree.math.core.implements\autogenerated_inline_func.h

; 1337 :     c = _ADDX_UNIT_DIV(c, xp[25], yp[25], &zp[25]);

	mov	eax, DWORD PTR [r9+100]
; File z:\sources\lunor\repos\rougemeilland\palmtree.math.core.implements\palmtree.math.core.implements\pmc_internal.h

; 530  :     return (_addcarryx_u32(carry, u, v, w));

	adcx	eax, DWORD PTR [r8+100]
	mov	DWORD PTR [r9+100], eax
; File z:\sources\lunor\repos\rougemeilland\palmtree.math.core.implements\palmtree.math.core.implements\autogenerated_inline_func.h

; 1338 :     c = _ADDX_UNIT_DIV(c, xp[26], yp[26], &zp[26]);

	mov	eax, DWORD PTR [r9+104]
; File z:\sources\lunor\repos\rougemeilland\palmtree.math.core.implements\palmtree.math.core.implements\pmc_internal.h

; 530  :     return (_addcarryx_u32(carry, u, v, w));

	adcx	eax, DWORD PTR [r8+104]
	mov	DWORD PTR [r9+104], eax
; File z:\sources\lunor\repos\rougemeilland\palmtree.math.core.implements\palmtree.math.core.implements\autogenerated_inline_func.h

; 1339 :     c = _ADDX_UNIT_DIV(c, xp[27], yp[27], &zp[27]);

	mov	eax, DWORD PTR [r9+108]
; File z:\sources\lunor\repos\rougemeilland\palmtree.math.core.implements\palmtree.math.core.implements\pmc_internal.h

; 530  :     return (_addcarryx_u32(carry, u, v, w));

	adcx	eax, DWORD PTR [r8+108]
	mov	DWORD PTR [r9+108], eax
; File z:\sources\lunor\repos\rougemeilland\palmtree.math.core.implements\palmtree.math.core.implements\autogenerated_inline_func.h

; 1340 :     c = _ADDX_UNIT_DIV(c, xp[28], yp[28], &zp[28]);

	mov	eax, DWORD PTR [r9+112]
; File z:\sources\lunor\repos\rougemeilland\palmtree.math.core.implements\palmtree.math.core.implements\pmc_internal.h

; 530  :     return (_addcarryx_u32(carry, u, v, w));

	adcx	eax, DWORD PTR [r8+112]
	mov	DWORD PTR [r9+112], eax
; File z:\sources\lunor\repos\rougemeilland\palmtree.math.core.implements\palmtree.math.core.implements\autogenerated_inline_func.h

; 1341 :     c = _ADDX_UNIT_DIV(c, xp[29], yp[29], &zp[29]);

	mov	eax, DWORD PTR [r9+116]
; File z:\sources\lunor\repos\rougemeilland\palmtree.math.core.implements\palmtree.math.core.implements\pmc_internal.h

; 530  :     return (_addcarryx_u32(carry, u, v, w));

	adcx	eax, DWORD PTR [r8+116]
	mov	DWORD PTR [r9+116], eax
; File z:\sources\lunor\repos\rougemeilland\palmtree.math.core.implements\palmtree.math.core.implements\autogenerated_inline_func.h

; 1342 :     c = _ADDX_UNIT_DIV(c, xp[30], yp[30], &zp[30]);

	mov	eax, DWORD PTR [r9+120]
; File z:\sources\lunor\repos\rougemeilland\palmtree.math.core.implements\palmtree.math.core.implements\pmc_internal.h

; 530  :     return (_addcarryx_u32(carry, u, v, w));

	adcx	eax, DWORD PTR [r8+120]
	mov	DWORD PTR [r9+120], eax
; File z:\sources\lunor\repos\rougemeilland\palmtree.math.core.implements\palmtree.math.core.implements\autogenerated_inline_func.h

; 1343 :     c = _ADDX_UNIT_DIV(c, xp[31], yp[31], &zp[31]);

	mov	eax, DWORD PTR [r9+124]
; File z:\sources\lunor\repos\rougemeilland\palmtree.math.core.implements\palmtree.math.core.implements\pmc_internal.h

; 530  :     return (_addcarryx_u32(carry, u, v, w));

	adcx	eax, DWORD PTR [r8+124]
	mov	DWORD PTR [r9+124], eax
	setb	cl
; File z:\sources\lunor\repos\rougemeilland\palmtree.math.core.implements\palmtree.math.core.implements\pmc_divrem.c

; 863  :         u_ptr += 32;

	sub	r9, -128				; ffffffffffffff80H

; 864  :         v_ptr += 32;

	sub	r8, -128				; ffffffffffffff80H

; 865  :         --count;

	sub	r11, 1
	jne	$LL2@AddOneLine
$LN3@AddOneLine:

; 866  :     }
; 867  :     // この時点で未処理の桁は 32 ワード未満のはず
; 868  : 
; 869  :     // 未処理の桁が 16 ワード以上あるなら 16 ワード加算を行う。
; 870  :     if (v_count & 0x10)

	test	r10b, 16
	je	SHORT $LN4@AddOneLine

; 871  :     {
; 872  :         c = _ADD_16WORDS_ADCX_DIV(c, u_ptr, v_ptr, u_ptr);

	mov	rdx, r9
	call	_ADD_16WORDS_ADCX_DIV

; 873  :         u_ptr += 16;

	add	r9, 64					; 00000040H
	movzx	ecx, al

; 874  :         v_ptr += 16;

	add	r8, 64					; 00000040H
$LN4@AddOneLine:

; 875  :     }
; 876  :     // この時点で未処理の桁は 16 ワード未満のはず
; 877  : 
; 878  :     // 未処理の桁が 8 ワード以上あるなら 8 ワード加算を行う。
; 879  :     if (v_count & 0x8)

	test	r10b, 8
	je	$LN5@AddOneLine
; File z:\sources\lunor\repos\rougemeilland\palmtree.math.core.implements\palmtree.math.core.implements\autogenerated_inline_func.h

; 3624 :     c = _ADDX_UNIT_DIV(c, xp[0], yp[0], &zp[0]);

	mov	eax, DWORD PTR [r9]
; File z:\sources\lunor\repos\rougemeilland\palmtree.math.core.implements\palmtree.math.core.implements\pmc_internal.h

; 530  :     return (_addcarryx_u32(carry, u, v, w));

	add	cl, -1
	adcx	eax, DWORD PTR [r8]
	mov	DWORD PTR [r9], eax
; File z:\sources\lunor\repos\rougemeilland\palmtree.math.core.implements\palmtree.math.core.implements\autogenerated_inline_func.h

; 3625 :     c = _ADDX_UNIT_DIV(c, xp[1], yp[1], &zp[1]);

	mov	eax, DWORD PTR [r9+4]
; File z:\sources\lunor\repos\rougemeilland\palmtree.math.core.implements\palmtree.math.core.implements\pmc_internal.h

; 530  :     return (_addcarryx_u32(carry, u, v, w));

	adcx	eax, DWORD PTR [r8+4]
	mov	DWORD PTR [r9+4], eax
; File z:\sources\lunor\repos\rougemeilland\palmtree.math.core.implements\palmtree.math.core.implements\autogenerated_inline_func.h

; 3626 :     c = _ADDX_UNIT_DIV(c, xp[2], yp[2], &zp[2]);

	mov	eax, DWORD PTR [r9+8]
; File z:\sources\lunor\repos\rougemeilland\palmtree.math.core.implements\palmtree.math.core.implements\pmc_internal.h

; 530  :     return (_addcarryx_u32(carry, u, v, w));

	adcx	eax, DWORD PTR [r8+8]
	mov	DWORD PTR [r9+8], eax
; File z:\sources\lunor\repos\rougemeilland\palmtree.math.core.implements\palmtree.math.core.implements\autogenerated_inline_func.h

; 3627 :     c = _ADDX_UNIT_DIV(c, xp[3], yp[3], &zp[3]);

	mov	eax, DWORD PTR [r9+12]
; File z:\sources\lunor\repos\rougemeilland\palmtree.math.core.implements\palmtree.math.core.implements\pmc_internal.h

; 530  :     return (_addcarryx_u32(carry, u, v, w));

	adcx	eax, DWORD PTR [r8+12]
	mov	DWORD PTR [r9+12], eax
; File z:\sources\lunor\repos\rougemeilland\palmtree.math.core.implements\palmtree.math.core.implements\autogenerated_inline_func.h

; 3628 :     c = _ADDX_UNIT_DIV(c, xp[4], yp[4], &zp[4]);

	mov	eax, DWORD PTR [r9+16]
; File z:\sources\lunor\repos\rougemeilland\palmtree.math.core.implements\palmtree.math.core.implements\pmc_internal.h

; 530  :     return (_addcarryx_u32(carry, u, v, w));

	adcx	eax, DWORD PTR [r8+16]
	mov	DWORD PTR [r9+16], eax
; File z:\sources\lunor\repos\rougemeilland\palmtree.math.core.implements\palmtree.math.core.implements\autogenerated_inline_func.h

; 3629 :     c = _ADDX_UNIT_DIV(c, xp[5], yp[5], &zp[5]);

	mov	eax, DWORD PTR [r9+20]
; File z:\sources\lunor\repos\rougemeilland\palmtree.math.core.implements\palmtree.math.core.implements\pmc_internal.h

; 530  :     return (_addcarryx_u32(carry, u, v, w));

	adcx	eax, DWORD PTR [r8+20]
	mov	DWORD PTR [r9+20], eax
; File z:\sources\lunor\repos\rougemeilland\palmtree.math.core.implements\palmtree.math.core.implements\autogenerated_inline_func.h

; 3630 :     c = _ADDX_UNIT_DIV(c, xp[6], yp[6], &zp[6]);

	mov	eax, DWORD PTR [r9+24]
; File z:\sources\lunor\repos\rougemeilland\palmtree.math.core.implements\palmtree.math.core.implements\pmc_internal.h

; 530  :     return (_addcarryx_u32(carry, u, v, w));

	adcx	eax, DWORD PTR [r8+24]
	mov	DWORD PTR [r9+24], eax
; File z:\sources\lunor\repos\rougemeilland\palmtree.math.core.implements\palmtree.math.core.implements\autogenerated_inline_func.h

; 3631 :     c = _ADDX_UNIT_DIV(c, xp[7], yp[7], &zp[7]);

	mov	eax, DWORD PTR [r9+28]
; File z:\sources\lunor\repos\rougemeilland\palmtree.math.core.implements\palmtree.math.core.implements\pmc_internal.h

; 530  :     return (_addcarryx_u32(carry, u, v, w));

	adcx	eax, DWORD PTR [r8+28]
	mov	DWORD PTR [r9+28], eax
	setb	cl
; File z:\sources\lunor\repos\rougemeilland\palmtree.math.core.implements\palmtree.math.core.implements\pmc_divrem.c

; 882  :         u_ptr += 8;

	add	r9, 32					; 00000020H

; 883  :         v_ptr += 8;

	add	r8, 32					; 00000020H
$LN5@AddOneLine:

; 884  :     }
; 885  :     // この時点で未処理の桁は 8 ワード未満のはず
; 886  : 
; 887  :     // 未処理の桁が 4 ワード以上あるなら 4 ワード加算を行う。
; 888  :     if (v_count & 0x4)

	test	r10b, 4
	je	SHORT $LN6@AddOneLine
; File z:\sources\lunor\repos\rougemeilland\palmtree.math.core.implements\palmtree.math.core.implements\autogenerated_inline_func.h

; 4164 :     c = _ADDX_UNIT_DIV(c, xp[0], yp[0], &zp[0]);

	mov	eax, DWORD PTR [r9]
; File z:\sources\lunor\repos\rougemeilland\palmtree.math.core.implements\palmtree.math.core.implements\pmc_internal.h

; 530  :     return (_addcarryx_u32(carry, u, v, w));

	add	cl, -1
	adcx	eax, DWORD PTR [r8]
	mov	DWORD PTR [r9], eax
; File z:\sources\lunor\repos\rougemeilland\palmtree.math.core.implements\palmtree.math.core.implements\autogenerated_inline_func.h

; 4165 :     c = _ADDX_UNIT_DIV(c, xp[1], yp[1], &zp[1]);

	mov	eax, DWORD PTR [r9+4]
; File z:\sources\lunor\repos\rougemeilland\palmtree.math.core.implements\palmtree.math.core.implements\pmc_internal.h

; 530  :     return (_addcarryx_u32(carry, u, v, w));

	adcx	eax, DWORD PTR [r8+4]
	mov	DWORD PTR [r9+4], eax
; File z:\sources\lunor\repos\rougemeilland\palmtree.math.core.implements\palmtree.math.core.implements\autogenerated_inline_func.h

; 4166 :     c = _ADDX_UNIT_DIV(c, xp[2], yp[2], &zp[2]);

	mov	eax, DWORD PTR [r9+8]
; File z:\sources\lunor\repos\rougemeilland\palmtree.math.core.implements\palmtree.math.core.implements\pmc_internal.h

; 530  :     return (_addcarryx_u32(carry, u, v, w));

	adcx	eax, DWORD PTR [r8+8]
	mov	DWORD PTR [r9+8], eax
; File z:\sources\lunor\repos\rougemeilland\palmtree.math.core.implements\palmtree.math.core.implements\autogenerated_inline_func.h

; 4167 :     c = _ADDX_UNIT_DIV(c, xp[3], yp[3], &zp[3]);

	mov	eax, DWORD PTR [r9+12]
; File z:\sources\lunor\repos\rougemeilland\palmtree.math.core.implements\palmtree.math.core.implements\pmc_internal.h

; 530  :     return (_addcarryx_u32(carry, u, v, w));

	adcx	eax, DWORD PTR [r8+12]
	mov	DWORD PTR [r9+12], eax
	setb	cl
; File z:\sources\lunor\repos\rougemeilland\palmtree.math.core.implements\palmtree.math.core.implements\pmc_divrem.c

; 891  :         u_ptr += 4;

	add	r9, 16

; 892  :         v_ptr += 4;

	add	r8, 16
$LN6@AddOneLine:

; 893  :     }
; 894  :     // この時点で未処理の桁は 4 ワード未満のはず
; 895  : 
; 896  :     // 未処理の桁が 2 ワード以上あるなら 2 ワード加算を行う。
; 897  :     if (v_count & 0x2)

	test	r10b, 2
	je	SHORT $LN7@AddOneLine
; File z:\sources\lunor\repos\rougemeilland\palmtree.math.core.implements\palmtree.math.core.implements\autogenerated_inline_func.h

; 4550 :     c = _ADDX_UNIT_DIV(c, xp[0], yp[0], &zp[0]);

	mov	eax, DWORD PTR [r9]
; File z:\sources\lunor\repos\rougemeilland\palmtree.math.core.implements\palmtree.math.core.implements\pmc_internal.h

; 530  :     return (_addcarryx_u32(carry, u, v, w));

	add	cl, -1
	adcx	eax, DWORD PTR [r8]
	mov	DWORD PTR [r9], eax
; File z:\sources\lunor\repos\rougemeilland\palmtree.math.core.implements\palmtree.math.core.implements\autogenerated_inline_func.h

; 4551 :     c = _ADDX_UNIT_DIV(c, xp[1], yp[1], &zp[1]);

	mov	eax, DWORD PTR [r9+4]
; File z:\sources\lunor\repos\rougemeilland\palmtree.math.core.implements\palmtree.math.core.implements\pmc_internal.h

; 530  :     return (_addcarryx_u32(carry, u, v, w));

	adcx	eax, DWORD PTR [r8+4]
	mov	DWORD PTR [r9+4], eax
	setb	cl
; File z:\sources\lunor\repos\rougemeilland\palmtree.math.core.implements\palmtree.math.core.implements\pmc_divrem.c

; 900  :         u_ptr += 2;

	add	r9, 8

; 901  :         v_ptr += 2;

	add	r8, 8
$LN7@AddOneLine:

; 902  :     }
; 903  :     // この時点で未処理の桁は 2 ワード未満のはず
; 904  : 
; 905  :     // 未処理の桁が 1 ワード以上あるなら 1 ワード加算を行う。
; 906  :     if (v_count & 0x1)

	test	r10b, 1
	je	SHORT $LN8@AddOneLine

; 907  :     {
; 908  :         c = _ADD_UNIT_DIV(c, *u_ptr, *v_ptr, u_ptr);

	mov	eax, DWORD PTR [r9]
; File z:\sources\lunor\repos\rougemeilland\palmtree.math.core.implements\palmtree.math.core.implements\pmc_internal.h

; 502  :     return (_addcarry_u32(carry, u, v, w));

	add	cl, -1
	adc	eax, DWORD PTR [r8]
	mov	DWORD PTR [r9], eax
	setb	cl
; File z:\sources\lunor\repos\rougemeilland\palmtree.math.core.implements\palmtree.math.core.implements\pmc_divrem.c

; 909  :         ++u_ptr;

	add	r9, 4
$LN8@AddOneLine:

; 910  :         ++v_ptr;
; 911  :     }
; 912  : 
; 913  :     // 残りの桁の繰り上がりを計算する。
; 914  :     DoCarry(c, u_ptr, u_buf + u_buf_len + 1 - u_ptr);

	lea	rdx, QWORD PTR [rdi*4+4]
	sub	rdx, r9
	add	rdx, rbx
	sar	rdx, 2

; 761  :         if (u_count <= 0)

	test	rdx, rdx
	je	SHORT $LN131@AddOneLine
$LL113@AddOneLine:

; 762  :         {
; 763  :             // u の最上位まで達してしまった場合
; 764  :             return;
; 765  :         }
; 766  :         else if (c)

	test	cl, cl
	je	SHORT $LN131@AddOneLine

; 767  :         {
; 768  :             // u の最上位に達しておらず、かつキャリーが立っている場合
; 769  : 
; 770  :             // 繰り上がりを継続する
; 771  :             c = _ADD_UNIT_DIV(c, *u_ptr, 0, u_ptr);

	mov	eax, DWORD PTR [r9]
; File z:\sources\lunor\repos\rougemeilland\palmtree.math.core.implements\palmtree.math.core.implements\pmc_internal.h

; 502  :     return (_addcarry_u32(carry, u, v, w));

	add	cl, -1
	adc	eax, 0
	mov	DWORD PTR [r9], eax
	setb	cl
; File z:\sources\lunor\repos\rougemeilland\palmtree.math.core.implements\palmtree.math.core.implements\pmc_divrem.c

; 772  :             ++u_ptr;

	add	r9, 4

; 773  :             --u_count;

	sub	rdx, 1
	jne	SHORT $LL113@AddOneLine
$LN131@AddOneLine:

; 915  : }

	mov	rbx, QWORD PTR [rsp+48]
	add	rsp, 32					; 00000020H
	pop	rdi
	ret	0
AddOneLineX ENDP
_TEXT	ENDS
; Function compile flags: /Ogtpy
; File z:\sources\lunor\repos\rougemeilland\palmtree.math.core.implements\palmtree.math.core.implements\pmc_divrem.c
; File z:\sources\lunor\repos\rougemeilland\palmtree.math.core.implements\palmtree.math.core.implements\autogenerated_inline_func.h
; File z:\sources\lunor\repos\rougemeilland\palmtree.math.core.implements\palmtree.math.core.implements\pmc_internal.h
; File z:\sources\lunor\repos\rougemeilland\palmtree.math.core.implements\palmtree.math.core.implements\autogenerated_inline_func.h
; File z:\sources\lunor\repos\rougemeilland\palmtree.math.core.implements\palmtree.math.core.implements\pmc_internal.h
; File z:\sources\lunor\repos\rougemeilland\palmtree.math.core.implements\palmtree.math.core.implements\autogenerated_inline_func.h
; File z:\sources\lunor\repos\rougemeilland\palmtree.math.core.implements\palmtree.math.core.implements\pmc_internal.h
; File z:\sources\lunor\repos\rougemeilland\palmtree.math.core.implements\palmtree.math.core.implements\autogenerated_inline_func.h
; File z:\sources\lunor\repos\rougemeilland\palmtree.math.core.implements\palmtree.math.core.implements\pmc_internal.h
; File z:\sources\lunor\repos\rougemeilland\palmtree.math.core.implements\palmtree.math.core.implements\autogenerated_inline_func.h
; File z:\sources\lunor\repos\rougemeilland\palmtree.math.core.implements\palmtree.math.core.implements\pmc_internal.h
; File z:\sources\lunor\repos\rougemeilland\palmtree.math.core.implements\palmtree.math.core.implements\autogenerated_inline_func.h
; File z:\sources\lunor\repos\rougemeilland\palmtree.math.core.implements\palmtree.math.core.implements\pmc_internal.h
; File z:\sources\lunor\repos\rougemeilland\palmtree.math.core.implements\palmtree.math.core.implements\autogenerated_inline_func.h
; File z:\sources\lunor\repos\rougemeilland\palmtree.math.core.implements\palmtree.math.core.implements\pmc_internal.h
; File z:\sources\lunor\repos\rougemeilland\palmtree.math.core.implements\palmtree.math.core.implements\autogenerated_inline_func.h
; File z:\sources\lunor\repos\rougemeilland\palmtree.math.core.implements\palmtree.math.core.implements\pmc_internal.h
; File z:\sources\lunor\repos\rougemeilland\palmtree.math.core.implements\palmtree.math.core.implements\autogenerated_inline_func.h
; File z:\sources\lunor\repos\rougemeilland\palmtree.math.core.implements\palmtree.math.core.implements\pmc_internal.h
; File z:\sources\lunor\repos\rougemeilland\palmtree.math.core.implements\palmtree.math.core.implements\autogenerated_inline_func.h
; File z:\sources\lunor\repos\rougemeilland\palmtree.math.core.implements\palmtree.math.core.implements\pmc_internal.h
; File z:\sources\lunor\repos\rougemeilland\palmtree.math.core.implements\palmtree.math.core.implements\autogenerated_inline_func.h
; File z:\sources\lunor\repos\rougemeilland\palmtree.math.core.implements\palmtree.math.core.implements\pmc_internal.h
; File z:\sources\lunor\repos\rougemeilland\palmtree.math.core.implements\palmtree.math.core.implements\autogenerated_inline_func.h
; File z:\sources\lunor\repos\rougemeilland\palmtree.math.core.implements\palmtree.math.core.implements\pmc_internal.h
; File z:\sources\lunor\repos\rougemeilland\palmtree.math.core.implements\palmtree.math.core.implements\autogenerated_inline_func.h
; File z:\sources\lunor\repos\rougemeilland\palmtree.math.core.implements\palmtree.math.core.implements\pmc_internal.h
; File z:\sources\lunor\repos\rougemeilland\palmtree.math.core.implements\palmtree.math.core.implements\autogenerated_inline_func.h
; File z:\sources\lunor\repos\rougemeilland\palmtree.math.core.implements\palmtree.math.core.implements\pmc_internal.h
; File z:\sources\lunor\repos\rougemeilland\palmtree.math.core.implements\palmtree.math.core.implements\autogenerated_inline_func.h
; File z:\sources\lunor\repos\rougemeilland\palmtree.math.core.implements\palmtree.math.core.implements\pmc_internal.h
; File z:\sources\lunor\repos\rougemeilland\palmtree.math.core.implements\palmtree.math.core.implements\autogenerated_inline_func.h
; File z:\sources\lunor\repos\rougemeilland\palmtree.math.core.implements\palmtree.math.core.implements\pmc_internal.h
; File z:\sources\lunor\repos\rougemeilland\palmtree.math.core.implements\palmtree.math.core.implements\autogenerated_inline_func.h
; File z:\sources\lunor\repos\rougemeilland\palmtree.math.core.implements\palmtree.math.core.implements\pmc_internal.h
; File z:\sources\lunor\repos\rougemeilland\palmtree.math.core.implements\palmtree.math.core.implements\autogenerated_inline_func.h
; File z:\sources\lunor\repos\rougemeilland\palmtree.math.core.implements\palmtree.math.core.implements\pmc_internal.h
; File z:\sources\lunor\repos\rougemeilland\palmtree.math.core.implements\palmtree.math.core.implements\autogenerated_inline_func.h
; File z:\sources\lunor\repos\rougemeilland\palmtree.math.core.implements\palmtree.math.core.implements\pmc_internal.h
; File z:\sources\lunor\repos\rougemeilland\palmtree.math.core.implements\palmtree.math.core.implements\autogenerated_inline_func.h
; File z:\sources\lunor\repos\rougemeilland\palmtree.math.core.implements\palmtree.math.core.implements\pmc_internal.h
; File z:\sources\lunor\repos\rougemeilland\palmtree.math.core.implements\palmtree.math.core.implements\autogenerated_inline_func.h
; File z:\sources\lunor\repos\rougemeilland\palmtree.math.core.implements\palmtree.math.core.implements\pmc_internal.h
; File z:\sources\lunor\repos\rougemeilland\palmtree.math.core.implements\palmtree.math.core.implements\autogenerated_inline_func.h
; File z:\sources\lunor\repos\rougemeilland\palmtree.math.core.implements\palmtree.math.core.implements\pmc_internal.h
; File z:\sources\lunor\repos\rougemeilland\palmtree.math.core.implements\palmtree.math.core.implements\autogenerated_inline_func.h
; File z:\sources\lunor\repos\rougemeilland\palmtree.math.core.implements\palmtree.math.core.implements\pmc_internal.h
; File z:\sources\lunor\repos\rougemeilland\palmtree.math.core.implements\palmtree.math.core.implements\autogenerated_inline_func.h
; File z:\sources\lunor\repos\rougemeilland\palmtree.math.core.implements\palmtree.math.core.implements\pmc_internal.h
; File z:\sources\lunor\repos\rougemeilland\palmtree.math.core.implements\palmtree.math.core.implements\autogenerated_inline_func.h
; File z:\sources\lunor\repos\rougemeilland\palmtree.math.core.implements\palmtree.math.core.implements\pmc_internal.h
; File z:\sources\lunor\repos\rougemeilland\palmtree.math.core.implements\palmtree.math.core.implements\autogenerated_inline_func.h
; File z:\sources\lunor\repos\rougemeilland\palmtree.math.core.implements\palmtree.math.core.implements\pmc_internal.h
; File z:\sources\lunor\repos\rougemeilland\palmtree.math.core.implements\palmtree.math.core.implements\autogenerated_inline_func.h
; File z:\sources\lunor\repos\rougemeilland\palmtree.math.core.implements\palmtree.math.core.implements\pmc_internal.h
; File z:\sources\lunor\repos\rougemeilland\palmtree.math.core.implements\palmtree.math.core.implements\autogenerated_inline_func.h
; File z:\sources\lunor\repos\rougemeilland\palmtree.math.core.implements\palmtree.math.core.implements\pmc_internal.h
; File z:\sources\lunor\repos\rougemeilland\palmtree.math.core.implements\palmtree.math.core.implements\autogenerated_inline_func.h
; File z:\sources\lunor\repos\rougemeilland\palmtree.math.core.implements\palmtree.math.core.implements\pmc_internal.h
; File z:\sources\lunor\repos\rougemeilland\palmtree.math.core.implements\palmtree.math.core.implements\autogenerated_inline_func.h
; File z:\sources\lunor\repos\rougemeilland\palmtree.math.core.implements\palmtree.math.core.implements\pmc_internal.h
; File z:\sources\lunor\repos\rougemeilland\palmtree.math.core.implements\palmtree.math.core.implements\autogenerated_inline_func.h
; File z:\sources\lunor\repos\rougemeilland\palmtree.math.core.implements\palmtree.math.core.implements\pmc_internal.h
; File z:\sources\lunor\repos\rougemeilland\palmtree.math.core.implements\palmtree.math.core.implements\autogenerated_inline_func.h
; File z:\sources\lunor\repos\rougemeilland\palmtree.math.core.implements\palmtree.math.core.implements\pmc_internal.h
; File z:\sources\lunor\repos\rougemeilland\palmtree.math.core.implements\palmtree.math.core.implements\pmc_divrem.c
; File z:\sources\lunor\repos\rougemeilland\palmtree.math.core.implements\palmtree.math.core.implements\autogenerated_inline_func.h
; File z:\sources\lunor\repos\rougemeilland\palmtree.math.core.implements\palmtree.math.core.implements\pmc_internal.h
; File z:\sources\lunor\repos\rougemeilland\palmtree.math.core.implements\palmtree.math.core.implements\autogenerated_inline_func.h
; File z:\sources\lunor\repos\rougemeilland\palmtree.math.core.implements\palmtree.math.core.implements\pmc_internal.h
; File z:\sources\lunor\repos\rougemeilland\palmtree.math.core.implements\palmtree.math.core.implements\autogenerated_inline_func.h
; File z:\sources\lunor\repos\rougemeilland\palmtree.math.core.implements\palmtree.math.core.implements\pmc_internal.h
; File z:\sources\lunor\repos\rougemeilland\palmtree.math.core.implements\palmtree.math.core.implements\autogenerated_inline_func.h
; File z:\sources\lunor\repos\rougemeilland\palmtree.math.core.implements\palmtree.math.core.implements\pmc_internal.h
; File z:\sources\lunor\repos\rougemeilland\palmtree.math.core.implements\palmtree.math.core.implements\autogenerated_inline_func.h
; File z:\sources\lunor\repos\rougemeilland\palmtree.math.core.implements\palmtree.math.core.implements\pmc_internal.h
; File z:\sources\lunor\repos\rougemeilland\palmtree.math.core.implements\palmtree.math.core.implements\autogenerated_inline_func.h
; File z:\sources\lunor\repos\rougemeilland\palmtree.math.core.implements\palmtree.math.core.implements\pmc_internal.h
; File z:\sources\lunor\repos\rougemeilland\palmtree.math.core.implements\palmtree.math.core.implements\autogenerated_inline_func.h
; File z:\sources\lunor\repos\rougemeilland\palmtree.math.core.implements\palmtree.math.core.implements\pmc_internal.h
; File z:\sources\lunor\repos\rougemeilland\palmtree.math.core.implements\palmtree.math.core.implements\autogenerated_inline_func.h
; File z:\sources\lunor\repos\rougemeilland\palmtree.math.core.implements\palmtree.math.core.implements\pmc_internal.h
; File z:\sources\lunor\repos\rougemeilland\palmtree.math.core.implements\palmtree.math.core.implements\autogenerated_inline_func.h
; File z:\sources\lunor\repos\rougemeilland\palmtree.math.core.implements\palmtree.math.core.implements\pmc_internal.h
; File z:\sources\lunor\repos\rougemeilland\palmtree.math.core.implements\palmtree.math.core.implements\autogenerated_inline_func.h
; File z:\sources\lunor\repos\rougemeilland\palmtree.math.core.implements\palmtree.math.core.implements\pmc_internal.h
; File z:\sources\lunor\repos\rougemeilland\palmtree.math.core.implements\palmtree.math.core.implements\autogenerated_inline_func.h
; File z:\sources\lunor\repos\rougemeilland\palmtree.math.core.implements\palmtree.math.core.implements\pmc_internal.h
; File z:\sources\lunor\repos\rougemeilland\palmtree.math.core.implements\palmtree.math.core.implements\autogenerated_inline_func.h
; File z:\sources\lunor\repos\rougemeilland\palmtree.math.core.implements\palmtree.math.core.implements\pmc_internal.h
; File z:\sources\lunor\repos\rougemeilland\palmtree.math.core.implements\palmtree.math.core.implements\autogenerated_inline_func.h
; File z:\sources\lunor\repos\rougemeilland\palmtree.math.core.implements\palmtree.math.core.implements\pmc_internal.h
; File z:\sources\lunor\repos\rougemeilland\palmtree.math.core.implements\palmtree.math.core.implements\autogenerated_inline_func.h
; File z:\sources\lunor\repos\rougemeilland\palmtree.math.core.implements\palmtree.math.core.implements\pmc_internal.h
; File z:\sources\lunor\repos\rougemeilland\palmtree.math.core.implements\palmtree.math.core.implements\autogenerated_inline_func.h
; File z:\sources\lunor\repos\rougemeilland\palmtree.math.core.implements\palmtree.math.core.implements\pmc_internal.h
; File z:\sources\lunor\repos\rougemeilland\palmtree.math.core.implements\palmtree.math.core.implements\autogenerated_inline_func.h
; File z:\sources\lunor\repos\rougemeilland\palmtree.math.core.implements\palmtree.math.core.implements\pmc_internal.h
; File z:\sources\lunor\repos\rougemeilland\palmtree.math.core.implements\palmtree.math.core.implements\pmc_divrem.c
; File z:\sources\lunor\repos\rougemeilland\palmtree.math.core.implements\palmtree.math.core.implements\autogenerated_inline_func.h
; File z:\sources\lunor\repos\rougemeilland\palmtree.math.core.implements\palmtree.math.core.implements\pmc_internal.h
; File z:\sources\lunor\repos\rougemeilland\palmtree.math.core.implements\palmtree.math.core.implements\autogenerated_inline_func.h
; File z:\sources\lunor\repos\rougemeilland\palmtree.math.core.implements\palmtree.math.core.implements\pmc_internal.h
; File z:\sources\lunor\repos\rougemeilland\palmtree.math.core.implements\palmtree.math.core.implements\autogenerated_inline_func.h
; File z:\sources\lunor\repos\rougemeilland\palmtree.math.core.implements\palmtree.math.core.implements\pmc_internal.h
; File z:\sources\lunor\repos\rougemeilland\palmtree.math.core.implements\palmtree.math.core.implements\autogenerated_inline_func.h
; File z:\sources\lunor\repos\rougemeilland\palmtree.math.core.implements\palmtree.math.core.implements\pmc_internal.h
; File z:\sources\lunor\repos\rougemeilland\palmtree.math.core.implements\palmtree.math.core.implements\autogenerated_inline_func.h
; File z:\sources\lunor\repos\rougemeilland\palmtree.math.core.implements\palmtree.math.core.implements\pmc_internal.h
; File z:\sources\lunor\repos\rougemeilland\palmtree.math.core.implements\palmtree.math.core.implements\autogenerated_inline_func.h
; File z:\sources\lunor\repos\rougemeilland\palmtree.math.core.implements\palmtree.math.core.implements\pmc_internal.h
; File z:\sources\lunor\repos\rougemeilland\palmtree.math.core.implements\palmtree.math.core.implements\autogenerated_inline_func.h
; File z:\sources\lunor\repos\rougemeilland\palmtree.math.core.implements\palmtree.math.core.implements\pmc_internal.h
; File z:\sources\lunor\repos\rougemeilland\palmtree.math.core.implements\palmtree.math.core.implements\autogenerated_inline_func.h
; File z:\sources\lunor\repos\rougemeilland\palmtree.math.core.implements\palmtree.math.core.implements\pmc_internal.h
; File z:\sources\lunor\repos\rougemeilland\palmtree.math.core.implements\palmtree.math.core.implements\pmc_divrem.c
; File z:\sources\lunor\repos\rougemeilland\palmtree.math.core.implements\palmtree.math.core.implements\autogenerated_inline_func.h
; File z:\sources\lunor\repos\rougemeilland\palmtree.math.core.implements\palmtree.math.core.implements\pmc_internal.h
; File z:\sources\lunor\repos\rougemeilland\palmtree.math.core.implements\palmtree.math.core.implements\autogenerated_inline_func.h
; File z:\sources\lunor\repos\rougemeilland\palmtree.math.core.implements\palmtree.math.core.implements\pmc_internal.h
; File z:\sources\lunor\repos\rougemeilland\palmtree.math.core.implements\palmtree.math.core.implements\autogenerated_inline_func.h
; File z:\sources\lunor\repos\rougemeilland\palmtree.math.core.implements\palmtree.math.core.implements\pmc_internal.h
; File z:\sources\lunor\repos\rougemeilland\palmtree.math.core.implements\palmtree.math.core.implements\autogenerated_inline_func.h
; File z:\sources\lunor\repos\rougemeilland\palmtree.math.core.implements\palmtree.math.core.implements\pmc_internal.h
; File z:\sources\lunor\repos\rougemeilland\palmtree.math.core.implements\palmtree.math.core.implements\pmc_divrem.c
; File z:\sources\lunor\repos\rougemeilland\palmtree.math.core.implements\palmtree.math.core.implements\autogenerated_inline_func.h
; File z:\sources\lunor\repos\rougemeilland\palmtree.math.core.implements\palmtree.math.core.implements\pmc_internal.h
; File z:\sources\lunor\repos\rougemeilland\palmtree.math.core.implements\palmtree.math.core.implements\autogenerated_inline_func.h
; File z:\sources\lunor\repos\rougemeilland\palmtree.math.core.implements\palmtree.math.core.implements\pmc_internal.h
; File z:\sources\lunor\repos\rougemeilland\palmtree.math.core.implements\palmtree.math.core.implements\pmc_divrem.c
; File z:\sources\lunor\repos\rougemeilland\palmtree.math.core.implements\palmtree.math.core.implements\pmc_internal.h
; File z:\sources\lunor\repos\rougemeilland\palmtree.math.core.implements\palmtree.math.core.implements\pmc_divrem.c
; File z:\sources\lunor\repos\rougemeilland\palmtree.math.core.implements\palmtree.math.core.implements\pmc_internal.h
; File z:\sources\lunor\repos\rougemeilland\palmtree.math.core.implements\palmtree.math.core.implements\pmc_divrem.c
;	COMDAT AddOneLine
_TEXT	SEGMENT
u_buf$ = 8
u_buf_len$ = 16
v_buf$ = 24
v_buf_len$ = 32
q_index$ = 40
AddOneLine PROC						; COMDAT

; 786  : {

	mov	QWORD PTR [rsp+8], rbx

; 787  :     __UNIT_TYPE_DIV* u_ptr = &u_buf[q_index];

	mov	rax, QWORD PTR q_index$[rsp]

; 788  :     __UNIT_TYPE_DIV* v_ptr = &v_buf[0];
; 789  :     __UNIT_TYPE v_count = v_buf_len;
; 790  :     char c = 0;
; 791  : 
; 792  :     // まず 32 ワードずつ加算をする。
; 793  :     __UNIT_TYPE count = v_count >> 5;

	mov	r11, r9
	shr	r11, 5
	xor	r10b, r10b
	mov	rbx, rcx
	lea	rax, QWORD PTR [rcx+rax*4]

; 794  :     while (count != 0)

	test	r11, r11
	je	$LN3@AddOneLine
	npad	12
$LL2@AddOneLine:
; File z:\sources\lunor\repos\rougemeilland\palmtree.math.core.implements\palmtree.math.core.implements\autogenerated_inline_func.h

; 1059 :     c = _ADD_UNIT_DIV(c, xp[0], yp[0], &zp[0]);

	mov	ecx, DWORD PTR [rax]
; File z:\sources\lunor\repos\rougemeilland\palmtree.math.core.implements\palmtree.math.core.implements\pmc_internal.h

; 502  :     return (_addcarry_u32(carry, u, v, w));

	add	r10b, -1
	adc	ecx, DWORD PTR [r8]
	mov	DWORD PTR [rax], ecx
; File z:\sources\lunor\repos\rougemeilland\palmtree.math.core.implements\palmtree.math.core.implements\autogenerated_inline_func.h

; 1060 :     c = _ADD_UNIT_DIV(c, xp[1], yp[1], &zp[1]);

	mov	ecx, DWORD PTR [rax+4]
; File z:\sources\lunor\repos\rougemeilland\palmtree.math.core.implements\palmtree.math.core.implements\pmc_internal.h

; 502  :     return (_addcarry_u32(carry, u, v, w));

	adc	ecx, DWORD PTR [r8+4]
	mov	DWORD PTR [rax+4], ecx
; File z:\sources\lunor\repos\rougemeilland\palmtree.math.core.implements\palmtree.math.core.implements\autogenerated_inline_func.h

; 1061 :     c = _ADD_UNIT_DIV(c, xp[2], yp[2], &zp[2]);

	mov	ecx, DWORD PTR [rax+8]
; File z:\sources\lunor\repos\rougemeilland\palmtree.math.core.implements\palmtree.math.core.implements\pmc_internal.h

; 502  :     return (_addcarry_u32(carry, u, v, w));

	adc	ecx, DWORD PTR [r8+8]
	mov	DWORD PTR [rax+8], ecx
; File z:\sources\lunor\repos\rougemeilland\palmtree.math.core.implements\palmtree.math.core.implements\autogenerated_inline_func.h

; 1062 :     c = _ADD_UNIT_DIV(c, xp[3], yp[3], &zp[3]);

	mov	ecx, DWORD PTR [rax+12]
; File z:\sources\lunor\repos\rougemeilland\palmtree.math.core.implements\palmtree.math.core.implements\pmc_internal.h

; 502  :     return (_addcarry_u32(carry, u, v, w));

	adc	ecx, DWORD PTR [r8+12]
	mov	DWORD PTR [rax+12], ecx
; File z:\sources\lunor\repos\rougemeilland\palmtree.math.core.implements\palmtree.math.core.implements\autogenerated_inline_func.h

; 1063 :     c = _ADD_UNIT_DIV(c, xp[4], yp[4], &zp[4]);

	mov	ecx, DWORD PTR [rax+16]
; File z:\sources\lunor\repos\rougemeilland\palmtree.math.core.implements\palmtree.math.core.implements\pmc_internal.h

; 502  :     return (_addcarry_u32(carry, u, v, w));

	adc	ecx, DWORD PTR [r8+16]
	mov	DWORD PTR [rax+16], ecx
; File z:\sources\lunor\repos\rougemeilland\palmtree.math.core.implements\palmtree.math.core.implements\autogenerated_inline_func.h

; 1064 :     c = _ADD_UNIT_DIV(c, xp[5], yp[5], &zp[5]);

	mov	ecx, DWORD PTR [rax+20]
; File z:\sources\lunor\repos\rougemeilland\palmtree.math.core.implements\palmtree.math.core.implements\pmc_internal.h

; 502  :     return (_addcarry_u32(carry, u, v, w));

	adc	ecx, DWORD PTR [r8+20]
	mov	DWORD PTR [rax+20], ecx
; File z:\sources\lunor\repos\rougemeilland\palmtree.math.core.implements\palmtree.math.core.implements\autogenerated_inline_func.h

; 1065 :     c = _ADD_UNIT_DIV(c, xp[6], yp[6], &zp[6]);

	mov	ecx, DWORD PTR [rax+24]
; File z:\sources\lunor\repos\rougemeilland\palmtree.math.core.implements\palmtree.math.core.implements\pmc_internal.h

; 502  :     return (_addcarry_u32(carry, u, v, w));

	adc	ecx, DWORD PTR [r8+24]
	mov	DWORD PTR [rax+24], ecx
; File z:\sources\lunor\repos\rougemeilland\palmtree.math.core.implements\palmtree.math.core.implements\autogenerated_inline_func.h

; 1066 :     c = _ADD_UNIT_DIV(c, xp[7], yp[7], &zp[7]);

	mov	ecx, DWORD PTR [rax+28]
; File z:\sources\lunor\repos\rougemeilland\palmtree.math.core.implements\palmtree.math.core.implements\pmc_internal.h

; 502  :     return (_addcarry_u32(carry, u, v, w));

	adc	ecx, DWORD PTR [r8+28]
	mov	DWORD PTR [rax+28], ecx
; File z:\sources\lunor\repos\rougemeilland\palmtree.math.core.implements\palmtree.math.core.implements\autogenerated_inline_func.h

; 1067 :     c = _ADD_UNIT_DIV(c, xp[8], yp[8], &zp[8]);

	mov	ecx, DWORD PTR [rax+32]
; File z:\sources\lunor\repos\rougemeilland\palmtree.math.core.implements\palmtree.math.core.implements\pmc_internal.h

; 502  :     return (_addcarry_u32(carry, u, v, w));

	adc	ecx, DWORD PTR [r8+32]
	mov	DWORD PTR [rax+32], ecx
; File z:\sources\lunor\repos\rougemeilland\palmtree.math.core.implements\palmtree.math.core.implements\autogenerated_inline_func.h

; 1068 :     c = _ADD_UNIT_DIV(c, xp[9], yp[9], &zp[9]);

	mov	ecx, DWORD PTR [rax+36]
; File z:\sources\lunor\repos\rougemeilland\palmtree.math.core.implements\palmtree.math.core.implements\pmc_internal.h

; 502  :     return (_addcarry_u32(carry, u, v, w));

	adc	ecx, DWORD PTR [r8+36]
	mov	DWORD PTR [rax+36], ecx
; File z:\sources\lunor\repos\rougemeilland\palmtree.math.core.implements\palmtree.math.core.implements\autogenerated_inline_func.h

; 1069 :     c = _ADD_UNIT_DIV(c, xp[10], yp[10], &zp[10]);

	mov	ecx, DWORD PTR [rax+40]
; File z:\sources\lunor\repos\rougemeilland\palmtree.math.core.implements\palmtree.math.core.implements\pmc_internal.h

; 502  :     return (_addcarry_u32(carry, u, v, w));

	adc	ecx, DWORD PTR [r8+40]
	mov	DWORD PTR [rax+40], ecx
; File z:\sources\lunor\repos\rougemeilland\palmtree.math.core.implements\palmtree.math.core.implements\autogenerated_inline_func.h

; 1070 :     c = _ADD_UNIT_DIV(c, xp[11], yp[11], &zp[11]);

	mov	ecx, DWORD PTR [rax+44]
; File z:\sources\lunor\repos\rougemeilland\palmtree.math.core.implements\palmtree.math.core.implements\pmc_internal.h

; 502  :     return (_addcarry_u32(carry, u, v, w));

	adc	ecx, DWORD PTR [r8+44]
	mov	DWORD PTR [rax+44], ecx
; File z:\sources\lunor\repos\rougemeilland\palmtree.math.core.implements\palmtree.math.core.implements\autogenerated_inline_func.h

; 1071 :     c = _ADD_UNIT_DIV(c, xp[12], yp[12], &zp[12]);

	mov	ecx, DWORD PTR [rax+48]
; File z:\sources\lunor\repos\rougemeilland\palmtree.math.core.implements\palmtree.math.core.implements\pmc_internal.h

; 502  :     return (_addcarry_u32(carry, u, v, w));

	adc	ecx, DWORD PTR [r8+48]
	mov	DWORD PTR [rax+48], ecx
; File z:\sources\lunor\repos\rougemeilland\palmtree.math.core.implements\palmtree.math.core.implements\autogenerated_inline_func.h

; 1072 :     c = _ADD_UNIT_DIV(c, xp[13], yp[13], &zp[13]);

	mov	ecx, DWORD PTR [rax+52]
; File z:\sources\lunor\repos\rougemeilland\palmtree.math.core.implements\palmtree.math.core.implements\pmc_internal.h

; 502  :     return (_addcarry_u32(carry, u, v, w));

	adc	ecx, DWORD PTR [r8+52]
	mov	DWORD PTR [rax+52], ecx
; File z:\sources\lunor\repos\rougemeilland\palmtree.math.core.implements\palmtree.math.core.implements\autogenerated_inline_func.h

; 1073 :     c = _ADD_UNIT_DIV(c, xp[14], yp[14], &zp[14]);

	mov	ecx, DWORD PTR [rax+56]
; File z:\sources\lunor\repos\rougemeilland\palmtree.math.core.implements\palmtree.math.core.implements\pmc_internal.h

; 502  :     return (_addcarry_u32(carry, u, v, w));

	adc	ecx, DWORD PTR [r8+56]
	mov	DWORD PTR [rax+56], ecx
; File z:\sources\lunor\repos\rougemeilland\palmtree.math.core.implements\palmtree.math.core.implements\autogenerated_inline_func.h

; 1074 :     c = _ADD_UNIT_DIV(c, xp[15], yp[15], &zp[15]);

	mov	ecx, DWORD PTR [rax+60]
; File z:\sources\lunor\repos\rougemeilland\palmtree.math.core.implements\palmtree.math.core.implements\pmc_internal.h

; 502  :     return (_addcarry_u32(carry, u, v, w));

	adc	ecx, DWORD PTR [r8+60]
	mov	DWORD PTR [rax+60], ecx
; File z:\sources\lunor\repos\rougemeilland\palmtree.math.core.implements\palmtree.math.core.implements\autogenerated_inline_func.h

; 1075 :     c = _ADD_UNIT_DIV(c, xp[16], yp[16], &zp[16]);

	mov	ecx, DWORD PTR [rax+64]
; File z:\sources\lunor\repos\rougemeilland\palmtree.math.core.implements\palmtree.math.core.implements\pmc_internal.h

; 502  :     return (_addcarry_u32(carry, u, v, w));

	adc	ecx, DWORD PTR [r8+64]
	mov	DWORD PTR [rax+64], ecx
; File z:\sources\lunor\repos\rougemeilland\palmtree.math.core.implements\palmtree.math.core.implements\autogenerated_inline_func.h

; 1076 :     c = _ADD_UNIT_DIV(c, xp[17], yp[17], &zp[17]);

	mov	ecx, DWORD PTR [rax+68]
; File z:\sources\lunor\repos\rougemeilland\palmtree.math.core.implements\palmtree.math.core.implements\pmc_internal.h

; 502  :     return (_addcarry_u32(carry, u, v, w));

	adc	ecx, DWORD PTR [r8+68]
	mov	DWORD PTR [rax+68], ecx
; File z:\sources\lunor\repos\rougemeilland\palmtree.math.core.implements\palmtree.math.core.implements\autogenerated_inline_func.h

; 1077 :     c = _ADD_UNIT_DIV(c, xp[18], yp[18], &zp[18]);

	mov	ecx, DWORD PTR [rax+72]
; File z:\sources\lunor\repos\rougemeilland\palmtree.math.core.implements\palmtree.math.core.implements\pmc_internal.h

; 502  :     return (_addcarry_u32(carry, u, v, w));

	adc	ecx, DWORD PTR [r8+72]
	mov	DWORD PTR [rax+72], ecx
; File z:\sources\lunor\repos\rougemeilland\palmtree.math.core.implements\palmtree.math.core.implements\autogenerated_inline_func.h

; 1078 :     c = _ADD_UNIT_DIV(c, xp[19], yp[19], &zp[19]);

	mov	ecx, DWORD PTR [rax+76]
; File z:\sources\lunor\repos\rougemeilland\palmtree.math.core.implements\palmtree.math.core.implements\pmc_internal.h

; 502  :     return (_addcarry_u32(carry, u, v, w));

	adc	ecx, DWORD PTR [r8+76]
	mov	DWORD PTR [rax+76], ecx
; File z:\sources\lunor\repos\rougemeilland\palmtree.math.core.implements\palmtree.math.core.implements\autogenerated_inline_func.h

; 1079 :     c = _ADD_UNIT_DIV(c, xp[20], yp[20], &zp[20]);

	mov	ecx, DWORD PTR [rax+80]
; File z:\sources\lunor\repos\rougemeilland\palmtree.math.core.implements\palmtree.math.core.implements\pmc_internal.h

; 502  :     return (_addcarry_u32(carry, u, v, w));

	adc	ecx, DWORD PTR [r8+80]
	mov	DWORD PTR [rax+80], ecx
; File z:\sources\lunor\repos\rougemeilland\palmtree.math.core.implements\palmtree.math.core.implements\autogenerated_inline_func.h

; 1080 :     c = _ADD_UNIT_DIV(c, xp[21], yp[21], &zp[21]);

	mov	ecx, DWORD PTR [rax+84]
; File z:\sources\lunor\repos\rougemeilland\palmtree.math.core.implements\palmtree.math.core.implements\pmc_internal.h

; 502  :     return (_addcarry_u32(carry, u, v, w));

	adc	ecx, DWORD PTR [r8+84]
	mov	DWORD PTR [rax+84], ecx
; File z:\sources\lunor\repos\rougemeilland\palmtree.math.core.implements\palmtree.math.core.implements\autogenerated_inline_func.h

; 1081 :     c = _ADD_UNIT_DIV(c, xp[22], yp[22], &zp[22]);

	mov	ecx, DWORD PTR [rax+88]
; File z:\sources\lunor\repos\rougemeilland\palmtree.math.core.implements\palmtree.math.core.implements\pmc_internal.h

; 502  :     return (_addcarry_u32(carry, u, v, w));

	adc	ecx, DWORD PTR [r8+88]
	mov	DWORD PTR [rax+88], ecx
; File z:\sources\lunor\repos\rougemeilland\palmtree.math.core.implements\palmtree.math.core.implements\autogenerated_inline_func.h

; 1082 :     c = _ADD_UNIT_DIV(c, xp[23], yp[23], &zp[23]);

	mov	ecx, DWORD PTR [rax+92]
; File z:\sources\lunor\repos\rougemeilland\palmtree.math.core.implements\palmtree.math.core.implements\pmc_internal.h

; 502  :     return (_addcarry_u32(carry, u, v, w));

	adc	ecx, DWORD PTR [r8+92]
	mov	DWORD PTR [rax+92], ecx
; File z:\sources\lunor\repos\rougemeilland\palmtree.math.core.implements\palmtree.math.core.implements\autogenerated_inline_func.h

; 1083 :     c = _ADD_UNIT_DIV(c, xp[24], yp[24], &zp[24]);

	mov	ecx, DWORD PTR [rax+96]
; File z:\sources\lunor\repos\rougemeilland\palmtree.math.core.implements\palmtree.math.core.implements\pmc_internal.h

; 502  :     return (_addcarry_u32(carry, u, v, w));

	adc	ecx, DWORD PTR [r8+96]
	mov	DWORD PTR [rax+96], ecx
; File z:\sources\lunor\repos\rougemeilland\palmtree.math.core.implements\palmtree.math.core.implements\autogenerated_inline_func.h

; 1084 :     c = _ADD_UNIT_DIV(c, xp[25], yp[25], &zp[25]);

	mov	ecx, DWORD PTR [rax+100]
; File z:\sources\lunor\repos\rougemeilland\palmtree.math.core.implements\palmtree.math.core.implements\pmc_internal.h

; 502  :     return (_addcarry_u32(carry, u, v, w));

	adc	ecx, DWORD PTR [r8+100]
	mov	DWORD PTR [rax+100], ecx
; File z:\sources\lunor\repos\rougemeilland\palmtree.math.core.implements\palmtree.math.core.implements\autogenerated_inline_func.h

; 1085 :     c = _ADD_UNIT_DIV(c, xp[26], yp[26], &zp[26]);

	mov	ecx, DWORD PTR [rax+104]
; File z:\sources\lunor\repos\rougemeilland\palmtree.math.core.implements\palmtree.math.core.implements\pmc_internal.h

; 502  :     return (_addcarry_u32(carry, u, v, w));

	adc	ecx, DWORD PTR [r8+104]
	mov	DWORD PTR [rax+104], ecx
; File z:\sources\lunor\repos\rougemeilland\palmtree.math.core.implements\palmtree.math.core.implements\autogenerated_inline_func.h

; 1086 :     c = _ADD_UNIT_DIV(c, xp[27], yp[27], &zp[27]);

	mov	ecx, DWORD PTR [rax+108]
; File z:\sources\lunor\repos\rougemeilland\palmtree.math.core.implements\palmtree.math.core.implements\pmc_internal.h

; 502  :     return (_addcarry_u32(carry, u, v, w));

	adc	ecx, DWORD PTR [r8+108]
	mov	DWORD PTR [rax+108], ecx
; File z:\sources\lunor\repos\rougemeilland\palmtree.math.core.implements\palmtree.math.core.implements\autogenerated_inline_func.h

; 1087 :     c = _ADD_UNIT_DIV(c, xp[28], yp[28], &zp[28]);

	mov	ecx, DWORD PTR [rax+112]
; File z:\sources\lunor\repos\rougemeilland\palmtree.math.core.implements\palmtree.math.core.implements\pmc_internal.h

; 502  :     return (_addcarry_u32(carry, u, v, w));

	adc	ecx, DWORD PTR [r8+112]
	mov	DWORD PTR [rax+112], ecx
; File z:\sources\lunor\repos\rougemeilland\palmtree.math.core.implements\palmtree.math.core.implements\autogenerated_inline_func.h

; 1088 :     c = _ADD_UNIT_DIV(c, xp[29], yp[29], &zp[29]);

	mov	ecx, DWORD PTR [rax+116]
; File z:\sources\lunor\repos\rougemeilland\palmtree.math.core.implements\palmtree.math.core.implements\pmc_internal.h

; 502  :     return (_addcarry_u32(carry, u, v, w));

	adc	ecx, DWORD PTR [r8+116]
	mov	DWORD PTR [rax+116], ecx
; File z:\sources\lunor\repos\rougemeilland\palmtree.math.core.implements\palmtree.math.core.implements\autogenerated_inline_func.h

; 1089 :     c = _ADD_UNIT_DIV(c, xp[30], yp[30], &zp[30]);

	mov	ecx, DWORD PTR [rax+120]
; File z:\sources\lunor\repos\rougemeilland\palmtree.math.core.implements\palmtree.math.core.implements\pmc_internal.h

; 502  :     return (_addcarry_u32(carry, u, v, w));

	adc	ecx, DWORD PTR [r8+120]
	mov	DWORD PTR [rax+120], ecx
; File z:\sources\lunor\repos\rougemeilland\palmtree.math.core.implements\palmtree.math.core.implements\autogenerated_inline_func.h

; 1090 :     c = _ADD_UNIT_DIV(c, xp[31], yp[31], &zp[31]);

	mov	ecx, DWORD PTR [rax+124]
; File z:\sources\lunor\repos\rougemeilland\palmtree.math.core.implements\palmtree.math.core.implements\pmc_internal.h

; 502  :     return (_addcarry_u32(carry, u, v, w));

	adc	ecx, DWORD PTR [r8+124]
	mov	DWORD PTR [rax+124], ecx
	setb	r10b
; File z:\sources\lunor\repos\rougemeilland\palmtree.math.core.implements\palmtree.math.core.implements\pmc_divrem.c

; 797  :         u_ptr += 32;

	sub	rax, -128				; ffffffffffffff80H

; 798  :         v_ptr += 32;

	sub	r8, -128				; ffffffffffffff80H

; 799  :         --count;

	sub	r11, 1
	jne	$LL2@AddOneLine
$LN3@AddOneLine:

; 800  :     }
; 801  :     // この時点で未処理の桁は 32 ワード未満のはず
; 802  : 
; 803  :     // 未処理の桁が 16 ワード以上あるなら 16 ワード加算を行う。
; 804  :     if (v_count & 0x10)

	test	r9b, 16
	je	$LN4@AddOneLine
; File z:\sources\lunor\repos\rougemeilland\palmtree.math.core.implements\palmtree.math.core.implements\autogenerated_inline_func.h

; 2635 :     c = _ADD_UNIT_DIV(c, xp[0], yp[0], &zp[0]);

	mov	ecx, DWORD PTR [rax]
; File z:\sources\lunor\repos\rougemeilland\palmtree.math.core.implements\palmtree.math.core.implements\pmc_internal.h

; 502  :     return (_addcarry_u32(carry, u, v, w));

	add	r10b, -1
	adc	ecx, DWORD PTR [r8]
	mov	DWORD PTR [rax], ecx
; File z:\sources\lunor\repos\rougemeilland\palmtree.math.core.implements\palmtree.math.core.implements\autogenerated_inline_func.h

; 2636 :     c = _ADD_UNIT_DIV(c, xp[1], yp[1], &zp[1]);

	mov	ecx, DWORD PTR [rax+4]
; File z:\sources\lunor\repos\rougemeilland\palmtree.math.core.implements\palmtree.math.core.implements\pmc_internal.h

; 502  :     return (_addcarry_u32(carry, u, v, w));

	adc	ecx, DWORD PTR [r8+4]
	mov	DWORD PTR [rax+4], ecx
; File z:\sources\lunor\repos\rougemeilland\palmtree.math.core.implements\palmtree.math.core.implements\autogenerated_inline_func.h

; 2637 :     c = _ADD_UNIT_DIV(c, xp[2], yp[2], &zp[2]);

	mov	ecx, DWORD PTR [rax+8]
; File z:\sources\lunor\repos\rougemeilland\palmtree.math.core.implements\palmtree.math.core.implements\pmc_internal.h

; 502  :     return (_addcarry_u32(carry, u, v, w));

	adc	ecx, DWORD PTR [r8+8]
	mov	DWORD PTR [rax+8], ecx
; File z:\sources\lunor\repos\rougemeilland\palmtree.math.core.implements\palmtree.math.core.implements\autogenerated_inline_func.h

; 2638 :     c = _ADD_UNIT_DIV(c, xp[3], yp[3], &zp[3]);

	mov	ecx, DWORD PTR [rax+12]
; File z:\sources\lunor\repos\rougemeilland\palmtree.math.core.implements\palmtree.math.core.implements\pmc_internal.h

; 502  :     return (_addcarry_u32(carry, u, v, w));

	adc	ecx, DWORD PTR [r8+12]
	mov	DWORD PTR [rax+12], ecx
; File z:\sources\lunor\repos\rougemeilland\palmtree.math.core.implements\palmtree.math.core.implements\autogenerated_inline_func.h

; 2639 :     c = _ADD_UNIT_DIV(c, xp[4], yp[4], &zp[4]);

	mov	ecx, DWORD PTR [rax+16]
; File z:\sources\lunor\repos\rougemeilland\palmtree.math.core.implements\palmtree.math.core.implements\pmc_internal.h

; 502  :     return (_addcarry_u32(carry, u, v, w));

	adc	ecx, DWORD PTR [r8+16]
	mov	DWORD PTR [rax+16], ecx
; File z:\sources\lunor\repos\rougemeilland\palmtree.math.core.implements\palmtree.math.core.implements\autogenerated_inline_func.h

; 2640 :     c = _ADD_UNIT_DIV(c, xp[5], yp[5], &zp[5]);

	mov	ecx, DWORD PTR [rax+20]
; File z:\sources\lunor\repos\rougemeilland\palmtree.math.core.implements\palmtree.math.core.implements\pmc_internal.h

; 502  :     return (_addcarry_u32(carry, u, v, w));

	adc	ecx, DWORD PTR [r8+20]
	mov	DWORD PTR [rax+20], ecx
; File z:\sources\lunor\repos\rougemeilland\palmtree.math.core.implements\palmtree.math.core.implements\autogenerated_inline_func.h

; 2641 :     c = _ADD_UNIT_DIV(c, xp[6], yp[6], &zp[6]);

	mov	ecx, DWORD PTR [rax+24]
; File z:\sources\lunor\repos\rougemeilland\palmtree.math.core.implements\palmtree.math.core.implements\pmc_internal.h

; 502  :     return (_addcarry_u32(carry, u, v, w));

	adc	ecx, DWORD PTR [r8+24]
	mov	DWORD PTR [rax+24], ecx
; File z:\sources\lunor\repos\rougemeilland\palmtree.math.core.implements\palmtree.math.core.implements\autogenerated_inline_func.h

; 2642 :     c = _ADD_UNIT_DIV(c, xp[7], yp[7], &zp[7]);

	mov	ecx, DWORD PTR [rax+28]
; File z:\sources\lunor\repos\rougemeilland\palmtree.math.core.implements\palmtree.math.core.implements\pmc_internal.h

; 502  :     return (_addcarry_u32(carry, u, v, w));

	adc	ecx, DWORD PTR [r8+28]
	mov	DWORD PTR [rax+28], ecx
; File z:\sources\lunor\repos\rougemeilland\palmtree.math.core.implements\palmtree.math.core.implements\autogenerated_inline_func.h

; 2643 :     c = _ADD_UNIT_DIV(c, xp[8], yp[8], &zp[8]);

	mov	ecx, DWORD PTR [rax+32]
; File z:\sources\lunor\repos\rougemeilland\palmtree.math.core.implements\palmtree.math.core.implements\pmc_internal.h

; 502  :     return (_addcarry_u32(carry, u, v, w));

	adc	ecx, DWORD PTR [r8+32]
	mov	DWORD PTR [rax+32], ecx
; File z:\sources\lunor\repos\rougemeilland\palmtree.math.core.implements\palmtree.math.core.implements\autogenerated_inline_func.h

; 2644 :     c = _ADD_UNIT_DIV(c, xp[9], yp[9], &zp[9]);

	mov	ecx, DWORD PTR [rax+36]
; File z:\sources\lunor\repos\rougemeilland\palmtree.math.core.implements\palmtree.math.core.implements\pmc_internal.h

; 502  :     return (_addcarry_u32(carry, u, v, w));

	adc	ecx, DWORD PTR [r8+36]
	mov	DWORD PTR [rax+36], ecx
; File z:\sources\lunor\repos\rougemeilland\palmtree.math.core.implements\palmtree.math.core.implements\autogenerated_inline_func.h

; 2645 :     c = _ADD_UNIT_DIV(c, xp[10], yp[10], &zp[10]);

	mov	ecx, DWORD PTR [rax+40]
; File z:\sources\lunor\repos\rougemeilland\palmtree.math.core.implements\palmtree.math.core.implements\pmc_internal.h

; 502  :     return (_addcarry_u32(carry, u, v, w));

	adc	ecx, DWORD PTR [r8+40]
	mov	DWORD PTR [rax+40], ecx
; File z:\sources\lunor\repos\rougemeilland\palmtree.math.core.implements\palmtree.math.core.implements\autogenerated_inline_func.h

; 2646 :     c = _ADD_UNIT_DIV(c, xp[11], yp[11], &zp[11]);

	mov	ecx, DWORD PTR [rax+44]
; File z:\sources\lunor\repos\rougemeilland\palmtree.math.core.implements\palmtree.math.core.implements\pmc_internal.h

; 502  :     return (_addcarry_u32(carry, u, v, w));

	adc	ecx, DWORD PTR [r8+44]
	mov	DWORD PTR [rax+44], ecx
; File z:\sources\lunor\repos\rougemeilland\palmtree.math.core.implements\palmtree.math.core.implements\autogenerated_inline_func.h

; 2647 :     c = _ADD_UNIT_DIV(c, xp[12], yp[12], &zp[12]);

	mov	ecx, DWORD PTR [rax+48]
; File z:\sources\lunor\repos\rougemeilland\palmtree.math.core.implements\palmtree.math.core.implements\pmc_internal.h

; 502  :     return (_addcarry_u32(carry, u, v, w));

	adc	ecx, DWORD PTR [r8+48]
	mov	DWORD PTR [rax+48], ecx
; File z:\sources\lunor\repos\rougemeilland\palmtree.math.core.implements\palmtree.math.core.implements\autogenerated_inline_func.h

; 2648 :     c = _ADD_UNIT_DIV(c, xp[13], yp[13], &zp[13]);

	mov	ecx, DWORD PTR [rax+52]
; File z:\sources\lunor\repos\rougemeilland\palmtree.math.core.implements\palmtree.math.core.implements\pmc_internal.h

; 502  :     return (_addcarry_u32(carry, u, v, w));

	adc	ecx, DWORD PTR [r8+52]
	mov	DWORD PTR [rax+52], ecx
; File z:\sources\lunor\repos\rougemeilland\palmtree.math.core.implements\palmtree.math.core.implements\autogenerated_inline_func.h

; 2649 :     c = _ADD_UNIT_DIV(c, xp[14], yp[14], &zp[14]);

	mov	ecx, DWORD PTR [rax+56]
; File z:\sources\lunor\repos\rougemeilland\palmtree.math.core.implements\palmtree.math.core.implements\pmc_internal.h

; 502  :     return (_addcarry_u32(carry, u, v, w));

	adc	ecx, DWORD PTR [r8+56]
	mov	DWORD PTR [rax+56], ecx
; File z:\sources\lunor\repos\rougemeilland\palmtree.math.core.implements\palmtree.math.core.implements\autogenerated_inline_func.h

; 2650 :     c = _ADD_UNIT_DIV(c, xp[15], yp[15], &zp[15]);

	mov	ecx, DWORD PTR [rax+60]
; File z:\sources\lunor\repos\rougemeilland\palmtree.math.core.implements\palmtree.math.core.implements\pmc_internal.h

; 502  :     return (_addcarry_u32(carry, u, v, w));

	adc	ecx, DWORD PTR [r8+60]
	mov	DWORD PTR [rax+60], ecx
	setb	r10b
; File z:\sources\lunor\repos\rougemeilland\palmtree.math.core.implements\palmtree.math.core.implements\pmc_divrem.c

; 807  :         u_ptr += 16;

	add	rax, 64					; 00000040H

; 808  :         v_ptr += 16;

	add	r8, 64					; 00000040H
$LN4@AddOneLine:

; 809  :     }
; 810  :     // この時点で未処理の桁は 16 ワード未満のはず
; 811  : 
; 812  :     // 未処理の桁が 8 ワード以上あるなら 8 ワード加算を行う。
; 813  :     if (v_count & 0x8)

	test	r9b, 8
	je	SHORT $LN5@AddOneLine
; File z:\sources\lunor\repos\rougemeilland\palmtree.math.core.implements\palmtree.math.core.implements\autogenerated_inline_func.h

; 3539 :     c = _ADD_UNIT_DIV(c, xp[0], yp[0], &zp[0]);

	mov	ecx, DWORD PTR [rax]
; File z:\sources\lunor\repos\rougemeilland\palmtree.math.core.implements\palmtree.math.core.implements\pmc_internal.h

; 502  :     return (_addcarry_u32(carry, u, v, w));

	add	r10b, -1
	adc	ecx, DWORD PTR [r8]
	mov	DWORD PTR [rax], ecx
; File z:\sources\lunor\repos\rougemeilland\palmtree.math.core.implements\palmtree.math.core.implements\autogenerated_inline_func.h

; 3540 :     c = _ADD_UNIT_DIV(c, xp[1], yp[1], &zp[1]);

	mov	ecx, DWORD PTR [rax+4]
; File z:\sources\lunor\repos\rougemeilland\palmtree.math.core.implements\palmtree.math.core.implements\pmc_internal.h

; 502  :     return (_addcarry_u32(carry, u, v, w));

	adc	ecx, DWORD PTR [r8+4]
	mov	DWORD PTR [rax+4], ecx
; File z:\sources\lunor\repos\rougemeilland\palmtree.math.core.implements\palmtree.math.core.implements\autogenerated_inline_func.h

; 3541 :     c = _ADD_UNIT_DIV(c, xp[2], yp[2], &zp[2]);

	mov	ecx, DWORD PTR [rax+8]
; File z:\sources\lunor\repos\rougemeilland\palmtree.math.core.implements\palmtree.math.core.implements\pmc_internal.h

; 502  :     return (_addcarry_u32(carry, u, v, w));

	adc	ecx, DWORD PTR [r8+8]
	mov	DWORD PTR [rax+8], ecx
; File z:\sources\lunor\repos\rougemeilland\palmtree.math.core.implements\palmtree.math.core.implements\autogenerated_inline_func.h

; 3542 :     c = _ADD_UNIT_DIV(c, xp[3], yp[3], &zp[3]);

	mov	ecx, DWORD PTR [rax+12]
; File z:\sources\lunor\repos\rougemeilland\palmtree.math.core.implements\palmtree.math.core.implements\pmc_internal.h

; 502  :     return (_addcarry_u32(carry, u, v, w));

	adc	ecx, DWORD PTR [r8+12]
	mov	DWORD PTR [rax+12], ecx
; File z:\sources\lunor\repos\rougemeilland\palmtree.math.core.implements\palmtree.math.core.implements\autogenerated_inline_func.h

; 3543 :     c = _ADD_UNIT_DIV(c, xp[4], yp[4], &zp[4]);

	mov	ecx, DWORD PTR [rax+16]
; File z:\sources\lunor\repos\rougemeilland\palmtree.math.core.implements\palmtree.math.core.implements\pmc_internal.h

; 502  :     return (_addcarry_u32(carry, u, v, w));

	adc	ecx, DWORD PTR [r8+16]
	mov	DWORD PTR [rax+16], ecx
; File z:\sources\lunor\repos\rougemeilland\palmtree.math.core.implements\palmtree.math.core.implements\autogenerated_inline_func.h

; 3544 :     c = _ADD_UNIT_DIV(c, xp[5], yp[5], &zp[5]);

	mov	ecx, DWORD PTR [rax+20]
; File z:\sources\lunor\repos\rougemeilland\palmtree.math.core.implements\palmtree.math.core.implements\pmc_internal.h

; 502  :     return (_addcarry_u32(carry, u, v, w));

	adc	ecx, DWORD PTR [r8+20]
	mov	DWORD PTR [rax+20], ecx
; File z:\sources\lunor\repos\rougemeilland\palmtree.math.core.implements\palmtree.math.core.implements\autogenerated_inline_func.h

; 3545 :     c = _ADD_UNIT_DIV(c, xp[6], yp[6], &zp[6]);

	mov	ecx, DWORD PTR [rax+24]
; File z:\sources\lunor\repos\rougemeilland\palmtree.math.core.implements\palmtree.math.core.implements\pmc_internal.h

; 502  :     return (_addcarry_u32(carry, u, v, w));

	adc	ecx, DWORD PTR [r8+24]
	mov	DWORD PTR [rax+24], ecx
; File z:\sources\lunor\repos\rougemeilland\palmtree.math.core.implements\palmtree.math.core.implements\autogenerated_inline_func.h

; 3546 :     c = _ADD_UNIT_DIV(c, xp[7], yp[7], &zp[7]);

	mov	ecx, DWORD PTR [rax+28]
; File z:\sources\lunor\repos\rougemeilland\palmtree.math.core.implements\palmtree.math.core.implements\pmc_internal.h

; 502  :     return (_addcarry_u32(carry, u, v, w));

	adc	ecx, DWORD PTR [r8+28]
	mov	DWORD PTR [rax+28], ecx
	setb	r10b
; File z:\sources\lunor\repos\rougemeilland\palmtree.math.core.implements\palmtree.math.core.implements\pmc_divrem.c

; 816  :         u_ptr += 8;

	add	rax, 32					; 00000020H

; 817  :         v_ptr += 8;

	add	r8, 32					; 00000020H
$LN5@AddOneLine:

; 818  :     }
; 819  :     // この時点で未処理の桁は 8 ワード未満のはず
; 820  : 
; 821  :     // 未処理の桁が 4 ワード以上あるなら 4 ワード加算を行う。
; 822  :     if (v_count & 0x4)

	test	r9b, 4
	je	SHORT $LN6@AddOneLine
; File z:\sources\lunor\repos\rougemeilland\palmtree.math.core.implements\palmtree.math.core.implements\autogenerated_inline_func.h

; 4107 :     c = _ADD_UNIT_DIV(c, xp[0], yp[0], &zp[0]);

	mov	ecx, DWORD PTR [rax]
; File z:\sources\lunor\repos\rougemeilland\palmtree.math.core.implements\palmtree.math.core.implements\pmc_internal.h

; 502  :     return (_addcarry_u32(carry, u, v, w));

	add	r10b, -1
	adc	ecx, DWORD PTR [r8]
	mov	DWORD PTR [rax], ecx
; File z:\sources\lunor\repos\rougemeilland\palmtree.math.core.implements\palmtree.math.core.implements\autogenerated_inline_func.h

; 4108 :     c = _ADD_UNIT_DIV(c, xp[1], yp[1], &zp[1]);

	mov	ecx, DWORD PTR [rax+4]
; File z:\sources\lunor\repos\rougemeilland\palmtree.math.core.implements\palmtree.math.core.implements\pmc_internal.h

; 502  :     return (_addcarry_u32(carry, u, v, w));

	adc	ecx, DWORD PTR [r8+4]
	mov	DWORD PTR [rax+4], ecx
; File z:\sources\lunor\repos\rougemeilland\palmtree.math.core.implements\palmtree.math.core.implements\autogenerated_inline_func.h

; 4109 :     c = _ADD_UNIT_DIV(c, xp[2], yp[2], &zp[2]);

	mov	ecx, DWORD PTR [rax+8]
; File z:\sources\lunor\repos\rougemeilland\palmtree.math.core.implements\palmtree.math.core.implements\pmc_internal.h

; 502  :     return (_addcarry_u32(carry, u, v, w));

	adc	ecx, DWORD PTR [r8+8]
	mov	DWORD PTR [rax+8], ecx
; File z:\sources\lunor\repos\rougemeilland\palmtree.math.core.implements\palmtree.math.core.implements\autogenerated_inline_func.h

; 4110 :     c = _ADD_UNIT_DIV(c, xp[3], yp[3], &zp[3]);

	mov	ecx, DWORD PTR [rax+12]
; File z:\sources\lunor\repos\rougemeilland\palmtree.math.core.implements\palmtree.math.core.implements\pmc_internal.h

; 502  :     return (_addcarry_u32(carry, u, v, w));

	adc	ecx, DWORD PTR [r8+12]
	mov	DWORD PTR [rax+12], ecx
	setb	r10b
; File z:\sources\lunor\repos\rougemeilland\palmtree.math.core.implements\palmtree.math.core.implements\pmc_divrem.c

; 825  :         u_ptr += 4;

	add	rax, 16

; 826  :         v_ptr += 4;

	add	r8, 16
$LN6@AddOneLine:

; 827  :     }
; 828  :     // この時点で未処理の桁は 4 ワード未満のはず
; 829  : 
; 830  :     // 未処理の桁が 2 ワード以上あるなら 2 ワード加算を行う。
; 831  :     if (v_count & 0x2)

	test	r9b, 2
	je	SHORT $LN7@AddOneLine
; File z:\sources\lunor\repos\rougemeilland\palmtree.math.core.implements\palmtree.math.core.implements\autogenerated_inline_func.h

; 4507 :     c = _ADD_UNIT_DIV(c, xp[0], yp[0], &zp[0]);

	mov	ecx, DWORD PTR [rax]
; File z:\sources\lunor\repos\rougemeilland\palmtree.math.core.implements\palmtree.math.core.implements\pmc_internal.h

; 502  :     return (_addcarry_u32(carry, u, v, w));

	add	r10b, -1
	adc	ecx, DWORD PTR [r8]
	mov	DWORD PTR [rax], ecx
; File z:\sources\lunor\repos\rougemeilland\palmtree.math.core.implements\palmtree.math.core.implements\autogenerated_inline_func.h

; 4508 :     c = _ADD_UNIT_DIV(c, xp[1], yp[1], &zp[1]);

	mov	ecx, DWORD PTR [rax+4]
; File z:\sources\lunor\repos\rougemeilland\palmtree.math.core.implements\palmtree.math.core.implements\pmc_internal.h

; 502  :     return (_addcarry_u32(carry, u, v, w));

	adc	ecx, DWORD PTR [r8+4]
	mov	DWORD PTR [rax+4], ecx
	setb	r10b
; File z:\sources\lunor\repos\rougemeilland\palmtree.math.core.implements\palmtree.math.core.implements\pmc_divrem.c

; 834  :         u_ptr += 2;

	add	rax, 8

; 835  :         v_ptr += 2;

	add	r8, 8
$LN7@AddOneLine:

; 836  :     }
; 837  :     // この時点で未処理の桁は 2 ワード未満のはず
; 838  : 
; 839  :     // 未処理の桁が 1 ワード以上あるなら 1 ワード加算を行う。
; 840  :     if (v_count & 0x1)

	test	r9b, 1
	je	SHORT $LN8@AddOneLine

; 841  :     {
; 842  :         c = _ADD_UNIT_DIV(c, *u_ptr, *v_ptr, u_ptr);

	mov	ecx, DWORD PTR [rax]
; File z:\sources\lunor\repos\rougemeilland\palmtree.math.core.implements\palmtree.math.core.implements\pmc_internal.h

; 502  :     return (_addcarry_u32(carry, u, v, w));

	add	r10b, -1
	adc	ecx, DWORD PTR [r8]
	mov	DWORD PTR [rax], ecx
	setb	r10b
; File z:\sources\lunor\repos\rougemeilland\palmtree.math.core.implements\palmtree.math.core.implements\pmc_divrem.c

; 843  :         ++u_ptr;

	add	rax, 4
$LN8@AddOneLine:

; 844  :         ++v_ptr;
; 845  :     }
; 846  : 
; 847  :     // 残りの桁の繰り上がりを計算する。
; 848  :     DoCarry(c, u_ptr, u_buf + u_buf_len + 1 - u_ptr);

	lea	rdx, QWORD PTR [rdx*4+4]
	sub	rdx, rax
	add	rdx, rbx
	sar	rdx, 2

; 761  :         if (u_count <= 0)

	test	rdx, rdx
	je	SHORT $LN165@AddOneLine
$LL147@AddOneLine:

; 762  :         {
; 763  :             // u の最上位まで達してしまった場合
; 764  :             return;
; 765  :         }
; 766  :         else if (c)

	test	r10b, r10b
	je	SHORT $LN165@AddOneLine

; 767  :         {
; 768  :             // u の最上位に達しておらず、かつキャリーが立っている場合
; 769  : 
; 770  :             // 繰り上がりを継続する
; 771  :             c = _ADD_UNIT_DIV(c, *u_ptr, 0, u_ptr);

	mov	ecx, DWORD PTR [rax]
; File z:\sources\lunor\repos\rougemeilland\palmtree.math.core.implements\palmtree.math.core.implements\pmc_internal.h

; 502  :     return (_addcarry_u32(carry, u, v, w));

	add	r10b, -1
	adc	ecx, 0
	mov	DWORD PTR [rax], ecx
	setb	r10b
; File z:\sources\lunor\repos\rougemeilland\palmtree.math.core.implements\palmtree.math.core.implements\pmc_divrem.c

; 772  :             ++u_ptr;

	add	rax, 4

; 773  :             --u_count;

	sub	rdx, 1
	jne	SHORT $LL147@AddOneLine
$LN165@AddOneLine:

; 849  : }

	mov	rbx, QWORD PTR [rsp+8]
	ret	0
AddOneLine ENDP
_TEXT	ENDS
; Function compile flags: /Ogtpy
; File z:\sources\lunor\repos\rougemeilland\palmtree.math.core.implements\palmtree.math.core.implements\pmc_divrem.c
; File z:\sources\lunor\repos\rougemeilland\palmtree.math.core.implements\palmtree.math.core.implements\pmc_internal.h
; File z:\sources\lunor\repos\rougemeilland\palmtree.math.core.implements\palmtree.math.core.implements\pmc_divrem.c
;	COMDAT DoCarry
_TEXT	SEGMENT
c$ = 8
u_ptr$ = 16
u_count$ = 24
DoCarry	PROC						; COMDAT

; 758  :     // 繰り上がりを続く限り行う
; 759  :     for (;;)
; 760  :     {
; 761  :         if (u_count <= 0)

	test	r8, r8
	je	SHORT $LN13@DoCarry
$LL2@DoCarry:

; 762  :         {
; 763  :             // u の最上位まで達してしまった場合
; 764  :             return;
; 765  :         }
; 766  :         else if (c)

	test	cl, cl
	je	SHORT $LN13@DoCarry

; 767  :         {
; 768  :             // u の最上位に達しておらず、かつキャリーが立っている場合
; 769  : 
; 770  :             // 繰り上がりを継続する
; 771  :             c = _ADD_UNIT_DIV(c, *u_ptr, 0, u_ptr);

	mov	eax, DWORD PTR [rdx]
; File z:\sources\lunor\repos\rougemeilland\palmtree.math.core.implements\palmtree.math.core.implements\pmc_internal.h

; 502  :     return (_addcarry_u32(carry, u, v, w));

	add	cl, -1
	adc	eax, 0
	mov	DWORD PTR [rdx], eax
	setb	cl
; File z:\sources\lunor\repos\rougemeilland\palmtree.math.core.implements\palmtree.math.core.implements\pmc_divrem.c

; 772  :             ++u_ptr;

	add	rdx, 4

; 773  :             --u_count;

	sub	r8, 1
	jne	SHORT $LL2@DoCarry
$LN13@DoCarry:

; 774  :         }
; 775  :         else
; 776  :         {
; 777  :             // u の最上位に達しておらず、かつキャリーが立っていない場合
; 778  : 
; 779  :             // 繰り上がりを中断し、復帰する。
; 780  :             return;
; 781  :         }
; 782  :     }
; 783  : }

	ret	0
DoCarry	ENDP
_TEXT	ENDS
; Function compile flags: /Ogtpy
; File z:\sources\lunor\repos\rougemeilland\palmtree.math.core.implements\palmtree.math.core.implements\pmc_divrem.c
; File z:\sources\lunor\repos\rougemeilland\palmtree.math.core.implements\palmtree.math.core.implements\pmc_internal.h
; File z:\sources\lunor\repos\rougemeilland\palmtree.math.core.implements\palmtree.math.core.implements\pmc_divrem.c
; File z:\sources\lunor\repos\rougemeilland\palmtree.math.core.implements\palmtree.math.core.implements\pmc_internal.h
; File z:\sources\lunor\repos\rougemeilland\palmtree.math.core.implements\palmtree.math.core.implements\pmc_divrem.c
; File z:\sources\lunor\repos\rougemeilland\palmtree.math.core.implements\palmtree.math.core.implements\pmc_internal.h
; File z:\sources\lunor\repos\rougemeilland\palmtree.math.core.implements\palmtree.math.core.implements\pmc_divrem.c
; File z:\sources\lunor\repos\rougemeilland\palmtree.math.core.implements\palmtree.math.core.implements\pmc_internal.h
; File z:\sources\lunor\repos\rougemeilland\palmtree.math.core.implements\palmtree.math.core.implements\pmc_divrem.c
; File z:\sources\lunor\repos\rougemeilland\palmtree.math.core.implements\palmtree.math.core.implements\pmc_internal.h
; File z:\sources\lunor\repos\rougemeilland\palmtree.math.core.implements\palmtree.math.core.implements\pmc_divrem.c
; File z:\sources\lunor\repos\rougemeilland\palmtree.math.core.implements\palmtree.math.core.implements\pmc_internal.h
; File z:\sources\lunor\repos\rougemeilland\palmtree.math.core.implements\palmtree.math.core.implements\pmc_divrem.c
; File z:\sources\lunor\repos\rougemeilland\palmtree.math.core.implements\palmtree.math.core.implements\pmc_internal.h
; File z:\sources\lunor\repos\rougemeilland\palmtree.math.core.implements\palmtree.math.core.implements\pmc_divrem.c
; File z:\sources\lunor\repos\rougemeilland\palmtree.math.core.implements\palmtree.math.core.implements\pmc_internal.h
; File z:\sources\lunor\repos\rougemeilland\palmtree.math.core.implements\palmtree.math.core.implements\pmc_divrem.c
; File z:\sources\lunor\repos\rougemeilland\palmtree.math.core.implements\palmtree.math.core.implements\pmc_internal.h
; File z:\sources\lunor\repos\rougemeilland\palmtree.math.core.implements\palmtree.math.core.implements\pmc_divrem.c
; File z:\sources\lunor\repos\rougemeilland\palmtree.math.core.implements\palmtree.math.core.implements\pmc_internal.h
; File z:\sources\lunor\repos\rougemeilland\palmtree.math.core.implements\palmtree.math.core.implements\pmc_divrem.c
; File z:\sources\lunor\repos\rougemeilland\palmtree.math.core.implements\palmtree.math.core.implements\pmc_internal.h
; File z:\sources\lunor\repos\rougemeilland\palmtree.math.core.implements\palmtree.math.core.implements\pmc_divrem.c
; File z:\sources\lunor\repos\rougemeilland\palmtree.math.core.implements\palmtree.math.core.implements\pmc_internal.h
; File z:\sources\lunor\repos\rougemeilland\palmtree.math.core.implements\palmtree.math.core.implements\pmc_divrem.c
; File z:\sources\lunor\repos\rougemeilland\palmtree.math.core.implements\palmtree.math.core.implements\pmc_internal.h
; File z:\sources\lunor\repos\rougemeilland\palmtree.math.core.implements\palmtree.math.core.implements\pmc_divrem.c
; File z:\sources\lunor\repos\rougemeilland\palmtree.math.core.implements\palmtree.math.core.implements\pmc_internal.h
; File z:\sources\lunor\repos\rougemeilland\palmtree.math.core.implements\palmtree.math.core.implements\pmc_divrem.c
; File z:\sources\lunor\repos\rougemeilland\palmtree.math.core.implements\palmtree.math.core.implements\pmc_internal.h
; File z:\sources\lunor\repos\rougemeilland\palmtree.math.core.implements\palmtree.math.core.implements\pmc_divrem.c
; File z:\sources\lunor\repos\rougemeilland\palmtree.math.core.implements\palmtree.math.core.implements\pmc_internal.h
; File z:\sources\lunor\repos\rougemeilland\palmtree.math.core.implements\palmtree.math.core.implements\pmc_divrem.c
; File z:\sources\lunor\repos\rougemeilland\palmtree.math.core.implements\palmtree.math.core.implements\pmc_internal.h
; File z:\sources\lunor\repos\rougemeilland\palmtree.math.core.implements\palmtree.math.core.implements\pmc_divrem.c
; File z:\sources\lunor\repos\rougemeilland\palmtree.math.core.implements\palmtree.math.core.implements\pmc_internal.h
; File z:\sources\lunor\repos\rougemeilland\palmtree.math.core.implements\palmtree.math.core.implements\pmc_divrem.c
; File z:\sources\lunor\repos\rougemeilland\palmtree.math.core.implements\palmtree.math.core.implements\pmc_internal.h
; File z:\sources\lunor\repos\rougemeilland\palmtree.math.core.implements\palmtree.math.core.implements\pmc_divrem.c
; File z:\sources\lunor\repos\rougemeilland\palmtree.math.core.implements\palmtree.math.core.implements\pmc_internal.h
; File z:\sources\lunor\repos\rougemeilland\palmtree.math.core.implements\palmtree.math.core.implements\pmc_divrem.c
; File z:\sources\lunor\repos\rougemeilland\palmtree.math.core.implements\palmtree.math.core.implements\pmc_internal.h
; File z:\sources\lunor\repos\rougemeilland\palmtree.math.core.implements\palmtree.math.core.implements\pmc_divrem.c
; File z:\sources\lunor\repos\rougemeilland\palmtree.math.core.implements\palmtree.math.core.implements\pmc_internal.h
; File z:\sources\lunor\repos\rougemeilland\palmtree.math.core.implements\palmtree.math.core.implements\pmc_divrem.c
; File z:\sources\lunor\repos\rougemeilland\palmtree.math.core.implements\palmtree.math.core.implements\pmc_internal.h
; File z:\sources\lunor\repos\rougemeilland\palmtree.math.core.implements\palmtree.math.core.implements\pmc_divrem.c
; File z:\sources\lunor\repos\rougemeilland\palmtree.math.core.implements\palmtree.math.core.implements\pmc_internal.h
; File z:\sources\lunor\repos\rougemeilland\palmtree.math.core.implements\palmtree.math.core.implements\pmc_divrem.c
; File z:\sources\lunor\repos\rougemeilland\palmtree.math.core.implements\palmtree.math.core.implements\pmc_internal.h
; File z:\sources\lunor\repos\rougemeilland\palmtree.math.core.implements\palmtree.math.core.implements\pmc_divrem.c
; File z:\sources\lunor\repos\rougemeilland\palmtree.math.core.implements\palmtree.math.core.implements\pmc_internal.h
; File z:\sources\lunor\repos\rougemeilland\palmtree.math.core.implements\palmtree.math.core.implements\pmc_divrem.c
; File z:\sources\lunor\repos\rougemeilland\palmtree.math.core.implements\palmtree.math.core.implements\pmc_internal.h
; File z:\sources\lunor\repos\rougemeilland\palmtree.math.core.implements\palmtree.math.core.implements\pmc_divrem.c
; File z:\sources\lunor\repos\rougemeilland\palmtree.math.core.implements\palmtree.math.core.implements\pmc_internal.h
; File z:\sources\lunor\repos\rougemeilland\palmtree.math.core.implements\palmtree.math.core.implements\pmc_divrem.c
; File z:\sources\lunor\repos\rougemeilland\palmtree.math.core.implements\palmtree.math.core.implements\pmc_internal.h
; File z:\sources\lunor\repos\rougemeilland\palmtree.math.core.implements\palmtree.math.core.implements\pmc_divrem.c
; File z:\sources\lunor\repos\rougemeilland\palmtree.math.core.implements\palmtree.math.core.implements\pmc_internal.h
; File z:\sources\lunor\repos\rougemeilland\palmtree.math.core.implements\palmtree.math.core.implements\pmc_divrem.c
; File z:\sources\lunor\repos\rougemeilland\palmtree.math.core.implements\palmtree.math.core.implements\pmc_internal.h
; File z:\sources\lunor\repos\rougemeilland\palmtree.math.core.implements\palmtree.math.core.implements\pmc_divrem.c
; File z:\sources\lunor\repos\rougemeilland\palmtree.math.core.implements\palmtree.math.core.implements\pmc_internal.h
; File z:\sources\lunor\repos\rougemeilland\palmtree.math.core.implements\palmtree.math.core.implements\pmc_divrem.c
; File z:\sources\lunor\repos\rougemeilland\palmtree.math.core.implements\palmtree.math.core.implements\pmc_internal.h
; File z:\sources\lunor\repos\rougemeilland\palmtree.math.core.implements\palmtree.math.core.implements\pmc_divrem.c
; File z:\sources\lunor\repos\rougemeilland\palmtree.math.core.implements\palmtree.math.core.implements\pmc_internal.h
; File z:\sources\lunor\repos\rougemeilland\palmtree.math.core.implements\palmtree.math.core.implements\pmc_divrem.c
; File z:\sources\lunor\repos\rougemeilland\palmtree.math.core.implements\palmtree.math.core.implements\pmc_internal.h
; File z:\sources\lunor\repos\rougemeilland\palmtree.math.core.implements\palmtree.math.core.implements\pmc_divrem.c
; File z:\sources\lunor\repos\rougemeilland\palmtree.math.core.implements\palmtree.math.core.implements\pmc_internal.h
; File z:\sources\lunor\repos\rougemeilland\palmtree.math.core.implements\palmtree.math.core.implements\pmc_divrem.c
; File z:\sources\lunor\repos\rougemeilland\palmtree.math.core.implements\palmtree.math.core.implements\pmc_internal.h
; File z:\sources\lunor\repos\rougemeilland\palmtree.math.core.implements\palmtree.math.core.implements\pmc_divrem.c
; File z:\sources\lunor\repos\rougemeilland\palmtree.math.core.implements\palmtree.math.core.implements\pmc_internal.h
; File z:\sources\lunor\repos\rougemeilland\palmtree.math.core.implements\palmtree.math.core.implements\pmc_divrem.c
; File z:\sources\lunor\repos\rougemeilland\palmtree.math.core.implements\palmtree.math.core.implements\pmc_internal.h
; File z:\sources\lunor\repos\rougemeilland\palmtree.math.core.implements\palmtree.math.core.implements\pmc_divrem.c
; File z:\sources\lunor\repos\rougemeilland\palmtree.math.core.implements\palmtree.math.core.implements\pmc_internal.h
; File z:\sources\lunor\repos\rougemeilland\palmtree.math.core.implements\palmtree.math.core.implements\pmc_divrem.c
; File z:\sources\lunor\repos\rougemeilland\palmtree.math.core.implements\palmtree.math.core.implements\pmc_internal.h
; File z:\sources\lunor\repos\rougemeilland\palmtree.math.core.implements\palmtree.math.core.implements\pmc_divrem.c
; File z:\sources\lunor\repos\rougemeilland\palmtree.math.core.implements\palmtree.math.core.implements\pmc_internal.h
; File z:\sources\lunor\repos\rougemeilland\palmtree.math.core.implements\palmtree.math.core.implements\pmc_divrem.c
; File z:\sources\lunor\repos\rougemeilland\palmtree.math.core.implements\palmtree.math.core.implements\pmc_internal.h
; File z:\sources\lunor\repos\rougemeilland\palmtree.math.core.implements\palmtree.math.core.implements\pmc_divrem.c
; File z:\sources\lunor\repos\rougemeilland\palmtree.math.core.implements\palmtree.math.core.implements\pmc_internal.h
; File z:\sources\lunor\repos\rougemeilland\palmtree.math.core.implements\palmtree.math.core.implements\pmc_divrem.c
; File z:\sources\lunor\repos\rougemeilland\palmtree.math.core.implements\palmtree.math.core.implements\pmc_internal.h
; File z:\sources\lunor\repos\rougemeilland\palmtree.math.core.implements\palmtree.math.core.implements\pmc_divrem.c
; File z:\sources\lunor\repos\rougemeilland\palmtree.math.core.implements\palmtree.math.core.implements\pmc_internal.h
; File z:\sources\lunor\repos\rougemeilland\palmtree.math.core.implements\palmtree.math.core.implements\pmc_divrem.c
; File z:\sources\lunor\repos\rougemeilland\palmtree.math.core.implements\palmtree.math.core.implements\pmc_internal.h
; File z:\sources\lunor\repos\rougemeilland\palmtree.math.core.implements\palmtree.math.core.implements\pmc_divrem.c
; File z:\sources\lunor\repos\rougemeilland\palmtree.math.core.implements\palmtree.math.core.implements\pmc_internal.h
; File z:\sources\lunor\repos\rougemeilland\palmtree.math.core.implements\palmtree.math.core.implements\pmc_divrem.c
; File z:\sources\lunor\repos\rougemeilland\palmtree.math.core.implements\palmtree.math.core.implements\pmc_internal.h
; File z:\sources\lunor\repos\rougemeilland\palmtree.math.core.implements\palmtree.math.core.implements\pmc_divrem.c
; File z:\sources\lunor\repos\rougemeilland\palmtree.math.core.implements\palmtree.math.core.implements\pmc_internal.h
; File z:\sources\lunor\repos\rougemeilland\palmtree.math.core.implements\palmtree.math.core.implements\pmc_divrem.c
; File z:\sources\lunor\repos\rougemeilland\palmtree.math.core.implements\palmtree.math.core.implements\pmc_internal.h
; File z:\sources\lunor\repos\rougemeilland\palmtree.math.core.implements\palmtree.math.core.implements\pmc_divrem.c
; File z:\sources\lunor\repos\rougemeilland\palmtree.math.core.implements\palmtree.math.core.implements\pmc_internal.h
; File z:\sources\lunor\repos\rougemeilland\palmtree.math.core.implements\palmtree.math.core.implements\pmc_divrem.c
; File z:\sources\lunor\repos\rougemeilland\palmtree.math.core.implements\palmtree.math.core.implements\pmc_internal.h
; File z:\sources\lunor\repos\rougemeilland\palmtree.math.core.implements\palmtree.math.core.implements\pmc_divrem.c
; File z:\sources\lunor\repos\rougemeilland\palmtree.math.core.implements\palmtree.math.core.implements\pmc_internal.h
; File z:\sources\lunor\repos\rougemeilland\palmtree.math.core.implements\palmtree.math.core.implements\pmc_divrem.c
; File z:\sources\lunor\repos\rougemeilland\palmtree.math.core.implements\palmtree.math.core.implements\pmc_internal.h
; File z:\sources\lunor\repos\rougemeilland\palmtree.math.core.implements\palmtree.math.core.implements\pmc_divrem.c
; File z:\sources\lunor\repos\rougemeilland\palmtree.math.core.implements\palmtree.math.core.implements\pmc_internal.h
; File z:\sources\lunor\repos\rougemeilland\palmtree.math.core.implements\palmtree.math.core.implements\pmc_divrem.c
; File z:\sources\lunor\repos\rougemeilland\palmtree.math.core.implements\palmtree.math.core.implements\pmc_internal.h
; File z:\sources\lunor\repos\rougemeilland\palmtree.math.core.implements\palmtree.math.core.implements\pmc_divrem.c
; File z:\sources\lunor\repos\rougemeilland\palmtree.math.core.implements\palmtree.math.core.implements\pmc_internal.h
; File z:\sources\lunor\repos\rougemeilland\palmtree.math.core.implements\palmtree.math.core.implements\pmc_divrem.c
; File z:\sources\lunor\repos\rougemeilland\palmtree.math.core.implements\palmtree.math.core.implements\pmc_internal.h
; File z:\sources\lunor\repos\rougemeilland\palmtree.math.core.implements\palmtree.math.core.implements\pmc_divrem.c
; File z:\sources\lunor\repos\rougemeilland\palmtree.math.core.implements\palmtree.math.core.implements\pmc_internal.h
; File z:\sources\lunor\repos\rougemeilland\palmtree.math.core.implements\palmtree.math.core.implements\pmc_divrem.c
; File z:\sources\lunor\repos\rougemeilland\palmtree.math.core.implements\palmtree.math.core.implements\pmc_internal.h
; File z:\sources\lunor\repos\rougemeilland\palmtree.math.core.implements\palmtree.math.core.implements\pmc_divrem.c
; File z:\sources\lunor\repos\rougemeilland\palmtree.math.core.implements\palmtree.math.core.implements\pmc_internal.h
; File z:\sources\lunor\repos\rougemeilland\palmtree.math.core.implements\palmtree.math.core.implements\pmc_divrem.c
; File z:\sources\lunor\repos\rougemeilland\palmtree.math.core.implements\palmtree.math.core.implements\pmc_internal.h
; File z:\sources\lunor\repos\rougemeilland\palmtree.math.core.implements\palmtree.math.core.implements\pmc_divrem.c
; File z:\sources\lunor\repos\rougemeilland\palmtree.math.core.implements\palmtree.math.core.implements\pmc_internal.h
; File z:\sources\lunor\repos\rougemeilland\palmtree.math.core.implements\palmtree.math.core.implements\pmc_divrem.c
; File z:\sources\lunor\repos\rougemeilland\palmtree.math.core.implements\palmtree.math.core.implements\pmc_internal.h
; File z:\sources\lunor\repos\rougemeilland\palmtree.math.core.implements\palmtree.math.core.implements\pmc_divrem.c
; File z:\sources\lunor\repos\rougemeilland\palmtree.math.core.implements\palmtree.math.core.implements\pmc_internal.h
; File z:\sources\lunor\repos\rougemeilland\palmtree.math.core.implements\palmtree.math.core.implements\pmc_divrem.c
; File z:\sources\lunor\repos\rougemeilland\palmtree.math.core.implements\palmtree.math.core.implements\pmc_internal.h
; File z:\sources\lunor\repos\rougemeilland\palmtree.math.core.implements\palmtree.math.core.implements\pmc_divrem.c
; File z:\sources\lunor\repos\rougemeilland\palmtree.math.core.implements\palmtree.math.core.implements\pmc_internal.h
; File z:\sources\lunor\repos\rougemeilland\palmtree.math.core.implements\palmtree.math.core.implements\pmc_divrem.c
; File z:\sources\lunor\repos\rougemeilland\palmtree.math.core.implements\palmtree.math.core.implements\pmc_internal.h
; File z:\sources\lunor\repos\rougemeilland\palmtree.math.core.implements\palmtree.math.core.implements\pmc_divrem.c
; File z:\sources\lunor\repos\rougemeilland\palmtree.math.core.implements\palmtree.math.core.implements\pmc_internal.h
; File z:\sources\lunor\repos\rougemeilland\palmtree.math.core.implements\palmtree.math.core.implements\pmc_divrem.c
; File z:\sources\lunor\repos\rougemeilland\palmtree.math.core.implements\palmtree.math.core.implements\pmc_internal.h
; File z:\sources\lunor\repos\rougemeilland\palmtree.math.core.implements\palmtree.math.core.implements\pmc_divrem.c
; File z:\sources\lunor\repos\rougemeilland\palmtree.math.core.implements\palmtree.math.core.implements\pmc_internal.h
; File z:\sources\lunor\repos\rougemeilland\palmtree.math.core.implements\palmtree.math.core.implements\pmc_divrem.c
; File z:\sources\lunor\repos\rougemeilland\palmtree.math.core.implements\palmtree.math.core.implements\pmc_internal.h
; File z:\sources\lunor\repos\rougemeilland\palmtree.math.core.implements\palmtree.math.core.implements\pmc_divrem.c
; File z:\sources\lunor\repos\rougemeilland\palmtree.math.core.implements\palmtree.math.core.implements\pmc_internal.h
; File z:\sources\lunor\repos\rougemeilland\palmtree.math.core.implements\palmtree.math.core.implements\pmc_divrem.c
; File z:\sources\lunor\repos\rougemeilland\palmtree.math.core.implements\palmtree.math.core.implements\pmc_internal.h
; File z:\sources\lunor\repos\rougemeilland\palmtree.math.core.implements\palmtree.math.core.implements\pmc_divrem.c
; File z:\sources\lunor\repos\rougemeilland\palmtree.math.core.implements\palmtree.math.core.implements\pmc_internal.h
; File z:\sources\lunor\repos\rougemeilland\palmtree.math.core.implements\palmtree.math.core.implements\pmc_divrem.c
; File z:\sources\lunor\repos\rougemeilland\palmtree.math.core.implements\palmtree.math.core.implements\pmc_internal.h
; File z:\sources\lunor\repos\rougemeilland\palmtree.math.core.implements\palmtree.math.core.implements\pmc_divrem.c
; File z:\sources\lunor\repos\rougemeilland\palmtree.math.core.implements\palmtree.math.core.implements\pmc_internal.h
; File z:\sources\lunor\repos\rougemeilland\palmtree.math.core.implements\palmtree.math.core.implements\pmc_divrem.c
; File z:\sources\lunor\repos\rougemeilland\palmtree.math.core.implements\palmtree.math.core.implements\pmc_internal.h
; File z:\sources\lunor\repos\rougemeilland\palmtree.math.core.implements\palmtree.math.core.implements\pmc_divrem.c
; File z:\sources\lunor\repos\rougemeilland\palmtree.math.core.implements\palmtree.math.core.implements\pmc_internal.h
; File z:\sources\lunor\repos\rougemeilland\palmtree.math.core.implements\palmtree.math.core.implements\pmc_divrem.c
; File z:\sources\lunor\repos\rougemeilland\palmtree.math.core.implements\palmtree.math.core.implements\pmc_internal.h
; File z:\sources\lunor\repos\rougemeilland\palmtree.math.core.implements\palmtree.math.core.implements\pmc_divrem.c
; File z:\sources\lunor\repos\rougemeilland\palmtree.math.core.implements\palmtree.math.core.implements\pmc_internal.h
; File z:\sources\lunor\repos\rougemeilland\palmtree.math.core.implements\palmtree.math.core.implements\pmc_divrem.c
;	COMDAT SubtructOneLineX
_TEXT	SEGMENT
t_lo$1 = 0
t_lo$2 = 4
t_lo$3 = 8
t_lo$4 = 12
t_lo$5 = 16
t_lo$6 = 20
t_lo$7 = 24
t_lo$8 = 28
t_lo$9 = 32
t_lo$10 = 36
t_lo$11 = 40
t_lo$12 = 44
t_lo$13 = 48
t_lo$14 = 52
t_lo$15 = 56
t_lo$16 = 60
t_lo$17 = 64
t_lo$18 = 68
t_lo$19 = 72
t_lo$20 = 76
t_lo$21 = 80
t_lo$22 = 84
t_lo$23 = 88
t_lo$24 = 92
t_hi$25 = 96
t_hi$26 = 100
t_hi$27 = 104
t_hi$28 = 108
t_hi$29 = 112
t_hi$30 = 116
t_hi$31 = 120
t_lo$32 = 124
t_hi$33 = 128
t_lo$34 = 132
t_hi$35 = 136
t_lo$36 = 140
t_hi$37 = 144
t_lo$38 = 148
t_hi$39 = 152
t_lo$40 = 156
t_hi$41 = 160
t_lo$42 = 164
t_hi$43 = 168
t_lo$44 = 172
t_hi$45 = 176
t_lo$46 = 180
t_hi$47 = 184
t_lo$48 = 188
t_hi$49 = 192
t_lo$50 = 196
t_hi$51 = 200
t_lo$52 = 204
t_hi$53 = 208
t_lo$54 = 212
t_hi$55 = 216
t_lo$56 = 220
t_hi$57 = 224
t_lo$58 = 228
t_hi$59 = 232
t_lo$60 = 236
t_hi$61 = 240
t_lo$62 = 244
t_hi$63 = 248
t_lo$64 = 252
t_hi$65 = 256
t_lo$66 = 260
t_hi$67 = 264
t_lo$68 = 268
t_hi$69 = 272
t_lo$70 = 276
t_hi$71 = 280
t_lo$72 = 284
t_hi$73 = 288
t_lo$74 = 292
t_hi$75 = 296
t_lo$76 = 300
t_hi$77 = 304
t_lo$78 = 308
t_hi$79 = 312
t_lo$80 = 316
t_hi$81 = 320
t_hi$82 = 324
t_hi$83 = 328
t_hi$84 = 332
t_hi$85 = 336
t_hi$86 = 340
t_hi$87 = 344
t_hi$88 = 348
t_lo$89 = 352
t_hi$90 = 356
t_lo$91 = 360
t_hi$92 = 364
t_lo$93 = 368
t_hi$94 = 372
t_lo$95 = 376
t_hi$96 = 380
t_lo$97 = 384
t_hi$98 = 388
t_lo$99 = 392
t_hi$100 = 396
t_lo$101 = 400
t_hi$102 = 404
t_lo$103 = 408
t_hi$104 = 412
t_lo$105 = 416
t_hi$106 = 420
t_hi$107 = 424
t_hi$108 = 428
t_hi$109 = 432
t_hi$110 = 436
t_hi$111 = 440
t_hi$112 = 444
t_hi$113 = 448
t_lo$114 = 452
t_hi$115 = 456
t_hi$116 = 460
t_hi$117 = 464
t_hi$118 = 468
t_hi$119 = 472
t_hi$120 = 476
t_hi$121 = 480
t_hi$122 = 484
t_lo$123 = 576
u_buf$ = 576
u_buf_len$ = 584
t_lo$124 = 592
v_buf$ = 592
t_lo$125 = 600
v_buf_len$ = 600
t_lo$126 = 608
q_index$ = 608
q_$ = 616
SubtructOneLineX PROC					; COMDAT

; 605  : {

	mov	QWORD PTR [rsp+16], rdx
	push	rbp
	push	rbx
	push	rsi
	push	rdi
	push	r12
	push	r13
	push	r14
	push	r15
	lea	rbp, QWORD PTR [rsp-248]
	sub	rsp, 504				; 000001f8H

; 606  :     __UNIT_TYPE_DIV* u_ptr = &u_buf[q_index];

	mov	rax, QWORD PTR q_index$[rbp-256]

; 607  :     __UNIT_TYPE_DIV* v_ptr = &v_buf[0];
; 608  :     __UNIT_TYPE v_count = v_buf_len;
; 609  :     __UNIT_TYPE_DIV k = 0;

	xor	edi, edi
	mov	esi, DWORD PTR q_$[rbp-256]

; 610  :     char c = 0;
; 611  : 
; 612  :     __UNIT_TYPE count = v_count >> 5;

	mov	r12, r9
	xor	r11b, r11b
	shr	r12, 5
	mov	r15, r9
	mov	rbx, r8
	lea	rax, QWORD PTR [rax*4]
	mov	r13, rcx
	add	rax, rcx
	mov	r14d, edi

; 613  :     while (count != 0)

	test	r12, r12
	je	$LN821@SubtructOn
	npad	7
$LL2@SubtructOn:
; File z:\sources\lunor\repos\rougemeilland\palmtree.math.core.implements\palmtree.math.core.implements\pmc_internal.h

; 640  :     return (_FROMDWORDTOWORD((_UINT64_T)u * v, w_hi));

	mov	edx, DWORD PTR [rbx]
; File z:\sources\lunor\repos\rougemeilland\palmtree.math.core.implements\palmtree.math.core.implements\pmc_divrem.c

; 447  :     c = _SUBTRUCT_UNIT_DIV(c, *up, t_lo, up);

	mov	ecx, DWORD PTR [rax]
; File z:\sources\lunor\repos\rougemeilland\palmtree.math.core.implements\palmtree.math.core.implements\pmc_internal.h

; 640  :     return (_FROMDWORDTOWORD((_UINT64_T)u * v, w_hi));

	imul	rdx, rsi

; 459  :     *result_high = (_UINT32_T)(value >> 32);

	mov	r9, rdx
	shr	r9, 32					; 00000020H

; 530  :     return (_addcarryx_u32(carry, u, v, w));

	add	edx, r14d
	mov	DWORD PTR t_lo$126[rbp-256], edx
	adcx	r9d, edi

; 558  :     return (_subborrow_u32(borrow, u, v, w));

	add	r11b, -1

; 530  :     return (_addcarryx_u32(carry, u, v, w));

	mov	DWORD PTR t_hi$25[rsp], r9d

; 558  :     return (_subborrow_u32(borrow, u, v, w));

	sbb	ecx, edx
	mov	DWORD PTR [rax], ecx

; 640  :     return (_FROMDWORDTOWORD((_UINT64_T)u * v, w_hi));

	mov	edx, DWORD PTR [rbx+4]

; 558  :     return (_subborrow_u32(borrow, u, v, w));

	setb	r8b
; File z:\sources\lunor\repos\rougemeilland\palmtree.math.core.implements\palmtree.math.core.implements\pmc_divrem.c

; 447  :     c = _SUBTRUCT_UNIT_DIV(c, *up, t_lo, up);

	mov	ecx, DWORD PTR [rax+4]
; File z:\sources\lunor\repos\rougemeilland\palmtree.math.core.implements\palmtree.math.core.implements\pmc_internal.h

; 640  :     return (_FROMDWORDTOWORD((_UINT64_T)u * v, w_hi));

	imul	rdx, rsi

; 459  :     *result_high = (_UINT32_T)(value >> 32);

	mov	r10, rdx
	shr	r10, 32					; 00000020H

; 530  :     return (_addcarryx_u32(carry, u, v, w));

	add	edx, r9d
	mov	DWORD PTR t_lo$123[rbp-256], edx
	adcx	r10d, edi

; 558  :     return (_subborrow_u32(borrow, u, v, w));

	add	r8b, -1

; 530  :     return (_addcarryx_u32(carry, u, v, w));

	mov	DWORD PTR t_hi$26[rsp], r10d

; 558  :     return (_subborrow_u32(borrow, u, v, w));

	sbb	ecx, edx
	mov	DWORD PTR [rax+4], ecx

; 640  :     return (_FROMDWORDTOWORD((_UINT64_T)u * v, w_hi));

	mov	edx, DWORD PTR [rbx+8]

; 558  :     return (_subborrow_u32(borrow, u, v, w));

	setb	r8b
; File z:\sources\lunor\repos\rougemeilland\palmtree.math.core.implements\palmtree.math.core.implements\pmc_divrem.c

; 447  :     c = _SUBTRUCT_UNIT_DIV(c, *up, t_lo, up);

	mov	ecx, DWORD PTR [rax+8]
; File z:\sources\lunor\repos\rougemeilland\palmtree.math.core.implements\palmtree.math.core.implements\pmc_internal.h

; 640  :     return (_FROMDWORDTOWORD((_UINT64_T)u * v, w_hi));

	imul	rdx, rsi

; 459  :     *result_high = (_UINT32_T)(value >> 32);

	mov	r9, rdx
	shr	r9, 32					; 00000020H

; 530  :     return (_addcarryx_u32(carry, u, v, w));

	add	edx, r10d
	mov	DWORD PTR t_lo$124[rbp-256], edx
	adcx	r9d, edi

; 558  :     return (_subborrow_u32(borrow, u, v, w));

	add	r8b, -1

; 530  :     return (_addcarryx_u32(carry, u, v, w));

	mov	DWORD PTR t_hi$27[rsp], r9d

; 558  :     return (_subborrow_u32(borrow, u, v, w));

	sbb	ecx, edx
	mov	DWORD PTR [rax+8], ecx

; 640  :     return (_FROMDWORDTOWORD((_UINT64_T)u * v, w_hi));

	mov	edx, DWORD PTR [rbx+12]

; 558  :     return (_subborrow_u32(borrow, u, v, w));

	setb	r8b
; File z:\sources\lunor\repos\rougemeilland\palmtree.math.core.implements\palmtree.math.core.implements\pmc_divrem.c

; 447  :     c = _SUBTRUCT_UNIT_DIV(c, *up, t_lo, up);

	mov	ecx, DWORD PTR [rax+12]
; File z:\sources\lunor\repos\rougemeilland\palmtree.math.core.implements\palmtree.math.core.implements\pmc_internal.h

; 640  :     return (_FROMDWORDTOWORD((_UINT64_T)u * v, w_hi));

	imul	rdx, rsi

; 459  :     *result_high = (_UINT32_T)(value >> 32);

	mov	r10, rdx
	shr	r10, 32					; 00000020H

; 530  :     return (_addcarryx_u32(carry, u, v, w));

	add	edx, r9d
	mov	DWORD PTR t_lo$125[rbp-256], edx
	adcx	r10d, edi

; 558  :     return (_subborrow_u32(borrow, u, v, w));

	add	r8b, -1

; 530  :     return (_addcarryx_u32(carry, u, v, w));

	mov	DWORD PTR t_hi$28[rsp], r10d

; 558  :     return (_subborrow_u32(borrow, u, v, w));

	sbb	ecx, edx
	mov	DWORD PTR [rax+12], ecx

; 640  :     return (_FROMDWORDTOWORD((_UINT64_T)u * v, w_hi));

	mov	edx, DWORD PTR [rbx+16]

; 558  :     return (_subborrow_u32(borrow, u, v, w));

	setb	r8b
; File z:\sources\lunor\repos\rougemeilland\palmtree.math.core.implements\palmtree.math.core.implements\pmc_divrem.c

; 447  :     c = _SUBTRUCT_UNIT_DIV(c, *up, t_lo, up);

	mov	ecx, DWORD PTR [rax+16]
; File z:\sources\lunor\repos\rougemeilland\palmtree.math.core.implements\palmtree.math.core.implements\pmc_internal.h

; 640  :     return (_FROMDWORDTOWORD((_UINT64_T)u * v, w_hi));

	imul	rdx, rsi

; 459  :     *result_high = (_UINT32_T)(value >> 32);

	mov	r9, rdx
	shr	r9, 32					; 00000020H

; 530  :     return (_addcarryx_u32(carry, u, v, w));

	add	edx, r10d
	mov	DWORD PTR t_lo$1[rsp], edx
	adcx	r9d, edi

; 558  :     return (_subborrow_u32(borrow, u, v, w));

	add	r8b, -1

; 530  :     return (_addcarryx_u32(carry, u, v, w));

	mov	DWORD PTR t_hi$29[rsp], r9d

; 558  :     return (_subborrow_u32(borrow, u, v, w));

	sbb	ecx, edx
	mov	DWORD PTR [rax+16], ecx

; 640  :     return (_FROMDWORDTOWORD((_UINT64_T)u * v, w_hi));

	mov	edx, DWORD PTR [rbx+20]

; 558  :     return (_subborrow_u32(borrow, u, v, w));

	setb	r8b
; File z:\sources\lunor\repos\rougemeilland\palmtree.math.core.implements\palmtree.math.core.implements\pmc_divrem.c

; 447  :     c = _SUBTRUCT_UNIT_DIV(c, *up, t_lo, up);

	mov	ecx, DWORD PTR [rax+20]
; File z:\sources\lunor\repos\rougemeilland\palmtree.math.core.implements\palmtree.math.core.implements\pmc_internal.h

; 640  :     return (_FROMDWORDTOWORD((_UINT64_T)u * v, w_hi));

	imul	rdx, rsi

; 459  :     *result_high = (_UINT32_T)(value >> 32);

	mov	r11, rdx
	shr	r11, 32					; 00000020H

; 530  :     return (_addcarryx_u32(carry, u, v, w));

	add	edx, r9d
	mov	DWORD PTR t_lo$2[rsp], edx
	adcx	r11d, edi

; 558  :     return (_subborrow_u32(borrow, u, v, w));

	add	r8b, -1

; 530  :     return (_addcarryx_u32(carry, u, v, w));

	mov	DWORD PTR t_hi$30[rsp], r11d

; 558  :     return (_subborrow_u32(borrow, u, v, w));

	sbb	ecx, edx
	mov	DWORD PTR [rax+20], ecx

; 640  :     return (_FROMDWORDTOWORD((_UINT64_T)u * v, w_hi));

	mov	edx, DWORD PTR [rbx+24]

; 558  :     return (_subborrow_u32(borrow, u, v, w));

	setb	r8b

; 640  :     return (_FROMDWORDTOWORD((_UINT64_T)u * v, w_hi));

	imul	rdx, rsi

; 459  :     *result_high = (_UINT32_T)(value >> 32);

	mov	r10, rdx
; File z:\sources\lunor\repos\rougemeilland\palmtree.math.core.implements\palmtree.math.core.implements\pmc_divrem.c

; 447  :     c = _SUBTRUCT_UNIT_DIV(c, *up, t_lo, up);

	mov	ecx, DWORD PTR [rax+24]
; File z:\sources\lunor\repos\rougemeilland\palmtree.math.core.implements\palmtree.math.core.implements\pmc_internal.h

; 459  :     *result_high = (_UINT32_T)(value >> 32);

	shr	r10, 32					; 00000020H

; 530  :     return (_addcarryx_u32(carry, u, v, w));

	add	edx, r11d
	mov	DWORD PTR t_lo$3[rsp], edx
	adcx	r10d, edi

; 558  :     return (_subborrow_u32(borrow, u, v, w));

	add	r8b, -1

; 530  :     return (_addcarryx_u32(carry, u, v, w));

	mov	DWORD PTR t_hi$31[rsp], r10d

; 558  :     return (_subborrow_u32(borrow, u, v, w));

	sbb	ecx, edx
	mov	DWORD PTR [rax+24], ecx

; 640  :     return (_FROMDWORDTOWORD((_UINT64_T)u * v, w_hi));

	mov	edx, DWORD PTR [rbx+28]

; 558  :     return (_subborrow_u32(borrow, u, v, w));

	setb	r8b
; File z:\sources\lunor\repos\rougemeilland\palmtree.math.core.implements\palmtree.math.core.implements\pmc_divrem.c

; 447  :     c = _SUBTRUCT_UNIT_DIV(c, *up, t_lo, up);

	mov	ecx, DWORD PTR [rax+28]
; File z:\sources\lunor\repos\rougemeilland\palmtree.math.core.implements\palmtree.math.core.implements\pmc_internal.h

; 640  :     return (_FROMDWORDTOWORD((_UINT64_T)u * v, w_hi));

	imul	rdx, rsi

; 459  :     *result_high = (_UINT32_T)(value >> 32);

	mov	r9, rdx
	shr	r9, 32					; 00000020H

; 530  :     return (_addcarryx_u32(carry, u, v, w));

	add	edx, r10d
	mov	DWORD PTR t_lo$32[rsp], edx
	adcx	r9d, edi

; 558  :     return (_subborrow_u32(borrow, u, v, w));

	add	r8b, -1

; 530  :     return (_addcarryx_u32(carry, u, v, w));

	mov	DWORD PTR t_hi$33[rbp-256], r9d

; 558  :     return (_subborrow_u32(borrow, u, v, w));

	sbb	ecx, edx
	mov	DWORD PTR [rax+28], ecx

; 640  :     return (_FROMDWORDTOWORD((_UINT64_T)u * v, w_hi));

	mov	edx, DWORD PTR [rbx+32]

; 558  :     return (_subborrow_u32(borrow, u, v, w));

	setb	r8b
; File z:\sources\lunor\repos\rougemeilland\palmtree.math.core.implements\palmtree.math.core.implements\pmc_divrem.c

; 447  :     c = _SUBTRUCT_UNIT_DIV(c, *up, t_lo, up);

	mov	ecx, DWORD PTR [rax+32]
; File z:\sources\lunor\repos\rougemeilland\palmtree.math.core.implements\palmtree.math.core.implements\pmc_internal.h

; 640  :     return (_FROMDWORDTOWORD((_UINT64_T)u * v, w_hi));

	imul	rdx, rsi

; 459  :     *result_high = (_UINT32_T)(value >> 32);

	mov	r10, rdx
	shr	r10, 32					; 00000020H

; 530  :     return (_addcarryx_u32(carry, u, v, w));

	add	edx, r9d
	mov	DWORD PTR t_lo$34[rbp-256], edx
	adcx	r10d, edi

; 558  :     return (_subborrow_u32(borrow, u, v, w));

	add	r8b, -1

; 530  :     return (_addcarryx_u32(carry, u, v, w));

	mov	DWORD PTR t_hi$35[rbp-256], r10d

; 558  :     return (_subborrow_u32(borrow, u, v, w));

	sbb	ecx, edx
	mov	DWORD PTR [rax+32], ecx

; 640  :     return (_FROMDWORDTOWORD((_UINT64_T)u * v, w_hi));

	mov	edx, DWORD PTR [rbx+36]

; 558  :     return (_subborrow_u32(borrow, u, v, w));

	setb	r8b
; File z:\sources\lunor\repos\rougemeilland\palmtree.math.core.implements\palmtree.math.core.implements\pmc_divrem.c

; 447  :     c = _SUBTRUCT_UNIT_DIV(c, *up, t_lo, up);

	mov	ecx, DWORD PTR [rax+36]
; File z:\sources\lunor\repos\rougemeilland\palmtree.math.core.implements\palmtree.math.core.implements\pmc_internal.h

; 640  :     return (_FROMDWORDTOWORD((_UINT64_T)u * v, w_hi));

	imul	rdx, rsi

; 459  :     *result_high = (_UINT32_T)(value >> 32);

	mov	r9, rdx
	shr	r9, 32					; 00000020H

; 530  :     return (_addcarryx_u32(carry, u, v, w));

	add	edx, r10d
	mov	DWORD PTR t_lo$36[rbp-256], edx
	adcx	r9d, edi

; 558  :     return (_subborrow_u32(borrow, u, v, w));

	add	r8b, -1

; 530  :     return (_addcarryx_u32(carry, u, v, w));

	mov	DWORD PTR t_hi$37[rbp-256], r9d

; 558  :     return (_subborrow_u32(borrow, u, v, w));

	sbb	ecx, edx
	mov	DWORD PTR [rax+36], ecx

; 640  :     return (_FROMDWORDTOWORD((_UINT64_T)u * v, w_hi));

	mov	edx, DWORD PTR [rbx+40]

; 558  :     return (_subborrow_u32(borrow, u, v, w));

	setb	r8b
; File z:\sources\lunor\repos\rougemeilland\palmtree.math.core.implements\palmtree.math.core.implements\pmc_divrem.c

; 447  :     c = _SUBTRUCT_UNIT_DIV(c, *up, t_lo, up);

	mov	ecx, DWORD PTR [rax+40]
; File z:\sources\lunor\repos\rougemeilland\palmtree.math.core.implements\palmtree.math.core.implements\pmc_internal.h

; 640  :     return (_FROMDWORDTOWORD((_UINT64_T)u * v, w_hi));

	imul	rdx, rsi

; 459  :     *result_high = (_UINT32_T)(value >> 32);

	mov	r10, rdx
	shr	r10, 32					; 00000020H

; 530  :     return (_addcarryx_u32(carry, u, v, w));

	add	edx, r9d
	mov	DWORD PTR t_lo$38[rbp-256], edx
	adcx	r10d, edi

; 558  :     return (_subborrow_u32(borrow, u, v, w));

	add	r8b, -1

; 530  :     return (_addcarryx_u32(carry, u, v, w));

	mov	DWORD PTR t_hi$39[rbp-256], r10d

; 558  :     return (_subborrow_u32(borrow, u, v, w));

	sbb	ecx, edx
	mov	DWORD PTR [rax+40], ecx

; 640  :     return (_FROMDWORDTOWORD((_UINT64_T)u * v, w_hi));

	mov	edx, DWORD PTR [rbx+44]

; 558  :     return (_subborrow_u32(borrow, u, v, w));

	setb	r8b
; File z:\sources\lunor\repos\rougemeilland\palmtree.math.core.implements\palmtree.math.core.implements\pmc_divrem.c

; 447  :     c = _SUBTRUCT_UNIT_DIV(c, *up, t_lo, up);

	mov	ecx, DWORD PTR [rax+44]
; File z:\sources\lunor\repos\rougemeilland\palmtree.math.core.implements\palmtree.math.core.implements\pmc_internal.h

; 640  :     return (_FROMDWORDTOWORD((_UINT64_T)u * v, w_hi));

	imul	rdx, rsi

; 459  :     *result_high = (_UINT32_T)(value >> 32);

	mov	r9, rdx
	shr	r9, 32					; 00000020H

; 530  :     return (_addcarryx_u32(carry, u, v, w));

	add	edx, r10d
	mov	DWORD PTR t_lo$40[rbp-256], edx
	adcx	r9d, edi

; 558  :     return (_subborrow_u32(borrow, u, v, w));

	add	r8b, -1

; 530  :     return (_addcarryx_u32(carry, u, v, w));

	mov	DWORD PTR t_hi$41[rbp-256], r9d

; 558  :     return (_subborrow_u32(borrow, u, v, w));

	sbb	ecx, edx
	mov	DWORD PTR [rax+44], ecx

; 640  :     return (_FROMDWORDTOWORD((_UINT64_T)u * v, w_hi));

	mov	edx, DWORD PTR [rbx+48]

; 558  :     return (_subborrow_u32(borrow, u, v, w));

	setb	r8b

; 640  :     return (_FROMDWORDTOWORD((_UINT64_T)u * v, w_hi));

	imul	rdx, rsi

; 459  :     *result_high = (_UINT32_T)(value >> 32);

	mov	r10, rdx
	shr	r10, 32					; 00000020H

; 530  :     return (_addcarryx_u32(carry, u, v, w));

	add	edx, r9d
	mov	DWORD PTR t_lo$42[rbp-256], edx
	adcx	r10d, edi
; File z:\sources\lunor\repos\rougemeilland\palmtree.math.core.implements\palmtree.math.core.implements\pmc_divrem.c

; 447  :     c = _SUBTRUCT_UNIT_DIV(c, *up, t_lo, up);

	mov	ecx, DWORD PTR [rax+48]
; File z:\sources\lunor\repos\rougemeilland\palmtree.math.core.implements\palmtree.math.core.implements\pmc_internal.h

; 558  :     return (_subborrow_u32(borrow, u, v, w));

	add	r8b, -1

; 530  :     return (_addcarryx_u32(carry, u, v, w));

	mov	DWORD PTR t_hi$43[rbp-256], r10d

; 558  :     return (_subborrow_u32(borrow, u, v, w));

	sbb	ecx, edx
	mov	DWORD PTR [rax+48], ecx

; 640  :     return (_FROMDWORDTOWORD((_UINT64_T)u * v, w_hi));

	mov	edx, DWORD PTR [rbx+52]

; 558  :     return (_subborrow_u32(borrow, u, v, w));

	setb	r8b
; File z:\sources\lunor\repos\rougemeilland\palmtree.math.core.implements\palmtree.math.core.implements\pmc_divrem.c

; 447  :     c = _SUBTRUCT_UNIT_DIV(c, *up, t_lo, up);

	mov	ecx, DWORD PTR [rax+52]
; File z:\sources\lunor\repos\rougemeilland\palmtree.math.core.implements\palmtree.math.core.implements\pmc_internal.h

; 640  :     return (_FROMDWORDTOWORD((_UINT64_T)u * v, w_hi));

	imul	rdx, rsi

; 459  :     *result_high = (_UINT32_T)(value >> 32);

	mov	r9, rdx
	shr	r9, 32					; 00000020H

; 530  :     return (_addcarryx_u32(carry, u, v, w));

	add	edx, r10d
	mov	DWORD PTR t_lo$44[rbp-256], edx
	adcx	r9d, edi

; 558  :     return (_subborrow_u32(borrow, u, v, w));

	add	r8b, -1

; 530  :     return (_addcarryx_u32(carry, u, v, w));

	mov	DWORD PTR t_hi$45[rbp-256], r9d

; 558  :     return (_subborrow_u32(borrow, u, v, w));

	sbb	ecx, edx
	mov	DWORD PTR [rax+52], ecx

; 640  :     return (_FROMDWORDTOWORD((_UINT64_T)u * v, w_hi));

	mov	edx, DWORD PTR [rbx+56]

; 558  :     return (_subborrow_u32(borrow, u, v, w));

	setb	r8b
; File z:\sources\lunor\repos\rougemeilland\palmtree.math.core.implements\palmtree.math.core.implements\pmc_divrem.c

; 447  :     c = _SUBTRUCT_UNIT_DIV(c, *up, t_lo, up);

	mov	ecx, DWORD PTR [rax+56]
; File z:\sources\lunor\repos\rougemeilland\palmtree.math.core.implements\palmtree.math.core.implements\pmc_internal.h

; 640  :     return (_FROMDWORDTOWORD((_UINT64_T)u * v, w_hi));

	imul	rdx, rsi

; 459  :     *result_high = (_UINT32_T)(value >> 32);

	mov	r10, rdx
	shr	r10, 32					; 00000020H

; 530  :     return (_addcarryx_u32(carry, u, v, w));

	add	edx, r9d
	mov	DWORD PTR t_lo$46[rbp-256], edx
	adcx	r10d, edi

; 558  :     return (_subborrow_u32(borrow, u, v, w));

	add	r8b, -1

; 530  :     return (_addcarryx_u32(carry, u, v, w));

	mov	DWORD PTR t_hi$47[rbp-256], r10d

; 558  :     return (_subborrow_u32(borrow, u, v, w));

	sbb	ecx, edx
	mov	DWORD PTR [rax+56], ecx

; 640  :     return (_FROMDWORDTOWORD((_UINT64_T)u * v, w_hi));

	mov	edx, DWORD PTR [rbx+60]

; 558  :     return (_subborrow_u32(borrow, u, v, w));

	setb	r8b
; File z:\sources\lunor\repos\rougemeilland\palmtree.math.core.implements\palmtree.math.core.implements\pmc_divrem.c

; 447  :     c = _SUBTRUCT_UNIT_DIV(c, *up, t_lo, up);

	mov	ecx, DWORD PTR [rax+60]
; File z:\sources\lunor\repos\rougemeilland\palmtree.math.core.implements\palmtree.math.core.implements\pmc_internal.h

; 640  :     return (_FROMDWORDTOWORD((_UINT64_T)u * v, w_hi));

	imul	rdx, rsi

; 459  :     *result_high = (_UINT32_T)(value >> 32);

	mov	r9, rdx
	shr	r9, 32					; 00000020H

; 530  :     return (_addcarryx_u32(carry, u, v, w));

	add	edx, r10d
	mov	DWORD PTR t_lo$48[rbp-256], edx
	adcx	r9d, edi

; 558  :     return (_subborrow_u32(borrow, u, v, w));

	add	r8b, -1

; 530  :     return (_addcarryx_u32(carry, u, v, w));

	mov	DWORD PTR t_hi$49[rbp-256], r9d

; 558  :     return (_subborrow_u32(borrow, u, v, w));

	sbb	ecx, edx
	mov	DWORD PTR [rax+60], ecx

; 640  :     return (_FROMDWORDTOWORD((_UINT64_T)u * v, w_hi));

	mov	edx, DWORD PTR [rbx+64]

; 558  :     return (_subborrow_u32(borrow, u, v, w));

	setb	r8b
; File z:\sources\lunor\repos\rougemeilland\palmtree.math.core.implements\palmtree.math.core.implements\pmc_divrem.c

; 447  :     c = _SUBTRUCT_UNIT_DIV(c, *up, t_lo, up);

	mov	ecx, DWORD PTR [rax+64]
; File z:\sources\lunor\repos\rougemeilland\palmtree.math.core.implements\palmtree.math.core.implements\pmc_internal.h

; 640  :     return (_FROMDWORDTOWORD((_UINT64_T)u * v, w_hi));

	imul	rdx, rsi

; 459  :     *result_high = (_UINT32_T)(value >> 32);

	mov	r10, rdx
	shr	r10, 32					; 00000020H

; 530  :     return (_addcarryx_u32(carry, u, v, w));

	add	edx, r9d
	mov	DWORD PTR t_lo$50[rbp-256], edx
	adcx	r10d, edi

; 558  :     return (_subborrow_u32(borrow, u, v, w));

	add	r8b, -1

; 530  :     return (_addcarryx_u32(carry, u, v, w));

	mov	DWORD PTR t_hi$51[rbp-256], r10d

; 558  :     return (_subborrow_u32(borrow, u, v, w));

	sbb	ecx, edx
	mov	DWORD PTR [rax+64], ecx

; 640  :     return (_FROMDWORDTOWORD((_UINT64_T)u * v, w_hi));

	mov	edx, DWORD PTR [rbx+68]

; 558  :     return (_subborrow_u32(borrow, u, v, w));

	setb	r8b
; File z:\sources\lunor\repos\rougemeilland\palmtree.math.core.implements\palmtree.math.core.implements\pmc_divrem.c

; 447  :     c = _SUBTRUCT_UNIT_DIV(c, *up, t_lo, up);

	mov	ecx, DWORD PTR [rax+68]
; File z:\sources\lunor\repos\rougemeilland\palmtree.math.core.implements\palmtree.math.core.implements\pmc_internal.h

; 640  :     return (_FROMDWORDTOWORD((_UINT64_T)u * v, w_hi));

	imul	rdx, rsi

; 459  :     *result_high = (_UINT32_T)(value >> 32);

	mov	r9, rdx
	shr	r9, 32					; 00000020H

; 530  :     return (_addcarryx_u32(carry, u, v, w));

	add	edx, r10d
	mov	DWORD PTR t_lo$52[rbp-256], edx
	adcx	r9d, edi

; 558  :     return (_subborrow_u32(borrow, u, v, w));

	add	r8b, -1

; 530  :     return (_addcarryx_u32(carry, u, v, w));

	mov	DWORD PTR t_hi$53[rbp-256], r9d

; 558  :     return (_subborrow_u32(borrow, u, v, w));

	sbb	ecx, edx
	mov	DWORD PTR [rax+68], ecx

; 640  :     return (_FROMDWORDTOWORD((_UINT64_T)u * v, w_hi));

	mov	edx, DWORD PTR [rbx+72]

; 558  :     return (_subborrow_u32(borrow, u, v, w));

	setb	r8b
; File z:\sources\lunor\repos\rougemeilland\palmtree.math.core.implements\palmtree.math.core.implements\pmc_divrem.c

; 447  :     c = _SUBTRUCT_UNIT_DIV(c, *up, t_lo, up);

	mov	ecx, DWORD PTR [rax+72]
; File z:\sources\lunor\repos\rougemeilland\palmtree.math.core.implements\palmtree.math.core.implements\pmc_internal.h

; 640  :     return (_FROMDWORDTOWORD((_UINT64_T)u * v, w_hi));

	imul	rdx, rsi

; 459  :     *result_high = (_UINT32_T)(value >> 32);

	mov	r10, rdx
	shr	r10, 32					; 00000020H

; 530  :     return (_addcarryx_u32(carry, u, v, w));

	add	edx, r9d
	mov	DWORD PTR t_lo$54[rbp-256], edx
	adcx	r10d, edi
	mov	DWORD PTR t_hi$55[rbp-256], r10d

; 558  :     return (_subborrow_u32(borrow, u, v, w));

	add	r8b, -1
	sbb	ecx, edx
	mov	DWORD PTR [rax+72], ecx

; 640  :     return (_FROMDWORDTOWORD((_UINT64_T)u * v, w_hi));

	mov	edx, DWORD PTR [rbx+76]

; 558  :     return (_subborrow_u32(borrow, u, v, w));

	setb	r8b
; File z:\sources\lunor\repos\rougemeilland\palmtree.math.core.implements\palmtree.math.core.implements\pmc_divrem.c

; 447  :     c = _SUBTRUCT_UNIT_DIV(c, *up, t_lo, up);

	mov	ecx, DWORD PTR [rax+76]
; File z:\sources\lunor\repos\rougemeilland\palmtree.math.core.implements\palmtree.math.core.implements\pmc_internal.h

; 640  :     return (_FROMDWORDTOWORD((_UINT64_T)u * v, w_hi));

	imul	rdx, rsi

; 459  :     *result_high = (_UINT32_T)(value >> 32);

	mov	r9, rdx
	shr	r9, 32					; 00000020H

; 530  :     return (_addcarryx_u32(carry, u, v, w));

	add	edx, r10d
	mov	DWORD PTR t_lo$56[rbp-256], edx
	adcx	r9d, edi

; 558  :     return (_subborrow_u32(borrow, u, v, w));

	add	r8b, -1

; 530  :     return (_addcarryx_u32(carry, u, v, w));

	mov	DWORD PTR t_hi$57[rbp-256], r9d

; 558  :     return (_subborrow_u32(borrow, u, v, w));

	sbb	ecx, edx
	mov	DWORD PTR [rax+76], ecx

; 640  :     return (_FROMDWORDTOWORD((_UINT64_T)u * v, w_hi));

	mov	edx, DWORD PTR [rbx+80]

; 558  :     return (_subborrow_u32(borrow, u, v, w));

	setb	r8b
; File z:\sources\lunor\repos\rougemeilland\palmtree.math.core.implements\palmtree.math.core.implements\pmc_divrem.c

; 447  :     c = _SUBTRUCT_UNIT_DIV(c, *up, t_lo, up);

	mov	ecx, DWORD PTR [rax+80]
; File z:\sources\lunor\repos\rougemeilland\palmtree.math.core.implements\palmtree.math.core.implements\pmc_internal.h

; 640  :     return (_FROMDWORDTOWORD((_UINT64_T)u * v, w_hi));

	imul	rdx, rsi

; 459  :     *result_high = (_UINT32_T)(value >> 32);

	mov	r10, rdx
	shr	r10, 32					; 00000020H

; 530  :     return (_addcarryx_u32(carry, u, v, w));

	add	edx, r9d
	mov	DWORD PTR t_lo$58[rbp-256], edx
	adcx	r10d, edi

; 558  :     return (_subborrow_u32(borrow, u, v, w));

	add	r8b, -1

; 530  :     return (_addcarryx_u32(carry, u, v, w));

	mov	DWORD PTR t_hi$59[rbp-256], r10d

; 558  :     return (_subborrow_u32(borrow, u, v, w));

	sbb	ecx, edx
	mov	DWORD PTR [rax+80], ecx

; 640  :     return (_FROMDWORDTOWORD((_UINT64_T)u * v, w_hi));

	mov	edx, DWORD PTR [rbx+84]

; 558  :     return (_subborrow_u32(borrow, u, v, w));

	setb	r8b
; File z:\sources\lunor\repos\rougemeilland\palmtree.math.core.implements\palmtree.math.core.implements\pmc_divrem.c

; 447  :     c = _SUBTRUCT_UNIT_DIV(c, *up, t_lo, up);

	mov	ecx, DWORD PTR [rax+84]
; File z:\sources\lunor\repos\rougemeilland\palmtree.math.core.implements\palmtree.math.core.implements\pmc_internal.h

; 640  :     return (_FROMDWORDTOWORD((_UINT64_T)u * v, w_hi));

	imul	rdx, rsi

; 459  :     *result_high = (_UINT32_T)(value >> 32);

	mov	r9, rdx
	shr	r9, 32					; 00000020H

; 530  :     return (_addcarryx_u32(carry, u, v, w));

	add	edx, r10d
	mov	DWORD PTR t_lo$60[rbp-256], edx
	adcx	r9d, edi

; 558  :     return (_subborrow_u32(borrow, u, v, w));

	add	r8b, -1

; 530  :     return (_addcarryx_u32(carry, u, v, w));

	mov	DWORD PTR t_hi$61[rbp-256], r9d

; 558  :     return (_subborrow_u32(borrow, u, v, w));

	sbb	ecx, edx
	mov	DWORD PTR [rax+84], ecx

; 640  :     return (_FROMDWORDTOWORD((_UINT64_T)u * v, w_hi));

	mov	edx, DWORD PTR [rbx+88]

; 558  :     return (_subborrow_u32(borrow, u, v, w));

	setb	r8b
; File z:\sources\lunor\repos\rougemeilland\palmtree.math.core.implements\palmtree.math.core.implements\pmc_divrem.c

; 447  :     c = _SUBTRUCT_UNIT_DIV(c, *up, t_lo, up);

	mov	ecx, DWORD PTR [rax+88]
; File z:\sources\lunor\repos\rougemeilland\palmtree.math.core.implements\palmtree.math.core.implements\pmc_internal.h

; 640  :     return (_FROMDWORDTOWORD((_UINT64_T)u * v, w_hi));

	imul	rdx, rsi

; 459  :     *result_high = (_UINT32_T)(value >> 32);

	mov	r10, rdx
	shr	r10, 32					; 00000020H

; 530  :     return (_addcarryx_u32(carry, u, v, w));

	add	edx, r9d
	mov	DWORD PTR t_lo$62[rbp-256], edx
	adcx	r10d, edi

; 558  :     return (_subborrow_u32(borrow, u, v, w));

	add	r8b, -1

; 530  :     return (_addcarryx_u32(carry, u, v, w));

	mov	DWORD PTR t_hi$63[rbp-256], r10d

; 558  :     return (_subborrow_u32(borrow, u, v, w));

	sbb	ecx, edx
	mov	DWORD PTR [rax+88], ecx

; 640  :     return (_FROMDWORDTOWORD((_UINT64_T)u * v, w_hi));

	mov	edx, DWORD PTR [rbx+92]

; 558  :     return (_subborrow_u32(borrow, u, v, w));

	setb	r8b
; File z:\sources\lunor\repos\rougemeilland\palmtree.math.core.implements\palmtree.math.core.implements\pmc_divrem.c

; 447  :     c = _SUBTRUCT_UNIT_DIV(c, *up, t_lo, up);

	mov	ecx, DWORD PTR [rax+92]
; File z:\sources\lunor\repos\rougemeilland\palmtree.math.core.implements\palmtree.math.core.implements\pmc_internal.h

; 640  :     return (_FROMDWORDTOWORD((_UINT64_T)u * v, w_hi));

	imul	rdx, rsi

; 459  :     *result_high = (_UINT32_T)(value >> 32);

	mov	r9, rdx
	shr	r9, 32					; 00000020H

; 530  :     return (_addcarryx_u32(carry, u, v, w));

	add	edx, r10d
	mov	DWORD PTR t_lo$64[rbp-256], edx
	adcx	r9d, edi

; 558  :     return (_subborrow_u32(borrow, u, v, w));

	add	r8b, -1

; 530  :     return (_addcarryx_u32(carry, u, v, w));

	mov	DWORD PTR t_hi$65[rbp-256], r9d

; 558  :     return (_subborrow_u32(borrow, u, v, w));

	sbb	ecx, edx
	mov	DWORD PTR [rax+92], ecx

; 640  :     return (_FROMDWORDTOWORD((_UINT64_T)u * v, w_hi));

	mov	edx, DWORD PTR [rbx+96]

; 558  :     return (_subborrow_u32(borrow, u, v, w));

	setb	r8b
; File z:\sources\lunor\repos\rougemeilland\palmtree.math.core.implements\palmtree.math.core.implements\pmc_divrem.c

; 447  :     c = _SUBTRUCT_UNIT_DIV(c, *up, t_lo, up);

	mov	ecx, DWORD PTR [rax+96]
; File z:\sources\lunor\repos\rougemeilland\palmtree.math.core.implements\palmtree.math.core.implements\pmc_internal.h

; 640  :     return (_FROMDWORDTOWORD((_UINT64_T)u * v, w_hi));

	imul	rdx, rsi

; 459  :     *result_high = (_UINT32_T)(value >> 32);

	mov	r10, rdx
	shr	r10, 32					; 00000020H

; 530  :     return (_addcarryx_u32(carry, u, v, w));

	add	edx, r9d
	mov	DWORD PTR t_lo$66[rbp-256], edx
	adcx	r10d, edi

; 558  :     return (_subborrow_u32(borrow, u, v, w));

	add	r8b, -1

; 530  :     return (_addcarryx_u32(carry, u, v, w));

	mov	DWORD PTR t_hi$67[rbp-256], r10d

; 558  :     return (_subborrow_u32(borrow, u, v, w));

	sbb	ecx, edx
	setb	r8b
	mov	DWORD PTR [rax+96], ecx

; 640  :     return (_FROMDWORDTOWORD((_UINT64_T)u * v, w_hi));

	mov	edx, DWORD PTR [rbx+100]
; File z:\sources\lunor\repos\rougemeilland\palmtree.math.core.implements\palmtree.math.core.implements\pmc_divrem.c

; 447  :     c = _SUBTRUCT_UNIT_DIV(c, *up, t_lo, up);

	mov	ecx, DWORD PTR [rax+100]
; File z:\sources\lunor\repos\rougemeilland\palmtree.math.core.implements\palmtree.math.core.implements\pmc_internal.h

; 640  :     return (_FROMDWORDTOWORD((_UINT64_T)u * v, w_hi));

	imul	rdx, rsi

; 459  :     *result_high = (_UINT32_T)(value >> 32);

	mov	r9, rdx
	shr	r9, 32					; 00000020H

; 530  :     return (_addcarryx_u32(carry, u, v, w));

	add	edx, r10d
	mov	DWORD PTR t_lo$68[rbp-256], edx
	adcx	r9d, edi

; 558  :     return (_subborrow_u32(borrow, u, v, w));

	add	r8b, -1

; 530  :     return (_addcarryx_u32(carry, u, v, w));

	mov	DWORD PTR t_hi$69[rbp-256], r9d

; 558  :     return (_subborrow_u32(borrow, u, v, w));

	sbb	ecx, edx
	mov	DWORD PTR [rax+100], ecx

; 640  :     return (_FROMDWORDTOWORD((_UINT64_T)u * v, w_hi));

	mov	edx, DWORD PTR [rbx+104]

; 558  :     return (_subborrow_u32(borrow, u, v, w));

	setb	r8b
; File z:\sources\lunor\repos\rougemeilland\palmtree.math.core.implements\palmtree.math.core.implements\pmc_divrem.c

; 447  :     c = _SUBTRUCT_UNIT_DIV(c, *up, t_lo, up);

	mov	ecx, DWORD PTR [rax+104]
; File z:\sources\lunor\repos\rougemeilland\palmtree.math.core.implements\palmtree.math.core.implements\pmc_internal.h

; 640  :     return (_FROMDWORDTOWORD((_UINT64_T)u * v, w_hi));

	imul	rdx, rsi

; 459  :     *result_high = (_UINT32_T)(value >> 32);

	mov	r10, rdx
	shr	r10, 32					; 00000020H

; 530  :     return (_addcarryx_u32(carry, u, v, w));

	add	edx, r9d
	mov	DWORD PTR t_lo$70[rbp-256], edx
	adcx	r10d, edi

; 558  :     return (_subborrow_u32(borrow, u, v, w));

	add	r8b, -1

; 530  :     return (_addcarryx_u32(carry, u, v, w));

	mov	DWORD PTR t_hi$71[rbp-256], r10d

; 558  :     return (_subborrow_u32(borrow, u, v, w));

	sbb	ecx, edx
	mov	DWORD PTR [rax+104], ecx

; 640  :     return (_FROMDWORDTOWORD((_UINT64_T)u * v, w_hi));

	mov	edx, DWORD PTR [rbx+108]

; 558  :     return (_subborrow_u32(borrow, u, v, w));

	setb	r8b
; File z:\sources\lunor\repos\rougemeilland\palmtree.math.core.implements\palmtree.math.core.implements\pmc_divrem.c

; 447  :     c = _SUBTRUCT_UNIT_DIV(c, *up, t_lo, up);

	mov	ecx, DWORD PTR [rax+108]
; File z:\sources\lunor\repos\rougemeilland\palmtree.math.core.implements\palmtree.math.core.implements\pmc_internal.h

; 640  :     return (_FROMDWORDTOWORD((_UINT64_T)u * v, w_hi));

	imul	rdx, rsi

; 459  :     *result_high = (_UINT32_T)(value >> 32);

	mov	r9, rdx
	shr	r9, 32					; 00000020H

; 530  :     return (_addcarryx_u32(carry, u, v, w));

	add	edx, r10d
	mov	DWORD PTR t_lo$72[rbp-256], edx
	adcx	r9d, edi

; 558  :     return (_subborrow_u32(borrow, u, v, w));

	add	r8b, -1

; 530  :     return (_addcarryx_u32(carry, u, v, w));

	mov	DWORD PTR t_hi$73[rbp-256], r9d

; 558  :     return (_subborrow_u32(borrow, u, v, w));

	sbb	ecx, edx
	mov	DWORD PTR [rax+108], ecx

; 640  :     return (_FROMDWORDTOWORD((_UINT64_T)u * v, w_hi));

	mov	edx, DWORD PTR [rbx+112]

; 558  :     return (_subborrow_u32(borrow, u, v, w));

	setb	r8b
; File z:\sources\lunor\repos\rougemeilland\palmtree.math.core.implements\palmtree.math.core.implements\pmc_divrem.c

; 447  :     c = _SUBTRUCT_UNIT_DIV(c, *up, t_lo, up);

	mov	ecx, DWORD PTR [rax+112]
; File z:\sources\lunor\repos\rougemeilland\palmtree.math.core.implements\palmtree.math.core.implements\pmc_internal.h

; 640  :     return (_FROMDWORDTOWORD((_UINT64_T)u * v, w_hi));

	imul	rdx, rsi

; 459  :     *result_high = (_UINT32_T)(value >> 32);

	mov	r10, rdx
	shr	r10, 32					; 00000020H

; 530  :     return (_addcarryx_u32(carry, u, v, w));

	add	edx, r9d
	mov	DWORD PTR t_lo$74[rbp-256], edx
	adcx	r10d, edi

; 558  :     return (_subborrow_u32(borrow, u, v, w));

	add	r8b, -1

; 530  :     return (_addcarryx_u32(carry, u, v, w));

	mov	DWORD PTR t_hi$75[rbp-256], r10d

; 558  :     return (_subborrow_u32(borrow, u, v, w));

	sbb	ecx, edx
	mov	DWORD PTR [rax+112], ecx

; 640  :     return (_FROMDWORDTOWORD((_UINT64_T)u * v, w_hi));

	mov	edx, DWORD PTR [rbx+116]

; 558  :     return (_subborrow_u32(borrow, u, v, w));

	setb	r8b
; File z:\sources\lunor\repos\rougemeilland\palmtree.math.core.implements\palmtree.math.core.implements\pmc_divrem.c

; 447  :     c = _SUBTRUCT_UNIT_DIV(c, *up, t_lo, up);

	mov	ecx, DWORD PTR [rax+116]
; File z:\sources\lunor\repos\rougemeilland\palmtree.math.core.implements\palmtree.math.core.implements\pmc_internal.h

; 640  :     return (_FROMDWORDTOWORD((_UINT64_T)u * v, w_hi));

	imul	rdx, rsi

; 459  :     *result_high = (_UINT32_T)(value >> 32);

	mov	r9, rdx
	shr	r9, 32					; 00000020H

; 530  :     return (_addcarryx_u32(carry, u, v, w));

	add	edx, r10d
	mov	DWORD PTR t_lo$76[rbp-256], edx
	adcx	r9d, edi

; 558  :     return (_subborrow_u32(borrow, u, v, w));

	add	r8b, -1

; 530  :     return (_addcarryx_u32(carry, u, v, w));

	mov	DWORD PTR t_hi$77[rbp-256], r9d

; 558  :     return (_subborrow_u32(borrow, u, v, w));

	sbb	ecx, edx
	mov	DWORD PTR [rax+116], ecx

; 640  :     return (_FROMDWORDTOWORD((_UINT64_T)u * v, w_hi));

	mov	edx, DWORD PTR [rbx+120]

; 558  :     return (_subborrow_u32(borrow, u, v, w));

	setb	r8b
; File z:\sources\lunor\repos\rougemeilland\palmtree.math.core.implements\palmtree.math.core.implements\pmc_divrem.c

; 447  :     c = _SUBTRUCT_UNIT_DIV(c, *up, t_lo, up);

	mov	ecx, DWORD PTR [rax+120]
; File z:\sources\lunor\repos\rougemeilland\palmtree.math.core.implements\palmtree.math.core.implements\pmc_internal.h

; 640  :     return (_FROMDWORDTOWORD((_UINT64_T)u * v, w_hi));

	imul	rdx, rsi

; 459  :     *result_high = (_UINT32_T)(value >> 32);

	mov	r10, rdx
	shr	r10, 32					; 00000020H

; 530  :     return (_addcarryx_u32(carry, u, v, w));

	add	edx, r9d
	mov	DWORD PTR t_lo$78[rbp-256], edx
	adcx	r10d, edi

; 558  :     return (_subborrow_u32(borrow, u, v, w));

	add	r8b, -1

; 530  :     return (_addcarryx_u32(carry, u, v, w));

	mov	DWORD PTR t_hi$79[rbp-256], r10d

; 558  :     return (_subborrow_u32(borrow, u, v, w));

	sbb	ecx, edx
	mov	DWORD PTR [rax+120], ecx

; 640  :     return (_FROMDWORDTOWORD((_UINT64_T)u * v, w_hi));

	mov	edx, DWORD PTR [rbx+124]

; 558  :     return (_subborrow_u32(borrow, u, v, w));

	setb	r8b

; 640  :     return (_FROMDWORDTOWORD((_UINT64_T)u * v, w_hi));

	imul	rdx, rsi
; File z:\sources\lunor\repos\rougemeilland\palmtree.math.core.implements\palmtree.math.core.implements\pmc_divrem.c

; 447  :     c = _SUBTRUCT_UNIT_DIV(c, *up, t_lo, up);

	mov	ecx, DWORD PTR [rax+124]
; File z:\sources\lunor\repos\rougemeilland\palmtree.math.core.implements\palmtree.math.core.implements\pmc_internal.h

; 459  :     *result_high = (_UINT32_T)(value >> 32);

	mov	r14, rdx
	shr	r14, 32					; 00000020H

; 530  :     return (_addcarryx_u32(carry, u, v, w));

	add	edx, r10d
	mov	DWORD PTR t_lo$80[rbp-256], edx
	adcx	r14d, edi

; 558  :     return (_subborrow_u32(borrow, u, v, w));

	add	r8b, -1

; 530  :     return (_addcarryx_u32(carry, u, v, w));

	mov	DWORD PTR t_hi$81[rbp-256], r14d

; 558  :     return (_subborrow_u32(borrow, u, v, w));

	sbb	ecx, edx
	mov	DWORD PTR [rax+124], ecx

; 1097 :     _InterlockedExchangeAdd(&statistics_info.COUNT_MULTI32, value);

	mov	ecx, 32					; 00000020H

; 558  :     return (_subborrow_u32(borrow, u, v, w));

	setb	r11b
; File z:\sources\lunor\repos\rougemeilland\palmtree.math.core.implements\palmtree.math.core.implements\pmc_divrem.c

; 647  :         u_ptr += 32;

	sub	rax, -128				; ffffffffffffff80H

; 648  :         v_ptr += 32;

	sub	rbx, -128				; ffffffffffffff80H
; File z:\sources\lunor\repos\rougemeilland\palmtree.math.core.implements\palmtree.math.core.implements\pmc_internal.h

; 1097 :     _InterlockedExchangeAdd(&statistics_info.COUNT_MULTI32, value);

	lock xadd DWORD PTR statistics_info+4, ecx
; File z:\sources\lunor\repos\rougemeilland\palmtree.math.core.implements\palmtree.math.core.implements\pmc_divrem.c

; 613  :     while (count != 0)

	sub	r12, 1
	jne	$LL2@SubtructOn
$LN821@SubtructOn:

; 649  :         --count;
; 650  : #ifdef ENABLED_PERFORMANCE_COUNTER
; 651  :         if (sizeof(k) == sizeof(_UINT64_T))
; 652  :             AddToMULTI64Counter(32);
; 653  :         else
; 654  :             AddToMULTI32Counter(32);
; 655  : #endif
; 656  :     }
; 657  : 
; 658  :     if (v_count & 0x10)

	test	r15b, 16
	je	$LN604@SubtructOn
; File z:\sources\lunor\repos\rougemeilland\palmtree.math.core.implements\palmtree.math.core.implements\pmc_internal.h

; 640  :     return (_FROMDWORDTOWORD((_UINT64_T)u * v, w_hi));

	mov	edx, DWORD PTR [rbx]
; File z:\sources\lunor\repos\rougemeilland\palmtree.math.core.implements\palmtree.math.core.implements\pmc_divrem.c

; 447  :     c = _SUBTRUCT_UNIT_DIV(c, *up, t_lo, up);

	mov	ecx, DWORD PTR [rax]
; File z:\sources\lunor\repos\rougemeilland\palmtree.math.core.implements\palmtree.math.core.implements\pmc_internal.h

; 640  :     return (_FROMDWORDTOWORD((_UINT64_T)u * v, w_hi));

	imul	rdx, rsi

; 459  :     *result_high = (_UINT32_T)(value >> 32);

	mov	r9, rdx
	shr	r9, 32					; 00000020H

; 530  :     return (_addcarryx_u32(carry, u, v, w));

	add	edx, r14d
	mov	DWORD PTR t_lo$4[rsp], edx
	adcx	r9d, edi

; 558  :     return (_subborrow_u32(borrow, u, v, w));

	add	r11b, -1

; 530  :     return (_addcarryx_u32(carry, u, v, w));

	mov	DWORD PTR t_hi$82[rbp-256], r9d

; 558  :     return (_subborrow_u32(borrow, u, v, w));

	sbb	ecx, edx
	mov	DWORD PTR [rax], ecx

; 640  :     return (_FROMDWORDTOWORD((_UINT64_T)u * v, w_hi));

	mov	edx, DWORD PTR [rbx+4]

; 558  :     return (_subborrow_u32(borrow, u, v, w));

	setb	r8b
; File z:\sources\lunor\repos\rougemeilland\palmtree.math.core.implements\palmtree.math.core.implements\pmc_divrem.c

; 447  :     c = _SUBTRUCT_UNIT_DIV(c, *up, t_lo, up);

	mov	ecx, DWORD PTR [rax+4]
; File z:\sources\lunor\repos\rougemeilland\palmtree.math.core.implements\palmtree.math.core.implements\pmc_internal.h

; 640  :     return (_FROMDWORDTOWORD((_UINT64_T)u * v, w_hi));

	imul	rdx, rsi

; 459  :     *result_high = (_UINT32_T)(value >> 32);

	mov	r10, rdx
	shr	r10, 32					; 00000020H

; 530  :     return (_addcarryx_u32(carry, u, v, w));

	add	edx, r9d
	mov	DWORD PTR t_lo$5[rsp], edx
	adcx	r10d, edi

; 558  :     return (_subborrow_u32(borrow, u, v, w));

	add	r8b, -1

; 530  :     return (_addcarryx_u32(carry, u, v, w));

	mov	DWORD PTR t_hi$83[rbp-256], r10d

; 558  :     return (_subborrow_u32(borrow, u, v, w));

	sbb	ecx, edx
	mov	DWORD PTR [rax+4], ecx

; 640  :     return (_FROMDWORDTOWORD((_UINT64_T)u * v, w_hi));

	mov	edx, DWORD PTR [rbx+8]

; 558  :     return (_subborrow_u32(borrow, u, v, w));

	setb	r8b
; File z:\sources\lunor\repos\rougemeilland\palmtree.math.core.implements\palmtree.math.core.implements\pmc_divrem.c

; 447  :     c = _SUBTRUCT_UNIT_DIV(c, *up, t_lo, up);

	mov	ecx, DWORD PTR [rax+8]
; File z:\sources\lunor\repos\rougemeilland\palmtree.math.core.implements\palmtree.math.core.implements\pmc_internal.h

; 640  :     return (_FROMDWORDTOWORD((_UINT64_T)u * v, w_hi));

	imul	rdx, rsi

; 459  :     *result_high = (_UINT32_T)(value >> 32);

	mov	r9, rdx
	shr	r9, 32					; 00000020H

; 530  :     return (_addcarryx_u32(carry, u, v, w));

	add	edx, r10d
	mov	DWORD PTR t_lo$6[rsp], edx
	adcx	r9d, edi

; 558  :     return (_subborrow_u32(borrow, u, v, w));

	add	r8b, -1

; 530  :     return (_addcarryx_u32(carry, u, v, w));

	mov	DWORD PTR t_hi$84[rbp-256], r9d

; 558  :     return (_subborrow_u32(borrow, u, v, w));

	sbb	ecx, edx
	mov	DWORD PTR [rax+8], ecx

; 640  :     return (_FROMDWORDTOWORD((_UINT64_T)u * v, w_hi));

	mov	edx, DWORD PTR [rbx+12]

; 558  :     return (_subborrow_u32(borrow, u, v, w));

	setb	r8b
; File z:\sources\lunor\repos\rougemeilland\palmtree.math.core.implements\palmtree.math.core.implements\pmc_divrem.c

; 447  :     c = _SUBTRUCT_UNIT_DIV(c, *up, t_lo, up);

	mov	ecx, DWORD PTR [rax+12]
; File z:\sources\lunor\repos\rougemeilland\palmtree.math.core.implements\palmtree.math.core.implements\pmc_internal.h

; 640  :     return (_FROMDWORDTOWORD((_UINT64_T)u * v, w_hi));

	imul	rdx, rsi

; 459  :     *result_high = (_UINT32_T)(value >> 32);

	mov	r10, rdx
	shr	r10, 32					; 00000020H

; 530  :     return (_addcarryx_u32(carry, u, v, w));

	add	edx, r9d
	mov	DWORD PTR t_lo$7[rsp], edx
	adcx	r10d, edi

; 558  :     return (_subborrow_u32(borrow, u, v, w));

	add	r8b, -1

; 530  :     return (_addcarryx_u32(carry, u, v, w));

	mov	DWORD PTR t_hi$85[rbp-256], r10d

; 558  :     return (_subborrow_u32(borrow, u, v, w));

	sbb	ecx, edx
	mov	DWORD PTR [rax+12], ecx

; 640  :     return (_FROMDWORDTOWORD((_UINT64_T)u * v, w_hi));

	mov	edx, DWORD PTR [rbx+16]

; 558  :     return (_subborrow_u32(borrow, u, v, w));

	setb	r8b
; File z:\sources\lunor\repos\rougemeilland\palmtree.math.core.implements\palmtree.math.core.implements\pmc_divrem.c

; 447  :     c = _SUBTRUCT_UNIT_DIV(c, *up, t_lo, up);

	mov	ecx, DWORD PTR [rax+16]
; File z:\sources\lunor\repos\rougemeilland\palmtree.math.core.implements\palmtree.math.core.implements\pmc_internal.h

; 640  :     return (_FROMDWORDTOWORD((_UINT64_T)u * v, w_hi));

	imul	rdx, rsi

; 459  :     *result_high = (_UINT32_T)(value >> 32);

	mov	r9, rdx
	shr	r9, 32					; 00000020H

; 530  :     return (_addcarryx_u32(carry, u, v, w));

	add	edx, r10d
	mov	DWORD PTR t_lo$8[rsp], edx
	adcx	r9d, edi

; 558  :     return (_subborrow_u32(borrow, u, v, w));

	add	r8b, -1

; 530  :     return (_addcarryx_u32(carry, u, v, w));

	mov	DWORD PTR t_hi$86[rbp-256], r9d

; 558  :     return (_subborrow_u32(borrow, u, v, w));

	sbb	ecx, edx
	mov	DWORD PTR [rax+16], ecx

; 640  :     return (_FROMDWORDTOWORD((_UINT64_T)u * v, w_hi));

	mov	edx, DWORD PTR [rbx+20]

; 558  :     return (_subborrow_u32(borrow, u, v, w));

	setb	r8b
; File z:\sources\lunor\repos\rougemeilland\palmtree.math.core.implements\palmtree.math.core.implements\pmc_divrem.c

; 447  :     c = _SUBTRUCT_UNIT_DIV(c, *up, t_lo, up);

	mov	ecx, DWORD PTR [rax+20]
; File z:\sources\lunor\repos\rougemeilland\palmtree.math.core.implements\palmtree.math.core.implements\pmc_internal.h

; 640  :     return (_FROMDWORDTOWORD((_UINT64_T)u * v, w_hi));

	imul	rdx, rsi

; 459  :     *result_high = (_UINT32_T)(value >> 32);

	mov	r11, rdx
	shr	r11, 32					; 00000020H

; 530  :     return (_addcarryx_u32(carry, u, v, w));

	add	edx, r9d
	mov	DWORD PTR t_lo$9[rsp], edx
	adcx	r11d, edi

; 558  :     return (_subborrow_u32(borrow, u, v, w));

	add	r8b, -1

; 530  :     return (_addcarryx_u32(carry, u, v, w));

	mov	DWORD PTR t_hi$87[rbp-256], r11d

; 558  :     return (_subborrow_u32(borrow, u, v, w));

	sbb	ecx, edx
	mov	DWORD PTR [rax+20], ecx

; 640  :     return (_FROMDWORDTOWORD((_UINT64_T)u * v, w_hi));

	mov	edx, DWORD PTR [rbx+24]

; 558  :     return (_subborrow_u32(borrow, u, v, w));

	setb	r8b

; 640  :     return (_FROMDWORDTOWORD((_UINT64_T)u * v, w_hi));

	imul	rdx, rsi

; 459  :     *result_high = (_UINT32_T)(value >> 32);

	mov	r10, rdx
; File z:\sources\lunor\repos\rougemeilland\palmtree.math.core.implements\palmtree.math.core.implements\pmc_divrem.c

; 447  :     c = _SUBTRUCT_UNIT_DIV(c, *up, t_lo, up);

	mov	ecx, DWORD PTR [rax+24]
; File z:\sources\lunor\repos\rougemeilland\palmtree.math.core.implements\palmtree.math.core.implements\pmc_internal.h

; 459  :     *result_high = (_UINT32_T)(value >> 32);

	shr	r10, 32					; 00000020H

; 530  :     return (_addcarryx_u32(carry, u, v, w));

	add	edx, r11d
	mov	DWORD PTR t_lo$10[rsp], edx
	adcx	r10d, edi

; 558  :     return (_subborrow_u32(borrow, u, v, w));

	add	r8b, -1

; 530  :     return (_addcarryx_u32(carry, u, v, w));

	mov	DWORD PTR t_hi$88[rbp-256], r10d

; 558  :     return (_subborrow_u32(borrow, u, v, w));

	sbb	ecx, edx
	mov	DWORD PTR [rax+24], ecx

; 640  :     return (_FROMDWORDTOWORD((_UINT64_T)u * v, w_hi));

	mov	edx, DWORD PTR [rbx+28]

; 558  :     return (_subborrow_u32(borrow, u, v, w));

	setb	r8b
; File z:\sources\lunor\repos\rougemeilland\palmtree.math.core.implements\palmtree.math.core.implements\pmc_divrem.c

; 447  :     c = _SUBTRUCT_UNIT_DIV(c, *up, t_lo, up);

	mov	ecx, DWORD PTR [rax+28]
; File z:\sources\lunor\repos\rougemeilland\palmtree.math.core.implements\palmtree.math.core.implements\pmc_internal.h

; 640  :     return (_FROMDWORDTOWORD((_UINT64_T)u * v, w_hi));

	imul	rdx, rsi

; 459  :     *result_high = (_UINT32_T)(value >> 32);

	mov	r9, rdx
	shr	r9, 32					; 00000020H

; 530  :     return (_addcarryx_u32(carry, u, v, w));

	add	edx, r10d
	mov	DWORD PTR t_lo$89[rbp-256], edx
	adcx	r9d, edi

; 558  :     return (_subborrow_u32(borrow, u, v, w));

	add	r8b, -1

; 530  :     return (_addcarryx_u32(carry, u, v, w));

	mov	DWORD PTR t_hi$90[rbp-256], r9d

; 558  :     return (_subborrow_u32(borrow, u, v, w));

	sbb	ecx, edx
	mov	DWORD PTR [rax+28], ecx

; 640  :     return (_FROMDWORDTOWORD((_UINT64_T)u * v, w_hi));

	mov	edx, DWORD PTR [rbx+32]

; 558  :     return (_subborrow_u32(borrow, u, v, w));

	setb	r8b
; File z:\sources\lunor\repos\rougemeilland\palmtree.math.core.implements\palmtree.math.core.implements\pmc_divrem.c

; 447  :     c = _SUBTRUCT_UNIT_DIV(c, *up, t_lo, up);

	mov	ecx, DWORD PTR [rax+32]
; File z:\sources\lunor\repos\rougemeilland\palmtree.math.core.implements\palmtree.math.core.implements\pmc_internal.h

; 640  :     return (_FROMDWORDTOWORD((_UINT64_T)u * v, w_hi));

	imul	rdx, rsi

; 459  :     *result_high = (_UINT32_T)(value >> 32);

	mov	r10, rdx
	shr	r10, 32					; 00000020H

; 530  :     return (_addcarryx_u32(carry, u, v, w));

	add	edx, r9d
	mov	DWORD PTR t_lo$91[rbp-256], edx
	adcx	r10d, edi

; 558  :     return (_subborrow_u32(borrow, u, v, w));

	add	r8b, -1

; 530  :     return (_addcarryx_u32(carry, u, v, w));

	mov	DWORD PTR t_hi$92[rbp-256], r10d

; 558  :     return (_subborrow_u32(borrow, u, v, w));

	sbb	ecx, edx
	mov	DWORD PTR [rax+32], ecx

; 640  :     return (_FROMDWORDTOWORD((_UINT64_T)u * v, w_hi));

	mov	edx, DWORD PTR [rbx+36]

; 558  :     return (_subborrow_u32(borrow, u, v, w));

	setb	r8b
; File z:\sources\lunor\repos\rougemeilland\palmtree.math.core.implements\palmtree.math.core.implements\pmc_divrem.c

; 447  :     c = _SUBTRUCT_UNIT_DIV(c, *up, t_lo, up);

	mov	ecx, DWORD PTR [rax+36]
; File z:\sources\lunor\repos\rougemeilland\palmtree.math.core.implements\palmtree.math.core.implements\pmc_internal.h

; 640  :     return (_FROMDWORDTOWORD((_UINT64_T)u * v, w_hi));

	imul	rdx, rsi

; 459  :     *result_high = (_UINT32_T)(value >> 32);

	mov	r9, rdx
	shr	r9, 32					; 00000020H

; 530  :     return (_addcarryx_u32(carry, u, v, w));

	add	edx, r10d
	mov	DWORD PTR t_lo$93[rbp-256], edx
	adcx	r9d, edi

; 558  :     return (_subborrow_u32(borrow, u, v, w));

	add	r8b, -1

; 530  :     return (_addcarryx_u32(carry, u, v, w));

	mov	DWORD PTR t_hi$94[rbp-256], r9d

; 558  :     return (_subborrow_u32(borrow, u, v, w));

	sbb	ecx, edx
	mov	DWORD PTR [rax+36], ecx

; 640  :     return (_FROMDWORDTOWORD((_UINT64_T)u * v, w_hi));

	mov	edx, DWORD PTR [rbx+40]

; 558  :     return (_subborrow_u32(borrow, u, v, w));

	setb	r8b
; File z:\sources\lunor\repos\rougemeilland\palmtree.math.core.implements\palmtree.math.core.implements\pmc_divrem.c

; 447  :     c = _SUBTRUCT_UNIT_DIV(c, *up, t_lo, up);

	mov	ecx, DWORD PTR [rax+40]
; File z:\sources\lunor\repos\rougemeilland\palmtree.math.core.implements\palmtree.math.core.implements\pmc_internal.h

; 640  :     return (_FROMDWORDTOWORD((_UINT64_T)u * v, w_hi));

	imul	rdx, rsi

; 459  :     *result_high = (_UINT32_T)(value >> 32);

	mov	r10, rdx
	shr	r10, 32					; 00000020H

; 530  :     return (_addcarryx_u32(carry, u, v, w));

	add	edx, r9d
	mov	DWORD PTR t_lo$95[rbp-256], edx
	adcx	r10d, edi

; 558  :     return (_subborrow_u32(borrow, u, v, w));

	add	r8b, -1

; 530  :     return (_addcarryx_u32(carry, u, v, w));

	mov	DWORD PTR t_hi$96[rbp-256], r10d

; 558  :     return (_subborrow_u32(borrow, u, v, w));

	sbb	ecx, edx
	mov	DWORD PTR [rax+40], ecx

; 640  :     return (_FROMDWORDTOWORD((_UINT64_T)u * v, w_hi));

	mov	edx, DWORD PTR [rbx+44]

; 558  :     return (_subborrow_u32(borrow, u, v, w));

	setb	r8b
; File z:\sources\lunor\repos\rougemeilland\palmtree.math.core.implements\palmtree.math.core.implements\pmc_divrem.c

; 447  :     c = _SUBTRUCT_UNIT_DIV(c, *up, t_lo, up);

	mov	ecx, DWORD PTR [rax+44]
; File z:\sources\lunor\repos\rougemeilland\palmtree.math.core.implements\palmtree.math.core.implements\pmc_internal.h

; 640  :     return (_FROMDWORDTOWORD((_UINT64_T)u * v, w_hi));

	imul	rdx, rsi

; 459  :     *result_high = (_UINT32_T)(value >> 32);

	mov	r9, rdx
	shr	r9, 32					; 00000020H

; 530  :     return (_addcarryx_u32(carry, u, v, w));

	add	edx, r10d
	mov	DWORD PTR t_lo$97[rbp-256], edx
	adcx	r9d, edi

; 558  :     return (_subborrow_u32(borrow, u, v, w));

	add	r8b, -1

; 530  :     return (_addcarryx_u32(carry, u, v, w));

	mov	DWORD PTR t_hi$98[rbp-256], r9d

; 558  :     return (_subborrow_u32(borrow, u, v, w));

	sbb	ecx, edx
	mov	DWORD PTR [rax+44], ecx

; 640  :     return (_FROMDWORDTOWORD((_UINT64_T)u * v, w_hi));

	mov	edx, DWORD PTR [rbx+48]

; 558  :     return (_subborrow_u32(borrow, u, v, w));

	setb	r8b

; 640  :     return (_FROMDWORDTOWORD((_UINT64_T)u * v, w_hi));

	imul	rdx, rsi

; 459  :     *result_high = (_UINT32_T)(value >> 32);

	mov	r10, rdx
	shr	r10, 32					; 00000020H

; 530  :     return (_addcarryx_u32(carry, u, v, w));

	add	edx, r9d
	mov	DWORD PTR t_lo$99[rbp-256], edx
; File z:\sources\lunor\repos\rougemeilland\palmtree.math.core.implements\palmtree.math.core.implements\pmc_divrem.c

; 447  :     c = _SUBTRUCT_UNIT_DIV(c, *up, t_lo, up);

	mov	ecx, DWORD PTR [rax+48]
; File z:\sources\lunor\repos\rougemeilland\palmtree.math.core.implements\palmtree.math.core.implements\pmc_internal.h

; 530  :     return (_addcarryx_u32(carry, u, v, w));

	adcx	r10d, edi

; 558  :     return (_subborrow_u32(borrow, u, v, w));

	add	r8b, -1

; 530  :     return (_addcarryx_u32(carry, u, v, w));

	mov	DWORD PTR t_hi$100[rbp-256], r10d

; 558  :     return (_subborrow_u32(borrow, u, v, w));

	sbb	ecx, edx
	mov	DWORD PTR [rax+48], ecx

; 640  :     return (_FROMDWORDTOWORD((_UINT64_T)u * v, w_hi));

	mov	edx, DWORD PTR [rbx+52]

; 558  :     return (_subborrow_u32(borrow, u, v, w));

	setb	r8b
; File z:\sources\lunor\repos\rougemeilland\palmtree.math.core.implements\palmtree.math.core.implements\pmc_divrem.c

; 447  :     c = _SUBTRUCT_UNIT_DIV(c, *up, t_lo, up);

	mov	ecx, DWORD PTR [rax+52]
; File z:\sources\lunor\repos\rougemeilland\palmtree.math.core.implements\palmtree.math.core.implements\pmc_internal.h

; 640  :     return (_FROMDWORDTOWORD((_UINT64_T)u * v, w_hi));

	imul	rdx, rsi

; 459  :     *result_high = (_UINT32_T)(value >> 32);

	mov	r9, rdx
	shr	r9, 32					; 00000020H

; 530  :     return (_addcarryx_u32(carry, u, v, w));

	add	edx, r10d
	mov	DWORD PTR t_lo$101[rbp-256], edx
	adcx	r9d, edi

; 558  :     return (_subborrow_u32(borrow, u, v, w));

	add	r8b, -1

; 530  :     return (_addcarryx_u32(carry, u, v, w));

	mov	DWORD PTR t_hi$102[rbp-256], r9d

; 558  :     return (_subborrow_u32(borrow, u, v, w));

	sbb	ecx, edx
	mov	DWORD PTR [rax+52], ecx

; 640  :     return (_FROMDWORDTOWORD((_UINT64_T)u * v, w_hi));

	mov	edx, DWORD PTR [rbx+56]

; 558  :     return (_subborrow_u32(borrow, u, v, w));

	setb	r8b
; File z:\sources\lunor\repos\rougemeilland\palmtree.math.core.implements\palmtree.math.core.implements\pmc_divrem.c

; 447  :     c = _SUBTRUCT_UNIT_DIV(c, *up, t_lo, up);

	mov	ecx, DWORD PTR [rax+56]
; File z:\sources\lunor\repos\rougemeilland\palmtree.math.core.implements\palmtree.math.core.implements\pmc_internal.h

; 640  :     return (_FROMDWORDTOWORD((_UINT64_T)u * v, w_hi));

	imul	rdx, rsi

; 459  :     *result_high = (_UINT32_T)(value >> 32);

	mov	r10, rdx
	shr	r10, 32					; 00000020H

; 530  :     return (_addcarryx_u32(carry, u, v, w));

	add	edx, r9d
	mov	DWORD PTR t_lo$103[rbp-256], edx
	adcx	r10d, edi

; 558  :     return (_subborrow_u32(borrow, u, v, w));

	add	r8b, -1

; 530  :     return (_addcarryx_u32(carry, u, v, w));

	mov	DWORD PTR t_hi$104[rbp-256], r10d

; 558  :     return (_subborrow_u32(borrow, u, v, w));

	sbb	ecx, edx
	mov	DWORD PTR [rax+56], ecx

; 640  :     return (_FROMDWORDTOWORD((_UINT64_T)u * v, w_hi));

	mov	edx, DWORD PTR [rbx+60]

; 558  :     return (_subborrow_u32(borrow, u, v, w));

	setb	r9b
; File z:\sources\lunor\repos\rougemeilland\palmtree.math.core.implements\palmtree.math.core.implements\pmc_divrem.c

; 447  :     c = _SUBTRUCT_UNIT_DIV(c, *up, t_lo, up);

	mov	ecx, DWORD PTR [rax+60]
; File z:\sources\lunor\repos\rougemeilland\palmtree.math.core.implements\palmtree.math.core.implements\pmc_internal.h

; 640  :     return (_FROMDWORDTOWORD((_UINT64_T)u * v, w_hi));

	imul	rdx, rsi

; 459  :     *result_high = (_UINT32_T)(value >> 32);

	mov	r8, rdx
	shr	r8, 32					; 00000020H

; 530  :     return (_addcarryx_u32(carry, u, v, w));

	add	edx, r10d
	mov	DWORD PTR t_lo$105[rbp-256], edx
	adcx	r8d, edi

; 558  :     return (_subborrow_u32(borrow, u, v, w));

	add	r9b, -1

; 530  :     return (_addcarryx_u32(carry, u, v, w));

	mov	DWORD PTR t_hi$106[rbp-256], r8d
; File z:\sources\lunor\repos\rougemeilland\palmtree.math.core.implements\palmtree.math.core.implements\pmc_divrem.c

; 448  :     *k = t_hi;

	mov	r14d, r8d
; File z:\sources\lunor\repos\rougemeilland\palmtree.math.core.implements\palmtree.math.core.implements\pmc_internal.h

; 558  :     return (_subborrow_u32(borrow, u, v, w));

	sbb	ecx, edx
	mov	DWORD PTR [rax+60], ecx

; 1097 :     _InterlockedExchangeAdd(&statistics_info.COUNT_MULTI32, value);

	mov	ecx, 16

; 558  :     return (_subborrow_u32(borrow, u, v, w));

	setb	r11b
; File z:\sources\lunor\repos\rougemeilland\palmtree.math.core.implements\palmtree.math.core.implements\pmc_divrem.c

; 676  :         u_ptr += 16;

	add	rax, 64					; 00000040H

; 677  :         v_ptr += 16;

	add	rbx, 64					; 00000040H
; File z:\sources\lunor\repos\rougemeilland\palmtree.math.core.implements\palmtree.math.core.implements\pmc_internal.h

; 1097 :     _InterlockedExchangeAdd(&statistics_info.COUNT_MULTI32, value);

	lock xadd DWORD PTR statistics_info+4, ecx
$LN604@SubtructOn:
; File z:\sources\lunor\repos\rougemeilland\palmtree.math.core.implements\palmtree.math.core.implements\pmc_divrem.c

; 686  :     if (v_count & 0x8)

	test	r15b, 8
	je	$LN704@SubtructOn
; File z:\sources\lunor\repos\rougemeilland\palmtree.math.core.implements\palmtree.math.core.implements\pmc_internal.h

; 640  :     return (_FROMDWORDTOWORD((_UINT64_T)u * v, w_hi));

	mov	edx, DWORD PTR [rbx]
; File z:\sources\lunor\repos\rougemeilland\palmtree.math.core.implements\palmtree.math.core.implements\pmc_divrem.c

; 447  :     c = _SUBTRUCT_UNIT_DIV(c, *up, t_lo, up);

	mov	ecx, DWORD PTR [rax]
; File z:\sources\lunor\repos\rougemeilland\palmtree.math.core.implements\palmtree.math.core.implements\pmc_internal.h

; 640  :     return (_FROMDWORDTOWORD((_UINT64_T)u * v, w_hi));

	imul	rdx, rsi

; 459  :     *result_high = (_UINT32_T)(value >> 32);

	mov	r9, rdx
	shr	r9, 32					; 00000020H

; 530  :     return (_addcarryx_u32(carry, u, v, w));

	add	edx, r14d
	mov	DWORD PTR t_lo$11[rsp], edx
	adcx	r9d, edi

; 558  :     return (_subborrow_u32(borrow, u, v, w));

	add	r11b, -1

; 530  :     return (_addcarryx_u32(carry, u, v, w));

	mov	DWORD PTR t_hi$107[rbp-256], r9d

; 558  :     return (_subborrow_u32(borrow, u, v, w));

	sbb	ecx, edx
	mov	DWORD PTR [rax], ecx

; 640  :     return (_FROMDWORDTOWORD((_UINT64_T)u * v, w_hi));

	mov	edx, DWORD PTR [rbx+4]

; 558  :     return (_subborrow_u32(borrow, u, v, w));

	setb	r8b
; File z:\sources\lunor\repos\rougemeilland\palmtree.math.core.implements\palmtree.math.core.implements\pmc_divrem.c

; 447  :     c = _SUBTRUCT_UNIT_DIV(c, *up, t_lo, up);

	mov	ecx, DWORD PTR [rax+4]
; File z:\sources\lunor\repos\rougemeilland\palmtree.math.core.implements\palmtree.math.core.implements\pmc_internal.h

; 640  :     return (_FROMDWORDTOWORD((_UINT64_T)u * v, w_hi));

	imul	rdx, rsi

; 459  :     *result_high = (_UINT32_T)(value >> 32);

	mov	r10, rdx
	shr	r10, 32					; 00000020H

; 530  :     return (_addcarryx_u32(carry, u, v, w));

	add	edx, r9d
	mov	DWORD PTR t_lo$12[rsp], edx
	adcx	r10d, edi

; 558  :     return (_subborrow_u32(borrow, u, v, w));

	add	r8b, -1

; 530  :     return (_addcarryx_u32(carry, u, v, w));

	mov	DWORD PTR t_hi$108[rbp-256], r10d

; 558  :     return (_subborrow_u32(borrow, u, v, w));

	sbb	ecx, edx
	mov	DWORD PTR [rax+4], ecx

; 640  :     return (_FROMDWORDTOWORD((_UINT64_T)u * v, w_hi));

	mov	edx, DWORD PTR [rbx+8]

; 558  :     return (_subborrow_u32(borrow, u, v, w));

	setb	r8b
; File z:\sources\lunor\repos\rougemeilland\palmtree.math.core.implements\palmtree.math.core.implements\pmc_divrem.c

; 447  :     c = _SUBTRUCT_UNIT_DIV(c, *up, t_lo, up);

	mov	ecx, DWORD PTR [rax+8]
; File z:\sources\lunor\repos\rougemeilland\palmtree.math.core.implements\palmtree.math.core.implements\pmc_internal.h

; 640  :     return (_FROMDWORDTOWORD((_UINT64_T)u * v, w_hi));

	imul	rdx, rsi

; 459  :     *result_high = (_UINT32_T)(value >> 32);

	mov	r9, rdx
	shr	r9, 32					; 00000020H

; 530  :     return (_addcarryx_u32(carry, u, v, w));

	add	edx, r10d
	mov	DWORD PTR t_lo$13[rsp], edx
	adcx	r9d, edi

; 558  :     return (_subborrow_u32(borrow, u, v, w));

	add	r8b, -1

; 530  :     return (_addcarryx_u32(carry, u, v, w));

	mov	DWORD PTR t_hi$109[rbp-256], r9d

; 558  :     return (_subborrow_u32(borrow, u, v, w));

	sbb	ecx, edx
	mov	DWORD PTR [rax+8], ecx

; 640  :     return (_FROMDWORDTOWORD((_UINT64_T)u * v, w_hi));

	mov	edx, DWORD PTR [rbx+12]

; 558  :     return (_subborrow_u32(borrow, u, v, w));

	setb	r8b
; File z:\sources\lunor\repos\rougemeilland\palmtree.math.core.implements\palmtree.math.core.implements\pmc_divrem.c

; 447  :     c = _SUBTRUCT_UNIT_DIV(c, *up, t_lo, up);

	mov	ecx, DWORD PTR [rax+12]
; File z:\sources\lunor\repos\rougemeilland\palmtree.math.core.implements\palmtree.math.core.implements\pmc_internal.h

; 640  :     return (_FROMDWORDTOWORD((_UINT64_T)u * v, w_hi));

	imul	rdx, rsi

; 459  :     *result_high = (_UINT32_T)(value >> 32);

	mov	r10, rdx
	shr	r10, 32					; 00000020H

; 530  :     return (_addcarryx_u32(carry, u, v, w));

	add	edx, r9d
	mov	DWORD PTR t_lo$14[rsp], edx
	adcx	r10d, edi

; 558  :     return (_subborrow_u32(borrow, u, v, w));

	add	r8b, -1

; 530  :     return (_addcarryx_u32(carry, u, v, w));

	mov	DWORD PTR t_hi$110[rbp-256], r10d

; 558  :     return (_subborrow_u32(borrow, u, v, w));

	sbb	ecx, edx
	mov	DWORD PTR [rax+12], ecx

; 640  :     return (_FROMDWORDTOWORD((_UINT64_T)u * v, w_hi));

	mov	edx, DWORD PTR [rbx+16]

; 558  :     return (_subborrow_u32(borrow, u, v, w));

	setb	r8b
; File z:\sources\lunor\repos\rougemeilland\palmtree.math.core.implements\palmtree.math.core.implements\pmc_divrem.c

; 447  :     c = _SUBTRUCT_UNIT_DIV(c, *up, t_lo, up);

	mov	ecx, DWORD PTR [rax+16]
; File z:\sources\lunor\repos\rougemeilland\palmtree.math.core.implements\palmtree.math.core.implements\pmc_internal.h

; 640  :     return (_FROMDWORDTOWORD((_UINT64_T)u * v, w_hi));

	imul	rdx, rsi

; 459  :     *result_high = (_UINT32_T)(value >> 32);

	mov	r9, rdx
	shr	r9, 32					; 00000020H

; 530  :     return (_addcarryx_u32(carry, u, v, w));

	add	edx, r10d
	mov	DWORD PTR t_lo$15[rsp], edx
	adcx	r9d, edi

; 558  :     return (_subborrow_u32(borrow, u, v, w));

	add	r8b, -1

; 530  :     return (_addcarryx_u32(carry, u, v, w));

	mov	DWORD PTR t_hi$111[rbp-256], r9d

; 558  :     return (_subborrow_u32(borrow, u, v, w));

	sbb	ecx, edx
	mov	DWORD PTR [rax+16], ecx

; 640  :     return (_FROMDWORDTOWORD((_UINT64_T)u * v, w_hi));

	mov	edx, DWORD PTR [rbx+20]

; 558  :     return (_subborrow_u32(borrow, u, v, w));

	setb	r8b
; File z:\sources\lunor\repos\rougemeilland\palmtree.math.core.implements\palmtree.math.core.implements\pmc_divrem.c

; 447  :     c = _SUBTRUCT_UNIT_DIV(c, *up, t_lo, up);

	mov	ecx, DWORD PTR [rax+20]
; File z:\sources\lunor\repos\rougemeilland\palmtree.math.core.implements\palmtree.math.core.implements\pmc_internal.h

; 640  :     return (_FROMDWORDTOWORD((_UINT64_T)u * v, w_hi));

	imul	rdx, rsi

; 459  :     *result_high = (_UINT32_T)(value >> 32);

	mov	r11, rdx
	shr	r11, 32					; 00000020H

; 530  :     return (_addcarryx_u32(carry, u, v, w));

	add	edx, r9d
	mov	DWORD PTR t_lo$16[rsp], edx
	adcx	r11d, edi

; 558  :     return (_subborrow_u32(borrow, u, v, w));

	add	r8b, -1

; 530  :     return (_addcarryx_u32(carry, u, v, w));

	mov	DWORD PTR t_hi$112[rbp-256], r11d

; 558  :     return (_subborrow_u32(borrow, u, v, w));

	sbb	ecx, edx
	mov	DWORD PTR [rax+20], ecx

; 640  :     return (_FROMDWORDTOWORD((_UINT64_T)u * v, w_hi));

	mov	edx, DWORD PTR [rbx+24]

; 558  :     return (_subborrow_u32(borrow, u, v, w));

	setb	r8b

; 640  :     return (_FROMDWORDTOWORD((_UINT64_T)u * v, w_hi));

	imul	rdx, rsi

; 459  :     *result_high = (_UINT32_T)(value >> 32);

	mov	r10, rdx
; File z:\sources\lunor\repos\rougemeilland\palmtree.math.core.implements\palmtree.math.core.implements\pmc_divrem.c

; 447  :     c = _SUBTRUCT_UNIT_DIV(c, *up, t_lo, up);

	mov	ecx, DWORD PTR [rax+24]
; File z:\sources\lunor\repos\rougemeilland\palmtree.math.core.implements\palmtree.math.core.implements\pmc_internal.h

; 459  :     *result_high = (_UINT32_T)(value >> 32);

	shr	r10, 32					; 00000020H

; 530  :     return (_addcarryx_u32(carry, u, v, w));

	add	edx, r11d
	mov	DWORD PTR t_lo$17[rsp], edx
	adcx	r10d, edi

; 558  :     return (_subborrow_u32(borrow, u, v, w));

	add	r8b, -1

; 530  :     return (_addcarryx_u32(carry, u, v, w));

	mov	DWORD PTR t_hi$113[rbp-256], r10d

; 558  :     return (_subborrow_u32(borrow, u, v, w));

	sbb	ecx, edx
	mov	DWORD PTR [rax+24], ecx

; 640  :     return (_FROMDWORDTOWORD((_UINT64_T)u * v, w_hi));

	mov	edx, DWORD PTR [rbx+28]

; 558  :     return (_subborrow_u32(borrow, u, v, w));

	setb	r9b
; File z:\sources\lunor\repos\rougemeilland\palmtree.math.core.implements\palmtree.math.core.implements\pmc_divrem.c

; 447  :     c = _SUBTRUCT_UNIT_DIV(c, *up, t_lo, up);

	mov	ecx, DWORD PTR [rax+28]
; File z:\sources\lunor\repos\rougemeilland\palmtree.math.core.implements\palmtree.math.core.implements\pmc_internal.h

; 640  :     return (_FROMDWORDTOWORD((_UINT64_T)u * v, w_hi));

	imul	rdx, rsi

; 459  :     *result_high = (_UINT32_T)(value >> 32);

	mov	r8, rdx
	shr	r8, 32					; 00000020H

; 530  :     return (_addcarryx_u32(carry, u, v, w));

	add	edx, r10d
	mov	DWORD PTR t_lo$114[rbp-256], edx
	adcx	r8d, edi

; 558  :     return (_subborrow_u32(borrow, u, v, w));

	add	r9b, -1

; 530  :     return (_addcarryx_u32(carry, u, v, w));

	mov	DWORD PTR t_hi$115[rbp-256], r8d
; File z:\sources\lunor\repos\rougemeilland\palmtree.math.core.implements\palmtree.math.core.implements\pmc_divrem.c

; 448  :     *k = t_hi;

	mov	r14d, r8d
; File z:\sources\lunor\repos\rougemeilland\palmtree.math.core.implements\palmtree.math.core.implements\pmc_internal.h

; 558  :     return (_subborrow_u32(borrow, u, v, w));

	sbb	ecx, edx
	mov	DWORD PTR [rax+28], ecx

; 1097 :     _InterlockedExchangeAdd(&statistics_info.COUNT_MULTI32, value);

	mov	ecx, 8

; 558  :     return (_subborrow_u32(borrow, u, v, w));

	setb	r11b
; File z:\sources\lunor\repos\rougemeilland\palmtree.math.core.implements\palmtree.math.core.implements\pmc_divrem.c

; 696  :         u_ptr += 8;

	add	rax, 32					; 00000020H

; 697  :         v_ptr += 8;

	add	rbx, 32					; 00000020H
; File z:\sources\lunor\repos\rougemeilland\palmtree.math.core.implements\palmtree.math.core.implements\pmc_internal.h

; 1097 :     _InterlockedExchangeAdd(&statistics_info.COUNT_MULTI32, value);

	lock xadd DWORD PTR statistics_info+4, ecx
$LN704@SubtructOn:
; File z:\sources\lunor\repos\rougemeilland\palmtree.math.core.implements\palmtree.math.core.implements\pmc_divrem.c

; 706  :     if (v_count & 0x4)

	test	r15b, 4
	je	$LN756@SubtructOn
; File z:\sources\lunor\repos\rougemeilland\palmtree.math.core.implements\palmtree.math.core.implements\pmc_internal.h

; 640  :     return (_FROMDWORDTOWORD((_UINT64_T)u * v, w_hi));

	mov	edx, DWORD PTR [rbx]
; File z:\sources\lunor\repos\rougemeilland\palmtree.math.core.implements\palmtree.math.core.implements\pmc_divrem.c

; 447  :     c = _SUBTRUCT_UNIT_DIV(c, *up, t_lo, up);

	mov	ecx, DWORD PTR [rax]
; File z:\sources\lunor\repos\rougemeilland\palmtree.math.core.implements\palmtree.math.core.implements\pmc_internal.h

; 640  :     return (_FROMDWORDTOWORD((_UINT64_T)u * v, w_hi));

	imul	rdx, rsi

; 459  :     *result_high = (_UINT32_T)(value >> 32);

	mov	r9, rdx
	shr	r9, 32					; 00000020H

; 530  :     return (_addcarryx_u32(carry, u, v, w));

	add	edx, r14d
	mov	DWORD PTR t_lo$18[rsp], edx
	adcx	r9d, edi

; 558  :     return (_subborrow_u32(borrow, u, v, w));

	add	r11b, -1

; 530  :     return (_addcarryx_u32(carry, u, v, w));

	mov	DWORD PTR t_hi$116[rbp-256], r9d

; 558  :     return (_subborrow_u32(borrow, u, v, w));

	sbb	ecx, edx
	mov	DWORD PTR [rax], ecx

; 640  :     return (_FROMDWORDTOWORD((_UINT64_T)u * v, w_hi));

	mov	edx, DWORD PTR [rbx+4]

; 558  :     return (_subborrow_u32(borrow, u, v, w));

	setb	r8b
; File z:\sources\lunor\repos\rougemeilland\palmtree.math.core.implements\palmtree.math.core.implements\pmc_divrem.c

; 447  :     c = _SUBTRUCT_UNIT_DIV(c, *up, t_lo, up);

	mov	ecx, DWORD PTR [rax+4]
; File z:\sources\lunor\repos\rougemeilland\palmtree.math.core.implements\palmtree.math.core.implements\pmc_internal.h

; 640  :     return (_FROMDWORDTOWORD((_UINT64_T)u * v, w_hi));

	imul	rdx, rsi

; 459  :     *result_high = (_UINT32_T)(value >> 32);

	mov	r10, rdx
	shr	r10, 32					; 00000020H

; 530  :     return (_addcarryx_u32(carry, u, v, w));

	add	edx, r9d
	mov	DWORD PTR t_lo$19[rsp], edx
	adcx	r10d, edi

; 558  :     return (_subborrow_u32(borrow, u, v, w));

	add	r8b, -1

; 530  :     return (_addcarryx_u32(carry, u, v, w));

	mov	DWORD PTR t_hi$117[rbp-256], r10d

; 558  :     return (_subborrow_u32(borrow, u, v, w));

	sbb	ecx, edx
	mov	DWORD PTR [rax+4], ecx

; 640  :     return (_FROMDWORDTOWORD((_UINT64_T)u * v, w_hi));

	mov	edx, DWORD PTR [rbx+8]

; 558  :     return (_subborrow_u32(borrow, u, v, w));

	setb	r8b
; File z:\sources\lunor\repos\rougemeilland\palmtree.math.core.implements\palmtree.math.core.implements\pmc_divrem.c

; 447  :     c = _SUBTRUCT_UNIT_DIV(c, *up, t_lo, up);

	mov	ecx, DWORD PTR [rax+8]
; File z:\sources\lunor\repos\rougemeilland\palmtree.math.core.implements\palmtree.math.core.implements\pmc_internal.h

; 640  :     return (_FROMDWORDTOWORD((_UINT64_T)u * v, w_hi));

	imul	rdx, rsi

; 459  :     *result_high = (_UINT32_T)(value >> 32);

	mov	r11, rdx
	shr	r11, 32					; 00000020H

; 530  :     return (_addcarryx_u32(carry, u, v, w));

	add	edx, r10d
	mov	DWORD PTR t_lo$20[rsp], edx
	adcx	r11d, edi

; 558  :     return (_subborrow_u32(borrow, u, v, w));

	add	r8b, -1

; 530  :     return (_addcarryx_u32(carry, u, v, w));

	mov	DWORD PTR t_hi$118[rbp-256], r11d

; 558  :     return (_subborrow_u32(borrow, u, v, w));

	sbb	ecx, edx
	mov	DWORD PTR [rax+8], ecx

; 640  :     return (_FROMDWORDTOWORD((_UINT64_T)u * v, w_hi));

	mov	edx, DWORD PTR [rbx+12]

; 558  :     return (_subborrow_u32(borrow, u, v, w));

	setb	r9b
; File z:\sources\lunor\repos\rougemeilland\palmtree.math.core.implements\palmtree.math.core.implements\pmc_divrem.c

; 447  :     c = _SUBTRUCT_UNIT_DIV(c, *up, t_lo, up);

	mov	ecx, DWORD PTR [rax+12]
; File z:\sources\lunor\repos\rougemeilland\palmtree.math.core.implements\palmtree.math.core.implements\pmc_internal.h

; 640  :     return (_FROMDWORDTOWORD((_UINT64_T)u * v, w_hi));

	imul	rdx, rsi

; 459  :     *result_high = (_UINT32_T)(value >> 32);

	mov	r8, rdx
	shr	r8, 32					; 00000020H

; 530  :     return (_addcarryx_u32(carry, u, v, w));

	add	edx, r11d
	mov	DWORD PTR t_lo$21[rsp], edx
	adcx	r8d, edi

; 558  :     return (_subborrow_u32(borrow, u, v, w));

	add	r9b, -1

; 530  :     return (_addcarryx_u32(carry, u, v, w));

	mov	DWORD PTR t_hi$119[rbp-256], r8d
; File z:\sources\lunor\repos\rougemeilland\palmtree.math.core.implements\palmtree.math.core.implements\pmc_divrem.c

; 448  :     *k = t_hi;

	mov	r14d, r8d
; File z:\sources\lunor\repos\rougemeilland\palmtree.math.core.implements\palmtree.math.core.implements\pmc_internal.h

; 558  :     return (_subborrow_u32(borrow, u, v, w));

	sbb	ecx, edx
	mov	DWORD PTR [rax+12], ecx

; 1097 :     _InterlockedExchangeAdd(&statistics_info.COUNT_MULTI32, value);

	mov	ecx, 4

; 558  :     return (_subborrow_u32(borrow, u, v, w));

	setb	r11b
; File z:\sources\lunor\repos\rougemeilland\palmtree.math.core.implements\palmtree.math.core.implements\pmc_divrem.c

; 712  :         u_ptr += 4;

	add	rax, 16

; 713  :         v_ptr += 4;

	add	rbx, 16
; File z:\sources\lunor\repos\rougemeilland\palmtree.math.core.implements\palmtree.math.core.implements\pmc_internal.h

; 1097 :     _InterlockedExchangeAdd(&statistics_info.COUNT_MULTI32, value);

	lock xadd DWORD PTR statistics_info+4, ecx
$LN756@SubtructOn:
; File z:\sources\lunor\repos\rougemeilland\palmtree.math.core.implements\palmtree.math.core.implements\pmc_divrem.c

; 722  :     if (v_count & 0x2)

	test	r15b, 2
	je	SHORT $LN784@SubtructOn
; File z:\sources\lunor\repos\rougemeilland\palmtree.math.core.implements\palmtree.math.core.implements\pmc_internal.h

; 640  :     return (_FROMDWORDTOWORD((_UINT64_T)u * v, w_hi));

	mov	edx, DWORD PTR [rbx]
; File z:\sources\lunor\repos\rougemeilland\palmtree.math.core.implements\palmtree.math.core.implements\pmc_divrem.c

; 447  :     c = _SUBTRUCT_UNIT_DIV(c, *up, t_lo, up);

	mov	ecx, DWORD PTR [rax]
; File z:\sources\lunor\repos\rougemeilland\palmtree.math.core.implements\palmtree.math.core.implements\pmc_internal.h

; 640  :     return (_FROMDWORDTOWORD((_UINT64_T)u * v, w_hi));

	imul	rdx, rsi

; 459  :     *result_high = (_UINT32_T)(value >> 32);

	mov	r10, rdx
	shr	r10, 32					; 00000020H

; 530  :     return (_addcarryx_u32(carry, u, v, w));

	add	edx, r14d
	mov	DWORD PTR t_lo$22[rsp], edx
	adcx	r10d, edi

; 558  :     return (_subborrow_u32(borrow, u, v, w));

	add	r11b, -1

; 530  :     return (_addcarryx_u32(carry, u, v, w));

	mov	DWORD PTR t_hi$120[rbp-256], r10d

; 558  :     return (_subborrow_u32(borrow, u, v, w));

	sbb	ecx, edx
	mov	DWORD PTR [rax], ecx

; 640  :     return (_FROMDWORDTOWORD((_UINT64_T)u * v, w_hi));

	mov	edx, DWORD PTR [rbx+4]

; 558  :     return (_subborrow_u32(borrow, u, v, w));

	setb	r9b
; File z:\sources\lunor\repos\rougemeilland\palmtree.math.core.implements\palmtree.math.core.implements\pmc_divrem.c

; 447  :     c = _SUBTRUCT_UNIT_DIV(c, *up, t_lo, up);

	mov	ecx, DWORD PTR [rax+4]
; File z:\sources\lunor\repos\rougemeilland\palmtree.math.core.implements\palmtree.math.core.implements\pmc_internal.h

; 640  :     return (_FROMDWORDTOWORD((_UINT64_T)u * v, w_hi));

	imul	rdx, rsi

; 459  :     *result_high = (_UINT32_T)(value >> 32);

	mov	r8, rdx
	shr	r8, 32					; 00000020H

; 530  :     return (_addcarryx_u32(carry, u, v, w));

	add	edx, r10d
	mov	DWORD PTR t_lo$23[rsp], edx
	adcx	r8d, edi

; 558  :     return (_subborrow_u32(borrow, u, v, w));

	add	r9b, -1

; 530  :     return (_addcarryx_u32(carry, u, v, w));

	mov	DWORD PTR t_hi$121[rbp-256], r8d
; File z:\sources\lunor\repos\rougemeilland\palmtree.math.core.implements\palmtree.math.core.implements\pmc_divrem.c

; 448  :     *k = t_hi;

	mov	r14d, r8d
; File z:\sources\lunor\repos\rougemeilland\palmtree.math.core.implements\palmtree.math.core.implements\pmc_internal.h

; 558  :     return (_subborrow_u32(borrow, u, v, w));

	sbb	ecx, edx
	mov	DWORD PTR [rax+4], ecx

; 1097 :     _InterlockedExchangeAdd(&statistics_info.COUNT_MULTI32, value);

	mov	ecx, 2

; 558  :     return (_subborrow_u32(borrow, u, v, w));

	setb	r11b
; File z:\sources\lunor\repos\rougemeilland\palmtree.math.core.implements\palmtree.math.core.implements\pmc_divrem.c

; 726  :         u_ptr += 2;

	add	rax, 8

; 727  :         v_ptr += 2;

	add	rbx, 8
; File z:\sources\lunor\repos\rougemeilland\palmtree.math.core.implements\palmtree.math.core.implements\pmc_internal.h

; 1097 :     _InterlockedExchangeAdd(&statistics_info.COUNT_MULTI32, value);

	lock xadd DWORD PTR statistics_info+4, ecx
$LN784@SubtructOn:
; File z:\sources\lunor\repos\rougemeilland\palmtree.math.core.implements\palmtree.math.core.implements\pmc_divrem.c

; 736  :     if (v_count & 0x1)

	test	r15b, 1
	je	SHORT $LN800@SubtructOn

; 447  :     c = _SUBTRUCT_UNIT_DIV(c, *up, t_lo, up);

	mov	ecx, DWORD PTR [rax]
; File z:\sources\lunor\repos\rougemeilland\palmtree.math.core.implements\palmtree.math.core.implements\pmc_internal.h

; 640  :     return (_FROMDWORDTOWORD((_UINT64_T)u * v, w_hi));

	mov	edx, DWORD PTR [rbx]
	imul	rdx, rsi

; 459  :     *result_high = (_UINT32_T)(value >> 32);

	mov	r8, rdx
	shr	r8, 32					; 00000020H

; 530  :     return (_addcarryx_u32(carry, u, v, w));

	add	edx, r14d
	mov	DWORD PTR t_lo$24[rsp], edx
	adcx	r8d, edi

; 558  :     return (_subborrow_u32(borrow, u, v, w));

	add	r11b, -1

; 530  :     return (_addcarryx_u32(carry, u, v, w));

	mov	DWORD PTR t_hi$122[rbp-256], r8d
; File z:\sources\lunor\repos\rougemeilland\palmtree.math.core.implements\palmtree.math.core.implements\pmc_divrem.c

; 448  :     *k = t_hi;

	mov	r14d, r8d
; File z:\sources\lunor\repos\rougemeilland\palmtree.math.core.implements\palmtree.math.core.implements\pmc_internal.h

; 558  :     return (_subborrow_u32(borrow, u, v, w));

	sbb	ecx, edx
	mov	DWORD PTR [rax], ecx
	setb	r11b
; File z:\sources\lunor\repos\rougemeilland\palmtree.math.core.implements\palmtree.math.core.implements\pmc_divrem.c

; 739  :         u_ptr += 1;

	add	rax, 4
; File z:\sources\lunor\repos\rougemeilland\palmtree.math.core.implements\palmtree.math.core.implements\pmc_internal.h

; 1074 :     _InterlockedIncrement(&statistics_info.COUNT_MULTI32);

	lock inc DWORD PTR statistics_info+4
$LN800@SubtructOn:
; File z:\sources\lunor\repos\rougemeilland\palmtree.math.core.implements\palmtree.math.core.implements\pmc_divrem.c

; 749  :     c = _SUBTRUCT_UNIT_DIV(c, *u_ptr, k, u_ptr);

	mov	ecx, DWORD PTR [rax]
; File z:\sources\lunor\repos\rougemeilland\palmtree.math.core.implements\palmtree.math.core.implements\pmc_internal.h

; 558  :     return (_subborrow_u32(borrow, u, v, w));

	add	r11b, -1
; File z:\sources\lunor\repos\rougemeilland\palmtree.math.core.implements\palmtree.math.core.implements\pmc_divrem.c

; 753  :     return (DoBorrow(c, k, u_ptr, u_buf + u_buf_len + 1 - u_ptr));

	mov	r8, QWORD PTR u_buf_len$[rbp-256]
; File z:\sources\lunor\repos\rougemeilland\palmtree.math.core.implements\palmtree.math.core.implements\pmc_internal.h

; 558  :     return (_subborrow_u32(borrow, u, v, w));

	sbb	ecx, r14d
	mov	DWORD PTR [rax], ecx
	setb	dl
; File z:\sources\lunor\repos\rougemeilland\palmtree.math.core.implements\palmtree.math.core.implements\pmc_divrem.c

; 751  :     u_ptr += 1;

	add	rax, 4

; 753  :     return (DoBorrow(c, k, u_ptr, u_buf + u_buf_len + 1 - u_ptr));

	lea	r8, QWORD PTR [r8*4+4]
	sub	r8, rax
	add	r8, r13
	sar	r8, 2

; 394  :         if (u_count <= 0)

	test	r8, r8
	je	SHORT $LN818@SubtructOn
$LL805@SubtructOn:

; 399  :             {
; 400  :                 // かつそれでも桁借りを行う必要がある場合
; 401  : 
; 402  :                 // 減算結果が負になってしまったので呼び出し元に通知する。
; 403  :                 return (TRUE);
; 404  :             }
; 405  : 
; 406  :             // u の最上位に達してしまった場合はいずれにしろループを中断して正常復帰する。
; 407  : 
; 408  :             return (FALSE);
; 409  :         }
; 410  :         else if (c)

	test	dl, dl
	je	SHORT $LN811@SubtructOn

; 411  :         {
; 412  :             // u の最上位に達しておらず、かつボローが立っている場合
; 413  : 
; 414  :             // 桁借りを継続する
; 415  :             c = _SUBTRUCT_UNIT_DIV(c, *up, k, up);

	mov	ecx, DWORD PTR [rax]
; File z:\sources\lunor\repos\rougemeilland\palmtree.math.core.implements\palmtree.math.core.implements\pmc_internal.h

; 558  :     return (_subborrow_u32(borrow, u, v, w));

	add	dl, -1
	sbb	ecx, edi
	mov	DWORD PTR [rax], ecx
	setb	dl
; File z:\sources\lunor\repos\rougemeilland\palmtree.math.core.implements\palmtree.math.core.implements\pmc_divrem.c

; 417  :             ++up;

	add	rax, 4

; 418  :             --u_count;

	sub	r8, 1
	jne	SHORT $LL805@SubtructOn
$LN818@SubtructOn:

; 395  :         {
; 396  :             // u の最上位まで達してしまった場合
; 397  : 
; 398  :             if (c)

	test	dl, dl
	setne	dil
$LN811@SubtructOn:

; 754  : }

	mov	eax, edi
	add	rsp, 504				; 000001f8H
	pop	r15
	pop	r14
	pop	r13
	pop	r12
	pop	rdi
	pop	rsi
	pop	rbx
	pop	rbp
	ret	0
SubtructOneLineX ENDP
_TEXT	ENDS
; Function compile flags: /Ogtpy
; File z:\sources\lunor\repos\rougemeilland\palmtree.math.core.implements\palmtree.math.core.implements\pmc_divrem.c
; File z:\sources\lunor\repos\rougemeilland\palmtree.math.core.implements\palmtree.math.core.implements\pmc_internal.h
; File z:\sources\lunor\repos\rougemeilland\palmtree.math.core.implements\palmtree.math.core.implements\pmc_divrem.c
; File z:\sources\lunor\repos\rougemeilland\palmtree.math.core.implements\palmtree.math.core.implements\pmc_internal.h
; File z:\sources\lunor\repos\rougemeilland\palmtree.math.core.implements\palmtree.math.core.implements\pmc_divrem.c
; File z:\sources\lunor\repos\rougemeilland\palmtree.math.core.implements\palmtree.math.core.implements\pmc_internal.h
; File z:\sources\lunor\repos\rougemeilland\palmtree.math.core.implements\palmtree.math.core.implements\pmc_divrem.c
; File z:\sources\lunor\repos\rougemeilland\palmtree.math.core.implements\palmtree.math.core.implements\pmc_internal.h
; File z:\sources\lunor\repos\rougemeilland\palmtree.math.core.implements\palmtree.math.core.implements\pmc_divrem.c
; File z:\sources\lunor\repos\rougemeilland\palmtree.math.core.implements\palmtree.math.core.implements\pmc_internal.h
; File z:\sources\lunor\repos\rougemeilland\palmtree.math.core.implements\palmtree.math.core.implements\pmc_divrem.c
; File z:\sources\lunor\repos\rougemeilland\palmtree.math.core.implements\palmtree.math.core.implements\pmc_internal.h
; File z:\sources\lunor\repos\rougemeilland\palmtree.math.core.implements\palmtree.math.core.implements\pmc_divrem.c
; File z:\sources\lunor\repos\rougemeilland\palmtree.math.core.implements\palmtree.math.core.implements\pmc_internal.h
; File z:\sources\lunor\repos\rougemeilland\palmtree.math.core.implements\palmtree.math.core.implements\pmc_divrem.c
; File z:\sources\lunor\repos\rougemeilland\palmtree.math.core.implements\palmtree.math.core.implements\pmc_internal.h
; File z:\sources\lunor\repos\rougemeilland\palmtree.math.core.implements\palmtree.math.core.implements\pmc_divrem.c
; File z:\sources\lunor\repos\rougemeilland\palmtree.math.core.implements\palmtree.math.core.implements\pmc_internal.h
; File z:\sources\lunor\repos\rougemeilland\palmtree.math.core.implements\palmtree.math.core.implements\pmc_divrem.c
; File z:\sources\lunor\repos\rougemeilland\palmtree.math.core.implements\palmtree.math.core.implements\pmc_internal.h
; File z:\sources\lunor\repos\rougemeilland\palmtree.math.core.implements\palmtree.math.core.implements\pmc_divrem.c
; File z:\sources\lunor\repos\rougemeilland\palmtree.math.core.implements\palmtree.math.core.implements\pmc_internal.h
; File z:\sources\lunor\repos\rougemeilland\palmtree.math.core.implements\palmtree.math.core.implements\pmc_divrem.c
; File z:\sources\lunor\repos\rougemeilland\palmtree.math.core.implements\palmtree.math.core.implements\pmc_internal.h
; File z:\sources\lunor\repos\rougemeilland\palmtree.math.core.implements\palmtree.math.core.implements\pmc_divrem.c
; File z:\sources\lunor\repos\rougemeilland\palmtree.math.core.implements\palmtree.math.core.implements\pmc_internal.h
; File z:\sources\lunor\repos\rougemeilland\palmtree.math.core.implements\palmtree.math.core.implements\pmc_divrem.c
; File z:\sources\lunor\repos\rougemeilland\palmtree.math.core.implements\palmtree.math.core.implements\pmc_internal.h
; File z:\sources\lunor\repos\rougemeilland\palmtree.math.core.implements\palmtree.math.core.implements\pmc_divrem.c
; File z:\sources\lunor\repos\rougemeilland\palmtree.math.core.implements\palmtree.math.core.implements\pmc_internal.h
; File z:\sources\lunor\repos\rougemeilland\palmtree.math.core.implements\palmtree.math.core.implements\pmc_divrem.c
; File z:\sources\lunor\repos\rougemeilland\palmtree.math.core.implements\palmtree.math.core.implements\pmc_internal.h
; File z:\sources\lunor\repos\rougemeilland\palmtree.math.core.implements\palmtree.math.core.implements\pmc_divrem.c
; File z:\sources\lunor\repos\rougemeilland\palmtree.math.core.implements\palmtree.math.core.implements\pmc_internal.h
; File z:\sources\lunor\repos\rougemeilland\palmtree.math.core.implements\palmtree.math.core.implements\pmc_divrem.c
; File z:\sources\lunor\repos\rougemeilland\palmtree.math.core.implements\palmtree.math.core.implements\pmc_internal.h
; File z:\sources\lunor\repos\rougemeilland\palmtree.math.core.implements\palmtree.math.core.implements\pmc_divrem.c
; File z:\sources\lunor\repos\rougemeilland\palmtree.math.core.implements\palmtree.math.core.implements\pmc_internal.h
; File z:\sources\lunor\repos\rougemeilland\palmtree.math.core.implements\palmtree.math.core.implements\pmc_divrem.c
; File z:\sources\lunor\repos\rougemeilland\palmtree.math.core.implements\palmtree.math.core.implements\pmc_internal.h
; File z:\sources\lunor\repos\rougemeilland\palmtree.math.core.implements\palmtree.math.core.implements\pmc_divrem.c
; File z:\sources\lunor\repos\rougemeilland\palmtree.math.core.implements\palmtree.math.core.implements\pmc_internal.h
; File z:\sources\lunor\repos\rougemeilland\palmtree.math.core.implements\palmtree.math.core.implements\pmc_divrem.c
; File z:\sources\lunor\repos\rougemeilland\palmtree.math.core.implements\palmtree.math.core.implements\pmc_internal.h
; File z:\sources\lunor\repos\rougemeilland\palmtree.math.core.implements\palmtree.math.core.implements\pmc_divrem.c
; File z:\sources\lunor\repos\rougemeilland\palmtree.math.core.implements\palmtree.math.core.implements\pmc_internal.h
; File z:\sources\lunor\repos\rougemeilland\palmtree.math.core.implements\palmtree.math.core.implements\pmc_divrem.c
; File z:\sources\lunor\repos\rougemeilland\palmtree.math.core.implements\palmtree.math.core.implements\pmc_internal.h
; File z:\sources\lunor\repos\rougemeilland\palmtree.math.core.implements\palmtree.math.core.implements\pmc_divrem.c
; File z:\sources\lunor\repos\rougemeilland\palmtree.math.core.implements\palmtree.math.core.implements\pmc_internal.h
; File z:\sources\lunor\repos\rougemeilland\palmtree.math.core.implements\palmtree.math.core.implements\pmc_divrem.c
; File z:\sources\lunor\repos\rougemeilland\palmtree.math.core.implements\palmtree.math.core.implements\pmc_internal.h
; File z:\sources\lunor\repos\rougemeilland\palmtree.math.core.implements\palmtree.math.core.implements\pmc_divrem.c
; File z:\sources\lunor\repos\rougemeilland\palmtree.math.core.implements\palmtree.math.core.implements\pmc_internal.h
; File z:\sources\lunor\repos\rougemeilland\palmtree.math.core.implements\palmtree.math.core.implements\pmc_divrem.c
; File z:\sources\lunor\repos\rougemeilland\palmtree.math.core.implements\palmtree.math.core.implements\pmc_internal.h
; File z:\sources\lunor\repos\rougemeilland\palmtree.math.core.implements\palmtree.math.core.implements\pmc_divrem.c
; File z:\sources\lunor\repos\rougemeilland\palmtree.math.core.implements\palmtree.math.core.implements\pmc_internal.h
; File z:\sources\lunor\repos\rougemeilland\palmtree.math.core.implements\palmtree.math.core.implements\pmc_divrem.c
; File z:\sources\lunor\repos\rougemeilland\palmtree.math.core.implements\palmtree.math.core.implements\pmc_internal.h
; File z:\sources\lunor\repos\rougemeilland\palmtree.math.core.implements\palmtree.math.core.implements\pmc_divrem.c
; File z:\sources\lunor\repos\rougemeilland\palmtree.math.core.implements\palmtree.math.core.implements\pmc_internal.h
; File z:\sources\lunor\repos\rougemeilland\palmtree.math.core.implements\palmtree.math.core.implements\pmc_divrem.c
; File z:\sources\lunor\repos\rougemeilland\palmtree.math.core.implements\palmtree.math.core.implements\pmc_internal.h
; File z:\sources\lunor\repos\rougemeilland\palmtree.math.core.implements\palmtree.math.core.implements\pmc_divrem.c
; File z:\sources\lunor\repos\rougemeilland\palmtree.math.core.implements\palmtree.math.core.implements\pmc_internal.h
; File z:\sources\lunor\repos\rougemeilland\palmtree.math.core.implements\palmtree.math.core.implements\pmc_divrem.c
; File z:\sources\lunor\repos\rougemeilland\palmtree.math.core.implements\palmtree.math.core.implements\pmc_internal.h
; File z:\sources\lunor\repos\rougemeilland\palmtree.math.core.implements\palmtree.math.core.implements\pmc_divrem.c
; File z:\sources\lunor\repos\rougemeilland\palmtree.math.core.implements\palmtree.math.core.implements\pmc_internal.h
; File z:\sources\lunor\repos\rougemeilland\palmtree.math.core.implements\palmtree.math.core.implements\pmc_divrem.c
; File z:\sources\lunor\repos\rougemeilland\palmtree.math.core.implements\palmtree.math.core.implements\pmc_internal.h
; File z:\sources\lunor\repos\rougemeilland\palmtree.math.core.implements\palmtree.math.core.implements\pmc_divrem.c
; File z:\sources\lunor\repos\rougemeilland\palmtree.math.core.implements\palmtree.math.core.implements\pmc_internal.h
; File z:\sources\lunor\repos\rougemeilland\palmtree.math.core.implements\palmtree.math.core.implements\pmc_divrem.c
; File z:\sources\lunor\repos\rougemeilland\palmtree.math.core.implements\palmtree.math.core.implements\pmc_internal.h
; File z:\sources\lunor\repos\rougemeilland\palmtree.math.core.implements\palmtree.math.core.implements\pmc_divrem.c
; File z:\sources\lunor\repos\rougemeilland\palmtree.math.core.implements\palmtree.math.core.implements\pmc_internal.h
; File z:\sources\lunor\repos\rougemeilland\palmtree.math.core.implements\palmtree.math.core.implements\pmc_divrem.c
; File z:\sources\lunor\repos\rougemeilland\palmtree.math.core.implements\palmtree.math.core.implements\pmc_internal.h
; File z:\sources\lunor\repos\rougemeilland\palmtree.math.core.implements\palmtree.math.core.implements\pmc_divrem.c
; File z:\sources\lunor\repos\rougemeilland\palmtree.math.core.implements\palmtree.math.core.implements\pmc_internal.h
; File z:\sources\lunor\repos\rougemeilland\palmtree.math.core.implements\palmtree.math.core.implements\pmc_divrem.c
; File z:\sources\lunor\repos\rougemeilland\palmtree.math.core.implements\palmtree.math.core.implements\pmc_internal.h
; File z:\sources\lunor\repos\rougemeilland\palmtree.math.core.implements\palmtree.math.core.implements\pmc_divrem.c
; File z:\sources\lunor\repos\rougemeilland\palmtree.math.core.implements\palmtree.math.core.implements\pmc_internal.h
; File z:\sources\lunor\repos\rougemeilland\palmtree.math.core.implements\palmtree.math.core.implements\pmc_divrem.c
; File z:\sources\lunor\repos\rougemeilland\palmtree.math.core.implements\palmtree.math.core.implements\pmc_internal.h
; File z:\sources\lunor\repos\rougemeilland\palmtree.math.core.implements\palmtree.math.core.implements\pmc_divrem.c
; File z:\sources\lunor\repos\rougemeilland\palmtree.math.core.implements\palmtree.math.core.implements\pmc_internal.h
; File z:\sources\lunor\repos\rougemeilland\palmtree.math.core.implements\palmtree.math.core.implements\pmc_divrem.c
; File z:\sources\lunor\repos\rougemeilland\palmtree.math.core.implements\palmtree.math.core.implements\pmc_internal.h
; File z:\sources\lunor\repos\rougemeilland\palmtree.math.core.implements\palmtree.math.core.implements\pmc_divrem.c
; File z:\sources\lunor\repos\rougemeilland\palmtree.math.core.implements\palmtree.math.core.implements\pmc_internal.h
; File z:\sources\lunor\repos\rougemeilland\palmtree.math.core.implements\palmtree.math.core.implements\pmc_divrem.c
; File z:\sources\lunor\repos\rougemeilland\palmtree.math.core.implements\palmtree.math.core.implements\pmc_internal.h
; File z:\sources\lunor\repos\rougemeilland\palmtree.math.core.implements\palmtree.math.core.implements\pmc_divrem.c
; File z:\sources\lunor\repos\rougemeilland\palmtree.math.core.implements\palmtree.math.core.implements\pmc_internal.h
; File z:\sources\lunor\repos\rougemeilland\palmtree.math.core.implements\palmtree.math.core.implements\pmc_divrem.c
; File z:\sources\lunor\repos\rougemeilland\palmtree.math.core.implements\palmtree.math.core.implements\pmc_internal.h
; File z:\sources\lunor\repos\rougemeilland\palmtree.math.core.implements\palmtree.math.core.implements\pmc_divrem.c
; File z:\sources\lunor\repos\rougemeilland\palmtree.math.core.implements\palmtree.math.core.implements\pmc_internal.h
; File z:\sources\lunor\repos\rougemeilland\palmtree.math.core.implements\palmtree.math.core.implements\pmc_divrem.c
; File z:\sources\lunor\repos\rougemeilland\palmtree.math.core.implements\palmtree.math.core.implements\pmc_internal.h
; File z:\sources\lunor\repos\rougemeilland\palmtree.math.core.implements\palmtree.math.core.implements\pmc_divrem.c
; File z:\sources\lunor\repos\rougemeilland\palmtree.math.core.implements\palmtree.math.core.implements\pmc_internal.h
; File z:\sources\lunor\repos\rougemeilland\palmtree.math.core.implements\palmtree.math.core.implements\pmc_divrem.c
; File z:\sources\lunor\repos\rougemeilland\palmtree.math.core.implements\palmtree.math.core.implements\pmc_internal.h
; File z:\sources\lunor\repos\rougemeilland\palmtree.math.core.implements\palmtree.math.core.implements\pmc_divrem.c
; File z:\sources\lunor\repos\rougemeilland\palmtree.math.core.implements\palmtree.math.core.implements\pmc_internal.h
; File z:\sources\lunor\repos\rougemeilland\palmtree.math.core.implements\palmtree.math.core.implements\pmc_divrem.c
; File z:\sources\lunor\repos\rougemeilland\palmtree.math.core.implements\palmtree.math.core.implements\pmc_internal.h
; File z:\sources\lunor\repos\rougemeilland\palmtree.math.core.implements\palmtree.math.core.implements\pmc_divrem.c
; File z:\sources\lunor\repos\rougemeilland\palmtree.math.core.implements\palmtree.math.core.implements\pmc_internal.h
; File z:\sources\lunor\repos\rougemeilland\palmtree.math.core.implements\palmtree.math.core.implements\pmc_divrem.c
; File z:\sources\lunor\repos\rougemeilland\palmtree.math.core.implements\palmtree.math.core.implements\pmc_internal.h
; File z:\sources\lunor\repos\rougemeilland\palmtree.math.core.implements\palmtree.math.core.implements\pmc_divrem.c
; File z:\sources\lunor\repos\rougemeilland\palmtree.math.core.implements\palmtree.math.core.implements\pmc_internal.h
; File z:\sources\lunor\repos\rougemeilland\palmtree.math.core.implements\palmtree.math.core.implements\pmc_divrem.c
; File z:\sources\lunor\repos\rougemeilland\palmtree.math.core.implements\palmtree.math.core.implements\pmc_internal.h
; File z:\sources\lunor\repos\rougemeilland\palmtree.math.core.implements\palmtree.math.core.implements\pmc_divrem.c
; File z:\sources\lunor\repos\rougemeilland\palmtree.math.core.implements\palmtree.math.core.implements\pmc_internal.h
; File z:\sources\lunor\repos\rougemeilland\palmtree.math.core.implements\palmtree.math.core.implements\pmc_divrem.c
; File z:\sources\lunor\repos\rougemeilland\palmtree.math.core.implements\palmtree.math.core.implements\pmc_internal.h
; File z:\sources\lunor\repos\rougemeilland\palmtree.math.core.implements\palmtree.math.core.implements\pmc_divrem.c
; File z:\sources\lunor\repos\rougemeilland\palmtree.math.core.implements\palmtree.math.core.implements\pmc_internal.h
; File z:\sources\lunor\repos\rougemeilland\palmtree.math.core.implements\palmtree.math.core.implements\pmc_divrem.c
; File z:\sources\lunor\repos\rougemeilland\palmtree.math.core.implements\palmtree.math.core.implements\pmc_internal.h
; File z:\sources\lunor\repos\rougemeilland\palmtree.math.core.implements\palmtree.math.core.implements\pmc_divrem.c
; File z:\sources\lunor\repos\rougemeilland\palmtree.math.core.implements\palmtree.math.core.implements\pmc_internal.h
; File z:\sources\lunor\repos\rougemeilland\palmtree.math.core.implements\palmtree.math.core.implements\pmc_divrem.c
; File z:\sources\lunor\repos\rougemeilland\palmtree.math.core.implements\palmtree.math.core.implements\pmc_internal.h
; File z:\sources\lunor\repos\rougemeilland\palmtree.math.core.implements\palmtree.math.core.implements\pmc_divrem.c
; File z:\sources\lunor\repos\rougemeilland\palmtree.math.core.implements\palmtree.math.core.implements\pmc_internal.h
; File z:\sources\lunor\repos\rougemeilland\palmtree.math.core.implements\palmtree.math.core.implements\pmc_divrem.c
; File z:\sources\lunor\repos\rougemeilland\palmtree.math.core.implements\palmtree.math.core.implements\pmc_internal.h
; File z:\sources\lunor\repos\rougemeilland\palmtree.math.core.implements\palmtree.math.core.implements\pmc_divrem.c
; File z:\sources\lunor\repos\rougemeilland\palmtree.math.core.implements\palmtree.math.core.implements\pmc_internal.h
; File z:\sources\lunor\repos\rougemeilland\palmtree.math.core.implements\palmtree.math.core.implements\pmc_divrem.c
; File z:\sources\lunor\repos\rougemeilland\palmtree.math.core.implements\palmtree.math.core.implements\pmc_internal.h
; File z:\sources\lunor\repos\rougemeilland\palmtree.math.core.implements\palmtree.math.core.implements\pmc_divrem.c
; File z:\sources\lunor\repos\rougemeilland\palmtree.math.core.implements\palmtree.math.core.implements\pmc_internal.h
; File z:\sources\lunor\repos\rougemeilland\palmtree.math.core.implements\palmtree.math.core.implements\pmc_divrem.c
; File z:\sources\lunor\repos\rougemeilland\palmtree.math.core.implements\palmtree.math.core.implements\pmc_internal.h
; File z:\sources\lunor\repos\rougemeilland\palmtree.math.core.implements\palmtree.math.core.implements\pmc_divrem.c
; File z:\sources\lunor\repos\rougemeilland\palmtree.math.core.implements\palmtree.math.core.implements\pmc_internal.h
; File z:\sources\lunor\repos\rougemeilland\palmtree.math.core.implements\palmtree.math.core.implements\pmc_divrem.c
; File z:\sources\lunor\repos\rougemeilland\palmtree.math.core.implements\palmtree.math.core.implements\pmc_internal.h
; File z:\sources\lunor\repos\rougemeilland\palmtree.math.core.implements\palmtree.math.core.implements\pmc_divrem.c
; File z:\sources\lunor\repos\rougemeilland\palmtree.math.core.implements\palmtree.math.core.implements\pmc_internal.h
; File z:\sources\lunor\repos\rougemeilland\palmtree.math.core.implements\palmtree.math.core.implements\pmc_divrem.c
; File z:\sources\lunor\repos\rougemeilland\palmtree.math.core.implements\palmtree.math.core.implements\pmc_internal.h
; File z:\sources\lunor\repos\rougemeilland\palmtree.math.core.implements\palmtree.math.core.implements\pmc_divrem.c
; File z:\sources\lunor\repos\rougemeilland\palmtree.math.core.implements\palmtree.math.core.implements\pmc_internal.h
; File z:\sources\lunor\repos\rougemeilland\palmtree.math.core.implements\palmtree.math.core.implements\pmc_divrem.c
; File z:\sources\lunor\repos\rougemeilland\palmtree.math.core.implements\palmtree.math.core.implements\pmc_internal.h
; File z:\sources\lunor\repos\rougemeilland\palmtree.math.core.implements\palmtree.math.core.implements\pmc_divrem.c
; File z:\sources\lunor\repos\rougemeilland\palmtree.math.core.implements\palmtree.math.core.implements\pmc_internal.h
; File z:\sources\lunor\repos\rougemeilland\palmtree.math.core.implements\palmtree.math.core.implements\pmc_divrem.c
; File z:\sources\lunor\repos\rougemeilland\palmtree.math.core.implements\palmtree.math.core.implements\pmc_internal.h
; File z:\sources\lunor\repos\rougemeilland\palmtree.math.core.implements\palmtree.math.core.implements\pmc_divrem.c
; File z:\sources\lunor\repos\rougemeilland\palmtree.math.core.implements\palmtree.math.core.implements\pmc_internal.h
; File z:\sources\lunor\repos\rougemeilland\palmtree.math.core.implements\palmtree.math.core.implements\pmc_divrem.c
; File z:\sources\lunor\repos\rougemeilland\palmtree.math.core.implements\palmtree.math.core.implements\pmc_internal.h
; File z:\sources\lunor\repos\rougemeilland\palmtree.math.core.implements\palmtree.math.core.implements\pmc_divrem.c
;	COMDAT SubtructOneLine
_TEXT	SEGMENT
t_lo$1 = 0
t_lo$2 = 4
t_lo$3 = 8
t_lo$4 = 12
t_lo$5 = 16
t_lo$6 = 20
t_lo$7 = 24
t_lo$8 = 28
t_lo$9 = 32
t_lo$10 = 36
t_lo$11 = 40
t_lo$12 = 44
t_lo$13 = 48
t_lo$14 = 52
t_lo$15 = 56
t_lo$16 = 60
t_lo$17 = 64
t_lo$18 = 68
t_lo$19 = 72
t_lo$20 = 76
t_lo$21 = 80
t_lo$22 = 84
t_lo$23 = 88
t_lo$24 = 92
t_hi$25 = 96
t_hi$26 = 100
t_hi$27 = 104
t_hi$28 = 108
t_hi$29 = 112
t_hi$30 = 116
t_hi$31 = 120
t_lo$32 = 124
t_hi$33 = 128
t_lo$34 = 132
t_hi$35 = 136
t_lo$36 = 140
t_hi$37 = 144
t_lo$38 = 148
t_hi$39 = 152
t_lo$40 = 156
t_hi$41 = 160
t_lo$42 = 164
t_hi$43 = 168
t_lo$44 = 172
t_hi$45 = 176
t_lo$46 = 180
t_hi$47 = 184
t_lo$48 = 188
t_hi$49 = 192
t_lo$50 = 196
t_hi$51 = 200
t_lo$52 = 204
t_hi$53 = 208
t_lo$54 = 212
t_hi$55 = 216
t_lo$56 = 220
t_hi$57 = 224
t_lo$58 = 228
t_hi$59 = 232
t_lo$60 = 236
t_hi$61 = 240
t_lo$62 = 244
t_hi$63 = 248
t_lo$64 = 252
t_hi$65 = 256
t_lo$66 = 260
t_hi$67 = 264
t_lo$68 = 268
t_hi$69 = 272
t_lo$70 = 276
t_hi$71 = 280
t_lo$72 = 284
t_hi$73 = 288
t_lo$74 = 292
t_hi$75 = 296
t_lo$76 = 300
t_hi$77 = 304
t_lo$78 = 308
t_hi$79 = 312
t_lo$80 = 316
t_hi$81 = 320
t_hi$82 = 324
t_hi$83 = 328
t_hi$84 = 332
t_hi$85 = 336
t_hi$86 = 340
t_hi$87 = 344
t_hi$88 = 348
t_lo$89 = 352
t_hi$90 = 356
t_lo$91 = 360
t_hi$92 = 364
t_lo$93 = 368
t_hi$94 = 372
t_lo$95 = 376
t_hi$96 = 380
t_lo$97 = 384
t_hi$98 = 388
t_lo$99 = 392
t_hi$100 = 396
t_lo$101 = 400
t_hi$102 = 404
t_lo$103 = 408
t_hi$104 = 412
t_lo$105 = 416
t_hi$106 = 420
t_hi$107 = 424
t_hi$108 = 428
t_hi$109 = 432
t_hi$110 = 436
t_hi$111 = 440
t_hi$112 = 444
t_hi$113 = 448
t_lo$114 = 452
t_hi$115 = 456
t_hi$116 = 460
t_hi$117 = 464
t_hi$118 = 468
t_hi$119 = 472
t_hi$120 = 476
t_hi$121 = 480
t_hi$122 = 484
t_lo$123 = 576
u_buf$ = 576
u_buf_len$ = 584
t_lo$124 = 592
v_buf$ = 592
t_lo$125 = 600
v_buf_len$ = 600
t_lo$126 = 608
q_index$ = 608
q_$ = 616
SubtructOneLine PROC					; COMDAT

; 453  : {

	mov	QWORD PTR [rsp+16], rdx
	push	rbp
	push	rbx
	push	rsi
	push	rdi
	push	r12
	push	r13
	push	r14
	push	r15
	lea	rbp, QWORD PTR [rsp-248]
	sub	rsp, 504				; 000001f8H

; 454  :     __UNIT_TYPE_DIV* u_ptr = &u_buf[q_index];

	mov	rax, QWORD PTR q_index$[rbp-256]

; 455  :     __UNIT_TYPE_DIV* v_ptr = &v_buf[0];
; 456  :     __UNIT_TYPE v_count = v_buf_len;
; 457  :     __UNIT_TYPE_DIV k = 0;

	xor	r15d, r15d
	mov	edi, DWORD PTR q_$[rbp-256]

; 458  :     char c = 0;
; 459  : 
; 460  :     __UNIT_TYPE count = v_count >> 5;

	mov	r12, r9
	xor	r11b, r11b
	shr	r12, 5
	mov	r14, r9
	mov	rbx, r8
	lea	rax, QWORD PTR [rax*4]
	mov	r13, rcx
	add	rax, rcx
	mov	esi, r15d

; 461  :     while (count != 0)

	test	r12, r12
	je	$LN821@SubtructOn
	npad	6
$LL2@SubtructOn:
; File z:\sources\lunor\repos\rougemeilland\palmtree.math.core.implements\palmtree.math.core.implements\pmc_internal.h

; 594  :     return (_FROMDWORDTOWORD((_UINT64_T)u * v, w_hi));

	mov	edx, DWORD PTR [rbx]
; File z:\sources\lunor\repos\rougemeilland\palmtree.math.core.implements\palmtree.math.core.implements\pmc_divrem.c

; 436  :     c = _SUBTRUCT_UNIT_DIV(c, *up, t_lo, up);

	mov	ecx, DWORD PTR [rax]
; File z:\sources\lunor\repos\rougemeilland\palmtree.math.core.implements\palmtree.math.core.implements\pmc_internal.h

; 594  :     return (_FROMDWORDTOWORD((_UINT64_T)u * v, w_hi));

	imul	rdx, rdi

; 459  :     *result_high = (_UINT32_T)(value >> 32);

	mov	r9, rdx
	shr	r9, 32					; 00000020H

; 502  :     return (_addcarry_u32(carry, u, v, w));

	add	edx, esi
	mov	DWORD PTR t_lo$126[rbp-256], edx
	adc	r9d, r15d

; 558  :     return (_subborrow_u32(borrow, u, v, w));

	add	r11b, -1

; 502  :     return (_addcarry_u32(carry, u, v, w));

	mov	DWORD PTR t_hi$25[rsp], r9d

; 558  :     return (_subborrow_u32(borrow, u, v, w));

	sbb	ecx, edx
	mov	DWORD PTR [rax], ecx

; 594  :     return (_FROMDWORDTOWORD((_UINT64_T)u * v, w_hi));

	mov	edx, DWORD PTR [rbx+4]

; 558  :     return (_subborrow_u32(borrow, u, v, w));

	setb	r8b
; File z:\sources\lunor\repos\rougemeilland\palmtree.math.core.implements\palmtree.math.core.implements\pmc_divrem.c

; 436  :     c = _SUBTRUCT_UNIT_DIV(c, *up, t_lo, up);

	mov	ecx, DWORD PTR [rax+4]
; File z:\sources\lunor\repos\rougemeilland\palmtree.math.core.implements\palmtree.math.core.implements\pmc_internal.h

; 594  :     return (_FROMDWORDTOWORD((_UINT64_T)u * v, w_hi));

	imul	rdx, rdi

; 459  :     *result_high = (_UINT32_T)(value >> 32);

	mov	r10, rdx
	shr	r10, 32					; 00000020H

; 502  :     return (_addcarry_u32(carry, u, v, w));

	add	edx, r9d
	mov	DWORD PTR t_lo$123[rbp-256], edx
	adc	r10d, r15d

; 558  :     return (_subborrow_u32(borrow, u, v, w));

	add	r8b, -1

; 502  :     return (_addcarry_u32(carry, u, v, w));

	mov	DWORD PTR t_hi$26[rsp], r10d

; 558  :     return (_subborrow_u32(borrow, u, v, w));

	sbb	ecx, edx
	mov	DWORD PTR [rax+4], ecx

; 594  :     return (_FROMDWORDTOWORD((_UINT64_T)u * v, w_hi));

	mov	edx, DWORD PTR [rbx+8]

; 558  :     return (_subborrow_u32(borrow, u, v, w));

	setb	r8b
; File z:\sources\lunor\repos\rougemeilland\palmtree.math.core.implements\palmtree.math.core.implements\pmc_divrem.c

; 436  :     c = _SUBTRUCT_UNIT_DIV(c, *up, t_lo, up);

	mov	ecx, DWORD PTR [rax+8]
; File z:\sources\lunor\repos\rougemeilland\palmtree.math.core.implements\palmtree.math.core.implements\pmc_internal.h

; 594  :     return (_FROMDWORDTOWORD((_UINT64_T)u * v, w_hi));

	imul	rdx, rdi

; 459  :     *result_high = (_UINT32_T)(value >> 32);

	mov	r9, rdx
	shr	r9, 32					; 00000020H

; 502  :     return (_addcarry_u32(carry, u, v, w));

	add	edx, r10d
	mov	DWORD PTR t_lo$124[rbp-256], edx
	adc	r9d, r15d

; 558  :     return (_subborrow_u32(borrow, u, v, w));

	add	r8b, -1

; 502  :     return (_addcarry_u32(carry, u, v, w));

	mov	DWORD PTR t_hi$27[rsp], r9d

; 558  :     return (_subborrow_u32(borrow, u, v, w));

	sbb	ecx, edx
	mov	DWORD PTR [rax+8], ecx

; 594  :     return (_FROMDWORDTOWORD((_UINT64_T)u * v, w_hi));

	mov	edx, DWORD PTR [rbx+12]

; 558  :     return (_subborrow_u32(borrow, u, v, w));

	setb	r8b
; File z:\sources\lunor\repos\rougemeilland\palmtree.math.core.implements\palmtree.math.core.implements\pmc_divrem.c

; 436  :     c = _SUBTRUCT_UNIT_DIV(c, *up, t_lo, up);

	mov	ecx, DWORD PTR [rax+12]
; File z:\sources\lunor\repos\rougemeilland\palmtree.math.core.implements\palmtree.math.core.implements\pmc_internal.h

; 594  :     return (_FROMDWORDTOWORD((_UINT64_T)u * v, w_hi));

	imul	rdx, rdi

; 459  :     *result_high = (_UINT32_T)(value >> 32);

	mov	r10, rdx
	shr	r10, 32					; 00000020H

; 502  :     return (_addcarry_u32(carry, u, v, w));

	add	edx, r9d
	mov	DWORD PTR t_lo$125[rbp-256], edx
	adc	r10d, r15d

; 558  :     return (_subborrow_u32(borrow, u, v, w));

	add	r8b, -1

; 502  :     return (_addcarry_u32(carry, u, v, w));

	mov	DWORD PTR t_hi$28[rsp], r10d

; 558  :     return (_subborrow_u32(borrow, u, v, w));

	sbb	ecx, edx
	mov	DWORD PTR [rax+12], ecx

; 594  :     return (_FROMDWORDTOWORD((_UINT64_T)u * v, w_hi));

	mov	edx, DWORD PTR [rbx+16]

; 558  :     return (_subborrow_u32(borrow, u, v, w));

	setb	r8b
; File z:\sources\lunor\repos\rougemeilland\palmtree.math.core.implements\palmtree.math.core.implements\pmc_divrem.c

; 436  :     c = _SUBTRUCT_UNIT_DIV(c, *up, t_lo, up);

	mov	ecx, DWORD PTR [rax+16]
; File z:\sources\lunor\repos\rougemeilland\palmtree.math.core.implements\palmtree.math.core.implements\pmc_internal.h

; 594  :     return (_FROMDWORDTOWORD((_UINT64_T)u * v, w_hi));

	imul	rdx, rdi

; 459  :     *result_high = (_UINT32_T)(value >> 32);

	mov	r9, rdx
	shr	r9, 32					; 00000020H

; 502  :     return (_addcarry_u32(carry, u, v, w));

	add	edx, r10d
	mov	DWORD PTR t_lo$1[rsp], edx
	adc	r9d, r15d

; 558  :     return (_subborrow_u32(borrow, u, v, w));

	add	r8b, -1

; 502  :     return (_addcarry_u32(carry, u, v, w));

	mov	DWORD PTR t_hi$29[rsp], r9d

; 558  :     return (_subborrow_u32(borrow, u, v, w));

	sbb	ecx, edx
	mov	DWORD PTR [rax+16], ecx

; 594  :     return (_FROMDWORDTOWORD((_UINT64_T)u * v, w_hi));

	mov	edx, DWORD PTR [rbx+20]

; 558  :     return (_subborrow_u32(borrow, u, v, w));

	setb	r8b
; File z:\sources\lunor\repos\rougemeilland\palmtree.math.core.implements\palmtree.math.core.implements\pmc_divrem.c

; 436  :     c = _SUBTRUCT_UNIT_DIV(c, *up, t_lo, up);

	mov	ecx, DWORD PTR [rax+20]
; File z:\sources\lunor\repos\rougemeilland\palmtree.math.core.implements\palmtree.math.core.implements\pmc_internal.h

; 594  :     return (_FROMDWORDTOWORD((_UINT64_T)u * v, w_hi));

	imul	rdx, rdi

; 459  :     *result_high = (_UINT32_T)(value >> 32);

	mov	r11, rdx
	shr	r11, 32					; 00000020H

; 502  :     return (_addcarry_u32(carry, u, v, w));

	add	edx, r9d
	mov	DWORD PTR t_lo$2[rsp], edx
	adc	r11d, r15d

; 558  :     return (_subborrow_u32(borrow, u, v, w));

	add	r8b, -1

; 502  :     return (_addcarry_u32(carry, u, v, w));

	mov	DWORD PTR t_hi$30[rsp], r11d

; 558  :     return (_subborrow_u32(borrow, u, v, w));

	sbb	ecx, edx
	mov	DWORD PTR [rax+20], ecx

; 594  :     return (_FROMDWORDTOWORD((_UINT64_T)u * v, w_hi));

	mov	edx, DWORD PTR [rbx+24]

; 558  :     return (_subborrow_u32(borrow, u, v, w));

	setb	r8b

; 594  :     return (_FROMDWORDTOWORD((_UINT64_T)u * v, w_hi));

	imul	rdx, rdi

; 459  :     *result_high = (_UINT32_T)(value >> 32);

	mov	r10, rdx
; File z:\sources\lunor\repos\rougemeilland\palmtree.math.core.implements\palmtree.math.core.implements\pmc_divrem.c

; 436  :     c = _SUBTRUCT_UNIT_DIV(c, *up, t_lo, up);

	mov	ecx, DWORD PTR [rax+24]
; File z:\sources\lunor\repos\rougemeilland\palmtree.math.core.implements\palmtree.math.core.implements\pmc_internal.h

; 459  :     *result_high = (_UINT32_T)(value >> 32);

	shr	r10, 32					; 00000020H

; 502  :     return (_addcarry_u32(carry, u, v, w));

	add	edx, r11d
	mov	DWORD PTR t_lo$3[rsp], edx
	adc	r10d, r15d

; 558  :     return (_subborrow_u32(borrow, u, v, w));

	add	r8b, -1

; 502  :     return (_addcarry_u32(carry, u, v, w));

	mov	DWORD PTR t_hi$31[rsp], r10d

; 558  :     return (_subborrow_u32(borrow, u, v, w));

	sbb	ecx, edx
	mov	DWORD PTR [rax+24], ecx

; 594  :     return (_FROMDWORDTOWORD((_UINT64_T)u * v, w_hi));

	mov	edx, DWORD PTR [rbx+28]

; 558  :     return (_subborrow_u32(borrow, u, v, w));

	setb	r8b
; File z:\sources\lunor\repos\rougemeilland\palmtree.math.core.implements\palmtree.math.core.implements\pmc_divrem.c

; 436  :     c = _SUBTRUCT_UNIT_DIV(c, *up, t_lo, up);

	mov	ecx, DWORD PTR [rax+28]
; File z:\sources\lunor\repos\rougemeilland\palmtree.math.core.implements\palmtree.math.core.implements\pmc_internal.h

; 594  :     return (_FROMDWORDTOWORD((_UINT64_T)u * v, w_hi));

	imul	rdx, rdi

; 459  :     *result_high = (_UINT32_T)(value >> 32);

	mov	r9, rdx
	shr	r9, 32					; 00000020H

; 502  :     return (_addcarry_u32(carry, u, v, w));

	add	edx, r10d
	mov	DWORD PTR t_lo$32[rsp], edx
	adc	r9d, r15d

; 558  :     return (_subborrow_u32(borrow, u, v, w));

	add	r8b, -1

; 502  :     return (_addcarry_u32(carry, u, v, w));

	mov	DWORD PTR t_hi$33[rbp-256], r9d

; 558  :     return (_subborrow_u32(borrow, u, v, w));

	sbb	ecx, edx
	mov	DWORD PTR [rax+28], ecx

; 594  :     return (_FROMDWORDTOWORD((_UINT64_T)u * v, w_hi));

	mov	edx, DWORD PTR [rbx+32]

; 558  :     return (_subborrow_u32(borrow, u, v, w));

	setb	r8b
; File z:\sources\lunor\repos\rougemeilland\palmtree.math.core.implements\palmtree.math.core.implements\pmc_divrem.c

; 436  :     c = _SUBTRUCT_UNIT_DIV(c, *up, t_lo, up);

	mov	ecx, DWORD PTR [rax+32]
; File z:\sources\lunor\repos\rougemeilland\palmtree.math.core.implements\palmtree.math.core.implements\pmc_internal.h

; 594  :     return (_FROMDWORDTOWORD((_UINT64_T)u * v, w_hi));

	imul	rdx, rdi

; 459  :     *result_high = (_UINT32_T)(value >> 32);

	mov	r10, rdx
	shr	r10, 32					; 00000020H

; 502  :     return (_addcarry_u32(carry, u, v, w));

	add	edx, r9d
	mov	DWORD PTR t_lo$34[rbp-256], edx
	adc	r10d, r15d

; 558  :     return (_subborrow_u32(borrow, u, v, w));

	add	r8b, -1

; 502  :     return (_addcarry_u32(carry, u, v, w));

	mov	DWORD PTR t_hi$35[rbp-256], r10d

; 558  :     return (_subborrow_u32(borrow, u, v, w));

	sbb	ecx, edx
	mov	DWORD PTR [rax+32], ecx

; 594  :     return (_FROMDWORDTOWORD((_UINT64_T)u * v, w_hi));

	mov	edx, DWORD PTR [rbx+36]

; 558  :     return (_subborrow_u32(borrow, u, v, w));

	setb	r8b
; File z:\sources\lunor\repos\rougemeilland\palmtree.math.core.implements\palmtree.math.core.implements\pmc_divrem.c

; 436  :     c = _SUBTRUCT_UNIT_DIV(c, *up, t_lo, up);

	mov	ecx, DWORD PTR [rax+36]
; File z:\sources\lunor\repos\rougemeilland\palmtree.math.core.implements\palmtree.math.core.implements\pmc_internal.h

; 594  :     return (_FROMDWORDTOWORD((_UINT64_T)u * v, w_hi));

	imul	rdx, rdi

; 459  :     *result_high = (_UINT32_T)(value >> 32);

	mov	r9, rdx
	shr	r9, 32					; 00000020H

; 502  :     return (_addcarry_u32(carry, u, v, w));

	add	edx, r10d
	mov	DWORD PTR t_lo$36[rbp-256], edx
	adc	r9d, r15d

; 558  :     return (_subborrow_u32(borrow, u, v, w));

	add	r8b, -1

; 502  :     return (_addcarry_u32(carry, u, v, w));

	mov	DWORD PTR t_hi$37[rbp-256], r9d

; 558  :     return (_subborrow_u32(borrow, u, v, w));

	sbb	ecx, edx
	mov	DWORD PTR [rax+36], ecx

; 594  :     return (_FROMDWORDTOWORD((_UINT64_T)u * v, w_hi));

	mov	edx, DWORD PTR [rbx+40]

; 558  :     return (_subborrow_u32(borrow, u, v, w));

	setb	r8b
; File z:\sources\lunor\repos\rougemeilland\palmtree.math.core.implements\palmtree.math.core.implements\pmc_divrem.c

; 436  :     c = _SUBTRUCT_UNIT_DIV(c, *up, t_lo, up);

	mov	ecx, DWORD PTR [rax+40]
; File z:\sources\lunor\repos\rougemeilland\palmtree.math.core.implements\palmtree.math.core.implements\pmc_internal.h

; 594  :     return (_FROMDWORDTOWORD((_UINT64_T)u * v, w_hi));

	imul	rdx, rdi

; 459  :     *result_high = (_UINT32_T)(value >> 32);

	mov	r10, rdx
	shr	r10, 32					; 00000020H

; 502  :     return (_addcarry_u32(carry, u, v, w));

	add	edx, r9d
	mov	DWORD PTR t_lo$38[rbp-256], edx
	adc	r10d, r15d

; 558  :     return (_subborrow_u32(borrow, u, v, w));

	add	r8b, -1

; 502  :     return (_addcarry_u32(carry, u, v, w));

	mov	DWORD PTR t_hi$39[rbp-256], r10d

; 558  :     return (_subborrow_u32(borrow, u, v, w));

	sbb	ecx, edx
	mov	DWORD PTR [rax+40], ecx

; 594  :     return (_FROMDWORDTOWORD((_UINT64_T)u * v, w_hi));

	mov	edx, DWORD PTR [rbx+44]

; 558  :     return (_subborrow_u32(borrow, u, v, w));

	setb	r8b
; File z:\sources\lunor\repos\rougemeilland\palmtree.math.core.implements\palmtree.math.core.implements\pmc_divrem.c

; 436  :     c = _SUBTRUCT_UNIT_DIV(c, *up, t_lo, up);

	mov	ecx, DWORD PTR [rax+44]
; File z:\sources\lunor\repos\rougemeilland\palmtree.math.core.implements\palmtree.math.core.implements\pmc_internal.h

; 594  :     return (_FROMDWORDTOWORD((_UINT64_T)u * v, w_hi));

	imul	rdx, rdi

; 459  :     *result_high = (_UINT32_T)(value >> 32);

	mov	r9, rdx
	shr	r9, 32					; 00000020H

; 502  :     return (_addcarry_u32(carry, u, v, w));

	add	edx, r10d
	mov	DWORD PTR t_lo$40[rbp-256], edx
	adc	r9d, r15d

; 558  :     return (_subborrow_u32(borrow, u, v, w));

	add	r8b, -1

; 502  :     return (_addcarry_u32(carry, u, v, w));

	mov	DWORD PTR t_hi$41[rbp-256], r9d

; 558  :     return (_subborrow_u32(borrow, u, v, w));

	sbb	ecx, edx
	mov	DWORD PTR [rax+44], ecx

; 594  :     return (_FROMDWORDTOWORD((_UINT64_T)u * v, w_hi));

	mov	edx, DWORD PTR [rbx+48]

; 558  :     return (_subborrow_u32(borrow, u, v, w));

	setb	r8b

; 594  :     return (_FROMDWORDTOWORD((_UINT64_T)u * v, w_hi));

	imul	rdx, rdi

; 459  :     *result_high = (_UINT32_T)(value >> 32);

	mov	r10, rdx
	shr	r10, 32					; 00000020H

; 502  :     return (_addcarry_u32(carry, u, v, w));

	add	edx, r9d
	mov	DWORD PTR t_lo$42[rbp-256], edx
	adc	r10d, r15d
; File z:\sources\lunor\repos\rougemeilland\palmtree.math.core.implements\palmtree.math.core.implements\pmc_divrem.c

; 436  :     c = _SUBTRUCT_UNIT_DIV(c, *up, t_lo, up);

	mov	ecx, DWORD PTR [rax+48]
; File z:\sources\lunor\repos\rougemeilland\palmtree.math.core.implements\palmtree.math.core.implements\pmc_internal.h

; 558  :     return (_subborrow_u32(borrow, u, v, w));

	add	r8b, -1

; 502  :     return (_addcarry_u32(carry, u, v, w));

	mov	DWORD PTR t_hi$43[rbp-256], r10d

; 558  :     return (_subborrow_u32(borrow, u, v, w));

	sbb	ecx, edx
	mov	DWORD PTR [rax+48], ecx

; 594  :     return (_FROMDWORDTOWORD((_UINT64_T)u * v, w_hi));

	mov	edx, DWORD PTR [rbx+52]

; 558  :     return (_subborrow_u32(borrow, u, v, w));

	setb	r8b
; File z:\sources\lunor\repos\rougemeilland\palmtree.math.core.implements\palmtree.math.core.implements\pmc_divrem.c

; 436  :     c = _SUBTRUCT_UNIT_DIV(c, *up, t_lo, up);

	mov	ecx, DWORD PTR [rax+52]
; File z:\sources\lunor\repos\rougemeilland\palmtree.math.core.implements\palmtree.math.core.implements\pmc_internal.h

; 594  :     return (_FROMDWORDTOWORD((_UINT64_T)u * v, w_hi));

	imul	rdx, rdi

; 459  :     *result_high = (_UINT32_T)(value >> 32);

	mov	r9, rdx
	shr	r9, 32					; 00000020H

; 502  :     return (_addcarry_u32(carry, u, v, w));

	add	edx, r10d
	mov	DWORD PTR t_lo$44[rbp-256], edx
	adc	r9d, r15d

; 558  :     return (_subborrow_u32(borrow, u, v, w));

	add	r8b, -1

; 502  :     return (_addcarry_u32(carry, u, v, w));

	mov	DWORD PTR t_hi$45[rbp-256], r9d

; 558  :     return (_subborrow_u32(borrow, u, v, w));

	sbb	ecx, edx
	mov	DWORD PTR [rax+52], ecx

; 594  :     return (_FROMDWORDTOWORD((_UINT64_T)u * v, w_hi));

	mov	edx, DWORD PTR [rbx+56]

; 558  :     return (_subborrow_u32(borrow, u, v, w));

	setb	r8b
; File z:\sources\lunor\repos\rougemeilland\palmtree.math.core.implements\palmtree.math.core.implements\pmc_divrem.c

; 436  :     c = _SUBTRUCT_UNIT_DIV(c, *up, t_lo, up);

	mov	ecx, DWORD PTR [rax+56]
; File z:\sources\lunor\repos\rougemeilland\palmtree.math.core.implements\palmtree.math.core.implements\pmc_internal.h

; 594  :     return (_FROMDWORDTOWORD((_UINT64_T)u * v, w_hi));

	imul	rdx, rdi

; 459  :     *result_high = (_UINT32_T)(value >> 32);

	mov	r10, rdx
	shr	r10, 32					; 00000020H

; 502  :     return (_addcarry_u32(carry, u, v, w));

	add	edx, r9d
	mov	DWORD PTR t_lo$46[rbp-256], edx
	adc	r10d, r15d

; 558  :     return (_subborrow_u32(borrow, u, v, w));

	add	r8b, -1

; 502  :     return (_addcarry_u32(carry, u, v, w));

	mov	DWORD PTR t_hi$47[rbp-256], r10d

; 558  :     return (_subborrow_u32(borrow, u, v, w));

	sbb	ecx, edx
	mov	DWORD PTR [rax+56], ecx

; 594  :     return (_FROMDWORDTOWORD((_UINT64_T)u * v, w_hi));

	mov	edx, DWORD PTR [rbx+60]

; 558  :     return (_subborrow_u32(borrow, u, v, w));

	setb	r8b
; File z:\sources\lunor\repos\rougemeilland\palmtree.math.core.implements\palmtree.math.core.implements\pmc_divrem.c

; 436  :     c = _SUBTRUCT_UNIT_DIV(c, *up, t_lo, up);

	mov	ecx, DWORD PTR [rax+60]
; File z:\sources\lunor\repos\rougemeilland\palmtree.math.core.implements\palmtree.math.core.implements\pmc_internal.h

; 594  :     return (_FROMDWORDTOWORD((_UINT64_T)u * v, w_hi));

	imul	rdx, rdi

; 459  :     *result_high = (_UINT32_T)(value >> 32);

	mov	r9, rdx
	shr	r9, 32					; 00000020H

; 502  :     return (_addcarry_u32(carry, u, v, w));

	add	edx, r10d
	mov	DWORD PTR t_lo$48[rbp-256], edx
	adc	r9d, r15d

; 558  :     return (_subborrow_u32(borrow, u, v, w));

	add	r8b, -1

; 502  :     return (_addcarry_u32(carry, u, v, w));

	mov	DWORD PTR t_hi$49[rbp-256], r9d

; 558  :     return (_subborrow_u32(borrow, u, v, w));

	sbb	ecx, edx
	mov	DWORD PTR [rax+60], ecx

; 594  :     return (_FROMDWORDTOWORD((_UINT64_T)u * v, w_hi));

	mov	edx, DWORD PTR [rbx+64]

; 558  :     return (_subborrow_u32(borrow, u, v, w));

	setb	r8b
; File z:\sources\lunor\repos\rougemeilland\palmtree.math.core.implements\palmtree.math.core.implements\pmc_divrem.c

; 436  :     c = _SUBTRUCT_UNIT_DIV(c, *up, t_lo, up);

	mov	ecx, DWORD PTR [rax+64]
; File z:\sources\lunor\repos\rougemeilland\palmtree.math.core.implements\palmtree.math.core.implements\pmc_internal.h

; 594  :     return (_FROMDWORDTOWORD((_UINT64_T)u * v, w_hi));

	imul	rdx, rdi

; 459  :     *result_high = (_UINT32_T)(value >> 32);

	mov	r10, rdx
	shr	r10, 32					; 00000020H

; 502  :     return (_addcarry_u32(carry, u, v, w));

	add	edx, r9d
	mov	DWORD PTR t_lo$50[rbp-256], edx
	adc	r10d, r15d

; 558  :     return (_subborrow_u32(borrow, u, v, w));

	add	r8b, -1

; 502  :     return (_addcarry_u32(carry, u, v, w));

	mov	DWORD PTR t_hi$51[rbp-256], r10d

; 558  :     return (_subborrow_u32(borrow, u, v, w));

	sbb	ecx, edx
	mov	DWORD PTR [rax+64], ecx

; 594  :     return (_FROMDWORDTOWORD((_UINT64_T)u * v, w_hi));

	mov	edx, DWORD PTR [rbx+68]

; 558  :     return (_subborrow_u32(borrow, u, v, w));

	setb	r8b
; File z:\sources\lunor\repos\rougemeilland\palmtree.math.core.implements\palmtree.math.core.implements\pmc_divrem.c

; 436  :     c = _SUBTRUCT_UNIT_DIV(c, *up, t_lo, up);

	mov	ecx, DWORD PTR [rax+68]
; File z:\sources\lunor\repos\rougemeilland\palmtree.math.core.implements\palmtree.math.core.implements\pmc_internal.h

; 594  :     return (_FROMDWORDTOWORD((_UINT64_T)u * v, w_hi));

	imul	rdx, rdi

; 459  :     *result_high = (_UINT32_T)(value >> 32);

	mov	r9, rdx
	shr	r9, 32					; 00000020H

; 502  :     return (_addcarry_u32(carry, u, v, w));

	add	edx, r10d
	mov	DWORD PTR t_lo$52[rbp-256], edx
	adc	r9d, r15d

; 558  :     return (_subborrow_u32(borrow, u, v, w));

	add	r8b, -1

; 502  :     return (_addcarry_u32(carry, u, v, w));

	mov	DWORD PTR t_hi$53[rbp-256], r9d

; 558  :     return (_subborrow_u32(borrow, u, v, w));

	sbb	ecx, edx
	mov	DWORD PTR [rax+68], ecx

; 594  :     return (_FROMDWORDTOWORD((_UINT64_T)u * v, w_hi));

	mov	edx, DWORD PTR [rbx+72]

; 558  :     return (_subborrow_u32(borrow, u, v, w));

	setb	r8b
; File z:\sources\lunor\repos\rougemeilland\palmtree.math.core.implements\palmtree.math.core.implements\pmc_divrem.c

; 436  :     c = _SUBTRUCT_UNIT_DIV(c, *up, t_lo, up);

	mov	ecx, DWORD PTR [rax+72]
; File z:\sources\lunor\repos\rougemeilland\palmtree.math.core.implements\palmtree.math.core.implements\pmc_internal.h

; 594  :     return (_FROMDWORDTOWORD((_UINT64_T)u * v, w_hi));

	imul	rdx, rdi

; 459  :     *result_high = (_UINT32_T)(value >> 32);

	mov	r10, rdx
	shr	r10, 32					; 00000020H

; 502  :     return (_addcarry_u32(carry, u, v, w));

	add	edx, r9d
	mov	DWORD PTR t_lo$54[rbp-256], edx
	adc	r10d, r15d
	mov	DWORD PTR t_hi$55[rbp-256], r10d

; 558  :     return (_subborrow_u32(borrow, u, v, w));

	add	r8b, -1
	sbb	ecx, edx
	mov	DWORD PTR [rax+72], ecx

; 594  :     return (_FROMDWORDTOWORD((_UINT64_T)u * v, w_hi));

	mov	edx, DWORD PTR [rbx+76]

; 558  :     return (_subborrow_u32(borrow, u, v, w));

	setb	r8b
; File z:\sources\lunor\repos\rougemeilland\palmtree.math.core.implements\palmtree.math.core.implements\pmc_divrem.c

; 436  :     c = _SUBTRUCT_UNIT_DIV(c, *up, t_lo, up);

	mov	ecx, DWORD PTR [rax+76]
; File z:\sources\lunor\repos\rougemeilland\palmtree.math.core.implements\palmtree.math.core.implements\pmc_internal.h

; 594  :     return (_FROMDWORDTOWORD((_UINT64_T)u * v, w_hi));

	imul	rdx, rdi

; 459  :     *result_high = (_UINT32_T)(value >> 32);

	mov	r9, rdx
	shr	r9, 32					; 00000020H

; 502  :     return (_addcarry_u32(carry, u, v, w));

	add	edx, r10d
	mov	DWORD PTR t_lo$56[rbp-256], edx
	adc	r9d, r15d

; 558  :     return (_subborrow_u32(borrow, u, v, w));

	add	r8b, -1

; 502  :     return (_addcarry_u32(carry, u, v, w));

	mov	DWORD PTR t_hi$57[rbp-256], r9d

; 558  :     return (_subborrow_u32(borrow, u, v, w));

	sbb	ecx, edx
	mov	DWORD PTR [rax+76], ecx

; 594  :     return (_FROMDWORDTOWORD((_UINT64_T)u * v, w_hi));

	mov	edx, DWORD PTR [rbx+80]

; 558  :     return (_subborrow_u32(borrow, u, v, w));

	setb	r8b
; File z:\sources\lunor\repos\rougemeilland\palmtree.math.core.implements\palmtree.math.core.implements\pmc_divrem.c

; 436  :     c = _SUBTRUCT_UNIT_DIV(c, *up, t_lo, up);

	mov	ecx, DWORD PTR [rax+80]
; File z:\sources\lunor\repos\rougemeilland\palmtree.math.core.implements\palmtree.math.core.implements\pmc_internal.h

; 594  :     return (_FROMDWORDTOWORD((_UINT64_T)u * v, w_hi));

	imul	rdx, rdi

; 459  :     *result_high = (_UINT32_T)(value >> 32);

	mov	r10, rdx
	shr	r10, 32					; 00000020H

; 502  :     return (_addcarry_u32(carry, u, v, w));

	add	edx, r9d
	mov	DWORD PTR t_lo$58[rbp-256], edx
	adc	r10d, r15d

; 558  :     return (_subborrow_u32(borrow, u, v, w));

	add	r8b, -1

; 502  :     return (_addcarry_u32(carry, u, v, w));

	mov	DWORD PTR t_hi$59[rbp-256], r10d

; 558  :     return (_subborrow_u32(borrow, u, v, w));

	sbb	ecx, edx
	mov	DWORD PTR [rax+80], ecx

; 594  :     return (_FROMDWORDTOWORD((_UINT64_T)u * v, w_hi));

	mov	edx, DWORD PTR [rbx+84]

; 558  :     return (_subborrow_u32(borrow, u, v, w));

	setb	r8b
; File z:\sources\lunor\repos\rougemeilland\palmtree.math.core.implements\palmtree.math.core.implements\pmc_divrem.c

; 436  :     c = _SUBTRUCT_UNIT_DIV(c, *up, t_lo, up);

	mov	ecx, DWORD PTR [rax+84]
; File z:\sources\lunor\repos\rougemeilland\palmtree.math.core.implements\palmtree.math.core.implements\pmc_internal.h

; 594  :     return (_FROMDWORDTOWORD((_UINT64_T)u * v, w_hi));

	imul	rdx, rdi

; 459  :     *result_high = (_UINT32_T)(value >> 32);

	mov	r9, rdx
	shr	r9, 32					; 00000020H

; 502  :     return (_addcarry_u32(carry, u, v, w));

	add	edx, r10d
	mov	DWORD PTR t_lo$60[rbp-256], edx
	adc	r9d, r15d

; 558  :     return (_subborrow_u32(borrow, u, v, w));

	add	r8b, -1

; 502  :     return (_addcarry_u32(carry, u, v, w));

	mov	DWORD PTR t_hi$61[rbp-256], r9d

; 558  :     return (_subborrow_u32(borrow, u, v, w));

	sbb	ecx, edx
	mov	DWORD PTR [rax+84], ecx

; 594  :     return (_FROMDWORDTOWORD((_UINT64_T)u * v, w_hi));

	mov	edx, DWORD PTR [rbx+88]

; 558  :     return (_subborrow_u32(borrow, u, v, w));

	setb	r8b
; File z:\sources\lunor\repos\rougemeilland\palmtree.math.core.implements\palmtree.math.core.implements\pmc_divrem.c

; 436  :     c = _SUBTRUCT_UNIT_DIV(c, *up, t_lo, up);

	mov	ecx, DWORD PTR [rax+88]
; File z:\sources\lunor\repos\rougemeilland\palmtree.math.core.implements\palmtree.math.core.implements\pmc_internal.h

; 594  :     return (_FROMDWORDTOWORD((_UINT64_T)u * v, w_hi));

	imul	rdx, rdi

; 459  :     *result_high = (_UINT32_T)(value >> 32);

	mov	r10, rdx
	shr	r10, 32					; 00000020H

; 502  :     return (_addcarry_u32(carry, u, v, w));

	add	edx, r9d
	mov	DWORD PTR t_lo$62[rbp-256], edx
	adc	r10d, r15d

; 558  :     return (_subborrow_u32(borrow, u, v, w));

	add	r8b, -1

; 502  :     return (_addcarry_u32(carry, u, v, w));

	mov	DWORD PTR t_hi$63[rbp-256], r10d

; 558  :     return (_subborrow_u32(borrow, u, v, w));

	sbb	ecx, edx
	mov	DWORD PTR [rax+88], ecx

; 594  :     return (_FROMDWORDTOWORD((_UINT64_T)u * v, w_hi));

	mov	edx, DWORD PTR [rbx+92]

; 558  :     return (_subborrow_u32(borrow, u, v, w));

	setb	r8b
; File z:\sources\lunor\repos\rougemeilland\palmtree.math.core.implements\palmtree.math.core.implements\pmc_divrem.c

; 436  :     c = _SUBTRUCT_UNIT_DIV(c, *up, t_lo, up);

	mov	ecx, DWORD PTR [rax+92]
; File z:\sources\lunor\repos\rougemeilland\palmtree.math.core.implements\palmtree.math.core.implements\pmc_internal.h

; 594  :     return (_FROMDWORDTOWORD((_UINT64_T)u * v, w_hi));

	imul	rdx, rdi

; 459  :     *result_high = (_UINT32_T)(value >> 32);

	mov	r9, rdx
	shr	r9, 32					; 00000020H

; 502  :     return (_addcarry_u32(carry, u, v, w));

	add	edx, r10d
	mov	DWORD PTR t_lo$64[rbp-256], edx
	adc	r9d, r15d

; 558  :     return (_subborrow_u32(borrow, u, v, w));

	add	r8b, -1

; 502  :     return (_addcarry_u32(carry, u, v, w));

	mov	DWORD PTR t_hi$65[rbp-256], r9d

; 558  :     return (_subborrow_u32(borrow, u, v, w));

	sbb	ecx, edx
	mov	DWORD PTR [rax+92], ecx

; 594  :     return (_FROMDWORDTOWORD((_UINT64_T)u * v, w_hi));

	mov	edx, DWORD PTR [rbx+96]

; 558  :     return (_subborrow_u32(borrow, u, v, w));

	setb	r8b
; File z:\sources\lunor\repos\rougemeilland\palmtree.math.core.implements\palmtree.math.core.implements\pmc_divrem.c

; 436  :     c = _SUBTRUCT_UNIT_DIV(c, *up, t_lo, up);

	mov	ecx, DWORD PTR [rax+96]
; File z:\sources\lunor\repos\rougemeilland\palmtree.math.core.implements\palmtree.math.core.implements\pmc_internal.h

; 594  :     return (_FROMDWORDTOWORD((_UINT64_T)u * v, w_hi));

	imul	rdx, rdi

; 459  :     *result_high = (_UINT32_T)(value >> 32);

	mov	r10, rdx
	shr	r10, 32					; 00000020H

; 502  :     return (_addcarry_u32(carry, u, v, w));

	add	edx, r9d
	mov	DWORD PTR t_lo$66[rbp-256], edx
	adc	r10d, r15d

; 558  :     return (_subborrow_u32(borrow, u, v, w));

	add	r8b, -1

; 502  :     return (_addcarry_u32(carry, u, v, w));

	mov	DWORD PTR t_hi$67[rbp-256], r10d

; 558  :     return (_subborrow_u32(borrow, u, v, w));

	sbb	ecx, edx
	setb	r8b
	mov	DWORD PTR [rax+96], ecx

; 594  :     return (_FROMDWORDTOWORD((_UINT64_T)u * v, w_hi));

	mov	edx, DWORD PTR [rbx+100]
; File z:\sources\lunor\repos\rougemeilland\palmtree.math.core.implements\palmtree.math.core.implements\pmc_divrem.c

; 436  :     c = _SUBTRUCT_UNIT_DIV(c, *up, t_lo, up);

	mov	ecx, DWORD PTR [rax+100]
; File z:\sources\lunor\repos\rougemeilland\palmtree.math.core.implements\palmtree.math.core.implements\pmc_internal.h

; 594  :     return (_FROMDWORDTOWORD((_UINT64_T)u * v, w_hi));

	imul	rdx, rdi

; 459  :     *result_high = (_UINT32_T)(value >> 32);

	mov	r9, rdx
	shr	r9, 32					; 00000020H

; 502  :     return (_addcarry_u32(carry, u, v, w));

	add	edx, r10d
	mov	DWORD PTR t_lo$68[rbp-256], edx
	adc	r9d, r15d

; 558  :     return (_subborrow_u32(borrow, u, v, w));

	add	r8b, -1

; 502  :     return (_addcarry_u32(carry, u, v, w));

	mov	DWORD PTR t_hi$69[rbp-256], r9d

; 558  :     return (_subborrow_u32(borrow, u, v, w));

	sbb	ecx, edx
	mov	DWORD PTR [rax+100], ecx

; 594  :     return (_FROMDWORDTOWORD((_UINT64_T)u * v, w_hi));

	mov	edx, DWORD PTR [rbx+104]

; 558  :     return (_subborrow_u32(borrow, u, v, w));

	setb	r8b
; File z:\sources\lunor\repos\rougemeilland\palmtree.math.core.implements\palmtree.math.core.implements\pmc_divrem.c

; 436  :     c = _SUBTRUCT_UNIT_DIV(c, *up, t_lo, up);

	mov	ecx, DWORD PTR [rax+104]
; File z:\sources\lunor\repos\rougemeilland\palmtree.math.core.implements\palmtree.math.core.implements\pmc_internal.h

; 594  :     return (_FROMDWORDTOWORD((_UINT64_T)u * v, w_hi));

	imul	rdx, rdi

; 459  :     *result_high = (_UINT32_T)(value >> 32);

	mov	r10, rdx
	shr	r10, 32					; 00000020H

; 502  :     return (_addcarry_u32(carry, u, v, w));

	add	edx, r9d
	mov	DWORD PTR t_lo$70[rbp-256], edx
	adc	r10d, r15d

; 558  :     return (_subborrow_u32(borrow, u, v, w));

	add	r8b, -1

; 502  :     return (_addcarry_u32(carry, u, v, w));

	mov	DWORD PTR t_hi$71[rbp-256], r10d

; 558  :     return (_subborrow_u32(borrow, u, v, w));

	sbb	ecx, edx
	mov	DWORD PTR [rax+104], ecx

; 594  :     return (_FROMDWORDTOWORD((_UINT64_T)u * v, w_hi));

	mov	edx, DWORD PTR [rbx+108]

; 558  :     return (_subborrow_u32(borrow, u, v, w));

	setb	r8b
; File z:\sources\lunor\repos\rougemeilland\palmtree.math.core.implements\palmtree.math.core.implements\pmc_divrem.c

; 436  :     c = _SUBTRUCT_UNIT_DIV(c, *up, t_lo, up);

	mov	ecx, DWORD PTR [rax+108]
; File z:\sources\lunor\repos\rougemeilland\palmtree.math.core.implements\palmtree.math.core.implements\pmc_internal.h

; 594  :     return (_FROMDWORDTOWORD((_UINT64_T)u * v, w_hi));

	imul	rdx, rdi

; 459  :     *result_high = (_UINT32_T)(value >> 32);

	mov	r9, rdx
	shr	r9, 32					; 00000020H

; 502  :     return (_addcarry_u32(carry, u, v, w));

	add	edx, r10d
	mov	DWORD PTR t_lo$72[rbp-256], edx
	adc	r9d, r15d

; 558  :     return (_subborrow_u32(borrow, u, v, w));

	add	r8b, -1

; 502  :     return (_addcarry_u32(carry, u, v, w));

	mov	DWORD PTR t_hi$73[rbp-256], r9d

; 558  :     return (_subborrow_u32(borrow, u, v, w));

	sbb	ecx, edx
	mov	DWORD PTR [rax+108], ecx

; 594  :     return (_FROMDWORDTOWORD((_UINT64_T)u * v, w_hi));

	mov	edx, DWORD PTR [rbx+112]

; 558  :     return (_subborrow_u32(borrow, u, v, w));

	setb	r8b
; File z:\sources\lunor\repos\rougemeilland\palmtree.math.core.implements\palmtree.math.core.implements\pmc_divrem.c

; 436  :     c = _SUBTRUCT_UNIT_DIV(c, *up, t_lo, up);

	mov	ecx, DWORD PTR [rax+112]
; File z:\sources\lunor\repos\rougemeilland\palmtree.math.core.implements\palmtree.math.core.implements\pmc_internal.h

; 594  :     return (_FROMDWORDTOWORD((_UINT64_T)u * v, w_hi));

	imul	rdx, rdi

; 459  :     *result_high = (_UINT32_T)(value >> 32);

	mov	r10, rdx
	shr	r10, 32					; 00000020H

; 502  :     return (_addcarry_u32(carry, u, v, w));

	add	edx, r9d
	mov	DWORD PTR t_lo$74[rbp-256], edx
	adc	r10d, r15d

; 558  :     return (_subborrow_u32(borrow, u, v, w));

	add	r8b, -1

; 502  :     return (_addcarry_u32(carry, u, v, w));

	mov	DWORD PTR t_hi$75[rbp-256], r10d

; 558  :     return (_subborrow_u32(borrow, u, v, w));

	sbb	ecx, edx
	mov	DWORD PTR [rax+112], ecx

; 594  :     return (_FROMDWORDTOWORD((_UINT64_T)u * v, w_hi));

	mov	edx, DWORD PTR [rbx+116]

; 558  :     return (_subborrow_u32(borrow, u, v, w));

	setb	r8b
; File z:\sources\lunor\repos\rougemeilland\palmtree.math.core.implements\palmtree.math.core.implements\pmc_divrem.c

; 436  :     c = _SUBTRUCT_UNIT_DIV(c, *up, t_lo, up);

	mov	ecx, DWORD PTR [rax+116]
; File z:\sources\lunor\repos\rougemeilland\palmtree.math.core.implements\palmtree.math.core.implements\pmc_internal.h

; 594  :     return (_FROMDWORDTOWORD((_UINT64_T)u * v, w_hi));

	imul	rdx, rdi

; 459  :     *result_high = (_UINT32_T)(value >> 32);

	mov	r9, rdx
	shr	r9, 32					; 00000020H

; 502  :     return (_addcarry_u32(carry, u, v, w));

	add	edx, r10d
	mov	DWORD PTR t_lo$76[rbp-256], edx
	adc	r9d, r15d

; 558  :     return (_subborrow_u32(borrow, u, v, w));

	add	r8b, -1

; 502  :     return (_addcarry_u32(carry, u, v, w));

	mov	DWORD PTR t_hi$77[rbp-256], r9d

; 558  :     return (_subborrow_u32(borrow, u, v, w));

	sbb	ecx, edx
	mov	DWORD PTR [rax+116], ecx

; 594  :     return (_FROMDWORDTOWORD((_UINT64_T)u * v, w_hi));

	mov	edx, DWORD PTR [rbx+120]

; 558  :     return (_subborrow_u32(borrow, u, v, w));

	setb	r8b
; File z:\sources\lunor\repos\rougemeilland\palmtree.math.core.implements\palmtree.math.core.implements\pmc_divrem.c

; 436  :     c = _SUBTRUCT_UNIT_DIV(c, *up, t_lo, up);

	mov	ecx, DWORD PTR [rax+120]
; File z:\sources\lunor\repos\rougemeilland\palmtree.math.core.implements\palmtree.math.core.implements\pmc_internal.h

; 594  :     return (_FROMDWORDTOWORD((_UINT64_T)u * v, w_hi));

	imul	rdx, rdi

; 459  :     *result_high = (_UINT32_T)(value >> 32);

	mov	r10, rdx
	shr	r10, 32					; 00000020H

; 502  :     return (_addcarry_u32(carry, u, v, w));

	add	edx, r9d
	mov	DWORD PTR t_lo$78[rbp-256], edx
	adc	r10d, r15d

; 558  :     return (_subborrow_u32(borrow, u, v, w));

	add	r8b, -1

; 502  :     return (_addcarry_u32(carry, u, v, w));

	mov	DWORD PTR t_hi$79[rbp-256], r10d

; 558  :     return (_subborrow_u32(borrow, u, v, w));

	sbb	ecx, edx
	mov	DWORD PTR [rax+120], ecx

; 594  :     return (_FROMDWORDTOWORD((_UINT64_T)u * v, w_hi));

	mov	edx, DWORD PTR [rbx+124]

; 558  :     return (_subborrow_u32(borrow, u, v, w));

	setb	r8b

; 594  :     return (_FROMDWORDTOWORD((_UINT64_T)u * v, w_hi));

	imul	rdx, rdi
; File z:\sources\lunor\repos\rougemeilland\palmtree.math.core.implements\palmtree.math.core.implements\pmc_divrem.c

; 436  :     c = _SUBTRUCT_UNIT_DIV(c, *up, t_lo, up);

	mov	ecx, DWORD PTR [rax+124]
; File z:\sources\lunor\repos\rougemeilland\palmtree.math.core.implements\palmtree.math.core.implements\pmc_internal.h

; 459  :     *result_high = (_UINT32_T)(value >> 32);

	mov	rsi, rdx
	shr	rsi, 32					; 00000020H

; 502  :     return (_addcarry_u32(carry, u, v, w));

	add	edx, r10d
	mov	DWORD PTR t_lo$80[rbp-256], edx
	adc	esi, r15d

; 558  :     return (_subborrow_u32(borrow, u, v, w));

	add	r8b, -1

; 502  :     return (_addcarry_u32(carry, u, v, w));

	mov	DWORD PTR t_hi$81[rbp-256], esi

; 558  :     return (_subborrow_u32(borrow, u, v, w));

	sbb	ecx, edx
	mov	DWORD PTR [rax+124], ecx

; 1097 :     _InterlockedExchangeAdd(&statistics_info.COUNT_MULTI32, value);

	mov	ecx, 32					; 00000020H

; 558  :     return (_subborrow_u32(borrow, u, v, w));

	setb	r11b
; File z:\sources\lunor\repos\rougemeilland\palmtree.math.core.implements\palmtree.math.core.implements\pmc_divrem.c

; 495  :         u_ptr += 32;

	sub	rax, -128				; ffffffffffffff80H

; 496  :         v_ptr += 32;

	sub	rbx, -128				; ffffffffffffff80H
; File z:\sources\lunor\repos\rougemeilland\palmtree.math.core.implements\palmtree.math.core.implements\pmc_internal.h

; 1097 :     _InterlockedExchangeAdd(&statistics_info.COUNT_MULTI32, value);

	lock xadd DWORD PTR statistics_info+4, ecx
; File z:\sources\lunor\repos\rougemeilland\palmtree.math.core.implements\palmtree.math.core.implements\pmc_divrem.c

; 461  :     while (count != 0)

	sub	r12, 1
	jne	$LL2@SubtructOn
$LN821@SubtructOn:

; 497  :         --count;
; 498  : #ifdef ENABLED_PERFORMANCE_COUNTER
; 499  :         if (sizeof(k) == sizeof(_UINT64_T))
; 500  :             AddToMULTI64Counter(32);
; 501  :         else
; 502  :             AddToMULTI32Counter(32);
; 503  : #endif
; 504  :     }
; 505  : 
; 506  :     if (v_count & 0x10)

	test	r14b, 16
	je	$LN604@SubtructOn
; File z:\sources\lunor\repos\rougemeilland\palmtree.math.core.implements\palmtree.math.core.implements\pmc_internal.h

; 594  :     return (_FROMDWORDTOWORD((_UINT64_T)u * v, w_hi));

	mov	edx, DWORD PTR [rbx]
; File z:\sources\lunor\repos\rougemeilland\palmtree.math.core.implements\palmtree.math.core.implements\pmc_divrem.c

; 436  :     c = _SUBTRUCT_UNIT_DIV(c, *up, t_lo, up);

	mov	ecx, DWORD PTR [rax]
; File z:\sources\lunor\repos\rougemeilland\palmtree.math.core.implements\palmtree.math.core.implements\pmc_internal.h

; 594  :     return (_FROMDWORDTOWORD((_UINT64_T)u * v, w_hi));

	imul	rdx, rdi

; 459  :     *result_high = (_UINT32_T)(value >> 32);

	mov	r9, rdx
	shr	r9, 32					; 00000020H

; 502  :     return (_addcarry_u32(carry, u, v, w));

	add	edx, esi
	mov	DWORD PTR t_lo$4[rsp], edx
	adc	r9d, r15d

; 558  :     return (_subborrow_u32(borrow, u, v, w));

	add	r11b, -1

; 502  :     return (_addcarry_u32(carry, u, v, w));

	mov	DWORD PTR t_hi$82[rbp-256], r9d

; 558  :     return (_subborrow_u32(borrow, u, v, w));

	sbb	ecx, edx
	mov	DWORD PTR [rax], ecx

; 594  :     return (_FROMDWORDTOWORD((_UINT64_T)u * v, w_hi));

	mov	edx, DWORD PTR [rbx+4]

; 558  :     return (_subborrow_u32(borrow, u, v, w));

	setb	r8b
; File z:\sources\lunor\repos\rougemeilland\palmtree.math.core.implements\palmtree.math.core.implements\pmc_divrem.c

; 436  :     c = _SUBTRUCT_UNIT_DIV(c, *up, t_lo, up);

	mov	ecx, DWORD PTR [rax+4]
; File z:\sources\lunor\repos\rougemeilland\palmtree.math.core.implements\palmtree.math.core.implements\pmc_internal.h

; 594  :     return (_FROMDWORDTOWORD((_UINT64_T)u * v, w_hi));

	imul	rdx, rdi

; 459  :     *result_high = (_UINT32_T)(value >> 32);

	mov	r10, rdx
	shr	r10, 32					; 00000020H

; 502  :     return (_addcarry_u32(carry, u, v, w));

	add	edx, r9d
	mov	DWORD PTR t_lo$5[rsp], edx
	adc	r10d, r15d

; 558  :     return (_subborrow_u32(borrow, u, v, w));

	add	r8b, -1

; 502  :     return (_addcarry_u32(carry, u, v, w));

	mov	DWORD PTR t_hi$83[rbp-256], r10d

; 558  :     return (_subborrow_u32(borrow, u, v, w));

	sbb	ecx, edx
	mov	DWORD PTR [rax+4], ecx

; 594  :     return (_FROMDWORDTOWORD((_UINT64_T)u * v, w_hi));

	mov	edx, DWORD PTR [rbx+8]

; 558  :     return (_subborrow_u32(borrow, u, v, w));

	setb	r8b
; File z:\sources\lunor\repos\rougemeilland\palmtree.math.core.implements\palmtree.math.core.implements\pmc_divrem.c

; 436  :     c = _SUBTRUCT_UNIT_DIV(c, *up, t_lo, up);

	mov	ecx, DWORD PTR [rax+8]
; File z:\sources\lunor\repos\rougemeilland\palmtree.math.core.implements\palmtree.math.core.implements\pmc_internal.h

; 594  :     return (_FROMDWORDTOWORD((_UINT64_T)u * v, w_hi));

	imul	rdx, rdi

; 459  :     *result_high = (_UINT32_T)(value >> 32);

	mov	r9, rdx
	shr	r9, 32					; 00000020H

; 502  :     return (_addcarry_u32(carry, u, v, w));

	add	edx, r10d
	mov	DWORD PTR t_lo$6[rsp], edx
	adc	r9d, r15d

; 558  :     return (_subborrow_u32(borrow, u, v, w));

	add	r8b, -1

; 502  :     return (_addcarry_u32(carry, u, v, w));

	mov	DWORD PTR t_hi$84[rbp-256], r9d

; 558  :     return (_subborrow_u32(borrow, u, v, w));

	sbb	ecx, edx
	mov	DWORD PTR [rax+8], ecx

; 594  :     return (_FROMDWORDTOWORD((_UINT64_T)u * v, w_hi));

	mov	edx, DWORD PTR [rbx+12]

; 558  :     return (_subborrow_u32(borrow, u, v, w));

	setb	r8b
; File z:\sources\lunor\repos\rougemeilland\palmtree.math.core.implements\palmtree.math.core.implements\pmc_divrem.c

; 436  :     c = _SUBTRUCT_UNIT_DIV(c, *up, t_lo, up);

	mov	ecx, DWORD PTR [rax+12]
; File z:\sources\lunor\repos\rougemeilland\palmtree.math.core.implements\palmtree.math.core.implements\pmc_internal.h

; 594  :     return (_FROMDWORDTOWORD((_UINT64_T)u * v, w_hi));

	imul	rdx, rdi

; 459  :     *result_high = (_UINT32_T)(value >> 32);

	mov	r10, rdx
	shr	r10, 32					; 00000020H

; 502  :     return (_addcarry_u32(carry, u, v, w));

	add	edx, r9d
	mov	DWORD PTR t_lo$7[rsp], edx
	adc	r10d, r15d

; 558  :     return (_subborrow_u32(borrow, u, v, w));

	add	r8b, -1

; 502  :     return (_addcarry_u32(carry, u, v, w));

	mov	DWORD PTR t_hi$85[rbp-256], r10d

; 558  :     return (_subborrow_u32(borrow, u, v, w));

	sbb	ecx, edx
	mov	DWORD PTR [rax+12], ecx

; 594  :     return (_FROMDWORDTOWORD((_UINT64_T)u * v, w_hi));

	mov	edx, DWORD PTR [rbx+16]

; 558  :     return (_subborrow_u32(borrow, u, v, w));

	setb	r8b
; File z:\sources\lunor\repos\rougemeilland\palmtree.math.core.implements\palmtree.math.core.implements\pmc_divrem.c

; 436  :     c = _SUBTRUCT_UNIT_DIV(c, *up, t_lo, up);

	mov	ecx, DWORD PTR [rax+16]
; File z:\sources\lunor\repos\rougemeilland\palmtree.math.core.implements\palmtree.math.core.implements\pmc_internal.h

; 594  :     return (_FROMDWORDTOWORD((_UINT64_T)u * v, w_hi));

	imul	rdx, rdi

; 459  :     *result_high = (_UINT32_T)(value >> 32);

	mov	r9, rdx
	shr	r9, 32					; 00000020H

; 502  :     return (_addcarry_u32(carry, u, v, w));

	add	edx, r10d
	mov	DWORD PTR t_lo$8[rsp], edx
	adc	r9d, r15d

; 558  :     return (_subborrow_u32(borrow, u, v, w));

	add	r8b, -1

; 502  :     return (_addcarry_u32(carry, u, v, w));

	mov	DWORD PTR t_hi$86[rbp-256], r9d

; 558  :     return (_subborrow_u32(borrow, u, v, w));

	sbb	ecx, edx
	mov	DWORD PTR [rax+16], ecx

; 594  :     return (_FROMDWORDTOWORD((_UINT64_T)u * v, w_hi));

	mov	edx, DWORD PTR [rbx+20]

; 558  :     return (_subborrow_u32(borrow, u, v, w));

	setb	r8b
; File z:\sources\lunor\repos\rougemeilland\palmtree.math.core.implements\palmtree.math.core.implements\pmc_divrem.c

; 436  :     c = _SUBTRUCT_UNIT_DIV(c, *up, t_lo, up);

	mov	ecx, DWORD PTR [rax+20]
; File z:\sources\lunor\repos\rougemeilland\palmtree.math.core.implements\palmtree.math.core.implements\pmc_internal.h

; 594  :     return (_FROMDWORDTOWORD((_UINT64_T)u * v, w_hi));

	imul	rdx, rdi

; 459  :     *result_high = (_UINT32_T)(value >> 32);

	mov	r11, rdx
	shr	r11, 32					; 00000020H

; 502  :     return (_addcarry_u32(carry, u, v, w));

	add	edx, r9d
	mov	DWORD PTR t_lo$9[rsp], edx
	adc	r11d, r15d

; 558  :     return (_subborrow_u32(borrow, u, v, w));

	add	r8b, -1

; 502  :     return (_addcarry_u32(carry, u, v, w));

	mov	DWORD PTR t_hi$87[rbp-256], r11d

; 558  :     return (_subborrow_u32(borrow, u, v, w));

	sbb	ecx, edx
	mov	DWORD PTR [rax+20], ecx

; 594  :     return (_FROMDWORDTOWORD((_UINT64_T)u * v, w_hi));

	mov	edx, DWORD PTR [rbx+24]

; 558  :     return (_subborrow_u32(borrow, u, v, w));

	setb	r8b

; 594  :     return (_FROMDWORDTOWORD((_UINT64_T)u * v, w_hi));

	imul	rdx, rdi

; 459  :     *result_high = (_UINT32_T)(value >> 32);

	mov	r10, rdx
; File z:\sources\lunor\repos\rougemeilland\palmtree.math.core.implements\palmtree.math.core.implements\pmc_divrem.c

; 436  :     c = _SUBTRUCT_UNIT_DIV(c, *up, t_lo, up);

	mov	ecx, DWORD PTR [rax+24]
; File z:\sources\lunor\repos\rougemeilland\palmtree.math.core.implements\palmtree.math.core.implements\pmc_internal.h

; 459  :     *result_high = (_UINT32_T)(value >> 32);

	shr	r10, 32					; 00000020H

; 502  :     return (_addcarry_u32(carry, u, v, w));

	add	edx, r11d
	mov	DWORD PTR t_lo$10[rsp], edx
	adc	r10d, r15d

; 558  :     return (_subborrow_u32(borrow, u, v, w));

	add	r8b, -1

; 502  :     return (_addcarry_u32(carry, u, v, w));

	mov	DWORD PTR t_hi$88[rbp-256], r10d

; 558  :     return (_subborrow_u32(borrow, u, v, w));

	sbb	ecx, edx
	mov	DWORD PTR [rax+24], ecx

; 594  :     return (_FROMDWORDTOWORD((_UINT64_T)u * v, w_hi));

	mov	edx, DWORD PTR [rbx+28]

; 558  :     return (_subborrow_u32(borrow, u, v, w));

	setb	r8b
; File z:\sources\lunor\repos\rougemeilland\palmtree.math.core.implements\palmtree.math.core.implements\pmc_divrem.c

; 436  :     c = _SUBTRUCT_UNIT_DIV(c, *up, t_lo, up);

	mov	ecx, DWORD PTR [rax+28]
; File z:\sources\lunor\repos\rougemeilland\palmtree.math.core.implements\palmtree.math.core.implements\pmc_internal.h

; 594  :     return (_FROMDWORDTOWORD((_UINT64_T)u * v, w_hi));

	imul	rdx, rdi

; 459  :     *result_high = (_UINT32_T)(value >> 32);

	mov	r9, rdx
	shr	r9, 32					; 00000020H

; 502  :     return (_addcarry_u32(carry, u, v, w));

	add	edx, r10d
	mov	DWORD PTR t_lo$89[rbp-256], edx
	adc	r9d, r15d

; 558  :     return (_subborrow_u32(borrow, u, v, w));

	add	r8b, -1

; 502  :     return (_addcarry_u32(carry, u, v, w));

	mov	DWORD PTR t_hi$90[rbp-256], r9d

; 558  :     return (_subborrow_u32(borrow, u, v, w));

	sbb	ecx, edx
	mov	DWORD PTR [rax+28], ecx

; 594  :     return (_FROMDWORDTOWORD((_UINT64_T)u * v, w_hi));

	mov	edx, DWORD PTR [rbx+32]

; 558  :     return (_subborrow_u32(borrow, u, v, w));

	setb	r8b
; File z:\sources\lunor\repos\rougemeilland\palmtree.math.core.implements\palmtree.math.core.implements\pmc_divrem.c

; 436  :     c = _SUBTRUCT_UNIT_DIV(c, *up, t_lo, up);

	mov	ecx, DWORD PTR [rax+32]
; File z:\sources\lunor\repos\rougemeilland\palmtree.math.core.implements\palmtree.math.core.implements\pmc_internal.h

; 594  :     return (_FROMDWORDTOWORD((_UINT64_T)u * v, w_hi));

	imul	rdx, rdi

; 459  :     *result_high = (_UINT32_T)(value >> 32);

	mov	r10, rdx
	shr	r10, 32					; 00000020H

; 502  :     return (_addcarry_u32(carry, u, v, w));

	add	edx, r9d
	mov	DWORD PTR t_lo$91[rbp-256], edx
	adc	r10d, r15d

; 558  :     return (_subborrow_u32(borrow, u, v, w));

	add	r8b, -1

; 502  :     return (_addcarry_u32(carry, u, v, w));

	mov	DWORD PTR t_hi$92[rbp-256], r10d

; 558  :     return (_subborrow_u32(borrow, u, v, w));

	sbb	ecx, edx
	mov	DWORD PTR [rax+32], ecx

; 594  :     return (_FROMDWORDTOWORD((_UINT64_T)u * v, w_hi));

	mov	edx, DWORD PTR [rbx+36]

; 558  :     return (_subborrow_u32(borrow, u, v, w));

	setb	r8b
; File z:\sources\lunor\repos\rougemeilland\palmtree.math.core.implements\palmtree.math.core.implements\pmc_divrem.c

; 436  :     c = _SUBTRUCT_UNIT_DIV(c, *up, t_lo, up);

	mov	ecx, DWORD PTR [rax+36]
; File z:\sources\lunor\repos\rougemeilland\palmtree.math.core.implements\palmtree.math.core.implements\pmc_internal.h

; 594  :     return (_FROMDWORDTOWORD((_UINT64_T)u * v, w_hi));

	imul	rdx, rdi

; 459  :     *result_high = (_UINT32_T)(value >> 32);

	mov	r9, rdx
	shr	r9, 32					; 00000020H

; 502  :     return (_addcarry_u32(carry, u, v, w));

	add	edx, r10d
	mov	DWORD PTR t_lo$93[rbp-256], edx
	adc	r9d, r15d

; 558  :     return (_subborrow_u32(borrow, u, v, w));

	add	r8b, -1

; 502  :     return (_addcarry_u32(carry, u, v, w));

	mov	DWORD PTR t_hi$94[rbp-256], r9d

; 558  :     return (_subborrow_u32(borrow, u, v, w));

	sbb	ecx, edx
	mov	DWORD PTR [rax+36], ecx

; 594  :     return (_FROMDWORDTOWORD((_UINT64_T)u * v, w_hi));

	mov	edx, DWORD PTR [rbx+40]

; 558  :     return (_subborrow_u32(borrow, u, v, w));

	setb	r8b
; File z:\sources\lunor\repos\rougemeilland\palmtree.math.core.implements\palmtree.math.core.implements\pmc_divrem.c

; 436  :     c = _SUBTRUCT_UNIT_DIV(c, *up, t_lo, up);

	mov	ecx, DWORD PTR [rax+40]
; File z:\sources\lunor\repos\rougemeilland\palmtree.math.core.implements\palmtree.math.core.implements\pmc_internal.h

; 594  :     return (_FROMDWORDTOWORD((_UINT64_T)u * v, w_hi));

	imul	rdx, rdi

; 459  :     *result_high = (_UINT32_T)(value >> 32);

	mov	r10, rdx
	shr	r10, 32					; 00000020H

; 502  :     return (_addcarry_u32(carry, u, v, w));

	add	edx, r9d
	mov	DWORD PTR t_lo$95[rbp-256], edx
	adc	r10d, r15d

; 558  :     return (_subborrow_u32(borrow, u, v, w));

	add	r8b, -1

; 502  :     return (_addcarry_u32(carry, u, v, w));

	mov	DWORD PTR t_hi$96[rbp-256], r10d

; 558  :     return (_subborrow_u32(borrow, u, v, w));

	sbb	ecx, edx
	mov	DWORD PTR [rax+40], ecx

; 594  :     return (_FROMDWORDTOWORD((_UINT64_T)u * v, w_hi));

	mov	edx, DWORD PTR [rbx+44]

; 558  :     return (_subborrow_u32(borrow, u, v, w));

	setb	r8b
; File z:\sources\lunor\repos\rougemeilland\palmtree.math.core.implements\palmtree.math.core.implements\pmc_divrem.c

; 436  :     c = _SUBTRUCT_UNIT_DIV(c, *up, t_lo, up);

	mov	ecx, DWORD PTR [rax+44]
; File z:\sources\lunor\repos\rougemeilland\palmtree.math.core.implements\palmtree.math.core.implements\pmc_internal.h

; 594  :     return (_FROMDWORDTOWORD((_UINT64_T)u * v, w_hi));

	imul	rdx, rdi

; 459  :     *result_high = (_UINT32_T)(value >> 32);

	mov	r9, rdx
	shr	r9, 32					; 00000020H

; 502  :     return (_addcarry_u32(carry, u, v, w));

	add	edx, r10d
	mov	DWORD PTR t_lo$97[rbp-256], edx
	adc	r9d, r15d

; 558  :     return (_subborrow_u32(borrow, u, v, w));

	add	r8b, -1

; 502  :     return (_addcarry_u32(carry, u, v, w));

	mov	DWORD PTR t_hi$98[rbp-256], r9d

; 558  :     return (_subborrow_u32(borrow, u, v, w));

	sbb	ecx, edx
	mov	DWORD PTR [rax+44], ecx

; 594  :     return (_FROMDWORDTOWORD((_UINT64_T)u * v, w_hi));

	mov	edx, DWORD PTR [rbx+48]

; 558  :     return (_subborrow_u32(borrow, u, v, w));

	setb	r8b

; 594  :     return (_FROMDWORDTOWORD((_UINT64_T)u * v, w_hi));

	imul	rdx, rdi

; 459  :     *result_high = (_UINT32_T)(value >> 32);

	mov	r10, rdx
	shr	r10, 32					; 00000020H

; 502  :     return (_addcarry_u32(carry, u, v, w));

	add	edx, r9d
	mov	DWORD PTR t_lo$99[rbp-256], edx
; File z:\sources\lunor\repos\rougemeilland\palmtree.math.core.implements\palmtree.math.core.implements\pmc_divrem.c

; 436  :     c = _SUBTRUCT_UNIT_DIV(c, *up, t_lo, up);

	mov	ecx, DWORD PTR [rax+48]
; File z:\sources\lunor\repos\rougemeilland\palmtree.math.core.implements\palmtree.math.core.implements\pmc_internal.h

; 502  :     return (_addcarry_u32(carry, u, v, w));

	adc	r10d, r15d

; 558  :     return (_subborrow_u32(borrow, u, v, w));

	add	r8b, -1

; 502  :     return (_addcarry_u32(carry, u, v, w));

	mov	DWORD PTR t_hi$100[rbp-256], r10d

; 558  :     return (_subborrow_u32(borrow, u, v, w));

	sbb	ecx, edx
	mov	DWORD PTR [rax+48], ecx

; 594  :     return (_FROMDWORDTOWORD((_UINT64_T)u * v, w_hi));

	mov	edx, DWORD PTR [rbx+52]

; 558  :     return (_subborrow_u32(borrow, u, v, w));

	setb	r8b
; File z:\sources\lunor\repos\rougemeilland\palmtree.math.core.implements\palmtree.math.core.implements\pmc_divrem.c

; 436  :     c = _SUBTRUCT_UNIT_DIV(c, *up, t_lo, up);

	mov	ecx, DWORD PTR [rax+52]
; File z:\sources\lunor\repos\rougemeilland\palmtree.math.core.implements\palmtree.math.core.implements\pmc_internal.h

; 594  :     return (_FROMDWORDTOWORD((_UINT64_T)u * v, w_hi));

	imul	rdx, rdi

; 459  :     *result_high = (_UINT32_T)(value >> 32);

	mov	r9, rdx
	shr	r9, 32					; 00000020H

; 502  :     return (_addcarry_u32(carry, u, v, w));

	add	edx, r10d
	mov	DWORD PTR t_lo$101[rbp-256], edx
	adc	r9d, r15d

; 558  :     return (_subborrow_u32(borrow, u, v, w));

	add	r8b, -1

; 502  :     return (_addcarry_u32(carry, u, v, w));

	mov	DWORD PTR t_hi$102[rbp-256], r9d

; 558  :     return (_subborrow_u32(borrow, u, v, w));

	sbb	ecx, edx
	mov	DWORD PTR [rax+52], ecx

; 594  :     return (_FROMDWORDTOWORD((_UINT64_T)u * v, w_hi));

	mov	edx, DWORD PTR [rbx+56]

; 558  :     return (_subborrow_u32(borrow, u, v, w));

	setb	r8b
; File z:\sources\lunor\repos\rougemeilland\palmtree.math.core.implements\palmtree.math.core.implements\pmc_divrem.c

; 436  :     c = _SUBTRUCT_UNIT_DIV(c, *up, t_lo, up);

	mov	ecx, DWORD PTR [rax+56]
; File z:\sources\lunor\repos\rougemeilland\palmtree.math.core.implements\palmtree.math.core.implements\pmc_internal.h

; 594  :     return (_FROMDWORDTOWORD((_UINT64_T)u * v, w_hi));

	imul	rdx, rdi

; 459  :     *result_high = (_UINT32_T)(value >> 32);

	mov	r10, rdx
	shr	r10, 32					; 00000020H

; 502  :     return (_addcarry_u32(carry, u, v, w));

	add	edx, r9d
	mov	DWORD PTR t_lo$103[rbp-256], edx
	adc	r10d, r15d

; 558  :     return (_subborrow_u32(borrow, u, v, w));

	add	r8b, -1

; 502  :     return (_addcarry_u32(carry, u, v, w));

	mov	DWORD PTR t_hi$104[rbp-256], r10d

; 558  :     return (_subborrow_u32(borrow, u, v, w));

	sbb	ecx, edx
	mov	DWORD PTR [rax+56], ecx

; 594  :     return (_FROMDWORDTOWORD((_UINT64_T)u * v, w_hi));

	mov	edx, DWORD PTR [rbx+60]

; 558  :     return (_subborrow_u32(borrow, u, v, w));

	setb	r9b
; File z:\sources\lunor\repos\rougemeilland\palmtree.math.core.implements\palmtree.math.core.implements\pmc_divrem.c

; 436  :     c = _SUBTRUCT_UNIT_DIV(c, *up, t_lo, up);

	mov	ecx, DWORD PTR [rax+60]
; File z:\sources\lunor\repos\rougemeilland\palmtree.math.core.implements\palmtree.math.core.implements\pmc_internal.h

; 594  :     return (_FROMDWORDTOWORD((_UINT64_T)u * v, w_hi));

	imul	rdx, rdi

; 459  :     *result_high = (_UINT32_T)(value >> 32);

	mov	r8, rdx
	shr	r8, 32					; 00000020H

; 502  :     return (_addcarry_u32(carry, u, v, w));

	add	edx, r10d
	mov	DWORD PTR t_lo$105[rbp-256], edx
	adc	r8d, r15d

; 558  :     return (_subborrow_u32(borrow, u, v, w));

	add	r9b, -1

; 502  :     return (_addcarry_u32(carry, u, v, w));

	mov	DWORD PTR t_hi$106[rbp-256], r8d
; File z:\sources\lunor\repos\rougemeilland\palmtree.math.core.implements\palmtree.math.core.implements\pmc_divrem.c

; 437  :     *k = t_hi;

	mov	esi, r8d
; File z:\sources\lunor\repos\rougemeilland\palmtree.math.core.implements\palmtree.math.core.implements\pmc_internal.h

; 558  :     return (_subborrow_u32(borrow, u, v, w));

	sbb	ecx, edx
	mov	DWORD PTR [rax+60], ecx

; 1097 :     _InterlockedExchangeAdd(&statistics_info.COUNT_MULTI32, value);

	mov	ecx, 16

; 558  :     return (_subborrow_u32(borrow, u, v, w));

	setb	r11b
; File z:\sources\lunor\repos\rougemeilland\palmtree.math.core.implements\palmtree.math.core.implements\pmc_divrem.c

; 524  :         u_ptr += 16;

	add	rax, 64					; 00000040H

; 525  :         v_ptr += 16;

	add	rbx, 64					; 00000040H
; File z:\sources\lunor\repos\rougemeilland\palmtree.math.core.implements\palmtree.math.core.implements\pmc_internal.h

; 1097 :     _InterlockedExchangeAdd(&statistics_info.COUNT_MULTI32, value);

	lock xadd DWORD PTR statistics_info+4, ecx
$LN604@SubtructOn:
; File z:\sources\lunor\repos\rougemeilland\palmtree.math.core.implements\palmtree.math.core.implements\pmc_divrem.c

; 534  :     if (v_count & 0x8)

	test	r14b, 8
	je	$LN704@SubtructOn
; File z:\sources\lunor\repos\rougemeilland\palmtree.math.core.implements\palmtree.math.core.implements\pmc_internal.h

; 594  :     return (_FROMDWORDTOWORD((_UINT64_T)u * v, w_hi));

	mov	edx, DWORD PTR [rbx]
; File z:\sources\lunor\repos\rougemeilland\palmtree.math.core.implements\palmtree.math.core.implements\pmc_divrem.c

; 436  :     c = _SUBTRUCT_UNIT_DIV(c, *up, t_lo, up);

	mov	ecx, DWORD PTR [rax]
; File z:\sources\lunor\repos\rougemeilland\palmtree.math.core.implements\palmtree.math.core.implements\pmc_internal.h

; 594  :     return (_FROMDWORDTOWORD((_UINT64_T)u * v, w_hi));

	imul	rdx, rdi

; 459  :     *result_high = (_UINT32_T)(value >> 32);

	mov	r9, rdx
	shr	r9, 32					; 00000020H

; 502  :     return (_addcarry_u32(carry, u, v, w));

	add	edx, esi
	mov	DWORD PTR t_lo$11[rsp], edx
	adc	r9d, r15d

; 558  :     return (_subborrow_u32(borrow, u, v, w));

	add	r11b, -1

; 502  :     return (_addcarry_u32(carry, u, v, w));

	mov	DWORD PTR t_hi$107[rbp-256], r9d

; 558  :     return (_subborrow_u32(borrow, u, v, w));

	sbb	ecx, edx
	mov	DWORD PTR [rax], ecx

; 594  :     return (_FROMDWORDTOWORD((_UINT64_T)u * v, w_hi));

	mov	edx, DWORD PTR [rbx+4]

; 558  :     return (_subborrow_u32(borrow, u, v, w));

	setb	r8b
; File z:\sources\lunor\repos\rougemeilland\palmtree.math.core.implements\palmtree.math.core.implements\pmc_divrem.c

; 436  :     c = _SUBTRUCT_UNIT_DIV(c, *up, t_lo, up);

	mov	ecx, DWORD PTR [rax+4]
; File z:\sources\lunor\repos\rougemeilland\palmtree.math.core.implements\palmtree.math.core.implements\pmc_internal.h

; 594  :     return (_FROMDWORDTOWORD((_UINT64_T)u * v, w_hi));

	imul	rdx, rdi

; 459  :     *result_high = (_UINT32_T)(value >> 32);

	mov	r10, rdx
	shr	r10, 32					; 00000020H

; 502  :     return (_addcarry_u32(carry, u, v, w));

	add	edx, r9d
	mov	DWORD PTR t_lo$12[rsp], edx
	adc	r10d, r15d

; 558  :     return (_subborrow_u32(borrow, u, v, w));

	add	r8b, -1

; 502  :     return (_addcarry_u32(carry, u, v, w));

	mov	DWORD PTR t_hi$108[rbp-256], r10d

; 558  :     return (_subborrow_u32(borrow, u, v, w));

	sbb	ecx, edx
	mov	DWORD PTR [rax+4], ecx

; 594  :     return (_FROMDWORDTOWORD((_UINT64_T)u * v, w_hi));

	mov	edx, DWORD PTR [rbx+8]

; 558  :     return (_subborrow_u32(borrow, u, v, w));

	setb	r8b
; File z:\sources\lunor\repos\rougemeilland\palmtree.math.core.implements\palmtree.math.core.implements\pmc_divrem.c

; 436  :     c = _SUBTRUCT_UNIT_DIV(c, *up, t_lo, up);

	mov	ecx, DWORD PTR [rax+8]
; File z:\sources\lunor\repos\rougemeilland\palmtree.math.core.implements\palmtree.math.core.implements\pmc_internal.h

; 594  :     return (_FROMDWORDTOWORD((_UINT64_T)u * v, w_hi));

	imul	rdx, rdi

; 459  :     *result_high = (_UINT32_T)(value >> 32);

	mov	r9, rdx
	shr	r9, 32					; 00000020H

; 502  :     return (_addcarry_u32(carry, u, v, w));

	add	edx, r10d
	mov	DWORD PTR t_lo$13[rsp], edx
	adc	r9d, r15d

; 558  :     return (_subborrow_u32(borrow, u, v, w));

	add	r8b, -1

; 502  :     return (_addcarry_u32(carry, u, v, w));

	mov	DWORD PTR t_hi$109[rbp-256], r9d

; 558  :     return (_subborrow_u32(borrow, u, v, w));

	sbb	ecx, edx
	mov	DWORD PTR [rax+8], ecx

; 594  :     return (_FROMDWORDTOWORD((_UINT64_T)u * v, w_hi));

	mov	edx, DWORD PTR [rbx+12]

; 558  :     return (_subborrow_u32(borrow, u, v, w));

	setb	r8b
; File z:\sources\lunor\repos\rougemeilland\palmtree.math.core.implements\palmtree.math.core.implements\pmc_divrem.c

; 436  :     c = _SUBTRUCT_UNIT_DIV(c, *up, t_lo, up);

	mov	ecx, DWORD PTR [rax+12]
; File z:\sources\lunor\repos\rougemeilland\palmtree.math.core.implements\palmtree.math.core.implements\pmc_internal.h

; 594  :     return (_FROMDWORDTOWORD((_UINT64_T)u * v, w_hi));

	imul	rdx, rdi

; 459  :     *result_high = (_UINT32_T)(value >> 32);

	mov	r10, rdx
	shr	r10, 32					; 00000020H

; 502  :     return (_addcarry_u32(carry, u, v, w));

	add	edx, r9d
	mov	DWORD PTR t_lo$14[rsp], edx
	adc	r10d, r15d

; 558  :     return (_subborrow_u32(borrow, u, v, w));

	add	r8b, -1

; 502  :     return (_addcarry_u32(carry, u, v, w));

	mov	DWORD PTR t_hi$110[rbp-256], r10d

; 558  :     return (_subborrow_u32(borrow, u, v, w));

	sbb	ecx, edx
	mov	DWORD PTR [rax+12], ecx

; 594  :     return (_FROMDWORDTOWORD((_UINT64_T)u * v, w_hi));

	mov	edx, DWORD PTR [rbx+16]

; 558  :     return (_subborrow_u32(borrow, u, v, w));

	setb	r8b
; File z:\sources\lunor\repos\rougemeilland\palmtree.math.core.implements\palmtree.math.core.implements\pmc_divrem.c

; 436  :     c = _SUBTRUCT_UNIT_DIV(c, *up, t_lo, up);

	mov	ecx, DWORD PTR [rax+16]
; File z:\sources\lunor\repos\rougemeilland\palmtree.math.core.implements\palmtree.math.core.implements\pmc_internal.h

; 594  :     return (_FROMDWORDTOWORD((_UINT64_T)u * v, w_hi));

	imul	rdx, rdi

; 459  :     *result_high = (_UINT32_T)(value >> 32);

	mov	r9, rdx
	shr	r9, 32					; 00000020H

; 502  :     return (_addcarry_u32(carry, u, v, w));

	add	edx, r10d
	mov	DWORD PTR t_lo$15[rsp], edx
	adc	r9d, r15d

; 558  :     return (_subborrow_u32(borrow, u, v, w));

	add	r8b, -1

; 502  :     return (_addcarry_u32(carry, u, v, w));

	mov	DWORD PTR t_hi$111[rbp-256], r9d

; 558  :     return (_subborrow_u32(borrow, u, v, w));

	sbb	ecx, edx
	mov	DWORD PTR [rax+16], ecx

; 594  :     return (_FROMDWORDTOWORD((_UINT64_T)u * v, w_hi));

	mov	edx, DWORD PTR [rbx+20]

; 558  :     return (_subborrow_u32(borrow, u, v, w));

	setb	r8b
; File z:\sources\lunor\repos\rougemeilland\palmtree.math.core.implements\palmtree.math.core.implements\pmc_divrem.c

; 436  :     c = _SUBTRUCT_UNIT_DIV(c, *up, t_lo, up);

	mov	ecx, DWORD PTR [rax+20]
; File z:\sources\lunor\repos\rougemeilland\palmtree.math.core.implements\palmtree.math.core.implements\pmc_internal.h

; 594  :     return (_FROMDWORDTOWORD((_UINT64_T)u * v, w_hi));

	imul	rdx, rdi

; 459  :     *result_high = (_UINT32_T)(value >> 32);

	mov	r11, rdx
	shr	r11, 32					; 00000020H

; 502  :     return (_addcarry_u32(carry, u, v, w));

	add	edx, r9d
	mov	DWORD PTR t_lo$16[rsp], edx
	adc	r11d, r15d

; 558  :     return (_subborrow_u32(borrow, u, v, w));

	add	r8b, -1

; 502  :     return (_addcarry_u32(carry, u, v, w));

	mov	DWORD PTR t_hi$112[rbp-256], r11d

; 558  :     return (_subborrow_u32(borrow, u, v, w));

	sbb	ecx, edx
	mov	DWORD PTR [rax+20], ecx

; 594  :     return (_FROMDWORDTOWORD((_UINT64_T)u * v, w_hi));

	mov	edx, DWORD PTR [rbx+24]

; 558  :     return (_subborrow_u32(borrow, u, v, w));

	setb	r8b

; 594  :     return (_FROMDWORDTOWORD((_UINT64_T)u * v, w_hi));

	imul	rdx, rdi

; 459  :     *result_high = (_UINT32_T)(value >> 32);

	mov	r10, rdx
; File z:\sources\lunor\repos\rougemeilland\palmtree.math.core.implements\palmtree.math.core.implements\pmc_divrem.c

; 436  :     c = _SUBTRUCT_UNIT_DIV(c, *up, t_lo, up);

	mov	ecx, DWORD PTR [rax+24]
; File z:\sources\lunor\repos\rougemeilland\palmtree.math.core.implements\palmtree.math.core.implements\pmc_internal.h

; 459  :     *result_high = (_UINT32_T)(value >> 32);

	shr	r10, 32					; 00000020H

; 502  :     return (_addcarry_u32(carry, u, v, w));

	add	edx, r11d
	mov	DWORD PTR t_lo$17[rsp], edx
	adc	r10d, r15d

; 558  :     return (_subborrow_u32(borrow, u, v, w));

	add	r8b, -1

; 502  :     return (_addcarry_u32(carry, u, v, w));

	mov	DWORD PTR t_hi$113[rbp-256], r10d

; 558  :     return (_subborrow_u32(borrow, u, v, w));

	sbb	ecx, edx
	mov	DWORD PTR [rax+24], ecx

; 594  :     return (_FROMDWORDTOWORD((_UINT64_T)u * v, w_hi));

	mov	edx, DWORD PTR [rbx+28]

; 558  :     return (_subborrow_u32(borrow, u, v, w));

	setb	r9b
; File z:\sources\lunor\repos\rougemeilland\palmtree.math.core.implements\palmtree.math.core.implements\pmc_divrem.c

; 436  :     c = _SUBTRUCT_UNIT_DIV(c, *up, t_lo, up);

	mov	ecx, DWORD PTR [rax+28]
; File z:\sources\lunor\repos\rougemeilland\palmtree.math.core.implements\palmtree.math.core.implements\pmc_internal.h

; 594  :     return (_FROMDWORDTOWORD((_UINT64_T)u * v, w_hi));

	imul	rdx, rdi

; 459  :     *result_high = (_UINT32_T)(value >> 32);

	mov	r8, rdx
	shr	r8, 32					; 00000020H

; 502  :     return (_addcarry_u32(carry, u, v, w));

	add	edx, r10d
	mov	DWORD PTR t_lo$114[rbp-256], edx
	adc	r8d, r15d

; 558  :     return (_subborrow_u32(borrow, u, v, w));

	add	r9b, -1

; 502  :     return (_addcarry_u32(carry, u, v, w));

	mov	DWORD PTR t_hi$115[rbp-256], r8d
; File z:\sources\lunor\repos\rougemeilland\palmtree.math.core.implements\palmtree.math.core.implements\pmc_divrem.c

; 437  :     *k = t_hi;

	mov	esi, r8d
; File z:\sources\lunor\repos\rougemeilland\palmtree.math.core.implements\palmtree.math.core.implements\pmc_internal.h

; 558  :     return (_subborrow_u32(borrow, u, v, w));

	sbb	ecx, edx
	mov	DWORD PTR [rax+28], ecx

; 1097 :     _InterlockedExchangeAdd(&statistics_info.COUNT_MULTI32, value);

	mov	ecx, 8

; 558  :     return (_subborrow_u32(borrow, u, v, w));

	setb	r11b
; File z:\sources\lunor\repos\rougemeilland\palmtree.math.core.implements\palmtree.math.core.implements\pmc_divrem.c

; 544  :         u_ptr += 8;

	add	rax, 32					; 00000020H

; 545  :         v_ptr += 8;

	add	rbx, 32					; 00000020H
; File z:\sources\lunor\repos\rougemeilland\palmtree.math.core.implements\palmtree.math.core.implements\pmc_internal.h

; 1097 :     _InterlockedExchangeAdd(&statistics_info.COUNT_MULTI32, value);

	lock xadd DWORD PTR statistics_info+4, ecx
$LN704@SubtructOn:
; File z:\sources\lunor\repos\rougemeilland\palmtree.math.core.implements\palmtree.math.core.implements\pmc_divrem.c

; 554  :     if (v_count & 0x4)

	test	r14b, 4
	je	$LN756@SubtructOn
; File z:\sources\lunor\repos\rougemeilland\palmtree.math.core.implements\palmtree.math.core.implements\pmc_internal.h

; 594  :     return (_FROMDWORDTOWORD((_UINT64_T)u * v, w_hi));

	mov	edx, DWORD PTR [rbx]
; File z:\sources\lunor\repos\rougemeilland\palmtree.math.core.implements\palmtree.math.core.implements\pmc_divrem.c

; 436  :     c = _SUBTRUCT_UNIT_DIV(c, *up, t_lo, up);

	mov	ecx, DWORD PTR [rax]
; File z:\sources\lunor\repos\rougemeilland\palmtree.math.core.implements\palmtree.math.core.implements\pmc_internal.h

; 594  :     return (_FROMDWORDTOWORD((_UINT64_T)u * v, w_hi));

	imul	rdx, rdi

; 459  :     *result_high = (_UINT32_T)(value >> 32);

	mov	r9, rdx
	shr	r9, 32					; 00000020H

; 502  :     return (_addcarry_u32(carry, u, v, w));

	add	edx, esi
	mov	DWORD PTR t_lo$18[rsp], edx
	adc	r9d, r15d

; 558  :     return (_subborrow_u32(borrow, u, v, w));

	add	r11b, -1

; 502  :     return (_addcarry_u32(carry, u, v, w));

	mov	DWORD PTR t_hi$116[rbp-256], r9d

; 558  :     return (_subborrow_u32(borrow, u, v, w));

	sbb	ecx, edx
	mov	DWORD PTR [rax], ecx

; 594  :     return (_FROMDWORDTOWORD((_UINT64_T)u * v, w_hi));

	mov	edx, DWORD PTR [rbx+4]

; 558  :     return (_subborrow_u32(borrow, u, v, w));

	setb	r8b
; File z:\sources\lunor\repos\rougemeilland\palmtree.math.core.implements\palmtree.math.core.implements\pmc_divrem.c

; 436  :     c = _SUBTRUCT_UNIT_DIV(c, *up, t_lo, up);

	mov	ecx, DWORD PTR [rax+4]
; File z:\sources\lunor\repos\rougemeilland\palmtree.math.core.implements\palmtree.math.core.implements\pmc_internal.h

; 594  :     return (_FROMDWORDTOWORD((_UINT64_T)u * v, w_hi));

	imul	rdx, rdi

; 459  :     *result_high = (_UINT32_T)(value >> 32);

	mov	r10, rdx
	shr	r10, 32					; 00000020H

; 502  :     return (_addcarry_u32(carry, u, v, w));

	add	edx, r9d
	mov	DWORD PTR t_lo$19[rsp], edx
	adc	r10d, r15d

; 558  :     return (_subborrow_u32(borrow, u, v, w));

	add	r8b, -1

; 502  :     return (_addcarry_u32(carry, u, v, w));

	mov	DWORD PTR t_hi$117[rbp-256], r10d

; 558  :     return (_subborrow_u32(borrow, u, v, w));

	sbb	ecx, edx
	mov	DWORD PTR [rax+4], ecx

; 594  :     return (_FROMDWORDTOWORD((_UINT64_T)u * v, w_hi));

	mov	edx, DWORD PTR [rbx+8]

; 558  :     return (_subborrow_u32(borrow, u, v, w));

	setb	r8b
; File z:\sources\lunor\repos\rougemeilland\palmtree.math.core.implements\palmtree.math.core.implements\pmc_divrem.c

; 436  :     c = _SUBTRUCT_UNIT_DIV(c, *up, t_lo, up);

	mov	ecx, DWORD PTR [rax+8]
; File z:\sources\lunor\repos\rougemeilland\palmtree.math.core.implements\palmtree.math.core.implements\pmc_internal.h

; 594  :     return (_FROMDWORDTOWORD((_UINT64_T)u * v, w_hi));

	imul	rdx, rdi

; 459  :     *result_high = (_UINT32_T)(value >> 32);

	mov	r11, rdx
	shr	r11, 32					; 00000020H

; 502  :     return (_addcarry_u32(carry, u, v, w));

	add	edx, r10d
	mov	DWORD PTR t_lo$20[rsp], edx
	adc	r11d, r15d

; 558  :     return (_subborrow_u32(borrow, u, v, w));

	add	r8b, -1

; 502  :     return (_addcarry_u32(carry, u, v, w));

	mov	DWORD PTR t_hi$118[rbp-256], r11d

; 558  :     return (_subborrow_u32(borrow, u, v, w));

	sbb	ecx, edx
	mov	DWORD PTR [rax+8], ecx

; 594  :     return (_FROMDWORDTOWORD((_UINT64_T)u * v, w_hi));

	mov	edx, DWORD PTR [rbx+12]

; 558  :     return (_subborrow_u32(borrow, u, v, w));

	setb	r9b
; File z:\sources\lunor\repos\rougemeilland\palmtree.math.core.implements\palmtree.math.core.implements\pmc_divrem.c

; 436  :     c = _SUBTRUCT_UNIT_DIV(c, *up, t_lo, up);

	mov	ecx, DWORD PTR [rax+12]
; File z:\sources\lunor\repos\rougemeilland\palmtree.math.core.implements\palmtree.math.core.implements\pmc_internal.h

; 594  :     return (_FROMDWORDTOWORD((_UINT64_T)u * v, w_hi));

	imul	rdx, rdi

; 459  :     *result_high = (_UINT32_T)(value >> 32);

	mov	r8, rdx
	shr	r8, 32					; 00000020H

; 502  :     return (_addcarry_u32(carry, u, v, w));

	add	edx, r11d
	mov	DWORD PTR t_lo$21[rsp], edx
	adc	r8d, r15d

; 558  :     return (_subborrow_u32(borrow, u, v, w));

	add	r9b, -1

; 502  :     return (_addcarry_u32(carry, u, v, w));

	mov	DWORD PTR t_hi$119[rbp-256], r8d
; File z:\sources\lunor\repos\rougemeilland\palmtree.math.core.implements\palmtree.math.core.implements\pmc_divrem.c

; 437  :     *k = t_hi;

	mov	esi, r8d
; File z:\sources\lunor\repos\rougemeilland\palmtree.math.core.implements\palmtree.math.core.implements\pmc_internal.h

; 558  :     return (_subborrow_u32(borrow, u, v, w));

	sbb	ecx, edx
	mov	DWORD PTR [rax+12], ecx

; 1097 :     _InterlockedExchangeAdd(&statistics_info.COUNT_MULTI32, value);

	mov	ecx, 4

; 558  :     return (_subborrow_u32(borrow, u, v, w));

	setb	r11b
; File z:\sources\lunor\repos\rougemeilland\palmtree.math.core.implements\palmtree.math.core.implements\pmc_divrem.c

; 560  :         u_ptr += 4;

	add	rax, 16

; 561  :         v_ptr += 4;

	add	rbx, 16
; File z:\sources\lunor\repos\rougemeilland\palmtree.math.core.implements\palmtree.math.core.implements\pmc_internal.h

; 1097 :     _InterlockedExchangeAdd(&statistics_info.COUNT_MULTI32, value);

	lock xadd DWORD PTR statistics_info+4, ecx
$LN756@SubtructOn:
; File z:\sources\lunor\repos\rougemeilland\palmtree.math.core.implements\palmtree.math.core.implements\pmc_divrem.c

; 570  :     if (v_count & 0x2)

	test	r14b, 2
	je	SHORT $LN784@SubtructOn
; File z:\sources\lunor\repos\rougemeilland\palmtree.math.core.implements\palmtree.math.core.implements\pmc_internal.h

; 594  :     return (_FROMDWORDTOWORD((_UINT64_T)u * v, w_hi));

	mov	edx, DWORD PTR [rbx]
; File z:\sources\lunor\repos\rougemeilland\palmtree.math.core.implements\palmtree.math.core.implements\pmc_divrem.c

; 436  :     c = _SUBTRUCT_UNIT_DIV(c, *up, t_lo, up);

	mov	ecx, DWORD PTR [rax]
; File z:\sources\lunor\repos\rougemeilland\palmtree.math.core.implements\palmtree.math.core.implements\pmc_internal.h

; 594  :     return (_FROMDWORDTOWORD((_UINT64_T)u * v, w_hi));

	imul	rdx, rdi

; 459  :     *result_high = (_UINT32_T)(value >> 32);

	mov	r10, rdx
	shr	r10, 32					; 00000020H

; 502  :     return (_addcarry_u32(carry, u, v, w));

	add	edx, esi
	mov	DWORD PTR t_lo$22[rsp], edx
	adc	r10d, r15d

; 558  :     return (_subborrow_u32(borrow, u, v, w));

	add	r11b, -1

; 502  :     return (_addcarry_u32(carry, u, v, w));

	mov	DWORD PTR t_hi$120[rbp-256], r10d

; 558  :     return (_subborrow_u32(borrow, u, v, w));

	sbb	ecx, edx
	mov	DWORD PTR [rax], ecx

; 594  :     return (_FROMDWORDTOWORD((_UINT64_T)u * v, w_hi));

	mov	edx, DWORD PTR [rbx+4]

; 558  :     return (_subborrow_u32(borrow, u, v, w));

	setb	r9b
; File z:\sources\lunor\repos\rougemeilland\palmtree.math.core.implements\palmtree.math.core.implements\pmc_divrem.c

; 436  :     c = _SUBTRUCT_UNIT_DIV(c, *up, t_lo, up);

	mov	ecx, DWORD PTR [rax+4]
; File z:\sources\lunor\repos\rougemeilland\palmtree.math.core.implements\palmtree.math.core.implements\pmc_internal.h

; 594  :     return (_FROMDWORDTOWORD((_UINT64_T)u * v, w_hi));

	imul	rdx, rdi

; 459  :     *result_high = (_UINT32_T)(value >> 32);

	mov	r8, rdx
	shr	r8, 32					; 00000020H

; 502  :     return (_addcarry_u32(carry, u, v, w));

	add	edx, r10d
	mov	DWORD PTR t_lo$23[rsp], edx
	adc	r8d, r15d

; 558  :     return (_subborrow_u32(borrow, u, v, w));

	add	r9b, -1

; 502  :     return (_addcarry_u32(carry, u, v, w));

	mov	DWORD PTR t_hi$121[rbp-256], r8d
; File z:\sources\lunor\repos\rougemeilland\palmtree.math.core.implements\palmtree.math.core.implements\pmc_divrem.c

; 437  :     *k = t_hi;

	mov	esi, r8d
; File z:\sources\lunor\repos\rougemeilland\palmtree.math.core.implements\palmtree.math.core.implements\pmc_internal.h

; 558  :     return (_subborrow_u32(borrow, u, v, w));

	sbb	ecx, edx
	mov	DWORD PTR [rax+4], ecx

; 1097 :     _InterlockedExchangeAdd(&statistics_info.COUNT_MULTI32, value);

	mov	ecx, 2

; 558  :     return (_subborrow_u32(borrow, u, v, w));

	setb	r11b
; File z:\sources\lunor\repos\rougemeilland\palmtree.math.core.implements\palmtree.math.core.implements\pmc_divrem.c

; 574  :         u_ptr += 2;

	add	rax, 8

; 575  :         v_ptr += 2;

	add	rbx, 8
; File z:\sources\lunor\repos\rougemeilland\palmtree.math.core.implements\palmtree.math.core.implements\pmc_internal.h

; 1097 :     _InterlockedExchangeAdd(&statistics_info.COUNT_MULTI32, value);

	lock xadd DWORD PTR statistics_info+4, ecx
$LN784@SubtructOn:
; File z:\sources\lunor\repos\rougemeilland\palmtree.math.core.implements\palmtree.math.core.implements\pmc_divrem.c

; 584  :     if (v_count & 0x1)

	test	r14b, 1
	je	SHORT $LN800@SubtructOn

; 436  :     c = _SUBTRUCT_UNIT_DIV(c, *up, t_lo, up);

	mov	ecx, DWORD PTR [rax]
; File z:\sources\lunor\repos\rougemeilland\palmtree.math.core.implements\palmtree.math.core.implements\pmc_internal.h

; 594  :     return (_FROMDWORDTOWORD((_UINT64_T)u * v, w_hi));

	mov	edx, DWORD PTR [rbx]
	imul	rdx, rdi

; 459  :     *result_high = (_UINT32_T)(value >> 32);

	mov	r8, rdx
	shr	r8, 32					; 00000020H

; 502  :     return (_addcarry_u32(carry, u, v, w));

	add	edx, esi
	mov	DWORD PTR t_lo$24[rsp], edx
	adc	r8d, r15d

; 558  :     return (_subborrow_u32(borrow, u, v, w));

	add	r11b, -1

; 502  :     return (_addcarry_u32(carry, u, v, w));

	mov	DWORD PTR t_hi$122[rbp-256], r8d
; File z:\sources\lunor\repos\rougemeilland\palmtree.math.core.implements\palmtree.math.core.implements\pmc_divrem.c

; 437  :     *k = t_hi;

	mov	esi, r8d
; File z:\sources\lunor\repos\rougemeilland\palmtree.math.core.implements\palmtree.math.core.implements\pmc_internal.h

; 558  :     return (_subborrow_u32(borrow, u, v, w));

	sbb	ecx, edx
	mov	DWORD PTR [rax], ecx
	setb	r11b
; File z:\sources\lunor\repos\rougemeilland\palmtree.math.core.implements\palmtree.math.core.implements\pmc_divrem.c

; 587  :         u_ptr += 1;

	add	rax, 4
; File z:\sources\lunor\repos\rougemeilland\palmtree.math.core.implements\palmtree.math.core.implements\pmc_internal.h

; 1074 :     _InterlockedIncrement(&statistics_info.COUNT_MULTI32);

	lock inc DWORD PTR statistics_info+4
$LN800@SubtructOn:
; File z:\sources\lunor\repos\rougemeilland\palmtree.math.core.implements\palmtree.math.core.implements\pmc_divrem.c

; 597  :     c = _SUBTRUCT_UNIT_DIV(c, *u_ptr, k, u_ptr);

	mov	ecx, DWORD PTR [rax]
; File z:\sources\lunor\repos\rougemeilland\palmtree.math.core.implements\palmtree.math.core.implements\pmc_internal.h

; 558  :     return (_subborrow_u32(borrow, u, v, w));

	add	r11b, -1
; File z:\sources\lunor\repos\rougemeilland\palmtree.math.core.implements\palmtree.math.core.implements\pmc_divrem.c

; 601  :     return (DoBorrow(c, k, u_ptr, u_buf + u_buf_len + 1 - u_ptr));

	mov	r8, QWORD PTR u_buf_len$[rbp-256]
; File z:\sources\lunor\repos\rougemeilland\palmtree.math.core.implements\palmtree.math.core.implements\pmc_internal.h

; 558  :     return (_subborrow_u32(borrow, u, v, w));

	sbb	ecx, esi
	mov	DWORD PTR [rax], ecx
	setb	dl
; File z:\sources\lunor\repos\rougemeilland\palmtree.math.core.implements\palmtree.math.core.implements\pmc_divrem.c

; 599  :     u_ptr += 1;

	add	rax, 4

; 601  :     return (DoBorrow(c, k, u_ptr, u_buf + u_buf_len + 1 - u_ptr));

	lea	r8, QWORD PTR [r8*4+4]
	sub	r8, rax
	add	r8, r13
	sar	r8, 2

; 394  :         if (u_count <= 0)

	test	r8, r8
	je	SHORT $LN818@SubtructOn
	npad	5
$LL805@SubtructOn:

; 399  :             {
; 400  :                 // かつそれでも桁借りを行う必要がある場合
; 401  : 
; 402  :                 // 減算結果が負になってしまったので呼び出し元に通知する。
; 403  :                 return (TRUE);
; 404  :             }
; 405  : 
; 406  :             // u の最上位に達してしまった場合はいずれにしろループを中断して正常復帰する。
; 407  : 
; 408  :             return (FALSE);
; 409  :         }
; 410  :         else if (c)

	test	dl, dl
	je	SHORT $LN811@SubtructOn

; 411  :         {
; 412  :             // u の最上位に達しておらず、かつボローが立っている場合
; 413  : 
; 414  :             // 桁借りを継続する
; 415  :             c = _SUBTRUCT_UNIT_DIV(c, *up, k, up);

	mov	ecx, DWORD PTR [rax]
; File z:\sources\lunor\repos\rougemeilland\palmtree.math.core.implements\palmtree.math.core.implements\pmc_internal.h

; 558  :     return (_subborrow_u32(borrow, u, v, w));

	add	dl, -1
	sbb	ecx, r15d
	mov	DWORD PTR [rax], ecx
	setb	dl
; File z:\sources\lunor\repos\rougemeilland\palmtree.math.core.implements\palmtree.math.core.implements\pmc_divrem.c

; 417  :             ++up;

	add	rax, 4

; 418  :             --u_count;

	sub	r8, 1
	jne	SHORT $LL805@SubtructOn
$LN818@SubtructOn:

; 395  :         {
; 396  :             // u の最上位まで達してしまった場合
; 397  : 
; 398  :             if (c)

	test	dl, dl
	setne	r15b
$LN811@SubtructOn:

; 602  : }

	mov	eax, r15d
	add	rsp, 504				; 000001f8H
	pop	r15
	pop	r14
	pop	r13
	pop	r12
	pop	rdi
	pop	rsi
	pop	rbx
	pop	rbp
	ret	0
SubtructOneLine ENDP
_TEXT	ENDS
; Function compile flags: /Ogtpy
; File z:\sources\lunor\repos\rougemeilland\palmtree.math.core.implements\palmtree.math.core.implements\pmc_divrem.c
; File z:\sources\lunor\repos\rougemeilland\palmtree.math.core.implements\palmtree.math.core.implements\pmc_internal.h
; File z:\sources\lunor\repos\rougemeilland\palmtree.math.core.implements\palmtree.math.core.implements\pmc_divrem.c
; File z:\sources\lunor\repos\rougemeilland\palmtree.math.core.implements\palmtree.math.core.implements\pmc_internal.h
; File z:\sources\lunor\repos\rougemeilland\palmtree.math.core.implements\palmtree.math.core.implements\pmc_divrem.c
; File z:\sources\lunor\repos\rougemeilland\palmtree.math.core.implements\palmtree.math.core.implements\pmc_internal.h
; File z:\sources\lunor\repos\rougemeilland\palmtree.math.core.implements\palmtree.math.core.implements\pmc_divrem.c
; File z:\sources\lunor\repos\rougemeilland\palmtree.math.core.implements\palmtree.math.core.implements\pmc_internal.h
; File z:\sources\lunor\repos\rougemeilland\palmtree.math.core.implements\palmtree.math.core.implements\pmc_divrem.c
; File z:\sources\lunor\repos\rougemeilland\palmtree.math.core.implements\palmtree.math.core.implements\pmc_internal.h
; File z:\sources\lunor\repos\rougemeilland\palmtree.math.core.implements\palmtree.math.core.implements\pmc_divrem.c
;	COMDAT _MULTIPLYX_DIGIT_UNIT_DIV
_TEXT	SEGMENT
c$ = 8
k$ = 16
vp$ = 24
q_$ = 32
up$ = 40
_MULTIPLYX_DIGIT_UNIT_DIV PROC				; COMDAT

; 442  : {

	mov	QWORD PTR [rsp+16], rbx
; File z:\sources\lunor\repos\rougemeilland\palmtree.math.core.implements\palmtree.math.core.implements\pmc_internal.h

; 640  :     return (_FROMDWORDTOWORD((_UINT64_T)u * v, w_hi));

	mov	r10d, DWORD PTR [r8]
; File z:\sources\lunor\repos\rougemeilland\palmtree.math.core.implements\palmtree.math.core.implements\pmc_divrem.c

; 442  : {

	mov	rbx, rdx
	movzx	r11d, cl
; File z:\sources\lunor\repos\rougemeilland\palmtree.math.core.implements\palmtree.math.core.implements\pmc_internal.h

; 640  :     return (_FROMDWORDTOWORD((_UINT64_T)u * v, w_hi));

	mov	eax, r9d
	imul	r10, rax

; 530  :     return (_addcarryx_u32(carry, u, v, w));

	mov	eax, 0

; 459  :     *result_high = (_UINT32_T)(value >> 32);

	mov	r8, r10
	shr	r8, 32					; 00000020H

; 530  :     return (_addcarryx_u32(carry, u, v, w));

	add	r10d, DWORD PTR [rdx]
; File z:\sources\lunor\repos\rougemeilland\palmtree.math.core.implements\palmtree.math.core.implements\pmc_divrem.c

; 447  :     c = _SUBTRUCT_UNIT_DIV(c, *up, t_lo, up);

	mov	rdx, QWORD PTR up$[rsp]
; File z:\sources\lunor\repos\rougemeilland\palmtree.math.core.implements\palmtree.math.core.implements\pmc_internal.h

; 530  :     return (_addcarryx_u32(carry, u, v, w));

	adcx	r8d, eax

; 558  :     return (_subborrow_u32(borrow, u, v, w));

	add	r11b, -1
; File z:\sources\lunor\repos\rougemeilland\palmtree.math.core.implements\palmtree.math.core.implements\pmc_divrem.c

; 447  :     c = _SUBTRUCT_UNIT_DIV(c, *up, t_lo, up);

	mov	ecx, DWORD PTR [rdx]
; File z:\sources\lunor\repos\rougemeilland\palmtree.math.core.implements\palmtree.math.core.implements\pmc_internal.h

; 558  :     return (_subborrow_u32(borrow, u, v, w));

	sbb	ecx, r10d
	mov	DWORD PTR [rdx], ecx
; File z:\sources\lunor\repos\rougemeilland\palmtree.math.core.implements\palmtree.math.core.implements\pmc_divrem.c

; 448  :     *k = t_hi;

	mov	DWORD PTR [rbx], r8d
; File z:\sources\lunor\repos\rougemeilland\palmtree.math.core.implements\palmtree.math.core.implements\pmc_internal.h

; 558  :     return (_subborrow_u32(borrow, u, v, w));

	setb	al
; File z:\sources\lunor\repos\rougemeilland\palmtree.math.core.implements\palmtree.math.core.implements\pmc_divrem.c

; 450  : }

	mov	rbx, QWORD PTR [rsp+16]
	ret	0
_MULTIPLYX_DIGIT_UNIT_DIV ENDP
_TEXT	ENDS
; Function compile flags: /Ogtpy
; File z:\sources\lunor\repos\rougemeilland\palmtree.math.core.implements\palmtree.math.core.implements\pmc_divrem.c
; File z:\sources\lunor\repos\rougemeilland\palmtree.math.core.implements\palmtree.math.core.implements\pmc_internal.h
; File z:\sources\lunor\repos\rougemeilland\palmtree.math.core.implements\palmtree.math.core.implements\pmc_divrem.c
; File z:\sources\lunor\repos\rougemeilland\palmtree.math.core.implements\palmtree.math.core.implements\pmc_internal.h
; File z:\sources\lunor\repos\rougemeilland\palmtree.math.core.implements\palmtree.math.core.implements\pmc_divrem.c
; File z:\sources\lunor\repos\rougemeilland\palmtree.math.core.implements\palmtree.math.core.implements\pmc_internal.h
; File z:\sources\lunor\repos\rougemeilland\palmtree.math.core.implements\palmtree.math.core.implements\pmc_divrem.c
; File z:\sources\lunor\repos\rougemeilland\palmtree.math.core.implements\palmtree.math.core.implements\pmc_internal.h
; File z:\sources\lunor\repos\rougemeilland\palmtree.math.core.implements\palmtree.math.core.implements\pmc_divrem.c
; File z:\sources\lunor\repos\rougemeilland\palmtree.math.core.implements\palmtree.math.core.implements\pmc_internal.h
; File z:\sources\lunor\repos\rougemeilland\palmtree.math.core.implements\palmtree.math.core.implements\pmc_divrem.c
;	COMDAT _MULTIPLY_DIGIT_UNIT_DIV
_TEXT	SEGMENT
c$ = 8
k$ = 16
vp$ = 24
q_$ = 32
up$ = 40
_MULTIPLY_DIGIT_UNIT_DIV PROC				; COMDAT

; 431  : {

	mov	QWORD PTR [rsp+16], rbx
; File z:\sources\lunor\repos\rougemeilland\palmtree.math.core.implements\palmtree.math.core.implements\pmc_internal.h

; 594  :     return (_FROMDWORDTOWORD((_UINT64_T)u * v, w_hi));

	mov	r10d, DWORD PTR [r8]
; File z:\sources\lunor\repos\rougemeilland\palmtree.math.core.implements\palmtree.math.core.implements\pmc_divrem.c

; 431  : {

	mov	rbx, rdx
	movzx	r11d, cl
; File z:\sources\lunor\repos\rougemeilland\palmtree.math.core.implements\palmtree.math.core.implements\pmc_internal.h

; 594  :     return (_FROMDWORDTOWORD((_UINT64_T)u * v, w_hi));

	mov	eax, r9d
	imul	r10, rax

; 459  :     *result_high = (_UINT32_T)(value >> 32);

	mov	r8, r10
	shr	r8, 32					; 00000020H

; 502  :     return (_addcarry_u32(carry, u, v, w));

	add	r10d, DWORD PTR [rdx]
; File z:\sources\lunor\repos\rougemeilland\palmtree.math.core.implements\palmtree.math.core.implements\pmc_divrem.c

; 436  :     c = _SUBTRUCT_UNIT_DIV(c, *up, t_lo, up);

	mov	rdx, QWORD PTR up$[rsp]
; File z:\sources\lunor\repos\rougemeilland\palmtree.math.core.implements\palmtree.math.core.implements\pmc_internal.h

; 502  :     return (_addcarry_u32(carry, u, v, w));

	adc	r8d, 0

; 558  :     return (_subborrow_u32(borrow, u, v, w));

	add	r11b, -1
; File z:\sources\lunor\repos\rougemeilland\palmtree.math.core.implements\palmtree.math.core.implements\pmc_divrem.c

; 436  :     c = _SUBTRUCT_UNIT_DIV(c, *up, t_lo, up);

	mov	ecx, DWORD PTR [rdx]
; File z:\sources\lunor\repos\rougemeilland\palmtree.math.core.implements\palmtree.math.core.implements\pmc_internal.h

; 558  :     return (_subborrow_u32(borrow, u, v, w));

	sbb	ecx, r10d
	mov	DWORD PTR [rdx], ecx
; File z:\sources\lunor\repos\rougemeilland\palmtree.math.core.implements\palmtree.math.core.implements\pmc_divrem.c

; 437  :     *k = t_hi;

	mov	DWORD PTR [rbx], r8d
; File z:\sources\lunor\repos\rougemeilland\palmtree.math.core.implements\palmtree.math.core.implements\pmc_internal.h

; 558  :     return (_subborrow_u32(borrow, u, v, w));

	setb	al
; File z:\sources\lunor\repos\rougemeilland\palmtree.math.core.implements\palmtree.math.core.implements\pmc_divrem.c

; 439  : }

	mov	rbx, QWORD PTR [rsp+16]
	ret	0
_MULTIPLY_DIGIT_UNIT_DIV ENDP
_TEXT	ENDS
; Function compile flags: /Ogtpy
; File z:\sources\lunor\repos\rougemeilland\palmtree.math.core.implements\palmtree.math.core.implements\pmc_divrem.c
; File z:\sources\lunor\repos\rougemeilland\palmtree.math.core.implements\palmtree.math.core.implements\pmc_internal.h
; File z:\sources\lunor\repos\rougemeilland\palmtree.math.core.implements\palmtree.math.core.implements\pmc_divrem.c
;	COMDAT DoBorrow
_TEXT	SEGMENT
c$ = 8
k$ = 16
up$ = 24
u_count$ = 32
DoBorrow PROC						; COMDAT

; 391  :     // 桁借りを続く限り行う
; 392  :     for (;;)
; 393  :     {
; 394  :         if (u_count <= 0)

	test	r9, r9
	je	SHORT $LN14@DoBorrow
$LL2@DoBorrow:

; 404  :             }
; 405  : 
; 406  :             // u の最上位に達してしまった場合はいずれにしろループを中断して正常復帰する。
; 407  : 
; 408  :             return (FALSE);
; 409  :         }
; 410  :         else if (c)

	test	cl, cl
	je	SHORT $LN8@DoBorrow

; 411  :         {
; 412  :             // u の最上位に達しておらず、かつボローが立っている場合
; 413  : 
; 414  :             // 桁借りを継続する
; 415  :             c = _SUBTRUCT_UNIT_DIV(c, *up, k, up);

	mov	eax, DWORD PTR [r8]
; File z:\sources\lunor\repos\rougemeilland\palmtree.math.core.implements\palmtree.math.core.implements\pmc_internal.h

; 558  :     return (_subborrow_u32(borrow, u, v, w));

	add	cl, -1
	sbb	eax, edx
	mov	DWORD PTR [r8], eax
	setb	cl
; File z:\sources\lunor\repos\rougemeilland\palmtree.math.core.implements\palmtree.math.core.implements\pmc_divrem.c

; 416  :             k = 0;

	xor	edx, edx

; 417  :             ++up;

	add	r8, 4

; 418  :             --u_count;

	sub	r9, 1
	jne	SHORT $LL2@DoBorrow
$LN14@DoBorrow:

; 395  :         {
; 396  :             // u の最上位まで達してしまった場合
; 397  : 
; 398  :             if (c)

	test	cl, cl
	je	SHORT $LN8@DoBorrow

; 399  :             {
; 400  :                 // かつそれでも桁借りを行う必要がある場合
; 401  : 
; 402  :                 // 減算結果が負になってしまったので呼び出し元に通知する。
; 403  :                 return (TRUE);

	mov	eax, 1

; 426  :         }
; 427  :     }
; 428  : }

	ret	0
$LN8@DoBorrow:

; 419  :         }
; 420  :         else
; 421  :         {
; 422  :             // u の最上位に達しておらず、かつボローが立っていない場合
; 423  : 
; 424  :             // 桁借りを中断し復帰する。
; 425  :             return (FALSE);

	xor	eax, eax

; 426  :         }
; 427  :     }
; 428  : }

	ret	0
DoBorrow ENDP
_TEXT	ENDS
; Function compile flags: /Ogtpy
; File z:\sources\lunor\repos\rougemeilland\palmtree.math.core.implements\palmtree.math.core.implements\pmc_divrem.c
; File z:\sources\lunor\repos\rougemeilland\palmtree.math.core.implements\palmtree.math.core.implements\pmc_internal.h
; File z:\sources\lunor\repos\rougemeilland\palmtree.math.core.implements\palmtree.math.core.implements\pmc_divrem.c
; File z:\sources\lunor\repos\rougemeilland\palmtree.math.core.implements\palmtree.math.core.implements\pmc_internal.h
; File z:\sources\lunor\repos\rougemeilland\palmtree.math.core.implements\palmtree.math.core.implements\pmc_divrem.c
;	COMDAT CalculateQ_X
_TEXT	SEGMENT
rh_hi$1 = 48
u_buf$ = 48
rh_mi$2 = 56
v_buf$ = 56
rh_hi$3 = 64
v_buf_len$ = 64
rh_mi$4 = 72
q_index$ = 72
CalculateQ_X PROC					; COMDAT

; 365  : {

	push	rbx
	push	rbp
	push	rsi
	push	rdi
	push	r14

; 366  :     __UNIT_TYPE u_index = q_index + v_buf_len;
; 367  :     __UNIT_TYPE_DIV uj = u_buf[u_index];
; 368  :     __UNIT_TYPE_DIV uj_1 = u_buf[u_index - 1];
; 369  :     __UNIT_TYPE_DIV uj_2 = u_buf[u_index - 2];
; 370  :     __UNIT_TYPE_DIV v1 = v_buf[v_buf_len - 1];
; 371  :     __UNIT_TYPE_DIV v2 = v_buf[v_buf_len - 2];

	mov	r10d, DWORD PTR [rdx+r8*4-8]
	lea	rax, QWORD PTR [r8+r9]
	mov	r9d, DWORD PTR [rcx+rax*4]
	mov	ebx, DWORD PTR [rcx+rax*4-4]
	mov	edi, DWORD PTR [rcx+rax*4-8]
	mov	eax, DWORD PTR [rdx+r8*4-4]
	mov	ebp, eax

; 249  :     if (uj == v1)

	cmp	r9d, eax
	jne	SHORT $LN6@CalculateQ

; 250  :         return (-1);

	mov	r8d, -1					; ffffffffH
	jmp	SHORT $LN5@CalculateQ
$LN6@CalculateQ:
; File z:\sources\lunor\repos\rougemeilland\palmtree.math.core.implements\palmtree.math.core.implements\pmc_internal.h

; 1062 :     _InterlockedIncrement(&statistics_info.COUNT_DIV32);

	lock inc DWORD PTR statistics_info+12

; 454  :     return (((_UINT64_T)value_high << 32) | value_low);

	mov	rax, r9

; 667  :         return ((_UINT32_T)(t / v));

	xor	edx, edx

; 454  :     return (((_UINT64_T)value_high << 32) | value_low);

	shl	rax, 32					; 00000020H
	or	rax, rbx

; 667  :         return ((_UINT32_T)(t / v));

	div	rbp
	mov	r8, rax
$LN5@CalculateQ:

; 640  :     return (_FROMDWORDTOWORD((_UINT64_T)u * v, w_hi));

	mov	edx, r8d
	mov	rsi, r10
	imul	rsi, rdx
	imul	rdx, rbp

; 558  :     return (_subborrow_u32(borrow, u, v, w));

	mov	eax, ebx

; 1097 :     _InterlockedExchangeAdd(&statistics_info.COUNT_MULTI32, value);

	mov	r14d, 2

; 459  :     *result_high = (_UINT32_T)(value >> 32);

	mov	r11, rsi
	shr	r11, 32					; 00000020H

; 558  :     return (_subborrow_u32(borrow, u, v, w));

	sub	eax, edx
	mov	DWORD PTR rh_mi$2[rsp], eax
	mov	eax, r9d
	setb	cl

; 459  :     *result_high = (_UINT32_T)(value >> 32);

	shr	rdx, 32					; 00000020H

; 558  :     return (_subborrow_u32(borrow, u, v, w));

	add	cl, -1
	sbb	eax, edx
	mov	DWORD PTR rh_hi$1[rsp], eax

; 1097 :     _InterlockedExchangeAdd(&statistics_info.COUNT_MULTI32, value);

	mov	eax, r14d
	lock xadd DWORD PTR statistics_info+4, eax
; File z:\sources\lunor\repos\rougemeilland\palmtree.math.core.implements\palmtree.math.core.implements\pmc_divrem.c

; 316  :     if (rh_hi > 0)

	cmp	DWORD PTR rh_hi$1[rsp], 0
	ja	SHORT $LN74@CalculateQ

; 317  :     {
; 318  : #ifdef DO_TRACE
; 319  :         ReportVar("result", 0);
; 320  : #endif
; 321  :         return (FALSE);
; 322  :     }
; 323  :     else if (lh_mi > rh_mi)

	cmp	r11d, DWORD PTR rh_mi$2[rsp]
	ja	SHORT $LN2@CalculateQ

; 324  :     {
; 325  : #ifdef DO_TRACE
; 326  :         ReportVar("result", 1);
; 327  : #endif
; 328  :         return (TRUE);
; 329  :     }
; 330  :     else if (lh_mi < rh_mi)

	jb	SHORT $LN74@CalculateQ

; 372  :     __UNIT_TYPE_DIV q_ = AsumeQ_(uj, uj_1, v1);
; 373  : #ifdef DO_TRACE
; 374  :     ReportLabel("q_ の計算");
; 375  :     ReportVar("uj", uj);
; 376  :     ReportVar("uj1", uj_1);
; 377  :     ReportVar("v1", v1);
; 378  :     ReportVar("q_", q_);
; 379  : #endif
; 380  :     if (!CheckQ_X(q_, uj, uj_1, uj_2, v1, v2))

	cmp	esi, edi
	jbe	SHORT $LN74@CalculateQ
$LN2@CalculateQ:

; 381  :         return (q_);
; 382  :     --q_;

	dec	r8d
; File z:\sources\lunor\repos\rougemeilland\palmtree.math.core.implements\palmtree.math.core.implements\pmc_internal.h

; 640  :     return (_FROMDWORDTOWORD((_UINT64_T)u * v, w_hi));

	mov	ecx, r8d
	imul	r10, rcx
	imul	rcx, rbp

; 459  :     *result_high = (_UINT32_T)(value >> 32);

	mov	rdx, r10
	shr	rdx, 32					; 00000020H

; 558  :     return (_subborrow_u32(borrow, u, v, w));

	sub	ebx, ecx
	mov	DWORD PTR rh_mi$4[rsp], ebx
	setb	al

; 459  :     *result_high = (_UINT32_T)(value >> 32);

	shr	rcx, 32					; 00000020H

; 558  :     return (_subborrow_u32(borrow, u, v, w));

	add	al, -1
	sbb	r9d, ecx
	mov	DWORD PTR rh_hi$3[rsp], r9d

; 1097 :     _InterlockedExchangeAdd(&statistics_info.COUNT_MULTI32, value);

	lock xadd DWORD PTR statistics_info+4, r14d
; File z:\sources\lunor\repos\rougemeilland\palmtree.math.core.implements\palmtree.math.core.implements\pmc_divrem.c

; 316  :     if (rh_hi > 0)

	cmp	DWORD PTR rh_hi$3[rsp], 0
	ja	SHORT $LN74@CalculateQ

; 317  :     {
; 318  : #ifdef DO_TRACE
; 319  :         ReportVar("result", 0);
; 320  : #endif
; 321  :         return (FALSE);
; 322  :     }
; 323  :     else if (lh_mi > rh_mi)

	cmp	edx, DWORD PTR rh_mi$4[rsp]
	ja	SHORT $LN3@CalculateQ

; 324  :     {
; 325  : #ifdef DO_TRACE
; 326  :         ReportVar("result", 1);
; 327  : #endif
; 328  :         return (TRUE);
; 329  :     }
; 330  :     else if (lh_mi < rh_mi)

	jb	SHORT $LN74@CalculateQ

; 383  :     if (!CheckQ_X(q_, uj, uj_1, uj_2, v1, v2))

	cmp	r10d, edi
	jbe	SHORT $LN74@CalculateQ
$LN3@CalculateQ:

; 384  :         return (q_);
; 385  :     --q_;

	lea	eax, DWORD PTR [r8-1]

; 386  :     return (q_);
; 387  : }

	pop	r14
	pop	rdi
	pop	rsi
	pop	rbp
	pop	rbx
	ret	0
$LN74@CalculateQ:
	mov	eax, r8d
	pop	r14
	pop	rdi
	pop	rsi
	pop	rbp
	pop	rbx
	ret	0
CalculateQ_X ENDP
_TEXT	ENDS
; Function compile flags: /Ogtpy
; File z:\sources\lunor\repos\rougemeilland\palmtree.math.core.implements\palmtree.math.core.implements\pmc_divrem.c
; File z:\sources\lunor\repos\rougemeilland\palmtree.math.core.implements\palmtree.math.core.implements\pmc_internal.h
; File z:\sources\lunor\repos\rougemeilland\palmtree.math.core.implements\palmtree.math.core.implements\pmc_divrem.c
; File z:\sources\lunor\repos\rougemeilland\palmtree.math.core.implements\palmtree.math.core.implements\pmc_internal.h
; File z:\sources\lunor\repos\rougemeilland\palmtree.math.core.implements\palmtree.math.core.implements\pmc_divrem.c
;	COMDAT CalculateQ_
_TEXT	SEGMENT
rh_hi$1 = 48
u_buf$ = 48
rh_mi$2 = 56
v_buf$ = 56
rh_hi$3 = 64
v_buf_len$ = 64
rh_mi$4 = 72
q_index$ = 72
CalculateQ_ PROC					; COMDAT

; 347  : {

	push	rbx
	push	rbp
	push	rsi
	push	rdi
	push	r14

; 348  :     __UNIT_TYPE u_index = q_index + v_buf_len;
; 349  :     __UNIT_TYPE_DIV uj = u_buf[u_index];
; 350  :     __UNIT_TYPE_DIV uj_1 = u_buf[u_index - 1];
; 351  :     __UNIT_TYPE_DIV uj_2 = u_buf[u_index - 2];
; 352  :     __UNIT_TYPE_DIV v1 = v_buf[v_buf_len - 1];
; 353  :     __UNIT_TYPE_DIV v2 = v_buf[v_buf_len - 2];

	mov	r10d, DWORD PTR [rdx+r8*4-8]
	lea	rax, QWORD PTR [r8+r9]
	mov	r9d, DWORD PTR [rcx+rax*4]
	mov	ebx, DWORD PTR [rcx+rax*4-4]
	mov	edi, DWORD PTR [rcx+rax*4-8]
	mov	eax, DWORD PTR [rdx+r8*4-4]
	mov	ebp, eax

; 249  :     if (uj == v1)

	cmp	r9d, eax
	jne	SHORT $LN6@CalculateQ

; 250  :         return (-1);

	mov	r8d, -1					; ffffffffH
	jmp	SHORT $LN5@CalculateQ
$LN6@CalculateQ:
; File z:\sources\lunor\repos\rougemeilland\palmtree.math.core.implements\palmtree.math.core.implements\pmc_internal.h

; 1062 :     _InterlockedIncrement(&statistics_info.COUNT_DIV32);

	lock inc DWORD PTR statistics_info+12

; 454  :     return (((_UINT64_T)value_high << 32) | value_low);

	mov	rax, r9

; 667  :         return ((_UINT32_T)(t / v));

	xor	edx, edx

; 454  :     return (((_UINT64_T)value_high << 32) | value_low);

	shl	rax, 32					; 00000020H
	or	rax, rbx

; 667  :         return ((_UINT32_T)(t / v));

	div	rbp
	mov	r8, rax
$LN5@CalculateQ:

; 594  :     return (_FROMDWORDTOWORD((_UINT64_T)u * v, w_hi));

	mov	edx, r8d
	mov	rsi, r10
	imul	rsi, rdx
	imul	rdx, rbp

; 558  :     return (_subborrow_u32(borrow, u, v, w));

	mov	eax, ebx

; 1097 :     _InterlockedExchangeAdd(&statistics_info.COUNT_MULTI32, value);

	mov	r14d, 2

; 459  :     *result_high = (_UINT32_T)(value >> 32);

	mov	r11, rsi
	shr	r11, 32					; 00000020H

; 558  :     return (_subborrow_u32(borrow, u, v, w));

	sub	eax, edx
	mov	DWORD PTR rh_mi$2[rsp], eax
	mov	eax, r9d
	setb	cl

; 459  :     *result_high = (_UINT32_T)(value >> 32);

	shr	rdx, 32					; 00000020H

; 558  :     return (_subborrow_u32(borrow, u, v, w));

	add	cl, -1
	sbb	eax, edx
	mov	DWORD PTR rh_hi$1[rsp], eax

; 1097 :     _InterlockedExchangeAdd(&statistics_info.COUNT_MULTI32, value);

	mov	eax, r14d
	lock xadd DWORD PTR statistics_info+4, eax
; File z:\sources\lunor\repos\rougemeilland\palmtree.math.core.implements\palmtree.math.core.implements\pmc_divrem.c

; 279  :     if (rh_hi > 0)

	cmp	DWORD PTR rh_hi$1[rsp], 0
	ja	SHORT $LN74@CalculateQ

; 280  :         return (FALSE);
; 281  :     else if (lh_mi > rh_mi)

	cmp	r11d, DWORD PTR rh_mi$2[rsp]
	ja	SHORT $LN2@CalculateQ

; 282  :         return (TRUE);
; 283  :     else if (lh_mi < rh_mi)

	jb	SHORT $LN74@CalculateQ

; 354  :     __UNIT_TYPE_DIV q_ = AsumeQ_(uj, uj_1, v1);
; 355  :     if (!CheckQ_(q_, uj, uj_1, uj_2, v1, v2))

	cmp	esi, edi
	jbe	SHORT $LN74@CalculateQ
$LN2@CalculateQ:

; 356  :         return (q_);
; 357  :     --q_;

	dec	r8d
; File z:\sources\lunor\repos\rougemeilland\palmtree.math.core.implements\palmtree.math.core.implements\pmc_internal.h

; 594  :     return (_FROMDWORDTOWORD((_UINT64_T)u * v, w_hi));

	mov	ecx, r8d
	imul	r10, rcx
	imul	rcx, rbp

; 459  :     *result_high = (_UINT32_T)(value >> 32);

	mov	rdx, r10
	shr	rdx, 32					; 00000020H

; 558  :     return (_subborrow_u32(borrow, u, v, w));

	sub	ebx, ecx
	mov	DWORD PTR rh_mi$4[rsp], ebx
	setb	al

; 459  :     *result_high = (_UINT32_T)(value >> 32);

	shr	rcx, 32					; 00000020H

; 558  :     return (_subborrow_u32(borrow, u, v, w));

	add	al, -1
	sbb	r9d, ecx
	mov	DWORD PTR rh_hi$3[rsp], r9d

; 1097 :     _InterlockedExchangeAdd(&statistics_info.COUNT_MULTI32, value);

	lock xadd DWORD PTR statistics_info+4, r14d
; File z:\sources\lunor\repos\rougemeilland\palmtree.math.core.implements\palmtree.math.core.implements\pmc_divrem.c

; 279  :     if (rh_hi > 0)

	cmp	DWORD PTR rh_hi$3[rsp], 0
	ja	SHORT $LN74@CalculateQ

; 280  :         return (FALSE);
; 281  :     else if (lh_mi > rh_mi)

	cmp	edx, DWORD PTR rh_mi$4[rsp]
	ja	SHORT $LN3@CalculateQ

; 282  :         return (TRUE);
; 283  :     else if (lh_mi < rh_mi)

	jb	SHORT $LN74@CalculateQ

; 358  :     if (!CheckQ_(q_, uj, uj_1, uj_2, v1, v2))

	cmp	r10d, edi
	jbe	SHORT $LN74@CalculateQ
$LN3@CalculateQ:

; 359  :         return (q_);
; 360  :     --q_;

	lea	eax, DWORD PTR [r8-1]

; 361  :     return (q_);
; 362  : }

	pop	r14
	pop	rdi
	pop	rsi
	pop	rbp
	pop	rbx
	ret	0
$LN74@CalculateQ:
	mov	eax, r8d
	pop	r14
	pop	rdi
	pop	rsi
	pop	rbp
	pop	rbx
	ret	0
CalculateQ_ ENDP
_TEXT	ENDS
; Function compile flags: /Ogtpy
; File z:\sources\lunor\repos\rougemeilland\palmtree.math.core.implements\palmtree.math.core.implements\pmc_divrem.c
; File z:\sources\lunor\repos\rougemeilland\palmtree.math.core.implements\palmtree.math.core.implements\pmc_internal.h
; File z:\sources\lunor\repos\rougemeilland\palmtree.math.core.implements\palmtree.math.core.implements\pmc_divrem.c
;	COMDAT CheckQ_X
_TEXT	SEGMENT
q_$ = 8
uj$ = 16
uj_1$ = 24
uj_2$ = 32
rh_mi$ = 40
v1$ = 40
rh_hi$ = 48
v2$ = 48
CheckQ_X PROC						; COMDAT
; File z:\sources\lunor\repos\rougemeilland\palmtree.math.core.implements\palmtree.math.core.implements\pmc_internal.h

; 640  :     return (_FROMDWORDTOWORD((_UINT64_T)u * v, w_hi));

	mov	r11d, DWORD PTR v2$[rsp]
	mov	eax, ecx
	mov	ecx, DWORD PTR v1$[rsp]
	imul	r11, rax
	imul	rcx, rax

; 459  :     *result_high = (_UINT32_T)(value >> 32);

	mov	r10, r11
	shr	r10, 32					; 00000020H

; 558  :     return (_subborrow_u32(borrow, u, v, w));

	sub	r8d, ecx
	mov	DWORD PTR rh_mi$[rsp], r8d
	setb	al

; 459  :     *result_high = (_UINT32_T)(value >> 32);

	shr	rcx, 32					; 00000020H

; 558  :     return (_subborrow_u32(borrow, u, v, w));

	add	al, -1

; 1097 :     _InterlockedExchangeAdd(&statistics_info.COUNT_MULTI32, value);

	mov	eax, 2

; 558  :     return (_subborrow_u32(borrow, u, v, w));

	sbb	edx, ecx
	mov	DWORD PTR rh_hi$[rsp], edx

; 1097 :     _InterlockedExchangeAdd(&statistics_info.COUNT_MULTI32, value);

	lock xadd DWORD PTR statistics_info+4, eax
; File z:\sources\lunor\repos\rougemeilland\palmtree.math.core.implements\palmtree.math.core.implements\pmc_divrem.c

; 316  :     if (rh_hi > 0)

	cmp	DWORD PTR rh_hi$[rsp], 0
	ja	SHORT $LN27@CheckQ_X

; 317  :     {
; 318  : #ifdef DO_TRACE
; 319  :         ReportVar("result", 0);
; 320  : #endif
; 321  :         return (FALSE);
; 322  :     }
; 323  :     else if (lh_mi > rh_mi)

	cmp	r10d, DWORD PTR rh_mi$[rsp]
	jbe	SHORT $LN6@CheckQ_X

; 324  :     {
; 325  : #ifdef DO_TRACE
; 326  :         ReportVar("result", 1);
; 327  : #endif
; 328  :         return (TRUE);

	mov	eax, 1

; 343  :     }
; 344  : }

	ret	0
$LN6@CheckQ_X:

; 329  :     }
; 330  :     else if (lh_mi < rh_mi)

	jb	SHORT $LN27@CheckQ_X

; 336  :     }
; 337  :     else
; 338  :     {
; 339  : #ifdef DO_TRACE
; 340  :         ReportVar("result", lh_lo > rh_lo);
; 341  : #endif
; 342  :         return (lh_lo > rh_lo);

	xor	eax, eax
	cmp	r11d, r9d
	seta	al

; 343  :     }
; 344  : }

	ret	0
$LN27@CheckQ_X:

; 331  :     {
; 332  : #ifdef DO_TRACE
; 333  :         ReportVar("result", 0);
; 334  : #endif
; 335  :         return (FALSE);

	xor	eax, eax

; 343  :     }
; 344  : }

	ret	0
CheckQ_X ENDP
_TEXT	ENDS
; Function compile flags: /Ogtpy
; File z:\sources\lunor\repos\rougemeilland\palmtree.math.core.implements\palmtree.math.core.implements\pmc_divrem.c
; File z:\sources\lunor\repos\rougemeilland\palmtree.math.core.implements\palmtree.math.core.implements\pmc_internal.h
; File z:\sources\lunor\repos\rougemeilland\palmtree.math.core.implements\palmtree.math.core.implements\pmc_divrem.c
;	COMDAT CheckQ_
_TEXT	SEGMENT
q_$ = 8
uj$ = 16
uj_1$ = 24
uj_2$ = 32
rh_mi$ = 40
v1$ = 40
rh_hi$ = 48
v2$ = 48
CheckQ_	PROC						; COMDAT
; File z:\sources\lunor\repos\rougemeilland\palmtree.math.core.implements\palmtree.math.core.implements\pmc_internal.h

; 594  :     return (_FROMDWORDTOWORD((_UINT64_T)u * v, w_hi));

	mov	r11d, DWORD PTR v2$[rsp]
	mov	eax, ecx
	mov	ecx, DWORD PTR v1$[rsp]
	imul	r11, rax
	imul	rcx, rax

; 459  :     *result_high = (_UINT32_T)(value >> 32);

	mov	r10, r11
	shr	r10, 32					; 00000020H

; 558  :     return (_subborrow_u32(borrow, u, v, w));

	sub	r8d, ecx
	mov	DWORD PTR rh_mi$[rsp], r8d
	setb	al

; 459  :     *result_high = (_UINT32_T)(value >> 32);

	shr	rcx, 32					; 00000020H

; 558  :     return (_subborrow_u32(borrow, u, v, w));

	add	al, -1

; 1097 :     _InterlockedExchangeAdd(&statistics_info.COUNT_MULTI32, value);

	mov	eax, 2

; 558  :     return (_subborrow_u32(borrow, u, v, w));

	sbb	edx, ecx
	mov	DWORD PTR rh_hi$[rsp], edx

; 1097 :     _InterlockedExchangeAdd(&statistics_info.COUNT_MULTI32, value);

	lock xadd DWORD PTR statistics_info+4, eax
; File z:\sources\lunor\repos\rougemeilland\palmtree.math.core.implements\palmtree.math.core.implements\pmc_divrem.c

; 279  :     if (rh_hi > 0)

	cmp	DWORD PTR rh_hi$[rsp], 0
	ja	SHORT $LN27@CheckQ_

; 280  :         return (FALSE);
; 281  :     else if (lh_mi > rh_mi)

	cmp	r10d, DWORD PTR rh_mi$[rsp]
	jbe	SHORT $LN6@CheckQ_

; 282  :         return (TRUE);

	mov	eax, 1

; 287  : }

	ret	0
$LN6@CheckQ_:

; 283  :     else if (lh_mi < rh_mi)

	jb	SHORT $LN27@CheckQ_

; 285  :     else
; 286  :         return (lh_lo > rh_lo);

	xor	eax, eax
	cmp	r11d, r9d
	seta	al

; 287  : }

	ret	0
$LN27@CheckQ_:

; 284  :         return (FALSE);

	xor	eax, eax

; 287  : }

	ret	0
CheckQ_	ENDP
_TEXT	ENDS
; Function compile flags: /Ogtpy
; File z:\sources\lunor\repos\rougemeilland\palmtree.math.core.implements\palmtree.math.core.implements\pmc_divrem.c
; File z:\sources\lunor\repos\rougemeilland\palmtree.math.core.implements\palmtree.math.core.implements\pmc_internal.h
; File z:\sources\lunor\repos\rougemeilland\palmtree.math.core.implements\palmtree.math.core.implements\pmc_divrem.c
;	COMDAT AsumeQ_
_TEXT	SEGMENT
uj$ = 8
uj_1$ = 16
v1$ = 24
AsumeQ_	PROC						; COMDAT

; 249  :     if (uj == v1)

	cmp	ecx, r8d
	jne	SHORT $LN2@AsumeQ_

; 250  :         return (-1);

	mov	eax, -1					; ffffffffH

; 260  : }

	ret	0
$LN2@AsumeQ_:
; File z:\sources\lunor\repos\rougemeilland\palmtree.math.core.implements\palmtree.math.core.implements\pmc_internal.h

; 1062 :     _InterlockedIncrement(&statistics_info.COUNT_DIV32);

	lock inc DWORD PTR statistics_info+12

; 454  :     return (((_UINT64_T)value_high << 32) | value_low);

	mov	eax, ecx
	mov	ecx, edx

; 667  :         return ((_UINT32_T)(t / v));

	xor	edx, edx

; 454  :     return (((_UINT64_T)value_high << 32) | value_low);

	shl	rax, 32					; 00000020H
	or	rax, rcx

; 667  :         return ((_UINT32_T)(t / v));

	mov	ecx, r8d
	div	rcx
; File z:\sources\lunor\repos\rougemeilland\palmtree.math.core.implements\palmtree.math.core.implements\pmc_divrem.c

; 260  : }

	ret	0
AsumeQ_	ENDP
_TEXT	ENDS
; Function compile flags: /Ogtpy
; File z:\sources\lunor\repos\rougemeilland\palmtree.math.core.implements\palmtree.math.core.implements\autogenerated_inline_func.h
; File z:\sources\lunor\repos\rougemeilland\palmtree.math.core.implements\palmtree.math.core.implements\pmc_internal.h
; File z:\sources\lunor\repos\rougemeilland\palmtree.math.core.implements\palmtree.math.core.implements\autogenerated_inline_func.h
; File z:\sources\lunor\repos\rougemeilland\palmtree.math.core.implements\palmtree.math.core.implements\pmc_internal.h
; File z:\sources\lunor\repos\rougemeilland\palmtree.math.core.implements\palmtree.math.core.implements\autogenerated_inline_func.h
;	COMDAT _ADD_2WORDS_ADCX_DIV
_TEXT	SEGMENT
c$ = 8
xp$ = 16
yp$ = 24
zp$ = 32
_ADD_2WORDS_ADCX_DIV PROC				; COMDAT

; 4549 : #ifdef _MSC_VER
; 4550 :     c = _ADDX_UNIT_DIV(c, xp[0], yp[0], &zp[0]);

	mov	eax, DWORD PTR [rdx]
; File z:\sources\lunor\repos\rougemeilland\palmtree.math.core.implements\palmtree.math.core.implements\pmc_internal.h

; 530  :     return (_addcarryx_u32(carry, u, v, w));

	add	cl, -1
	adcx	eax, DWORD PTR [r8]
	mov	DWORD PTR [r9], eax
; File z:\sources\lunor\repos\rougemeilland\palmtree.math.core.implements\palmtree.math.core.implements\autogenerated_inline_func.h

; 4551 :     c = _ADDX_UNIT_DIV(c, xp[1], yp[1], &zp[1]);

	mov	ecx, DWORD PTR [rdx+4]
; File z:\sources\lunor\repos\rougemeilland\palmtree.math.core.implements\palmtree.math.core.implements\pmc_internal.h

; 530  :     return (_addcarryx_u32(carry, u, v, w));

	adcx	ecx, DWORD PTR [r8+4]
	mov	DWORD PTR [r9+4], ecx
	setb	al
; File z:\sources\lunor\repos\rougemeilland\palmtree.math.core.implements\palmtree.math.core.implements\autogenerated_inline_func.h

; 4588 : }

	ret	0
_ADD_2WORDS_ADCX_DIV ENDP
_TEXT	ENDS
; Function compile flags: /Ogtpy
; File z:\sources\lunor\repos\rougemeilland\palmtree.math.core.implements\palmtree.math.core.implements\autogenerated_inline_func.h
; File z:\sources\lunor\repos\rougemeilland\palmtree.math.core.implements\palmtree.math.core.implements\pmc_internal.h
; File z:\sources\lunor\repos\rougemeilland\palmtree.math.core.implements\palmtree.math.core.implements\autogenerated_inline_func.h
; File z:\sources\lunor\repos\rougemeilland\palmtree.math.core.implements\palmtree.math.core.implements\pmc_internal.h
; File z:\sources\lunor\repos\rougemeilland\palmtree.math.core.implements\palmtree.math.core.implements\autogenerated_inline_func.h
;	COMDAT _ADD_2WORDS_ADC_DIV
_TEXT	SEGMENT
c$ = 8
xp$ = 16
yp$ = 24
zp$ = 32
_ADD_2WORDS_ADC_DIV PROC				; COMDAT

; 4506 : #ifdef _MSC_VER
; 4507 :     c = _ADD_UNIT_DIV(c, xp[0], yp[0], &zp[0]);

	mov	eax, DWORD PTR [rdx]
; File z:\sources\lunor\repos\rougemeilland\palmtree.math.core.implements\palmtree.math.core.implements\pmc_internal.h

; 502  :     return (_addcarry_u32(carry, u, v, w));

	add	cl, -1
	adc	eax, DWORD PTR [r8]
	mov	DWORD PTR [r9], eax
; File z:\sources\lunor\repos\rougemeilland\palmtree.math.core.implements\palmtree.math.core.implements\autogenerated_inline_func.h

; 4508 :     c = _ADD_UNIT_DIV(c, xp[1], yp[1], &zp[1]);

	mov	ecx, DWORD PTR [rdx+4]
; File z:\sources\lunor\repos\rougemeilland\palmtree.math.core.implements\palmtree.math.core.implements\pmc_internal.h

; 502  :     return (_addcarry_u32(carry, u, v, w));

	adc	ecx, DWORD PTR [r8+4]
	mov	DWORD PTR [r9+4], ecx
	setb	al
; File z:\sources\lunor\repos\rougemeilland\palmtree.math.core.implements\palmtree.math.core.implements\autogenerated_inline_func.h

; 4545 : }

	ret	0
_ADD_2WORDS_ADC_DIV ENDP
_TEXT	ENDS
; Function compile flags: /Ogtpy
; File z:\sources\lunor\repos\rougemeilland\palmtree.math.core.implements\palmtree.math.core.implements\autogenerated_inline_func.h
; File z:\sources\lunor\repos\rougemeilland\palmtree.math.core.implements\palmtree.math.core.implements\pmc_internal.h
; File z:\sources\lunor\repos\rougemeilland\palmtree.math.core.implements\palmtree.math.core.implements\autogenerated_inline_func.h
; File z:\sources\lunor\repos\rougemeilland\palmtree.math.core.implements\palmtree.math.core.implements\pmc_internal.h
; File z:\sources\lunor\repos\rougemeilland\palmtree.math.core.implements\palmtree.math.core.implements\autogenerated_inline_func.h
; File z:\sources\lunor\repos\rougemeilland\palmtree.math.core.implements\palmtree.math.core.implements\pmc_internal.h
; File z:\sources\lunor\repos\rougemeilland\palmtree.math.core.implements\palmtree.math.core.implements\autogenerated_inline_func.h
; File z:\sources\lunor\repos\rougemeilland\palmtree.math.core.implements\palmtree.math.core.implements\pmc_internal.h
; File z:\sources\lunor\repos\rougemeilland\palmtree.math.core.implements\palmtree.math.core.implements\autogenerated_inline_func.h
;	COMDAT _ADD_4WORDS_ADCX_DIV
_TEXT	SEGMENT
c$ = 8
xp$ = 16
yp$ = 24
zp$ = 32
_ADD_4WORDS_ADCX_DIV PROC				; COMDAT

; 4163 : #ifdef _MSC_VER
; 4164 :     c = _ADDX_UNIT_DIV(c, xp[0], yp[0], &zp[0]);

	mov	eax, DWORD PTR [rdx]
; File z:\sources\lunor\repos\rougemeilland\palmtree.math.core.implements\palmtree.math.core.implements\pmc_internal.h

; 530  :     return (_addcarryx_u32(carry, u, v, w));

	add	cl, -1
	adcx	eax, DWORD PTR [r8]
	mov	DWORD PTR [r9], eax
; File z:\sources\lunor\repos\rougemeilland\palmtree.math.core.implements\palmtree.math.core.implements\autogenerated_inline_func.h

; 4165 :     c = _ADDX_UNIT_DIV(c, xp[1], yp[1], &zp[1]);

	mov	eax, DWORD PTR [rdx+4]
; File z:\sources\lunor\repos\rougemeilland\palmtree.math.core.implements\palmtree.math.core.implements\pmc_internal.h

; 530  :     return (_addcarryx_u32(carry, u, v, w));

	adcx	eax, DWORD PTR [r8+4]
	mov	DWORD PTR [r9+4], eax
; File z:\sources\lunor\repos\rougemeilland\palmtree.math.core.implements\palmtree.math.core.implements\autogenerated_inline_func.h

; 4166 :     c = _ADDX_UNIT_DIV(c, xp[2], yp[2], &zp[2]);

	mov	eax, DWORD PTR [rdx+8]
; File z:\sources\lunor\repos\rougemeilland\palmtree.math.core.implements\palmtree.math.core.implements\pmc_internal.h

; 530  :     return (_addcarryx_u32(carry, u, v, w));

	adcx	eax, DWORD PTR [r8+8]
	mov	DWORD PTR [r9+8], eax
; File z:\sources\lunor\repos\rougemeilland\palmtree.math.core.implements\palmtree.math.core.implements\autogenerated_inline_func.h

; 4167 :     c = _ADDX_UNIT_DIV(c, xp[3], yp[3], &zp[3]);

	mov	ecx, DWORD PTR [rdx+12]
; File z:\sources\lunor\repos\rougemeilland\palmtree.math.core.implements\palmtree.math.core.implements\pmc_internal.h

; 530  :     return (_addcarryx_u32(carry, u, v, w));

	adcx	ecx, DWORD PTR [r8+12]
	mov	DWORD PTR [r9+12], ecx
	setb	al
; File z:\sources\lunor\repos\rougemeilland\palmtree.math.core.implements\palmtree.math.core.implements\autogenerated_inline_func.h

; 4216 : }

	ret	0
_ADD_4WORDS_ADCX_DIV ENDP
_TEXT	ENDS
; Function compile flags: /Ogtpy
; File z:\sources\lunor\repos\rougemeilland\palmtree.math.core.implements\palmtree.math.core.implements\autogenerated_inline_func.h
; File z:\sources\lunor\repos\rougemeilland\palmtree.math.core.implements\palmtree.math.core.implements\pmc_internal.h
; File z:\sources\lunor\repos\rougemeilland\palmtree.math.core.implements\palmtree.math.core.implements\autogenerated_inline_func.h
; File z:\sources\lunor\repos\rougemeilland\palmtree.math.core.implements\palmtree.math.core.implements\pmc_internal.h
; File z:\sources\lunor\repos\rougemeilland\palmtree.math.core.implements\palmtree.math.core.implements\autogenerated_inline_func.h
; File z:\sources\lunor\repos\rougemeilland\palmtree.math.core.implements\palmtree.math.core.implements\pmc_internal.h
; File z:\sources\lunor\repos\rougemeilland\palmtree.math.core.implements\palmtree.math.core.implements\autogenerated_inline_func.h
; File z:\sources\lunor\repos\rougemeilland\palmtree.math.core.implements\palmtree.math.core.implements\pmc_internal.h
; File z:\sources\lunor\repos\rougemeilland\palmtree.math.core.implements\palmtree.math.core.implements\autogenerated_inline_func.h
;	COMDAT _ADD_4WORDS_ADC_DIV
_TEXT	SEGMENT
c$ = 8
xp$ = 16
yp$ = 24
zp$ = 32
_ADD_4WORDS_ADC_DIV PROC				; COMDAT

; 4106 : #ifdef _MSC_VER
; 4107 :     c = _ADD_UNIT_DIV(c, xp[0], yp[0], &zp[0]);

	mov	eax, DWORD PTR [rdx]
; File z:\sources\lunor\repos\rougemeilland\palmtree.math.core.implements\palmtree.math.core.implements\pmc_internal.h

; 502  :     return (_addcarry_u32(carry, u, v, w));

	add	cl, -1
	adc	eax, DWORD PTR [r8]
	mov	DWORD PTR [r9], eax
; File z:\sources\lunor\repos\rougemeilland\palmtree.math.core.implements\palmtree.math.core.implements\autogenerated_inline_func.h

; 4108 :     c = _ADD_UNIT_DIV(c, xp[1], yp[1], &zp[1]);

	mov	eax, DWORD PTR [rdx+4]
; File z:\sources\lunor\repos\rougemeilland\palmtree.math.core.implements\palmtree.math.core.implements\pmc_internal.h

; 502  :     return (_addcarry_u32(carry, u, v, w));

	adc	eax, DWORD PTR [r8+4]
	mov	DWORD PTR [r9+4], eax
; File z:\sources\lunor\repos\rougemeilland\palmtree.math.core.implements\palmtree.math.core.implements\autogenerated_inline_func.h

; 4109 :     c = _ADD_UNIT_DIV(c, xp[2], yp[2], &zp[2]);

	mov	eax, DWORD PTR [rdx+8]
; File z:\sources\lunor\repos\rougemeilland\palmtree.math.core.implements\palmtree.math.core.implements\pmc_internal.h

; 502  :     return (_addcarry_u32(carry, u, v, w));

	adc	eax, DWORD PTR [r8+8]
	mov	DWORD PTR [r9+8], eax
; File z:\sources\lunor\repos\rougemeilland\palmtree.math.core.implements\palmtree.math.core.implements\autogenerated_inline_func.h

; 4110 :     c = _ADD_UNIT_DIV(c, xp[3], yp[3], &zp[3]);

	mov	ecx, DWORD PTR [rdx+12]
; File z:\sources\lunor\repos\rougemeilland\palmtree.math.core.implements\palmtree.math.core.implements\pmc_internal.h

; 502  :     return (_addcarry_u32(carry, u, v, w));

	adc	ecx, DWORD PTR [r8+12]
	mov	DWORD PTR [r9+12], ecx
	setb	al
; File z:\sources\lunor\repos\rougemeilland\palmtree.math.core.implements\palmtree.math.core.implements\autogenerated_inline_func.h

; 4159 : }

	ret	0
_ADD_4WORDS_ADC_DIV ENDP
_TEXT	ENDS
; Function compile flags: /Ogtpy
; File z:\sources\lunor\repos\rougemeilland\palmtree.math.core.implements\palmtree.math.core.implements\autogenerated_inline_func.h
; File z:\sources\lunor\repos\rougemeilland\palmtree.math.core.implements\palmtree.math.core.implements\pmc_internal.h
; File z:\sources\lunor\repos\rougemeilland\palmtree.math.core.implements\palmtree.math.core.implements\autogenerated_inline_func.h
; File z:\sources\lunor\repos\rougemeilland\palmtree.math.core.implements\palmtree.math.core.implements\pmc_internal.h
; File z:\sources\lunor\repos\rougemeilland\palmtree.math.core.implements\palmtree.math.core.implements\autogenerated_inline_func.h
; File z:\sources\lunor\repos\rougemeilland\palmtree.math.core.implements\palmtree.math.core.implements\pmc_internal.h
; File z:\sources\lunor\repos\rougemeilland\palmtree.math.core.implements\palmtree.math.core.implements\autogenerated_inline_func.h
; File z:\sources\lunor\repos\rougemeilland\palmtree.math.core.implements\palmtree.math.core.implements\pmc_internal.h
; File z:\sources\lunor\repos\rougemeilland\palmtree.math.core.implements\palmtree.math.core.implements\autogenerated_inline_func.h
; File z:\sources\lunor\repos\rougemeilland\palmtree.math.core.implements\palmtree.math.core.implements\pmc_internal.h
; File z:\sources\lunor\repos\rougemeilland\palmtree.math.core.implements\palmtree.math.core.implements\autogenerated_inline_func.h
; File z:\sources\lunor\repos\rougemeilland\palmtree.math.core.implements\palmtree.math.core.implements\pmc_internal.h
; File z:\sources\lunor\repos\rougemeilland\palmtree.math.core.implements\palmtree.math.core.implements\autogenerated_inline_func.h
; File z:\sources\lunor\repos\rougemeilland\palmtree.math.core.implements\palmtree.math.core.implements\pmc_internal.h
; File z:\sources\lunor\repos\rougemeilland\palmtree.math.core.implements\palmtree.math.core.implements\autogenerated_inline_func.h
; File z:\sources\lunor\repos\rougemeilland\palmtree.math.core.implements\palmtree.math.core.implements\pmc_internal.h
; File z:\sources\lunor\repos\rougemeilland\palmtree.math.core.implements\palmtree.math.core.implements\autogenerated_inline_func.h
;	COMDAT _ADD_8WORDS_ADCX_DIV
_TEXT	SEGMENT
c$ = 8
xp$ = 16
yp$ = 24
zp$ = 32
_ADD_8WORDS_ADCX_DIV PROC				; COMDAT

; 3623 : #ifdef _MSC_VER
; 3624 :     c = _ADDX_UNIT_DIV(c, xp[0], yp[0], &zp[0]);

	mov	eax, DWORD PTR [rdx]
; File z:\sources\lunor\repos\rougemeilland\palmtree.math.core.implements\palmtree.math.core.implements\pmc_internal.h

; 530  :     return (_addcarryx_u32(carry, u, v, w));

	add	cl, -1
	adcx	eax, DWORD PTR [r8]
	mov	DWORD PTR [r9], eax
; File z:\sources\lunor\repos\rougemeilland\palmtree.math.core.implements\palmtree.math.core.implements\autogenerated_inline_func.h

; 3625 :     c = _ADDX_UNIT_DIV(c, xp[1], yp[1], &zp[1]);

	mov	eax, DWORD PTR [rdx+4]
; File z:\sources\lunor\repos\rougemeilland\palmtree.math.core.implements\palmtree.math.core.implements\pmc_internal.h

; 530  :     return (_addcarryx_u32(carry, u, v, w));

	adcx	eax, DWORD PTR [r8+4]
	mov	DWORD PTR [r9+4], eax
; File z:\sources\lunor\repos\rougemeilland\palmtree.math.core.implements\palmtree.math.core.implements\autogenerated_inline_func.h

; 3626 :     c = _ADDX_UNIT_DIV(c, xp[2], yp[2], &zp[2]);

	mov	eax, DWORD PTR [rdx+8]
; File z:\sources\lunor\repos\rougemeilland\palmtree.math.core.implements\palmtree.math.core.implements\pmc_internal.h

; 530  :     return (_addcarryx_u32(carry, u, v, w));

	adcx	eax, DWORD PTR [r8+8]
	mov	DWORD PTR [r9+8], eax
; File z:\sources\lunor\repos\rougemeilland\palmtree.math.core.implements\palmtree.math.core.implements\autogenerated_inline_func.h

; 3627 :     c = _ADDX_UNIT_DIV(c, xp[3], yp[3], &zp[3]);

	mov	eax, DWORD PTR [rdx+12]
; File z:\sources\lunor\repos\rougemeilland\palmtree.math.core.implements\palmtree.math.core.implements\pmc_internal.h

; 530  :     return (_addcarryx_u32(carry, u, v, w));

	adcx	eax, DWORD PTR [r8+12]
	mov	DWORD PTR [r9+12], eax
; File z:\sources\lunor\repos\rougemeilland\palmtree.math.core.implements\palmtree.math.core.implements\autogenerated_inline_func.h

; 3628 :     c = _ADDX_UNIT_DIV(c, xp[4], yp[4], &zp[4]);

	mov	eax, DWORD PTR [rdx+16]
; File z:\sources\lunor\repos\rougemeilland\palmtree.math.core.implements\palmtree.math.core.implements\pmc_internal.h

; 530  :     return (_addcarryx_u32(carry, u, v, w));

	adcx	eax, DWORD PTR [r8+16]
	mov	DWORD PTR [r9+16], eax
; File z:\sources\lunor\repos\rougemeilland\palmtree.math.core.implements\palmtree.math.core.implements\autogenerated_inline_func.h

; 3629 :     c = _ADDX_UNIT_DIV(c, xp[5], yp[5], &zp[5]);

	mov	eax, DWORD PTR [rdx+20]
; File z:\sources\lunor\repos\rougemeilland\palmtree.math.core.implements\palmtree.math.core.implements\pmc_internal.h

; 530  :     return (_addcarryx_u32(carry, u, v, w));

	adcx	eax, DWORD PTR [r8+20]
	mov	DWORD PTR [r9+20], eax
; File z:\sources\lunor\repos\rougemeilland\palmtree.math.core.implements\palmtree.math.core.implements\autogenerated_inline_func.h

; 3630 :     c = _ADDX_UNIT_DIV(c, xp[6], yp[6], &zp[6]);

	mov	eax, DWORD PTR [rdx+24]
; File z:\sources\lunor\repos\rougemeilland\palmtree.math.core.implements\palmtree.math.core.implements\pmc_internal.h

; 530  :     return (_addcarryx_u32(carry, u, v, w));

	adcx	eax, DWORD PTR [r8+24]
	mov	DWORD PTR [r9+24], eax
; File z:\sources\lunor\repos\rougemeilland\palmtree.math.core.implements\palmtree.math.core.implements\autogenerated_inline_func.h

; 3631 :     c = _ADDX_UNIT_DIV(c, xp[7], yp[7], &zp[7]);

	mov	ecx, DWORD PTR [rdx+28]
; File z:\sources\lunor\repos\rougemeilland\palmtree.math.core.implements\palmtree.math.core.implements\pmc_internal.h

; 530  :     return (_addcarryx_u32(carry, u, v, w));

	adcx	ecx, DWORD PTR [r8+28]
	mov	DWORD PTR [r9+28], ecx
	setb	al
; File z:\sources\lunor\repos\rougemeilland\palmtree.math.core.implements\palmtree.math.core.implements\autogenerated_inline_func.h

; 3704 : }

	ret	0
_ADD_8WORDS_ADCX_DIV ENDP
_TEXT	ENDS
; Function compile flags: /Ogtpy
; File z:\sources\lunor\repos\rougemeilland\palmtree.math.core.implements\palmtree.math.core.implements\autogenerated_inline_func.h
; File z:\sources\lunor\repos\rougemeilland\palmtree.math.core.implements\palmtree.math.core.implements\pmc_internal.h
; File z:\sources\lunor\repos\rougemeilland\palmtree.math.core.implements\palmtree.math.core.implements\autogenerated_inline_func.h
; File z:\sources\lunor\repos\rougemeilland\palmtree.math.core.implements\palmtree.math.core.implements\pmc_internal.h
; File z:\sources\lunor\repos\rougemeilland\palmtree.math.core.implements\palmtree.math.core.implements\autogenerated_inline_func.h
; File z:\sources\lunor\repos\rougemeilland\palmtree.math.core.implements\palmtree.math.core.implements\pmc_internal.h
; File z:\sources\lunor\repos\rougemeilland\palmtree.math.core.implements\palmtree.math.core.implements\autogenerated_inline_func.h
; File z:\sources\lunor\repos\rougemeilland\palmtree.math.core.implements\palmtree.math.core.implements\pmc_internal.h
; File z:\sources\lunor\repos\rougemeilland\palmtree.math.core.implements\palmtree.math.core.implements\autogenerated_inline_func.h
; File z:\sources\lunor\repos\rougemeilland\palmtree.math.core.implements\palmtree.math.core.implements\pmc_internal.h
; File z:\sources\lunor\repos\rougemeilland\palmtree.math.core.implements\palmtree.math.core.implements\autogenerated_inline_func.h
; File z:\sources\lunor\repos\rougemeilland\palmtree.math.core.implements\palmtree.math.core.implements\pmc_internal.h
; File z:\sources\lunor\repos\rougemeilland\palmtree.math.core.implements\palmtree.math.core.implements\autogenerated_inline_func.h
; File z:\sources\lunor\repos\rougemeilland\palmtree.math.core.implements\palmtree.math.core.implements\pmc_internal.h
; File z:\sources\lunor\repos\rougemeilland\palmtree.math.core.implements\palmtree.math.core.implements\autogenerated_inline_func.h
; File z:\sources\lunor\repos\rougemeilland\palmtree.math.core.implements\palmtree.math.core.implements\pmc_internal.h
; File z:\sources\lunor\repos\rougemeilland\palmtree.math.core.implements\palmtree.math.core.implements\autogenerated_inline_func.h
;	COMDAT _ADD_8WORDS_ADC_DIV
_TEXT	SEGMENT
c$ = 8
xp$ = 16
yp$ = 24
zp$ = 32
_ADD_8WORDS_ADC_DIV PROC				; COMDAT

; 3538 : #ifdef _MSC_VER
; 3539 :     c = _ADD_UNIT_DIV(c, xp[0], yp[0], &zp[0]);

	mov	eax, DWORD PTR [rdx]
; File z:\sources\lunor\repos\rougemeilland\palmtree.math.core.implements\palmtree.math.core.implements\pmc_internal.h

; 502  :     return (_addcarry_u32(carry, u, v, w));

	add	cl, -1
	adc	eax, DWORD PTR [r8]
	mov	DWORD PTR [r9], eax
; File z:\sources\lunor\repos\rougemeilland\palmtree.math.core.implements\palmtree.math.core.implements\autogenerated_inline_func.h

; 3540 :     c = _ADD_UNIT_DIV(c, xp[1], yp[1], &zp[1]);

	mov	eax, DWORD PTR [rdx+4]
; File z:\sources\lunor\repos\rougemeilland\palmtree.math.core.implements\palmtree.math.core.implements\pmc_internal.h

; 502  :     return (_addcarry_u32(carry, u, v, w));

	adc	eax, DWORD PTR [r8+4]
	mov	DWORD PTR [r9+4], eax
; File z:\sources\lunor\repos\rougemeilland\palmtree.math.core.implements\palmtree.math.core.implements\autogenerated_inline_func.h

; 3541 :     c = _ADD_UNIT_DIV(c, xp[2], yp[2], &zp[2]);

	mov	eax, DWORD PTR [rdx+8]
; File z:\sources\lunor\repos\rougemeilland\palmtree.math.core.implements\palmtree.math.core.implements\pmc_internal.h

; 502  :     return (_addcarry_u32(carry, u, v, w));

	adc	eax, DWORD PTR [r8+8]
	mov	DWORD PTR [r9+8], eax
; File z:\sources\lunor\repos\rougemeilland\palmtree.math.core.implements\palmtree.math.core.implements\autogenerated_inline_func.h

; 3542 :     c = _ADD_UNIT_DIV(c, xp[3], yp[3], &zp[3]);

	mov	eax, DWORD PTR [rdx+12]
; File z:\sources\lunor\repos\rougemeilland\palmtree.math.core.implements\palmtree.math.core.implements\pmc_internal.h

; 502  :     return (_addcarry_u32(carry, u, v, w));

	adc	eax, DWORD PTR [r8+12]
	mov	DWORD PTR [r9+12], eax
; File z:\sources\lunor\repos\rougemeilland\palmtree.math.core.implements\palmtree.math.core.implements\autogenerated_inline_func.h

; 3543 :     c = _ADD_UNIT_DIV(c, xp[4], yp[4], &zp[4]);

	mov	eax, DWORD PTR [rdx+16]
; File z:\sources\lunor\repos\rougemeilland\palmtree.math.core.implements\palmtree.math.core.implements\pmc_internal.h

; 502  :     return (_addcarry_u32(carry, u, v, w));

	adc	eax, DWORD PTR [r8+16]
	mov	DWORD PTR [r9+16], eax
; File z:\sources\lunor\repos\rougemeilland\palmtree.math.core.implements\palmtree.math.core.implements\autogenerated_inline_func.h

; 3544 :     c = _ADD_UNIT_DIV(c, xp[5], yp[5], &zp[5]);

	mov	eax, DWORD PTR [rdx+20]
; File z:\sources\lunor\repos\rougemeilland\palmtree.math.core.implements\palmtree.math.core.implements\pmc_internal.h

; 502  :     return (_addcarry_u32(carry, u, v, w));

	adc	eax, DWORD PTR [r8+20]
	mov	DWORD PTR [r9+20], eax
; File z:\sources\lunor\repos\rougemeilland\palmtree.math.core.implements\palmtree.math.core.implements\autogenerated_inline_func.h

; 3545 :     c = _ADD_UNIT_DIV(c, xp[6], yp[6], &zp[6]);

	mov	eax, DWORD PTR [rdx+24]
; File z:\sources\lunor\repos\rougemeilland\palmtree.math.core.implements\palmtree.math.core.implements\pmc_internal.h

; 502  :     return (_addcarry_u32(carry, u, v, w));

	adc	eax, DWORD PTR [r8+24]
	mov	DWORD PTR [r9+24], eax
; File z:\sources\lunor\repos\rougemeilland\palmtree.math.core.implements\palmtree.math.core.implements\autogenerated_inline_func.h

; 3546 :     c = _ADD_UNIT_DIV(c, xp[7], yp[7], &zp[7]);

	mov	ecx, DWORD PTR [rdx+28]
; File z:\sources\lunor\repos\rougemeilland\palmtree.math.core.implements\palmtree.math.core.implements\pmc_internal.h

; 502  :     return (_addcarry_u32(carry, u, v, w));

	adc	ecx, DWORD PTR [r8+28]
	mov	DWORD PTR [r9+28], ecx
	setb	al
; File z:\sources\lunor\repos\rougemeilland\palmtree.math.core.implements\palmtree.math.core.implements\autogenerated_inline_func.h

; 3619 : }

	ret	0
_ADD_8WORDS_ADC_DIV ENDP
_TEXT	ENDS
; Function compile flags: /Ogtpy
; File z:\sources\lunor\repos\rougemeilland\palmtree.math.core.implements\palmtree.math.core.implements\autogenerated_inline_func.h
; File z:\sources\lunor\repos\rougemeilland\palmtree.math.core.implements\palmtree.math.core.implements\pmc_internal.h
; File z:\sources\lunor\repos\rougemeilland\palmtree.math.core.implements\palmtree.math.core.implements\autogenerated_inline_func.h
; File z:\sources\lunor\repos\rougemeilland\palmtree.math.core.implements\palmtree.math.core.implements\pmc_internal.h
; File z:\sources\lunor\repos\rougemeilland\palmtree.math.core.implements\palmtree.math.core.implements\autogenerated_inline_func.h
; File z:\sources\lunor\repos\rougemeilland\palmtree.math.core.implements\palmtree.math.core.implements\pmc_internal.h
; File z:\sources\lunor\repos\rougemeilland\palmtree.math.core.implements\palmtree.math.core.implements\autogenerated_inline_func.h
; File z:\sources\lunor\repos\rougemeilland\palmtree.math.core.implements\palmtree.math.core.implements\pmc_internal.h
; File z:\sources\lunor\repos\rougemeilland\palmtree.math.core.implements\palmtree.math.core.implements\autogenerated_inline_func.h
; File z:\sources\lunor\repos\rougemeilland\palmtree.math.core.implements\palmtree.math.core.implements\pmc_internal.h
; File z:\sources\lunor\repos\rougemeilland\palmtree.math.core.implements\palmtree.math.core.implements\autogenerated_inline_func.h
; File z:\sources\lunor\repos\rougemeilland\palmtree.math.core.implements\palmtree.math.core.implements\pmc_internal.h
; File z:\sources\lunor\repos\rougemeilland\palmtree.math.core.implements\palmtree.math.core.implements\autogenerated_inline_func.h
; File z:\sources\lunor\repos\rougemeilland\palmtree.math.core.implements\palmtree.math.core.implements\pmc_internal.h
; File z:\sources\lunor\repos\rougemeilland\palmtree.math.core.implements\palmtree.math.core.implements\autogenerated_inline_func.h
; File z:\sources\lunor\repos\rougemeilland\palmtree.math.core.implements\palmtree.math.core.implements\pmc_internal.h
; File z:\sources\lunor\repos\rougemeilland\palmtree.math.core.implements\palmtree.math.core.implements\autogenerated_inline_func.h
; File z:\sources\lunor\repos\rougemeilland\palmtree.math.core.implements\palmtree.math.core.implements\pmc_internal.h
; File z:\sources\lunor\repos\rougemeilland\palmtree.math.core.implements\palmtree.math.core.implements\autogenerated_inline_func.h
; File z:\sources\lunor\repos\rougemeilland\palmtree.math.core.implements\palmtree.math.core.implements\pmc_internal.h
; File z:\sources\lunor\repos\rougemeilland\palmtree.math.core.implements\palmtree.math.core.implements\autogenerated_inline_func.h
; File z:\sources\lunor\repos\rougemeilland\palmtree.math.core.implements\palmtree.math.core.implements\pmc_internal.h
; File z:\sources\lunor\repos\rougemeilland\palmtree.math.core.implements\palmtree.math.core.implements\autogenerated_inline_func.h
; File z:\sources\lunor\repos\rougemeilland\palmtree.math.core.implements\palmtree.math.core.implements\pmc_internal.h
; File z:\sources\lunor\repos\rougemeilland\palmtree.math.core.implements\palmtree.math.core.implements\autogenerated_inline_func.h
; File z:\sources\lunor\repos\rougemeilland\palmtree.math.core.implements\palmtree.math.core.implements\pmc_internal.h
; File z:\sources\lunor\repos\rougemeilland\palmtree.math.core.implements\palmtree.math.core.implements\autogenerated_inline_func.h
; File z:\sources\lunor\repos\rougemeilland\palmtree.math.core.implements\palmtree.math.core.implements\pmc_internal.h
; File z:\sources\lunor\repos\rougemeilland\palmtree.math.core.implements\palmtree.math.core.implements\autogenerated_inline_func.h
; File z:\sources\lunor\repos\rougemeilland\palmtree.math.core.implements\palmtree.math.core.implements\pmc_internal.h
; File z:\sources\lunor\repos\rougemeilland\palmtree.math.core.implements\palmtree.math.core.implements\autogenerated_inline_func.h
; File z:\sources\lunor\repos\rougemeilland\palmtree.math.core.implements\palmtree.math.core.implements\pmc_internal.h
; File z:\sources\lunor\repos\rougemeilland\palmtree.math.core.implements\palmtree.math.core.implements\autogenerated_inline_func.h
;	COMDAT _ADD_16WORDS_ADCX_DIV
_TEXT	SEGMENT
c$ = 8
xp$ = 16
yp$ = 24
zp$ = 32
_ADD_16WORDS_ADCX_DIV PROC				; COMDAT

; 2775 : #ifdef _MSC_VER
; 2776 :     c = _ADDX_UNIT_DIV(c, xp[0], yp[0], &zp[0]);

	mov	eax, DWORD PTR [rdx]
; File z:\sources\lunor\repos\rougemeilland\palmtree.math.core.implements\palmtree.math.core.implements\pmc_internal.h

; 530  :     return (_addcarryx_u32(carry, u, v, w));

	add	cl, -1
	adcx	eax, DWORD PTR [r8]
	mov	DWORD PTR [r9], eax
; File z:\sources\lunor\repos\rougemeilland\palmtree.math.core.implements\palmtree.math.core.implements\autogenerated_inline_func.h

; 2777 :     c = _ADDX_UNIT_DIV(c, xp[1], yp[1], &zp[1]);

	mov	eax, DWORD PTR [rdx+4]
; File z:\sources\lunor\repos\rougemeilland\palmtree.math.core.implements\palmtree.math.core.implements\pmc_internal.h

; 530  :     return (_addcarryx_u32(carry, u, v, w));

	adcx	eax, DWORD PTR [r8+4]
	mov	DWORD PTR [r9+4], eax
; File z:\sources\lunor\repos\rougemeilland\palmtree.math.core.implements\palmtree.math.core.implements\autogenerated_inline_func.h

; 2778 :     c = _ADDX_UNIT_DIV(c, xp[2], yp[2], &zp[2]);

	mov	eax, DWORD PTR [rdx+8]
; File z:\sources\lunor\repos\rougemeilland\palmtree.math.core.implements\palmtree.math.core.implements\pmc_internal.h

; 530  :     return (_addcarryx_u32(carry, u, v, w));

	adcx	eax, DWORD PTR [r8+8]
	mov	DWORD PTR [r9+8], eax
; File z:\sources\lunor\repos\rougemeilland\palmtree.math.core.implements\palmtree.math.core.implements\autogenerated_inline_func.h

; 2779 :     c = _ADDX_UNIT_DIV(c, xp[3], yp[3], &zp[3]);

	mov	eax, DWORD PTR [rdx+12]
; File z:\sources\lunor\repos\rougemeilland\palmtree.math.core.implements\palmtree.math.core.implements\pmc_internal.h

; 530  :     return (_addcarryx_u32(carry, u, v, w));

	adcx	eax, DWORD PTR [r8+12]
	mov	DWORD PTR [r9+12], eax
; File z:\sources\lunor\repos\rougemeilland\palmtree.math.core.implements\palmtree.math.core.implements\autogenerated_inline_func.h

; 2780 :     c = _ADDX_UNIT_DIV(c, xp[4], yp[4], &zp[4]);

	mov	eax, DWORD PTR [rdx+16]
; File z:\sources\lunor\repos\rougemeilland\palmtree.math.core.implements\palmtree.math.core.implements\pmc_internal.h

; 530  :     return (_addcarryx_u32(carry, u, v, w));

	adcx	eax, DWORD PTR [r8+16]
	mov	DWORD PTR [r9+16], eax
; File z:\sources\lunor\repos\rougemeilland\palmtree.math.core.implements\palmtree.math.core.implements\autogenerated_inline_func.h

; 2781 :     c = _ADDX_UNIT_DIV(c, xp[5], yp[5], &zp[5]);

	mov	eax, DWORD PTR [rdx+20]
; File z:\sources\lunor\repos\rougemeilland\palmtree.math.core.implements\palmtree.math.core.implements\pmc_internal.h

; 530  :     return (_addcarryx_u32(carry, u, v, w));

	adcx	eax, DWORD PTR [r8+20]
	mov	DWORD PTR [r9+20], eax
; File z:\sources\lunor\repos\rougemeilland\palmtree.math.core.implements\palmtree.math.core.implements\autogenerated_inline_func.h

; 2782 :     c = _ADDX_UNIT_DIV(c, xp[6], yp[6], &zp[6]);

	mov	eax, DWORD PTR [rdx+24]
; File z:\sources\lunor\repos\rougemeilland\palmtree.math.core.implements\palmtree.math.core.implements\pmc_internal.h

; 530  :     return (_addcarryx_u32(carry, u, v, w));

	adcx	eax, DWORD PTR [r8+24]
	mov	DWORD PTR [r9+24], eax
; File z:\sources\lunor\repos\rougemeilland\palmtree.math.core.implements\palmtree.math.core.implements\autogenerated_inline_func.h

; 2783 :     c = _ADDX_UNIT_DIV(c, xp[7], yp[7], &zp[7]);

	mov	eax, DWORD PTR [rdx+28]
; File z:\sources\lunor\repos\rougemeilland\palmtree.math.core.implements\palmtree.math.core.implements\pmc_internal.h

; 530  :     return (_addcarryx_u32(carry, u, v, w));

	adcx	eax, DWORD PTR [r8+28]
	mov	DWORD PTR [r9+28], eax
; File z:\sources\lunor\repos\rougemeilland\palmtree.math.core.implements\palmtree.math.core.implements\autogenerated_inline_func.h

; 2784 :     c = _ADDX_UNIT_DIV(c, xp[8], yp[8], &zp[8]);

	mov	eax, DWORD PTR [rdx+32]
; File z:\sources\lunor\repos\rougemeilland\palmtree.math.core.implements\palmtree.math.core.implements\pmc_internal.h

; 530  :     return (_addcarryx_u32(carry, u, v, w));

	adcx	eax, DWORD PTR [r8+32]
	mov	DWORD PTR [r9+32], eax
; File z:\sources\lunor\repos\rougemeilland\palmtree.math.core.implements\palmtree.math.core.implements\autogenerated_inline_func.h

; 2785 :     c = _ADDX_UNIT_DIV(c, xp[9], yp[9], &zp[9]);

	mov	eax, DWORD PTR [rdx+36]
; File z:\sources\lunor\repos\rougemeilland\palmtree.math.core.implements\palmtree.math.core.implements\pmc_internal.h

; 530  :     return (_addcarryx_u32(carry, u, v, w));

	adcx	eax, DWORD PTR [r8+36]
	mov	DWORD PTR [r9+36], eax
; File z:\sources\lunor\repos\rougemeilland\palmtree.math.core.implements\palmtree.math.core.implements\autogenerated_inline_func.h

; 2786 :     c = _ADDX_UNIT_DIV(c, xp[10], yp[10], &zp[10]);

	mov	eax, DWORD PTR [rdx+40]
; File z:\sources\lunor\repos\rougemeilland\palmtree.math.core.implements\palmtree.math.core.implements\pmc_internal.h

; 530  :     return (_addcarryx_u32(carry, u, v, w));

	adcx	eax, DWORD PTR [r8+40]
	mov	DWORD PTR [r9+40], eax
; File z:\sources\lunor\repos\rougemeilland\palmtree.math.core.implements\palmtree.math.core.implements\autogenerated_inline_func.h

; 2787 :     c = _ADDX_UNIT_DIV(c, xp[11], yp[11], &zp[11]);

	mov	eax, DWORD PTR [rdx+44]
; File z:\sources\lunor\repos\rougemeilland\palmtree.math.core.implements\palmtree.math.core.implements\pmc_internal.h

; 530  :     return (_addcarryx_u32(carry, u, v, w));

	adcx	eax, DWORD PTR [r8+44]
	mov	DWORD PTR [r9+44], eax
; File z:\sources\lunor\repos\rougemeilland\palmtree.math.core.implements\palmtree.math.core.implements\autogenerated_inline_func.h

; 2788 :     c = _ADDX_UNIT_DIV(c, xp[12], yp[12], &zp[12]);

	mov	eax, DWORD PTR [rdx+48]
; File z:\sources\lunor\repos\rougemeilland\palmtree.math.core.implements\palmtree.math.core.implements\pmc_internal.h

; 530  :     return (_addcarryx_u32(carry, u, v, w));

	adcx	eax, DWORD PTR [r8+48]
	mov	DWORD PTR [r9+48], eax
; File z:\sources\lunor\repos\rougemeilland\palmtree.math.core.implements\palmtree.math.core.implements\autogenerated_inline_func.h

; 2789 :     c = _ADDX_UNIT_DIV(c, xp[13], yp[13], &zp[13]);

	mov	eax, DWORD PTR [rdx+52]
; File z:\sources\lunor\repos\rougemeilland\palmtree.math.core.implements\palmtree.math.core.implements\pmc_internal.h

; 530  :     return (_addcarryx_u32(carry, u, v, w));

	adcx	eax, DWORD PTR [r8+52]
	mov	DWORD PTR [r9+52], eax
; File z:\sources\lunor\repos\rougemeilland\palmtree.math.core.implements\palmtree.math.core.implements\autogenerated_inline_func.h

; 2790 :     c = _ADDX_UNIT_DIV(c, xp[14], yp[14], &zp[14]);

	mov	eax, DWORD PTR [rdx+56]
; File z:\sources\lunor\repos\rougemeilland\palmtree.math.core.implements\palmtree.math.core.implements\pmc_internal.h

; 530  :     return (_addcarryx_u32(carry, u, v, w));

	adcx	eax, DWORD PTR [r8+56]
	mov	DWORD PTR [r9+56], eax
; File z:\sources\lunor\repos\rougemeilland\palmtree.math.core.implements\palmtree.math.core.implements\autogenerated_inline_func.h

; 2791 :     c = _ADDX_UNIT_DIV(c, xp[15], yp[15], &zp[15]);

	mov	ecx, DWORD PTR [rdx+60]
; File z:\sources\lunor\repos\rougemeilland\palmtree.math.core.implements\palmtree.math.core.implements\pmc_internal.h

; 530  :     return (_addcarryx_u32(carry, u, v, w));

	adcx	ecx, DWORD PTR [r8+60]
	mov	DWORD PTR [r9+60], ecx
	setb	al
; File z:\sources\lunor\repos\rougemeilland\palmtree.math.core.implements\palmtree.math.core.implements\autogenerated_inline_func.h

; 2912 : }

	ret	0
_ADD_16WORDS_ADCX_DIV ENDP
_TEXT	ENDS
; Function compile flags: /Ogtpy
; File z:\sources\lunor\repos\rougemeilland\palmtree.math.core.implements\palmtree.math.core.implements\autogenerated_inline_func.h
; File z:\sources\lunor\repos\rougemeilland\palmtree.math.core.implements\palmtree.math.core.implements\pmc_internal.h
; File z:\sources\lunor\repos\rougemeilland\palmtree.math.core.implements\palmtree.math.core.implements\autogenerated_inline_func.h
; File z:\sources\lunor\repos\rougemeilland\palmtree.math.core.implements\palmtree.math.core.implements\pmc_internal.h
; File z:\sources\lunor\repos\rougemeilland\palmtree.math.core.implements\palmtree.math.core.implements\autogenerated_inline_func.h
; File z:\sources\lunor\repos\rougemeilland\palmtree.math.core.implements\palmtree.math.core.implements\pmc_internal.h
; File z:\sources\lunor\repos\rougemeilland\palmtree.math.core.implements\palmtree.math.core.implements\autogenerated_inline_func.h
; File z:\sources\lunor\repos\rougemeilland\palmtree.math.core.implements\palmtree.math.core.implements\pmc_internal.h
; File z:\sources\lunor\repos\rougemeilland\palmtree.math.core.implements\palmtree.math.core.implements\autogenerated_inline_func.h
; File z:\sources\lunor\repos\rougemeilland\palmtree.math.core.implements\palmtree.math.core.implements\pmc_internal.h
; File z:\sources\lunor\repos\rougemeilland\palmtree.math.core.implements\palmtree.math.core.implements\autogenerated_inline_func.h
; File z:\sources\lunor\repos\rougemeilland\palmtree.math.core.implements\palmtree.math.core.implements\pmc_internal.h
; File z:\sources\lunor\repos\rougemeilland\palmtree.math.core.implements\palmtree.math.core.implements\autogenerated_inline_func.h
; File z:\sources\lunor\repos\rougemeilland\palmtree.math.core.implements\palmtree.math.core.implements\pmc_internal.h
; File z:\sources\lunor\repos\rougemeilland\palmtree.math.core.implements\palmtree.math.core.implements\autogenerated_inline_func.h
; File z:\sources\lunor\repos\rougemeilland\palmtree.math.core.implements\palmtree.math.core.implements\pmc_internal.h
; File z:\sources\lunor\repos\rougemeilland\palmtree.math.core.implements\palmtree.math.core.implements\autogenerated_inline_func.h
; File z:\sources\lunor\repos\rougemeilland\palmtree.math.core.implements\palmtree.math.core.implements\pmc_internal.h
; File z:\sources\lunor\repos\rougemeilland\palmtree.math.core.implements\palmtree.math.core.implements\autogenerated_inline_func.h
; File z:\sources\lunor\repos\rougemeilland\palmtree.math.core.implements\palmtree.math.core.implements\pmc_internal.h
; File z:\sources\lunor\repos\rougemeilland\palmtree.math.core.implements\palmtree.math.core.implements\autogenerated_inline_func.h
; File z:\sources\lunor\repos\rougemeilland\palmtree.math.core.implements\palmtree.math.core.implements\pmc_internal.h
; File z:\sources\lunor\repos\rougemeilland\palmtree.math.core.implements\palmtree.math.core.implements\autogenerated_inline_func.h
; File z:\sources\lunor\repos\rougemeilland\palmtree.math.core.implements\palmtree.math.core.implements\pmc_internal.h
; File z:\sources\lunor\repos\rougemeilland\palmtree.math.core.implements\palmtree.math.core.implements\autogenerated_inline_func.h
; File z:\sources\lunor\repos\rougemeilland\palmtree.math.core.implements\palmtree.math.core.implements\pmc_internal.h
; File z:\sources\lunor\repos\rougemeilland\palmtree.math.core.implements\palmtree.math.core.implements\autogenerated_inline_func.h
; File z:\sources\lunor\repos\rougemeilland\palmtree.math.core.implements\palmtree.math.core.implements\pmc_internal.h
; File z:\sources\lunor\repos\rougemeilland\palmtree.math.core.implements\palmtree.math.core.implements\autogenerated_inline_func.h
; File z:\sources\lunor\repos\rougemeilland\palmtree.math.core.implements\palmtree.math.core.implements\pmc_internal.h
; File z:\sources\lunor\repos\rougemeilland\palmtree.math.core.implements\palmtree.math.core.implements\autogenerated_inline_func.h
; File z:\sources\lunor\repos\rougemeilland\palmtree.math.core.implements\palmtree.math.core.implements\pmc_internal.h
; File z:\sources\lunor\repos\rougemeilland\palmtree.math.core.implements\palmtree.math.core.implements\autogenerated_inline_func.h
;	COMDAT _ADD_16WORDS_ADC_DIV
_TEXT	SEGMENT
c$ = 8
xp$ = 16
yp$ = 24
zp$ = 32
_ADD_16WORDS_ADC_DIV PROC				; COMDAT

; 2634 : #ifdef _MSC_VER
; 2635 :     c = _ADD_UNIT_DIV(c, xp[0], yp[0], &zp[0]);

	mov	eax, DWORD PTR [rdx]
; File z:\sources\lunor\repos\rougemeilland\palmtree.math.core.implements\palmtree.math.core.implements\pmc_internal.h

; 502  :     return (_addcarry_u32(carry, u, v, w));

	add	cl, -1
	adc	eax, DWORD PTR [r8]
	mov	DWORD PTR [r9], eax
; File z:\sources\lunor\repos\rougemeilland\palmtree.math.core.implements\palmtree.math.core.implements\autogenerated_inline_func.h

; 2636 :     c = _ADD_UNIT_DIV(c, xp[1], yp[1], &zp[1]);

	mov	eax, DWORD PTR [rdx+4]
; File z:\sources\lunor\repos\rougemeilland\palmtree.math.core.implements\palmtree.math.core.implements\pmc_internal.h

; 502  :     return (_addcarry_u32(carry, u, v, w));

	adc	eax, DWORD PTR [r8+4]
	mov	DWORD PTR [r9+4], eax
; File z:\sources\lunor\repos\rougemeilland\palmtree.math.core.implements\palmtree.math.core.implements\autogenerated_inline_func.h

; 2637 :     c = _ADD_UNIT_DIV(c, xp[2], yp[2], &zp[2]);

	mov	eax, DWORD PTR [rdx+8]
; File z:\sources\lunor\repos\rougemeilland\palmtree.math.core.implements\palmtree.math.core.implements\pmc_internal.h

; 502  :     return (_addcarry_u32(carry, u, v, w));

	adc	eax, DWORD PTR [r8+8]
	mov	DWORD PTR [r9+8], eax
; File z:\sources\lunor\repos\rougemeilland\palmtree.math.core.implements\palmtree.math.core.implements\autogenerated_inline_func.h

; 2638 :     c = _ADD_UNIT_DIV(c, xp[3], yp[3], &zp[3]);

	mov	eax, DWORD PTR [rdx+12]
; File z:\sources\lunor\repos\rougemeilland\palmtree.math.core.implements\palmtree.math.core.implements\pmc_internal.h

; 502  :     return (_addcarry_u32(carry, u, v, w));

	adc	eax, DWORD PTR [r8+12]
	mov	DWORD PTR [r9+12], eax
; File z:\sources\lunor\repos\rougemeilland\palmtree.math.core.implements\palmtree.math.core.implements\autogenerated_inline_func.h

; 2639 :     c = _ADD_UNIT_DIV(c, xp[4], yp[4], &zp[4]);

	mov	eax, DWORD PTR [rdx+16]
; File z:\sources\lunor\repos\rougemeilland\palmtree.math.core.implements\palmtree.math.core.implements\pmc_internal.h

; 502  :     return (_addcarry_u32(carry, u, v, w));

	adc	eax, DWORD PTR [r8+16]
	mov	DWORD PTR [r9+16], eax
; File z:\sources\lunor\repos\rougemeilland\palmtree.math.core.implements\palmtree.math.core.implements\autogenerated_inline_func.h

; 2640 :     c = _ADD_UNIT_DIV(c, xp[5], yp[5], &zp[5]);

	mov	eax, DWORD PTR [rdx+20]
; File z:\sources\lunor\repos\rougemeilland\palmtree.math.core.implements\palmtree.math.core.implements\pmc_internal.h

; 502  :     return (_addcarry_u32(carry, u, v, w));

	adc	eax, DWORD PTR [r8+20]
	mov	DWORD PTR [r9+20], eax
; File z:\sources\lunor\repos\rougemeilland\palmtree.math.core.implements\palmtree.math.core.implements\autogenerated_inline_func.h

; 2641 :     c = _ADD_UNIT_DIV(c, xp[6], yp[6], &zp[6]);

	mov	eax, DWORD PTR [rdx+24]
; File z:\sources\lunor\repos\rougemeilland\palmtree.math.core.implements\palmtree.math.core.implements\pmc_internal.h

; 502  :     return (_addcarry_u32(carry, u, v, w));

	adc	eax, DWORD PTR [r8+24]
	mov	DWORD PTR [r9+24], eax
; File z:\sources\lunor\repos\rougemeilland\palmtree.math.core.implements\palmtree.math.core.implements\autogenerated_inline_func.h

; 2642 :     c = _ADD_UNIT_DIV(c, xp[7], yp[7], &zp[7]);

	mov	eax, DWORD PTR [rdx+28]
; File z:\sources\lunor\repos\rougemeilland\palmtree.math.core.implements\palmtree.math.core.implements\pmc_internal.h

; 502  :     return (_addcarry_u32(carry, u, v, w));

	adc	eax, DWORD PTR [r8+28]
	mov	DWORD PTR [r9+28], eax
; File z:\sources\lunor\repos\rougemeilland\palmtree.math.core.implements\palmtree.math.core.implements\autogenerated_inline_func.h

; 2643 :     c = _ADD_UNIT_DIV(c, xp[8], yp[8], &zp[8]);

	mov	eax, DWORD PTR [rdx+32]
; File z:\sources\lunor\repos\rougemeilland\palmtree.math.core.implements\palmtree.math.core.implements\pmc_internal.h

; 502  :     return (_addcarry_u32(carry, u, v, w));

	adc	eax, DWORD PTR [r8+32]
	mov	DWORD PTR [r9+32], eax
; File z:\sources\lunor\repos\rougemeilland\palmtree.math.core.implements\palmtree.math.core.implements\autogenerated_inline_func.h

; 2644 :     c = _ADD_UNIT_DIV(c, xp[9], yp[9], &zp[9]);

	mov	eax, DWORD PTR [rdx+36]
; File z:\sources\lunor\repos\rougemeilland\palmtree.math.core.implements\palmtree.math.core.implements\pmc_internal.h

; 502  :     return (_addcarry_u32(carry, u, v, w));

	adc	eax, DWORD PTR [r8+36]
	mov	DWORD PTR [r9+36], eax
; File z:\sources\lunor\repos\rougemeilland\palmtree.math.core.implements\palmtree.math.core.implements\autogenerated_inline_func.h

; 2645 :     c = _ADD_UNIT_DIV(c, xp[10], yp[10], &zp[10]);

	mov	eax, DWORD PTR [rdx+40]
; File z:\sources\lunor\repos\rougemeilland\palmtree.math.core.implements\palmtree.math.core.implements\pmc_internal.h

; 502  :     return (_addcarry_u32(carry, u, v, w));

	adc	eax, DWORD PTR [r8+40]
	mov	DWORD PTR [r9+40], eax
; File z:\sources\lunor\repos\rougemeilland\palmtree.math.core.implements\palmtree.math.core.implements\autogenerated_inline_func.h

; 2646 :     c = _ADD_UNIT_DIV(c, xp[11], yp[11], &zp[11]);

	mov	eax, DWORD PTR [rdx+44]
; File z:\sources\lunor\repos\rougemeilland\palmtree.math.core.implements\palmtree.math.core.implements\pmc_internal.h

; 502  :     return (_addcarry_u32(carry, u, v, w));

	adc	eax, DWORD PTR [r8+44]
	mov	DWORD PTR [r9+44], eax
; File z:\sources\lunor\repos\rougemeilland\palmtree.math.core.implements\palmtree.math.core.implements\autogenerated_inline_func.h

; 2647 :     c = _ADD_UNIT_DIV(c, xp[12], yp[12], &zp[12]);

	mov	eax, DWORD PTR [rdx+48]
; File z:\sources\lunor\repos\rougemeilland\palmtree.math.core.implements\palmtree.math.core.implements\pmc_internal.h

; 502  :     return (_addcarry_u32(carry, u, v, w));

	adc	eax, DWORD PTR [r8+48]
	mov	DWORD PTR [r9+48], eax
; File z:\sources\lunor\repos\rougemeilland\palmtree.math.core.implements\palmtree.math.core.implements\autogenerated_inline_func.h

; 2648 :     c = _ADD_UNIT_DIV(c, xp[13], yp[13], &zp[13]);

	mov	eax, DWORD PTR [rdx+52]
; File z:\sources\lunor\repos\rougemeilland\palmtree.math.core.implements\palmtree.math.core.implements\pmc_internal.h

; 502  :     return (_addcarry_u32(carry, u, v, w));

	adc	eax, DWORD PTR [r8+52]
	mov	DWORD PTR [r9+52], eax
; File z:\sources\lunor\repos\rougemeilland\palmtree.math.core.implements\palmtree.math.core.implements\autogenerated_inline_func.h

; 2649 :     c = _ADD_UNIT_DIV(c, xp[14], yp[14], &zp[14]);

	mov	eax, DWORD PTR [rdx+56]
; File z:\sources\lunor\repos\rougemeilland\palmtree.math.core.implements\palmtree.math.core.implements\pmc_internal.h

; 502  :     return (_addcarry_u32(carry, u, v, w));

	adc	eax, DWORD PTR [r8+56]
	mov	DWORD PTR [r9+56], eax
; File z:\sources\lunor\repos\rougemeilland\palmtree.math.core.implements\palmtree.math.core.implements\autogenerated_inline_func.h

; 2650 :     c = _ADD_UNIT_DIV(c, xp[15], yp[15], &zp[15]);

	mov	ecx, DWORD PTR [rdx+60]
; File z:\sources\lunor\repos\rougemeilland\palmtree.math.core.implements\palmtree.math.core.implements\pmc_internal.h

; 502  :     return (_addcarry_u32(carry, u, v, w));

	adc	ecx, DWORD PTR [r8+60]
	mov	DWORD PTR [r9+60], ecx
	setb	al
; File z:\sources\lunor\repos\rougemeilland\palmtree.math.core.implements\palmtree.math.core.implements\autogenerated_inline_func.h

; 2771 : }

	ret	0
_ADD_16WORDS_ADC_DIV ENDP
_TEXT	ENDS
; Function compile flags: /Ogtpy
; File z:\sources\lunor\repos\rougemeilland\palmtree.math.core.implements\palmtree.math.core.implements\autogenerated_inline_func.h
; File z:\sources\lunor\repos\rougemeilland\palmtree.math.core.implements\palmtree.math.core.implements\pmc_internal.h
; File z:\sources\lunor\repos\rougemeilland\palmtree.math.core.implements\palmtree.math.core.implements\autogenerated_inline_func.h
; File z:\sources\lunor\repos\rougemeilland\palmtree.math.core.implements\palmtree.math.core.implements\pmc_internal.h
; File z:\sources\lunor\repos\rougemeilland\palmtree.math.core.implements\palmtree.math.core.implements\autogenerated_inline_func.h
; File z:\sources\lunor\repos\rougemeilland\palmtree.math.core.implements\palmtree.math.core.implements\pmc_internal.h
; File z:\sources\lunor\repos\rougemeilland\palmtree.math.core.implements\palmtree.math.core.implements\autogenerated_inline_func.h
; File z:\sources\lunor\repos\rougemeilland\palmtree.math.core.implements\palmtree.math.core.implements\pmc_internal.h
; File z:\sources\lunor\repos\rougemeilland\palmtree.math.core.implements\palmtree.math.core.implements\autogenerated_inline_func.h
; File z:\sources\lunor\repos\rougemeilland\palmtree.math.core.implements\palmtree.math.core.implements\pmc_internal.h
; File z:\sources\lunor\repos\rougemeilland\palmtree.math.core.implements\palmtree.math.core.implements\autogenerated_inline_func.h
; File z:\sources\lunor\repos\rougemeilland\palmtree.math.core.implements\palmtree.math.core.implements\pmc_internal.h
; File z:\sources\lunor\repos\rougemeilland\palmtree.math.core.implements\palmtree.math.core.implements\autogenerated_inline_func.h
; File z:\sources\lunor\repos\rougemeilland\palmtree.math.core.implements\palmtree.math.core.implements\pmc_internal.h
; File z:\sources\lunor\repos\rougemeilland\palmtree.math.core.implements\palmtree.math.core.implements\autogenerated_inline_func.h
; File z:\sources\lunor\repos\rougemeilland\palmtree.math.core.implements\palmtree.math.core.implements\pmc_internal.h
; File z:\sources\lunor\repos\rougemeilland\palmtree.math.core.implements\palmtree.math.core.implements\autogenerated_inline_func.h
; File z:\sources\lunor\repos\rougemeilland\palmtree.math.core.implements\palmtree.math.core.implements\pmc_internal.h
; File z:\sources\lunor\repos\rougemeilland\palmtree.math.core.implements\palmtree.math.core.implements\autogenerated_inline_func.h
; File z:\sources\lunor\repos\rougemeilland\palmtree.math.core.implements\palmtree.math.core.implements\pmc_internal.h
; File z:\sources\lunor\repos\rougemeilland\palmtree.math.core.implements\palmtree.math.core.implements\autogenerated_inline_func.h
; File z:\sources\lunor\repos\rougemeilland\palmtree.math.core.implements\palmtree.math.core.implements\pmc_internal.h
; File z:\sources\lunor\repos\rougemeilland\palmtree.math.core.implements\palmtree.math.core.implements\autogenerated_inline_func.h
; File z:\sources\lunor\repos\rougemeilland\palmtree.math.core.implements\palmtree.math.core.implements\pmc_internal.h
; File z:\sources\lunor\repos\rougemeilland\palmtree.math.core.implements\palmtree.math.core.implements\autogenerated_inline_func.h
; File z:\sources\lunor\repos\rougemeilland\palmtree.math.core.implements\palmtree.math.core.implements\pmc_internal.h
; File z:\sources\lunor\repos\rougemeilland\palmtree.math.core.implements\palmtree.math.core.implements\autogenerated_inline_func.h
; File z:\sources\lunor\repos\rougemeilland\palmtree.math.core.implements\palmtree.math.core.implements\pmc_internal.h
; File z:\sources\lunor\repos\rougemeilland\palmtree.math.core.implements\palmtree.math.core.implements\autogenerated_inline_func.h
; File z:\sources\lunor\repos\rougemeilland\palmtree.math.core.implements\palmtree.math.core.implements\pmc_internal.h
; File z:\sources\lunor\repos\rougemeilland\palmtree.math.core.implements\palmtree.math.core.implements\autogenerated_inline_func.h
; File z:\sources\lunor\repos\rougemeilland\palmtree.math.core.implements\palmtree.math.core.implements\pmc_internal.h
; File z:\sources\lunor\repos\rougemeilland\palmtree.math.core.implements\palmtree.math.core.implements\autogenerated_inline_func.h
; File z:\sources\lunor\repos\rougemeilland\palmtree.math.core.implements\palmtree.math.core.implements\pmc_internal.h
; File z:\sources\lunor\repos\rougemeilland\palmtree.math.core.implements\palmtree.math.core.implements\autogenerated_inline_func.h
; File z:\sources\lunor\repos\rougemeilland\palmtree.math.core.implements\palmtree.math.core.implements\pmc_internal.h
; File z:\sources\lunor\repos\rougemeilland\palmtree.math.core.implements\palmtree.math.core.implements\autogenerated_inline_func.h
; File z:\sources\lunor\repos\rougemeilland\palmtree.math.core.implements\palmtree.math.core.implements\pmc_internal.h
; File z:\sources\lunor\repos\rougemeilland\palmtree.math.core.implements\palmtree.math.core.implements\autogenerated_inline_func.h
; File z:\sources\lunor\repos\rougemeilland\palmtree.math.core.implements\palmtree.math.core.implements\pmc_internal.h
; File z:\sources\lunor\repos\rougemeilland\palmtree.math.core.implements\palmtree.math.core.implements\autogenerated_inline_func.h
; File z:\sources\lunor\repos\rougemeilland\palmtree.math.core.implements\palmtree.math.core.implements\pmc_internal.h
; File z:\sources\lunor\repos\rougemeilland\palmtree.math.core.implements\palmtree.math.core.implements\autogenerated_inline_func.h
; File z:\sources\lunor\repos\rougemeilland\palmtree.math.core.implements\palmtree.math.core.implements\pmc_internal.h
; File z:\sources\lunor\repos\rougemeilland\palmtree.math.core.implements\palmtree.math.core.implements\autogenerated_inline_func.h
; File z:\sources\lunor\repos\rougemeilland\palmtree.math.core.implements\palmtree.math.core.implements\pmc_internal.h
; File z:\sources\lunor\repos\rougemeilland\palmtree.math.core.implements\palmtree.math.core.implements\autogenerated_inline_func.h
; File z:\sources\lunor\repos\rougemeilland\palmtree.math.core.implements\palmtree.math.core.implements\pmc_internal.h
; File z:\sources\lunor\repos\rougemeilland\palmtree.math.core.implements\palmtree.math.core.implements\autogenerated_inline_func.h
; File z:\sources\lunor\repos\rougemeilland\palmtree.math.core.implements\palmtree.math.core.implements\pmc_internal.h
; File z:\sources\lunor\repos\rougemeilland\palmtree.math.core.implements\palmtree.math.core.implements\autogenerated_inline_func.h
; File z:\sources\lunor\repos\rougemeilland\palmtree.math.core.implements\palmtree.math.core.implements\pmc_internal.h
; File z:\sources\lunor\repos\rougemeilland\palmtree.math.core.implements\palmtree.math.core.implements\autogenerated_inline_func.h
; File z:\sources\lunor\repos\rougemeilland\palmtree.math.core.implements\palmtree.math.core.implements\pmc_internal.h
; File z:\sources\lunor\repos\rougemeilland\palmtree.math.core.implements\palmtree.math.core.implements\autogenerated_inline_func.h
; File z:\sources\lunor\repos\rougemeilland\palmtree.math.core.implements\palmtree.math.core.implements\pmc_internal.h
; File z:\sources\lunor\repos\rougemeilland\palmtree.math.core.implements\palmtree.math.core.implements\autogenerated_inline_func.h
; File z:\sources\lunor\repos\rougemeilland\palmtree.math.core.implements\palmtree.math.core.implements\pmc_internal.h
; File z:\sources\lunor\repos\rougemeilland\palmtree.math.core.implements\palmtree.math.core.implements\autogenerated_inline_func.h
; File z:\sources\lunor\repos\rougemeilland\palmtree.math.core.implements\palmtree.math.core.implements\pmc_internal.h
; File z:\sources\lunor\repos\rougemeilland\palmtree.math.core.implements\palmtree.math.core.implements\autogenerated_inline_func.h
; File z:\sources\lunor\repos\rougemeilland\palmtree.math.core.implements\palmtree.math.core.implements\pmc_internal.h
; File z:\sources\lunor\repos\rougemeilland\palmtree.math.core.implements\palmtree.math.core.implements\autogenerated_inline_func.h
; File z:\sources\lunor\repos\rougemeilland\palmtree.math.core.implements\palmtree.math.core.implements\pmc_internal.h
; File z:\sources\lunor\repos\rougemeilland\palmtree.math.core.implements\palmtree.math.core.implements\autogenerated_inline_func.h
;	COMDAT _ADD_32WORDS_ADCX_DIV
_TEXT	SEGMENT
c$ = 8
xp$ = 16
yp$ = 24
zp$ = 32
_ADD_32WORDS_ADCX_DIV PROC				; COMDAT

; 1311 : #ifdef _MSC_VER
; 1312 :     c = _ADDX_UNIT_DIV(c, xp[0], yp[0], &zp[0]);

	mov	eax, DWORD PTR [rdx]
; File z:\sources\lunor\repos\rougemeilland\palmtree.math.core.implements\palmtree.math.core.implements\pmc_internal.h

; 530  :     return (_addcarryx_u32(carry, u, v, w));

	add	cl, -1
	adcx	eax, DWORD PTR [r8]
	mov	DWORD PTR [r9], eax
; File z:\sources\lunor\repos\rougemeilland\palmtree.math.core.implements\palmtree.math.core.implements\autogenerated_inline_func.h

; 1313 :     c = _ADDX_UNIT_DIV(c, xp[1], yp[1], &zp[1]);

	mov	eax, DWORD PTR [rdx+4]
; File z:\sources\lunor\repos\rougemeilland\palmtree.math.core.implements\palmtree.math.core.implements\pmc_internal.h

; 530  :     return (_addcarryx_u32(carry, u, v, w));

	adcx	eax, DWORD PTR [r8+4]
	mov	DWORD PTR [r9+4], eax
; File z:\sources\lunor\repos\rougemeilland\palmtree.math.core.implements\palmtree.math.core.implements\autogenerated_inline_func.h

; 1314 :     c = _ADDX_UNIT_DIV(c, xp[2], yp[2], &zp[2]);

	mov	eax, DWORD PTR [rdx+8]
; File z:\sources\lunor\repos\rougemeilland\palmtree.math.core.implements\palmtree.math.core.implements\pmc_internal.h

; 530  :     return (_addcarryx_u32(carry, u, v, w));

	adcx	eax, DWORD PTR [r8+8]
	mov	DWORD PTR [r9+8], eax
; File z:\sources\lunor\repos\rougemeilland\palmtree.math.core.implements\palmtree.math.core.implements\autogenerated_inline_func.h

; 1315 :     c = _ADDX_UNIT_DIV(c, xp[3], yp[3], &zp[3]);

	mov	eax, DWORD PTR [rdx+12]
; File z:\sources\lunor\repos\rougemeilland\palmtree.math.core.implements\palmtree.math.core.implements\pmc_internal.h

; 530  :     return (_addcarryx_u32(carry, u, v, w));

	adcx	eax, DWORD PTR [r8+12]
	mov	DWORD PTR [r9+12], eax
; File z:\sources\lunor\repos\rougemeilland\palmtree.math.core.implements\palmtree.math.core.implements\autogenerated_inline_func.h

; 1316 :     c = _ADDX_UNIT_DIV(c, xp[4], yp[4], &zp[4]);

	mov	eax, DWORD PTR [rdx+16]
; File z:\sources\lunor\repos\rougemeilland\palmtree.math.core.implements\palmtree.math.core.implements\pmc_internal.h

; 530  :     return (_addcarryx_u32(carry, u, v, w));

	adcx	eax, DWORD PTR [r8+16]
	mov	DWORD PTR [r9+16], eax
; File z:\sources\lunor\repos\rougemeilland\palmtree.math.core.implements\palmtree.math.core.implements\autogenerated_inline_func.h

; 1317 :     c = _ADDX_UNIT_DIV(c, xp[5], yp[5], &zp[5]);

	mov	eax, DWORD PTR [rdx+20]
; File z:\sources\lunor\repos\rougemeilland\palmtree.math.core.implements\palmtree.math.core.implements\pmc_internal.h

; 530  :     return (_addcarryx_u32(carry, u, v, w));

	adcx	eax, DWORD PTR [r8+20]
	mov	DWORD PTR [r9+20], eax
; File z:\sources\lunor\repos\rougemeilland\palmtree.math.core.implements\palmtree.math.core.implements\autogenerated_inline_func.h

; 1318 :     c = _ADDX_UNIT_DIV(c, xp[6], yp[6], &zp[6]);

	mov	eax, DWORD PTR [rdx+24]
; File z:\sources\lunor\repos\rougemeilland\palmtree.math.core.implements\palmtree.math.core.implements\pmc_internal.h

; 530  :     return (_addcarryx_u32(carry, u, v, w));

	adcx	eax, DWORD PTR [r8+24]
	mov	DWORD PTR [r9+24], eax
; File z:\sources\lunor\repos\rougemeilland\palmtree.math.core.implements\palmtree.math.core.implements\autogenerated_inline_func.h

; 1319 :     c = _ADDX_UNIT_DIV(c, xp[7], yp[7], &zp[7]);

	mov	eax, DWORD PTR [rdx+28]
; File z:\sources\lunor\repos\rougemeilland\palmtree.math.core.implements\palmtree.math.core.implements\pmc_internal.h

; 530  :     return (_addcarryx_u32(carry, u, v, w));

	adcx	eax, DWORD PTR [r8+28]
	mov	DWORD PTR [r9+28], eax
; File z:\sources\lunor\repos\rougemeilland\palmtree.math.core.implements\palmtree.math.core.implements\autogenerated_inline_func.h

; 1320 :     c = _ADDX_UNIT_DIV(c, xp[8], yp[8], &zp[8]);

	mov	eax, DWORD PTR [rdx+32]
; File z:\sources\lunor\repos\rougemeilland\palmtree.math.core.implements\palmtree.math.core.implements\pmc_internal.h

; 530  :     return (_addcarryx_u32(carry, u, v, w));

	adcx	eax, DWORD PTR [r8+32]
	mov	DWORD PTR [r9+32], eax
; File z:\sources\lunor\repos\rougemeilland\palmtree.math.core.implements\palmtree.math.core.implements\autogenerated_inline_func.h

; 1321 :     c = _ADDX_UNIT_DIV(c, xp[9], yp[9], &zp[9]);

	mov	eax, DWORD PTR [rdx+36]
; File z:\sources\lunor\repos\rougemeilland\palmtree.math.core.implements\palmtree.math.core.implements\pmc_internal.h

; 530  :     return (_addcarryx_u32(carry, u, v, w));

	adcx	eax, DWORD PTR [r8+36]
	mov	DWORD PTR [r9+36], eax
; File z:\sources\lunor\repos\rougemeilland\palmtree.math.core.implements\palmtree.math.core.implements\autogenerated_inline_func.h

; 1322 :     c = _ADDX_UNIT_DIV(c, xp[10], yp[10], &zp[10]);

	mov	eax, DWORD PTR [rdx+40]
; File z:\sources\lunor\repos\rougemeilland\palmtree.math.core.implements\palmtree.math.core.implements\pmc_internal.h

; 530  :     return (_addcarryx_u32(carry, u, v, w));

	adcx	eax, DWORD PTR [r8+40]
	mov	DWORD PTR [r9+40], eax
; File z:\sources\lunor\repos\rougemeilland\palmtree.math.core.implements\palmtree.math.core.implements\autogenerated_inline_func.h

; 1323 :     c = _ADDX_UNIT_DIV(c, xp[11], yp[11], &zp[11]);

	mov	eax, DWORD PTR [rdx+44]
; File z:\sources\lunor\repos\rougemeilland\palmtree.math.core.implements\palmtree.math.core.implements\pmc_internal.h

; 530  :     return (_addcarryx_u32(carry, u, v, w));

	adcx	eax, DWORD PTR [r8+44]
	mov	DWORD PTR [r9+44], eax
; File z:\sources\lunor\repos\rougemeilland\palmtree.math.core.implements\palmtree.math.core.implements\autogenerated_inline_func.h

; 1324 :     c = _ADDX_UNIT_DIV(c, xp[12], yp[12], &zp[12]);

	mov	eax, DWORD PTR [rdx+48]
; File z:\sources\lunor\repos\rougemeilland\palmtree.math.core.implements\palmtree.math.core.implements\pmc_internal.h

; 530  :     return (_addcarryx_u32(carry, u, v, w));

	adcx	eax, DWORD PTR [r8+48]
	mov	DWORD PTR [r9+48], eax
; File z:\sources\lunor\repos\rougemeilland\palmtree.math.core.implements\palmtree.math.core.implements\autogenerated_inline_func.h

; 1325 :     c = _ADDX_UNIT_DIV(c, xp[13], yp[13], &zp[13]);

	mov	eax, DWORD PTR [rdx+52]
; File z:\sources\lunor\repos\rougemeilland\palmtree.math.core.implements\palmtree.math.core.implements\pmc_internal.h

; 530  :     return (_addcarryx_u32(carry, u, v, w));

	adcx	eax, DWORD PTR [r8+52]
	mov	DWORD PTR [r9+52], eax
; File z:\sources\lunor\repos\rougemeilland\palmtree.math.core.implements\palmtree.math.core.implements\autogenerated_inline_func.h

; 1326 :     c = _ADDX_UNIT_DIV(c, xp[14], yp[14], &zp[14]);

	mov	eax, DWORD PTR [rdx+56]
; File z:\sources\lunor\repos\rougemeilland\palmtree.math.core.implements\palmtree.math.core.implements\pmc_internal.h

; 530  :     return (_addcarryx_u32(carry, u, v, w));

	adcx	eax, DWORD PTR [r8+56]
	mov	DWORD PTR [r9+56], eax
; File z:\sources\lunor\repos\rougemeilland\palmtree.math.core.implements\palmtree.math.core.implements\autogenerated_inline_func.h

; 1327 :     c = _ADDX_UNIT_DIV(c, xp[15], yp[15], &zp[15]);

	mov	eax, DWORD PTR [rdx+60]
; File z:\sources\lunor\repos\rougemeilland\palmtree.math.core.implements\palmtree.math.core.implements\pmc_internal.h

; 530  :     return (_addcarryx_u32(carry, u, v, w));

	adcx	eax, DWORD PTR [r8+60]
	mov	DWORD PTR [r9+60], eax
; File z:\sources\lunor\repos\rougemeilland\palmtree.math.core.implements\palmtree.math.core.implements\autogenerated_inline_func.h

; 1328 :     c = _ADDX_UNIT_DIV(c, xp[16], yp[16], &zp[16]);

	mov	eax, DWORD PTR [rdx+64]
; File z:\sources\lunor\repos\rougemeilland\palmtree.math.core.implements\palmtree.math.core.implements\pmc_internal.h

; 530  :     return (_addcarryx_u32(carry, u, v, w));

	adcx	eax, DWORD PTR [r8+64]
	mov	DWORD PTR [r9+64], eax
; File z:\sources\lunor\repos\rougemeilland\palmtree.math.core.implements\palmtree.math.core.implements\autogenerated_inline_func.h

; 1329 :     c = _ADDX_UNIT_DIV(c, xp[17], yp[17], &zp[17]);

	mov	eax, DWORD PTR [rdx+68]
; File z:\sources\lunor\repos\rougemeilland\palmtree.math.core.implements\palmtree.math.core.implements\pmc_internal.h

; 530  :     return (_addcarryx_u32(carry, u, v, w));

	adcx	eax, DWORD PTR [r8+68]
	mov	DWORD PTR [r9+68], eax
; File z:\sources\lunor\repos\rougemeilland\palmtree.math.core.implements\palmtree.math.core.implements\autogenerated_inline_func.h

; 1330 :     c = _ADDX_UNIT_DIV(c, xp[18], yp[18], &zp[18]);

	mov	eax, DWORD PTR [rdx+72]
; File z:\sources\lunor\repos\rougemeilland\palmtree.math.core.implements\palmtree.math.core.implements\pmc_internal.h

; 530  :     return (_addcarryx_u32(carry, u, v, w));

	adcx	eax, DWORD PTR [r8+72]
	mov	DWORD PTR [r9+72], eax
; File z:\sources\lunor\repos\rougemeilland\palmtree.math.core.implements\palmtree.math.core.implements\autogenerated_inline_func.h

; 1331 :     c = _ADDX_UNIT_DIV(c, xp[19], yp[19], &zp[19]);

	mov	eax, DWORD PTR [rdx+76]
; File z:\sources\lunor\repos\rougemeilland\palmtree.math.core.implements\palmtree.math.core.implements\pmc_internal.h

; 530  :     return (_addcarryx_u32(carry, u, v, w));

	adcx	eax, DWORD PTR [r8+76]
	mov	DWORD PTR [r9+76], eax
; File z:\sources\lunor\repos\rougemeilland\palmtree.math.core.implements\palmtree.math.core.implements\autogenerated_inline_func.h

; 1332 :     c = _ADDX_UNIT_DIV(c, xp[20], yp[20], &zp[20]);

	mov	eax, DWORD PTR [rdx+80]
; File z:\sources\lunor\repos\rougemeilland\palmtree.math.core.implements\palmtree.math.core.implements\pmc_internal.h

; 530  :     return (_addcarryx_u32(carry, u, v, w));

	adcx	eax, DWORD PTR [r8+80]
	mov	DWORD PTR [r9+80], eax
; File z:\sources\lunor\repos\rougemeilland\palmtree.math.core.implements\palmtree.math.core.implements\autogenerated_inline_func.h

; 1333 :     c = _ADDX_UNIT_DIV(c, xp[21], yp[21], &zp[21]);

	mov	eax, DWORD PTR [rdx+84]
; File z:\sources\lunor\repos\rougemeilland\palmtree.math.core.implements\palmtree.math.core.implements\pmc_internal.h

; 530  :     return (_addcarryx_u32(carry, u, v, w));

	adcx	eax, DWORD PTR [r8+84]
	mov	DWORD PTR [r9+84], eax
; File z:\sources\lunor\repos\rougemeilland\palmtree.math.core.implements\palmtree.math.core.implements\autogenerated_inline_func.h

; 1334 :     c = _ADDX_UNIT_DIV(c, xp[22], yp[22], &zp[22]);

	mov	eax, DWORD PTR [rdx+88]
; File z:\sources\lunor\repos\rougemeilland\palmtree.math.core.implements\palmtree.math.core.implements\pmc_internal.h

; 530  :     return (_addcarryx_u32(carry, u, v, w));

	adcx	eax, DWORD PTR [r8+88]
	mov	DWORD PTR [r9+88], eax
; File z:\sources\lunor\repos\rougemeilland\palmtree.math.core.implements\palmtree.math.core.implements\autogenerated_inline_func.h

; 1335 :     c = _ADDX_UNIT_DIV(c, xp[23], yp[23], &zp[23]);

	mov	eax, DWORD PTR [rdx+92]
; File z:\sources\lunor\repos\rougemeilland\palmtree.math.core.implements\palmtree.math.core.implements\pmc_internal.h

; 530  :     return (_addcarryx_u32(carry, u, v, w));

	adcx	eax, DWORD PTR [r8+92]
	mov	DWORD PTR [r9+92], eax
; File z:\sources\lunor\repos\rougemeilland\palmtree.math.core.implements\palmtree.math.core.implements\autogenerated_inline_func.h

; 1336 :     c = _ADDX_UNIT_DIV(c, xp[24], yp[24], &zp[24]);

	mov	eax, DWORD PTR [rdx+96]
; File z:\sources\lunor\repos\rougemeilland\palmtree.math.core.implements\palmtree.math.core.implements\pmc_internal.h

; 530  :     return (_addcarryx_u32(carry, u, v, w));

	adcx	eax, DWORD PTR [r8+96]
	mov	DWORD PTR [r9+96], eax
; File z:\sources\lunor\repos\rougemeilland\palmtree.math.core.implements\palmtree.math.core.implements\autogenerated_inline_func.h

; 1337 :     c = _ADDX_UNIT_DIV(c, xp[25], yp[25], &zp[25]);

	mov	eax, DWORD PTR [rdx+100]
; File z:\sources\lunor\repos\rougemeilland\palmtree.math.core.implements\palmtree.math.core.implements\pmc_internal.h

; 530  :     return (_addcarryx_u32(carry, u, v, w));

	adcx	eax, DWORD PTR [r8+100]
	mov	DWORD PTR [r9+100], eax
; File z:\sources\lunor\repos\rougemeilland\palmtree.math.core.implements\palmtree.math.core.implements\autogenerated_inline_func.h

; 1338 :     c = _ADDX_UNIT_DIV(c, xp[26], yp[26], &zp[26]);

	mov	eax, DWORD PTR [rdx+104]
; File z:\sources\lunor\repos\rougemeilland\palmtree.math.core.implements\palmtree.math.core.implements\pmc_internal.h

; 530  :     return (_addcarryx_u32(carry, u, v, w));

	adcx	eax, DWORD PTR [r8+104]
	mov	DWORD PTR [r9+104], eax
; File z:\sources\lunor\repos\rougemeilland\palmtree.math.core.implements\palmtree.math.core.implements\autogenerated_inline_func.h

; 1339 :     c = _ADDX_UNIT_DIV(c, xp[27], yp[27], &zp[27]);

	mov	eax, DWORD PTR [rdx+108]
; File z:\sources\lunor\repos\rougemeilland\palmtree.math.core.implements\palmtree.math.core.implements\pmc_internal.h

; 530  :     return (_addcarryx_u32(carry, u, v, w));

	adcx	eax, DWORD PTR [r8+108]
	mov	DWORD PTR [r9+108], eax
; File z:\sources\lunor\repos\rougemeilland\palmtree.math.core.implements\palmtree.math.core.implements\autogenerated_inline_func.h

; 1340 :     c = _ADDX_UNIT_DIV(c, xp[28], yp[28], &zp[28]);

	mov	eax, DWORD PTR [rdx+112]
; File z:\sources\lunor\repos\rougemeilland\palmtree.math.core.implements\palmtree.math.core.implements\pmc_internal.h

; 530  :     return (_addcarryx_u32(carry, u, v, w));

	adcx	eax, DWORD PTR [r8+112]
	mov	DWORD PTR [r9+112], eax
; File z:\sources\lunor\repos\rougemeilland\palmtree.math.core.implements\palmtree.math.core.implements\autogenerated_inline_func.h

; 1341 :     c = _ADDX_UNIT_DIV(c, xp[29], yp[29], &zp[29]);

	mov	eax, DWORD PTR [rdx+116]
; File z:\sources\lunor\repos\rougemeilland\palmtree.math.core.implements\palmtree.math.core.implements\pmc_internal.h

; 530  :     return (_addcarryx_u32(carry, u, v, w));

	adcx	eax, DWORD PTR [r8+116]
	mov	DWORD PTR [r9+116], eax
; File z:\sources\lunor\repos\rougemeilland\palmtree.math.core.implements\palmtree.math.core.implements\autogenerated_inline_func.h

; 1342 :     c = _ADDX_UNIT_DIV(c, xp[30], yp[30], &zp[30]);

	mov	eax, DWORD PTR [rdx+120]
; File z:\sources\lunor\repos\rougemeilland\palmtree.math.core.implements\palmtree.math.core.implements\pmc_internal.h

; 530  :     return (_addcarryx_u32(carry, u, v, w));

	adcx	eax, DWORD PTR [r8+120]
	mov	DWORD PTR [r9+120], eax
; File z:\sources\lunor\repos\rougemeilland\palmtree.math.core.implements\palmtree.math.core.implements\autogenerated_inline_func.h

; 1343 :     c = _ADDX_UNIT_DIV(c, xp[31], yp[31], &zp[31]);

	mov	ecx, DWORD PTR [rdx+124]
; File z:\sources\lunor\repos\rougemeilland\palmtree.math.core.implements\palmtree.math.core.implements\pmc_internal.h

; 530  :     return (_addcarryx_u32(carry, u, v, w));

	adcx	ecx, DWORD PTR [r8+124]
	mov	DWORD PTR [r9+124], ecx
	setb	al
; File z:\sources\lunor\repos\rougemeilland\palmtree.math.core.implements\palmtree.math.core.implements\autogenerated_inline_func.h

; 1560 : }

	ret	0
_ADD_32WORDS_ADCX_DIV ENDP
_TEXT	ENDS
; Function compile flags: /Ogtpy
; File z:\sources\lunor\repos\rougemeilland\palmtree.math.core.implements\palmtree.math.core.implements\autogenerated_inline_func.h
; File z:\sources\lunor\repos\rougemeilland\palmtree.math.core.implements\palmtree.math.core.implements\pmc_internal.h
; File z:\sources\lunor\repos\rougemeilland\palmtree.math.core.implements\palmtree.math.core.implements\autogenerated_inline_func.h
; File z:\sources\lunor\repos\rougemeilland\palmtree.math.core.implements\palmtree.math.core.implements\pmc_internal.h
; File z:\sources\lunor\repos\rougemeilland\palmtree.math.core.implements\palmtree.math.core.implements\autogenerated_inline_func.h
; File z:\sources\lunor\repos\rougemeilland\palmtree.math.core.implements\palmtree.math.core.implements\pmc_internal.h
; File z:\sources\lunor\repos\rougemeilland\palmtree.math.core.implements\palmtree.math.core.implements\autogenerated_inline_func.h
; File z:\sources\lunor\repos\rougemeilland\palmtree.math.core.implements\palmtree.math.core.implements\pmc_internal.h
; File z:\sources\lunor\repos\rougemeilland\palmtree.math.core.implements\palmtree.math.core.implements\autogenerated_inline_func.h
; File z:\sources\lunor\repos\rougemeilland\palmtree.math.core.implements\palmtree.math.core.implements\pmc_internal.h
; File z:\sources\lunor\repos\rougemeilland\palmtree.math.core.implements\palmtree.math.core.implements\autogenerated_inline_func.h
; File z:\sources\lunor\repos\rougemeilland\palmtree.math.core.implements\palmtree.math.core.implements\pmc_internal.h
; File z:\sources\lunor\repos\rougemeilland\palmtree.math.core.implements\palmtree.math.core.implements\autogenerated_inline_func.h
; File z:\sources\lunor\repos\rougemeilland\palmtree.math.core.implements\palmtree.math.core.implements\pmc_internal.h
; File z:\sources\lunor\repos\rougemeilland\palmtree.math.core.implements\palmtree.math.core.implements\autogenerated_inline_func.h
; File z:\sources\lunor\repos\rougemeilland\palmtree.math.core.implements\palmtree.math.core.implements\pmc_internal.h
; File z:\sources\lunor\repos\rougemeilland\palmtree.math.core.implements\palmtree.math.core.implements\autogenerated_inline_func.h
; File z:\sources\lunor\repos\rougemeilland\palmtree.math.core.implements\palmtree.math.core.implements\pmc_internal.h
; File z:\sources\lunor\repos\rougemeilland\palmtree.math.core.implements\palmtree.math.core.implements\autogenerated_inline_func.h
; File z:\sources\lunor\repos\rougemeilland\palmtree.math.core.implements\palmtree.math.core.implements\pmc_internal.h
; File z:\sources\lunor\repos\rougemeilland\palmtree.math.core.implements\palmtree.math.core.implements\autogenerated_inline_func.h
; File z:\sources\lunor\repos\rougemeilland\palmtree.math.core.implements\palmtree.math.core.implements\pmc_internal.h
; File z:\sources\lunor\repos\rougemeilland\palmtree.math.core.implements\palmtree.math.core.implements\autogenerated_inline_func.h
; File z:\sources\lunor\repos\rougemeilland\palmtree.math.core.implements\palmtree.math.core.implements\pmc_internal.h
; File z:\sources\lunor\repos\rougemeilland\palmtree.math.core.implements\palmtree.math.core.implements\autogenerated_inline_func.h
; File z:\sources\lunor\repos\rougemeilland\palmtree.math.core.implements\palmtree.math.core.implements\pmc_internal.h
; File z:\sources\lunor\repos\rougemeilland\palmtree.math.core.implements\palmtree.math.core.implements\autogenerated_inline_func.h
; File z:\sources\lunor\repos\rougemeilland\palmtree.math.core.implements\palmtree.math.core.implements\pmc_internal.h
; File z:\sources\lunor\repos\rougemeilland\palmtree.math.core.implements\palmtree.math.core.implements\autogenerated_inline_func.h
; File z:\sources\lunor\repos\rougemeilland\palmtree.math.core.implements\palmtree.math.core.implements\pmc_internal.h
; File z:\sources\lunor\repos\rougemeilland\palmtree.math.core.implements\palmtree.math.core.implements\autogenerated_inline_func.h
; File z:\sources\lunor\repos\rougemeilland\palmtree.math.core.implements\palmtree.math.core.implements\pmc_internal.h
; File z:\sources\lunor\repos\rougemeilland\palmtree.math.core.implements\palmtree.math.core.implements\autogenerated_inline_func.h
; File z:\sources\lunor\repos\rougemeilland\palmtree.math.core.implements\palmtree.math.core.implements\pmc_internal.h
; File z:\sources\lunor\repos\rougemeilland\palmtree.math.core.implements\palmtree.math.core.implements\autogenerated_inline_func.h
; File z:\sources\lunor\repos\rougemeilland\palmtree.math.core.implements\palmtree.math.core.implements\pmc_internal.h
; File z:\sources\lunor\repos\rougemeilland\palmtree.math.core.implements\palmtree.math.core.implements\autogenerated_inline_func.h
; File z:\sources\lunor\repos\rougemeilland\palmtree.math.core.implements\palmtree.math.core.implements\pmc_internal.h
; File z:\sources\lunor\repos\rougemeilland\palmtree.math.core.implements\palmtree.math.core.implements\autogenerated_inline_func.h
; File z:\sources\lunor\repos\rougemeilland\palmtree.math.core.implements\palmtree.math.core.implements\pmc_internal.h
; File z:\sources\lunor\repos\rougemeilland\palmtree.math.core.implements\palmtree.math.core.implements\autogenerated_inline_func.h
; File z:\sources\lunor\repos\rougemeilland\palmtree.math.core.implements\palmtree.math.core.implements\pmc_internal.h
; File z:\sources\lunor\repos\rougemeilland\palmtree.math.core.implements\palmtree.math.core.implements\autogenerated_inline_func.h
; File z:\sources\lunor\repos\rougemeilland\palmtree.math.core.implements\palmtree.math.core.implements\pmc_internal.h
; File z:\sources\lunor\repos\rougemeilland\palmtree.math.core.implements\palmtree.math.core.implements\autogenerated_inline_func.h
; File z:\sources\lunor\repos\rougemeilland\palmtree.math.core.implements\palmtree.math.core.implements\pmc_internal.h
; File z:\sources\lunor\repos\rougemeilland\palmtree.math.core.implements\palmtree.math.core.implements\autogenerated_inline_func.h
; File z:\sources\lunor\repos\rougemeilland\palmtree.math.core.implements\palmtree.math.core.implements\pmc_internal.h
; File z:\sources\lunor\repos\rougemeilland\palmtree.math.core.implements\palmtree.math.core.implements\autogenerated_inline_func.h
; File z:\sources\lunor\repos\rougemeilland\palmtree.math.core.implements\palmtree.math.core.implements\pmc_internal.h
; File z:\sources\lunor\repos\rougemeilland\palmtree.math.core.implements\palmtree.math.core.implements\autogenerated_inline_func.h
; File z:\sources\lunor\repos\rougemeilland\palmtree.math.core.implements\palmtree.math.core.implements\pmc_internal.h
; File z:\sources\lunor\repos\rougemeilland\palmtree.math.core.implements\palmtree.math.core.implements\autogenerated_inline_func.h
; File z:\sources\lunor\repos\rougemeilland\palmtree.math.core.implements\palmtree.math.core.implements\pmc_internal.h
; File z:\sources\lunor\repos\rougemeilland\palmtree.math.core.implements\palmtree.math.core.implements\autogenerated_inline_func.h
; File z:\sources\lunor\repos\rougemeilland\palmtree.math.core.implements\palmtree.math.core.implements\pmc_internal.h
; File z:\sources\lunor\repos\rougemeilland\palmtree.math.core.implements\palmtree.math.core.implements\autogenerated_inline_func.h
; File z:\sources\lunor\repos\rougemeilland\palmtree.math.core.implements\palmtree.math.core.implements\pmc_internal.h
; File z:\sources\lunor\repos\rougemeilland\palmtree.math.core.implements\palmtree.math.core.implements\autogenerated_inline_func.h
; File z:\sources\lunor\repos\rougemeilland\palmtree.math.core.implements\palmtree.math.core.implements\pmc_internal.h
; File z:\sources\lunor\repos\rougemeilland\palmtree.math.core.implements\palmtree.math.core.implements\autogenerated_inline_func.h
; File z:\sources\lunor\repos\rougemeilland\palmtree.math.core.implements\palmtree.math.core.implements\pmc_internal.h
; File z:\sources\lunor\repos\rougemeilland\palmtree.math.core.implements\palmtree.math.core.implements\autogenerated_inline_func.h
; File z:\sources\lunor\repos\rougemeilland\palmtree.math.core.implements\palmtree.math.core.implements\pmc_internal.h
; File z:\sources\lunor\repos\rougemeilland\palmtree.math.core.implements\palmtree.math.core.implements\autogenerated_inline_func.h
;	COMDAT _ADD_32WORDS_ADC_DIV
_TEXT	SEGMENT
c$ = 8
xp$ = 16
yp$ = 24
zp$ = 32
_ADD_32WORDS_ADC_DIV PROC				; COMDAT

; 1058 : #ifdef _MSC_VER
; 1059 :     c = _ADD_UNIT_DIV(c, xp[0], yp[0], &zp[0]);

	mov	eax, DWORD PTR [rdx]
; File z:\sources\lunor\repos\rougemeilland\palmtree.math.core.implements\palmtree.math.core.implements\pmc_internal.h

; 502  :     return (_addcarry_u32(carry, u, v, w));

	add	cl, -1
	adc	eax, DWORD PTR [r8]
	mov	DWORD PTR [r9], eax
; File z:\sources\lunor\repos\rougemeilland\palmtree.math.core.implements\palmtree.math.core.implements\autogenerated_inline_func.h

; 1060 :     c = _ADD_UNIT_DIV(c, xp[1], yp[1], &zp[1]);

	mov	eax, DWORD PTR [rdx+4]
; File z:\sources\lunor\repos\rougemeilland\palmtree.math.core.implements\palmtree.math.core.implements\pmc_internal.h

; 502  :     return (_addcarry_u32(carry, u, v, w));

	adc	eax, DWORD PTR [r8+4]
	mov	DWORD PTR [r9+4], eax
; File z:\sources\lunor\repos\rougemeilland\palmtree.math.core.implements\palmtree.math.core.implements\autogenerated_inline_func.h

; 1061 :     c = _ADD_UNIT_DIV(c, xp[2], yp[2], &zp[2]);

	mov	eax, DWORD PTR [rdx+8]
; File z:\sources\lunor\repos\rougemeilland\palmtree.math.core.implements\palmtree.math.core.implements\pmc_internal.h

; 502  :     return (_addcarry_u32(carry, u, v, w));

	adc	eax, DWORD PTR [r8+8]
	mov	DWORD PTR [r9+8], eax
; File z:\sources\lunor\repos\rougemeilland\palmtree.math.core.implements\palmtree.math.core.implements\autogenerated_inline_func.h

; 1062 :     c = _ADD_UNIT_DIV(c, xp[3], yp[3], &zp[3]);

	mov	eax, DWORD PTR [rdx+12]
; File z:\sources\lunor\repos\rougemeilland\palmtree.math.core.implements\palmtree.math.core.implements\pmc_internal.h

; 502  :     return (_addcarry_u32(carry, u, v, w));

	adc	eax, DWORD PTR [r8+12]
	mov	DWORD PTR [r9+12], eax
; File z:\sources\lunor\repos\rougemeilland\palmtree.math.core.implements\palmtree.math.core.implements\autogenerated_inline_func.h

; 1063 :     c = _ADD_UNIT_DIV(c, xp[4], yp[4], &zp[4]);

	mov	eax, DWORD PTR [rdx+16]
; File z:\sources\lunor\repos\rougemeilland\palmtree.math.core.implements\palmtree.math.core.implements\pmc_internal.h

; 502  :     return (_addcarry_u32(carry, u, v, w));

	adc	eax, DWORD PTR [r8+16]
	mov	DWORD PTR [r9+16], eax
; File z:\sources\lunor\repos\rougemeilland\palmtree.math.core.implements\palmtree.math.core.implements\autogenerated_inline_func.h

; 1064 :     c = _ADD_UNIT_DIV(c, xp[5], yp[5], &zp[5]);

	mov	eax, DWORD PTR [rdx+20]
; File z:\sources\lunor\repos\rougemeilland\palmtree.math.core.implements\palmtree.math.core.implements\pmc_internal.h

; 502  :     return (_addcarry_u32(carry, u, v, w));

	adc	eax, DWORD PTR [r8+20]
	mov	DWORD PTR [r9+20], eax
; File z:\sources\lunor\repos\rougemeilland\palmtree.math.core.implements\palmtree.math.core.implements\autogenerated_inline_func.h

; 1065 :     c = _ADD_UNIT_DIV(c, xp[6], yp[6], &zp[6]);

	mov	eax, DWORD PTR [rdx+24]
; File z:\sources\lunor\repos\rougemeilland\palmtree.math.core.implements\palmtree.math.core.implements\pmc_internal.h

; 502  :     return (_addcarry_u32(carry, u, v, w));

	adc	eax, DWORD PTR [r8+24]
	mov	DWORD PTR [r9+24], eax
; File z:\sources\lunor\repos\rougemeilland\palmtree.math.core.implements\palmtree.math.core.implements\autogenerated_inline_func.h

; 1066 :     c = _ADD_UNIT_DIV(c, xp[7], yp[7], &zp[7]);

	mov	eax, DWORD PTR [rdx+28]
; File z:\sources\lunor\repos\rougemeilland\palmtree.math.core.implements\palmtree.math.core.implements\pmc_internal.h

; 502  :     return (_addcarry_u32(carry, u, v, w));

	adc	eax, DWORD PTR [r8+28]
	mov	DWORD PTR [r9+28], eax
; File z:\sources\lunor\repos\rougemeilland\palmtree.math.core.implements\palmtree.math.core.implements\autogenerated_inline_func.h

; 1067 :     c = _ADD_UNIT_DIV(c, xp[8], yp[8], &zp[8]);

	mov	eax, DWORD PTR [rdx+32]
; File z:\sources\lunor\repos\rougemeilland\palmtree.math.core.implements\palmtree.math.core.implements\pmc_internal.h

; 502  :     return (_addcarry_u32(carry, u, v, w));

	adc	eax, DWORD PTR [r8+32]
	mov	DWORD PTR [r9+32], eax
; File z:\sources\lunor\repos\rougemeilland\palmtree.math.core.implements\palmtree.math.core.implements\autogenerated_inline_func.h

; 1068 :     c = _ADD_UNIT_DIV(c, xp[9], yp[9], &zp[9]);

	mov	eax, DWORD PTR [rdx+36]
; File z:\sources\lunor\repos\rougemeilland\palmtree.math.core.implements\palmtree.math.core.implements\pmc_internal.h

; 502  :     return (_addcarry_u32(carry, u, v, w));

	adc	eax, DWORD PTR [r8+36]
	mov	DWORD PTR [r9+36], eax
; File z:\sources\lunor\repos\rougemeilland\palmtree.math.core.implements\palmtree.math.core.implements\autogenerated_inline_func.h

; 1069 :     c = _ADD_UNIT_DIV(c, xp[10], yp[10], &zp[10]);

	mov	eax, DWORD PTR [rdx+40]
; File z:\sources\lunor\repos\rougemeilland\palmtree.math.core.implements\palmtree.math.core.implements\pmc_internal.h

; 502  :     return (_addcarry_u32(carry, u, v, w));

	adc	eax, DWORD PTR [r8+40]
	mov	DWORD PTR [r9+40], eax
; File z:\sources\lunor\repos\rougemeilland\palmtree.math.core.implements\palmtree.math.core.implements\autogenerated_inline_func.h

; 1070 :     c = _ADD_UNIT_DIV(c, xp[11], yp[11], &zp[11]);

	mov	eax, DWORD PTR [rdx+44]
; File z:\sources\lunor\repos\rougemeilland\palmtree.math.core.implements\palmtree.math.core.implements\pmc_internal.h

; 502  :     return (_addcarry_u32(carry, u, v, w));

	adc	eax, DWORD PTR [r8+44]
	mov	DWORD PTR [r9+44], eax
; File z:\sources\lunor\repos\rougemeilland\palmtree.math.core.implements\palmtree.math.core.implements\autogenerated_inline_func.h

; 1071 :     c = _ADD_UNIT_DIV(c, xp[12], yp[12], &zp[12]);

	mov	eax, DWORD PTR [rdx+48]
; File z:\sources\lunor\repos\rougemeilland\palmtree.math.core.implements\palmtree.math.core.implements\pmc_internal.h

; 502  :     return (_addcarry_u32(carry, u, v, w));

	adc	eax, DWORD PTR [r8+48]
	mov	DWORD PTR [r9+48], eax
; File z:\sources\lunor\repos\rougemeilland\palmtree.math.core.implements\palmtree.math.core.implements\autogenerated_inline_func.h

; 1072 :     c = _ADD_UNIT_DIV(c, xp[13], yp[13], &zp[13]);

	mov	eax, DWORD PTR [rdx+52]
; File z:\sources\lunor\repos\rougemeilland\palmtree.math.core.implements\palmtree.math.core.implements\pmc_internal.h

; 502  :     return (_addcarry_u32(carry, u, v, w));

	adc	eax, DWORD PTR [r8+52]
	mov	DWORD PTR [r9+52], eax
; File z:\sources\lunor\repos\rougemeilland\palmtree.math.core.implements\palmtree.math.core.implements\autogenerated_inline_func.h

; 1073 :     c = _ADD_UNIT_DIV(c, xp[14], yp[14], &zp[14]);

	mov	eax, DWORD PTR [rdx+56]
; File z:\sources\lunor\repos\rougemeilland\palmtree.math.core.implements\palmtree.math.core.implements\pmc_internal.h

; 502  :     return (_addcarry_u32(carry, u, v, w));

	adc	eax, DWORD PTR [r8+56]
	mov	DWORD PTR [r9+56], eax
; File z:\sources\lunor\repos\rougemeilland\palmtree.math.core.implements\palmtree.math.core.implements\autogenerated_inline_func.h

; 1074 :     c = _ADD_UNIT_DIV(c, xp[15], yp[15], &zp[15]);

	mov	eax, DWORD PTR [rdx+60]
; File z:\sources\lunor\repos\rougemeilland\palmtree.math.core.implements\palmtree.math.core.implements\pmc_internal.h

; 502  :     return (_addcarry_u32(carry, u, v, w));

	adc	eax, DWORD PTR [r8+60]
	mov	DWORD PTR [r9+60], eax
; File z:\sources\lunor\repos\rougemeilland\palmtree.math.core.implements\palmtree.math.core.implements\autogenerated_inline_func.h

; 1075 :     c = _ADD_UNIT_DIV(c, xp[16], yp[16], &zp[16]);

	mov	eax, DWORD PTR [rdx+64]
; File z:\sources\lunor\repos\rougemeilland\palmtree.math.core.implements\palmtree.math.core.implements\pmc_internal.h

; 502  :     return (_addcarry_u32(carry, u, v, w));

	adc	eax, DWORD PTR [r8+64]
	mov	DWORD PTR [r9+64], eax
; File z:\sources\lunor\repos\rougemeilland\palmtree.math.core.implements\palmtree.math.core.implements\autogenerated_inline_func.h

; 1076 :     c = _ADD_UNIT_DIV(c, xp[17], yp[17], &zp[17]);

	mov	eax, DWORD PTR [rdx+68]
; File z:\sources\lunor\repos\rougemeilland\palmtree.math.core.implements\palmtree.math.core.implements\pmc_internal.h

; 502  :     return (_addcarry_u32(carry, u, v, w));

	adc	eax, DWORD PTR [r8+68]
	mov	DWORD PTR [r9+68], eax
; File z:\sources\lunor\repos\rougemeilland\palmtree.math.core.implements\palmtree.math.core.implements\autogenerated_inline_func.h

; 1077 :     c = _ADD_UNIT_DIV(c, xp[18], yp[18], &zp[18]);

	mov	eax, DWORD PTR [rdx+72]
; File z:\sources\lunor\repos\rougemeilland\palmtree.math.core.implements\palmtree.math.core.implements\pmc_internal.h

; 502  :     return (_addcarry_u32(carry, u, v, w));

	adc	eax, DWORD PTR [r8+72]
	mov	DWORD PTR [r9+72], eax
; File z:\sources\lunor\repos\rougemeilland\palmtree.math.core.implements\palmtree.math.core.implements\autogenerated_inline_func.h

; 1078 :     c = _ADD_UNIT_DIV(c, xp[19], yp[19], &zp[19]);

	mov	eax, DWORD PTR [rdx+76]
; File z:\sources\lunor\repos\rougemeilland\palmtree.math.core.implements\palmtree.math.core.implements\pmc_internal.h

; 502  :     return (_addcarry_u32(carry, u, v, w));

	adc	eax, DWORD PTR [r8+76]
	mov	DWORD PTR [r9+76], eax
; File z:\sources\lunor\repos\rougemeilland\palmtree.math.core.implements\palmtree.math.core.implements\autogenerated_inline_func.h

; 1079 :     c = _ADD_UNIT_DIV(c, xp[20], yp[20], &zp[20]);

	mov	eax, DWORD PTR [rdx+80]
; File z:\sources\lunor\repos\rougemeilland\palmtree.math.core.implements\palmtree.math.core.implements\pmc_internal.h

; 502  :     return (_addcarry_u32(carry, u, v, w));

	adc	eax, DWORD PTR [r8+80]
	mov	DWORD PTR [r9+80], eax
; File z:\sources\lunor\repos\rougemeilland\palmtree.math.core.implements\palmtree.math.core.implements\autogenerated_inline_func.h

; 1080 :     c = _ADD_UNIT_DIV(c, xp[21], yp[21], &zp[21]);

	mov	eax, DWORD PTR [rdx+84]
; File z:\sources\lunor\repos\rougemeilland\palmtree.math.core.implements\palmtree.math.core.implements\pmc_internal.h

; 502  :     return (_addcarry_u32(carry, u, v, w));

	adc	eax, DWORD PTR [r8+84]
	mov	DWORD PTR [r9+84], eax
; File z:\sources\lunor\repos\rougemeilland\palmtree.math.core.implements\palmtree.math.core.implements\autogenerated_inline_func.h

; 1081 :     c = _ADD_UNIT_DIV(c, xp[22], yp[22], &zp[22]);

	mov	eax, DWORD PTR [rdx+88]
; File z:\sources\lunor\repos\rougemeilland\palmtree.math.core.implements\palmtree.math.core.implements\pmc_internal.h

; 502  :     return (_addcarry_u32(carry, u, v, w));

	adc	eax, DWORD PTR [r8+88]
	mov	DWORD PTR [r9+88], eax
; File z:\sources\lunor\repos\rougemeilland\palmtree.math.core.implements\palmtree.math.core.implements\autogenerated_inline_func.h

; 1082 :     c = _ADD_UNIT_DIV(c, xp[23], yp[23], &zp[23]);

	mov	eax, DWORD PTR [rdx+92]
; File z:\sources\lunor\repos\rougemeilland\palmtree.math.core.implements\palmtree.math.core.implements\pmc_internal.h

; 502  :     return (_addcarry_u32(carry, u, v, w));

	adc	eax, DWORD PTR [r8+92]
	mov	DWORD PTR [r9+92], eax
; File z:\sources\lunor\repos\rougemeilland\palmtree.math.core.implements\palmtree.math.core.implements\autogenerated_inline_func.h

; 1083 :     c = _ADD_UNIT_DIV(c, xp[24], yp[24], &zp[24]);

	mov	eax, DWORD PTR [rdx+96]
; File z:\sources\lunor\repos\rougemeilland\palmtree.math.core.implements\palmtree.math.core.implements\pmc_internal.h

; 502  :     return (_addcarry_u32(carry, u, v, w));

	adc	eax, DWORD PTR [r8+96]
	mov	DWORD PTR [r9+96], eax
; File z:\sources\lunor\repos\rougemeilland\palmtree.math.core.implements\palmtree.math.core.implements\autogenerated_inline_func.h

; 1084 :     c = _ADD_UNIT_DIV(c, xp[25], yp[25], &zp[25]);

	mov	eax, DWORD PTR [rdx+100]
; File z:\sources\lunor\repos\rougemeilland\palmtree.math.core.implements\palmtree.math.core.implements\pmc_internal.h

; 502  :     return (_addcarry_u32(carry, u, v, w));

	adc	eax, DWORD PTR [r8+100]
	mov	DWORD PTR [r9+100], eax
; File z:\sources\lunor\repos\rougemeilland\palmtree.math.core.implements\palmtree.math.core.implements\autogenerated_inline_func.h

; 1085 :     c = _ADD_UNIT_DIV(c, xp[26], yp[26], &zp[26]);

	mov	eax, DWORD PTR [rdx+104]
; File z:\sources\lunor\repos\rougemeilland\palmtree.math.core.implements\palmtree.math.core.implements\pmc_internal.h

; 502  :     return (_addcarry_u32(carry, u, v, w));

	adc	eax, DWORD PTR [r8+104]
	mov	DWORD PTR [r9+104], eax
; File z:\sources\lunor\repos\rougemeilland\palmtree.math.core.implements\palmtree.math.core.implements\autogenerated_inline_func.h

; 1086 :     c = _ADD_UNIT_DIV(c, xp[27], yp[27], &zp[27]);

	mov	eax, DWORD PTR [rdx+108]
; File z:\sources\lunor\repos\rougemeilland\palmtree.math.core.implements\palmtree.math.core.implements\pmc_internal.h

; 502  :     return (_addcarry_u32(carry, u, v, w));

	adc	eax, DWORD PTR [r8+108]
	mov	DWORD PTR [r9+108], eax
; File z:\sources\lunor\repos\rougemeilland\palmtree.math.core.implements\palmtree.math.core.implements\autogenerated_inline_func.h

; 1087 :     c = _ADD_UNIT_DIV(c, xp[28], yp[28], &zp[28]);

	mov	eax, DWORD PTR [rdx+112]
; File z:\sources\lunor\repos\rougemeilland\palmtree.math.core.implements\palmtree.math.core.implements\pmc_internal.h

; 502  :     return (_addcarry_u32(carry, u, v, w));

	adc	eax, DWORD PTR [r8+112]
	mov	DWORD PTR [r9+112], eax
; File z:\sources\lunor\repos\rougemeilland\palmtree.math.core.implements\palmtree.math.core.implements\autogenerated_inline_func.h

; 1088 :     c = _ADD_UNIT_DIV(c, xp[29], yp[29], &zp[29]);

	mov	eax, DWORD PTR [rdx+116]
; File z:\sources\lunor\repos\rougemeilland\palmtree.math.core.implements\palmtree.math.core.implements\pmc_internal.h

; 502  :     return (_addcarry_u32(carry, u, v, w));

	adc	eax, DWORD PTR [r8+116]
	mov	DWORD PTR [r9+116], eax
; File z:\sources\lunor\repos\rougemeilland\palmtree.math.core.implements\palmtree.math.core.implements\autogenerated_inline_func.h

; 1089 :     c = _ADD_UNIT_DIV(c, xp[30], yp[30], &zp[30]);

	mov	eax, DWORD PTR [rdx+120]
; File z:\sources\lunor\repos\rougemeilland\palmtree.math.core.implements\palmtree.math.core.implements\pmc_internal.h

; 502  :     return (_addcarry_u32(carry, u, v, w));

	adc	eax, DWORD PTR [r8+120]
	mov	DWORD PTR [r9+120], eax
; File z:\sources\lunor\repos\rougemeilland\palmtree.math.core.implements\palmtree.math.core.implements\autogenerated_inline_func.h

; 1090 :     c = _ADD_UNIT_DIV(c, xp[31], yp[31], &zp[31]);

	mov	ecx, DWORD PTR [rdx+124]
; File z:\sources\lunor\repos\rougemeilland\palmtree.math.core.implements\palmtree.math.core.implements\pmc_internal.h

; 502  :     return (_addcarry_u32(carry, u, v, w));

	adc	ecx, DWORD PTR [r8+124]
	mov	DWORD PTR [r9+124], ecx
	setb	al
; File z:\sources\lunor\repos\rougemeilland\palmtree.math.core.implements\palmtree.math.core.implements\autogenerated_inline_func.h

; 1307 : }

	ret	0
_ADD_32WORDS_ADC_DIV ENDP
_TEXT	ENDS
; Function compile flags: /Ogtpy
; File z:\sources\lunor\repos\rougemeilland\palmtree.math.core.implements\palmtree.math.core.implements\pmc_internal.h
;	COMDAT AddToMULTI64Counter
_TEXT	SEGMENT
value$ = 8
AddToMULTI64Counter PROC				; COMDAT

; 1103 :     _InterlockedExchangeAdd(&statistics_info.COUNT_MULTI64, value);

	lock xadd DWORD PTR statistics_info, ecx

; 1104 : }

	ret	0
AddToMULTI64Counter ENDP
_TEXT	ENDS
; Function compile flags: /Ogtpy
; File z:\sources\lunor\repos\rougemeilland\palmtree.math.core.implements\palmtree.math.core.implements\pmc_internal.h
;	COMDAT AddToMULTI32Counter
_TEXT	SEGMENT
value$ = 8
AddToMULTI32Counter PROC				; COMDAT

; 1097 :     _InterlockedExchangeAdd(&statistics_info.COUNT_MULTI32, value);

	lock xadd DWORD PTR statistics_info+4, ecx

; 1098 : }

	ret	0
AddToMULTI32Counter ENDP
_TEXT	ENDS
; Function compile flags: /Ogtpy
; File z:\sources\lunor\repos\rougemeilland\palmtree.math.core.implements\palmtree.math.core.implements\pmc_internal.h
;	COMDAT AddToDIV64Counter
_TEXT	SEGMENT
value$ = 8
AddToDIV64Counter PROC					; COMDAT

; 1091 :     _InterlockedExchangeAdd(&statistics_info.COUNT_DIV64, value);

	lock xadd DWORD PTR statistics_info+8, ecx

; 1092 : }

	ret	0
AddToDIV64Counter ENDP
_TEXT	ENDS
; Function compile flags: /Ogtpy
; File z:\sources\lunor\repos\rougemeilland\palmtree.math.core.implements\palmtree.math.core.implements\pmc_internal.h
;	COMDAT AddToDIV32Counter
_TEXT	SEGMENT
value$ = 8
AddToDIV32Counter PROC					; COMDAT

; 1085 :     _InterlockedExchangeAdd(&statistics_info.COUNT_DIV32, value);

	lock xadd DWORD PTR statistics_info+12, ecx

; 1086 : }

	ret	0
AddToDIV32Counter ENDP
_TEXT	ENDS
; Function compile flags: /Ogtpy
; File z:\sources\lunor\repos\rougemeilland\palmtree.math.core.implements\palmtree.math.core.implements\pmc_internal.h
;	COMDAT IncrementMULTI64Counter
_TEXT	SEGMENT
IncrementMULTI64Counter PROC				; COMDAT

; 1080 :     _InterlockedIncrement(&statistics_info.COUNT_MULTI64);

	lock inc DWORD PTR statistics_info

; 1081 : }

	ret	0
IncrementMULTI64Counter ENDP
_TEXT	ENDS
; Function compile flags: /Ogtpy
; File z:\sources\lunor\repos\rougemeilland\palmtree.math.core.implements\palmtree.math.core.implements\pmc_internal.h
;	COMDAT IncrementMULTI32Counter
_TEXT	SEGMENT
IncrementMULTI32Counter PROC				; COMDAT

; 1074 :     _InterlockedIncrement(&statistics_info.COUNT_MULTI32);

	lock inc DWORD PTR statistics_info+4

; 1075 : }

	ret	0
IncrementMULTI32Counter ENDP
_TEXT	ENDS
; Function compile flags: /Ogtpy
; File z:\sources\lunor\repos\rougemeilland\palmtree.math.core.implements\palmtree.math.core.implements\pmc_internal.h
;	COMDAT IncrementDIV64Counter
_TEXT	SEGMENT
IncrementDIV64Counter PROC				; COMDAT

; 1068 :     _InterlockedIncrement(&statistics_info.COUNT_DIV64);

	lock inc DWORD PTR statistics_info+8

; 1069 : }

	ret	0
IncrementDIV64Counter ENDP
_TEXT	ENDS
; Function compile flags: /Ogtpy
; File z:\sources\lunor\repos\rougemeilland\palmtree.math.core.implements\palmtree.math.core.implements\pmc_internal.h
;	COMDAT IncrementDIV32Counter
_TEXT	SEGMENT
IncrementDIV32Counter PROC				; COMDAT

; 1062 :     _InterlockedIncrement(&statistics_info.COUNT_DIV32);

	lock inc DWORD PTR statistics_info+12

; 1063 : }

	ret	0
IncrementDIV32Counter ENDP
_TEXT	ENDS
; Function compile flags: /Ogtpy
; File z:\sources\lunor\repos\rougemeilland\palmtree.math.core.implements\palmtree.math.core.implements\pmc_internal.h
;	COMDAT _LZCNT_ALT_UNIT_DIV
_TEXT	SEGMENT
x$ = 8
_LZCNT_ALT_UNIT_DIV PROC				; COMDAT

; 935  :     if (x == 0)

	test	ecx, ecx
	jne	SHORT $LN2@LZCNT_ALT_

; 936  :         return (sizeof(x) * 8);

	mov	eax, 32					; 00000020H

; 960  : }

	ret	0
$LN2@LZCNT_ALT_:

; 937  : #ifdef _M_IX86
; 938  :     _UINT32_T pos;
; 939  : #ifdef _MSC_VER
; 940  :     _BitScanReverse(&pos, x);
; 941  : #elif defined(__GNUC__)
; 942  :     __asm__("bsrl %1, %0" : "=r"(pos) : "rm"(x));
; 943  : #else
; 944  : #error unknown compiler
; 945  : #endif
; 946  : #elif defined(_M_X64)
; 947  : #ifdef _MSC_VER
; 948  :     _UINT32_T pos;
; 949  :     _BitScanReverse(&pos, x);

	bsr	ecx, ecx

; 950  : #elif defined(__GNUC__)
; 951  :     _UINT64_T pos;
; 952  :     __asm__("bsrq %1, %0" : "=r"(pos) : "rm"(x));
; 953  : #else
; 954  : #error unknown compiler
; 955  : #endif
; 956  : #else
; 957  : #error unknown platform
; 958  : #endif
; 959  :     return (sizeof(x) * 8 - 1 - pos);

	mov	eax, 31
	sub	eax, ecx

; 960  : }

	ret	0
_LZCNT_ALT_UNIT_DIV ENDP
_TEXT	ENDS
; Function compile flags: /Ogtpy
; File z:\sources\lunor\repos\rougemeilland\palmtree.math.core.implements\palmtree.math.core.implements\pmc_internal.h
;	COMDAT _LZCNT_ALT_UNIT
_TEXT	SEGMENT
x$ = 8
_LZCNT_ALT_UNIT PROC					; COMDAT

; 906  :     if (x == 0)

	test	rcx, rcx
	jne	SHORT $LN2@LZCNT_ALT_

; 907  :         return (sizeof(x) * 8);

	mov	eax, 64					; 00000040H

; 931  : }

	ret	0
$LN2@LZCNT_ALT_:

; 908  : #ifdef _M_IX86
; 909  :     _UINT32_T pos;
; 910  : #ifdef _MSC_VER
; 911  :     _BitScanReverse(&pos, x);
; 912  : #elif defined(__GNUC__)
; 913  :     __asm__("bsrl %1, %0" : "=r"(pos) : "rm"(x));
; 914  : #else
; 915  : #error unknown compiler
; 916  : #endif
; 917  : #elif defined(_M_X64)
; 918  : #ifdef _MSC_VER
; 919  :     _UINT32_T pos;
; 920  :     _BitScanReverse64(&pos, x);

	bsr	rcx, rcx

; 921  : #elif defined(__GNUC__)
; 922  :     _UINT64_T pos;
; 923  :     __asm__("bsrq %1, %0" : "=r"(pos) : "rm"(x));
; 924  : #else
; 925  : #error unknown compiler
; 926  : #endif
; 927  : #else
; 928  : #error unknown platform
; 929  : #endif
; 930  :     return (sizeof(x) * 8 - 1 - pos);

	mov	eax, 63					; 0000003fH
	sub	eax, ecx

; 931  : }

	ret	0
_LZCNT_ALT_UNIT ENDP
_TEXT	ENDS
; Function compile flags: /Ogtpy
; File z:\sources\lunor\repos\rougemeilland\palmtree.math.core.implements\palmtree.math.core.implements\pmc_internal.h
;	COMDAT _LZCNT_ALT_32
_TEXT	SEGMENT
x$ = 8
_LZCNT_ALT_32 PROC					; COMDAT

; 873  :     if (x == 0)

	test	ecx, ecx
	jne	SHORT $LN2@LZCNT_ALT_

; 874  :         return (sizeof(x) * 8);

	mov	eax, 32					; 00000020H

; 884  : }

	ret	0
$LN2@LZCNT_ALT_:

; 875  :     _UINT32_T pos;
; 876  : #ifdef _MSC_VER
; 877  :     _BitScanReverse(&pos, x);

	bsr	ecx, ecx

; 878  : #elif defined(__GNUC__)
; 879  :     __asm__( "bsrl %1, %0" : "=r"(pos) : "rm"(x) );
; 880  : #else
; 881  : #error unknown compiler
; 882  : #endif
; 883  :     return (sizeof(x) * 8 - 1 - pos);

	mov	eax, 31
	sub	eax, ecx

; 884  : }

	ret	0
_LZCNT_ALT_32 ENDP
_TEXT	ENDS
; Function compile flags: /Ogtpy
; File z:\sources\lunor\repos\rougemeilland\palmtree.math.core.implements\palmtree.math.core.implements\pmc_internal.h
;	COMDAT _DIVREM_SINGLE_UNIT
_TEXT	SEGMENT
r$ = 8
u$ = 16
v$ = 24
q$ = 32
_DIVREM_SINGLE_UNIT PROC				; COMDAT

; 454  :     return (((_UINT64_T)value_high << 32) | value_low);

	mov	eax, ecx
	mov	ecx, edx

; 705  : #ifdef _MSC_VER
; 706  :     if (sizeof(__UNIT_TYPE_DIV) == sizeof(_UINT32_T))
; 707  :     {
; 708  :         // 64bit/32bitの除算を行う組み込み関数は実装されていない。
; 709  :         _UINT64_T t = _FROMWORDTODWORD(r, u);
; 710  :         *q = (_UINT32_T)(t / v);

	xor	edx, edx

; 454  :     return (((_UINT64_T)value_high << 32) | value_low);

	shl	rax, 32					; 00000020H
	or	rax, rcx

; 705  : #ifdef _MSC_VER
; 706  :     if (sizeof(__UNIT_TYPE_DIV) == sizeof(_UINT32_T))
; 707  :     {
; 708  :         // 64bit/32bitの除算を行う組み込み関数は実装されていない。
; 709  :         _UINT64_T t = _FROMWORDTODWORD(r, u);
; 710  :         *q = (_UINT32_T)(t / v);

	mov	ecx, r8d
	div	rcx
	mov	DWORD PTR [r9], eax

; 711  :         return ((_UINT32_T)(t % v));

	mov	eax, edx

; 712  :     }
; 713  :     else if (sizeof(__UNIT_TYPE_DIV) == sizeof(_UINT64_T))
; 714  :     {
; 715  :         // 以下の理由のため、MSVCでは 128bit/64bit の除算を実装できない。運用で回避すること。
; 716  :         // ・(x64 に限らず) 除算の組み込み関数が用意されていない。
; 717  :         // ・128bit 整数のデータ型が用意されていない。
; 718  :         // ・x64 ではインラインアセンブラがサポートされていない。
; 719  :         *q = 0;
; 720  :         return (0);
; 721  :     }
; 722  :     else
; 723  :     {
; 724  :         // 未知のプラットフォームの場合はとりあえず適当なものを返す。
; 725  :         *q = 0;
; 726  :         return (0);
; 727  :     }
; 728  : #elif defined(__GNUC__)
; 729  :     if (sizeof(__UNIT_TYPE_DIV) == sizeof(_UINT32_T))
; 730  :         __asm__("divl %4": "=a"(*q), "=d"(r) : "0"(u), "1"(r), "rm"(v));
; 731  :     else if (sizeof(__UNIT_TYPE_DIV) == sizeof(_UINT64_T))
; 732  :         __asm__("divq %4": "=a"(*q), "=d"(r) : "0"(u), "1"(r), "rm"(v));
; 733  :     else
; 734  :     {
; 735  :         // 未知のプラットフォームの場合はとりあえず適当なものを返す。
; 736  :         *q = 0;
; 737  :         r = 0;
; 738  :     }
; 739  :     return (r);
; 740  : #else
; 741  : #error unknown compiler
; 742  : #endif
; 743  : }

	ret	0
_DIVREM_SINGLE_UNIT ENDP
_TEXT	ENDS
; Function compile flags: /Ogtpy
; File z:\sources\lunor\repos\rougemeilland\palmtree.math.core.implements\palmtree.math.core.implements\pmc_internal.h
;	COMDAT _DIVREM_UNIT
_TEXT	SEGMENT
u_high$ = 8
u_low$ = 16
v$ = 24
r$ = 32
_DIVREM_UNIT PROC					; COMDAT

; 454  :     return (((_UINT64_T)value_high << 32) | value_low);

	mov	eax, ecx
	mov	ecx, edx

; 661  : #ifdef _MSC_VER
; 662  :     if (sizeof(__UNIT_TYPE_DIV) == sizeof(_UINT32_T))
; 663  :     {
; 664  :         // 64bit/32bitの除算を行う組み込み関数は実装されていない。
; 665  :         _UINT64_T t = _FROMWORDTODWORD(u_high, u_low);
; 666  :         *r = (_UINT32_T)(t % v);

	xor	edx, edx

; 454  :     return (((_UINT64_T)value_high << 32) | value_low);

	shl	rax, 32					; 00000020H
	or	rax, rcx

; 661  : #ifdef _MSC_VER
; 662  :     if (sizeof(__UNIT_TYPE_DIV) == sizeof(_UINT32_T))
; 663  :     {
; 664  :         // 64bit/32bitの除算を行う組み込み関数は実装されていない。
; 665  :         _UINT64_T t = _FROMWORDTODWORD(u_high, u_low);
; 666  :         *r = (_UINT32_T)(t % v);

	mov	ecx, r8d
	div	rcx
	mov	DWORD PTR [r9], edx

; 667  :         return ((_UINT32_T)(t / v));
; 668  :     }
; 669  :     else if (sizeof(__UNIT_TYPE_DIV) == sizeof(_UINT64_T))
; 670  :     {
; 671  :         // 以下の理由のため、MSVCでは 128bit/64bit の除算を実装できない。運用で回避すること。
; 672  :         // ・(x64 に限らず) 除算の組み込み関数が用意されていない。
; 673  :         // ・128bit 整数のデータ型が用意されていない。
; 674  :         // ・x64 ではインラインアセンブラがサポートされていない。
; 675  :         *r = 0;
; 676  :         return (0);
; 677  :     }
; 678  :     else
; 679  :     {
; 680  :         // 未知のプラットフォームの場合はとりあえず適当なものを返す。
; 681  :         *r = 0;
; 682  :         return (0);
; 683  :     }
; 684  : #elif defined(__GNUC__)
; 685  :     __UNIT_TYPE q;
; 686  :     if (sizeof(__UNIT_TYPE_DIV) == sizeof(_UINT32_T))
; 687  :         __asm__("divl %4": "=a"(q), "=d"(*r) : "0"(u_low), "1"(u_high), "rm"(v));
; 688  :     else if (sizeof(__UNIT_TYPE_DIV) == sizeof(_UINT64_T))
; 689  :         __asm__("divq %4": "=a"(q), "=d"(*r) : "0"(u_low), "1"(u_high), "rm"(v));
; 690  :     else
; 691  :     {
; 692  :         // 未知のプラットフォームの場合はとりあえず適当なものを返す。
; 693  :         *r = 0;
; 694  :         q = 0;
; 695  :     }
; 696  :     return (q);
; 697  : #else
; 698  : #error unknown compiler
; 699  : #endif
; 700  : }

	ret	0
_DIVREM_UNIT ENDP
_TEXT	ENDS
; Function compile flags: /Ogtpy
; File z:\sources\lunor\repos\rougemeilland\palmtree.math.core.implements\palmtree.math.core.implements\pmc_internal.h
;	COMDAT _MULTIPLYX_UNIT_DIV
_TEXT	SEGMENT
u$ = 8
v$ = 16
w_hi$ = 24
_MULTIPLYX_UNIT_DIV PROC				; COMDAT

; 639  : #ifdef _MSC_VER
; 640  :     return (_FROMDWORDTOWORD((_UINT64_T)u * v, w_hi));

	mov	eax, ecx
	mov	ecx, edx
	imul	rax, rcx

; 459  :     *result_high = (_UINT32_T)(value >> 32);

	mov	rcx, rax
	shr	rcx, 32					; 00000020H
	mov	DWORD PTR [r8], ecx

; 641  : #elif defined(__GNUC__)
; 642  : #ifdef _M_IX86
; 643  :     _UINT32_T w_lo;
; 644  :     __asm__("mulxl %3, %0, %1" : "=r"(w_lo), "=r"(*w_hi), "+d"(u) : "rm"(v));
; 645  :     return (w_lo);
; 646  : #elif defined(_M_X64)
; 647  :     _UINT64_T w_lo;
; 648  :     __asm__("mulxq %3, %0, %1" : "=r"(w_lo), "=r"(*w_hi), "+d"(u) : "rm"(v));
; 649  :     return (w_lo);
; 650  : #else
; 651  : #error unknown platform
; 652  : #endif
; 653  : #else
; 654  : #error unknown compiler
; 655  : #endif
; 656  : }

	ret	0
_MULTIPLYX_UNIT_DIV ENDP
_TEXT	ENDS
; Function compile flags: /Ogtpy
; File z:\sources\lunor\repos\rougemeilland\palmtree.math.core.implements\palmtree.math.core.implements\pmc_internal.h
;	COMDAT _MULTIPLY_UNIT_DIV
_TEXT	SEGMENT
u$ = 8
v$ = 16
w_hi$ = 24
_MULTIPLY_UNIT_DIV PROC					; COMDAT

; 593  : #ifdef _MSC_VER
; 594  :     return (_FROMDWORDTOWORD((_UINT64_T)u * v, w_hi));

	mov	eax, ecx
	mov	ecx, edx
	imul	rax, rcx

; 459  :     *result_high = (_UINT32_T)(value >> 32);

	mov	rcx, rax
	shr	rcx, 32					; 00000020H
	mov	DWORD PTR [r8], ecx

; 595  : #elif defined(__GNUC__)
; 596  : #ifdef _M_IX86
; 597  :     _UINT32_T w_lo;
; 598  :     __asm__("mull %3": "=a"(w_lo), "=d"(*w_hi) : "0"(u), "rm"(v));
; 599  :     return (w_lo);
; 600  : #elif defined(_M_X64)
; 601  :     return (_umul128(u, v, w_hi));
; 602  : #else
; 603  : #error unknown platform
; 604  : #endif
; 605  : #else
; 606  : #error unknown compiler
; 607  : #endif
; 608  : }

	ret	0
_MULTIPLY_UNIT_DIV ENDP
_TEXT	ENDS
; Function compile flags: /Ogtpy
; File z:\sources\lunor\repos\rougemeilland\palmtree.math.core.implements\palmtree.math.core.implements\pmc_internal.h
;	COMDAT _SUBTRUCT_UNIT_DIV
_TEXT	SEGMENT
borrow$ = 8
u$ = 16
v$ = 24
w$ = 32
_SUBTRUCT_UNIT_DIV PROC					; COMDAT

; 557  : #ifdef _MSC_VER
; 558  :     return (_subborrow_u32(borrow, u, v, w));

	add	cl, -1
	sbb	edx, r8d
	mov	DWORD PTR [r9], edx
	setb	al

; 559  : #elif defined(__GNUC__)
; 560  : #ifdef _M_IX86
; 561  :     return (_subborrow_u32(borrow, u, v, w));
; 562  : #elif defined(_M_X64)
; 563  :     return (_subborrow_u64(borrow, u, v, w));
; 564  : #else
; 565  : #error unknown platform
; 566  : #endif
; 567  : #else
; 568  : #error unknown compiler
; 569  : #endif
; 570  : }

	ret	0
_SUBTRUCT_UNIT_DIV ENDP
_TEXT	ENDS
; Function compile flags: /Ogtpy
; File z:\sources\lunor\repos\rougemeilland\palmtree.math.core.implements\palmtree.math.core.implements\pmc_internal.h
;	COMDAT _ADDX_UNIT_DIV
_TEXT	SEGMENT
carry$ = 8
u$ = 16
v$ = 24
w$ = 32
_ADDX_UNIT_DIV PROC					; COMDAT

; 529  : #ifdef _MSC_VER
; 530  :     return (_addcarryx_u32(carry, u, v, w));

	add	cl, -1
	adcx	edx, r8d
	mov	DWORD PTR [r9], edx
	setb	al

; 531  : #elif defined(__GNUC__)
; 532  : #ifdef _M_IX86
; 533  :     return (_addcarryx_u32(carry, u, v, w));
; 534  : #elif defined(_M_X64)
; 535  :     return (_addcarryx_u64(carry, u, v, w));
; 536  : #else
; 537  : #error unknown platform
; 538  : #endif
; 539  : #else
; 540  : #error unknown compiler
; 541  : #endif
; 542  : }

	ret	0
_ADDX_UNIT_DIV ENDP
_TEXT	ENDS
; Function compile flags: /Ogtpy
; File z:\sources\lunor\repos\rougemeilland\palmtree.math.core.implements\palmtree.math.core.implements\pmc_internal.h
;	COMDAT _ADD_UNIT_DIV
_TEXT	SEGMENT
carry$ = 8
u$ = 16
v$ = 24
w$ = 32
_ADD_UNIT_DIV PROC					; COMDAT

; 501  : #ifdef _MSC_VER
; 502  :     return (_addcarry_u32(carry, u, v, w));

	add	cl, -1
	adc	edx, r8d
	mov	DWORD PTR [r9], edx
	setb	al

; 503  : #elif defined(__GNUC__)
; 504  : #ifdef _M_IX86
; 505  :     return (_addcarry_u32(carry, u, v, w));
; 506  : #elif defined(_M_X64)
; 507  :     return (_addcarry_u64(carry, u, v, w));
; 508  : #else
; 509  : #error unknown platform
; 510  : #endif
; 511  : #else
; 512  : #error unknown compiler
; 513  : #endif
; 514  : }

	ret	0
_ADD_UNIT_DIV ENDP
_TEXT	ENDS
; Function compile flags: /Ogtpy
; File z:\sources\lunor\repos\rougemeilland\palmtree.math.core.implements\palmtree.math.core.implements\pmc_internal.h
;	COMDAT _FROMDWORDTOWORD
_TEXT	SEGMENT
value$ = 8
result_high$ = 16
_FROMDWORDTOWORD PROC					; COMDAT

; 459  :     *result_high = (_UINT32_T)(value >> 32);

	mov	rax, rcx
	shr	rax, 32					; 00000020H
	mov	DWORD PTR [rdx], eax

; 460  :     return ((_UINT32_T)value);

	mov	eax, ecx

; 461  : }

	ret	0
_FROMDWORDTOWORD ENDP
_TEXT	ENDS
; Function compile flags: /Ogtpy
; File z:\sources\lunor\repos\rougemeilland\palmtree.math.core.implements\palmtree.math.core.implements\pmc_internal.h
;	COMDAT _FROMWORDTODWORD
_TEXT	SEGMENT
value_high$ = 8
value_low$ = 16
_FROMWORDTODWORD PROC					; COMDAT

; 454  :     return (((_UINT64_T)value_high << 32) | value_low);

	mov	eax, ecx
	shl	rax, 32					; 00000020H
	mov	ecx, edx
	or	rax, rcx

; 455  : }

	ret	0
_FROMWORDTODWORD ENDP
_TEXT	ENDS
; Function compile flags: /Ogtpy
; File z:\sources\lunor\repos\rougemeilland\palmtree.math.core.implements\palmtree.math.core.implements\pmc_internal.h
;	COMDAT _COPY_MEMORY_UNIT_DIV
_TEXT	SEGMENT
d$ = 8
s$ = 16
count$ = 24
_COPY_MEMORY_UNIT_DIV PROC				; COMDAT

; 353  : {

	mov	QWORD PTR [rsp+8], rsi
	mov	QWORD PTR [rsp+16], rdi
	mov	rdi, rcx

; 354  : #ifdef _M_IX86
; 355  :     __movsd((unsigned long *)d, (unsigned long *)s, (unsigned long)count);
; 356  : #elif defined(_M_X64)
; 357  : #ifdef _MSC_VER
; 358  :     __movsd((unsigned long *)d, (unsigned long *)s, (unsigned long)count);

	mov	rsi, rdx
	mov	ecx, r8d
	rep movsd

; 359  : #elif defined(__GNUC__)
; 360  :     __movsq(d, s, count);
; 361  : #else
; 362  : #error unknown compiler
; 363  : #endif
; 364  : #else
; 365  : #error unknown platform
; 366  : #endif
; 367  : }

	mov	rsi, QWORD PTR [rsp+8]
	mov	rdi, QWORD PTR [rsp+16]
	ret	0
_COPY_MEMORY_UNIT_DIV ENDP
_TEXT	ENDS
; Function compile flags: /Ogtpy
; File z:\sources\lunor\repos\rougemeilland\palmtree.math.core.implements\palmtree.math.core.implements\pmc_internal.h
;	COMDAT _COPY_MEMORY_UNIT
_TEXT	SEGMENT
d$ = 8
s$ = 16
count$ = 24
_COPY_MEMORY_UNIT PROC					; COMDAT

; 342  : {

	mov	QWORD PTR [rsp+8], rsi
	mov	QWORD PTR [rsp+16], rdi

; 343  : #ifdef _M_IX86
; 344  :     __movsd((unsigned long *)d, (unsigned long *)s, (unsigned long)count);
; 345  : #elif defined(_M_X64)
; 346  :     __movsq(d, s, count);

	mov	rdi, rcx
	mov	rsi, rdx
	mov	rcx, r8
	rep movsq

; 347  : #else
; 348  : #error unknown platform
; 349  : #endif
; 350  : }

	mov	rsi, QWORD PTR [rsp+8]
	mov	rdi, QWORD PTR [rsp+16]
	ret	0
_COPY_MEMORY_UNIT ENDP
_TEXT	ENDS
; Function compile flags: /Ogtpy
; File z:\sources\lunor\repos\rougemeilland\palmtree.math.core.implements\palmtree.math.core.implements\pmc_divrem.c
;	COMDAT PMC_DivRem_X_X
_TEXT	SEGMENT
nr$ = 64
nq_light_check_code$1 = 72
nq_light_check_code$2 = 72
work_v_buf_code$3 = 80
nr_light_check_code$4 = 80
work_v_buf_words$5 = 88
nr_light_check_code$6 = 96
nq$ = 144
u$ = 144
v$ = 152
q$ = 160
r$ = 168
PMC_DivRem_X_X PROC					; COMDAT

; 1594 : {

$LN44:
	mov	QWORD PTR [rsp+24], rbx
	mov	QWORD PTR [rsp+32], rdi
	push	rbp
	push	r14
	push	r15
	mov	rbp, rsp
	sub	rsp, 112				; 00000070H
	mov	r14, r9
	mov	r15, r8
	mov	rbx, rdx
	mov	rdi, rcx

; 1595 :     if (u == NULL)

	test	rcx, rcx
	je	$LN34@PMC_DivRem

; 1596 :         return (PMC_STATUS_ARGUMENT_ERROR);
; 1597 :     if (v == NULL)

	test	rdx, rdx
	je	$LN34@PMC_DivRem

; 1598 :         return (PMC_STATUS_ARGUMENT_ERROR);
; 1599 :     if (q == NULL)

	test	r8, r8
	je	$LN34@PMC_DivRem

; 1600 :         return (PMC_STATUS_ARGUMENT_ERROR);
; 1601 :     if (r == NULL)

	test	r9, r9
	je	$LN34@PMC_DivRem

; 1603 :     NUMBER_HEADER* nu = (NUMBER_HEADER*)u;
; 1604 :     NUMBER_HEADER* nv = (NUMBER_HEADER*)v;
; 1605 :     PMC_STATUS_CODE result;
; 1606 :     if ((result = CheckNumber(nu)) != PMC_STATUS_OK)

	call	CheckNumber
	test	eax, eax
	jne	$LN1@PMC_DivRem

; 1607 :         return (result);
; 1608 :     if ((result = CheckNumber(nv)) != PMC_STATUS_OK)

	mov	rcx, rbx
	call	CheckNumber
	test	eax, eax
	jne	$LN1@PMC_DivRem

; 1609 :         return (result);
; 1610 :     if (nv->IS_ZERO)

	mov	eax, DWORD PTR [rbx+32]
	test	al, 2
	je	SHORT $LN8@PMC_DivRem

; 1611 :     {
; 1612 :         // v が 0 である場合
; 1613 : 
; 1614 :         // 0 による除算はエラーで返す
; 1615 :         return (PMC_STATUS_DIVISION_BY_ZERO);

	mov	eax, -3
	jmp	$LN1@PMC_DivRem
$LN8@PMC_DivRem:

; 1616 :     }
; 1617 :     NUMBER_HEADER* nq;
; 1618 :     NUMBER_HEADER* nr;
; 1619 :     if (nu->IS_ZERO)

	test	BYTE PTR [rdi+32], 2
	mov	QWORD PTR [rsp+152], rsi
	je	SHORT $LN9@PMC_DivRem

; 1620 :     {
; 1621 :         // u が 0 である場合
; 1622 : 
; 1623 :         // q = 0, r = 0 を返す
; 1624 :         nq = &number_zero;

	lea	rbx, OFFSET FLAT:number_zero
	mov	rax, rbx

; 1720 :                 CommitNumber(nq);
; 1721 :                 CommitNumber(nr);
; 1722 :                 if (nq->IS_ZERO)
; 1723 :                 {
; 1724 :                     DeallocateNumber(nq);
; 1725 :                     nq = &number_zero;
; 1726 :                 }
; 1727 :                 if (nr->IS_ZERO)
; 1728 :                 {
; 1729 :                     DeallocateNumber(nr);
; 1730 :                     nr = &number_zero;
; 1731 :                 }
; 1732 :             }
; 1733 :         }
; 1734 :     }
; 1735 :     *q = nq;

	mov	QWORD PTR [r15], rbx

; 1736 :     *r = nr;
; 1737 : #ifdef _DEBUG
; 1738 :     if ((result = CheckNumber(*q)) != PMC_STATUS_OK)
; 1739 :         return (result);
; 1740 :     if ((result = CheckNumber(*r)) != PMC_STATUS_OK)
; 1741 :         return (result);
; 1742 : #endif
; 1743 :     return (PMC_STATUS_OK);

	xor	eax, eax
	mov	QWORD PTR [r14], rbx
	mov	rcx, rbx
	jmp	$LN36@PMC_DivRem
$LN9@PMC_DivRem:

; 1625 :         nr = &number_zero;
; 1626 :     }
; 1627 :     else
; 1628 :     {
; 1629 :         // u が 0 ではない場合
; 1630 : 
; 1631 :         if (nv->IS_ONE)

	test	al, 4
	je	SHORT $LN11@PMC_DivRem

; 1632 :         {
; 1633 :             // v が 1 である場合
; 1634 : 
; 1635 :             // q = u, r = 0 を返す
; 1636 :             if ((result = DuplicateNumber(nu, &nq)) != PMC_STATUS_OK)

	lea	rdx, QWORD PTR nq$[rbp-112]
	mov	rcx, rdi
	call	DuplicateNumber
	test	eax, eax
	jne	$LN36@PMC_DivRem

; 1637 :                 return (result);
; 1638 :             nr = &number_zero;
; 1639 :         }

	mov	rax, QWORD PTR nq$[rbp-112]
	lea	rcx, OFFSET FLAT:number_zero

; 1720 :                 CommitNumber(nq);
; 1721 :                 CommitNumber(nr);
; 1722 :                 if (nq->IS_ZERO)
; 1723 :                 {
; 1724 :                     DeallocateNumber(nq);
; 1725 :                     nq = &number_zero;
; 1726 :                 }
; 1727 :                 if (nr->IS_ZERO)
; 1728 :                 {
; 1729 :                     DeallocateNumber(nr);
; 1730 :                     nr = &number_zero;
; 1731 :                 }
; 1732 :             }
; 1733 :         }
; 1734 :     }
; 1735 :     *q = nq;

	mov	QWORD PTR [r15], rax

; 1736 :     *r = nr;
; 1737 : #ifdef _DEBUG
; 1738 :     if ((result = CheckNumber(*q)) != PMC_STATUS_OK)
; 1739 :         return (result);
; 1740 :     if ((result = CheckNumber(*r)) != PMC_STATUS_OK)
; 1741 :         return (result);
; 1742 : #endif
; 1743 :     return (PMC_STATUS_OK);

	xor	eax, eax
	mov	QWORD PTR [r14], rcx
	jmp	$LN36@PMC_DivRem
$LN11@PMC_DivRem:

; 1640 :         else
; 1641 :         {
; 1642 :             // u > 0 かつ v > 1 である場合
; 1643 : 
; 1644 :             // x と y の商・剰余を計算する
; 1645 :             __UNIT_TYPE u_bit_count = nu->UNIT_BIT_COUNT;

	mov	rsi, QWORD PTR [rdi+8]

; 1646 :             __UNIT_TYPE v_bit_count = nv->UNIT_BIT_COUNT;

	mov	rcx, QWORD PTR [rbx+8]

; 1647 :             if (u_bit_count < v_bit_count)

	cmp	rsi, rcx
	jae	SHORT $LN14@PMC_DivRem

; 1648 :             {
; 1649 :                 // 明らかに u < v である場合
; 1650 : 
; 1651 :                 // q = 0, r = u を返す。
; 1652 :                 nq = &number_zero;

	lea	rbx, OFFSET FLAT:number_zero

; 1653 :                 if ((result = DuplicateNumber(nu, &nr)) != PMC_STATUS_OK)

	mov	rcx, rdi
	lea	rdx, QWORD PTR nr$[rbp-112]
	mov	QWORD PTR nq$[rbp-112], rbx
	call	DuplicateNumber
	test	eax, eax
	jne	$LN36@PMC_DivRem
	mov	rax, QWORD PTR nq$[rbp-112]
	mov	rcx, QWORD PTR nr$[rbp-112]

; 1720 :                 CommitNumber(nq);
; 1721 :                 CommitNumber(nr);
; 1722 :                 if (nq->IS_ZERO)
; 1723 :                 {
; 1724 :                     DeallocateNumber(nq);
; 1725 :                     nq = &number_zero;
; 1726 :                 }
; 1727 :                 if (nr->IS_ZERO)
; 1728 :                 {
; 1729 :                     DeallocateNumber(nr);
; 1730 :                     nr = &number_zero;
; 1731 :                 }
; 1732 :             }
; 1733 :         }
; 1734 :     }
; 1735 :     *q = nq;

	mov	QWORD PTR [r15], rax

; 1736 :     *r = nr;
; 1737 : #ifdef _DEBUG
; 1738 :     if ((result = CheckNumber(*q)) != PMC_STATUS_OK)
; 1739 :         return (result);
; 1740 :     if ((result = CheckNumber(*r)) != PMC_STATUS_OK)
; 1741 :         return (result);
; 1742 : #endif
; 1743 :     return (PMC_STATUS_OK);

	xor	eax, eax
	mov	QWORD PTR [r14], rcx
	jmp	$LN36@PMC_DivRem
$LN14@PMC_DivRem:

; 1654 :                     return (result);
; 1655 :             }
; 1656 :             else if (v_bit_count <= sizeof(__UNIT_TYPE_DIV) * 8)

	mov	rdx, rsi
	lea	r8, QWORD PTR nq_light_check_code$2[rbp-112]
	sub	rdx, rcx
	add	rdx, 65					; 00000041H
	cmp	rcx, 32					; 00000020H
	lea	rcx, QWORD PTR nq$[rbp-112]
	ja	$LN17@PMC_DivRem

; 1657 :             {
; 1658 :                 // 除数が 1 ワードで表現できる場合
; 1659 : 
; 1660 :                 __UNIT_TYPE q_bit_count = u_bit_count - v_bit_count + 1 + __UNIT_TYPE_BIT_COUNT; // 演算結果を格納するためには u_bit_count - v_bit_count + 1 だけあれば十分であるが、除算の作業用バッファも兼ねているので余分にとっている。
; 1661 :                 __UNIT_TYPE nq_light_check_code;
; 1662 :                 if ((result = AllocateNumber(&nq, q_bit_count, &nq_light_check_code)) != PMC_STATUS_OK)

	call	AllocateNumber
	test	eax, eax
	jne	SHORT $LN36@PMC_DivRem

; 1663 :                     return (result);
; 1664 :                 __UNIT_TYPE r_bit_count = sizeof(__UNIT_TYPE_DIV) * 8;
; 1665 :                 __UNIT_TYPE nr_light_check_code;
; 1666 :                 if ((result = AllocateNumber(&nr, r_bit_count, &nr_light_check_code)) != PMC_STATUS_OK)

	lea	r8, QWORD PTR nr_light_check_code$4[rbp-112]
	lea	edx, QWORD PTR [rax+32]
	lea	rcx, QWORD PTR nr$[rbp-112]
	call	AllocateNumber
	mov	esi, eax
	test	eax, eax
	jne	$LN42@PMC_DivRem

; 1667 :                 {
; 1668 :                     DeallocateNumber(nq);
; 1669 :                     return (result);
; 1670 :                 }
; 1671 :                 DivRem_X_1W((__UNIT_TYPE_DIV*)nu->BLOCK, nu->UNIT_WORD_COUNT * sizeof(__UNIT_TYPE) / sizeof(__UNIT_TYPE_DIV), (__UNIT_TYPE_DIV)nv->BLOCK[0], (__UNIT_TYPE_DIV*)nq->BLOCK, (__UNIT_TYPE_DIV*)nr->BLOCK);

	mov	rax, QWORD PTR nr$[rbp-112]
	mov	r8, QWORD PTR [rbx+48]
	mov	r9, QWORD PTR nq$[rbp-112]
	mov	rdx, QWORD PTR [rdi]
	mov	rcx, QWORD PTR [rax+48]
	mov	r8d, DWORD PTR [r8]
	mov	r9, QWORD PTR [r9+48]
	shl	rdx, 3
	mov	QWORD PTR [rsp+32], rcx
	mov	rcx, QWORD PTR [rdi+48]
	shr	rdx, 2
	call	DivRem_X_1W

; 1672 :                 if ((result = CheckBlockLight(nq->BLOCK, nq_light_check_code)) != PMC_STATUS_OK)

	mov	rcx, QWORD PTR nq$[rbp-112]
	mov	rdx, QWORD PTR nq_light_check_code$2[rbp-112]
	mov	rcx, QWORD PTR [rcx+48]
	call	CheckBlockLight
	test	eax, eax
	jne	SHORT $LN36@PMC_DivRem

; 1673 :                     return (result);
; 1674 :                 if ((result = CheckBlockLight(nr->BLOCK, nr_light_check_code)) != PMC_STATUS_OK)

	mov	rcx, QWORD PTR nr$[rbp-112]
	mov	rdx, QWORD PTR nr_light_check_code$4[rbp-112]
	mov	rcx, QWORD PTR [rcx+48]
	call	CheckBlockLight
	test	eax, eax
	je	$LN41@PMC_DivRem
$LN36@PMC_DivRem:
	mov	rsi, QWORD PTR [rsp+152]
$LN1@PMC_DivRem:

; 1744 : }

	lea	r11, QWORD PTR [rsp+112]
	mov	rbx, QWORD PTR [r11+48]
	mov	rdi, QWORD PTR [r11+56]
	mov	rsp, r11
	pop	r15
	pop	r14
	pop	rbp
	ret	0
$LN17@PMC_DivRem:

; 1675 :                     return (result);
; 1676 :                 CommitNumber(nq);
; 1677 :                 CommitNumber(nr);
; 1678 :                 if (nq->IS_ZERO)
; 1679 :                 {
; 1680 :                     DeallocateNumber(nq);
; 1681 :                     nq = &number_zero;
; 1682 :                 }
; 1683 :                 if (nr->IS_ZERO)
; 1684 :                 {
; 1685 :                     DeallocateNumber(nr);
; 1686 :                     nr = &number_zero;
; 1687 :                 }
; 1688 :             }
; 1689 :             else
; 1690 :             {
; 1691 :                 // 除数を表現するのに 2 ワード以上必要な場合
; 1692 :                 __UNIT_TYPE q_bit_count = u_bit_count - v_bit_count + 1 + __UNIT_TYPE_BIT_COUNT; // 演算結果を格納するためには u_bit_count - v_bit_count + 1 だけあれば十分であるが、除算の作業用バッファも兼ねているので余分にとっている。
; 1693 :                 __UNIT_TYPE r_bit_count = u_bit_count + __UNIT_TYPE_BIT_COUNT; // 演算結果を格納するためには v_bit_count だけあれば十分であるが、除算の作業用バッファも兼ねているので余分にとっている。
; 1694 :                 __UNIT_TYPE nq_light_check_code;
; 1695 :                 if ((result = AllocateNumber(&nq, q_bit_count, &nq_light_check_code)) != PMC_STATUS_OK)

	call	AllocateNumber
	test	eax, eax
	jne	SHORT $LN36@PMC_DivRem

; 1696 :                     return (result);
; 1697 :                 __UNIT_TYPE nr_light_check_code;
; 1698 :                 if ((result = AllocateNumber(&nr, r_bit_count, &nr_light_check_code)) != PMC_STATUS_OK)

	lea	rdx, QWORD PTR [rsi+64]
	lea	r8, QWORD PTR nr_light_check_code$6[rbp-112]
	lea	rcx, QWORD PTR nr$[rbp-112]
	call	AllocateNumber
	mov	esi, eax
	test	eax, eax
	je	SHORT $LN26@PMC_DivRem
$LN42@PMC_DivRem:

; 1699 :                 {
; 1700 :                     DeallocateNumber(nq);

	mov	rcx, QWORD PTR nq$[rbp-112]
	call	DeallocateNumber

; 1701 :                     return (result);

	mov	eax, esi
	jmp	SHORT $LN36@PMC_DivRem
$LN26@PMC_DivRem:

; 1702 :                 }
; 1703 :                 __UNIT_TYPE work_v_buf_code;
; 1704 :                 __UNIT_TYPE work_v_buf_words;
; 1705 :                 __UNIT_TYPE_DIV* work_v_buf = (__UNIT_TYPE_DIV*)AllocateBlock(nv->UNIT_WORD_COUNT * __UNIT_TYPE_BIT_COUNT, &work_v_buf_words, &work_v_buf_code);

	mov	rcx, QWORD PTR [rbx]
	lea	r8, QWORD PTR work_v_buf_code$3[rbp-112]
	shl	rcx, 6
	lea	rdx, QWORD PTR work_v_buf_words$5[rbp-112]
	call	AllocateBlock
	mov	rsi, rax

; 1706 :                 if (work_v_buf == NULL)

	test	rax, rax
	jne	SHORT $LN27@PMC_DivRem

; 1707 :                 {
; 1708 :                     DeallocateNumber(nq);

	mov	rcx, QWORD PTR nq$[rbp-112]
	call	DeallocateNumber

; 1709 :                     return (PMC_STATUS_NOT_ENOUGH_MEMORY);

	lea	eax, QWORD PTR [rsi-5]
	jmp	SHORT $LN36@PMC_DivRem
$LN27@PMC_DivRem:

; 1710 :                 }
; 1711 : 
; 1712 :                 (*fp_DivRem_X_X)((__UNIT_TYPE_DIV*)nu->BLOCK, nu->UNIT_WORD_COUNT * sizeof(__UNIT_TYPE) / sizeof(__UNIT_TYPE_DIV), (__UNIT_TYPE_DIV*)nv->BLOCK, nv->UNIT_WORD_COUNT * sizeof(__UNIT_TYPE) / sizeof(__UNIT_TYPE_DIV), work_v_buf, (__UNIT_TYPE_DIV*)nq->BLOCK, (__UNIT_TYPE_DIV*)nr->BLOCK);

	mov	rax, QWORD PTR nr$[rbp-112]
	mov	r9, QWORD PTR [rbx]
	mov	rdx, QWORD PTR [rdi]
	mov	r8, QWORD PTR [rbx+48]
	mov	rcx, QWORD PTR [rax+48]
	mov	rax, QWORD PTR nq$[rbp-112]
	mov	QWORD PTR [rsp+48], rcx
	shl	r9, 3
	shl	rdx, 3
	mov	rcx, QWORD PTR [rax+48]
	mov	QWORD PTR [rsp+40], rcx
	mov	rcx, QWORD PTR [rdi+48]
	shr	r9, 2
	shr	rdx, 2
	mov	QWORD PTR [rsp+32], rsi
	call	QWORD PTR fp_DivRem_X_X

; 1713 :                 if ((result = CheckBlockLight((__UNIT_TYPE*)work_v_buf, work_v_buf_code)) != PMC_STATUS_OK)

	mov	rdx, QWORD PTR work_v_buf_code$3[rbp-112]
	mov	rcx, rsi
	call	CheckBlockLight
	test	eax, eax
	jne	$LN36@PMC_DivRem

; 1714 :                     return (result);
; 1715 :                 if ((result = CheckBlockLight(nq->BLOCK, nq_light_check_code)) != PMC_STATUS_OK)

	mov	rcx, QWORD PTR nq$[rbp-112]
	mov	rdx, QWORD PTR nq_light_check_code$1[rbp-112]
	mov	rcx, QWORD PTR [rcx+48]
	call	CheckBlockLight
	test	eax, eax
	jne	$LN36@PMC_DivRem

; 1716 :                     return (result);
; 1717 :                 if ((result = CheckBlockLight(nq->BLOCK, nq_light_check_code)) != PMC_STATUS_OK)

	mov	rcx, QWORD PTR nq$[rbp-112]
	mov	rdx, QWORD PTR nq_light_check_code$1[rbp-112]
	mov	rcx, QWORD PTR [rcx+48]
	call	CheckBlockLight
	test	eax, eax
	jne	$LN36@PMC_DivRem

; 1718 :                     return (result);
; 1719 :                 DeallocateBlock((__UNIT_TYPE*)work_v_buf, work_v_buf_words);

	mov	rdx, QWORD PTR work_v_buf_words$5[rbp-112]
	mov	rcx, rsi
	call	DeallocateBlock
$LN41@PMC_DivRem:

; 1720 :                 CommitNumber(nq);
; 1721 :                 CommitNumber(nr);
; 1722 :                 if (nq->IS_ZERO)
; 1723 :                 {
; 1724 :                     DeallocateNumber(nq);
; 1725 :                     nq = &number_zero;
; 1726 :                 }
; 1727 :                 if (nr->IS_ZERO)
; 1728 :                 {
; 1729 :                     DeallocateNumber(nr);
; 1730 :                     nr = &number_zero;
; 1731 :                 }
; 1732 :             }
; 1733 :         }
; 1734 :     }
; 1735 :     *q = nq;

	mov	rcx, QWORD PTR nq$[rbp-112]
	call	CommitNumber
	mov	rcx, QWORD PTR nr$[rbp-112]
	call	CommitNumber
	mov	rax, QWORD PTR nq$[rbp-112]
	lea	rbx, OFFSET FLAT:number_zero
	test	BYTE PTR [rax+32], 2
	je	SHORT $LN31@PMC_DivRem
	mov	rcx, rax
	call	DeallocateNumber
	mov	rax, rbx
	mov	QWORD PTR nq$[rbp-112], rbx
$LN31@PMC_DivRem:
	mov	rcx, QWORD PTR nr$[rbp-112]
	test	BYTE PTR [rcx+32], 2
	je	SHORT $LN32@PMC_DivRem
	call	DeallocateNumber
	mov	rax, QWORD PTR nq$[rbp-112]
	mov	rcx, rbx
$LN32@PMC_DivRem:
	mov	QWORD PTR [r15], rax

; 1736 :     *r = nr;
; 1737 : #ifdef _DEBUG
; 1738 :     if ((result = CheckNumber(*q)) != PMC_STATUS_OK)
; 1739 :         return (result);
; 1740 :     if ((result = CheckNumber(*r)) != PMC_STATUS_OK)
; 1741 :         return (result);
; 1742 : #endif
; 1743 :     return (PMC_STATUS_OK);

	xor	eax, eax
	mov	QWORD PTR [r14], rcx
	jmp	$LN36@PMC_DivRem
$LN34@PMC_DivRem:

; 1602 :         return (PMC_STATUS_ARGUMENT_ERROR);

	mov	eax, -1
	jmp	$LN1@PMC_DivRem
PMC_DivRem_X_X ENDP
_TEXT	ENDS
; Function compile flags: /Ogtpy
; File z:\sources\lunor\repos\rougemeilland\palmtree.math.core.implements\palmtree.math.core.implements\pmc_divrem.c
; File z:\sources\lunor\repos\rougemeilland\palmtree.math.core.implements\palmtree.math.core.implements\pmc_internal.h
; File z:\sources\lunor\repos\rougemeilland\palmtree.math.core.implements\palmtree.math.core.implements\pmc_divrem.c
; File z:\sources\lunor\repos\rougemeilland\palmtree.math.core.implements\palmtree.math.core.implements\pmc_internal.h
; File z:\sources\lunor\repos\rougemeilland\palmtree.math.core.implements\palmtree.math.core.implements\pmc_divrem.c
; File z:\sources\lunor\repos\rougemeilland\palmtree.math.core.implements\palmtree.math.core.implements\pmc_internal.h
; File z:\sources\lunor\repos\rougemeilland\palmtree.math.core.implements\palmtree.math.core.implements\pmc_divrem.c
; File z:\sources\lunor\repos\rougemeilland\palmtree.math.core.implements\palmtree.math.core.implements\pmc_internal.h
; File z:\sources\lunor\repos\rougemeilland\palmtree.math.core.implements\palmtree.math.core.implements\pmc_divrem.c
; File z:\sources\lunor\repos\rougemeilland\palmtree.math.core.implements\palmtree.math.core.implements\pmc_internal.h
; File z:\sources\lunor\repos\rougemeilland\palmtree.math.core.implements\palmtree.math.core.implements\pmc_divrem.c
;	COMDAT PMC_DivRem_X_L
_TEXT	SEGMENT
nq$ = 64
v_buf$1 = 72
nq_light_check_code$2 = 72
nq_light_check_code$3 = 80
r_buf_code$4 = 88
r_buf_words$5 = 96
work_v_buf$6 = 160
r_buf$7 = 160
u$ = 160
v$ = 168
q$ = 176
r$ = 184
PMC_DivRem_X_L PROC					; COMDAT

; 1409 : {

$LN62:
	push	rbp
	push	rbx
	push	rsi
	push	rdi
	push	r12
	mov	rbp, rsp
	sub	rsp, 112				; 00000070H
	mov	rdi, r9
	mov	r12, r8
	mov	rsi, rdx
	mov	rbx, rcx

; 1410 :     if (sizeof(__UNIT_TYPE_DIV) * 2 < sizeof(v))
; 1411 :     {
; 1412 :         // _UINT64_T が 2 ワードで表現しきれない処理系には対応しない
; 1413 :         return (PMC_STATUS_INTERNAL_ERROR);
; 1414 :     }
; 1415 :     if (u == NULL)

	test	rcx, rcx
	je	$LN54@PMC_DivRem

; 1416 :         return (PMC_STATUS_ARGUMENT_ERROR);
; 1417 :     if (q == NULL)

	test	r8, r8
	je	$LN54@PMC_DivRem

; 1418 :         return (PMC_STATUS_ARGUMENT_ERROR);
; 1419 :     if (r == NULL)

	test	r9, r9
	je	$LN54@PMC_DivRem

; 1421 :     NUMBER_HEADER* nu = (NUMBER_HEADER*)u;
; 1422 :     PMC_STATUS_CODE result;
; 1423 :     if ((result = CheckNumber(nu)) != PMC_STATUS_OK)

	call	CheckNumber
	test	eax, eax
	jne	$LN1@PMC_DivRem

; 1424 :         return (result);
; 1425 :     if (v == 0)

	test	rsi, rsi
	jne	SHORT $LN7@PMC_DivRem

; 1426 :     {
; 1427 :         // v が 0 である場合
; 1428 : 
; 1429 :         // 0 による除算はエラーで返す
; 1430 :         return (PMC_STATUS_DIVISION_BY_ZERO);

	lea	eax, QWORD PTR [rsi-3]

; 1591 : }

	add	rsp, 112				; 00000070H
	pop	r12
	pop	rdi
	pop	rsi
	pop	rbx
	pop	rbp
	ret	0
$LN7@PMC_DivRem:

; 1431 :     }
; 1432 :     NUMBER_HEADER* nq;
; 1433 :     if (nu->IS_ZERO)

	test	BYTE PTR [rbx+32], 2
	mov	QWORD PTR [rsp+168], r14
	mov	QWORD PTR [rsp+176], r15
	je	SHORT $LN8@PMC_DivRem

; 1434 :     {
; 1435 :         // x が 0 である場合
; 1436 : 
; 1437 :         // q = 0, r = 0 を返す
; 1438 :         nq = &number_zero;
; 1439 :         *r = 0;

	xor	eax, eax

; 1540 :                         if (nq->IS_ZERO)
; 1541 :                         {
; 1542 :                             DeallocateNumber(nq);
; 1543 :                             nq = &number_zero;
; 1544 :                         }
; 1545 :                     }
; 1546 :                 }
; 1547 :             }
; 1548 :             else
; 1549 :             {
; 1550 :                 // _UINT64_T が 1 ワードで表現できる場合
; 1551 : 
; 1552 :                 // x と y の商・剰余を計算する
; 1553 :                 __UNIT_TYPE u_bit_count = nu->UNIT_BIT_COUNT;
; 1554 :                 __UNIT_TYPE v_bit_count = sizeof(v) * 8 - _LZCNT_ALT_UNIT((__UNIT_TYPE)v);
; 1555 :                 if (u_bit_count < v_bit_count)
; 1556 :                 {
; 1557 :                     // 明らかに u < v である場合
; 1558 : 
; 1559 :                     // q = 0, r = u を返す。
; 1560 :                     nq = &number_zero;
; 1561 :                     *r = nu->BLOCK[0];
; 1562 :                 }
; 1563 :                 else
; 1564 :                 {
; 1565 :                     __UNIT_TYPE q_bit_count = u_bit_count - v_bit_count + 1 + __UNIT_TYPE_BIT_COUNT; // 演算結果を格納するためには u_bit_count - v_bit_count + 1 だけあれば十分であるが、除算の作業用バッファも兼ねているので余分にとっている。
; 1566 :                     __UNIT_TYPE nq_light_check_code;
; 1567 :                     if ((result = AllocateNumber(&nq, q_bit_count, &nq_light_check_code)) != PMC_STATUS_OK)
; 1568 :                         return (result);
; 1569 :                     __UNIT_TYPE_DIV r_buf = 0;
; 1570 :                     DivRem_X_1W((__UNIT_TYPE_DIV*)nu->BLOCK, nu->UNIT_WORD_COUNT * sizeof(__UNIT_TYPE) / sizeof(__UNIT_TYPE_DIV), (__UNIT_TYPE_DIV)v, (__UNIT_TYPE_DIV*)nq->BLOCK, &r_buf);
; 1571 :                     if ((result = CheckBlockLight(nq->BLOCK, nq_light_check_code)) != PMC_STATUS_OK)
; 1572 :                         return (result);
; 1573 :                     CommitNumber(nq);
; 1574 :                     *r = r_buf;
; 1575 :                     if (nq->IS_ZERO)
; 1576 :                     {
; 1577 :                         DeallocateNumber(nq);
; 1578 :                         nq = &number_zero;
; 1579 :                     }
; 1580 :                 }
; 1581 :             }
; 1582 : 
; 1583 :         }
; 1584 :     }
; 1585 :     *q = nq;

	lea	rdx, OFFSET FLAT:number_zero
	mov	QWORD PTR [rdi], rax
	mov	QWORD PTR [r12], rdx

; 1586 : #ifdef _DEBUG
; 1587 :     if ((result = CheckNumber(nq)) != PMC_STATUS_OK)
; 1588 :         return (result);
; 1589 : #endif
; 1590 :     return (PMC_STATUS_OK);

	jmp	$LN56@PMC_DivRem
$LN8@PMC_DivRem:

; 1440 :     }
; 1441 :     else
; 1442 :     {
; 1443 :         // u が 0 ではない場合
; 1444 : 
; 1445 :         if (v == 1)

	cmp	rsi, 1
	jne	SHORT $LN10@PMC_DivRem

; 1446 :         {
; 1447 :             // v が 1 である場合
; 1448 : 
; 1449 :             // q = u, r = 0 を返す
; 1450 :             if ((result = DuplicateNumber(nu, &nq)) != PMC_STATUS_OK)

	lea	rdx, QWORD PTR nq$[rbp-112]
	mov	rcx, rbx
	call	DuplicateNumber
	test	eax, eax
	jne	$LN56@PMC_DivRem

; 1451 :                 return (result);
; 1452 :             *r = 0;
; 1453 :         }

	mov	rdx, QWORD PTR nq$[rbp-112]
	xor	eax, eax
	mov	QWORD PTR [rdi], rax

; 1540 :                         if (nq->IS_ZERO)
; 1541 :                         {
; 1542 :                             DeallocateNumber(nq);
; 1543 :                             nq = &number_zero;
; 1544 :                         }
; 1545 :                     }
; 1546 :                 }
; 1547 :             }
; 1548 :             else
; 1549 :             {
; 1550 :                 // _UINT64_T が 1 ワードで表現できる場合
; 1551 : 
; 1552 :                 // x と y の商・剰余を計算する
; 1553 :                 __UNIT_TYPE u_bit_count = nu->UNIT_BIT_COUNT;
; 1554 :                 __UNIT_TYPE v_bit_count = sizeof(v) * 8 - _LZCNT_ALT_UNIT((__UNIT_TYPE)v);
; 1555 :                 if (u_bit_count < v_bit_count)
; 1556 :                 {
; 1557 :                     // 明らかに u < v である場合
; 1558 : 
; 1559 :                     // q = 0, r = u を返す。
; 1560 :                     nq = &number_zero;
; 1561 :                     *r = nu->BLOCK[0];
; 1562 :                 }
; 1563 :                 else
; 1564 :                 {
; 1565 :                     __UNIT_TYPE q_bit_count = u_bit_count - v_bit_count + 1 + __UNIT_TYPE_BIT_COUNT; // 演算結果を格納するためには u_bit_count - v_bit_count + 1 だけあれば十分であるが、除算の作業用バッファも兼ねているので余分にとっている。
; 1566 :                     __UNIT_TYPE nq_light_check_code;
; 1567 :                     if ((result = AllocateNumber(&nq, q_bit_count, &nq_light_check_code)) != PMC_STATUS_OK)
; 1568 :                         return (result);
; 1569 :                     __UNIT_TYPE_DIV r_buf = 0;
; 1570 :                     DivRem_X_1W((__UNIT_TYPE_DIV*)nu->BLOCK, nu->UNIT_WORD_COUNT * sizeof(__UNIT_TYPE) / sizeof(__UNIT_TYPE_DIV), (__UNIT_TYPE_DIV)v, (__UNIT_TYPE_DIV*)nq->BLOCK, &r_buf);
; 1571 :                     if ((result = CheckBlockLight(nq->BLOCK, nq_light_check_code)) != PMC_STATUS_OK)
; 1572 :                         return (result);
; 1573 :                     CommitNumber(nq);
; 1574 :                     *r = r_buf;
; 1575 :                     if (nq->IS_ZERO)
; 1576 :                     {
; 1577 :                         DeallocateNumber(nq);
; 1578 :                         nq = &number_zero;
; 1579 :                     }
; 1580 :                 }
; 1581 :             }
; 1582 : 
; 1583 :         }
; 1584 :     }
; 1585 :     *q = nq;

	mov	QWORD PTR [r12], rdx

; 1586 : #ifdef _DEBUG
; 1587 :     if ((result = CheckNumber(nq)) != PMC_STATUS_OK)
; 1588 :         return (result);
; 1589 : #endif
; 1590 :     return (PMC_STATUS_OK);

	jmp	$LN56@PMC_DivRem
$LN10@PMC_DivRem:

; 1454 :         else
; 1455 :         {
; 1456 :             // u > 0 かつ v > 1 である場合
; 1457 : 
; 1458 :             // u と v の商・剰余を計算する
; 1459 :             __UNIT_TYPE u_bit_count = nu->UNIT_BIT_COUNT;

	mov	r14, QWORD PTR [rbx+8]
; File z:\sources\lunor\repos\rougemeilland\palmtree.math.core.implements\palmtree.math.core.implements\pmc_internal.h

; 459  :     *result_high = (_UINT32_T)(value >> 32);

	mov	r15, rsi
	shr	r15, 32					; 00000020H
; File z:\sources\lunor\repos\rougemeilland\palmtree.math.core.implements\palmtree.math.core.implements\pmc_divrem.c

; 1465 :                 if (v_hi == 0)

	test	r15d, r15d
	jne	$LN15@PMC_DivRem
; File z:\sources\lunor\repos\rougemeilland\palmtree.math.core.implements\palmtree.math.core.implements\pmc_internal.h

; 873  :     if (x == 0)

	lea	edx, QWORD PTR [r15+32]
	test	esi, esi
	jne	SHORT $LN42@PMC_DivRem

; 874  :         return (sizeof(x) * 8);

	mov	ecx, edx
	jmp	SHORT $LN41@PMC_DivRem
$LN42@PMC_DivRem:

; 877  :     _BitScanReverse(&pos, x);

	bsr	eax, esi

; 878  : #elif defined(__GNUC__)
; 879  :     __asm__( "bsrl %1, %0" : "=r"(pos) : "rm"(x) );
; 880  : #else
; 881  : #error unknown compiler
; 882  : #endif
; 883  :     return (sizeof(x) * 8 - 1 - pos);

	mov	ecx, 31
	sub	ecx, eax
$LN41@PMC_DivRem:
; File z:\sources\lunor\repos\rougemeilland\palmtree.math.core.implements\palmtree.math.core.implements\pmc_divrem.c

; 1468 :                     __UNIT_TYPE v_bit_count = sizeof(v_lo) * 8 - _LZCNT_ALT_32(v_lo);

	movsxd	rax, ecx
	sub	rdx, rax

; 1469 :                     if (u_bit_count < v_bit_count)

	cmp	r14, rdx
	jb	$LN60@PMC_DivRem

; 1470 :                     {
; 1471 :                         // 明らかに u < v である場合
; 1472 : 
; 1473 :                         // q = 0, r = u を返す。
; 1474 :                         nq = &number_zero;
; 1475 :                         *r = nu->BLOCK[0];
; 1476 :                     }
; 1477 :                     else
; 1478 :                     {
; 1479 :                         __UNIT_TYPE q_bit_count = u_bit_count - v_bit_count + 1 + __UNIT_TYPE_BIT_COUNT; // 演算結果を格納するためには u_bit_count - v_bit_count + 1 だけあれば十分であるが、除算の作業用バッファも兼ねているので余分にとっている。
; 1480 :                         __UNIT_TYPE nq_light_check_code;
; 1481 :                         if ((result = AllocateNumber(&nq, q_bit_count, &nq_light_check_code)) != PMC_STATUS_OK)

	sub	r14, rdx
	lea	r8, QWORD PTR nq_light_check_code$2[rbp-112]
	lea	rcx, QWORD PTR nq$[rbp-112]
	lea	rdx, QWORD PTR [r14+65]
	call	AllocateNumber
	test	eax, eax
	jne	$LN56@PMC_DivRem

; 1482 :                             return (result);
; 1483 :                         __UNIT_TYPE_DIV r_buf = 0;
; 1484 :                         DivRem_X_1W((__UNIT_TYPE_DIV*)nu->BLOCK, nu->UNIT_WORD_COUNT * sizeof(__UNIT_TYPE) / sizeof(__UNIT_TYPE_DIV), v_lo, (__UNIT_TYPE_DIV*)nq->BLOCK, &r_buf);

	mov	r9, QWORD PTR nq$[rbp-112]
	xor	eax, eax
	mov	rdx, QWORD PTR [rbx]
	mov	r8d, esi
	mov	rcx, QWORD PTR [rbx+48]
	mov	DWORD PTR r_buf$7[rbp-112], eax
	lea	rax, QWORD PTR r_buf$7[rbp-112]
	mov	r9, QWORD PTR [r9+48]
	shl	rdx, 3
	shr	rdx, 2
	mov	QWORD PTR [rsp+32], rax
	call	DivRem_X_1W

; 1485 :                         if ((result = CheckBlockLight(nq->BLOCK, nq_light_check_code)) != PMC_STATUS_OK)

	mov	rcx, QWORD PTR nq$[rbp-112]
	mov	rdx, QWORD PTR nq_light_check_code$2[rbp-112]
	mov	rcx, QWORD PTR [rcx+48]
	call	CheckBlockLight
	test	eax, eax
	jne	$LN56@PMC_DivRem

; 1486 :                             return (result);
; 1487 :                         CommitNumber(nq);

	mov	rcx, QWORD PTR nq$[rbp-112]
	call	CommitNumber

; 1488 :                         *r = r_buf;

	mov	eax, DWORD PTR r_buf$7[rbp-112]
	mov	QWORD PTR [rdi], rax

; 1489 :                         if (nq->IS_ZERO)
; 1490 :                         {
; 1491 :                             DeallocateNumber(nq);
; 1492 :                             nq = &number_zero;
; 1493 :                         }
; 1494 :                     }
; 1495 :                 }

	jmp	$LN59@PMC_DivRem
$LN15@PMC_DivRem:
; File z:\sources\lunor\repos\rougemeilland\palmtree.math.core.implements\palmtree.math.core.implements\pmc_internal.h

; 877  :     _BitScanReverse(&pos, x);

	bsr	eax, r15d

; 878  : #elif defined(__GNUC__)
; 879  :     __asm__( "bsrl %1, %0" : "=r"(pos) : "rm"(x) );
; 880  : #else
; 881  : #error unknown compiler
; 882  : #endif
; 883  :     return (sizeof(x) * 8 - 1 - pos);

	mov	ecx, 31
	sub	ecx, eax
; File z:\sources\lunor\repos\rougemeilland\palmtree.math.core.implements\palmtree.math.core.implements\pmc_divrem.c

; 1499 :                     __UNIT_TYPE v_bit_count = sizeof(v) * 8 - _LZCNT_ALT_32(v_hi);

	movsxd	rax, ecx
	mov	ecx, 64					; 00000040H
	sub	rcx, rax

; 1500 :                     if (u_bit_count < v_bit_count)

	cmp	r14, rcx
	jae	SHORT $LN22@PMC_DivRem
$LN60@PMC_DivRem:

; 1540 :                         if (nq->IS_ZERO)
; 1541 :                         {
; 1542 :                             DeallocateNumber(nq);
; 1543 :                             nq = &number_zero;
; 1544 :                         }
; 1545 :                     }
; 1546 :                 }
; 1547 :             }
; 1548 :             else
; 1549 :             {
; 1550 :                 // _UINT64_T が 1 ワードで表現できる場合
; 1551 : 
; 1552 :                 // x と y の商・剰余を計算する
; 1553 :                 __UNIT_TYPE u_bit_count = nu->UNIT_BIT_COUNT;
; 1554 :                 __UNIT_TYPE v_bit_count = sizeof(v) * 8 - _LZCNT_ALT_UNIT((__UNIT_TYPE)v);
; 1555 :                 if (u_bit_count < v_bit_count)
; 1556 :                 {
; 1557 :                     // 明らかに u < v である場合
; 1558 : 
; 1559 :                     // q = 0, r = u を返す。
; 1560 :                     nq = &number_zero;
; 1561 :                     *r = nu->BLOCK[0];
; 1562 :                 }
; 1563 :                 else
; 1564 :                 {
; 1565 :                     __UNIT_TYPE q_bit_count = u_bit_count - v_bit_count + 1 + __UNIT_TYPE_BIT_COUNT; // 演算結果を格納するためには u_bit_count - v_bit_count + 1 だけあれば十分であるが、除算の作業用バッファも兼ねているので余分にとっている。
; 1566 :                     __UNIT_TYPE nq_light_check_code;
; 1567 :                     if ((result = AllocateNumber(&nq, q_bit_count, &nq_light_check_code)) != PMC_STATUS_OK)
; 1568 :                         return (result);
; 1569 :                     __UNIT_TYPE_DIV r_buf = 0;
; 1570 :                     DivRem_X_1W((__UNIT_TYPE_DIV*)nu->BLOCK, nu->UNIT_WORD_COUNT * sizeof(__UNIT_TYPE) / sizeof(__UNIT_TYPE_DIV), (__UNIT_TYPE_DIV)v, (__UNIT_TYPE_DIV*)nq->BLOCK, &r_buf);
; 1571 :                     if ((result = CheckBlockLight(nq->BLOCK, nq_light_check_code)) != PMC_STATUS_OK)
; 1572 :                         return (result);
; 1573 :                     CommitNumber(nq);
; 1574 :                     *r = r_buf;
; 1575 :                     if (nq->IS_ZERO)
; 1576 :                     {
; 1577 :                         DeallocateNumber(nq);
; 1578 :                         nq = &number_zero;
; 1579 :                     }
; 1580 :                 }
; 1581 :             }
; 1582 : 
; 1583 :         }
; 1584 :     }
; 1585 :     *q = nq;

	mov	rax, QWORD PTR [rbx+48]
	lea	rdx, OFFSET FLAT:number_zero
	mov	QWORD PTR nq$[rbp-112], rdx
	mov	rcx, QWORD PTR [rax]

; 1586 : #ifdef _DEBUG
; 1587 :     if ((result = CheckNumber(nq)) != PMC_STATUS_OK)
; 1588 :         return (result);
; 1589 : #endif
; 1590 :     return (PMC_STATUS_OK);

	xor	eax, eax
	mov	QWORD PTR [rdi], rcx
	mov	QWORD PTR [r12], rdx
	jmp	SHORT $LN56@PMC_DivRem
$LN22@PMC_DivRem:

; 1501 :                     {
; 1502 :                         // 明らかに u < v である場合
; 1503 : 
; 1504 :                         // q = 0, r = u を返す。
; 1505 :                         nq = &number_zero;
; 1506 :                         if (sizeof(v) == sizeof(__UNIT_TYPE))
; 1507 :                             *r = nu->BLOCK[0];
; 1508 :                         else
; 1509 :                         {
; 1510 :                             __UNIT_TYPE r_lo = nu->BLOCK[0];
; 1511 :                             __UNIT_TYPE r_hi = nu->UNIT_WORD_COUNT > 1 ? nu->BLOCK[1] : 0;
; 1512 :                             *r = _FROMWORDTODWORD((_UINT32_T)r_hi, (_UINT32_T)r_lo);
; 1513 :                         }
; 1514 :                     }
; 1515 :                     else
; 1516 :                     {
; 1517 :                         __UNIT_TYPE q_bit_count = u_bit_count - v_bit_count + 1 + __UNIT_TYPE_BIT_COUNT; // 演算結果を格納するためには u_bit_count - v_bit_count + 1 だけあれば十分であるが、除算の作業用バッファも兼ねているので余分にとっている。
; 1518 :                         __UNIT_TYPE r_bit_count = u_bit_count + __UNIT_TYPE_BIT_COUNT; // 演算結果を格納するためには v_bit_count だけあれば十分であるが、除算の作業用バッファも兼ねているので余分にとっている。
; 1519 :                         __UNIT_TYPE nq_light_check_code;
; 1520 :                         if ((result = AllocateNumber(&nq, q_bit_count, &nq_light_check_code)) != PMC_STATUS_OK)

	mov	rdx, r14
	lea	r8, QWORD PTR nq_light_check_code$3[rbp-112]
	sub	rdx, rcx
	lea	rcx, QWORD PTR nq$[rbp-112]
	add	rdx, 65					; 00000041H
	call	AllocateNumber
	test	eax, eax
	jne	SHORT $LN56@PMC_DivRem

; 1521 :                             return (result);
; 1522 :                         __UNIT_TYPE_DIV v_buf[] = { v_lo, v_hi };
; 1523 :                         __UNIT_TYPE_DIV work_v_buf[] = { 0, 0 };

	xor	eax, eax
	mov	DWORD PTR v_buf$1[rbp-112], esi
	lea	rcx, QWORD PTR [r14+64]
	mov	QWORD PTR work_v_buf$6[rbp-112], rax

; 1524 :                         __UNIT_TYPE r_buf_code;
; 1525 :                         __UNIT_TYPE r_buf_words;
; 1526 :                         __UNIT_TYPE_DIV* r_buf = (__UNIT_TYPE_DIV*)AllocateBlock(r_bit_count, &r_buf_words, &r_buf_code);

	lea	r8, QWORD PTR r_buf_code$4[rbp-112]
	mov	DWORD PTR v_buf$1[rbp-108], r15d
	lea	rdx, QWORD PTR r_buf_words$5[rbp-112]
	call	AllocateBlock
	mov	rsi, rax

; 1527 :                         if (r_buf == NULL)

	test	rax, rax
	jne	SHORT $LN27@PMC_DivRem

; 1528 :                         {
; 1529 :                             DeallocateNumber(nq);

	mov	rcx, QWORD PTR nq$[rbp-112]
	call	DeallocateNumber

; 1530 :                             return (PMC_STATUS_NOT_ENOUGH_MEMORY);

	lea	eax, QWORD PTR [rsi-5]
$LN56@PMC_DivRem:
	mov	r14, QWORD PTR [rsp+168]
	mov	r15, QWORD PTR [rsp+176]
$LN1@PMC_DivRem:

; 1591 : }

	add	rsp, 112				; 00000070H
	pop	r12
	pop	rdi
	pop	rsi
	pop	rbx
	pop	rbp
	ret	0
$LN27@PMC_DivRem:

; 1531 :                         }
; 1532 :                         (*fp_DivRem_X_X)((__UNIT_TYPE_DIV*)nu->BLOCK, nu->UNIT_WORD_COUNT * sizeof(__UNIT_TYPE) / sizeof(__UNIT_TYPE_DIV), v_buf, sizeof(v_buf) / sizeof(v_buf[0]), work_v_buf, (__UNIT_TYPE_DIV*)nq->BLOCK, r_buf);

	mov	rax, QWORD PTR nq$[rbp-112]
	lea	r8, QWORD PTR v_buf$1[rbp-112]
	mov	rdx, QWORD PTR [rbx]
	mov	r9d, 2
	shl	rdx, 3
	mov	QWORD PTR [rsp+48], rsi
	mov	rcx, QWORD PTR [rax+48]
	lea	rax, QWORD PTR work_v_buf$6[rbp-112]
	mov	QWORD PTR [rsp+40], rcx
	mov	rcx, QWORD PTR [rbx+48]
	shr	rdx, 2
	mov	QWORD PTR [rsp+32], rax
	call	QWORD PTR fp_DivRem_X_X

; 1533 :                         if ((result = CheckBlockLight(nq->BLOCK, nq_light_check_code)) != PMC_STATUS_OK)

	mov	rcx, QWORD PTR nq$[rbp-112]
	mov	rdx, QWORD PTR nq_light_check_code$3[rbp-112]
	mov	rcx, QWORD PTR [rcx+48]
	call	CheckBlockLight
	test	eax, eax
	jne	SHORT $LN56@PMC_DivRem

; 1534 :                             return (result);
; 1535 :                         if ((result = CheckBlockLight((__UNIT_TYPE*)r_buf, r_buf_code)) != PMC_STATUS_OK)

	mov	rdx, QWORD PTR r_buf_code$4[rbp-112]
	mov	rcx, rsi
	call	CheckBlockLight
	test	eax, eax
	jne	SHORT $LN56@PMC_DivRem

; 1536 :                             return (result);
; 1537 :                         CommitNumber(nq);

	mov	rcx, QWORD PTR nq$[rbp-112]
	call	CommitNumber
; File z:\sources\lunor\repos\rougemeilland\palmtree.math.core.implements\palmtree.math.core.implements\pmc_internal.h

; 454  :     return (((_UINT64_T)value_high << 32) | value_low);

	mov	ecx, DWORD PTR [rsi+4]
	mov	eax, DWORD PTR [rsi]
; File z:\sources\lunor\repos\rougemeilland\palmtree.math.core.implements\palmtree.math.core.implements\pmc_divrem.c

; 1539 :                         DeallocateBlock((__UNIT_TYPE*)r_buf, r_buf_words);

	mov	rdx, QWORD PTR r_buf_words$5[rbp-112]
; File z:\sources\lunor\repos\rougemeilland\palmtree.math.core.implements\palmtree.math.core.implements\pmc_internal.h

; 454  :     return (((_UINT64_T)value_high << 32) | value_low);

	shl	rcx, 32					; 00000020H
	or	rcx, rax
; File z:\sources\lunor\repos\rougemeilland\palmtree.math.core.implements\palmtree.math.core.implements\pmc_divrem.c

; 1538 :                         *r = _FROMWORDTODWORD((_UINT32_T)r_buf[1], (_UINT32_T)r_buf[0]);

	mov	QWORD PTR [rdi], rcx

; 1539 :                         DeallocateBlock((__UNIT_TYPE*)r_buf, r_buf_words);

	mov	rcx, rsi
	call	DeallocateBlock
$LN59@PMC_DivRem:

; 1540 :                         if (nq->IS_ZERO)
; 1541 :                         {
; 1542 :                             DeallocateNumber(nq);
; 1543 :                             nq = &number_zero;
; 1544 :                         }
; 1545 :                     }
; 1546 :                 }
; 1547 :             }
; 1548 :             else
; 1549 :             {
; 1550 :                 // _UINT64_T が 1 ワードで表現できる場合
; 1551 : 
; 1552 :                 // x と y の商・剰余を計算する
; 1553 :                 __UNIT_TYPE u_bit_count = nu->UNIT_BIT_COUNT;
; 1554 :                 __UNIT_TYPE v_bit_count = sizeof(v) * 8 - _LZCNT_ALT_UNIT((__UNIT_TYPE)v);
; 1555 :                 if (u_bit_count < v_bit_count)
; 1556 :                 {
; 1557 :                     // 明らかに u < v である場合
; 1558 : 
; 1559 :                     // q = 0, r = u を返す。
; 1560 :                     nq = &number_zero;
; 1561 :                     *r = nu->BLOCK[0];
; 1562 :                 }
; 1563 :                 else
; 1564 :                 {
; 1565 :                     __UNIT_TYPE q_bit_count = u_bit_count - v_bit_count + 1 + __UNIT_TYPE_BIT_COUNT; // 演算結果を格納するためには u_bit_count - v_bit_count + 1 だけあれば十分であるが、除算の作業用バッファも兼ねているので余分にとっている。
; 1566 :                     __UNIT_TYPE nq_light_check_code;
; 1567 :                     if ((result = AllocateNumber(&nq, q_bit_count, &nq_light_check_code)) != PMC_STATUS_OK)
; 1568 :                         return (result);
; 1569 :                     __UNIT_TYPE_DIV r_buf = 0;
; 1570 :                     DivRem_X_1W((__UNIT_TYPE_DIV*)nu->BLOCK, nu->UNIT_WORD_COUNT * sizeof(__UNIT_TYPE) / sizeof(__UNIT_TYPE_DIV), (__UNIT_TYPE_DIV)v, (__UNIT_TYPE_DIV*)nq->BLOCK, &r_buf);
; 1571 :                     if ((result = CheckBlockLight(nq->BLOCK, nq_light_check_code)) != PMC_STATUS_OK)
; 1572 :                         return (result);
; 1573 :                     CommitNumber(nq);
; 1574 :                     *r = r_buf;
; 1575 :                     if (nq->IS_ZERO)
; 1576 :                     {
; 1577 :                         DeallocateNumber(nq);
; 1578 :                         nq = &number_zero;
; 1579 :                     }
; 1580 :                 }
; 1581 :             }
; 1582 : 
; 1583 :         }
; 1584 :     }
; 1585 :     *q = nq;

	mov	rdx, QWORD PTR nq$[rbp-112]
	test	BYTE PTR [rdx+32], 2
	je	SHORT $LN30@PMC_DivRem
	mov	rcx, rdx
	call	DeallocateNumber
	lea	rdx, OFFSET FLAT:number_zero
$LN30@PMC_DivRem:
	mov	QWORD PTR [r12], rdx

; 1586 : #ifdef _DEBUG
; 1587 :     if ((result = CheckNumber(nq)) != PMC_STATUS_OK)
; 1588 :         return (result);
; 1589 : #endif
; 1590 :     return (PMC_STATUS_OK);

	xor	eax, eax
	jmp	$LN56@PMC_DivRem
$LN54@PMC_DivRem:

; 1420 :         return (PMC_STATUS_ARGUMENT_ERROR);

	mov	eax, -1

; 1591 : }

	add	rsp, 112				; 00000070H
	pop	r12
	pop	rdi
	pop	rsi
	pop	rbx
	pop	rbp
	ret	0
PMC_DivRem_X_L ENDP
_TEXT	ENDS
; Function compile flags: /Ogtpy
; File z:\sources\lunor\repos\rougemeilland\palmtree.math.core.implements\palmtree.math.core.implements\pmc_divrem.c
; File z:\sources\lunor\repos\rougemeilland\palmtree.math.core.implements\palmtree.math.core.implements\pmc_internal.h
; File z:\sources\lunor\repos\rougemeilland\palmtree.math.core.implements\palmtree.math.core.implements\pmc_divrem.c
;	COMDAT PMC_DivRem_X_I
_TEXT	SEGMENT
nq$ = 48
nq_light_check_code$1 = 56
r_buf$2 = 80
u$ = 80
v$ = 88
q$ = 96
r$ = 104
PMC_DivRem_X_I PROC					; COMDAT

; 1154 : {

$LN25:
	mov	QWORD PTR [rsp+16], rbx
	mov	QWORD PTR [rsp+24], rsi
	mov	QWORD PTR [rsp+32], rdi
	push	r14
	sub	rsp, 64					; 00000040H
	mov	rdi, r9
	mov	r14, r8
	mov	esi, edx
	mov	rbx, rcx

; 1155 :     if (sizeof(__UNIT_TYPE_DIV) < sizeof(v))
; 1156 :     {
; 1157 :         // _UINT32_T が 1 ワードで表現しきれない処理系には対応しない
; 1158 :         return (PMC_STATUS_INTERNAL_ERROR);
; 1159 :     }
; 1160 :     if (u == NULL)

	test	rcx, rcx
	je	$LN22@PMC_DivRem

; 1161 :         return (PMC_STATUS_ARGUMENT_ERROR);
; 1162 :     if (q == NULL)

	test	r8, r8
	je	$LN22@PMC_DivRem

; 1163 :         return (PMC_STATUS_ARGUMENT_ERROR);
; 1164 :     if (r == NULL)

	test	r9, r9
	je	$LN22@PMC_DivRem

; 1166 :     NUMBER_HEADER* nu = (NUMBER_HEADER*)u;
; 1167 :     PMC_STATUS_CODE result;
; 1168 :     if ((result = CheckNumber(nu)) != PMC_STATUS_OK)

	call	CheckNumber
	test	eax, eax
	jne	$LN1@PMC_DivRem

; 1169 :         return (result);
; 1170 :     if (v == 0)

	test	esi, esi
	jne	SHORT $LN7@PMC_DivRem

; 1171 :     {
; 1172 :         // v が 0 である場合
; 1173 : 
; 1174 :         // 0 による除算はエラーで返す
; 1175 :         return (PMC_STATUS_DIVISION_BY_ZERO);

	lea	eax, QWORD PTR [rsi-3]
	jmp	$LN1@PMC_DivRem
$LN7@PMC_DivRem:

; 1176 :     }
; 1177 :     NUMBER_HEADER* nq;
; 1178 :     if (nu->IS_ZERO)

	test	BYTE PTR [rbx+32], 2
	je	SHORT $LN8@PMC_DivRem

; 1229 :                     nq = &number_zero;
; 1230 :                 }
; 1231 :             }
; 1232 :         }
; 1233 :     }
; 1234 :     *q = nq;

	lea	rdx, OFFSET FLAT:number_zero
	mov	DWORD PTR [rdi], 0
	mov	QWORD PTR [r14], rdx

; 1235 : #ifdef _DEBUG
; 1236 :     if ((result = CheckNumber(nq)) != PMC_STATUS_OK)
; 1237 :         return (result);
; 1238 : #endif
; 1239 :     return (PMC_STATUS_OK);

	xor	eax, eax
	jmp	$LN1@PMC_DivRem
$LN8@PMC_DivRem:

; 1179 :     {
; 1180 :         // u が 0 である場合
; 1181 : 
; 1182 :         // q = 0, r = 0 を返す
; 1183 :         nq = &number_zero;
; 1184 :         *r = 0;
; 1185 :     }
; 1186 :     else
; 1187 :     {
; 1188 :         // u が 0 ではない場合
; 1189 : 
; 1190 :         if (v == 1)

	cmp	esi, 1
	jne	SHORT $LN10@PMC_DivRem

; 1191 :         {
; 1192 :             // v が 1 である場合
; 1193 : 
; 1194 :             // q = u, r = 0 を返す
; 1195 :             if ((result = DuplicateNumber(nu, &nq)) != PMC_STATUS_OK)

	lea	rdx, QWORD PTR nq$[rsp]
	mov	rcx, rbx
	call	DuplicateNumber
	test	eax, eax
	jne	$LN1@PMC_DivRem

; 1196 :                 return (result);
; 1197 :             *r = 0;
; 1198 :         }

	mov	rdx, QWORD PTR nq$[rsp]
	mov	DWORD PTR [rdi], eax

; 1229 :                     nq = &number_zero;
; 1230 :                 }
; 1231 :             }
; 1232 :         }
; 1233 :     }
; 1234 :     *q = nq;

	mov	QWORD PTR [r14], rdx

; 1235 : #ifdef _DEBUG
; 1236 :     if ((result = CheckNumber(nq)) != PMC_STATUS_OK)
; 1237 :         return (result);
; 1238 : #endif
; 1239 :     return (PMC_STATUS_OK);

	jmp	$LN1@PMC_DivRem
$LN10@PMC_DivRem:

; 1199 :         else
; 1200 :         {
; 1201 :             // u と v がともに 0 ではない場合
; 1202 : 
; 1203 :             // x と y の商・剰余を計算する
; 1204 :             __UNIT_TYPE u_bit_count = nu->UNIT_BIT_COUNT;

	mov	rdx, QWORD PTR [rbx+8]
; File z:\sources\lunor\repos\rougemeilland\palmtree.math.core.implements\palmtree.math.core.implements\pmc_internal.h

; 883  :     return (sizeof(x) * 8 - 1 - pos);

	mov	ecx, 31
	bsr	eax, esi
	sub	ecx, eax
; File z:\sources\lunor\repos\rougemeilland\palmtree.math.core.implements\palmtree.math.core.implements\pmc_divrem.c

; 1205 :             __UNIT_TYPE v_bit_count = sizeof(v) * 8 - _LZCNT_ALT_32(v);

	movsxd	rax, ecx
	mov	ecx, 32					; 00000020H
	sub	rcx, rax

; 1206 :             if (u_bit_count < v_bit_count)

	cmp	rdx, rcx
	jae	SHORT $LN13@PMC_DivRem

; 1207 :             {
; 1208 :                 // 明らかに u < v である場合
; 1209 : 
; 1210 :                 // q = 0, r = u を返す。
; 1211 :                 nq = &number_zero;
; 1212 :                 *r = (_UINT32_T)nu->BLOCK[0];

	mov	rax, QWORD PTR [rbx+48]
	lea	rdx, OFFSET FLAT:number_zero
	mov	QWORD PTR nq$[rsp], rdx
	mov	ecx, DWORD PTR [rax]

; 1235 : #ifdef _DEBUG
; 1236 :     if ((result = CheckNumber(nq)) != PMC_STATUS_OK)
; 1237 :         return (result);
; 1238 : #endif
; 1239 :     return (PMC_STATUS_OK);

	xor	eax, eax
	mov	DWORD PTR [rdi], ecx
	mov	QWORD PTR [r14], rdx
	jmp	$LN1@PMC_DivRem
$LN13@PMC_DivRem:

; 1213 :             }
; 1214 :             else
; 1215 :             {
; 1216 :                 __UNIT_TYPE q_bit_count = u_bit_count - v_bit_count + 1 + __UNIT_TYPE_BIT_COUNT; // 演算結果を格納するためには u_bit_count - v_bit_count + 1 だけあれば十分であるが、除算の作業用バッファも兼ねているので余分にとっている。
; 1217 :                 __UNIT_TYPE nq_light_check_code;
; 1218 :                 if ((result = AllocateNumber(&nq, q_bit_count, &nq_light_check_code)) != PMC_STATUS_OK)

	sub	rdx, rcx
	lea	r8, QWORD PTR nq_light_check_code$1[rsp]
	add	rdx, 65					; 00000041H
	lea	rcx, QWORD PTR nq$[rsp]
	call	AllocateNumber
	test	eax, eax
	jne	SHORT $LN1@PMC_DivRem

; 1219 :                     return (result);
; 1220 :                 __UNIT_TYPE_DIV r_buf = 0;
; 1221 :                 DivRem_X_1W((__UNIT_TYPE_DIV*)nu->BLOCK, nu->UNIT_WORD_COUNT * sizeof(__UNIT_TYPE) / sizeof(__UNIT_TYPE_DIV), v, (__UNIT_TYPE_DIV*)nq->BLOCK, &r_buf);

	mov	r9, QWORD PTR nq$[rsp]
	mov	r8d, esi
	mov	rdx, QWORD PTR [rbx]
	mov	rcx, QWORD PTR [rbx+48]
	mov	DWORD PTR r_buf$2[rsp], eax
	lea	rax, QWORD PTR r_buf$2[rsp]
	mov	r9, QWORD PTR [r9+48]
	shl	rdx, 3
	shr	rdx, 2
	mov	QWORD PTR [rsp+32], rax
	call	DivRem_X_1W

; 1222 :                 if ((result = CheckBlockLight(nq->BLOCK, nq_light_check_code)) != PMC_STATUS_OK)

	mov	rcx, QWORD PTR nq$[rsp]
	mov	rdx, QWORD PTR nq_light_check_code$1[rsp]
	mov	rcx, QWORD PTR [rcx+48]
	call	CheckBlockLight
	test	eax, eax
	jne	SHORT $LN1@PMC_DivRem

; 1223 :                     return (result);
; 1224 :                 CommitNumber(nq);

	mov	rcx, QWORD PTR nq$[rsp]
	call	CommitNumber

; 1225 :                 *r = (_UINT32_T)r_buf;
; 1226 :                 if (nq->IS_ZERO)

	mov	rdx, QWORD PTR nq$[rsp]
	mov	eax, DWORD PTR r_buf$2[rsp]
	mov	DWORD PTR [rdi], eax
	test	BYTE PTR [rdx+32], 2
	je	SHORT $LN17@PMC_DivRem

; 1227 :                 {
; 1228 :                     DeallocateNumber(nq);

	mov	rcx, rdx
	call	DeallocateNumber

; 1229 :                     nq = &number_zero;
; 1230 :                 }
; 1231 :             }
; 1232 :         }
; 1233 :     }
; 1234 :     *q = nq;

	lea	rdx, OFFSET FLAT:number_zero
$LN17@PMC_DivRem:
	mov	QWORD PTR [r14], rdx

; 1235 : #ifdef _DEBUG
; 1236 :     if ((result = CheckNumber(nq)) != PMC_STATUS_OK)
; 1237 :         return (result);
; 1238 : #endif
; 1239 :     return (PMC_STATUS_OK);

	xor	eax, eax
	jmp	SHORT $LN1@PMC_DivRem
$LN22@PMC_DivRem:

; 1165 :         return (PMC_STATUS_ARGUMENT_ERROR);

	mov	eax, -1
$LN1@PMC_DivRem:

; 1240 : }

	mov	rbx, QWORD PTR [rsp+88]
	mov	rsi, QWORD PTR [rsp+96]
	mov	rdi, QWORD PTR [rsp+104]
	add	rsp, 64					; 00000040H
	pop	r14
	ret	0
PMC_DivRem_X_I ENDP
_TEXT	ENDS
; Function compile flags: /Ogtpy
; File z:\sources\lunor\repos\rougemeilland\palmtree.math.core.implements\palmtree.math.core.implements\pmc_divrem.c
; File z:\sources\lunor\repos\rougemeilland\palmtree.math.core.implements\palmtree.math.core.implements\pmc_internal.h
; File z:\sources\lunor\repos\rougemeilland\palmtree.math.core.implements\palmtree.math.core.implements\pmc_divrem.c
; File z:\sources\lunor\repos\rougemeilland\palmtree.math.core.implements\palmtree.math.core.implements\pmc_internal.h
; File z:\sources\lunor\repos\rougemeilland\palmtree.math.core.implements\palmtree.math.core.implements\pmc_divrem.c
; File z:\sources\lunor\repos\rougemeilland\palmtree.math.core.implements\palmtree.math.core.implements\pmc_internal.h
; File z:\sources\lunor\repos\rougemeilland\palmtree.math.core.implements\palmtree.math.core.implements\pmc_divrem.c
; File z:\sources\lunor\repos\rougemeilland\palmtree.math.core.implements\palmtree.math.core.implements\pmc_internal.h
; File z:\sources\lunor\repos\rougemeilland\palmtree.math.core.implements\palmtree.math.core.implements\pmc_divrem.c
; File z:\sources\lunor\repos\rougemeilland\palmtree.math.core.implements\palmtree.math.core.implements\pmc_internal.h
; File z:\sources\lunor\repos\rougemeilland\palmtree.math.core.implements\palmtree.math.core.implements\pmc_divrem.c
; File z:\sources\lunor\repos\rougemeilland\palmtree.math.core.implements\palmtree.math.core.implements\pmc_internal.h
; File z:\sources\lunor\repos\rougemeilland\palmtree.math.core.implements\palmtree.math.core.implements\pmc_divrem.c
; File z:\sources\lunor\repos\rougemeilland\palmtree.math.core.implements\palmtree.math.core.implements\pmc_internal.h
; File z:\sources\lunor\repos\rougemeilland\palmtree.math.core.implements\palmtree.math.core.implements\pmc_divrem.c
; File z:\sources\lunor\repos\rougemeilland\palmtree.math.core.implements\palmtree.math.core.implements\pmc_internal.h
; File z:\sources\lunor\repos\rougemeilland\palmtree.math.core.implements\palmtree.math.core.implements\pmc_divrem.c
; File z:\sources\lunor\repos\rougemeilland\palmtree.math.core.implements\palmtree.math.core.implements\pmc_internal.h
; File z:\sources\lunor\repos\rougemeilland\palmtree.math.core.implements\palmtree.math.core.implements\pmc_divrem.c
;	COMDAT PMC_DivRem_L_X
_TEXT	SEGMENT
r_buf$1 = 64
u_buf$2 = 72
work_v_buf$3 = 80
u_buf$4 = 88
pos$5 = 96
q_buf$6 = 104
q_buf$7 = 120
r_buf$8 = 136
__$ArrayPad$ = 152
u$ = 208
v$ = 216
q$ = 224
r$ = 232
PMC_DivRem_L_X PROC					; COMDAT

; 1243 : {

$LN72:
	push	rbp
	push	rbx
	push	rsi
	push	rdi
	push	r14
	lea	rbp, QWORD PTR [rsp-55]
	sub	rsp, 160				; 000000a0H
	mov	rax, QWORD PTR __security_cookie
	xor	rax, rsp
	mov	QWORD PTR __$ArrayPad$[rbp-105], rax
	mov	rsi, r9
	mov	rdi, r8
	mov	r14, rdx
	mov	rbx, rcx

; 1244 :     if (sizeof(__UNIT_TYPE_DIV) * 2 < sizeof(u))
; 1245 :     {
; 1246 :         // _UINT64_T が 2 ワードで表現しきれない処理系には対応しない
; 1247 :         return (PMC_STATUS_INTERNAL_ERROR);
; 1248 :     }
; 1249 :     if (v == NULL)

	test	rdx, rdx
	je	$LN70@PMC_DivRem

; 1250 :         return (PMC_STATUS_ARGUMENT_ERROR);
; 1251 :     if (q == NULL)

	test	r8, r8
	je	$LN70@PMC_DivRem

; 1252 :         return (PMC_STATUS_ARGUMENT_ERROR);
; 1253 :     if (r == NULL)

	test	r9, r9
	je	$LN70@PMC_DivRem

; 1255 :     NUMBER_HEADER* nv = (NUMBER_HEADER*)v;
; 1256 :     PMC_STATUS_CODE result;
; 1257 :     if ((result = CheckNumber(nv)) != PMC_STATUS_OK)

	mov	rcx, rdx
	call	CheckNumber
	test	eax, eax
	jne	$LN1@PMC_DivRem

; 1258 :         return (result);
; 1259 :     if (nv->IS_ZERO)

	mov	eax, DWORD PTR [r14+32]
	test	al, 2
	je	SHORT $LN7@PMC_DivRem

; 1260 :     {
; 1261 :         // v が 0 である場合
; 1262 : 
; 1263 :         // 0 による除算はエラーで返す
; 1264 :         return (PMC_STATUS_DIVISION_BY_ZERO);

	mov	eax, -3
	jmp	$LN1@PMC_DivRem
$LN7@PMC_DivRem:

; 1265 :     }
; 1266 :     if (u == 0)

	test	rbx, rbx
	jne	SHORT $LN8@PMC_DivRem

; 1267 :     {
; 1268 :         // x が 0 である場合
; 1269 : 
; 1270 :         // q = 0, r = 0 を返す
; 1271 :         *q = 0;

	xor	eax, eax
	mov	QWORD PTR [rdi], rax

; 1272 :         *r = 0;

	mov	QWORD PTR [rsi], rax

; 1405 :     return (PMC_STATUS_OK);

	jmp	$LN1@PMC_DivRem
$LN8@PMC_DivRem:

; 1273 :     }
; 1274 :     else
; 1275 :     {
; 1276 :         // u が 0 ではない場合
; 1277 : 
; 1278 :         if (nv->IS_ONE)

	test	al, 4
	je	SHORT $LN10@PMC_DivRem

; 1279 :         {
; 1280 :             // v が 1 である場合
; 1281 : 
; 1282 :             // q = u, r = 0 を返す
; 1283 :             *q = u;
; 1284 :             *r = 0;

	xor	eax, eax
	mov	QWORD PTR [rdi], rbx
	mov	QWORD PTR [rsi], rax

; 1405 :     return (PMC_STATUS_OK);

	jmp	$LN1@PMC_DivRem
$LN10@PMC_DivRem:
; File z:\sources\lunor\repos\rougemeilland\palmtree.math.core.implements\palmtree.math.core.implements\pmc_internal.h

; 459  :     *result_high = (_UINT32_T)(value >> 32);

	mov	rdx, rbx
	shr	rdx, 32					; 00000020H
; File z:\sources\lunor\repos\rougemeilland\palmtree.math.core.implements\palmtree.math.core.implements\pmc_divrem.c

; 1296 :                 if (u_hi == 0)

	test	edx, edx
	jne	SHORT $LN14@PMC_DivRem
; File z:\sources\lunor\repos\rougemeilland\palmtree.math.core.implements\palmtree.math.core.implements\pmc_internal.h

; 873  :     if (x == 0)

	mov	edx, 32					; 00000020H
	test	ebx, ebx
	jne	SHORT $LN32@PMC_DivRem

; 874  :         return (sizeof(x) * 8);

	mov	ecx, edx
	jmp	SHORT $LN31@PMC_DivRem
$LN32@PMC_DivRem:

; 875  :     _UINT32_T pos;
; 876  : #ifdef _MSC_VER
; 877  :     _BitScanReverse(&pos, x);

	bsr	eax, ebx

; 883  :     return (sizeof(x) * 8 - 1 - pos);

	mov	ecx, 31
	mov	DWORD PTR pos$5[rbp-105], eax
	sub	ecx, eax
$LN31@PMC_DivRem:
; File z:\sources\lunor\repos\rougemeilland\palmtree.math.core.implements\palmtree.math.core.implements\pmc_divrem.c

; 1299 :                     __UNIT_TYPE u_bit_count = sizeof(u_lo) * 8 - _LZCNT_ALT_32(u_lo);

	movsxd	rax, ecx
	sub	rdx, rax

; 1300 :                     __UNIT_TYPE v_bit_count = nv->UNIT_BIT_COUNT;
; 1301 :                     if (u_bit_count < v_bit_count)

	mov	r9d, ebx
	cmp	rdx, QWORD PTR [r14+8]
	jae	SHORT $LN16@PMC_DivRem

; 1302 :                     {
; 1303 :                         // 明らかに u < v である場合
; 1304 : 
; 1305 :                         // q = 0, r = u を返す。
; 1306 :                         *q = 0;

	xor	eax, eax
	mov	QWORD PTR [rdi], rax

; 1307 :                         *r = u_lo;

	mov	QWORD PTR [rsi], r9

; 1405 :     return (PMC_STATUS_OK);

	jmp	$LN1@PMC_DivRem
$LN16@PMC_DivRem:

; 1315 :                         *q = _DIVREM_UNIT(0, u_lo, (__UNIT_TYPE_DIV)nv->BLOCK[0], &temp_r);

	mov	rcx, QWORD PTR [r14+48]
; File z:\sources\lunor\repos\rougemeilland\palmtree.math.core.implements\palmtree.math.core.implements\pmc_internal.h

; 667  :         return ((_UINT32_T)(t / v));

	xor	edx, edx
	mov	rax, r9
	mov	r8d, DWORD PTR [rcx]
	div	r8
	xor	edx, edx
; File z:\sources\lunor\repos\rougemeilland\palmtree.math.core.implements\palmtree.math.core.implements\pmc_divrem.c

; 1315 :                         *q = _DIVREM_UNIT(0, u_lo, (__UNIT_TYPE_DIV)nv->BLOCK[0], &temp_r);

	mov	ecx, eax
; File z:\sources\lunor\repos\rougemeilland\palmtree.math.core.implements\palmtree.math.core.implements\pmc_internal.h

; 666  :         *r = (_UINT32_T)(t % v);

	mov	rax, r9
	div	r8
; File z:\sources\lunor\repos\rougemeilland\palmtree.math.core.implements\palmtree.math.core.implements\pmc_divrem.c

; 1315 :                         *q = _DIVREM_UNIT(0, u_lo, (__UNIT_TYPE_DIV)nv->BLOCK[0], &temp_r);

	mov	QWORD PTR [rdi], rcx

; 1316 :                         *r = temp_r;

	mov	eax, edx
	mov	QWORD PTR [rsi], rax
; File z:\sources\lunor\repos\rougemeilland\palmtree.math.core.implements\palmtree.math.core.implements\pmc_internal.h

; 1068 :     _InterlockedIncrement(&statistics_info.COUNT_DIV64);

	lock inc DWORD PTR statistics_info+8
; File z:\sources\lunor\repos\rougemeilland\palmtree.math.core.implements\palmtree.math.core.implements\pmc_divrem.c

; 1405 :     return (PMC_STATUS_OK);

	xor	eax, eax
	jmp	$LN1@PMC_DivRem
$LN14@PMC_DivRem:

; 1329 :                     __UNIT_TYPE v_bit_count = nv->UNIT_BIT_COUNT;
; 1330 :                     if (u_bit_count < v_bit_count)

	mov	r8, QWORD PTR [r14+8]
; File z:\sources\lunor\repos\rougemeilland\palmtree.math.core.implements\palmtree.math.core.implements\pmc_internal.h

; 883  :     return (sizeof(x) * 8 - 1 - pos);

	mov	ecx, 31
	bsr	eax, edx
	sub	ecx, eax
; File z:\sources\lunor\repos\rougemeilland\palmtree.math.core.implements\palmtree.math.core.implements\pmc_divrem.c

; 1328 :                     __UNIT_TYPE u_bit_count = sizeof(u) * 8 - _LZCNT_ALT_32(u_hi);

	movsxd	rax, ecx
	mov	ecx, 64					; 00000040H
	sub	rcx, rax

; 1329 :                     __UNIT_TYPE v_bit_count = nv->UNIT_BIT_COUNT;
; 1330 :                     if (u_bit_count < v_bit_count)

	xor	eax, eax
	cmp	rcx, r8
	jae	SHORT $LN20@PMC_DivRem

; 1331 :                     {
; 1332 :                         // 明らかに u < v である場合
; 1333 : 
; 1334 :                         // q = 0, r = u を返す。
; 1335 :                         *q = 0;

	mov	QWORD PTR [rdi], rax

; 1336 :                         *r = u;

	mov	QWORD PTR [rsi], rbx

; 1405 :     return (PMC_STATUS_OK);

	jmp	$LN1@PMC_DivRem
$LN20@PMC_DivRem:

; 1337 :                     }
; 1338 :                     else
; 1339 :                     {
; 1340 :                         // u のビット長が 33 以上 64 以下であり、かつ、u のビット長が v のビット長以上(v のビット長は多くとも64以下)である場合
; 1341 : 
; 1342 :                         if (nv->UNIT_BIT_COUNT <= sizeof(__UNIT_TYPE_DIV) * 8)

	cmp	r8, 32					; 00000020H
	ja	SHORT $LN22@PMC_DivRem

; 1343 :                         {
; 1344 :                             // v が 32bit で表現できる場合
; 1345 : 
; 1346 :                             __UNIT_TYPE_DIV u_buf[] = { u_lo, u_hi };
; 1347 :                             __UNIT_TYPE_DIV q_buf[] = { 0, 0, 0 };

	mov	QWORD PTR q_buf$6[rbp-105], rax

; 1348 :                             __UNIT_TYPE_DIV r_buf;
; 1349 : 
; 1350 :                             DivRem_X_1W(u_buf, countof(u_buf), (__UNIT_TYPE_DIV)nv->BLOCK[0], q_buf, &r_buf);

	lea	rcx, QWORD PTR r_buf$1[rbp-105]
	mov	DWORD PTR q_buf$6[rbp-97], eax
	lea	r9, QWORD PTR q_buf$6[rbp-105]
	mov	rax, QWORD PTR [r14+48]
	mov	DWORD PTR u_buf$2[rbp-101], edx
	mov	edx, 2
	mov	QWORD PTR [rsp+32], rcx
	lea	rcx, QWORD PTR u_buf$2[rbp-105]
	mov	DWORD PTR u_buf$2[rbp-105], ebx
	mov	r8d, DWORD PTR [rax]
	call	DivRem_X_1W
; File z:\sources\lunor\repos\rougemeilland\palmtree.math.core.implements\palmtree.math.core.implements\pmc_internal.h

; 454  :     return (((_UINT64_T)value_high << 32) | value_low);

	mov	eax, DWORD PTR q_buf$6[rbp-105]
	mov	ecx, DWORD PTR q_buf$6[rbp-101]
	shl	rcx, 32					; 00000020H
	or	rcx, rax
; File z:\sources\lunor\repos\rougemeilland\palmtree.math.core.implements\palmtree.math.core.implements\pmc_divrem.c

; 1353 :                             *r = r_buf;

	mov	eax, DWORD PTR r_buf$1[rbp-105]
	mov	QWORD PTR [rdi], rcx
	mov	QWORD PTR [rsi], rax

; 1405 :     return (PMC_STATUS_OK);

	xor	eax, eax
	jmp	SHORT $LN1@PMC_DivRem
$LN22@PMC_DivRem:

; 1354 :                         }
; 1355 :                         else
; 1356 :                         {
; 1357 :                             // v が 32bit では表現できない場合
; 1358 : 
; 1359 :                             // この場合、2 ワード / 2 ワード の除算となるため、_DIVREM_UNIT 単発では計算できない。
; 1360 :                             __UNIT_TYPE_DIV u_buf[] = { u_lo, u_hi };
; 1361 :                             __UNIT_TYPE_DIV q_buf[] = { 0, 0, 0 };// 演算結果を格納するためには u のビット数 - v のビット数 + 1 ビットだけあれば十分であるが、除算の作業用バッファも兼ねているので余分にとっている。
; 1362 :                             __UNIT_TYPE_DIV r_buf[] = { 0, 0, 0 }; // 演算結果を格納するためには v と同じ大きさだけあれば十分であるが、除算の作業用バッファも兼ねているので余分にとっている。
; 1363 :                             __UNIT_TYPE_DIV work_v_buf[] = { 0, 0 };
; 1364 :                             (*fp_DivRem_X_X)(u_buf, countof(u_buf), (__UNIT_TYPE_DIV*)nv->BLOCK, nv->UNIT_WORD_COUNT * sizeof(__UNIT_TYPE) / sizeof(__UNIT_TYPE_DIV), work_v_buf, q_buf, r_buf);

	mov	r9, QWORD PTR [r14]
	lea	rcx, QWORD PTR u_buf$4[rbp-105]
	mov	r8, QWORD PTR [r14+48]
	mov	QWORD PTR q_buf$7[rbp-105], rax
	mov	DWORD PTR q_buf$7[rbp-97], eax
	mov	QWORD PTR r_buf$8[rbp-105], rax
	mov	DWORD PTR r_buf$8[rbp-97], eax
	mov	QWORD PTR work_v_buf$3[rbp-105], rax
	lea	rax, QWORD PTR r_buf$8[rbp-105]
	mov	QWORD PTR [rsp+48], rax
	lea	rax, QWORD PTR q_buf$7[rbp-105]
	mov	QWORD PTR [rsp+40], rax
	lea	rax, QWORD PTR work_v_buf$3[rbp-105]
	shl	r9, 3
	mov	DWORD PTR u_buf$4[rbp-101], edx
	mov	edx, 2
	shr	r9, 2
	mov	QWORD PTR [rsp+32], rax
	mov	DWORD PTR u_buf$4[rbp-105], ebx
	call	QWORD PTR fp_DivRem_X_X
; File z:\sources\lunor\repos\rougemeilland\palmtree.math.core.implements\palmtree.math.core.implements\pmc_internal.h

; 454  :     return (((_UINT64_T)value_high << 32) | value_low);

	mov	eax, DWORD PTR q_buf$7[rbp-105]
	mov	ecx, DWORD PTR q_buf$7[rbp-101]
	shl	rcx, 32					; 00000020H
	or	rcx, rax
	mov	eax, DWORD PTR r_buf$8[rbp-105]
; File z:\sources\lunor\repos\rougemeilland\palmtree.math.core.implements\palmtree.math.core.implements\pmc_divrem.c

; 1365 :                             *q = _FROMWORDTODWORD((_UINT32_T)q_buf[1], (_UINT32_T)q_buf[0]);

	mov	QWORD PTR [rdi], rcx
; File z:\sources\lunor\repos\rougemeilland\palmtree.math.core.implements\palmtree.math.core.implements\pmc_internal.h

; 454  :     return (((_UINT64_T)value_high << 32) | value_low);

	mov	ecx, DWORD PTR r_buf$8[rbp-101]
	shl	rcx, 32					; 00000020H
	or	rcx, rax
; File z:\sources\lunor\repos\rougemeilland\palmtree.math.core.implements\palmtree.math.core.implements\pmc_divrem.c

; 1366 :                             *r = _FROMWORDTODWORD((_UINT32_T)r_buf[1], (_UINT32_T)r_buf[0]);

	mov	QWORD PTR [rsi], rcx

; 1405 :     return (PMC_STATUS_OK);

	xor	eax, eax
	jmp	SHORT $LN1@PMC_DivRem
$LN70@PMC_DivRem:

; 1254 :         return (PMC_STATUS_ARGUMENT_ERROR);

	mov	eax, -1
$LN1@PMC_DivRem:

; 1406 : }

	mov	rcx, QWORD PTR __$ArrayPad$[rbp-105]
	xor	rcx, rsp
	call	__security_check_cookie
	add	rsp, 160				; 000000a0H
	pop	r14
	pop	rdi
	pop	rsi
	pop	rbx
	pop	rbp
	ret	0
PMC_DivRem_L_X ENDP
_TEXT	ENDS
; Function compile flags: /Ogtpy
; File z:\sources\lunor\repos\rougemeilland\palmtree.math.core.implements\palmtree.math.core.implements\pmc_divrem.c
; File z:\sources\lunor\repos\rougemeilland\palmtree.math.core.implements\palmtree.math.core.implements\pmc_internal.h
; File z:\sources\lunor\repos\rougemeilland\palmtree.math.core.implements\palmtree.math.core.implements\pmc_divrem.c
; File z:\sources\lunor\repos\rougemeilland\palmtree.math.core.implements\palmtree.math.core.implements\pmc_internal.h
; File z:\sources\lunor\repos\rougemeilland\palmtree.math.core.implements\palmtree.math.core.implements\pmc_divrem.c
; File z:\sources\lunor\repos\rougemeilland\palmtree.math.core.implements\palmtree.math.core.implements\pmc_internal.h
; File z:\sources\lunor\repos\rougemeilland\palmtree.math.core.implements\palmtree.math.core.implements\pmc_divrem.c
; File z:\sources\lunor\repos\rougemeilland\palmtree.math.core.implements\palmtree.math.core.implements\pmc_internal.h
; File z:\sources\lunor\repos\rougemeilland\palmtree.math.core.implements\palmtree.math.core.implements\pmc_divrem.c
;	COMDAT PMC_DivRem_I_X
_TEXT	SEGMENT
u$ = 48
pos$1 = 56
v$ = 56
q$ = 64
r$ = 72
PMC_DivRem_I_X PROC					; COMDAT

; 1075 : {

$LN34:
	mov	QWORD PTR [rsp+8], rbx
	mov	QWORD PTR [rsp+24], rbp
	mov	QWORD PTR [rsp+32], rsi
	push	rdi
	sub	rsp, 32					; 00000020H
	mov	esi, ecx
	mov	rbx, r9
	mov	rdi, r8
	mov	rbp, rdx

; 1076 :     if (sizeof(__UNIT_TYPE_DIV) < sizeof(u))
; 1077 :     {
; 1078 :         // _UINT32_T が 1 ワードで表現しきれない処理系には対応しない
; 1079 :         return (PMC_STATUS_INTERNAL_ERROR);
; 1080 :     }
; 1081 :     if (v == NULL)

	test	rdx, rdx
	je	$LN32@PMC_DivRem

; 1082 :         return (PMC_STATUS_ARGUMENT_ERROR);
; 1083 :     if (q == NULL)

	test	r8, r8
	je	$LN32@PMC_DivRem

; 1084 :         return (PMC_STATUS_ARGUMENT_ERROR);
; 1085 :     if (r == NULL)

	test	rbx, rbx
	je	SHORT $LN32@PMC_DivRem

; 1087 :     NUMBER_HEADER* nv = (NUMBER_HEADER*)v;
; 1088 :     PMC_STATUS_CODE result;
; 1089 :     if ((result = CheckNumber(nv)) != PMC_STATUS_OK)

	mov	rcx, rdx
	call	CheckNumber
	test	eax, eax
	jne	SHORT $LN1@PMC_DivRem

; 1090 :         return (result);
; 1091 :     if (nv->IS_ZERO)

	mov	eax, DWORD PTR [rbp+32]
	test	al, 2
	je	SHORT $LN7@PMC_DivRem

; 1092 :     {
; 1093 :         // v が 0 である場合
; 1094 : 
; 1095 :         // 0 による除算はエラーで返す
; 1096 :         return (PMC_STATUS_DIVISION_BY_ZERO);

	mov	eax, -3
	jmp	SHORT $LN1@PMC_DivRem
$LN7@PMC_DivRem:

; 1097 :     }
; 1098 :     if (u == 0)

	test	esi, esi
	jne	SHORT $LN8@PMC_DivRem

; 1099 :     {
; 1100 :         // u が 0 である場合
; 1101 : 
; 1102 :         // q = 0, r = 0 を返す
; 1103 :         *q = 0;

	xor	eax, eax
	mov	DWORD PTR [rdi], eax

; 1104 :         *r = 0;

	mov	DWORD PTR [rbx], eax

; 1150 :     return (PMC_STATUS_OK);

	jmp	SHORT $LN1@PMC_DivRem
$LN8@PMC_DivRem:

; 1105 :     }
; 1106 :     else
; 1107 :     {
; 1108 :         // u が 0 ではない場合
; 1109 : 
; 1110 :         if (nv->IS_ONE)

	test	al, 4
	je	SHORT $LN10@PMC_DivRem

; 1111 :         {
; 1112 :             // v が 1 である場合
; 1113 : 
; 1114 :             // q = u, r = 0 を返す
; 1115 :             *q = u;
; 1116 :             *r = 0;

	xor	eax, eax
	mov	DWORD PTR [rdi], esi
	mov	DWORD PTR [rbx], eax

; 1150 :     return (PMC_STATUS_OK);

	jmp	SHORT $LN1@PMC_DivRem
$LN10@PMC_DivRem:
; File z:\sources\lunor\repos\rougemeilland\palmtree.math.core.implements\palmtree.math.core.implements\pmc_internal.h

; 877  :     _BitScanReverse(&pos, x);

	bsr	ecx, esi

; 878  : #elif defined(__GNUC__)
; 879  :     __asm__( "bsrl %1, %0" : "=r"(pos) : "rm"(x) );
; 880  : #else
; 881  : #error unknown compiler
; 882  : #endif
; 883  :     return (sizeof(x) * 8 - 1 - pos);

	mov	eax, 31
	sub	eax, ecx
	mov	DWORD PTR pos$1[rsp], ecx
; File z:\sources\lunor\repos\rougemeilland\palmtree.math.core.implements\palmtree.math.core.implements\pmc_divrem.c

; 1123 :             __UNIT_TYPE u_bit_count = sizeof(u) * 8 - _LZCNT_ALT_32(u);

	cdqe
	mov	ecx, 32					; 00000020H
	sub	rcx, rax

; 1124 :             __UNIT_TYPE v_bit_count = nv->UNIT_BIT_COUNT;
; 1125 :             if (u_bit_count < v_bit_count)

	cmp	rcx, QWORD PTR [rbp+8]
	jae	SHORT $LN12@PMC_DivRem

; 1126 :             {
; 1127 :                 // 明らかに u < v である場合
; 1128 : 
; 1129 :                 // q = 0, r = u を返す。
; 1130 :                 *q = 0;

	xor	eax, eax
	mov	DWORD PTR [rdi], eax

; 1131 :                 *r = u;

	mov	DWORD PTR [rbx], esi

; 1150 :     return (PMC_STATUS_OK);

	jmp	SHORT $LN1@PMC_DivRem
$LN12@PMC_DivRem:

; 1139 :                 *q = _DIVREM_UNIT(0, u, (__UNIT_TYPE_DIV)nv->BLOCK[0], &temp_r);

	mov	rcx, QWORD PTR [rbp+48]
; File z:\sources\lunor\repos\rougemeilland\palmtree.math.core.implements\palmtree.math.core.implements\pmc_internal.h

; 667  :         return ((_UINT32_T)(t / v));

	xor	edx, edx
	mov	rax, rsi
	mov	r8d, DWORD PTR [rcx]
	div	r8
	xor	edx, edx
; File z:\sources\lunor\repos\rougemeilland\palmtree.math.core.implements\palmtree.math.core.implements\pmc_divrem.c

; 1139 :                 *q = _DIVREM_UNIT(0, u, (__UNIT_TYPE_DIV)nv->BLOCK[0], &temp_r);

	mov	DWORD PTR [rdi], eax
; File z:\sources\lunor\repos\rougemeilland\palmtree.math.core.implements\palmtree.math.core.implements\pmc_internal.h

; 666  :         *r = (_UINT32_T)(t % v);

	mov	rax, rsi
	div	r8
; File z:\sources\lunor\repos\rougemeilland\palmtree.math.core.implements\palmtree.math.core.implements\pmc_divrem.c

; 1140 :                 *r = temp_r;

	mov	DWORD PTR [rbx], edx
; File z:\sources\lunor\repos\rougemeilland\palmtree.math.core.implements\palmtree.math.core.implements\pmc_internal.h

; 1068 :     _InterlockedIncrement(&statistics_info.COUNT_DIV64);

	lock inc DWORD PTR statistics_info+8
; File z:\sources\lunor\repos\rougemeilland\palmtree.math.core.implements\palmtree.math.core.implements\pmc_divrem.c

; 1150 :     return (PMC_STATUS_OK);

	xor	eax, eax
	jmp	SHORT $LN1@PMC_DivRem
$LN32@PMC_DivRem:

; 1086 :         return (PMC_STATUS_ARGUMENT_ERROR);

	mov	eax, -1
$LN1@PMC_DivRem:

; 1151 : }

	mov	rbx, QWORD PTR [rsp+48]
	mov	rbp, QWORD PTR [rsp+64]
	mov	rsi, QWORD PTR [rsp+72]
	add	rsp, 32					; 00000020H
	pop	rdi
	ret	0
PMC_DivRem_I_X ENDP
_TEXT	ENDS
; Function compile flags: /Ogtpy
; File z:\sources\lunor\repos\rougemeilland\palmtree.math.core.implements\palmtree.math.core.implements\pmc_divrem.c
;	COMDAT Initialize_DivRem
_TEXT	SEGMENT
feature$ = 8
Initialize_DivRem PROC					; COMDAT

; 1747 : {

	mov	eax, DWORD PTR [rcx]

; 1748 :     fp_DivRem_X_X = feature->PROCESSOR_FEATURE_ADX && feature->PROCESSOR_FEATURE_BMI2 ? DivRem_X_X_using_ADX_MULX : DivRem_X_X_using_ADC_MUL;
; 1749 :     return (PMC_STATUS_OK);

	lea	rdx, OFFSET FLAT:DivRem_X_X_using_ADC_MUL
	and	eax, 10
	lea	rcx, OFFSET FLAT:DivRem_X_X_using_ADX_MULX
	cmp	al, 10
	cmovne	rcx, rdx
	xor	eax, eax
	mov	QWORD PTR fp_DivRem_X_X, rcx

; 1750 : }

	ret	0
Initialize_DivRem ENDP
_TEXT	ENDS
; Function compile flags: /Ogtpy
; File z:\sources\lunor\repos\rougemeilland\palmtree.math.core.implements\palmtree.math.core.implements\pmc_divrem.c
; File z:\sources\lunor\repos\rougemeilland\palmtree.math.core.implements\palmtree.math.core.implements\pmc_internal.h
; File z:\sources\lunor\repos\rougemeilland\palmtree.math.core.implements\palmtree.math.core.implements\pmc_divrem.c
; File z:\sources\lunor\repos\rougemeilland\palmtree.math.core.implements\palmtree.math.core.implements\pmc_internal.h
; File z:\sources\lunor\repos\rougemeilland\palmtree.math.core.implements\palmtree.math.core.implements\pmc_divrem.c
; File z:\sources\lunor\repos\rougemeilland\palmtree.math.core.implements\palmtree.math.core.implements\pmc_internal.h
; File z:\sources\lunor\repos\rougemeilland\palmtree.math.core.implements\palmtree.math.core.implements\pmc_divrem.c
; File z:\sources\lunor\repos\rougemeilland\palmtree.math.core.implements\palmtree.math.core.implements\pmc_internal.h
; File z:\sources\lunor\repos\rougemeilland\palmtree.math.core.implements\palmtree.math.core.implements\pmc_divrem.c
; File z:\sources\lunor\repos\rougemeilland\palmtree.math.core.implements\palmtree.math.core.implements\pmc_internal.h
; File z:\sources\lunor\repos\rougemeilland\palmtree.math.core.implements\palmtree.math.core.implements\pmc_divrem.c
; File z:\sources\lunor\repos\rougemeilland\palmtree.math.core.implements\palmtree.math.core.implements\pmc_internal.h
; File z:\sources\lunor\repos\rougemeilland\palmtree.math.core.implements\palmtree.math.core.implements\pmc_divrem.c
; File z:\sources\lunor\repos\rougemeilland\palmtree.math.core.implements\palmtree.math.core.implements\pmc_internal.h
; File z:\sources\lunor\repos\rougemeilland\palmtree.math.core.implements\palmtree.math.core.implements\pmc_divrem.c
;	COMDAT DivRem_X_X
_TEXT	SEGMENT
r$1 = 80
u_buf$ = 80
u_count$ = 88
v_buf$ = 96
v_count$ = 104
work_v_buf$ = 112
q_buf$ = 120
r_buf$ = 128
DivRem_X_X PROC						; COMDAT

; 45   : {

$LN29:
	mov	QWORD PTR [rsp+16], rsi
	push	rdi
	sub	rsp, 64					; 00000040H
	mov	r10, rdx

; 46   :     __UNIT_TYPE_DIV* u_buf_2 = (__UNIT_TYPE_DIV*)u_buf;

	lea	rax, QWORD PTR [rdx+rdx]

; 47   :     __UNIT_TYPE u_count_2 = u_count * (sizeof(__UNIT_TYPE) / sizeof(__UNIT_TYPE_DIV));
; 48   :     __UNIT_TYPE_DIV* v_buf_2 = (__UNIT_TYPE_DIV*)v_buf;

	lea	rdi, QWORD PTR [r9+r9]

; 49   :     __UNIT_TYPE v_count_2 = v_count * (sizeof(__UNIT_TYPE) / sizeof(__UNIT_TYPE_DIV));
; 50   :     if (sizeof(__UNIT_TYPE) != sizeof(__UNIT_TYPE_DIV))
; 51   :     {
; 52   :         if (u_buf_2[u_count_2 - 1] == 0)
; 53   :             --u_count_2;
; 54   :         if (v_buf_2[v_count_2 - 1] == 0)

	lea	rdx, QWORD PTR [rax-1]

; 55   :             --v_count_2;
; 56   :     }
; 57   :     if (v_count_2 == 1)

	lea	rsi, QWORD PTR [rdi-1]
	cmp	DWORD PTR [rcx+r10*8-4], 0
	cmovne	rdx, rax
	cmp	DWORD PTR [r8+r9*8-4], 0
	cmovne	rsi, rdi
	cmp	rsi, 1
	jne	SHORT $LN5@DivRem_X_X

; 58   :     {
; 59   :         if (u_count_2 == 1)

	mov	r8d, DWORD PTR [r8]
	cmp	rdx, rsi
	jne	SHORT $LN7@DivRem_X_X
; File z:\sources\lunor\repos\rougemeilland\palmtree.math.core.implements\palmtree.math.core.implements\pmc_internal.h

; 454  :     return (((_UINT64_T)value_high << 32) | value_low);

	mov	edi, DWORD PTR [rcx]

; 667  :         return ((_UINT32_T)(t / v));

	xor	edx, edx
; File z:\sources\lunor\repos\rougemeilland\palmtree.math.core.implements\palmtree.math.core.implements\pmc_divrem.c

; 63   :             q_buf[0] = q;

	mov	rcx, QWORD PTR q_buf$[rsp]
; File z:\sources\lunor\repos\rougemeilland\palmtree.math.core.implements\palmtree.math.core.implements\pmc_internal.h

; 667  :         return ((_UINT32_T)(t / v));

	mov	eax, edi
	div	r8
; File z:\sources\lunor\repos\rougemeilland\palmtree.math.core.implements\palmtree.math.core.implements\pmc_divrem.c

; 63   :             q_buf[0] = q;

	mov	edx, eax
; File z:\sources\lunor\repos\rougemeilland\palmtree.math.core.implements\palmtree.math.core.implements\pmc_internal.h

; 666  :         *r = (_UINT32_T)(t % v);

	mov	eax, edi
; File z:\sources\lunor\repos\rougemeilland\palmtree.math.core.implements\palmtree.math.core.implements\pmc_divrem.c

; 63   :             q_buf[0] = q;

	mov	QWORD PTR [rcx], rdx
; File z:\sources\lunor\repos\rougemeilland\palmtree.math.core.implements\palmtree.math.core.implements\pmc_internal.h

; 666  :         *r = (_UINT32_T)(t % v);

	xor	edx, edx
	div	r8
; File z:\sources\lunor\repos\rougemeilland\palmtree.math.core.implements\palmtree.math.core.implements\pmc_divrem.c

; 64   :             r_buf[0] = r;

	mov	rax, QWORD PTR r_buf$[rsp]
	mov	ecx, edx
	mov	QWORD PTR [rax], rcx
; File z:\sources\lunor\repos\rougemeilland\palmtree.math.core.implements\palmtree.math.core.implements\pmc_internal.h

; 1062 :     _InterlockedIncrement(&statistics_info.COUNT_DIV32);

	lock inc DWORD PTR statistics_info+12
; File z:\sources\lunor\repos\rougemeilland\palmtree.math.core.implements\palmtree.math.core.implements\pmc_divrem.c

; 89   : }

	mov	rsi, QWORD PTR [rsp+88]
	add	rsp, 64					; 00000040H
	pop	rdi
	ret	0
$LN7@DivRem_X_X:

; 65   : #ifdef ENABLED_PERFORMANCE_COUNTER
; 66   :             if (sizeof(r) == sizeof(_UINT64_T))
; 67   :                 IncrementDIV64Counter();
; 68   :             else
; 69   :                 IncrementDIV32Counter();
; 70   : #endif
; 71   :         }
; 72   :         else
; 73   :         {
; 74   :             __UNIT_TYPE_DIV r;
; 75   :             DivRem_X_1W(u_buf_2, u_count_2, v_buf_2[0], (__UNIT_TYPE_DIV*)q_buf, &r);

	mov	r9, QWORD PTR q_buf$[rsp]
	lea	rax, QWORD PTR r$1[rsp]
	mov	QWORD PTR [rsp+32], rax
	call	DivRem_X_1W

; 76   :             r_buf[0] = r;

	mov	rax, QWORD PTR r_buf$[rsp]
	mov	ecx, DWORD PTR r$1[rsp]
	mov	QWORD PTR [rax], rcx

; 89   : }

	mov	rsi, QWORD PTR [rsp+88]
	add	rsp, 64					; 00000040H
	pop	rdi
	ret	0
$LN5@DivRem_X_X:

; 77   :         }
; 78   :     }
; 79   :     else
; 80   :     {
; 81   :         if (u_count_2 < v_count_2)

	cmp	rdx, rsi
	jae	SHORT $LN11@DivRem_X_X

; 83   :             q_buf[0] = 0;

	mov	rax, QWORD PTR q_buf$[rsp]
; File z:\sources\lunor\repos\rougemeilland\palmtree.math.core.implements\palmtree.math.core.implements\pmc_internal.h

; 346  :     __movsq(d, s, count);

	mov	rsi, rcx
	mov	rdi, QWORD PTR r_buf$[rsp]
	mov	rcx, r10
; File z:\sources\lunor\repos\rougemeilland\palmtree.math.core.implements\palmtree.math.core.implements\pmc_divrem.c

; 83   :             q_buf[0] = 0;

	mov	QWORD PTR [rax], 0
; File z:\sources\lunor\repos\rougemeilland\palmtree.math.core.implements\palmtree.math.core.implements\pmc_internal.h

; 346  :     __movsq(d, s, count);

	rep movsq
; File z:\sources\lunor\repos\rougemeilland\palmtree.math.core.implements\palmtree.math.core.implements\pmc_divrem.c

; 89   : }

	mov	rsi, QWORD PTR [rsp+88]
	add	rsp, 64					; 00000040H
	pop	rdi
	ret	0
$LN11@DivRem_X_X:

; 84   :             _COPY_MEMORY_UNIT(r_buf, u_buf, u_count);
; 85   :         }
; 86   :         else
; 87   :             (*fp_DivRem_X_X)(u_buf_2, u_count_2, v_buf_2, v_count_2, (__UNIT_TYPE_DIV*)work_v_buf, (__UNIT_TYPE_DIV*)q_buf, (__UNIT_TYPE_DIV*)r_buf);

	mov	r9, rsi

; 89   : }

	mov	rsi, QWORD PTR [rsp+88]
	add	rsp, 64					; 00000040H
	pop	rdi

; 84   :             _COPY_MEMORY_UNIT(r_buf, u_buf, u_count);
; 85   :         }
; 86   :         else
; 87   :             (*fp_DivRem_X_X)(u_buf_2, u_count_2, v_buf_2, v_count_2, (__UNIT_TYPE_DIV*)work_v_buf, (__UNIT_TYPE_DIV*)q_buf, (__UNIT_TYPE_DIV*)r_buf);

	rex_jmp	QWORD PTR fp_DivRem_X_X
DivRem_X_X ENDP
_TEXT	ENDS
; Function compile flags: /Ogtpy
; File z:\sources\lunor\repos\rougemeilland\palmtree.math.core.implements\palmtree.math.core.implements\pmc_divrem.c
; File z:\sources\lunor\repos\rougemeilland\palmtree.math.core.implements\palmtree.math.core.implements\pmc_internal.h
; File z:\sources\lunor\repos\rougemeilland\palmtree.math.core.implements\palmtree.math.core.implements\pmc_divrem.c
; File z:\sources\lunor\repos\rougemeilland\palmtree.math.core.implements\palmtree.math.core.implements\pmc_internal.h
; File z:\sources\lunor\repos\rougemeilland\palmtree.math.core.implements\palmtree.math.core.implements\pmc_divrem.c
; File z:\sources\lunor\repos\rougemeilland\palmtree.math.core.implements\palmtree.math.core.implements\pmc_internal.h
; File z:\sources\lunor\repos\rougemeilland\palmtree.math.core.implements\palmtree.math.core.implements\pmc_divrem.c
; File z:\sources\lunor\repos\rougemeilland\palmtree.math.core.implements\palmtree.math.core.implements\pmc_internal.h
; File z:\sources\lunor\repos\rougemeilland\palmtree.math.core.implements\palmtree.math.core.implements\pmc_divrem.c
; File z:\sources\lunor\repos\rougemeilland\palmtree.math.core.implements\palmtree.math.core.implements\pmc_internal.h
; File z:\sources\lunor\repos\rougemeilland\palmtree.math.core.implements\palmtree.math.core.implements\pmc_divrem.c
; File z:\sources\lunor\repos\rougemeilland\palmtree.math.core.implements\palmtree.math.core.implements\pmc_internal.h
; File z:\sources\lunor\repos\rougemeilland\palmtree.math.core.implements\palmtree.math.core.implements\pmc_divrem.c
; File z:\sources\lunor\repos\rougemeilland\palmtree.math.core.implements\palmtree.math.core.implements\pmc_internal.h
; File z:\sources\lunor\repos\rougemeilland\palmtree.math.core.implements\palmtree.math.core.implements\pmc_divrem.c
; File z:\sources\lunor\repos\rougemeilland\palmtree.math.core.implements\palmtree.math.core.implements\pmc_internal.h
; File z:\sources\lunor\repos\rougemeilland\palmtree.math.core.implements\palmtree.math.core.implements\pmc_divrem.c
; File z:\sources\lunor\repos\rougemeilland\palmtree.math.core.implements\palmtree.math.core.implements\pmc_internal.h
; File z:\sources\lunor\repos\rougemeilland\palmtree.math.core.implements\palmtree.math.core.implements\pmc_divrem.c
; File z:\sources\lunor\repos\rougemeilland\palmtree.math.core.implements\palmtree.math.core.implements\pmc_internal.h
; File z:\sources\lunor\repos\rougemeilland\palmtree.math.core.implements\palmtree.math.core.implements\pmc_divrem.c
; File z:\sources\lunor\repos\rougemeilland\palmtree.math.core.implements\palmtree.math.core.implements\pmc_internal.h
; File z:\sources\lunor\repos\rougemeilland\palmtree.math.core.implements\palmtree.math.core.implements\pmc_divrem.c
; File z:\sources\lunor\repos\rougemeilland\palmtree.math.core.implements\palmtree.math.core.implements\pmc_internal.h
; File z:\sources\lunor\repos\rougemeilland\palmtree.math.core.implements\palmtree.math.core.implements\pmc_divrem.c
; File z:\sources\lunor\repos\rougemeilland\palmtree.math.core.implements\palmtree.math.core.implements\pmc_internal.h
; File z:\sources\lunor\repos\rougemeilland\palmtree.math.core.implements\palmtree.math.core.implements\pmc_divrem.c
; File z:\sources\lunor\repos\rougemeilland\palmtree.math.core.implements\palmtree.math.core.implements\pmc_internal.h
; File z:\sources\lunor\repos\rougemeilland\palmtree.math.core.implements\palmtree.math.core.implements\pmc_divrem.c
; File z:\sources\lunor\repos\rougemeilland\palmtree.math.core.implements\palmtree.math.core.implements\pmc_internal.h
; File z:\sources\lunor\repos\rougemeilland\palmtree.math.core.implements\palmtree.math.core.implements\pmc_divrem.c
; File z:\sources\lunor\repos\rougemeilland\palmtree.math.core.implements\palmtree.math.core.implements\pmc_internal.h
; File z:\sources\lunor\repos\rougemeilland\palmtree.math.core.implements\palmtree.math.core.implements\pmc_divrem.c
;	COMDAT DivRem_X_1W
_TEXT	SEGMENT
u_buf$ = 8
u_buf_len$ = 16
v$ = 24
q_buf$ = 32
r_buf$ = 40
DivRem_X_1W PROC					; COMDAT

; 93   :     // u の最上位ワードは 0 でありうることに注意すること。
; 94   :     __UNIT_TYPE_DIV* up = u_buf + u_buf_len - 1;

	lea	rcx, QWORD PTR [rcx+rdx*4]
	mov	r11, rdx
	add	rcx, -4

; 95   :     __UNIT_TYPE_DIV* qp = q_buf + u_buf_len - 1;

	lea	r10, QWORD PTR [r9-4]
	lea	r10, QWORD PTR [r10+rdx*4]

; 96   :     __UNIT_TYPE u_count = u_buf_len;
; 97   :     if (sizeof(__UNIT_TYPE) != sizeof(__UNIT_TYPE_DIV))
; 98   :     {
; 99   :         while (*up == 0)

	cmp	DWORD PTR [rcx], 0
	jne	SHORT $LN3@DivRem_X_1
	npad	8
$LL2@DivRem_X_1:

; 100  :         {
; 101  :             --up;

	sub	rcx, 4

; 102  :             --qp;

	sub	r10, 4

; 103  :             --u_count;

	dec	r11
	cmp	DWORD PTR [rcx], 0
	je	SHORT $LL2@DivRem_X_1
$LN3@DivRem_X_1:

; 104  :         }
; 105  :     }
; 106  :     __UNIT_TYPE_DIV r = 0;
; 107  :     __UNIT_TYPE count = u_count >> 5;

	mov	r9, r11
	mov	r8d, r8d
	shr	r9, 5
	xor	edx, edx

; 108  :     while (count != 0)

	test	r9, r9
	je	$LN558@DivRem_X_1
	npad	11
$LL4@DivRem_X_1:
; File z:\sources\lunor\repos\rougemeilland\palmtree.math.core.implements\palmtree.math.core.implements\pmc_internal.h

; 454  :     return (((_UINT64_T)value_high << 32) | value_low);

	mov	eax, edx
	shl	rax, 32					; 00000020H
	mov	edx, DWORD PTR [rcx]
	or	rax, rdx

; 710  :         *q = (_UINT32_T)(t / v);

	xor	edx, edx
	div	r8
	mov	DWORD PTR [r10], eax

; 454  :     return (((_UINT64_T)value_high << 32) | value_low);

	mov	eax, edx
	mov	edx, DWORD PTR [rcx-4]
	shl	rax, 32					; 00000020H
	or	rax, rdx

; 710  :         *q = (_UINT32_T)(t / v);

	xor	edx, edx
	div	r8
	mov	DWORD PTR [r10-4], eax

; 454  :     return (((_UINT64_T)value_high << 32) | value_low);

	mov	eax, edx
	mov	edx, DWORD PTR [rcx-8]
	shl	rax, 32					; 00000020H
	or	rax, rdx

; 710  :         *q = (_UINT32_T)(t / v);

	xor	edx, edx
	div	r8
	mov	DWORD PTR [r10-8], eax

; 454  :     return (((_UINT64_T)value_high << 32) | value_low);

	mov	eax, edx
	mov	edx, DWORD PTR [rcx-12]
	shl	rax, 32					; 00000020H
	or	rax, rdx

; 710  :         *q = (_UINT32_T)(t / v);

	xor	edx, edx
	div	r8
	mov	DWORD PTR [r10-12], eax

; 454  :     return (((_UINT64_T)value_high << 32) | value_low);

	mov	eax, edx
	mov	edx, DWORD PTR [rcx-16]
	shl	rax, 32					; 00000020H
	or	rax, rdx

; 710  :         *q = (_UINT32_T)(t / v);

	xor	edx, edx
	div	r8
	mov	DWORD PTR [r10-16], eax

; 454  :     return (((_UINT64_T)value_high << 32) | value_low);

	mov	eax, edx
	mov	edx, DWORD PTR [rcx-20]
	shl	rax, 32					; 00000020H
	or	rax, rdx

; 710  :         *q = (_UINT32_T)(t / v);

	xor	edx, edx
	div	r8
	mov	DWORD PTR [r10-20], eax

; 454  :     return (((_UINT64_T)value_high << 32) | value_low);

	mov	eax, edx
	mov	edx, DWORD PTR [rcx-24]
	shl	rax, 32					; 00000020H
	or	rax, rdx

; 710  :         *q = (_UINT32_T)(t / v);

	xor	edx, edx
	div	r8
	mov	DWORD PTR [r10-24], eax

; 454  :     return (((_UINT64_T)value_high << 32) | value_low);

	mov	eax, edx
	mov	edx, DWORD PTR [rcx-28]
	shl	rax, 32					; 00000020H
	or	rax, rdx

; 710  :         *q = (_UINT32_T)(t / v);

	xor	edx, edx
	div	r8
	mov	DWORD PTR [r10-28], eax

; 454  :     return (((_UINT64_T)value_high << 32) | value_low);

	mov	eax, edx
	mov	edx, DWORD PTR [rcx-32]
	shl	rax, 32					; 00000020H
	or	rax, rdx

; 710  :         *q = (_UINT32_T)(t / v);

	xor	edx, edx
	div	r8
	mov	DWORD PTR [r10-32], eax

; 454  :     return (((_UINT64_T)value_high << 32) | value_low);

	mov	eax, edx
	mov	edx, DWORD PTR [rcx-36]
	shl	rax, 32					; 00000020H
	or	rax, rdx

; 710  :         *q = (_UINT32_T)(t / v);

	xor	edx, edx
	div	r8
	mov	DWORD PTR [r10-36], eax

; 454  :     return (((_UINT64_T)value_high << 32) | value_low);

	mov	eax, edx
	mov	edx, DWORD PTR [rcx-40]
	shl	rax, 32					; 00000020H
	or	rax, rdx

; 710  :         *q = (_UINT32_T)(t / v);

	xor	edx, edx
	div	r8
	mov	DWORD PTR [r10-40], eax

; 454  :     return (((_UINT64_T)value_high << 32) | value_low);

	mov	eax, edx
	mov	edx, DWORD PTR [rcx-44]
	shl	rax, 32					; 00000020H
	or	rax, rdx

; 710  :         *q = (_UINT32_T)(t / v);

	xor	edx, edx
	div	r8
	mov	DWORD PTR [r10-44], eax

; 454  :     return (((_UINT64_T)value_high << 32) | value_low);

	mov	eax, edx
	mov	edx, DWORD PTR [rcx-48]
	shl	rax, 32					; 00000020H
	or	rax, rdx

; 710  :         *q = (_UINT32_T)(t / v);

	xor	edx, edx
	div	r8
	mov	DWORD PTR [r10-48], eax

; 454  :     return (((_UINT64_T)value_high << 32) | value_low);

	mov	eax, edx
	mov	edx, DWORD PTR [rcx-52]
	shl	rax, 32					; 00000020H
	or	rax, rdx

; 710  :         *q = (_UINT32_T)(t / v);

	xor	edx, edx
	div	r8
	mov	DWORD PTR [r10-52], eax

; 454  :     return (((_UINT64_T)value_high << 32) | value_low);

	mov	eax, edx
	mov	edx, DWORD PTR [rcx-56]
	shl	rax, 32					; 00000020H
	or	rax, rdx

; 710  :         *q = (_UINT32_T)(t / v);

	xor	edx, edx
	div	r8
	mov	DWORD PTR [r10-56], eax

; 454  :     return (((_UINT64_T)value_high << 32) | value_low);

	mov	eax, edx
	mov	edx, DWORD PTR [rcx-60]
	shl	rax, 32					; 00000020H
	or	rax, rdx

; 710  :         *q = (_UINT32_T)(t / v);

	xor	edx, edx
	div	r8
	mov	DWORD PTR [r10-60], eax

; 454  :     return (((_UINT64_T)value_high << 32) | value_low);

	mov	eax, edx
	mov	edx, DWORD PTR [rcx-64]
	shl	rax, 32					; 00000020H
	or	rax, rdx

; 710  :         *q = (_UINT32_T)(t / v);

	xor	edx, edx
	div	r8
	mov	DWORD PTR [r10-64], eax

; 454  :     return (((_UINT64_T)value_high << 32) | value_low);

	mov	eax, edx
	mov	edx, DWORD PTR [rcx-68]
	shl	rax, 32					; 00000020H
	or	rax, rdx

; 710  :         *q = (_UINT32_T)(t / v);

	xor	edx, edx
	div	r8
	mov	DWORD PTR [r10-68], eax

; 454  :     return (((_UINT64_T)value_high << 32) | value_low);

	mov	eax, edx
	mov	edx, DWORD PTR [rcx-72]
	shl	rax, 32					; 00000020H
	or	rax, rdx

; 710  :         *q = (_UINT32_T)(t / v);

	xor	edx, edx
	div	r8
	mov	DWORD PTR [r10-72], eax

; 454  :     return (((_UINT64_T)value_high << 32) | value_low);

	mov	eax, edx
	mov	edx, DWORD PTR [rcx-76]
	shl	rax, 32					; 00000020H
	or	rax, rdx

; 710  :         *q = (_UINT32_T)(t / v);

	xor	edx, edx
	div	r8
	mov	DWORD PTR [r10-76], eax

; 454  :     return (((_UINT64_T)value_high << 32) | value_low);

	mov	eax, edx
	mov	edx, DWORD PTR [rcx-80]
	shl	rax, 32					; 00000020H
	or	rax, rdx

; 710  :         *q = (_UINT32_T)(t / v);

	xor	edx, edx
	div	r8
	mov	DWORD PTR [r10-80], eax

; 454  :     return (((_UINT64_T)value_high << 32) | value_low);

	mov	eax, edx
	mov	edx, DWORD PTR [rcx-84]
	shl	rax, 32					; 00000020H
	or	rax, rdx

; 710  :         *q = (_UINT32_T)(t / v);

	xor	edx, edx
	div	r8
	mov	DWORD PTR [r10-84], eax

; 454  :     return (((_UINT64_T)value_high << 32) | value_low);

	mov	eax, edx
	mov	edx, DWORD PTR [rcx-88]
	shl	rax, 32					; 00000020H
	or	rax, rdx

; 710  :         *q = (_UINT32_T)(t / v);

	xor	edx, edx
	div	r8
	mov	DWORD PTR [r10-88], eax

; 454  :     return (((_UINT64_T)value_high << 32) | value_low);

	mov	eax, edx
	mov	edx, DWORD PTR [rcx-92]
	shl	rax, 32					; 00000020H
	or	rax, rdx

; 710  :         *q = (_UINT32_T)(t / v);

	xor	edx, edx
	div	r8
	mov	DWORD PTR [r10-92], eax

; 454  :     return (((_UINT64_T)value_high << 32) | value_low);

	mov	eax, edx
	mov	edx, DWORD PTR [rcx-96]
	shl	rax, 32					; 00000020H
	or	rax, rdx

; 710  :         *q = (_UINT32_T)(t / v);

	xor	edx, edx
	div	r8
	mov	DWORD PTR [r10-96], eax

; 454  :     return (((_UINT64_T)value_high << 32) | value_low);

	mov	eax, edx
	mov	edx, DWORD PTR [rcx-100]
	shl	rax, 32					; 00000020H
	or	rax, rdx

; 710  :         *q = (_UINT32_T)(t / v);

	xor	edx, edx
	div	r8
	mov	DWORD PTR [r10-100], eax

; 454  :     return (((_UINT64_T)value_high << 32) | value_low);

	mov	eax, edx
	mov	edx, DWORD PTR [rcx-104]
	shl	rax, 32					; 00000020H
	or	rax, rdx

; 710  :         *q = (_UINT32_T)(t / v);

	xor	edx, edx
	div	r8
	mov	DWORD PTR [r10-104], eax

; 454  :     return (((_UINT64_T)value_high << 32) | value_low);

	mov	eax, edx
	mov	edx, DWORD PTR [rcx-108]
	shl	rax, 32					; 00000020H
	or	rax, rdx

; 710  :         *q = (_UINT32_T)(t / v);

	xor	edx, edx
	div	r8
	mov	DWORD PTR [r10-108], eax

; 454  :     return (((_UINT64_T)value_high << 32) | value_low);

	mov	eax, edx
	mov	edx, DWORD PTR [rcx-112]
	shl	rax, 32					; 00000020H
	or	rax, rdx

; 710  :         *q = (_UINT32_T)(t / v);

	xor	edx, edx
	div	r8
	mov	DWORD PTR [r10-112], eax

; 454  :     return (((_UINT64_T)value_high << 32) | value_low);

	mov	eax, edx
	mov	edx, DWORD PTR [rcx-116]
	shl	rax, 32					; 00000020H
	or	rax, rdx

; 710  :         *q = (_UINT32_T)(t / v);

	xor	edx, edx
	div	r8
	mov	DWORD PTR [r10-116], eax

; 454  :     return (((_UINT64_T)value_high << 32) | value_low);

	mov	eax, edx
	mov	edx, DWORD PTR [rcx-120]
	shl	rax, 32					; 00000020H
	or	rax, rdx

; 710  :         *q = (_UINT32_T)(t / v);

	xor	edx, edx
	div	r8
	mov	DWORD PTR [r10-120], eax

; 454  :     return (((_UINT64_T)value_high << 32) | value_low);

	mov	eax, edx
	mov	edx, DWORD PTR [rcx-124]
; File z:\sources\lunor\repos\rougemeilland\palmtree.math.core.implements\palmtree.math.core.implements\pmc_divrem.c

; 142  :         up -= 32;

	add	rcx, -128				; ffffffffffffff80H
; File z:\sources\lunor\repos\rougemeilland\palmtree.math.core.implements\palmtree.math.core.implements\pmc_internal.h

; 454  :     return (((_UINT64_T)value_high << 32) | value_low);

	shl	rax, 32					; 00000020H
	or	rax, rdx

; 710  :         *q = (_UINT32_T)(t / v);

	xor	edx, edx
	div	r8
	mov	DWORD PTR [r10-124], eax
; File z:\sources\lunor\repos\rougemeilland\palmtree.math.core.implements\palmtree.math.core.implements\pmc_divrem.c

; 143  :         qp -= 32;

	add	r10, -128				; ffffffffffffff80H
; File z:\sources\lunor\repos\rougemeilland\palmtree.math.core.implements\palmtree.math.core.implements\pmc_internal.h

; 1085 :     _InterlockedExchangeAdd(&statistics_info.COUNT_DIV32, value);

	mov	eax, 32					; 00000020H
	lock xadd DWORD PTR statistics_info+12, eax
; File z:\sources\lunor\repos\rougemeilland\palmtree.math.core.implements\palmtree.math.core.implements\pmc_divrem.c

; 108  :     while (count != 0)

	sub	r9, 1
	jne	$LL4@DivRem_X_1
$LN558@DivRem_X_1:

; 144  :         --count;
; 145  : #ifdef ENABLED_PERFORMANCE_COUNTER
; 146  :         if (sizeof(r) == sizeof(_UINT64_T))
; 147  :             AddToDIV64Counter(32);
; 148  :         else
; 149  :             AddToDIV32Counter(32);
; 150  : #endif
; 151  :     }
; 152  : 
; 153  :     if (u_count & 0x10)

	test	r11b, 16
	je	$LN415@DivRem_X_1
; File z:\sources\lunor\repos\rougemeilland\palmtree.math.core.implements\palmtree.math.core.implements\pmc_internal.h

; 454  :     return (((_UINT64_T)value_high << 32) | value_low);

	mov	eax, edx
	mov	edx, DWORD PTR [rcx]
	shl	rax, 32					; 00000020H
	or	rax, rdx

; 710  :         *q = (_UINT32_T)(t / v);

	xor	edx, edx
	div	r8
	mov	DWORD PTR [r10], eax

; 454  :     return (((_UINT64_T)value_high << 32) | value_low);

	mov	eax, edx
	mov	edx, DWORD PTR [rcx-4]
	shl	rax, 32					; 00000020H
	or	rax, rdx

; 710  :         *q = (_UINT32_T)(t / v);

	xor	edx, edx
	div	r8
	mov	DWORD PTR [r10-4], eax

; 454  :     return (((_UINT64_T)value_high << 32) | value_low);

	mov	eax, DWORD PTR [rcx-8]
	mov	edx, edx
	shl	rdx, 32					; 00000020H
	or	rax, rdx

; 710  :         *q = (_UINT32_T)(t / v);

	xor	edx, edx
	div	r8
	mov	DWORD PTR [r10-8], eax

; 454  :     return (((_UINT64_T)value_high << 32) | value_low);

	mov	eax, edx
	mov	edx, DWORD PTR [rcx-12]
	shl	rax, 32					; 00000020H
	or	rax, rdx

; 710  :         *q = (_UINT32_T)(t / v);

	xor	edx, edx
	div	r8
	mov	DWORD PTR [r10-12], eax

; 454  :     return (((_UINT64_T)value_high << 32) | value_low);

	mov	eax, edx
	mov	edx, DWORD PTR [rcx-16]
	shl	rax, 32					; 00000020H
	or	rax, rdx

; 710  :         *q = (_UINT32_T)(t / v);

	xor	edx, edx
	div	r8
	mov	DWORD PTR [r10-16], eax

; 454  :     return (((_UINT64_T)value_high << 32) | value_low);

	mov	eax, edx
	mov	edx, DWORD PTR [rcx-20]
	shl	rax, 32					; 00000020H
	or	rax, rdx

; 710  :         *q = (_UINT32_T)(t / v);

	xor	edx, edx
	div	r8
	mov	DWORD PTR [r10-20], eax

; 454  :     return (((_UINT64_T)value_high << 32) | value_low);

	mov	eax, edx
	mov	edx, DWORD PTR [rcx-24]
	shl	rax, 32					; 00000020H
	or	rax, rdx

; 710  :         *q = (_UINT32_T)(t / v);

	xor	edx, edx
	div	r8
	mov	DWORD PTR [r10-24], eax

; 454  :     return (((_UINT64_T)value_high << 32) | value_low);

	mov	eax, edx
	mov	edx, DWORD PTR [rcx-28]
	shl	rax, 32					; 00000020H
	or	rax, rdx

; 710  :         *q = (_UINT32_T)(t / v);

	xor	edx, edx
	div	r8
	mov	DWORD PTR [r10-28], eax

; 454  :     return (((_UINT64_T)value_high << 32) | value_low);

	mov	eax, edx
	mov	edx, DWORD PTR [rcx-32]
	shl	rax, 32					; 00000020H
	or	rax, rdx

; 710  :         *q = (_UINT32_T)(t / v);

	xor	edx, edx
	div	r8
	mov	DWORD PTR [r10-32], eax

; 454  :     return (((_UINT64_T)value_high << 32) | value_low);

	mov	eax, edx
	mov	edx, DWORD PTR [rcx-36]
	shl	rax, 32					; 00000020H
	or	rax, rdx

; 710  :         *q = (_UINT32_T)(t / v);

	xor	edx, edx
	div	r8
	mov	DWORD PTR [r10-36], eax

; 454  :     return (((_UINT64_T)value_high << 32) | value_low);

	mov	eax, edx
	mov	edx, DWORD PTR [rcx-40]
	shl	rax, 32					; 00000020H
	or	rax, rdx

; 710  :         *q = (_UINT32_T)(t / v);

	xor	edx, edx
	div	r8
	mov	DWORD PTR [r10-40], eax

; 454  :     return (((_UINT64_T)value_high << 32) | value_low);

	mov	eax, edx
	mov	edx, DWORD PTR [rcx-44]
	shl	rax, 32					; 00000020H
	or	rax, rdx

; 710  :         *q = (_UINT32_T)(t / v);

	xor	edx, edx
	div	r8
	mov	DWORD PTR [r10-44], eax

; 454  :     return (((_UINT64_T)value_high << 32) | value_low);

	mov	eax, edx
	mov	edx, DWORD PTR [rcx-48]
	shl	rax, 32					; 00000020H
	or	rax, rdx

; 710  :         *q = (_UINT32_T)(t / v);

	xor	edx, edx
	div	r8
	mov	DWORD PTR [r10-48], eax

; 454  :     return (((_UINT64_T)value_high << 32) | value_low);

	mov	eax, edx
	mov	edx, DWORD PTR [rcx-52]
	shl	rax, 32					; 00000020H
	or	rax, rdx

; 710  :         *q = (_UINT32_T)(t / v);

	xor	edx, edx
	div	r8
	mov	DWORD PTR [r10-52], eax

; 454  :     return (((_UINT64_T)value_high << 32) | value_low);

	mov	eax, edx
	mov	edx, DWORD PTR [rcx-56]
	shl	rax, 32					; 00000020H
	or	rax, rdx

; 710  :         *q = (_UINT32_T)(t / v);

	xor	edx, edx
	div	r8
	mov	DWORD PTR [r10-56], eax

; 454  :     return (((_UINT64_T)value_high << 32) | value_low);

	mov	eax, edx
	mov	edx, DWORD PTR [rcx-60]
; File z:\sources\lunor\repos\rougemeilland\palmtree.math.core.implements\palmtree.math.core.implements\pmc_divrem.c

; 171  :         up -= 16;

	sub	rcx, 64					; 00000040H
; File z:\sources\lunor\repos\rougemeilland\palmtree.math.core.implements\palmtree.math.core.implements\pmc_internal.h

; 454  :     return (((_UINT64_T)value_high << 32) | value_low);

	shl	rax, 32					; 00000020H
	or	rax, rdx

; 710  :         *q = (_UINT32_T)(t / v);

	xor	edx, edx
	div	r8
	mov	DWORD PTR [r10-60], eax
; File z:\sources\lunor\repos\rougemeilland\palmtree.math.core.implements\palmtree.math.core.implements\pmc_divrem.c

; 172  :         qp -= 16;

	sub	r10, 64					; 00000040H
; File z:\sources\lunor\repos\rougemeilland\palmtree.math.core.implements\palmtree.math.core.implements\pmc_internal.h

; 1085 :     _InterlockedExchangeAdd(&statistics_info.COUNT_DIV32, value);

	mov	eax, 16
	lock xadd DWORD PTR statistics_info+12, eax
$LN415@DivRem_X_1:
; File z:\sources\lunor\repos\rougemeilland\palmtree.math.core.implements\palmtree.math.core.implements\pmc_divrem.c

; 181  :     if (u_count & 0x8)

	test	r11b, 8
	je	$LN483@DivRem_X_1
; File z:\sources\lunor\repos\rougemeilland\palmtree.math.core.implements\palmtree.math.core.implements\pmc_internal.h

; 454  :     return (((_UINT64_T)value_high << 32) | value_low);

	mov	eax, edx
	mov	edx, DWORD PTR [rcx]
	shl	rax, 32					; 00000020H
	or	rax, rdx

; 710  :         *q = (_UINT32_T)(t / v);

	xor	edx, edx
	div	r8
	mov	DWORD PTR [r10], eax

; 454  :     return (((_UINT64_T)value_high << 32) | value_low);

	mov	eax, edx
	mov	edx, DWORD PTR [rcx-4]
	shl	rax, 32					; 00000020H
	or	rax, rdx

; 710  :         *q = (_UINT32_T)(t / v);

	xor	edx, edx
	div	r8
	mov	DWORD PTR [r10-4], eax

; 454  :     return (((_UINT64_T)value_high << 32) | value_low);

	mov	eax, edx
	mov	edx, DWORD PTR [rcx-8]
	shl	rax, 32					; 00000020H
	or	rax, rdx

; 710  :         *q = (_UINT32_T)(t / v);

	xor	edx, edx
	div	r8
	mov	DWORD PTR [r10-8], eax

; 454  :     return (((_UINT64_T)value_high << 32) | value_low);

	mov	eax, edx
	mov	edx, DWORD PTR [rcx-12]
	shl	rax, 32					; 00000020H
	or	rax, rdx

; 710  :         *q = (_UINT32_T)(t / v);

	xor	edx, edx
	div	r8
	mov	DWORD PTR [r10-12], eax

; 454  :     return (((_UINT64_T)value_high << 32) | value_low);

	mov	eax, edx
	mov	edx, DWORD PTR [rcx-16]
	shl	rax, 32					; 00000020H
	or	rax, rdx

; 710  :         *q = (_UINT32_T)(t / v);

	xor	edx, edx
	div	r8
	mov	DWORD PTR [r10-16], eax

; 454  :     return (((_UINT64_T)value_high << 32) | value_low);

	mov	eax, edx
	mov	edx, DWORD PTR [rcx-20]
	shl	rax, 32					; 00000020H
	or	rax, rdx

; 710  :         *q = (_UINT32_T)(t / v);

	xor	edx, edx
	div	r8
	mov	DWORD PTR [r10-20], eax

; 454  :     return (((_UINT64_T)value_high << 32) | value_low);

	mov	eax, edx
	mov	edx, DWORD PTR [rcx-24]
	shl	rax, 32					; 00000020H
	or	rax, rdx

; 710  :         *q = (_UINT32_T)(t / v);

	xor	edx, edx
	div	r8
	mov	DWORD PTR [r10-24], eax

; 454  :     return (((_UINT64_T)value_high << 32) | value_low);

	mov	eax, edx
	mov	edx, DWORD PTR [rcx-28]
; File z:\sources\lunor\repos\rougemeilland\palmtree.math.core.implements\palmtree.math.core.implements\pmc_divrem.c

; 191  :         up -= 8;

	sub	rcx, 32					; 00000020H
; File z:\sources\lunor\repos\rougemeilland\palmtree.math.core.implements\palmtree.math.core.implements\pmc_internal.h

; 454  :     return (((_UINT64_T)value_high << 32) | value_low);

	shl	rax, 32					; 00000020H
	or	rax, rdx

; 710  :         *q = (_UINT32_T)(t / v);

	xor	edx, edx
	div	r8
	mov	DWORD PTR [r10-28], eax
; File z:\sources\lunor\repos\rougemeilland\palmtree.math.core.implements\palmtree.math.core.implements\pmc_divrem.c

; 192  :         qp -= 8;

	sub	r10, 32					; 00000020H
; File z:\sources\lunor\repos\rougemeilland\palmtree.math.core.implements\palmtree.math.core.implements\pmc_internal.h

; 1085 :     _InterlockedExchangeAdd(&statistics_info.COUNT_DIV32, value);

	mov	eax, 8
	lock xadd DWORD PTR statistics_info+12, eax
$LN483@DivRem_X_1:
; File z:\sources\lunor\repos\rougemeilland\palmtree.math.core.implements\palmtree.math.core.implements\pmc_divrem.c

; 201  :     if (u_count & 0x4)

	test	r11b, 4
	je	SHORT $LN519@DivRem_X_1
; File z:\sources\lunor\repos\rougemeilland\palmtree.math.core.implements\palmtree.math.core.implements\pmc_internal.h

; 454  :     return (((_UINT64_T)value_high << 32) | value_low);

	mov	eax, edx
	mov	edx, DWORD PTR [rcx]
	shl	rax, 32					; 00000020H
	or	rax, rdx

; 710  :         *q = (_UINT32_T)(t / v);

	xor	edx, edx
	div	r8
	mov	DWORD PTR [r10], eax

; 454  :     return (((_UINT64_T)value_high << 32) | value_low);

	mov	eax, edx
	mov	edx, DWORD PTR [rcx-4]
	shl	rax, 32					; 00000020H
	or	rax, rdx

; 710  :         *q = (_UINT32_T)(t / v);

	xor	edx, edx
	div	r8
	mov	DWORD PTR [r10-4], eax

; 454  :     return (((_UINT64_T)value_high << 32) | value_low);

	mov	eax, edx
	mov	edx, DWORD PTR [rcx-8]
	shl	rax, 32					; 00000020H
	or	rax, rdx

; 710  :         *q = (_UINT32_T)(t / v);

	xor	edx, edx
	div	r8
	mov	DWORD PTR [r10-8], eax

; 454  :     return (((_UINT64_T)value_high << 32) | value_low);

	mov	eax, edx
	mov	edx, DWORD PTR [rcx-12]
; File z:\sources\lunor\repos\rougemeilland\palmtree.math.core.implements\palmtree.math.core.implements\pmc_divrem.c

; 207  :         up -= 4;

	sub	rcx, 16
; File z:\sources\lunor\repos\rougemeilland\palmtree.math.core.implements\palmtree.math.core.implements\pmc_internal.h

; 454  :     return (((_UINT64_T)value_high << 32) | value_low);

	shl	rax, 32					; 00000020H
	or	rax, rdx

; 710  :         *q = (_UINT32_T)(t / v);

	xor	edx, edx
	div	r8
	mov	DWORD PTR [r10-12], eax
; File z:\sources\lunor\repos\rougemeilland\palmtree.math.core.implements\palmtree.math.core.implements\pmc_divrem.c

; 208  :         qp -= 4;

	sub	r10, 16
; File z:\sources\lunor\repos\rougemeilland\palmtree.math.core.implements\palmtree.math.core.implements\pmc_internal.h

; 1085 :     _InterlockedExchangeAdd(&statistics_info.COUNT_DIV32, value);

	mov	eax, 4
	lock xadd DWORD PTR statistics_info+12, eax
$LN519@DivRem_X_1:
; File z:\sources\lunor\repos\rougemeilland\palmtree.math.core.implements\palmtree.math.core.implements\pmc_divrem.c

; 217  :     if (u_count & 0x2)

	test	r11b, 2
	je	SHORT $LN539@DivRem_X_1
; File z:\sources\lunor\repos\rougemeilland\palmtree.math.core.implements\palmtree.math.core.implements\pmc_internal.h

; 454  :     return (((_UINT64_T)value_high << 32) | value_low);

	mov	eax, edx
	mov	edx, DWORD PTR [rcx]
	shl	rax, 32					; 00000020H
	or	rax, rdx

; 710  :         *q = (_UINT32_T)(t / v);

	xor	edx, edx
	div	r8
	mov	DWORD PTR [r10], eax

; 454  :     return (((_UINT64_T)value_high << 32) | value_low);

	mov	eax, edx
	mov	edx, DWORD PTR [rcx-4]
; File z:\sources\lunor\repos\rougemeilland\palmtree.math.core.implements\palmtree.math.core.implements\pmc_divrem.c

; 221  :         up -= 2;

	sub	rcx, 8
; File z:\sources\lunor\repos\rougemeilland\palmtree.math.core.implements\palmtree.math.core.implements\pmc_internal.h

; 454  :     return (((_UINT64_T)value_high << 32) | value_low);

	shl	rax, 32					; 00000020H
	or	rax, rdx

; 710  :         *q = (_UINT32_T)(t / v);

	xor	edx, edx
	div	r8
	mov	DWORD PTR [r10-4], eax
; File z:\sources\lunor\repos\rougemeilland\palmtree.math.core.implements\palmtree.math.core.implements\pmc_divrem.c

; 222  :         qp -= 2;

	sub	r10, 8
; File z:\sources\lunor\repos\rougemeilland\palmtree.math.core.implements\palmtree.math.core.implements\pmc_internal.h

; 1085 :     _InterlockedExchangeAdd(&statistics_info.COUNT_DIV32, value);

	mov	eax, 2
	lock xadd DWORD PTR statistics_info+12, eax
$LN539@DivRem_X_1:
; File z:\sources\lunor\repos\rougemeilland\palmtree.math.core.implements\palmtree.math.core.implements\pmc_divrem.c

; 231  :     if (u_count & 0x1)

	test	r11b, 1
	je	SHORT $LN561@DivRem_X_1
; File z:\sources\lunor\repos\rougemeilland\palmtree.math.core.implements\palmtree.math.core.implements\pmc_internal.h

; 454  :     return (((_UINT64_T)value_high << 32) | value_low);

	mov	eax, edx
	mov	edx, DWORD PTR [rcx]
	shl	rax, 32					; 00000020H
	or	rax, rdx

; 710  :         *q = (_UINT32_T)(t / v);

	xor	edx, edx
	div	r8
	mov	DWORD PTR [r10], eax

; 1062 :     _InterlockedIncrement(&statistics_info.COUNT_DIV32);

	lock inc DWORD PTR statistics_info+12
$LN561@DivRem_X_1:
; File z:\sources\lunor\repos\rougemeilland\palmtree.math.core.implements\palmtree.math.core.implements\pmc_divrem.c

; 245  : }

	mov	rax, QWORD PTR r_buf$[rsp]
	mov	DWORD PTR [rax], edx
	ret	0
DivRem_X_1W ENDP
_TEXT	ENDS
END
