; Listing generated by Microsoft (R) Optimizing Compiler Version 19.16.27026.1 

include listing.inc

INCLUDELIB MSVCRT
INCLUDELIB OLDNAMES

PUBLIC	Initialize_BitwiseOr
PUBLIC	PMC_BitwiseOr_X_I
PUBLIC	PMC_BitwiseOr_X_L
PUBLIC	PMC_BitwiseOr_X_X
EXTRN	CheckBlockLight:PROC
EXTRN	AllocateNumber:PROC
EXTRN	CommitNumber:PROC
EXTRN	CheckNumber:PROC
EXTRN	DuplicateNumber:PROC
EXTRN	From_I_Imp:PROC
EXTRN	From_L_Imp:PROC
EXTRN	number_zero:BYTE
;	COMDAT pdata
pdata	SEGMENT
$pdata$PMC_BitwiseOr_X_I DD imagerel $LN32
	DD	imagerel $LN32+48
	DD	imagerel $unwind$PMC_BitwiseOr_X_I
pdata	ENDS
;	COMDAT pdata
pdata	SEGMENT
$pdata$0$PMC_BitwiseOr_X_I DD imagerel $LN32+48
	DD	imagerel $LN32+85
	DD	imagerel $chain$0$PMC_BitwiseOr_X_I
pdata	ENDS
;	COMDAT pdata
pdata	SEGMENT
$pdata$2$PMC_BitwiseOr_X_I DD imagerel $LN32+85
	DD	imagerel $LN32+110
	DD	imagerel $chain$2$PMC_BitwiseOr_X_I
pdata	ENDS
;	COMDAT pdata
pdata	SEGMENT
$pdata$3$PMC_BitwiseOr_X_I DD imagerel $LN32+110
	DD	imagerel $LN32+119
	DD	imagerel $chain$3$PMC_BitwiseOr_X_I
pdata	ENDS
;	COMDAT pdata
pdata	SEGMENT
$pdata$4$PMC_BitwiseOr_X_I DD imagerel $LN32+119
	DD	imagerel $LN32+164
	DD	imagerel $chain$4$PMC_BitwiseOr_X_I
pdata	ENDS
;	COMDAT pdata
pdata	SEGMENT
$pdata$6$PMC_BitwiseOr_X_I DD imagerel $LN32+164
	DD	imagerel $LN32+321
	DD	imagerel $chain$6$PMC_BitwiseOr_X_I
pdata	ENDS
;	COMDAT pdata
pdata	SEGMENT
$pdata$7$PMC_BitwiseOr_X_I DD imagerel $LN32+321
	DD	imagerel $LN32+335
	DD	imagerel $chain$7$PMC_BitwiseOr_X_I
pdata	ENDS
;	COMDAT pdata
pdata	SEGMENT
$pdata$PMC_BitwiseOr_X_L DD imagerel $LN65
	DD	imagerel $LN65+346
	DD	imagerel $unwind$PMC_BitwiseOr_X_L
pdata	ENDS
;	COMDAT pdata
pdata	SEGMENT
$pdata$PMC_BitwiseOr_X_X DD imagerel $LN23
	DD	imagerel $LN23+69
	DD	imagerel $unwind$PMC_BitwiseOr_X_X
pdata	ENDS
;	COMDAT pdata
pdata	SEGMENT
$pdata$0$PMC_BitwiseOr_X_X DD imagerel $LN23+69
	DD	imagerel $LN23+102
	DD	imagerel $chain$0$PMC_BitwiseOr_X_X
pdata	ENDS
;	COMDAT pdata
pdata	SEGMENT
$pdata$1$PMC_BitwiseOr_X_X DD imagerel $LN23+102
	DD	imagerel $LN23+110
	DD	imagerel $chain$1$PMC_BitwiseOr_X_X
pdata	ENDS
;	COMDAT pdata
pdata	SEGMENT
$pdata$2$PMC_BitwiseOr_X_X DD imagerel $LN23+110
	DD	imagerel $LN23+268
	DD	imagerel $chain$2$PMC_BitwiseOr_X_X
pdata	ENDS
;	COMDAT pdata
pdata	SEGMENT
$pdata$3$PMC_BitwiseOr_X_X DD imagerel $LN23+268
	DD	imagerel $LN23+281
	DD	imagerel $chain$3$PMC_BitwiseOr_X_X
pdata	ENDS
;	COMDAT pdata
pdata	SEGMENT
$pdata$_COPY_MEMORY_UNIT DD imagerel _COPY_MEMORY_UNIT
	DD	imagerel _COPY_MEMORY_UNIT+33
	DD	imagerel $unwind$_COPY_MEMORY_UNIT
pdata	ENDS
;	COMDAT pdata
pdata	SEGMENT
$pdata$BitwiseOr_X_1W DD imagerel BitwiseOr_X_1W
	DD	imagerel BitwiseOr_X_1W+20
	DD	imagerel $unwind$BitwiseOr_X_1W
pdata	ENDS
;	COMDAT pdata
pdata	SEGMENT
$pdata$0$BitwiseOr_X_1W DD imagerel BitwiseOr_X_1W+20
	DD	imagerel BitwiseOr_X_1W+45
	DD	imagerel $chain$0$BitwiseOr_X_1W
pdata	ENDS
;	COMDAT pdata
pdata	SEGMENT
$pdata$1$BitwiseOr_X_1W DD imagerel BitwiseOr_X_1W+45
	DD	imagerel BitwiseOr_X_1W+47
	DD	imagerel $chain$1$BitwiseOr_X_1W
pdata	ENDS
;	COMDAT pdata
pdata	SEGMENT
$pdata$BitwiseOr_X_2W DD imagerel BitwiseOr_X_2W
	DD	imagerel BitwiseOr_X_2W+91
	DD	imagerel $unwind$BitwiseOr_X_2W
pdata	ENDS
;	COMDAT pdata
pdata	SEGMENT
$pdata$BitwiseOr_X_X DD imagerel BitwiseOr_X_X
	DD	imagerel BitwiseOr_X_X+820
	DD	imagerel $unwind$BitwiseOr_X_X
pdata	ENDS
;	COMDAT xdata
xdata	SEGMENT
$unwind$BitwiseOr_X_X DD 081401H
	DD	047414H
	DD	03640fH
	DD	02540aH
	DD	013405H
xdata	ENDS
;	COMDAT xdata
xdata	SEGMENT
$unwind$BitwiseOr_X_2W DD 040a01H
	DD	02740aH
	DD	016405H
xdata	ENDS
;	COMDAT xdata
xdata	SEGMENT
$chain$1$BitwiseOr_X_1W DD 021H
	DD	imagerel BitwiseOr_X_1W
	DD	imagerel BitwiseOr_X_1W+20
	DD	imagerel $unwind$BitwiseOr_X_1W
xdata	ENDS
;	COMDAT xdata
xdata	SEGMENT
$chain$0$BitwiseOr_X_1W DD 020521H
	DD	027405H
	DD	imagerel BitwiseOr_X_1W
	DD	imagerel BitwiseOr_X_1W+20
	DD	imagerel $unwind$BitwiseOr_X_1W
xdata	ENDS
;	COMDAT xdata
xdata	SEGMENT
$unwind$BitwiseOr_X_1W DD 010201H
	DD	06002H
xdata	ENDS
;	COMDAT xdata
xdata	SEGMENT
$unwind$_COPY_MEMORY_UNIT DD 040a01H
	DD	02740aH
	DD	016405H
xdata	ENDS
;	COMDAT xdata
xdata	SEGMENT
$chain$3$PMC_BitwiseOr_X_X DD 021H
	DD	imagerel $LN23
	DD	imagerel $LN23+69
	DD	imagerel $unwind$PMC_BitwiseOr_X_X
xdata	ENDS
;	COMDAT xdata
xdata	SEGMENT
$chain$2$PMC_BitwiseOr_X_X DD 020021H
	DD	0be400H
	DD	imagerel $LN23
	DD	imagerel $LN23+69
	DD	imagerel $unwind$PMC_BitwiseOr_X_X
xdata	ENDS
;	COMDAT xdata
xdata	SEGMENT
$chain$1$PMC_BitwiseOr_X_X DD 021H
	DD	imagerel $LN23
	DD	imagerel $LN23+69
	DD	imagerel $unwind$PMC_BitwiseOr_X_X
xdata	ENDS
;	COMDAT xdata
xdata	SEGMENT
$chain$0$PMC_BitwiseOr_X_X DD 020521H
	DD	0be405H
	DD	imagerel $LN23
	DD	imagerel $LN23+69
	DD	imagerel $unwind$PMC_BitwiseOr_X_X
xdata	ENDS
;	COMDAT xdata
xdata	SEGMENT
$unwind$PMC_BitwiseOr_X_X DD 040801H
	DD	070045208H
	DD	030026003H
xdata	ENDS
;	COMDAT xdata
xdata	SEGMENT
$unwind$PMC_BitwiseOr_X_L DD 060f01H
	DD	08640fH
	DD	07340fH
	DD	0700b320fH
xdata	ENDS
;	COMDAT xdata
xdata	SEGMENT
$chain$7$PMC_BitwiseOr_X_I DD 021H
	DD	imagerel $LN32
	DD	imagerel $LN32+48
	DD	imagerel $unwind$PMC_BitwiseOr_X_I
xdata	ENDS
;	COMDAT xdata
xdata	SEGMENT
$chain$6$PMC_BitwiseOr_X_I DD 020021H
	DD	097400H
	DD	imagerel $LN32
	DD	imagerel $LN32+48
	DD	imagerel $unwind$PMC_BitwiseOr_X_I
xdata	ENDS
;	COMDAT xdata
xdata	SEGMENT
$chain$4$PMC_BitwiseOr_X_I DD 020021H
	DD	097400H
	DD	imagerel $LN32
	DD	imagerel $LN32+48
	DD	imagerel $unwind$PMC_BitwiseOr_X_I
xdata	ENDS
;	COMDAT xdata
xdata	SEGMENT
$chain$3$PMC_BitwiseOr_X_I DD 021H
	DD	imagerel $LN32
	DD	imagerel $LN32+48
	DD	imagerel $unwind$PMC_BitwiseOr_X_I
xdata	ENDS
;	COMDAT xdata
xdata	SEGMENT
$chain$2$PMC_BitwiseOr_X_I DD 020021H
	DD	097400H
	DD	imagerel $LN32
	DD	imagerel $LN32+48
	DD	imagerel $unwind$PMC_BitwiseOr_X_I
xdata	ENDS
;	COMDAT xdata
xdata	SEGMENT
$chain$0$PMC_BitwiseOr_X_I DD 020521H
	DD	097405H
	DD	imagerel $LN32
	DD	imagerel $LN32+48
	DD	imagerel $unwind$PMC_BitwiseOr_X_I
xdata	ENDS
;	COMDAT xdata
xdata	SEGMENT
$unwind$PMC_BitwiseOr_X_I DD 040901H
	DD	0e0053209H
	DD	030026003H
xdata	ENDS
; Function compile flags: /Ogtpy
; File z:\sources\lunor\repos\rougemeilland\palmtree.math.core.implements\palmtree.math.core.implements\pmc_bitwiseor.c
; File z:\sources\lunor\repos\rougemeilland\palmtree.math.core.implements\palmtree.math.core.implements\pmc_internal.h
; File z:\sources\lunor\repos\rougemeilland\palmtree.math.core.implements\palmtree.math.core.implements\pmc_bitwiseor.c
; File z:\sources\lunor\repos\rougemeilland\palmtree.math.core.implements\palmtree.math.core.implements\pmc_internal.h
; File z:\sources\lunor\repos\rougemeilland\palmtree.math.core.implements\palmtree.math.core.implements\pmc_bitwiseor.c
;	COMDAT BitwiseOr_X_X
_TEXT	SEGMENT
u$ = 8
u_count$ = 16
v$ = 24
v_count$ = 32
w$ = 40
BitwiseOr_X_X PROC					; COMDAT

; 72   : {

	mov	QWORD PTR [rsp+8], rbx
	mov	QWORD PTR [rsp+16], rbp
	mov	QWORD PTR [rsp+24], rsi
	mov	QWORD PTR [rsp+32], rdi

; 73   :     __UNIT_TYPE or_count = v_count;
; 74   :     __UNIT_TYPE cp_count = u_count - v_count;
; 75   : 
; 76   :     __UNIT_TYPE count = or_count >> 5;
; 77   :     while (count > 0)

	mov	rdi, QWORD PTR w$[rsp]
	mov	rbp, rdx
	mov	r11, r9
	sub	rbp, r9
	shr	r11, 5
	mov	rbx, r9
	mov	rsi, rcx
	test	r11, r11
	je	$LN3@BitwiseOr_
	npad	11
$LL2@BitwiseOr_:

; 78   :     {
; 79   :         w[0] = u[0] | v[0];

	lea	rcx, QWORD PTR [r8+16]
	lea	rax, QWORD PTR [rcx+232]
	cmp	rdi, rax
	ja	SHORT $LN32@BitwiseOr_
	lea	rax, QWORD PTR [rdi+248]
	cmp	rax, r8
	jae	SHORT $LN72@BitwiseOr_
$LN32@BitwiseOr_:
	lea	rax, QWORD PTR [rsi+248]
	cmp	rdi, rax
	ja	SHORT $LN33@BitwiseOr_
	lea	rax, QWORD PTR [rdi+248]
	cmp	rax, rsi
	jb	SHORT $LN33@BitwiseOr_
$LN72@BitwiseOr_:
	mov	r9, rsi
	mov	r10, rdi
	sub	r9, r8
	mov	rax, r8
	sub	r10, r8
	mov	edx, 32					; 00000020H
	npad	8
$LL71@BitwiseOr_:
	mov	rcx, QWORD PTR [rax+r9]
	or	rcx, QWORD PTR [rax]
	mov	QWORD PTR [rax+r10], rcx
	lea	rax, QWORD PTR [rax+8]
	sub	rdx, 1
	jne	SHORT $LL71@BitwiseOr_
	jmp	SHORT $LN15@BitwiseOr_
$LN33@BitwiseOr_:
	mov	rax, rsi
	mov	rdx, rdi
	sub	rax, r8
	mov	r9d, 4
	sub	rdx, r8
	npad	7
$LL14@BitwiseOr_:
	movdqu	xmm0, XMMWORD PTR [rcx-16]
	movdqu	xmm1, XMMWORD PTR [rax+rcx-16]
	movdqu	xmm2, XMMWORD PTR [rax+rcx]
	lea	rcx, QWORD PTR [rcx+64]
	por	xmm1, xmm0
	movdqu	xmm0, XMMWORD PTR [rcx-64]
	movdqu	XMMWORD PTR [rdx+rcx-80], xmm1
	por	xmm2, xmm0
	movdqu	xmm0, XMMWORD PTR [rcx-48]
	movdqu	xmm1, XMMWORD PTR [rax+rcx-48]
	movdqu	XMMWORD PTR [rdx+rcx-64], xmm2
	por	xmm1, xmm0
	movdqu	xmm0, XMMWORD PTR [rcx-32]
	movdqu	xmm2, XMMWORD PTR [rax+rcx-32]
	movdqu	XMMWORD PTR [rdx+rcx-48], xmm1
	por	xmm2, xmm0
	movdqu	XMMWORD PTR [rdx+rcx-32], xmm2
	sub	r9, 1
	jne	SHORT $LL14@BitwiseOr_
$LN15@BitwiseOr_:

; 80   :         w[1] = u[1] | v[1];
; 81   :         w[2] = u[2] | v[2];
; 82   :         w[3] = u[3] | v[3];
; 83   :         w[4] = u[4] | v[4];
; 84   :         w[5] = u[5] | v[5];
; 85   :         w[6] = u[6] | v[6];
; 86   :         w[7] = u[7] | v[7];
; 87   :         w[8] = u[8] | v[8];
; 88   :         w[9] = u[9] | v[9];
; 89   :         w[10] = u[10] | v[10];
; 90   :         w[11] = u[11] | v[11];
; 91   :         w[12] = u[12] | v[12];
; 92   :         w[13] = u[13] | v[13];
; 93   :         w[14] = u[14] | v[14];
; 94   :         w[15] = u[15] | v[15];
; 95   :         w[16] = u[16] | v[16];
; 96   :         w[17] = u[17] | v[17];
; 97   :         w[18] = u[18] | v[18];
; 98   :         w[19] = u[19] | v[19];
; 99   :         w[20] = u[20] | v[20];
; 100  :         w[21] = u[21] | v[21];
; 101  :         w[22] = u[22] | v[22];
; 102  :         w[23] = u[23] | v[23];
; 103  :         w[24] = u[24] | v[24];
; 104  :         w[25] = u[25] | v[25];
; 105  :         w[26] = u[26] | v[26];
; 106  :         w[27] = u[27] | v[27];
; 107  :         w[28] = u[28] | v[28];
; 108  :         w[29] = u[29] | v[29];
; 109  :         w[30] = u[30] | v[30];
; 110  :         w[31] = u[31] | v[31];
; 111  :         u += 32;

	add	rsi, 256				; 00000100H

; 112  :         v += 32;

	add	r8, 256					; 00000100H

; 113  :         w += 32;

	add	rdi, 256				; 00000100H

; 114  :         --count;

	sub	r11, 1
	jne	$LL2@BitwiseOr_
$LN3@BitwiseOr_:

; 115  :     }
; 116  : 
; 117  :     if (or_count & 0x10)

	test	bl, 16
	je	$LN4@BitwiseOr_

; 118  :     {
; 119  :         w[0] = u[0] | v[0];

	lea	rax, QWORD PTR [r8+120]
	xor	r9d, r9d
	lea	rcx, QWORD PTR [rdi+120]
	mov	edx, 16
	cmp	rdi, rax
	ja	SHORT $LN36@BitwiseOr_
	cmp	rcx, r8
	jae	$LN35@BitwiseOr_
$LN36@BitwiseOr_:
	lea	rax, QWORD PTR [rsi+120]
	cmp	rdi, rax
	ja	SHORT $LN37@BitwiseOr_
	cmp	rcx, rsi
	jae	$LN35@BitwiseOr_
$LN37@BitwiseOr_:
	mov	rcx, rsi
	lea	rax, QWORD PTR [r8+16]
	sub	rcx, r8
	mov	r9, rdi
	sub	r9, r8
	mov	r10d, 2
	npad	5
$LL16@BitwiseOr_:
	movdqu	xmm0, XMMWORD PTR [rax-16]
	movdqu	xmm1, XMMWORD PTR [rax+rcx-16]
	movdqu	xmm2, XMMWORD PTR [rax+rcx]
	lea	rax, QWORD PTR [rax+64]
	por	xmm1, xmm0
	movdqu	xmm0, XMMWORD PTR [rax-64]
	movdqu	XMMWORD PTR [rax+r9-80], xmm1
	por	xmm2, xmm0
	movdqu	xmm0, XMMWORD PTR [rax-48]
	movdqu	xmm1, XMMWORD PTR [rax+rcx-48]
	movdqu	XMMWORD PTR [rax+r9-64], xmm2
	por	xmm1, xmm0
	movdqu	xmm0, XMMWORD PTR [rax-32]
	movdqu	xmm2, XMMWORD PTR [rax+rcx-32]
	movdqu	XMMWORD PTR [rax+r9-48], xmm1
	por	xmm2, xmm0
	movdqu	XMMWORD PTR [rax+r9-32], xmm2
	sub	r10, 1
	jne	SHORT $LL16@BitwiseOr_
	mov	r9, rdx
$LN35@BitwiseOr_:
	cmp	r9, rdx
	jae	SHORT $LN17@BitwiseOr_
	mov	r10, rsi
	lea	rcx, QWORD PTR [r8+r9*8]
	mov	r11, rdi
	sub	r10, r8
	sub	r11, r8
	sub	rdx, r9
	npad	4
$LL34@BitwiseOr_:
	mov	rax, QWORD PTR [rcx+r10]
	or	rax, QWORD PTR [rcx]
	mov	QWORD PTR [rcx+r11], rax
	lea	rcx, QWORD PTR [rcx+8]
	sub	rdx, 1
	jne	SHORT $LL34@BitwiseOr_
$LN17@BitwiseOr_:

; 120  :         w[1] = u[1] | v[1];
; 121  :         w[2] = u[2] | v[2];
; 122  :         w[3] = u[3] | v[3];
; 123  :         w[4] = u[4] | v[4];
; 124  :         w[5] = u[5] | v[5];
; 125  :         w[6] = u[6] | v[6];
; 126  :         w[7] = u[7] | v[7];
; 127  :         w[8] = u[8] | v[8];
; 128  :         w[9] = u[9] | v[9];
; 129  :         w[10] = u[10] | v[10];
; 130  :         w[11] = u[11] | v[11];
; 131  :         w[12] = u[12] | v[12];
; 132  :         w[13] = u[13] | v[13];
; 133  :         w[14] = u[14] | v[14];
; 134  :         w[15] = u[15] | v[15];
; 135  :         u += 16;

	sub	rsi, -128				; ffffffffffffff80H

; 136  :         v += 16;

	sub	r8, -128				; ffffffffffffff80H

; 137  :         w += 16;

	sub	rdi, -128				; ffffffffffffff80H
$LN4@BitwiseOr_:

; 138  :     }
; 139  : 
; 140  :     if (or_count & 0x8)

	test	bl, 8
	je	SHORT $LN5@BitwiseOr_

; 141  :     {
; 142  :         w[0] = u[0] | v[0];

	mov	rax, QWORD PTR [rsi]
	or	rax, QWORD PTR [r8]
	mov	QWORD PTR [rdi], rax
	mov	rax, QWORD PTR [rsi+8]
	or	rax, QWORD PTR [r8+8]
	mov	QWORD PTR [rdi+8], rax
	mov	rax, QWORD PTR [rsi+16]
	or	rax, QWORD PTR [r8+16]
	mov	QWORD PTR [rdi+16], rax
	mov	rax, QWORD PTR [rsi+24]
	or	rax, QWORD PTR [r8+24]
	mov	QWORD PTR [rdi+24], rax
	mov	rax, QWORD PTR [rsi+32]
	or	rax, QWORD PTR [r8+32]
	mov	QWORD PTR [rdi+32], rax
	mov	rax, QWORD PTR [rsi+40]
	or	rax, QWORD PTR [r8+40]
	mov	QWORD PTR [rdi+40], rax
	mov	rax, QWORD PTR [rsi+48]
	or	rax, QWORD PTR [r8+48]
	mov	QWORD PTR [rdi+48], rax
	mov	rax, QWORD PTR [rsi+56]

; 143  :         w[1] = u[1] | v[1];
; 144  :         w[2] = u[2] | v[2];
; 145  :         w[3] = u[3] | v[3];
; 146  :         w[4] = u[4] | v[4];
; 147  :         w[5] = u[5] | v[5];
; 148  :         w[6] = u[6] | v[6];
; 149  :         w[7] = u[7] | v[7];
; 150  :         u += 8;

	add	rsi, 64					; 00000040H
	or	rax, QWORD PTR [r8+56]

; 151  :         v += 8;

	add	r8, 64					; 00000040H
	mov	QWORD PTR [rdi+56], rax

; 152  :         w += 8;

	add	rdi, 64					; 00000040H
$LN5@BitwiseOr_:

; 153  :     }
; 154  : 
; 155  :     if (or_count & 0x4)

	test	bl, 4
	je	SHORT $LN6@BitwiseOr_

; 156  :     {
; 157  :         w[0] = u[0] | v[0];

	mov	rax, QWORD PTR [rsi]
	or	rax, QWORD PTR [r8]
	mov	QWORD PTR [rdi], rax
	mov	rax, QWORD PTR [rsi+8]
	or	rax, QWORD PTR [r8+8]
	mov	QWORD PTR [rdi+8], rax
	mov	rax, QWORD PTR [rsi+16]
	or	rax, QWORD PTR [r8+16]
	mov	QWORD PTR [rdi+16], rax
	mov	rax, QWORD PTR [rsi+24]

; 158  :         w[1] = u[1] | v[1];
; 159  :         w[2] = u[2] | v[2];
; 160  :         w[3] = u[3] | v[3];
; 161  :         u += 4;

	add	rsi, 32					; 00000020H
	or	rax, QWORD PTR [r8+24]

; 162  :         v += 4;

	add	r8, 32					; 00000020H
	mov	QWORD PTR [rdi+24], rax

; 163  :         w += 4;

	add	rdi, 32					; 00000020H
$LN6@BitwiseOr_:

; 164  :     }
; 165  : 
; 166  :     if (or_count & 0x2)

	test	bl, 2
	je	SHORT $LN7@BitwiseOr_

; 167  :     {
; 168  :         w[0] = u[0] | v[0];

	mov	rax, QWORD PTR [rsi]
	or	rax, QWORD PTR [r8]
	mov	QWORD PTR [rdi], rax
	mov	rax, QWORD PTR [rsi+8]

; 169  :         w[1] = u[1] | v[1];
; 170  :         u += 2;

	add	rsi, 16
	or	rax, QWORD PTR [r8+8]

; 171  :         v += 2;

	add	r8, 16
	mov	QWORD PTR [rdi+8], rax

; 172  :         w += 2;

	add	rdi, 16
$LN7@BitwiseOr_:

; 173  :     }
; 174  : 
; 175  :     if (or_count & 0x1)

	test	bl, 1
	je	SHORT $LN8@BitwiseOr_

; 176  :     {
; 177  :         w[0] = u[0] | v[0];

	mov	rax, QWORD PTR [rsi]

; 178  :         u += 1;

	add	rsi, 8
	or	rax, QWORD PTR [r8]
	mov	QWORD PTR [rdi], rax

; 179  :         v += 1;
; 180  :         w += 1;

	add	rdi, 8
$LN8@BitwiseOr_:

; 184  : }

	mov	rbx, QWORD PTR [rsp+8]
; File z:\sources\lunor\repos\rougemeilland\palmtree.math.core.implements\palmtree.math.core.implements\pmc_internal.h

; 281  :     __movsq(d, s, count);

	mov	rcx, rbp
; File z:\sources\lunor\repos\rougemeilland\palmtree.math.core.implements\palmtree.math.core.implements\pmc_bitwiseor.c

; 184  : }

	mov	rbp, QWORD PTR [rsp+16]
; File z:\sources\lunor\repos\rougemeilland\palmtree.math.core.implements\palmtree.math.core.implements\pmc_internal.h

; 281  :     __movsq(d, s, count);

	rep movsq
; File z:\sources\lunor\repos\rougemeilland\palmtree.math.core.implements\palmtree.math.core.implements\pmc_bitwiseor.c

; 184  : }

	mov	rsi, QWORD PTR [rsp+24]
	mov	rdi, QWORD PTR [rsp+32]
	ret	0
BitwiseOr_X_X ENDP
_TEXT	ENDS
; Function compile flags: /Ogtpy
; File z:\sources\lunor\repos\rougemeilland\palmtree.math.core.implements\palmtree.math.core.implements\pmc_bitwiseor.c
; File z:\sources\lunor\repos\rougemeilland\palmtree.math.core.implements\palmtree.math.core.implements\pmc_internal.h
; File z:\sources\lunor\repos\rougemeilland\palmtree.math.core.implements\palmtree.math.core.implements\pmc_bitwiseor.c
;	COMDAT BitwiseOr_X_2W
_TEXT	SEGMENT
u$ = 8
u_count$ = 16
v_hi$ = 24
v_lo$ = 32
w$ = 40
BitwiseOr_X_2W PROC					; COMDAT

; 51   : {

	mov	QWORD PTR [rsp+8], rsi
	mov	QWORD PTR [rsp+16], rdi
	mov	rax, QWORD PTR [rcx]
	mov	rsi, rcx
	mov	rdi, QWORD PTR w$[rsp]
	or	rax, r9

; 52   :     if (u_count == 1)

	mov	QWORD PTR [rdi], rax
	cmp	rdx, 1
	jne	SHORT $LN2@BitwiseOr_

; 53   :     {
; 54   :         w[0] = u[0] | v_lo;
; 55   :         w[1] = v_hi;

	mov	QWORD PTR [rdi+8], r8

; 68   : }

	mov	rsi, QWORD PTR [rsp+8]
	mov	rdi, QWORD PTR [rsp+16]
	ret	0
$LN2@BitwiseOr_:

; 56   :     }
; 57   :     else if (u_count == 2)

	mov	rax, QWORD PTR [rcx+8]
	or	rax, r8
	mov	QWORD PTR [rdi+8], rax
	cmp	rdx, 2
	je	SHORT $LN7@BitwiseOr_

; 58   :     {
; 59   :         w[0] = u[0] | v_lo;
; 60   :         w[1] = u[1] | v_hi;
; 61   :     }
; 62   :     else
; 63   :     {
; 64   :         w[0] = u[0] | v_lo;
; 65   :         w[1] = u[1] | v_hi;
; 66   :         _COPY_MEMORY_UNIT(w + 2, u + 2, u_count - 2);

	add	rsi, 16
	lea	rcx, QWORD PTR [rdx-2]
	add	rdi, 16
; File z:\sources\lunor\repos\rougemeilland\palmtree.math.core.implements\palmtree.math.core.implements\pmc_internal.h

; 281  :     __movsq(d, s, count);

	rep movsq
$LN7@BitwiseOr_:
; File z:\sources\lunor\repos\rougemeilland\palmtree.math.core.implements\palmtree.math.core.implements\pmc_bitwiseor.c

; 68   : }

	mov	rsi, QWORD PTR [rsp+8]
	mov	rdi, QWORD PTR [rsp+16]
	ret	0
BitwiseOr_X_2W ENDP
_TEXT	ENDS
; Function compile flags: /Ogtpy
; File z:\sources\lunor\repos\rougemeilland\palmtree.math.core.implements\palmtree.math.core.implements\pmc_bitwiseor.c
; File z:\sources\lunor\repos\rougemeilland\palmtree.math.core.implements\palmtree.math.core.implements\pmc_internal.h
; File z:\sources\lunor\repos\rougemeilland\palmtree.math.core.implements\palmtree.math.core.implements\pmc_bitwiseor.c
;	COMDAT BitwiseOr_X_1W
_TEXT	SEGMENT
u$ = 16
u_count$ = 24
v$ = 32
w$ = 40
BitwiseOr_X_1W PROC					; COMDAT

; 39   : {

	push	rsi
	mov	rax, QWORD PTR [rcx]
	mov	rsi, rcx
	or	rax, r8
	mov	QWORD PTR [r9], rax

; 40   :     if (u_count == 1)

	cmp	rdx, 1
	je	SHORT $LN5@BitwiseOr_

; 41   :         w[0] = u[0] | v;
; 42   :     else
; 43   :     {
; 44   :         w[0] = u[0] | v;
; 45   :         _COPY_MEMORY_UNIT(w + 1, u + 1, u_count - 1);

	mov	QWORD PTR [rsp+16], rdi
	lea	rcx, QWORD PTR [rdx-1]
	lea	rdi, QWORD PTR [r9+8]
	add	rsi, 8
; File z:\sources\lunor\repos\rougemeilland\palmtree.math.core.implements\palmtree.math.core.implements\pmc_internal.h

; 281  :     __movsq(d, s, count);

	rep movsq
	mov	rdi, QWORD PTR [rsp+16]
$LN5@BitwiseOr_:
; File z:\sources\lunor\repos\rougemeilland\palmtree.math.core.implements\palmtree.math.core.implements\pmc_bitwiseor.c

; 47   : }

	pop	rsi
	ret	0
BitwiseOr_X_1W ENDP
_TEXT	ENDS
; Function compile flags: /Ogtpy
; File z:\sources\lunor\repos\rougemeilland\palmtree.math.core.implements\palmtree.math.core.implements\pmc_internal.h
;	COMDAT _LZCNT_ALT_UNIT
_TEXT	SEGMENT
x$ = 8
_LZCNT_ALT_UNIT PROC					; COMDAT

; 841  :     if (x == 0)

	test	rcx, rcx
	jne	SHORT $LN2@LZCNT_ALT_

; 842  :         return (sizeof(x) * 8);

	mov	eax, 64					; 00000040H

; 866  : }

	ret	0
$LN2@LZCNT_ALT_:

; 843  : #ifdef _M_IX86
; 844  :     _UINT32_T pos;
; 845  : #ifdef _MSC_VER
; 846  :     _BitScanReverse(&pos, x);
; 847  : #elif defined(__GNUC__)
; 848  :     __asm__("bsrl %1, %0" : "=r"(pos) : "rm"(x));
; 849  : #else
; 850  : #error unknown compiler
; 851  : #endif
; 852  : #elif defined(_M_X64)
; 853  : #ifdef _MSC_VER
; 854  :     _UINT32_T pos;
; 855  :     _BitScanReverse64(&pos, x);

	bsr	rcx, rcx

; 856  : #elif defined(__GNUC__)
; 857  :     _UINT64_T pos;
; 858  :     __asm__("bsrq %1, %0" : "=r"(pos) : "rm"(x));
; 859  : #else
; 860  : #error unknown compiler
; 861  : #endif
; 862  : #else
; 863  : #error unknown platform
; 864  : #endif
; 865  :     return (sizeof(x) * 8 - 1 - pos);

	mov	eax, 63					; 0000003fH
	sub	rax, rcx

; 866  : }

	ret	0
_LZCNT_ALT_UNIT ENDP
_TEXT	ENDS
; Function compile flags: /Ogtpy
; File z:\sources\lunor\repos\rougemeilland\palmtree.math.core.implements\palmtree.math.core.implements\pmc_internal.h
;	COMDAT _LZCNT_ALT_32
_TEXT	SEGMENT
x$ = 8
_LZCNT_ALT_32 PROC					; COMDAT

; 808  :     if (x == 0)

	test	ecx, ecx
	jne	SHORT $LN2@LZCNT_ALT_

; 809  :         return (sizeof(x) * 8);

	mov	eax, 32					; 00000020H

; 819  : }

	ret	0
$LN2@LZCNT_ALT_:

; 810  :     _UINT32_T pos;
; 811  : #ifdef _MSC_VER
; 812  :     _BitScanReverse(&pos, x);

	bsr	ecx, ecx

; 813  : #elif defined(__GNUC__)
; 814  :     __asm__( "bsrl %1, %0" : "=r"(pos) : "rm"(x) );
; 815  : #else
; 816  : #error unknown compiler
; 817  : #endif
; 818  :     return (sizeof(x) * 8 - 1 - pos);

	mov	eax, 31
	sub	eax, ecx

; 819  : }

	ret	0
_LZCNT_ALT_32 ENDP
_TEXT	ENDS
; Function compile flags: /Ogtpy
; File z:\sources\lunor\repos\rougemeilland\palmtree.math.core.implements\palmtree.math.core.implements\pmc_internal.h
;	COMDAT _MAXIMUM_UNIT
_TEXT	SEGMENT
x$ = 8
y$ = 16
_MAXIMUM_UNIT PROC					; COMDAT

; 415  :     return (x >= y ? x : y);

	cmp	rcx, rdx
	cmovae	rdx, rcx
	mov	rax, rdx

; 416  : }

	ret	0
_MAXIMUM_UNIT ENDP
_TEXT	ENDS
; Function compile flags: /Ogtpy
; File z:\sources\lunor\repos\rougemeilland\palmtree.math.core.implements\palmtree.math.core.implements\pmc_internal.h
;	COMDAT _FROMDWORDTOWORD
_TEXT	SEGMENT
value$ = 8
result_high$ = 16
_FROMDWORDTOWORD PROC					; COMDAT

; 394  :     *result_high = (_UINT32_T)(value >> 32);

	mov	rax, rcx
	shr	rax, 32					; 00000020H
	mov	DWORD PTR [rdx], eax

; 395  :     return ((_UINT32_T)value);

	mov	eax, ecx

; 396  : }

	ret	0
_FROMDWORDTOWORD ENDP
_TEXT	ENDS
; Function compile flags: /Ogtpy
; File z:\sources\lunor\repos\rougemeilland\palmtree.math.core.implements\palmtree.math.core.implements\pmc_internal.h
;	COMDAT _COPY_MEMORY_UNIT
_TEXT	SEGMENT
d$ = 8
s$ = 16
count$ = 24
_COPY_MEMORY_UNIT PROC					; COMDAT

; 277  : {

	mov	QWORD PTR [rsp+8], rsi
	mov	QWORD PTR [rsp+16], rdi

; 278  : #ifdef _M_IX86
; 279  :     __movsd((unsigned long *)d, (unsigned long *)s, (unsigned long)count);
; 280  : #elif defined(_M_X64)
; 281  :     __movsq(d, s, count);

	mov	rdi, rcx
	mov	rsi, rdx
	mov	rcx, r8
	rep movsq

; 282  : #else
; 283  : #error unknown platform
; 284  : #endif
; 285  : }

	mov	rsi, QWORD PTR [rsp+8]
	mov	rdi, QWORD PTR [rsp+16]
	ret	0
_COPY_MEMORY_UNIT ENDP
_TEXT	ENDS
; Function compile flags: /Ogtpy
; File z:\sources\lunor\repos\rougemeilland\palmtree.math.core.implements\palmtree.math.core.implements\pmc_bitwiseor.c
; File z:\sources\lunor\repos\rougemeilland\palmtree.math.core.implements\palmtree.math.core.implements\pmc_internal.h
; File z:\sources\lunor\repos\rougemeilland\palmtree.math.core.implements\palmtree.math.core.implements\pmc_bitwiseor.c
;	COMDAT PMC_BitwiseOr_X_X
_TEXT	SEGMENT
nw$ = 80
u$ = 80
v$ = 88
w$ = 96
nw_light_check_code$1 = 104
PMC_BitwiseOr_X_X PROC					; COMDAT

; 343  : {

$LN23:
	push	rbx
	push	rsi
	push	rdi
	sub	rsp, 48					; 00000030H
	mov	rsi, r8
	mov	rbx, rdx
	mov	rdi, rcx

; 344  :     if (u == NULL)

	test	rcx, rcx
	je	$LN19@PMC_Bitwis

; 345  :         return (PMC_STATUS_ARGUMENT_ERROR);
; 346  :     if (v == NULL)

	test	rdx, rdx
	je	$LN19@PMC_Bitwis

; 347  :         return (PMC_STATUS_ARGUMENT_ERROR);
; 348  :     if (w == NULL)

	test	r8, r8
	je	$LN19@PMC_Bitwis

; 350  :     NUMBER_HEADER* nu = (NUMBER_HEADER*)u;
; 351  :     NUMBER_HEADER* nv = (NUMBER_HEADER*)v;
; 352  :     PMC_STATUS_CODE result;
; 353  :     if ((result = CheckNumber(nu)) != PMC_STATUS_OK)

	call	CheckNumber
	test	eax, eax
	jne	SHORT $LN1@PMC_Bitwis

; 354  :         return (result);
; 355  :     if ((result = CheckNumber(nv)) != PMC_STATUS_OK)

	mov	rcx, rbx
	call	CheckNumber
	test	eax, eax
	jne	SHORT $LN1@PMC_Bitwis

; 356  :         return (result);
; 357  :     NUMBER_HEADER* nw;
; 358  :     if (nu->IS_ZERO)

	test	BYTE PTR [rdi+32], 2
	mov	QWORD PTR [rsp+88], r14
	je	SHORT $LN7@PMC_Bitwis

; 359  :     {
; 360  :         if ((result = DuplicateNumber(nv, &nw)) != PMC_STATUS_OK)

	lea	rdx, QWORD PTR nw$[rsp]
	mov	rcx, rbx
$LN21@PMC_Bitwis:
	call	DuplicateNumber
	test	eax, eax
	je	$LN11@PMC_Bitwis
$LN20@PMC_Bitwis:
	mov	r14, QWORD PTR [rsp+88]
$LN1@PMC_Bitwis:

; 393  : }

	add	rsp, 48					; 00000030H
	pop	rdi
	pop	rsi
	pop	rbx
	ret	0
$LN7@PMC_Bitwis:

; 361  :             return (result);
; 362  :     }
; 363  :     else if (nv->IS_ZERO)

	test	BYTE PTR [rbx+32], 2
	je	SHORT $LN10@PMC_Bitwis

; 364  :     {
; 365  :         if ((result = DuplicateNumber(nu, &nw)) != PMC_STATUS_OK)

	lea	rdx, QWORD PTR nw$[rsp]
	mov	rcx, rdi

; 366  :             return (result);

	jmp	SHORT $LN21@PMC_Bitwis
$LN10@PMC_Bitwis:

; 367  :     }
; 368  :     else
; 369  :     {
; 370  :         if (nu->UNIT_WORD_COUNT < nv->UNIT_WORD_COUNT)

	mov	rcx, QWORD PTR [rdi]

; 380  :         if ((result = AllocateNumber(&nw, w_bit_count, &nw_light_check_code)) != PMC_STATUS_OK)

	lea	r8, QWORD PTR nw_light_check_code$1[rsp]
	cmp	rcx, QWORD PTR [rbx]
	mov	r14, rdi
	lea	rcx, QWORD PTR nw$[rsp]
	cmovae	r14, rbx
	cmovae	rbx, rdi
	mov	rdx, QWORD PTR [r14+8]
; File z:\sources\lunor\repos\rougemeilland\palmtree.math.core.implements\palmtree.math.core.implements\pmc_internal.h

; 415  :     return (x >= y ? x : y);

	cmp	QWORD PTR [rbx+8], rdx
	cmovae	rdx, QWORD PTR [rbx+8]
; File z:\sources\lunor\repos\rougemeilland\palmtree.math.core.implements\palmtree.math.core.implements\pmc_bitwiseor.c

; 380  :         if ((result = AllocateNumber(&nw, w_bit_count, &nw_light_check_code)) != PMC_STATUS_OK)

	call	AllocateNumber
	test	eax, eax
	jne	SHORT $LN20@PMC_Bitwis

; 381  :             return (result);
; 382  :         BitwiseOr_X_X(nu->BLOCK, nu->UNIT_WORD_COUNT, nv->BLOCK, nv->UNIT_WORD_COUNT, nw->BLOCK);

	mov	rax, QWORD PTR nw$[rsp]
	mov	r9, QWORD PTR [r14]
	mov	r8, QWORD PTR [r14+48]
	mov	rdx, QWORD PTR [rbx]
	mov	rcx, QWORD PTR [rax+48]
	mov	QWORD PTR [rsp+32], rcx
	mov	rcx, QWORD PTR [rbx+48]
	call	BitwiseOr_X_X

; 383  :         if ((result = CheckBlockLight(nw->BLOCK, nw_light_check_code)) != PMC_STATUS_OK)

	mov	rcx, QWORD PTR nw$[rsp]
	mov	rdx, QWORD PTR nw_light_check_code$1[rsp]
	mov	rcx, QWORD PTR [rcx+48]
	call	CheckBlockLight
	test	eax, eax
	jne	$LN20@PMC_Bitwis

; 384  :             return (result);
; 385  :         CommitNumber(nw);

	mov	rcx, QWORD PTR nw$[rsp]
	call	CommitNumber
$LN11@PMC_Bitwis:

; 386  :     }
; 387  :     *w = nw;

	mov	rax, QWORD PTR nw$[rsp]
	mov	r14, QWORD PTR [rsp+88]
	mov	QWORD PTR [rsi], rax

; 388  : #ifdef _DEBUG
; 389  :     if ((result = CheckNumber(*w)) != PMC_STATUS_OK)
; 390  :         return (result);
; 391  : #endif
; 392  :     return (PMC_STATUS_OK);

	xor	eax, eax

; 393  : }

	add	rsp, 48					; 00000030H
	pop	rdi
	pop	rsi
	pop	rbx
	ret	0
$LN19@PMC_Bitwis:

; 349  :         return (PMC_STATUS_ARGUMENT_ERROR);

	mov	eax, -1

; 393  : }

	add	rsp, 48					; 00000030H
	pop	rdi
	pop	rsi
	pop	rbx
	ret	0
PMC_BitwiseOr_X_X ENDP
_TEXT	ENDS
; Function compile flags: /Ogtpy
; File z:\sources\lunor\repos\rougemeilland\palmtree.math.core.implements\palmtree.math.core.implements\pmc_bitwiseor.c
; File z:\sources\lunor\repos\rougemeilland\palmtree.math.core.implements\palmtree.math.core.implements\pmc_internal.h
; File z:\sources\lunor\repos\rougemeilland\palmtree.math.core.implements\palmtree.math.core.implements\pmc_bitwiseor.c
; File z:\sources\lunor\repos\rougemeilland\palmtree.math.core.implements\palmtree.math.core.implements\pmc_internal.h
; File z:\sources\lunor\repos\rougemeilland\palmtree.math.core.implements\palmtree.math.core.implements\pmc_bitwiseor.c
; File z:\sources\lunor\repos\rougemeilland\palmtree.math.core.implements\palmtree.math.core.implements\pmc_internal.h
; File z:\sources\lunor\repos\rougemeilland\palmtree.math.core.implements\palmtree.math.core.implements\pmc_bitwiseor.c
; File z:\sources\lunor\repos\rougemeilland\palmtree.math.core.implements\palmtree.math.core.implements\pmc_internal.h
; File z:\sources\lunor\repos\rougemeilland\palmtree.math.core.implements\palmtree.math.core.implements\pmc_bitwiseor.c
;	COMDAT PMC_BitwiseOr_X_L
_TEXT	SEGMENT
nw$ = 48
u$ = 48
v$ = 56
w$ = 64
nw_light_check_code$1 = 72
PMC_BitwiseOr_X_L PROC					; COMDAT

; 246  : {

$LN65:
	mov	QWORD PTR [rsp+16], rbx
	mov	QWORD PTR [rsp+24], rsi
	push	rdi
	sub	rsp, 32					; 00000020H
	mov	rbx, r8
	mov	rsi, rdx
	mov	rdi, rcx

; 247  :     if (__UNIT_TYPE_BIT_COUNT * 2 < sizeof(v) * 8)
; 248  :     {
; 249  :         // _UINT64_T が 2 ワードで表現しきれない処理系には対応しない
; 250  :         return (PMC_STATUS_INTERNAL_ERROR);
; 251  :     }
; 252  :     if (u == NULL)

	test	rcx, rcx
	je	$LN62@PMC_Bitwis

; 253  :         return (PMC_STATUS_ARGUMENT_ERROR);
; 254  :     if (w == NULL)

	test	rbx, rbx
	je	$LN62@PMC_Bitwis

; 256  :     NUMBER_HEADER* nu = (NUMBER_HEADER*)u;
; 257  :     PMC_STATUS_CODE result;
; 258  :     if ((result = CheckNumber(nu)) != PMC_STATUS_OK)

	call	CheckNumber
	test	eax, eax
	jne	$LN1@PMC_Bitwis

; 259  :         return (result);
; 260  :     NUMBER_HEADER* nw;
; 261  :     if (nu->IS_ZERO)

	test	BYTE PTR [rdi+32], 2
	je	SHORT $LN6@PMC_Bitwis

; 262  :     {
; 263  :         // x が 0 である場合
; 264  :         if (v == 0)

	test	rsi, rsi
	jne	SHORT $LN8@PMC_Bitwis

; 265  :         {
; 266  :             // v が 0 である場合
; 267  :             nw = &number_zero;

	lea	rax, OFFSET FLAT:number_zero

; 331  :         }
; 332  : 
; 333  :     }
; 334  :     *w = nw;

	mov	QWORD PTR [rbx], rax

; 335  : #ifdef _DEBUG
; 336  :     if ((result = CheckNumber(*w)) != PMC_STATUS_OK)
; 337  :         return (result);
; 338  : #endif
; 339  :     return (PMC_STATUS_OK);

	xor	eax, eax

; 340  : }

	mov	rbx, QWORD PTR [rsp+56]
	mov	rsi, QWORD PTR [rsp+64]
	add	rsp, 32					; 00000020H
	pop	rdi
	ret	0
$LN8@PMC_Bitwis:

; 268  :         }
; 269  :         else
; 270  :         {
; 271  :             // v が 0 でない場合
; 272  :             if ((result = From_L_Imp(v, &nw)) != PMC_STATUS_OK)

	lea	rdx, QWORD PTR nw$[rsp]
	mov	rcx, rsi
	call	From_L_Imp
	test	eax, eax
	je	$LN63@PMC_Bitwis

; 340  : }

	mov	rbx, QWORD PTR [rsp+56]
	mov	rsi, QWORD PTR [rsp+64]
	add	rsp, 32					; 00000020H
	pop	rdi
	ret	0
$LN6@PMC_Bitwis:

; 273  :                 return (result);
; 274  :         }
; 275  :     }
; 276  :     else if (v == 0)

	test	rsi, rsi
	jne	SHORT $LN11@PMC_Bitwis

; 277  :     {
; 278  :         // y が 0 である場合
; 279  :         if ((result = DuplicateNumber(nu, &nw)) != PMC_STATUS_OK)

	lea	rdx, QWORD PTR nw$[rsp]
	mov	rcx, rdi
	call	DuplicateNumber
	test	eax, eax
	jne	$LN1@PMC_Bitwis

; 331  :         }
; 332  : 
; 333  :     }
; 334  :     *w = nw;

	mov	rax, QWORD PTR nw$[rsp]
	mov	QWORD PTR [rbx], rax

; 335  : #ifdef _DEBUG
; 336  :     if ((result = CheckNumber(*w)) != PMC_STATUS_OK)
; 337  :         return (result);
; 338  : #endif
; 339  :     return (PMC_STATUS_OK);

	xor	eax, eax

; 340  : }

	mov	rbx, QWORD PTR [rsp+56]
	mov	rsi, QWORD PTR [rsp+64]
	add	rsp, 32					; 00000020H
	pop	rdi
	ret	0
$LN11@PMC_Bitwis:
; File z:\sources\lunor\repos\rougemeilland\palmtree.math.core.implements\palmtree.math.core.implements\pmc_internal.h

; 855  :     _BitScanReverse64(&pos, x);

	bsr	rdx, rsi
; File z:\sources\lunor\repos\rougemeilland\palmtree.math.core.implements\palmtree.math.core.implements\pmc_bitwiseor.c

; 325  :             if ((result = AllocateNumber(&nw, w_bit_count, &nw_light_check_code)) != PMC_STATUS_OK)

	lea	r8, QWORD PTR nw_light_check_code$1[rsp]
; File z:\sources\lunor\repos\rougemeilland\palmtree.math.core.implements\palmtree.math.core.implements\pmc_internal.h

; 865  :     return (sizeof(x) * 8 - 1 - pos);

	inc	rdx
; File z:\sources\lunor\repos\rougemeilland\palmtree.math.core.implements\palmtree.math.core.implements\pmc_bitwiseor.c

; 325  :             if ((result = AllocateNumber(&nw, w_bit_count, &nw_light_check_code)) != PMC_STATUS_OK)

	lea	rcx, QWORD PTR nw$[rsp]
; File z:\sources\lunor\repos\rougemeilland\palmtree.math.core.implements\palmtree.math.core.implements\pmc_internal.h

; 415  :     return (x >= y ? x : y);

	cmp	QWORD PTR [rdi+8], rdx
	cmovae	rdx, QWORD PTR [rdi+8]
; File z:\sources\lunor\repos\rougemeilland\palmtree.math.core.implements\palmtree.math.core.implements\pmc_bitwiseor.c

; 323  :             __UNIT_TYPE w_bit_count = _MAXIMUM_UNIT(u_bit_count, v_bit_count) + 1;

	inc	rdx

; 325  :             if ((result = AllocateNumber(&nw, w_bit_count, &nw_light_check_code)) != PMC_STATUS_OK)

	call	AllocateNumber
	test	eax, eax
	jne	SHORT $LN1@PMC_Bitwis

; 326  :                 return (result);
; 327  :             BitwiseOr_X_1W(nu->BLOCK, nu->UNIT_WORD_COUNT, (__UNIT_TYPE)v, nw->BLOCK);

	mov	rax, QWORD PTR nw$[rsp]
	mov	rcx, QWORD PTR [rdi]
	mov	rdi, QWORD PTR [rdi+48]
	mov	rdx, QWORD PTR [rax+48]
	mov	rax, QWORD PTR [rdi]

; 40   :     if (u_count == 1)

	or	rax, rsi
	mov	QWORD PTR [rdx], rax
	cmp	rcx, 1
	je	SHORT $LN60@PMC_Bitwis

; 41   :         w[0] = u[0] | v;
; 42   :     else
; 43   :     {
; 44   :         w[0] = u[0] | v;
; 45   :         _COPY_MEMORY_UNIT(w + 1, u + 1, u_count - 1);

	lea	rsi, QWORD PTR [rdi+8]
	dec	rcx
	lea	rdi, QWORD PTR [rdx+8]
; File z:\sources\lunor\repos\rougemeilland\palmtree.math.core.implements\palmtree.math.core.implements\pmc_internal.h

; 281  :     __movsq(d, s, count);

	rep movsq
$LN60@PMC_Bitwis:
; File z:\sources\lunor\repos\rougemeilland\palmtree.math.core.implements\palmtree.math.core.implements\pmc_bitwiseor.c

; 328  :             if ((result = CheckBlockLight(nw->BLOCK, nw_light_check_code)) != PMC_STATUS_OK)

	mov	rcx, QWORD PTR nw$[rsp]
	mov	rdx, QWORD PTR nw_light_check_code$1[rsp]
	mov	rcx, QWORD PTR [rcx+48]
	call	CheckBlockLight
	test	eax, eax
	jne	SHORT $LN1@PMC_Bitwis

; 329  :                 return (result);
; 330  :             CommitNumber(nw);

	mov	rcx, QWORD PTR nw$[rsp]
	call	CommitNumber
$LN63@PMC_Bitwis:

; 331  :         }
; 332  : 
; 333  :     }
; 334  :     *w = nw;

	mov	rax, QWORD PTR nw$[rsp]
	mov	QWORD PTR [rbx], rax

; 335  : #ifdef _DEBUG
; 336  :     if ((result = CheckNumber(*w)) != PMC_STATUS_OK)
; 337  :         return (result);
; 338  : #endif
; 339  :     return (PMC_STATUS_OK);

	xor	eax, eax

; 340  : }

	mov	rbx, QWORD PTR [rsp+56]
	mov	rsi, QWORD PTR [rsp+64]
	add	rsp, 32					; 00000020H
	pop	rdi
	ret	0
$LN62@PMC_Bitwis:

; 255  :         return (PMC_STATUS_ARGUMENT_ERROR);

	mov	eax, -1
$LN1@PMC_Bitwis:

; 340  : }

	mov	rbx, QWORD PTR [rsp+56]
	mov	rsi, QWORD PTR [rsp+64]
	add	rsp, 32					; 00000020H
	pop	rdi
	ret	0
PMC_BitwiseOr_X_L ENDP
_TEXT	ENDS
; Function compile flags: /Ogtpy
; File z:\sources\lunor\repos\rougemeilland\palmtree.math.core.implements\palmtree.math.core.implements\pmc_bitwiseor.c
; File z:\sources\lunor\repos\rougemeilland\palmtree.math.core.implements\palmtree.math.core.implements\pmc_internal.h
; File z:\sources\lunor\repos\rougemeilland\palmtree.math.core.implements\palmtree.math.core.implements\pmc_bitwiseor.c
; File z:\sources\lunor\repos\rougemeilland\palmtree.math.core.implements\palmtree.math.core.implements\pmc_internal.h
; File z:\sources\lunor\repos\rougemeilland\palmtree.math.core.implements\palmtree.math.core.implements\pmc_bitwiseor.c
; File z:\sources\lunor\repos\rougemeilland\palmtree.math.core.implements\palmtree.math.core.implements\pmc_internal.h
; File z:\sources\lunor\repos\rougemeilland\palmtree.math.core.implements\palmtree.math.core.implements\pmc_bitwiseor.c
; File z:\sources\lunor\repos\rougemeilland\palmtree.math.core.implements\palmtree.math.core.implements\pmc_internal.h
; File z:\sources\lunor\repos\rougemeilland\palmtree.math.core.implements\palmtree.math.core.implements\pmc_bitwiseor.c
;	COMDAT PMC_BitwiseOr_X_I
_TEXT	SEGMENT
nw$ = 64
u$ = 64
v$ = 72
w$ = 80
nz_check_code$1 = 88
PMC_BitwiseOr_X_I PROC					; COMDAT

; 187  : {

$LN32:
	push	rbx
	push	rsi
	push	r14
	sub	rsp, 32					; 00000020H
	mov	ebx, edx
	mov	r14, r8
	mov	rsi, rcx

; 188  :     if (__UNIT_TYPE_BIT_COUNT < sizeof(v) * 8)
; 189  :     {
; 190  :         // _UINT32_T が 1 ワードで表現しきれない処理系には対応しない
; 191  :         return (PMC_STATUS_INTERNAL_ERROR);
; 192  :     }
; 193  :     if (u == NULL)

	test	rcx, rcx
	je	$LN28@PMC_Bitwis

; 194  :         return (PMC_STATUS_ARGUMENT_ERROR);
; 195  :     if (w == NULL)

	test	r8, r8
	je	$LN28@PMC_Bitwis

; 197  :     NUMBER_HEADER* nu = (NUMBER_HEADER*)u;
; 198  :     PMC_STATUS_CODE result;
; 199  :     if ((result = CheckNumber(nu)) != PMC_STATUS_OK)

	call	CheckNumber
	test	eax, eax
	jne	SHORT $LN1@PMC_Bitwis

; 200  :         return (result);
; 201  :     NUMBER_HEADER* nw;
; 202  :     if (nu->IS_ZERO)

	test	BYTE PTR [rsi+32], 2
	mov	QWORD PTR [rsp+72], rdi
	je	SHORT $LN6@PMC_Bitwis

; 203  :     {
; 204  :         // u が 0 である場合
; 205  :         if (v == 0)

	test	ebx, ebx
	jne	SHORT $LN8@PMC_Bitwis

; 206  :         {
; 207  :             // v が 0 である場合
; 208  :             nw = &number_zero;

	mov	rdi, QWORD PTR [rsp+72]
	lea	rax, OFFSET FLAT:number_zero

; 236  :     }
; 237  :     *w = nw;

	mov	QWORD PTR [r14], rax

; 238  : #ifdef _DEBUG
; 239  :     if ((result = CheckNumber(*w)) != PMC_STATUS_OK)
; 240  :         return (result);
; 241  : #endif
; 242  :     return (PMC_STATUS_OK);

	xor	eax, eax

; 243  : }

	add	rsp, 32					; 00000020H
	pop	r14
	pop	rsi
	pop	rbx
	ret	0
$LN8@PMC_Bitwis:

; 209  :         }
; 210  :         else
; 211  :         {
; 212  :             // v が 0 でない場合
; 213  :             if ((result = From_I_Imp(v, &nw)) != PMC_STATUS_OK)

	lea	rdx, QWORD PTR nw$[rsp]
	mov	ecx, ebx
	call	From_I_Imp
	test	eax, eax
	je	$LN29@PMC_Bitwis
$LN30@PMC_Bitwis:
	mov	rdi, QWORD PTR [rsp+72]
$LN1@PMC_Bitwis:

; 243  : }

	add	rsp, 32					; 00000020H
	pop	r14
	pop	rsi
	pop	rbx
	ret	0
$LN6@PMC_Bitwis:

; 214  :                 return (result);
; 215  :         }
; 216  :     }
; 217  :     else if (v == 0)

	test	ebx, ebx
	jne	SHORT $LN11@PMC_Bitwis

; 218  :     {
; 219  :         // v が 0 である場合
; 220  :         if ((result = DuplicateNumber(nu, &nw)) != PMC_STATUS_OK)

	lea	rdx, QWORD PTR nw$[rsp]
	mov	rcx, rsi
	call	DuplicateNumber
	test	eax, eax
	jne	SHORT $LN30@PMC_Bitwis

; 236  :     }
; 237  :     *w = nw;

	mov	rax, QWORD PTR nw$[rsp]
	mov	rdi, QWORD PTR [rsp+72]
	mov	QWORD PTR [r14], rax

; 238  : #ifdef _DEBUG
; 239  :     if ((result = CheckNumber(*w)) != PMC_STATUS_OK)
; 240  :         return (result);
; 241  : #endif
; 242  :     return (PMC_STATUS_OK);

	xor	eax, eax

; 243  : }

	add	rsp, 32					; 00000020H
	pop	r14
	pop	rsi
	pop	rbx
	ret	0
$LN11@PMC_Bitwis:
; File z:\sources\lunor\repos\rougemeilland\palmtree.math.core.implements\palmtree.math.core.implements\pmc_internal.h

; 812  :     _BitScanReverse(&pos, x);

	bsr	eax, ebx

; 818  :     return (sizeof(x) * 8 - 1 - pos);

	mov	ecx, 31
; File z:\sources\lunor\repos\rougemeilland\palmtree.math.core.implements\palmtree.math.core.implements\pmc_bitwiseor.c

; 230  :         if ((result = AllocateNumber(&nw, w_bit_count, &nz_check_code)) != PMC_STATUS_OK)

	lea	r8, QWORD PTR nz_check_code$1[rsp]
; File z:\sources\lunor\repos\rougemeilland\palmtree.math.core.implements\palmtree.math.core.implements\pmc_internal.h

; 818  :     return (sizeof(x) * 8 - 1 - pos);

	sub	ecx, eax
; File z:\sources\lunor\repos\rougemeilland\palmtree.math.core.implements\palmtree.math.core.implements\pmc_bitwiseor.c

; 227  :         __UNIT_TYPE v_bit_count = sizeof(v) * 8 - _LZCNT_ALT_32(v);

	mov	edx, 32					; 00000020H
	mov	eax, ecx

; 230  :         if ((result = AllocateNumber(&nw, w_bit_count, &nz_check_code)) != PMC_STATUS_OK)

	lea	rcx, QWORD PTR nw$[rsp]
	sub	rdx, rax
; File z:\sources\lunor\repos\rougemeilland\palmtree.math.core.implements\palmtree.math.core.implements\pmc_internal.h

; 415  :     return (x >= y ? x : y);

	cmp	QWORD PTR [rsi+8], rdx
	cmovae	rdx, QWORD PTR [rsi+8]
; File z:\sources\lunor\repos\rougemeilland\palmtree.math.core.implements\palmtree.math.core.implements\pmc_bitwiseor.c

; 228  :         __UNIT_TYPE w_bit_count = _MAXIMUM_UNIT(u_bit_count, v_bit_count) + 1;

	inc	rdx

; 230  :         if ((result = AllocateNumber(&nw, w_bit_count, &nz_check_code)) != PMC_STATUS_OK)

	call	AllocateNumber
	test	eax, eax
	jne	SHORT $LN30@PMC_Bitwis

; 231  :             return (result);
; 232  :         BitwiseOr_X_1W(nu->BLOCK, nu->UNIT_WORD_COUNT, v, nw->BLOCK);

	mov	rax, QWORD PTR nw$[rsp]
	mov	rcx, QWORD PTR [rsi]
	mov	rsi, QWORD PTR [rsi+48]
	mov	rdi, QWORD PTR [rax+48]
	mov	rax, rbx
	or	rax, QWORD PTR [rsi]
	mov	QWORD PTR [rdi], rax

; 40   :     if (u_count == 1)

	cmp	rcx, 1
	je	SHORT $LN26@PMC_Bitwis

; 41   :         w[0] = u[0] | v;
; 42   :     else
; 43   :     {
; 44   :         w[0] = u[0] | v;
; 45   :         _COPY_MEMORY_UNIT(w + 1, u + 1, u_count - 1);

	dec	rcx
	add	rsi, 8
	add	rdi, 8
; File z:\sources\lunor\repos\rougemeilland\palmtree.math.core.implements\palmtree.math.core.implements\pmc_internal.h

; 281  :     __movsq(d, s, count);

	rep movsq
$LN26@PMC_Bitwis:
; File z:\sources\lunor\repos\rougemeilland\palmtree.math.core.implements\palmtree.math.core.implements\pmc_bitwiseor.c

; 233  :         if ((result = CheckBlockLight(nw->BLOCK, nz_check_code)) != PMC_STATUS_OK)

	mov	rcx, QWORD PTR nw$[rsp]
	mov	rdx, QWORD PTR nz_check_code$1[rsp]
	mov	rcx, QWORD PTR [rcx+48]
	call	CheckBlockLight
	test	eax, eax
	jne	$LN30@PMC_Bitwis

; 234  :             return (result);
; 235  :         CommitNumber(nw);

	mov	rcx, QWORD PTR nw$[rsp]
	call	CommitNumber
$LN29@PMC_Bitwis:

; 236  :     }
; 237  :     *w = nw;

	mov	rax, QWORD PTR nw$[rsp]
	mov	rdi, QWORD PTR [rsp+72]
	mov	QWORD PTR [r14], rax

; 238  : #ifdef _DEBUG
; 239  :     if ((result = CheckNumber(*w)) != PMC_STATUS_OK)
; 240  :         return (result);
; 241  : #endif
; 242  :     return (PMC_STATUS_OK);

	xor	eax, eax

; 243  : }

	add	rsp, 32					; 00000020H
	pop	r14
	pop	rsi
	pop	rbx
	ret	0
$LN28@PMC_Bitwis:

; 196  :         return (PMC_STATUS_ARGUMENT_ERROR);

	mov	eax, -1

; 243  : }

	add	rsp, 32					; 00000020H
	pop	r14
	pop	rsi
	pop	rbx
	ret	0
PMC_BitwiseOr_X_I ENDP
_TEXT	ENDS
; Function compile flags: /Ogtpy
; File z:\sources\lunor\repos\rougemeilland\palmtree.math.core.implements\palmtree.math.core.implements\pmc_bitwiseor.c
;	COMDAT Initialize_BitwiseOr
_TEXT	SEGMENT
feature$ = 8
Initialize_BitwiseOr PROC				; COMDAT

; 397  :     return (PMC_STATUS_OK);

	xor	eax, eax

; 398  : }

	ret	0
Initialize_BitwiseOr ENDP
_TEXT	ENDS
END
