; Listing generated by Microsoft (R) Optimizing Compiler Version 19.16.27026.1 

include listing.inc

INCLUDELIB MSVCRT
INCLUDELIB OLDNAMES

PUBLIC	Subtruct_Imp
PUBLIC	Initialize_Subtruct
PUBLIC	PMC_Subtruct_I_X
PUBLIC	PMC_Subtruct_L_X
PUBLIC	PMC_Subtruct_X_I
PUBLIC	PMC_Subtruct_X_L
PUBLIC	PMC_Subtruct_X_X
EXTRN	CheckBlockLight:PROC
EXTRN	AllocateNumber:PROC
EXTRN	DeallocateNumber:PROC
EXTRN	CommitNumber:PROC
EXTRN	CheckNumber:PROC
EXTRN	DuplicateNumber:PROC
EXTRN	number_zero:BYTE
;	COMDAT pdata
pdata	SEGMENT
$pdata$Subtruct_Imp DD imagerel $LN140
	DD	imagerel $LN140+985
	DD	imagerel $unwind$Subtruct_Imp
pdata	ENDS
;	COMDAT pdata
pdata	SEGMENT
$pdata$PMC_Subtruct_I_X DD imagerel $LN25
	DD	imagerel $LN25+221
	DD	imagerel $unwind$PMC_Subtruct_I_X
pdata	ENDS
;	COMDAT pdata
pdata	SEGMENT
$pdata$PMC_Subtruct_L_X DD imagerel $LN58
	DD	imagerel $LN58+203
	DD	imagerel $unwind$PMC_Subtruct_L_X
pdata	ENDS
;	COMDAT pdata
pdata	SEGMENT
$pdata$PMC_Subtruct_X_I DD imagerel $LN27
	DD	imagerel $LN27+395
	DD	imagerel $unwind$PMC_Subtruct_X_I
pdata	ENDS
;	COMDAT pdata
pdata	SEGMENT
$pdata$PMC_Subtruct_X_L DD imagerel $LN69
	DD	imagerel $LN69+399
	DD	imagerel $unwind$PMC_Subtruct_X_L
pdata	ENDS
;	COMDAT pdata
pdata	SEGMENT
$pdata$PMC_Subtruct_X_X DD imagerel $LN23
	DD	imagerel $LN23+386
	DD	imagerel $unwind$PMC_Subtruct_X_X
pdata	ENDS
;	COMDAT xdata
xdata	SEGMENT
$unwind$PMC_Subtruct_X_X DD 060f01H
	DD	0a640fH
	DD	09340fH
	DD	0700b520fH
xdata	ENDS
;	COMDAT xdata
xdata	SEGMENT
$unwind$PMC_Subtruct_X_L DD 060f01H
	DD	0a640fH
	DD	09340fH
	DD	0700b520fH
xdata	ENDS
;	COMDAT xdata
xdata	SEGMENT
$unwind$PMC_Subtruct_X_I DD 060f01H
	DD	0a640fH
	DD	09340fH
	DD	0700b520fH
xdata	ENDS
;	COMDAT xdata
xdata	SEGMENT
$unwind$PMC_Subtruct_L_X DD 060f01H
	DD	07640fH
	DD	06340fH
	DD	0700b320fH
xdata	ENDS
;	COMDAT xdata
xdata	SEGMENT
$unwind$PMC_Subtruct_I_X DD 060f01H
	DD	07640fH
	DD	06340fH
	DD	0700b320fH
xdata	ENDS
;	COMDAT xdata
xdata	SEGMENT
$unwind$Subtruct_Imp DD 020601H
	DD	030023206H
xdata	ENDS
; Function compile flags: /Ogtpy
; File z:\sources\lunor\repos\rougemeilland\palmtree.math.core.implements\palmtree.math.core.implements\pmc_subtruct.c
; File z:\sources\lunor\repos\rougemeilland\palmtree.math.core.implements\palmtree.math.core.implements\pmc_internal.h
; File z:\sources\lunor\repos\rougemeilland\palmtree.math.core.implements\palmtree.math.core.implements\pmc_subtruct.c
; File z:\sources\lunor\repos\rougemeilland\palmtree.math.core.implements\palmtree.math.core.implements\pmc_internal.h
; File z:\sources\lunor\repos\rougemeilland\palmtree.math.core.implements\palmtree.math.core.implements\pmc_subtruct.c
; File z:\sources\lunor\repos\rougemeilland\palmtree.math.core.implements\palmtree.math.core.implements\pmc_internal.h
; File z:\sources\lunor\repos\rougemeilland\palmtree.math.core.implements\palmtree.math.core.implements\pmc_subtruct.c
; File z:\sources\lunor\repos\rougemeilland\palmtree.math.core.implements\palmtree.math.core.implements\pmc_internal.h
; File z:\sources\lunor\repos\rougemeilland\palmtree.math.core.implements\palmtree.math.core.implements\pmc_subtruct.c
;	COMDAT Subtruct_X_2W
_TEXT	SEGMENT
up$ = 8
u_count$ = 16
v_hi$ = 24
v_lo$ = 32
wp$ = 40
w_count$ = 48
Subtruct_X_2W PROC					; COMDAT

; 97   : {

	mov	r11, r9
	mov	r9, rcx
	mov	r10, rdx

; 98   :     if (u_count < 2)

	cmp	rdx, 2
	jae	SHORT $LN2@Subtruct_X

; 99   :     {
; 100  :         // u が 1 ワードしかなかった場合
; 101  : 
; 102  :         // 明らかに演算結果が負になるのでエラーを通知する。
; 103  :         return (PMC_STATUS_INTERNAL_BORROW);

	mov	eax, -258				; fffffffffffffefeH

; 115  :         w_count -= 2;
; 116  : 
; 117  :         // 残りの桁の繰り上がりを計算し、復帰する。
; 118  :         return (DoBorrow(c, up, u_count, wp, w_count));
; 119  :     }
; 120  : }

	ret	0
$LN2@Subtruct_X:

; 104  :     }
; 105  :     else
; 106  :     {
; 107  :         // x が 2 ワード以上あった場合
; 108  : 
; 109  :         // 最下位のワードの減算をする
; 110  :         char c = _SUBTRUCT_UNIT(0, *up++, v_lo, wp++);

	mov	rax, QWORD PTR [rcx]
; File z:\sources\lunor\repos\rougemeilland\palmtree.math.core.implements\palmtree.math.core.implements\pmc_internal.h

; 559  :     return (_subborrow_u64(borrow, u, v, w));

	mov	rdx, QWORD PTR wp$[rsp]
	sub	rax, r11
	setb	cl
	add	cl, -1
	mov	QWORD PTR [rdx], rax
; File z:\sources\lunor\repos\rougemeilland\palmtree.math.core.implements\palmtree.math.core.implements\pmc_subtruct.c

; 113  :         c = _SUBTRUCT_UNIT(c, *up++, v_hi, wp++);

	mov	rax, QWORD PTR [r9+8]
; File z:\sources\lunor\repos\rougemeilland\palmtree.math.core.implements\palmtree.math.core.implements\pmc_internal.h

; 559  :     return (_subborrow_u64(borrow, u, v, w));

	sbb	rax, r8
	mov	QWORD PTR [rdx+8], rax
; File z:\sources\lunor\repos\rougemeilland\palmtree.math.core.implements\palmtree.math.core.implements\pmc_subtruct.c

; 113  :         c = _SUBTRUCT_UNIT(c, *up++, v_hi, wp++);

	lea	rax, QWORD PTR [rdx+16]
; File z:\sources\lunor\repos\rougemeilland\palmtree.math.core.implements\palmtree.math.core.implements\pmc_internal.h

; 559  :     return (_subborrow_u64(borrow, u, v, w));

	setb	r8b
; File z:\sources\lunor\repos\rougemeilland\palmtree.math.core.implements\palmtree.math.core.implements\pmc_subtruct.c

; 114  :         u_count -= 2;

	lea	rdx, QWORD PTR [r10-2]
	add	r9, 16

; 43   :         if (u_count <= 0)

	test	rdx, rdx
	je	SHORT $LN25@Subtruct_X
	npad	7
$LL10@Subtruct_X:

; 48   :             {
; 49   :                 // かつそれでも桁借りを行う必要がある場合
; 50   : 
; 51   :                 // 減算結果が負になってしまったので呼び出し元に通知する。
; 52   :                 return (PMC_STATUS_INTERNAL_BORROW);
; 53   :             }
; 54   : 
; 55   :             // xの最上位に達してしまった場合はいずれにしろループを中断して正常復帰する。
; 56   : 
; 57   :             return (PMC_STATUS_OK);
; 58   :         }
; 59   :         else if (c)

	test	r8b, r8b
	je	SHORT $LN24@Subtruct_X

; 64   :             c = _SUBTRUCT_UNIT(c, *up++, 0, wp++);

	mov	rcx, QWORD PTR [r9]
; File z:\sources\lunor\repos\rougemeilland\palmtree.math.core.implements\palmtree.math.core.implements\pmc_internal.h

; 559  :     return (_subborrow_u64(borrow, u, v, w));

	add	r8b, -1
	sbb	rcx, 0
	mov	QWORD PTR [rax], rcx
	setb	r8b
; File z:\sources\lunor\repos\rougemeilland\palmtree.math.core.implements\palmtree.math.core.implements\pmc_subtruct.c

; 64   :             c = _SUBTRUCT_UNIT(c, *up++, 0, wp++);

	add	r9, 8
	add	rax, 8

; 65   :             --u_count;

	sub	rdx, 1
	jne	SHORT $LL10@Subtruct_X
$LN25@Subtruct_X:

; 44   :         {
; 45   :             // x の最上位まで達してしまった場合
; 46   : 
; 47   :             if (c)

	neg	r8b
	sbb	eax, eax
	and	eax, -258				; fffffffffffffefeH

; 115  :         w_count -= 2;
; 116  : 
; 117  :         // 残りの桁の繰り上がりを計算し、復帰する。
; 118  :         return (DoBorrow(c, up, u_count, wp, w_count));
; 119  :     }
; 120  : }

	ret	0
$LN24@Subtruct_X:

; 73   :             while (u_count > 0)

	test	rdx, rdx
	je	SHORT $LN14@Subtruct_X
	sub	r9, rax
	npad	8
$LL13@Subtruct_X:

; 74   :             {
; 75   :                 *wp++ = *up++;

	mov	rcx, QWORD PTR [r9+rax]
	mov	QWORD PTR [rax], rcx
	lea	rax, QWORD PTR [rax+8]

; 76   :                 --u_count;

	sub	rdx, 1
	jne	SHORT $LL13@Subtruct_X
$LN14@Subtruct_X:

; 77   :                 --w_count;
; 78   :             }
; 79   :             return (PMC_STATUS_OK);

	xor	eax, eax

; 115  :         w_count -= 2;
; 116  : 
; 117  :         // 残りの桁の繰り上がりを計算し、復帰する。
; 118  :         return (DoBorrow(c, up, u_count, wp, w_count));
; 119  :     }
; 120  : }

	ret	0
Subtruct_X_2W ENDP
_TEXT	ENDS
; Function compile flags: /Ogtpy
; File z:\sources\lunor\repos\rougemeilland\palmtree.math.core.implements\palmtree.math.core.implements\pmc_subtruct.c
; File z:\sources\lunor\repos\rougemeilland\palmtree.math.core.implements\palmtree.math.core.implements\pmc_internal.h
; File z:\sources\lunor\repos\rougemeilland\palmtree.math.core.implements\palmtree.math.core.implements\pmc_subtruct.c
; File z:\sources\lunor\repos\rougemeilland\palmtree.math.core.implements\palmtree.math.core.implements\pmc_internal.h
; File z:\sources\lunor\repos\rougemeilland\palmtree.math.core.implements\palmtree.math.core.implements\pmc_subtruct.c
; File z:\sources\lunor\repos\rougemeilland\palmtree.math.core.implements\palmtree.math.core.implements\pmc_internal.h
; File z:\sources\lunor\repos\rougemeilland\palmtree.math.core.implements\palmtree.math.core.implements\pmc_subtruct.c
;	COMDAT Subtruct_X_1W
_TEXT	SEGMENT
up$ = 8
u_count$ = 16
v$ = 24
wp$ = 32
w_count$ = 40
Subtruct_X_1W PROC					; COMDAT

; 87   :     char c = _SUBTRUCT_UNIT(0, *up++, v, wp++);

	mov	rax, QWORD PTR [rcx]
; File z:\sources\lunor\repos\rougemeilland\palmtree.math.core.implements\palmtree.math.core.implements\pmc_internal.h

; 559  :     return (_subborrow_u64(borrow, u, v, w));

	sub	rax, r8
	mov	QWORD PTR [r9], rax
; File z:\sources\lunor\repos\rougemeilland\palmtree.math.core.implements\palmtree.math.core.implements\pmc_subtruct.c

; 87   :     char c = _SUBTRUCT_UNIT(0, *up++, v, wp++);

	lea	rax, QWORD PTR [r9+8]
; File z:\sources\lunor\repos\rougemeilland\palmtree.math.core.implements\palmtree.math.core.implements\pmc_internal.h

; 559  :     return (_subborrow_u64(borrow, u, v, w));

	setb	r8b
; File z:\sources\lunor\repos\rougemeilland\palmtree.math.core.implements\palmtree.math.core.implements\pmc_subtruct.c

; 87   :     char c = _SUBTRUCT_UNIT(0, *up++, v, wp++);

	lea	r9, QWORD PTR [rcx+8]

; 88   :     --u_count;

	sub	rdx, 1

; 43   :         if (u_count <= 0)

	je	SHORT $LN21@Subtruct_X
	npad	5
$LL6@Subtruct_X:

; 48   :             {
; 49   :                 // かつそれでも桁借りを行う必要がある場合
; 50   : 
; 51   :                 // 減算結果が負になってしまったので呼び出し元に通知する。
; 52   :                 return (PMC_STATUS_INTERNAL_BORROW);
; 53   :             }
; 54   : 
; 55   :             // xの最上位に達してしまった場合はいずれにしろループを中断して正常復帰する。
; 56   : 
; 57   :             return (PMC_STATUS_OK);
; 58   :         }
; 59   :         else if (c)

	test	r8b, r8b
	je	SHORT $LN20@Subtruct_X

; 64   :             c = _SUBTRUCT_UNIT(c, *up++, 0, wp++);

	mov	rcx, QWORD PTR [r9]
; File z:\sources\lunor\repos\rougemeilland\palmtree.math.core.implements\palmtree.math.core.implements\pmc_internal.h

; 559  :     return (_subborrow_u64(borrow, u, v, w));

	add	r8b, -1
	sbb	rcx, 0
	mov	QWORD PTR [rax], rcx
	setb	r8b
; File z:\sources\lunor\repos\rougemeilland\palmtree.math.core.implements\palmtree.math.core.implements\pmc_subtruct.c

; 64   :             c = _SUBTRUCT_UNIT(c, *up++, 0, wp++);

	add	r9, 8
	add	rax, 8

; 65   :             --u_count;

	sub	rdx, 1
	jne	SHORT $LL6@Subtruct_X
$LN21@Subtruct_X:

; 44   :         {
; 45   :             // x の最上位まで達してしまった場合
; 46   : 
; 47   :             if (c)

	neg	r8b
	sbb	eax, eax
	and	eax, -258				; fffffffffffffefeH

; 93   : }

	ret	0
$LN20@Subtruct_X:

; 73   :             while (u_count > 0)

	test	rdx, rdx
	je	SHORT $LN10@Subtruct_X
	sub	r9, rax
	npad	8
$LL9@Subtruct_X:

; 74   :             {
; 75   :                 *wp++ = *up++;

	mov	rcx, QWORD PTR [r9+rax]
	mov	QWORD PTR [rax], rcx
	lea	rax, QWORD PTR [rax+8]

; 76   :                 --u_count;

	sub	rdx, 1
	jne	SHORT $LL9@Subtruct_X
$LN10@Subtruct_X:

; 89   :     --w_count;
; 90   : 
; 91   :     // 残りの桁の繰上りを行い復帰する。
; 92   :     return (DoBorrow(c, up, u_count, wp, w_count));

	xor	eax, eax

; 93   : }

	ret	0
Subtruct_X_1W ENDP
_TEXT	ENDS
; Function compile flags: /Ogtpy
; File z:\sources\lunor\repos\rougemeilland\palmtree.math.core.implements\palmtree.math.core.implements\pmc_subtruct.c
; File z:\sources\lunor\repos\rougemeilland\palmtree.math.core.implements\palmtree.math.core.implements\pmc_internal.h
; File z:\sources\lunor\repos\rougemeilland\palmtree.math.core.implements\palmtree.math.core.implements\pmc_subtruct.c
;	COMDAT DoBorrow
_TEXT	SEGMENT
c$ = 8
up$ = 16
u_count$ = 24
wp$ = 32
w_count$ = 40
DoBorrow PROC						; COMDAT

; 40   :     // 桁借りを続く限り行う
; 41   :     for (;;)
; 42   :     {
; 43   :         if (u_count <= 0)

	test	r8, r8
	je	SHORT $LN17@DoBorrow
$LL2@DoBorrow:

; 53   :             }
; 54   : 
; 55   :             // xの最上位に達してしまった場合はいずれにしろループを中断して正常復帰する。
; 56   : 
; 57   :             return (PMC_STATUS_OK);
; 58   :         }
; 59   :         else if (c)

	test	cl, cl
	je	SHORT $LN16@DoBorrow

; 64   :             c = _SUBTRUCT_UNIT(c, *up++, 0, wp++);

	mov	rax, QWORD PTR [rdx]
; File z:\sources\lunor\repos\rougemeilland\palmtree.math.core.implements\palmtree.math.core.implements\pmc_internal.h

; 559  :     return (_subborrow_u64(borrow, u, v, w));

	add	cl, -1
	sbb	rax, 0
	mov	QWORD PTR [r9], rax
	setb	cl
; File z:\sources\lunor\repos\rougemeilland\palmtree.math.core.implements\palmtree.math.core.implements\pmc_subtruct.c

; 64   :             c = _SUBTRUCT_UNIT(c, *up++, 0, wp++);

	add	rdx, 8
	add	r9, 8

; 65   :             --u_count;

	sub	r8, 1
	jne	SHORT $LL2@DoBorrow
$LN17@DoBorrow:

; 44   :         {
; 45   :             // x の最上位まで達してしまった場合
; 46   : 
; 47   :             if (c)

	test	cl, cl
	je	SHORT $LN6@DoBorrow

; 48   :             {
; 49   :                 // かつそれでも桁借りを行う必要がある場合
; 50   : 
; 51   :                 // 減算結果が負になってしまったので呼び出し元に通知する。
; 52   :                 return (PMC_STATUS_INTERNAL_BORROW);

	mov	eax, -258				; fffffffffffffefeH

; 80   :         }
; 81   :     }
; 82   : }

	ret	0
$LN16@DoBorrow:

; 66   :             --w_count;
; 67   :         }
; 68   :         else
; 69   :         {
; 70   :             // xの最上位に達しておらず、かつボローが立っていない場合
; 71   : 
; 72   :             // 桁借りを中断し、xの残りのデータをzにそのまま複写し、正常復帰する。
; 73   :             while (u_count > 0)

	test	r8, r8
	je	SHORT $LN6@DoBorrow
	sub	rdx, r9
	npad	7
$LL5@DoBorrow:

; 74   :             {
; 75   :                 *wp++ = *up++;

	mov	rax, QWORD PTR [rdx+r9]
	mov	QWORD PTR [r9], rax
	lea	r9, QWORD PTR [r9+8]

; 76   :                 --u_count;

	sub	r8, 1
	jne	SHORT $LL5@DoBorrow
$LN6@DoBorrow:

; 77   :                 --w_count;
; 78   :             }
; 79   :             return (PMC_STATUS_OK);

	xor	eax, eax

; 80   :         }
; 81   :     }
; 82   : }

	ret	0
DoBorrow ENDP
_TEXT	ENDS
; Function compile flags: /Ogtpy
; File z:\sources\lunor\repos\rougemeilland\palmtree.math.core.implements\palmtree.math.core.implements\autogenerated_inline_func.h
; File z:\sources\lunor\repos\rougemeilland\palmtree.math.core.implements\palmtree.math.core.implements\pmc_internal.h
; File z:\sources\lunor\repos\rougemeilland\palmtree.math.core.implements\palmtree.math.core.implements\autogenerated_inline_func.h
; File z:\sources\lunor\repos\rougemeilland\palmtree.math.core.implements\palmtree.math.core.implements\pmc_internal.h
; File z:\sources\lunor\repos\rougemeilland\palmtree.math.core.implements\palmtree.math.core.implements\autogenerated_inline_func.h
;	COMDAT _SUBTRUCT_2WORDS_SBB
_TEXT	SEGMENT
c$ = 8
xp$ = 16
yp$ = 24
zp$ = 32
_SUBTRUCT_2WORDS_SBB PROC				; COMDAT

; 4463 : #ifdef _MSC_VER
; 4464 :     c = _SUBTRUCT_UNIT(c, xp[0], yp[0], &zp[0]);

	mov	rax, QWORD PTR [rdx]
; File z:\sources\lunor\repos\rougemeilland\palmtree.math.core.implements\palmtree.math.core.implements\pmc_internal.h

; 559  :     return (_subborrow_u64(borrow, u, v, w));

	add	cl, -1
	sbb	rax, QWORD PTR [r8]
	mov	QWORD PTR [r9], rax
; File z:\sources\lunor\repos\rougemeilland\palmtree.math.core.implements\palmtree.math.core.implements\autogenerated_inline_func.h

; 4465 :     c = _SUBTRUCT_UNIT(c, xp[1], yp[1], &zp[1]);

	mov	rcx, QWORD PTR [rdx+8]
; File z:\sources\lunor\repos\rougemeilland\palmtree.math.core.implements\palmtree.math.core.implements\pmc_internal.h

; 559  :     return (_subborrow_u64(borrow, u, v, w));

	sbb	rcx, QWORD PTR [r8+8]
	mov	QWORD PTR [r9+8], rcx
	setb	al
; File z:\sources\lunor\repos\rougemeilland\palmtree.math.core.implements\palmtree.math.core.implements\autogenerated_inline_func.h

; 4502 : }

	ret	0
_SUBTRUCT_2WORDS_SBB ENDP
_TEXT	ENDS
; Function compile flags: /Ogtpy
; File z:\sources\lunor\repos\rougemeilland\palmtree.math.core.implements\palmtree.math.core.implements\autogenerated_inline_func.h
; File z:\sources\lunor\repos\rougemeilland\palmtree.math.core.implements\palmtree.math.core.implements\pmc_internal.h
; File z:\sources\lunor\repos\rougemeilland\palmtree.math.core.implements\palmtree.math.core.implements\autogenerated_inline_func.h
; File z:\sources\lunor\repos\rougemeilland\palmtree.math.core.implements\palmtree.math.core.implements\pmc_internal.h
; File z:\sources\lunor\repos\rougemeilland\palmtree.math.core.implements\palmtree.math.core.implements\autogenerated_inline_func.h
; File z:\sources\lunor\repos\rougemeilland\palmtree.math.core.implements\palmtree.math.core.implements\pmc_internal.h
; File z:\sources\lunor\repos\rougemeilland\palmtree.math.core.implements\palmtree.math.core.implements\autogenerated_inline_func.h
; File z:\sources\lunor\repos\rougemeilland\palmtree.math.core.implements\palmtree.math.core.implements\pmc_internal.h
; File z:\sources\lunor\repos\rougemeilland\palmtree.math.core.implements\palmtree.math.core.implements\autogenerated_inline_func.h
;	COMDAT _SUBTRUCT_4WORDS_SBB
_TEXT	SEGMENT
c$ = 8
xp$ = 16
yp$ = 24
zp$ = 32
_SUBTRUCT_4WORDS_SBB PROC				; COMDAT

; 4049 : #ifdef _MSC_VER
; 4050 :     c = _SUBTRUCT_UNIT(c, xp[0], yp[0], &zp[0]);

	mov	rax, QWORD PTR [rdx]
; File z:\sources\lunor\repos\rougemeilland\palmtree.math.core.implements\palmtree.math.core.implements\pmc_internal.h

; 559  :     return (_subborrow_u64(borrow, u, v, w));

	add	cl, -1
	sbb	rax, QWORD PTR [r8]
	mov	QWORD PTR [r9], rax
; File z:\sources\lunor\repos\rougemeilland\palmtree.math.core.implements\palmtree.math.core.implements\autogenerated_inline_func.h

; 4051 :     c = _SUBTRUCT_UNIT(c, xp[1], yp[1], &zp[1]);

	mov	rax, QWORD PTR [rdx+8]
; File z:\sources\lunor\repos\rougemeilland\palmtree.math.core.implements\palmtree.math.core.implements\pmc_internal.h

; 559  :     return (_subborrow_u64(borrow, u, v, w));

	sbb	rax, QWORD PTR [r8+8]
	mov	QWORD PTR [r9+8], rax
; File z:\sources\lunor\repos\rougemeilland\palmtree.math.core.implements\palmtree.math.core.implements\autogenerated_inline_func.h

; 4052 :     c = _SUBTRUCT_UNIT(c, xp[2], yp[2], &zp[2]);

	mov	rax, QWORD PTR [rdx+16]
; File z:\sources\lunor\repos\rougemeilland\palmtree.math.core.implements\palmtree.math.core.implements\pmc_internal.h

; 559  :     return (_subborrow_u64(borrow, u, v, w));

	sbb	rax, QWORD PTR [r8+16]
	mov	QWORD PTR [r9+16], rax
; File z:\sources\lunor\repos\rougemeilland\palmtree.math.core.implements\palmtree.math.core.implements\autogenerated_inline_func.h

; 4053 :     c = _SUBTRUCT_UNIT(c, xp[3], yp[3], &zp[3]);

	mov	rcx, QWORD PTR [rdx+24]
; File z:\sources\lunor\repos\rougemeilland\palmtree.math.core.implements\palmtree.math.core.implements\pmc_internal.h

; 559  :     return (_subborrow_u64(borrow, u, v, w));

	sbb	rcx, QWORD PTR [r8+24]
	mov	QWORD PTR [r9+24], rcx
	setb	al
; File z:\sources\lunor\repos\rougemeilland\palmtree.math.core.implements\palmtree.math.core.implements\autogenerated_inline_func.h

; 4102 : }

	ret	0
_SUBTRUCT_4WORDS_SBB ENDP
_TEXT	ENDS
; Function compile flags: /Ogtpy
; File z:\sources\lunor\repos\rougemeilland\palmtree.math.core.implements\palmtree.math.core.implements\autogenerated_inline_func.h
; File z:\sources\lunor\repos\rougemeilland\palmtree.math.core.implements\palmtree.math.core.implements\pmc_internal.h
; File z:\sources\lunor\repos\rougemeilland\palmtree.math.core.implements\palmtree.math.core.implements\autogenerated_inline_func.h
; File z:\sources\lunor\repos\rougemeilland\palmtree.math.core.implements\palmtree.math.core.implements\pmc_internal.h
; File z:\sources\lunor\repos\rougemeilland\palmtree.math.core.implements\palmtree.math.core.implements\autogenerated_inline_func.h
; File z:\sources\lunor\repos\rougemeilland\palmtree.math.core.implements\palmtree.math.core.implements\pmc_internal.h
; File z:\sources\lunor\repos\rougemeilland\palmtree.math.core.implements\palmtree.math.core.implements\autogenerated_inline_func.h
; File z:\sources\lunor\repos\rougemeilland\palmtree.math.core.implements\palmtree.math.core.implements\pmc_internal.h
; File z:\sources\lunor\repos\rougemeilland\palmtree.math.core.implements\palmtree.math.core.implements\autogenerated_inline_func.h
; File z:\sources\lunor\repos\rougemeilland\palmtree.math.core.implements\palmtree.math.core.implements\pmc_internal.h
; File z:\sources\lunor\repos\rougemeilland\palmtree.math.core.implements\palmtree.math.core.implements\autogenerated_inline_func.h
; File z:\sources\lunor\repos\rougemeilland\palmtree.math.core.implements\palmtree.math.core.implements\pmc_internal.h
; File z:\sources\lunor\repos\rougemeilland\palmtree.math.core.implements\palmtree.math.core.implements\autogenerated_inline_func.h
; File z:\sources\lunor\repos\rougemeilland\palmtree.math.core.implements\palmtree.math.core.implements\pmc_internal.h
; File z:\sources\lunor\repos\rougemeilland\palmtree.math.core.implements\palmtree.math.core.implements\autogenerated_inline_func.h
; File z:\sources\lunor\repos\rougemeilland\palmtree.math.core.implements\palmtree.math.core.implements\pmc_internal.h
; File z:\sources\lunor\repos\rougemeilland\palmtree.math.core.implements\palmtree.math.core.implements\autogenerated_inline_func.h
;	COMDAT _SUBTRUCT_8WORDS_SBB
_TEXT	SEGMENT
c$ = 8
xp$ = 16
yp$ = 24
zp$ = 32
_SUBTRUCT_8WORDS_SBB PROC				; COMDAT

; 3453 : #ifdef _MSC_VER
; 3454 :     c = _SUBTRUCT_UNIT(c, xp[0], yp[0], &zp[0]);

	mov	rax, QWORD PTR [rdx]
; File z:\sources\lunor\repos\rougemeilland\palmtree.math.core.implements\palmtree.math.core.implements\pmc_internal.h

; 559  :     return (_subborrow_u64(borrow, u, v, w));

	add	cl, -1
	sbb	rax, QWORD PTR [r8]
	mov	QWORD PTR [r9], rax
; File z:\sources\lunor\repos\rougemeilland\palmtree.math.core.implements\palmtree.math.core.implements\autogenerated_inline_func.h

; 3455 :     c = _SUBTRUCT_UNIT(c, xp[1], yp[1], &zp[1]);

	mov	rax, QWORD PTR [rdx+8]
; File z:\sources\lunor\repos\rougemeilland\palmtree.math.core.implements\palmtree.math.core.implements\pmc_internal.h

; 559  :     return (_subborrow_u64(borrow, u, v, w));

	sbb	rax, QWORD PTR [r8+8]
	mov	QWORD PTR [r9+8], rax
; File z:\sources\lunor\repos\rougemeilland\palmtree.math.core.implements\palmtree.math.core.implements\autogenerated_inline_func.h

; 3456 :     c = _SUBTRUCT_UNIT(c, xp[2], yp[2], &zp[2]);

	mov	rax, QWORD PTR [rdx+16]
; File z:\sources\lunor\repos\rougemeilland\palmtree.math.core.implements\palmtree.math.core.implements\pmc_internal.h

; 559  :     return (_subborrow_u64(borrow, u, v, w));

	sbb	rax, QWORD PTR [r8+16]
	mov	QWORD PTR [r9+16], rax
; File z:\sources\lunor\repos\rougemeilland\palmtree.math.core.implements\palmtree.math.core.implements\autogenerated_inline_func.h

; 3457 :     c = _SUBTRUCT_UNIT(c, xp[3], yp[3], &zp[3]);

	mov	rax, QWORD PTR [rdx+24]
; File z:\sources\lunor\repos\rougemeilland\palmtree.math.core.implements\palmtree.math.core.implements\pmc_internal.h

; 559  :     return (_subborrow_u64(borrow, u, v, w));

	sbb	rax, QWORD PTR [r8+24]
	mov	QWORD PTR [r9+24], rax
; File z:\sources\lunor\repos\rougemeilland\palmtree.math.core.implements\palmtree.math.core.implements\autogenerated_inline_func.h

; 3458 :     c = _SUBTRUCT_UNIT(c, xp[4], yp[4], &zp[4]);

	mov	rax, QWORD PTR [rdx+32]
; File z:\sources\lunor\repos\rougemeilland\palmtree.math.core.implements\palmtree.math.core.implements\pmc_internal.h

; 559  :     return (_subborrow_u64(borrow, u, v, w));

	sbb	rax, QWORD PTR [r8+32]
	mov	QWORD PTR [r9+32], rax
; File z:\sources\lunor\repos\rougemeilland\palmtree.math.core.implements\palmtree.math.core.implements\autogenerated_inline_func.h

; 3459 :     c = _SUBTRUCT_UNIT(c, xp[5], yp[5], &zp[5]);

	mov	rax, QWORD PTR [rdx+40]
; File z:\sources\lunor\repos\rougemeilland\palmtree.math.core.implements\palmtree.math.core.implements\pmc_internal.h

; 559  :     return (_subborrow_u64(borrow, u, v, w));

	sbb	rax, QWORD PTR [r8+40]
	mov	QWORD PTR [r9+40], rax
; File z:\sources\lunor\repos\rougemeilland\palmtree.math.core.implements\palmtree.math.core.implements\autogenerated_inline_func.h

; 3460 :     c = _SUBTRUCT_UNIT(c, xp[6], yp[6], &zp[6]);

	mov	rax, QWORD PTR [rdx+48]
; File z:\sources\lunor\repos\rougemeilland\palmtree.math.core.implements\palmtree.math.core.implements\pmc_internal.h

; 559  :     return (_subborrow_u64(borrow, u, v, w));

	sbb	rax, QWORD PTR [r8+48]
	mov	QWORD PTR [r9+48], rax
; File z:\sources\lunor\repos\rougemeilland\palmtree.math.core.implements\palmtree.math.core.implements\autogenerated_inline_func.h

; 3461 :     c = _SUBTRUCT_UNIT(c, xp[7], yp[7], &zp[7]);

	mov	rcx, QWORD PTR [rdx+56]
; File z:\sources\lunor\repos\rougemeilland\palmtree.math.core.implements\palmtree.math.core.implements\pmc_internal.h

; 559  :     return (_subborrow_u64(borrow, u, v, w));

	sbb	rcx, QWORD PTR [r8+56]
	mov	QWORD PTR [r9+56], rcx
	setb	al
; File z:\sources\lunor\repos\rougemeilland\palmtree.math.core.implements\palmtree.math.core.implements\autogenerated_inline_func.h

; 3534 : }

	ret	0
_SUBTRUCT_8WORDS_SBB ENDP
_TEXT	ENDS
; Function compile flags: /Ogtpy
; File z:\sources\lunor\repos\rougemeilland\palmtree.math.core.implements\palmtree.math.core.implements\autogenerated_inline_func.h
; File z:\sources\lunor\repos\rougemeilland\palmtree.math.core.implements\palmtree.math.core.implements\pmc_internal.h
; File z:\sources\lunor\repos\rougemeilland\palmtree.math.core.implements\palmtree.math.core.implements\autogenerated_inline_func.h
; File z:\sources\lunor\repos\rougemeilland\palmtree.math.core.implements\palmtree.math.core.implements\pmc_internal.h
; File z:\sources\lunor\repos\rougemeilland\palmtree.math.core.implements\palmtree.math.core.implements\autogenerated_inline_func.h
; File z:\sources\lunor\repos\rougemeilland\palmtree.math.core.implements\palmtree.math.core.implements\pmc_internal.h
; File z:\sources\lunor\repos\rougemeilland\palmtree.math.core.implements\palmtree.math.core.implements\autogenerated_inline_func.h
; File z:\sources\lunor\repos\rougemeilland\palmtree.math.core.implements\palmtree.math.core.implements\pmc_internal.h
; File z:\sources\lunor\repos\rougemeilland\palmtree.math.core.implements\palmtree.math.core.implements\autogenerated_inline_func.h
; File z:\sources\lunor\repos\rougemeilland\palmtree.math.core.implements\palmtree.math.core.implements\pmc_internal.h
; File z:\sources\lunor\repos\rougemeilland\palmtree.math.core.implements\palmtree.math.core.implements\autogenerated_inline_func.h
; File z:\sources\lunor\repos\rougemeilland\palmtree.math.core.implements\palmtree.math.core.implements\pmc_internal.h
; File z:\sources\lunor\repos\rougemeilland\palmtree.math.core.implements\palmtree.math.core.implements\autogenerated_inline_func.h
; File z:\sources\lunor\repos\rougemeilland\palmtree.math.core.implements\palmtree.math.core.implements\pmc_internal.h
; File z:\sources\lunor\repos\rougemeilland\palmtree.math.core.implements\palmtree.math.core.implements\autogenerated_inline_func.h
; File z:\sources\lunor\repos\rougemeilland\palmtree.math.core.implements\palmtree.math.core.implements\pmc_internal.h
; File z:\sources\lunor\repos\rougemeilland\palmtree.math.core.implements\palmtree.math.core.implements\autogenerated_inline_func.h
; File z:\sources\lunor\repos\rougemeilland\palmtree.math.core.implements\palmtree.math.core.implements\pmc_internal.h
; File z:\sources\lunor\repos\rougemeilland\palmtree.math.core.implements\palmtree.math.core.implements\autogenerated_inline_func.h
; File z:\sources\lunor\repos\rougemeilland\palmtree.math.core.implements\palmtree.math.core.implements\pmc_internal.h
; File z:\sources\lunor\repos\rougemeilland\palmtree.math.core.implements\palmtree.math.core.implements\autogenerated_inline_func.h
; File z:\sources\lunor\repos\rougemeilland\palmtree.math.core.implements\palmtree.math.core.implements\pmc_internal.h
; File z:\sources\lunor\repos\rougemeilland\palmtree.math.core.implements\palmtree.math.core.implements\autogenerated_inline_func.h
; File z:\sources\lunor\repos\rougemeilland\palmtree.math.core.implements\palmtree.math.core.implements\pmc_internal.h
; File z:\sources\lunor\repos\rougemeilland\palmtree.math.core.implements\palmtree.math.core.implements\autogenerated_inline_func.h
; File z:\sources\lunor\repos\rougemeilland\palmtree.math.core.implements\palmtree.math.core.implements\pmc_internal.h
; File z:\sources\lunor\repos\rougemeilland\palmtree.math.core.implements\palmtree.math.core.implements\autogenerated_inline_func.h
; File z:\sources\lunor\repos\rougemeilland\palmtree.math.core.implements\palmtree.math.core.implements\pmc_internal.h
; File z:\sources\lunor\repos\rougemeilland\palmtree.math.core.implements\palmtree.math.core.implements\autogenerated_inline_func.h
; File z:\sources\lunor\repos\rougemeilland\palmtree.math.core.implements\palmtree.math.core.implements\pmc_internal.h
; File z:\sources\lunor\repos\rougemeilland\palmtree.math.core.implements\palmtree.math.core.implements\autogenerated_inline_func.h
; File z:\sources\lunor\repos\rougemeilland\palmtree.math.core.implements\palmtree.math.core.implements\pmc_internal.h
; File z:\sources\lunor\repos\rougemeilland\palmtree.math.core.implements\palmtree.math.core.implements\autogenerated_inline_func.h
;	COMDAT _SUBTRUCT_16WORDS_SBB
_TEXT	SEGMENT
c$ = 8
xp$ = 16
yp$ = 24
zp$ = 32
_SUBTRUCT_16WORDS_SBB PROC				; COMDAT

; 2493 : #ifdef _MSC_VER
; 2494 :     c = _SUBTRUCT_UNIT(c, xp[0], yp[0], &zp[0]);

	mov	rax, QWORD PTR [rdx]
; File z:\sources\lunor\repos\rougemeilland\palmtree.math.core.implements\palmtree.math.core.implements\pmc_internal.h

; 559  :     return (_subborrow_u64(borrow, u, v, w));

	add	cl, -1
	sbb	rax, QWORD PTR [r8]
	mov	QWORD PTR [r9], rax
; File z:\sources\lunor\repos\rougemeilland\palmtree.math.core.implements\palmtree.math.core.implements\autogenerated_inline_func.h

; 2495 :     c = _SUBTRUCT_UNIT(c, xp[1], yp[1], &zp[1]);

	mov	rax, QWORD PTR [rdx+8]
; File z:\sources\lunor\repos\rougemeilland\palmtree.math.core.implements\palmtree.math.core.implements\pmc_internal.h

; 559  :     return (_subborrow_u64(borrow, u, v, w));

	sbb	rax, QWORD PTR [r8+8]
	mov	QWORD PTR [r9+8], rax
; File z:\sources\lunor\repos\rougemeilland\palmtree.math.core.implements\palmtree.math.core.implements\autogenerated_inline_func.h

; 2496 :     c = _SUBTRUCT_UNIT(c, xp[2], yp[2], &zp[2]);

	mov	rax, QWORD PTR [rdx+16]
; File z:\sources\lunor\repos\rougemeilland\palmtree.math.core.implements\palmtree.math.core.implements\pmc_internal.h

; 559  :     return (_subborrow_u64(borrow, u, v, w));

	sbb	rax, QWORD PTR [r8+16]
	mov	QWORD PTR [r9+16], rax
; File z:\sources\lunor\repos\rougemeilland\palmtree.math.core.implements\palmtree.math.core.implements\autogenerated_inline_func.h

; 2497 :     c = _SUBTRUCT_UNIT(c, xp[3], yp[3], &zp[3]);

	mov	rax, QWORD PTR [rdx+24]
; File z:\sources\lunor\repos\rougemeilland\palmtree.math.core.implements\palmtree.math.core.implements\pmc_internal.h

; 559  :     return (_subborrow_u64(borrow, u, v, w));

	sbb	rax, QWORD PTR [r8+24]
	mov	QWORD PTR [r9+24], rax
; File z:\sources\lunor\repos\rougemeilland\palmtree.math.core.implements\palmtree.math.core.implements\autogenerated_inline_func.h

; 2498 :     c = _SUBTRUCT_UNIT(c, xp[4], yp[4], &zp[4]);

	mov	rax, QWORD PTR [rdx+32]
; File z:\sources\lunor\repos\rougemeilland\palmtree.math.core.implements\palmtree.math.core.implements\pmc_internal.h

; 559  :     return (_subborrow_u64(borrow, u, v, w));

	sbb	rax, QWORD PTR [r8+32]
	mov	QWORD PTR [r9+32], rax
; File z:\sources\lunor\repos\rougemeilland\palmtree.math.core.implements\palmtree.math.core.implements\autogenerated_inline_func.h

; 2499 :     c = _SUBTRUCT_UNIT(c, xp[5], yp[5], &zp[5]);

	mov	rax, QWORD PTR [rdx+40]
; File z:\sources\lunor\repos\rougemeilland\palmtree.math.core.implements\palmtree.math.core.implements\pmc_internal.h

; 559  :     return (_subborrow_u64(borrow, u, v, w));

	sbb	rax, QWORD PTR [r8+40]
	mov	QWORD PTR [r9+40], rax
; File z:\sources\lunor\repos\rougemeilland\palmtree.math.core.implements\palmtree.math.core.implements\autogenerated_inline_func.h

; 2500 :     c = _SUBTRUCT_UNIT(c, xp[6], yp[6], &zp[6]);

	mov	rax, QWORD PTR [rdx+48]
; File z:\sources\lunor\repos\rougemeilland\palmtree.math.core.implements\palmtree.math.core.implements\pmc_internal.h

; 559  :     return (_subborrow_u64(borrow, u, v, w));

	sbb	rax, QWORD PTR [r8+48]
	mov	QWORD PTR [r9+48], rax
; File z:\sources\lunor\repos\rougemeilland\palmtree.math.core.implements\palmtree.math.core.implements\autogenerated_inline_func.h

; 2501 :     c = _SUBTRUCT_UNIT(c, xp[7], yp[7], &zp[7]);

	mov	rax, QWORD PTR [rdx+56]
; File z:\sources\lunor\repos\rougemeilland\palmtree.math.core.implements\palmtree.math.core.implements\pmc_internal.h

; 559  :     return (_subborrow_u64(borrow, u, v, w));

	sbb	rax, QWORD PTR [r8+56]
	mov	QWORD PTR [r9+56], rax
; File z:\sources\lunor\repos\rougemeilland\palmtree.math.core.implements\palmtree.math.core.implements\autogenerated_inline_func.h

; 2502 :     c = _SUBTRUCT_UNIT(c, xp[8], yp[8], &zp[8]);

	mov	rax, QWORD PTR [rdx+64]
; File z:\sources\lunor\repos\rougemeilland\palmtree.math.core.implements\palmtree.math.core.implements\pmc_internal.h

; 559  :     return (_subborrow_u64(borrow, u, v, w));

	sbb	rax, QWORD PTR [r8+64]
	mov	QWORD PTR [r9+64], rax
; File z:\sources\lunor\repos\rougemeilland\palmtree.math.core.implements\palmtree.math.core.implements\autogenerated_inline_func.h

; 2503 :     c = _SUBTRUCT_UNIT(c, xp[9], yp[9], &zp[9]);

	mov	rax, QWORD PTR [rdx+72]
; File z:\sources\lunor\repos\rougemeilland\palmtree.math.core.implements\palmtree.math.core.implements\pmc_internal.h

; 559  :     return (_subborrow_u64(borrow, u, v, w));

	sbb	rax, QWORD PTR [r8+72]
	mov	QWORD PTR [r9+72], rax
; File z:\sources\lunor\repos\rougemeilland\palmtree.math.core.implements\palmtree.math.core.implements\autogenerated_inline_func.h

; 2504 :     c = _SUBTRUCT_UNIT(c, xp[10], yp[10], &zp[10]);

	mov	rax, QWORD PTR [rdx+80]
; File z:\sources\lunor\repos\rougemeilland\palmtree.math.core.implements\palmtree.math.core.implements\pmc_internal.h

; 559  :     return (_subborrow_u64(borrow, u, v, w));

	sbb	rax, QWORD PTR [r8+80]
	mov	QWORD PTR [r9+80], rax
; File z:\sources\lunor\repos\rougemeilland\palmtree.math.core.implements\palmtree.math.core.implements\autogenerated_inline_func.h

; 2505 :     c = _SUBTRUCT_UNIT(c, xp[11], yp[11], &zp[11]);

	mov	rax, QWORD PTR [rdx+88]
; File z:\sources\lunor\repos\rougemeilland\palmtree.math.core.implements\palmtree.math.core.implements\pmc_internal.h

; 559  :     return (_subborrow_u64(borrow, u, v, w));

	sbb	rax, QWORD PTR [r8+88]
	mov	QWORD PTR [r9+88], rax
; File z:\sources\lunor\repos\rougemeilland\palmtree.math.core.implements\palmtree.math.core.implements\autogenerated_inline_func.h

; 2506 :     c = _SUBTRUCT_UNIT(c, xp[12], yp[12], &zp[12]);

	mov	rax, QWORD PTR [rdx+96]
; File z:\sources\lunor\repos\rougemeilland\palmtree.math.core.implements\palmtree.math.core.implements\pmc_internal.h

; 559  :     return (_subborrow_u64(borrow, u, v, w));

	sbb	rax, QWORD PTR [r8+96]
	mov	QWORD PTR [r9+96], rax
; File z:\sources\lunor\repos\rougemeilland\palmtree.math.core.implements\palmtree.math.core.implements\autogenerated_inline_func.h

; 2507 :     c = _SUBTRUCT_UNIT(c, xp[13], yp[13], &zp[13]);

	mov	rax, QWORD PTR [rdx+104]
; File z:\sources\lunor\repos\rougemeilland\palmtree.math.core.implements\palmtree.math.core.implements\pmc_internal.h

; 559  :     return (_subborrow_u64(borrow, u, v, w));

	sbb	rax, QWORD PTR [r8+104]
	mov	QWORD PTR [r9+104], rax
; File z:\sources\lunor\repos\rougemeilland\palmtree.math.core.implements\palmtree.math.core.implements\autogenerated_inline_func.h

; 2508 :     c = _SUBTRUCT_UNIT(c, xp[14], yp[14], &zp[14]);

	mov	rax, QWORD PTR [rdx+112]
; File z:\sources\lunor\repos\rougemeilland\palmtree.math.core.implements\palmtree.math.core.implements\pmc_internal.h

; 559  :     return (_subborrow_u64(borrow, u, v, w));

	sbb	rax, QWORD PTR [r8+112]
	mov	QWORD PTR [r9+112], rax
; File z:\sources\lunor\repos\rougemeilland\palmtree.math.core.implements\palmtree.math.core.implements\autogenerated_inline_func.h

; 2509 :     c = _SUBTRUCT_UNIT(c, xp[15], yp[15], &zp[15]);

	mov	rcx, QWORD PTR [rdx+120]
; File z:\sources\lunor\repos\rougemeilland\palmtree.math.core.implements\palmtree.math.core.implements\pmc_internal.h

; 559  :     return (_subborrow_u64(borrow, u, v, w));

	sbb	rcx, QWORD PTR [r8+120]
	mov	QWORD PTR [r9+120], rcx
	setb	al
; File z:\sources\lunor\repos\rougemeilland\palmtree.math.core.implements\palmtree.math.core.implements\autogenerated_inline_func.h

; 2630 : }

	ret	0
_SUBTRUCT_16WORDS_SBB ENDP
_TEXT	ENDS
; Function compile flags: /Ogtpy
; File z:\sources\lunor\repos\rougemeilland\palmtree.math.core.implements\palmtree.math.core.implements\autogenerated_inline_func.h
; File z:\sources\lunor\repos\rougemeilland\palmtree.math.core.implements\palmtree.math.core.implements\pmc_internal.h
; File z:\sources\lunor\repos\rougemeilland\palmtree.math.core.implements\palmtree.math.core.implements\autogenerated_inline_func.h
; File z:\sources\lunor\repos\rougemeilland\palmtree.math.core.implements\palmtree.math.core.implements\pmc_internal.h
; File z:\sources\lunor\repos\rougemeilland\palmtree.math.core.implements\palmtree.math.core.implements\autogenerated_inline_func.h
; File z:\sources\lunor\repos\rougemeilland\palmtree.math.core.implements\palmtree.math.core.implements\pmc_internal.h
; File z:\sources\lunor\repos\rougemeilland\palmtree.math.core.implements\palmtree.math.core.implements\autogenerated_inline_func.h
; File z:\sources\lunor\repos\rougemeilland\palmtree.math.core.implements\palmtree.math.core.implements\pmc_internal.h
; File z:\sources\lunor\repos\rougemeilland\palmtree.math.core.implements\palmtree.math.core.implements\autogenerated_inline_func.h
; File z:\sources\lunor\repos\rougemeilland\palmtree.math.core.implements\palmtree.math.core.implements\pmc_internal.h
; File z:\sources\lunor\repos\rougemeilland\palmtree.math.core.implements\palmtree.math.core.implements\autogenerated_inline_func.h
; File z:\sources\lunor\repos\rougemeilland\palmtree.math.core.implements\palmtree.math.core.implements\pmc_internal.h
; File z:\sources\lunor\repos\rougemeilland\palmtree.math.core.implements\palmtree.math.core.implements\autogenerated_inline_func.h
; File z:\sources\lunor\repos\rougemeilland\palmtree.math.core.implements\palmtree.math.core.implements\pmc_internal.h
; File z:\sources\lunor\repos\rougemeilland\palmtree.math.core.implements\palmtree.math.core.implements\autogenerated_inline_func.h
; File z:\sources\lunor\repos\rougemeilland\palmtree.math.core.implements\palmtree.math.core.implements\pmc_internal.h
; File z:\sources\lunor\repos\rougemeilland\palmtree.math.core.implements\palmtree.math.core.implements\autogenerated_inline_func.h
; File z:\sources\lunor\repos\rougemeilland\palmtree.math.core.implements\palmtree.math.core.implements\pmc_internal.h
; File z:\sources\lunor\repos\rougemeilland\palmtree.math.core.implements\palmtree.math.core.implements\autogenerated_inline_func.h
; File z:\sources\lunor\repos\rougemeilland\palmtree.math.core.implements\palmtree.math.core.implements\pmc_internal.h
; File z:\sources\lunor\repos\rougemeilland\palmtree.math.core.implements\palmtree.math.core.implements\autogenerated_inline_func.h
; File z:\sources\lunor\repos\rougemeilland\palmtree.math.core.implements\palmtree.math.core.implements\pmc_internal.h
; File z:\sources\lunor\repos\rougemeilland\palmtree.math.core.implements\palmtree.math.core.implements\autogenerated_inline_func.h
; File z:\sources\lunor\repos\rougemeilland\palmtree.math.core.implements\palmtree.math.core.implements\pmc_internal.h
; File z:\sources\lunor\repos\rougemeilland\palmtree.math.core.implements\palmtree.math.core.implements\autogenerated_inline_func.h
; File z:\sources\lunor\repos\rougemeilland\palmtree.math.core.implements\palmtree.math.core.implements\pmc_internal.h
; File z:\sources\lunor\repos\rougemeilland\palmtree.math.core.implements\palmtree.math.core.implements\autogenerated_inline_func.h
; File z:\sources\lunor\repos\rougemeilland\palmtree.math.core.implements\palmtree.math.core.implements\pmc_internal.h
; File z:\sources\lunor\repos\rougemeilland\palmtree.math.core.implements\palmtree.math.core.implements\autogenerated_inline_func.h
; File z:\sources\lunor\repos\rougemeilland\palmtree.math.core.implements\palmtree.math.core.implements\pmc_internal.h
; File z:\sources\lunor\repos\rougemeilland\palmtree.math.core.implements\palmtree.math.core.implements\autogenerated_inline_func.h
; File z:\sources\lunor\repos\rougemeilland\palmtree.math.core.implements\palmtree.math.core.implements\pmc_internal.h
; File z:\sources\lunor\repos\rougemeilland\palmtree.math.core.implements\palmtree.math.core.implements\autogenerated_inline_func.h
; File z:\sources\lunor\repos\rougemeilland\palmtree.math.core.implements\palmtree.math.core.implements\pmc_internal.h
; File z:\sources\lunor\repos\rougemeilland\palmtree.math.core.implements\palmtree.math.core.implements\autogenerated_inline_func.h
; File z:\sources\lunor\repos\rougemeilland\palmtree.math.core.implements\palmtree.math.core.implements\pmc_internal.h
; File z:\sources\lunor\repos\rougemeilland\palmtree.math.core.implements\palmtree.math.core.implements\autogenerated_inline_func.h
; File z:\sources\lunor\repos\rougemeilland\palmtree.math.core.implements\palmtree.math.core.implements\pmc_internal.h
; File z:\sources\lunor\repos\rougemeilland\palmtree.math.core.implements\palmtree.math.core.implements\autogenerated_inline_func.h
; File z:\sources\lunor\repos\rougemeilland\palmtree.math.core.implements\palmtree.math.core.implements\pmc_internal.h
; File z:\sources\lunor\repos\rougemeilland\palmtree.math.core.implements\palmtree.math.core.implements\autogenerated_inline_func.h
; File z:\sources\lunor\repos\rougemeilland\palmtree.math.core.implements\palmtree.math.core.implements\pmc_internal.h
; File z:\sources\lunor\repos\rougemeilland\palmtree.math.core.implements\palmtree.math.core.implements\autogenerated_inline_func.h
; File z:\sources\lunor\repos\rougemeilland\palmtree.math.core.implements\palmtree.math.core.implements\pmc_internal.h
; File z:\sources\lunor\repos\rougemeilland\palmtree.math.core.implements\palmtree.math.core.implements\autogenerated_inline_func.h
; File z:\sources\lunor\repos\rougemeilland\palmtree.math.core.implements\palmtree.math.core.implements\pmc_internal.h
; File z:\sources\lunor\repos\rougemeilland\palmtree.math.core.implements\palmtree.math.core.implements\autogenerated_inline_func.h
; File z:\sources\lunor\repos\rougemeilland\palmtree.math.core.implements\palmtree.math.core.implements\pmc_internal.h
; File z:\sources\lunor\repos\rougemeilland\palmtree.math.core.implements\palmtree.math.core.implements\autogenerated_inline_func.h
; File z:\sources\lunor\repos\rougemeilland\palmtree.math.core.implements\palmtree.math.core.implements\pmc_internal.h
; File z:\sources\lunor\repos\rougemeilland\palmtree.math.core.implements\palmtree.math.core.implements\autogenerated_inline_func.h
; File z:\sources\lunor\repos\rougemeilland\palmtree.math.core.implements\palmtree.math.core.implements\pmc_internal.h
; File z:\sources\lunor\repos\rougemeilland\palmtree.math.core.implements\palmtree.math.core.implements\autogenerated_inline_func.h
; File z:\sources\lunor\repos\rougemeilland\palmtree.math.core.implements\palmtree.math.core.implements\pmc_internal.h
; File z:\sources\lunor\repos\rougemeilland\palmtree.math.core.implements\palmtree.math.core.implements\autogenerated_inline_func.h
; File z:\sources\lunor\repos\rougemeilland\palmtree.math.core.implements\palmtree.math.core.implements\pmc_internal.h
; File z:\sources\lunor\repos\rougemeilland\palmtree.math.core.implements\palmtree.math.core.implements\autogenerated_inline_func.h
; File z:\sources\lunor\repos\rougemeilland\palmtree.math.core.implements\palmtree.math.core.implements\pmc_internal.h
; File z:\sources\lunor\repos\rougemeilland\palmtree.math.core.implements\palmtree.math.core.implements\autogenerated_inline_func.h
; File z:\sources\lunor\repos\rougemeilland\palmtree.math.core.implements\palmtree.math.core.implements\pmc_internal.h
; File z:\sources\lunor\repos\rougemeilland\palmtree.math.core.implements\palmtree.math.core.implements\autogenerated_inline_func.h
; File z:\sources\lunor\repos\rougemeilland\palmtree.math.core.implements\palmtree.math.core.implements\pmc_internal.h
; File z:\sources\lunor\repos\rougemeilland\palmtree.math.core.implements\palmtree.math.core.implements\autogenerated_inline_func.h
; File z:\sources\lunor\repos\rougemeilland\palmtree.math.core.implements\palmtree.math.core.implements\pmc_internal.h
; File z:\sources\lunor\repos\rougemeilland\palmtree.math.core.implements\palmtree.math.core.implements\autogenerated_inline_func.h
;	COMDAT _SUBTRUCT_32WORDS_SBB
_TEXT	SEGMENT
c$ = 8
xp$ = 16
yp$ = 24
zp$ = 32
_SUBTRUCT_32WORDS_SBB PROC				; COMDAT

; 805  : #ifdef _MSC_VER
; 806  :     c = _SUBTRUCT_UNIT(c, xp[0], yp[0], &zp[0]);

	mov	rax, QWORD PTR [rdx]
; File z:\sources\lunor\repos\rougemeilland\palmtree.math.core.implements\palmtree.math.core.implements\pmc_internal.h

; 559  :     return (_subborrow_u64(borrow, u, v, w));

	add	cl, -1
	sbb	rax, QWORD PTR [r8]
	mov	QWORD PTR [r9], rax
; File z:\sources\lunor\repos\rougemeilland\palmtree.math.core.implements\palmtree.math.core.implements\autogenerated_inline_func.h

; 807  :     c = _SUBTRUCT_UNIT(c, xp[1], yp[1], &zp[1]);

	mov	rax, QWORD PTR [rdx+8]
; File z:\sources\lunor\repos\rougemeilland\palmtree.math.core.implements\palmtree.math.core.implements\pmc_internal.h

; 559  :     return (_subborrow_u64(borrow, u, v, w));

	sbb	rax, QWORD PTR [r8+8]
	mov	QWORD PTR [r9+8], rax
; File z:\sources\lunor\repos\rougemeilland\palmtree.math.core.implements\palmtree.math.core.implements\autogenerated_inline_func.h

; 808  :     c = _SUBTRUCT_UNIT(c, xp[2], yp[2], &zp[2]);

	mov	rax, QWORD PTR [rdx+16]
; File z:\sources\lunor\repos\rougemeilland\palmtree.math.core.implements\palmtree.math.core.implements\pmc_internal.h

; 559  :     return (_subborrow_u64(borrow, u, v, w));

	sbb	rax, QWORD PTR [r8+16]
	mov	QWORD PTR [r9+16], rax
; File z:\sources\lunor\repos\rougemeilland\palmtree.math.core.implements\palmtree.math.core.implements\autogenerated_inline_func.h

; 809  :     c = _SUBTRUCT_UNIT(c, xp[3], yp[3], &zp[3]);

	mov	rax, QWORD PTR [rdx+24]
; File z:\sources\lunor\repos\rougemeilland\palmtree.math.core.implements\palmtree.math.core.implements\pmc_internal.h

; 559  :     return (_subborrow_u64(borrow, u, v, w));

	sbb	rax, QWORD PTR [r8+24]
	mov	QWORD PTR [r9+24], rax
; File z:\sources\lunor\repos\rougemeilland\palmtree.math.core.implements\palmtree.math.core.implements\autogenerated_inline_func.h

; 810  :     c = _SUBTRUCT_UNIT(c, xp[4], yp[4], &zp[4]);

	mov	rax, QWORD PTR [rdx+32]
; File z:\sources\lunor\repos\rougemeilland\palmtree.math.core.implements\palmtree.math.core.implements\pmc_internal.h

; 559  :     return (_subborrow_u64(borrow, u, v, w));

	sbb	rax, QWORD PTR [r8+32]
	mov	QWORD PTR [r9+32], rax
; File z:\sources\lunor\repos\rougemeilland\palmtree.math.core.implements\palmtree.math.core.implements\autogenerated_inline_func.h

; 811  :     c = _SUBTRUCT_UNIT(c, xp[5], yp[5], &zp[5]);

	mov	rax, QWORD PTR [rdx+40]
; File z:\sources\lunor\repos\rougemeilland\palmtree.math.core.implements\palmtree.math.core.implements\pmc_internal.h

; 559  :     return (_subborrow_u64(borrow, u, v, w));

	sbb	rax, QWORD PTR [r8+40]
	mov	QWORD PTR [r9+40], rax
; File z:\sources\lunor\repos\rougemeilland\palmtree.math.core.implements\palmtree.math.core.implements\autogenerated_inline_func.h

; 812  :     c = _SUBTRUCT_UNIT(c, xp[6], yp[6], &zp[6]);

	mov	rax, QWORD PTR [rdx+48]
; File z:\sources\lunor\repos\rougemeilland\palmtree.math.core.implements\palmtree.math.core.implements\pmc_internal.h

; 559  :     return (_subborrow_u64(borrow, u, v, w));

	sbb	rax, QWORD PTR [r8+48]
	mov	QWORD PTR [r9+48], rax
; File z:\sources\lunor\repos\rougemeilland\palmtree.math.core.implements\palmtree.math.core.implements\autogenerated_inline_func.h

; 813  :     c = _SUBTRUCT_UNIT(c, xp[7], yp[7], &zp[7]);

	mov	rax, QWORD PTR [rdx+56]
; File z:\sources\lunor\repos\rougemeilland\palmtree.math.core.implements\palmtree.math.core.implements\pmc_internal.h

; 559  :     return (_subborrow_u64(borrow, u, v, w));

	sbb	rax, QWORD PTR [r8+56]
	mov	QWORD PTR [r9+56], rax
; File z:\sources\lunor\repos\rougemeilland\palmtree.math.core.implements\palmtree.math.core.implements\autogenerated_inline_func.h

; 814  :     c = _SUBTRUCT_UNIT(c, xp[8], yp[8], &zp[8]);

	mov	rax, QWORD PTR [rdx+64]
; File z:\sources\lunor\repos\rougemeilland\palmtree.math.core.implements\palmtree.math.core.implements\pmc_internal.h

; 559  :     return (_subborrow_u64(borrow, u, v, w));

	sbb	rax, QWORD PTR [r8+64]
	mov	QWORD PTR [r9+64], rax
; File z:\sources\lunor\repos\rougemeilland\palmtree.math.core.implements\palmtree.math.core.implements\autogenerated_inline_func.h

; 815  :     c = _SUBTRUCT_UNIT(c, xp[9], yp[9], &zp[9]);

	mov	rax, QWORD PTR [rdx+72]
; File z:\sources\lunor\repos\rougemeilland\palmtree.math.core.implements\palmtree.math.core.implements\pmc_internal.h

; 559  :     return (_subborrow_u64(borrow, u, v, w));

	sbb	rax, QWORD PTR [r8+72]
	mov	QWORD PTR [r9+72], rax
; File z:\sources\lunor\repos\rougemeilland\palmtree.math.core.implements\palmtree.math.core.implements\autogenerated_inline_func.h

; 816  :     c = _SUBTRUCT_UNIT(c, xp[10], yp[10], &zp[10]);

	mov	rax, QWORD PTR [rdx+80]
; File z:\sources\lunor\repos\rougemeilland\palmtree.math.core.implements\palmtree.math.core.implements\pmc_internal.h

; 559  :     return (_subborrow_u64(borrow, u, v, w));

	sbb	rax, QWORD PTR [r8+80]
	mov	QWORD PTR [r9+80], rax
; File z:\sources\lunor\repos\rougemeilland\palmtree.math.core.implements\palmtree.math.core.implements\autogenerated_inline_func.h

; 817  :     c = _SUBTRUCT_UNIT(c, xp[11], yp[11], &zp[11]);

	mov	rax, QWORD PTR [rdx+88]
; File z:\sources\lunor\repos\rougemeilland\palmtree.math.core.implements\palmtree.math.core.implements\pmc_internal.h

; 559  :     return (_subborrow_u64(borrow, u, v, w));

	sbb	rax, QWORD PTR [r8+88]
	mov	QWORD PTR [r9+88], rax
; File z:\sources\lunor\repos\rougemeilland\palmtree.math.core.implements\palmtree.math.core.implements\autogenerated_inline_func.h

; 818  :     c = _SUBTRUCT_UNIT(c, xp[12], yp[12], &zp[12]);

	mov	rax, QWORD PTR [rdx+96]
; File z:\sources\lunor\repos\rougemeilland\palmtree.math.core.implements\palmtree.math.core.implements\pmc_internal.h

; 559  :     return (_subborrow_u64(borrow, u, v, w));

	sbb	rax, QWORD PTR [r8+96]
	mov	QWORD PTR [r9+96], rax
; File z:\sources\lunor\repos\rougemeilland\palmtree.math.core.implements\palmtree.math.core.implements\autogenerated_inline_func.h

; 819  :     c = _SUBTRUCT_UNIT(c, xp[13], yp[13], &zp[13]);

	mov	rax, QWORD PTR [rdx+104]
; File z:\sources\lunor\repos\rougemeilland\palmtree.math.core.implements\palmtree.math.core.implements\pmc_internal.h

; 559  :     return (_subborrow_u64(borrow, u, v, w));

	sbb	rax, QWORD PTR [r8+104]
	mov	QWORD PTR [r9+104], rax
; File z:\sources\lunor\repos\rougemeilland\palmtree.math.core.implements\palmtree.math.core.implements\autogenerated_inline_func.h

; 820  :     c = _SUBTRUCT_UNIT(c, xp[14], yp[14], &zp[14]);

	mov	rax, QWORD PTR [rdx+112]
; File z:\sources\lunor\repos\rougemeilland\palmtree.math.core.implements\palmtree.math.core.implements\pmc_internal.h

; 559  :     return (_subborrow_u64(borrow, u, v, w));

	sbb	rax, QWORD PTR [r8+112]
	mov	QWORD PTR [r9+112], rax
; File z:\sources\lunor\repos\rougemeilland\palmtree.math.core.implements\palmtree.math.core.implements\autogenerated_inline_func.h

; 821  :     c = _SUBTRUCT_UNIT(c, xp[15], yp[15], &zp[15]);

	mov	rax, QWORD PTR [rdx+120]
; File z:\sources\lunor\repos\rougemeilland\palmtree.math.core.implements\palmtree.math.core.implements\pmc_internal.h

; 559  :     return (_subborrow_u64(borrow, u, v, w));

	sbb	rax, QWORD PTR [r8+120]
	mov	QWORD PTR [r9+120], rax
; File z:\sources\lunor\repos\rougemeilland\palmtree.math.core.implements\palmtree.math.core.implements\autogenerated_inline_func.h

; 822  :     c = _SUBTRUCT_UNIT(c, xp[16], yp[16], &zp[16]);

	mov	rax, QWORD PTR [rdx+128]
; File z:\sources\lunor\repos\rougemeilland\palmtree.math.core.implements\palmtree.math.core.implements\pmc_internal.h

; 559  :     return (_subborrow_u64(borrow, u, v, w));

	sbb	rax, QWORD PTR [r8+128]
	mov	QWORD PTR [r9+128], rax
; File z:\sources\lunor\repos\rougemeilland\palmtree.math.core.implements\palmtree.math.core.implements\autogenerated_inline_func.h

; 823  :     c = _SUBTRUCT_UNIT(c, xp[17], yp[17], &zp[17]);

	mov	rax, QWORD PTR [rdx+136]
; File z:\sources\lunor\repos\rougemeilland\palmtree.math.core.implements\palmtree.math.core.implements\pmc_internal.h

; 559  :     return (_subborrow_u64(borrow, u, v, w));

	sbb	rax, QWORD PTR [r8+136]
	mov	QWORD PTR [r9+136], rax
; File z:\sources\lunor\repos\rougemeilland\palmtree.math.core.implements\palmtree.math.core.implements\autogenerated_inline_func.h

; 824  :     c = _SUBTRUCT_UNIT(c, xp[18], yp[18], &zp[18]);

	mov	rax, QWORD PTR [rdx+144]
; File z:\sources\lunor\repos\rougemeilland\palmtree.math.core.implements\palmtree.math.core.implements\pmc_internal.h

; 559  :     return (_subborrow_u64(borrow, u, v, w));

	sbb	rax, QWORD PTR [r8+144]
	mov	QWORD PTR [r9+144], rax
; File z:\sources\lunor\repos\rougemeilland\palmtree.math.core.implements\palmtree.math.core.implements\autogenerated_inline_func.h

; 825  :     c = _SUBTRUCT_UNIT(c, xp[19], yp[19], &zp[19]);

	mov	rax, QWORD PTR [rdx+152]
; File z:\sources\lunor\repos\rougemeilland\palmtree.math.core.implements\palmtree.math.core.implements\pmc_internal.h

; 559  :     return (_subborrow_u64(borrow, u, v, w));

	sbb	rax, QWORD PTR [r8+152]
	mov	QWORD PTR [r9+152], rax
; File z:\sources\lunor\repos\rougemeilland\palmtree.math.core.implements\palmtree.math.core.implements\autogenerated_inline_func.h

; 826  :     c = _SUBTRUCT_UNIT(c, xp[20], yp[20], &zp[20]);

	mov	rax, QWORD PTR [rdx+160]
; File z:\sources\lunor\repos\rougemeilland\palmtree.math.core.implements\palmtree.math.core.implements\pmc_internal.h

; 559  :     return (_subborrow_u64(borrow, u, v, w));

	sbb	rax, QWORD PTR [r8+160]
	mov	QWORD PTR [r9+160], rax
; File z:\sources\lunor\repos\rougemeilland\palmtree.math.core.implements\palmtree.math.core.implements\autogenerated_inline_func.h

; 827  :     c = _SUBTRUCT_UNIT(c, xp[21], yp[21], &zp[21]);

	mov	rax, QWORD PTR [rdx+168]
; File z:\sources\lunor\repos\rougemeilland\palmtree.math.core.implements\palmtree.math.core.implements\pmc_internal.h

; 559  :     return (_subborrow_u64(borrow, u, v, w));

	sbb	rax, QWORD PTR [r8+168]
	mov	QWORD PTR [r9+168], rax
; File z:\sources\lunor\repos\rougemeilland\palmtree.math.core.implements\palmtree.math.core.implements\autogenerated_inline_func.h

; 828  :     c = _SUBTRUCT_UNIT(c, xp[22], yp[22], &zp[22]);

	mov	rax, QWORD PTR [rdx+176]
; File z:\sources\lunor\repos\rougemeilland\palmtree.math.core.implements\palmtree.math.core.implements\pmc_internal.h

; 559  :     return (_subborrow_u64(borrow, u, v, w));

	sbb	rax, QWORD PTR [r8+176]
	mov	QWORD PTR [r9+176], rax
; File z:\sources\lunor\repos\rougemeilland\palmtree.math.core.implements\palmtree.math.core.implements\autogenerated_inline_func.h

; 829  :     c = _SUBTRUCT_UNIT(c, xp[23], yp[23], &zp[23]);

	mov	rax, QWORD PTR [rdx+184]
; File z:\sources\lunor\repos\rougemeilland\palmtree.math.core.implements\palmtree.math.core.implements\pmc_internal.h

; 559  :     return (_subborrow_u64(borrow, u, v, w));

	sbb	rax, QWORD PTR [r8+184]
	mov	QWORD PTR [r9+184], rax
; File z:\sources\lunor\repos\rougemeilland\palmtree.math.core.implements\palmtree.math.core.implements\autogenerated_inline_func.h

; 830  :     c = _SUBTRUCT_UNIT(c, xp[24], yp[24], &zp[24]);

	mov	rax, QWORD PTR [rdx+192]
; File z:\sources\lunor\repos\rougemeilland\palmtree.math.core.implements\palmtree.math.core.implements\pmc_internal.h

; 559  :     return (_subborrow_u64(borrow, u, v, w));

	sbb	rax, QWORD PTR [r8+192]
	mov	QWORD PTR [r9+192], rax
; File z:\sources\lunor\repos\rougemeilland\palmtree.math.core.implements\palmtree.math.core.implements\autogenerated_inline_func.h

; 831  :     c = _SUBTRUCT_UNIT(c, xp[25], yp[25], &zp[25]);

	mov	rax, QWORD PTR [rdx+200]
; File z:\sources\lunor\repos\rougemeilland\palmtree.math.core.implements\palmtree.math.core.implements\pmc_internal.h

; 559  :     return (_subborrow_u64(borrow, u, v, w));

	sbb	rax, QWORD PTR [r8+200]
	mov	QWORD PTR [r9+200], rax
; File z:\sources\lunor\repos\rougemeilland\palmtree.math.core.implements\palmtree.math.core.implements\autogenerated_inline_func.h

; 832  :     c = _SUBTRUCT_UNIT(c, xp[26], yp[26], &zp[26]);

	mov	rax, QWORD PTR [rdx+208]
; File z:\sources\lunor\repos\rougemeilland\palmtree.math.core.implements\palmtree.math.core.implements\pmc_internal.h

; 559  :     return (_subborrow_u64(borrow, u, v, w));

	sbb	rax, QWORD PTR [r8+208]
	mov	QWORD PTR [r9+208], rax
; File z:\sources\lunor\repos\rougemeilland\palmtree.math.core.implements\palmtree.math.core.implements\autogenerated_inline_func.h

; 833  :     c = _SUBTRUCT_UNIT(c, xp[27], yp[27], &zp[27]);

	mov	rax, QWORD PTR [rdx+216]
; File z:\sources\lunor\repos\rougemeilland\palmtree.math.core.implements\palmtree.math.core.implements\pmc_internal.h

; 559  :     return (_subborrow_u64(borrow, u, v, w));

	sbb	rax, QWORD PTR [r8+216]
	mov	QWORD PTR [r9+216], rax
; File z:\sources\lunor\repos\rougemeilland\palmtree.math.core.implements\palmtree.math.core.implements\autogenerated_inline_func.h

; 834  :     c = _SUBTRUCT_UNIT(c, xp[28], yp[28], &zp[28]);

	mov	rax, QWORD PTR [rdx+224]
; File z:\sources\lunor\repos\rougemeilland\palmtree.math.core.implements\palmtree.math.core.implements\pmc_internal.h

; 559  :     return (_subborrow_u64(borrow, u, v, w));

	sbb	rax, QWORD PTR [r8+224]
	mov	QWORD PTR [r9+224], rax
; File z:\sources\lunor\repos\rougemeilland\palmtree.math.core.implements\palmtree.math.core.implements\autogenerated_inline_func.h

; 835  :     c = _SUBTRUCT_UNIT(c, xp[29], yp[29], &zp[29]);

	mov	rax, QWORD PTR [rdx+232]
; File z:\sources\lunor\repos\rougemeilland\palmtree.math.core.implements\palmtree.math.core.implements\pmc_internal.h

; 559  :     return (_subborrow_u64(borrow, u, v, w));

	sbb	rax, QWORD PTR [r8+232]
	mov	QWORD PTR [r9+232], rax
; File z:\sources\lunor\repos\rougemeilland\palmtree.math.core.implements\palmtree.math.core.implements\autogenerated_inline_func.h

; 836  :     c = _SUBTRUCT_UNIT(c, xp[30], yp[30], &zp[30]);

	mov	rax, QWORD PTR [rdx+240]
; File z:\sources\lunor\repos\rougemeilland\palmtree.math.core.implements\palmtree.math.core.implements\pmc_internal.h

; 559  :     return (_subborrow_u64(borrow, u, v, w));

	sbb	rax, QWORD PTR [r8+240]
	mov	QWORD PTR [r9+240], rax
; File z:\sources\lunor\repos\rougemeilland\palmtree.math.core.implements\palmtree.math.core.implements\autogenerated_inline_func.h

; 837  :     c = _SUBTRUCT_UNIT(c, xp[31], yp[31], &zp[31]);

	mov	rcx, QWORD PTR [rdx+248]
; File z:\sources\lunor\repos\rougemeilland\palmtree.math.core.implements\palmtree.math.core.implements\pmc_internal.h

; 559  :     return (_subborrow_u64(borrow, u, v, w));

	sbb	rcx, QWORD PTR [r8+248]
	mov	QWORD PTR [r9+248], rcx
	setb	al
; File z:\sources\lunor\repos\rougemeilland\palmtree.math.core.implements\palmtree.math.core.implements\autogenerated_inline_func.h

; 1054 : }

	ret	0
_SUBTRUCT_32WORDS_SBB ENDP
_TEXT	ENDS
; Function compile flags: /Ogtpy
; File z:\sources\lunor\repos\rougemeilland\palmtree.math.core.implements\palmtree.math.core.implements\pmc_internal.h
;	COMDAT _LZCNT_ALT_UNIT
_TEXT	SEGMENT
x$ = 8
_LZCNT_ALT_UNIT PROC					; COMDAT

; 916  :     if (x == 0)

	test	rcx, rcx
	jne	SHORT $LN2@LZCNT_ALT_

; 917  :         return (sizeof(x) * 8);

	mov	eax, 64					; 00000040H

; 941  : }

	ret	0
$LN2@LZCNT_ALT_:

; 918  : #ifdef _M_IX86
; 919  :     _UINT32_T pos;
; 920  : #ifdef _MSC_VER
; 921  :     _BitScanReverse(&pos, x);
; 922  : #elif defined(__GNUC__)
; 923  :     __asm__("bsrl %1, %0" : "=r"(pos) : "rm"(x));
; 924  : #else
; 925  : #error unknown compiler
; 926  : #endif
; 927  : #elif defined(_M_X64)
; 928  : #ifdef _MSC_VER
; 929  :     _UINT32_T pos;
; 930  :     _BitScanReverse64(&pos, x);

	bsr	rcx, rcx

; 931  : #elif defined(__GNUC__)
; 932  :     _UINT64_T pos;
; 933  :     __asm__("bsrq %1, %0" : "=r"(pos) : "rm"(x));
; 934  : #else
; 935  : #error unknown compiler
; 936  : #endif
; 937  : #else
; 938  : #error unknown platform
; 939  : #endif
; 940  :     return (sizeof(x) * 8 - 1 - pos);

	mov	eax, 63					; 0000003fH
	sub	eax, ecx

; 941  : }

	ret	0
_LZCNT_ALT_UNIT ENDP
_TEXT	ENDS
; Function compile flags: /Ogtpy
; File z:\sources\lunor\repos\rougemeilland\palmtree.math.core.implements\palmtree.math.core.implements\pmc_internal.h
;	COMDAT _LZCNT_ALT_32
_TEXT	SEGMENT
x$ = 8
_LZCNT_ALT_32 PROC					; COMDAT

; 883  :     if (x == 0)

	test	ecx, ecx
	jne	SHORT $LN2@LZCNT_ALT_

; 884  :         return (sizeof(x) * 8);

	mov	eax, 32					; 00000020H

; 894  : }

	ret	0
$LN2@LZCNT_ALT_:

; 885  :     _UINT32_T pos;
; 886  : #ifdef _MSC_VER
; 887  :     _BitScanReverse(&pos, x);

	bsr	ecx, ecx

; 888  : #elif defined(__GNUC__)
; 889  :     __asm__( "bsrl %1, %0" : "=r"(pos) : "rm"(x) );
; 890  : #else
; 891  : #error unknown compiler
; 892  : #endif
; 893  :     return (sizeof(x) * 8 - 1 - pos);

	mov	eax, 31
	sub	eax, ecx

; 894  : }

	ret	0
_LZCNT_ALT_32 ENDP
_TEXT	ENDS
; Function compile flags: /Ogtpy
; File z:\sources\lunor\repos\rougemeilland\palmtree.math.core.implements\palmtree.math.core.implements\pmc_internal.h
;	COMDAT _SUBTRUCT_UNIT
_TEXT	SEGMENT
borrow$ = 8
u$ = 16
v$ = 24
w$ = 32
_SUBTRUCT_UNIT PROC					; COMDAT

; 556  : #ifdef _M_IX86
; 557  :     return (_subborrow_u32(borrow, u, v, w));
; 558  : #elif defined(_M_X64)
; 559  :     return (_subborrow_u64(borrow, u, v, w));

	add	cl, -1
	sbb	rdx, r8
	mov	QWORD PTR [r9], rdx
	setb	al

; 560  : #else
; 561  : #error unknown platform
; 562  : #endif
; 563  : }

	ret	0
_SUBTRUCT_UNIT ENDP
_TEXT	ENDS
; Function compile flags: /Ogtpy
; File z:\sources\lunor\repos\rougemeilland\palmtree.math.core.implements\palmtree.math.core.implements\pmc_internal.h
;	COMDAT _FROMDWORDTOWORD
_TEXT	SEGMENT
value$ = 8
result_high$ = 16
_FROMDWORDTOWORD PROC					; COMDAT

; 469  :     *result_high = (_UINT32_T)(value >> 32);

	mov	rax, rcx
	shr	rax, 32					; 00000020H
	mov	DWORD PTR [rdx], eax

; 470  :     return ((_UINT32_T)value);

	mov	eax, ecx

; 471  : }

	ret	0
_FROMDWORDTOWORD ENDP
_TEXT	ENDS
; Function compile flags: /Ogtpy
; File z:\sources\lunor\repos\rougemeilland\palmtree.math.core.implements\palmtree.math.core.implements\pmc_internal.h
;	COMDAT _FROMWORDTODWORD
_TEXT	SEGMENT
value_high$ = 8
value_low$ = 16
_FROMWORDTODWORD PROC					; COMDAT

; 464  :     return (((_UINT64_T)value_high << 32) | value_low);

	mov	eax, ecx
	shl	rax, 32					; 00000020H
	mov	ecx, edx
	or	rax, rcx

; 465  : }

	ret	0
_FROMWORDTODWORD ENDP
_TEXT	ENDS
; Function compile flags: /Ogtpy
; File z:\sources\lunor\repos\rougemeilland\palmtree.math.core.implements\palmtree.math.core.implements\pmc_subtruct.c
;	COMDAT PMC_Subtruct_X_X
_TEXT	SEGMENT
nz$ = 64
x$ = 64
y$ = 72
o$ = 80
nz_light_check_code$1 = 88
PMC_Subtruct_X_X PROC					; COMDAT

; 664  : {

$LN23:
	mov	QWORD PTR [rsp+16], rbx
	mov	QWORD PTR [rsp+24], rsi
	push	rdi
	sub	rsp, 48					; 00000030H
	mov	rsi, r8
	mov	rdi, rdx
	mov	rbx, rcx

; 665  :     if (x == NULL)

	test	rcx, rcx
	je	$LN20@PMC_Subtru

; 666  :         return (PMC_STATUS_ARGUMENT_ERROR);
; 667  :     if (y == NULL)

	test	rdx, rdx
	je	$LN20@PMC_Subtru

; 668  :         return (PMC_STATUS_ARGUMENT_ERROR);
; 669  :     if (o == NULL)

	test	r8, r8
	je	$LN20@PMC_Subtru

; 671  :     NUMBER_HEADER* nx = (NUMBER_HEADER*)x;
; 672  :     NUMBER_HEADER* ny = (NUMBER_HEADER*)y;
; 673  :     PMC_STATUS_CODE result;
; 674  :     if ((result = CheckNumber(nx)) != PMC_STATUS_OK)

	call	CheckNumber
	test	eax, eax
	jne	$LN1@PMC_Subtru

; 675  :         return (result);
; 676  :     if ((result = CheckNumber(ny)) != PMC_STATUS_OK)

	mov	rcx, rdi
	call	CheckNumber
	test	eax, eax
	jne	$LN1@PMC_Subtru

; 677  :         return (result);
; 678  :     NUMBER_HEADER* nz;
; 679  :     if (nx->IS_ZERO)

	mov	eax, DWORD PTR [rdi+40]
	and	eax, 2
	test	BYTE PTR [rbx+40], 2
	je	SHORT $LN7@PMC_Subtru

; 680  :     {
; 681  :         if (ny->IS_ZERO)

	test	eax, eax
	je	SHORT $LN19@PMC_Subtru

; 682  :         {
; 683  :             // y が 0 である場合
; 684  : 
; 685  :             // x と y がともに 0 であるので、演算結果の 0 を呼び出し元に返す。
; 686  :             *o = &number_zero;

	lea	rax, OFFSET FLAT:number_zero

; 734  :     }
; 735  : #ifdef _DEBUG
; 736  :     if ((result = CheckNumber(*o)) != PMC_STATUS_OK)
; 737  :         return (result);
; 738  : #endif
; 739  :     return (PMC_STATUS_OK);

	mov	QWORD PTR [rsi], rax
	xor	eax, eax

; 740  : }

	mov	rbx, QWORD PTR [rsp+72]
	mov	rsi, QWORD PTR [rsp+80]
	add	rsp, 48					; 00000030H
	pop	rdi
	ret	0
$LN7@PMC_Subtru:

; 687  :         }
; 688  :         else
; 689  :         {
; 690  :             // y が 0 ではない場合
; 691  : 
; 692  :             // 演算結果は負となってしまうのでエラーを返す。
; 693  :             return (PMC_STATUS_OVERFLOW);
; 694  :         }
; 695  :     }
; 696  :     else
; 697  :     {
; 698  :         // x が 0 ではない場合
; 699  : 
; 700  :         if (ny->IS_ZERO)

	test	eax, eax
	je	SHORT $LN11@PMC_Subtru

; 701  :         {
; 702  :             // y が 0 である場合
; 703  : 
; 704  :             // 演算結果となる x の値を持つ NUMBER_HEADER 構造体を獲得し、呼び出し元へ返す。
; 705  :             if ((result = DuplicateNumber(nx, &nz)) != PMC_STATUS_OK)

	lea	rdx, QWORD PTR nz$[rsp]
	mov	rcx, rbx
	call	DuplicateNumber
	test	eax, eax
	je	$LN12@PMC_Subtru

; 740  : }

	mov	rbx, QWORD PTR [rsp+72]
	mov	rsi, QWORD PTR [rsp+80]
	add	rsp, 48					; 00000030H
	pop	rdi
	ret	0
$LN11@PMC_Subtru:

; 706  :                 return (result);
; 707  :         }
; 708  :         else
; 709  :         {
; 710  :             // x と y がともに 0 ではない場合
; 711  : 
; 712  :             // x と y の差を計算する
; 713  :             __UNIT_TYPE x_bit_count = nx->UNIT_BIT_COUNT;

	mov	rdx, QWORD PTR [rbx+16]

; 714  :             __UNIT_TYPE y_bit_count = ny->UNIT_BIT_COUNT;
; 715  :             if (x_bit_count < y_bit_count)

	cmp	rdx, QWORD PTR [rdi+16]
	jae	SHORT $LN14@PMC_Subtru
$LN19@PMC_Subtru:

; 716  :             {
; 717  :                 // 演算結果は負となってしまうのでエラーを返す。
; 718  :                 return (PMC_STATUS_OVERFLOW);

	mov	eax, -2

; 740  : }

	mov	rbx, QWORD PTR [rsp+72]
	mov	rsi, QWORD PTR [rsp+80]
	add	rsp, 48					; 00000030H
	pop	rdi
	ret	0
$LN14@PMC_Subtru:

; 719  :             }
; 720  :             __UNIT_TYPE z_bit_count = x_bit_count;
; 721  :             __UNIT_TYPE nz_light_check_code;
; 722  :             if ((result = AllocateNumber(&nz, z_bit_count, &nz_light_check_code)) != PMC_STATUS_OK)

	lea	r8, QWORD PTR nz_light_check_code$1[rsp]
	lea	rcx, QWORD PTR nz$[rsp]
	call	AllocateNumber
	test	eax, eax
	jne	$LN1@PMC_Subtru

; 723  :                 return (result);
; 724  :             if ((result = Subtruct_Imp(nx->BLOCK, nx->UNIT_WORD_COUNT, ny->BLOCK, ny->UNIT_WORD_COUNT, nz->BLOCK, nz->BLOCK_COUNT)) != PMC_STATUS_OK)

	mov	rcx, QWORD PTR nz$[rsp]
	mov	r9, QWORD PTR [rdi+8]
	mov	r8, QWORD PTR [rdi+56]
	mov	rdx, QWORD PTR [rbx+8]
	mov	rax, QWORD PTR [rcx+48]
	mov	QWORD PTR [rsp+40], rax
	mov	rax, QWORD PTR [rcx+56]
	mov	rcx, QWORD PTR [rbx+56]
	mov	QWORD PTR [rsp+32], rax
	call	Subtruct_Imp
	mov	rcx, QWORD PTR nz$[rsp]
	mov	ebx, eax
	test	eax, eax
	je	SHORT $LN16@PMC_Subtru

; 725  :             {
; 726  :                 DeallocateNumber(nz);

	call	DeallocateNumber

; 727  :                 return (result == PMC_STATUS_INTERNAL_BORROW ? PMC_STATUS_OVERFLOW : result);

	mov	eax, -2
	cmp	ebx, -258				; fffffffffffffefeH
	cmove	ebx, eax
	mov	eax, ebx

; 740  : }

	mov	rbx, QWORD PTR [rsp+72]
	mov	rsi, QWORD PTR [rsp+80]
	add	rsp, 48					; 00000030H
	pop	rdi
	ret	0
$LN16@PMC_Subtru:

; 728  :             }
; 729  :             if ((result = CheckBlockLight(nz->BLOCK, nz_light_check_code)) != PMC_STATUS_OK)

	mov	rdx, QWORD PTR nz_light_check_code$1[rsp]
	mov	rcx, QWORD PTR [rcx+56]
	call	CheckBlockLight
	test	eax, eax
	jne	SHORT $LN1@PMC_Subtru

; 730  :                 return (result);
; 731  :             CommitNumber(nz);

	mov	rcx, QWORD PTR nz$[rsp]
	call	CommitNumber
$LN12@PMC_Subtru:

; 732  :         }
; 733  :         *o = nz;

	mov	rax, QWORD PTR nz$[rsp]

; 734  :     }
; 735  : #ifdef _DEBUG
; 736  :     if ((result = CheckNumber(*o)) != PMC_STATUS_OK)
; 737  :         return (result);
; 738  : #endif
; 739  :     return (PMC_STATUS_OK);

	mov	QWORD PTR [rsi], rax
	xor	eax, eax

; 740  : }

	mov	rbx, QWORD PTR [rsp+72]
	mov	rsi, QWORD PTR [rsp+80]
	add	rsp, 48					; 00000030H
	pop	rdi
	ret	0
$LN20@PMC_Subtru:

; 670  :         return (PMC_STATUS_ARGUMENT_ERROR);

	mov	eax, -1
$LN1@PMC_Subtru:

; 740  : }

	mov	rbx, QWORD PTR [rsp+72]
	mov	rsi, QWORD PTR [rsp+80]
	add	rsp, 48					; 00000030H
	pop	rdi
	ret	0
PMC_Subtruct_X_X ENDP
_TEXT	ENDS
; Function compile flags: /Ogtpy
; File z:\sources\lunor\repos\rougemeilland\palmtree.math.core.implements\palmtree.math.core.implements\pmc_subtruct.c
; File z:\sources\lunor\repos\rougemeilland\palmtree.math.core.implements\palmtree.math.core.implements\pmc_internal.h
; File z:\sources\lunor\repos\rougemeilland\palmtree.math.core.implements\palmtree.math.core.implements\pmc_subtruct.c
;	COMDAT PMC_Subtruct_X_L
_TEXT	SEGMENT
nz$ = 64
x$ = 64
y$ = 72
o$ = 80
nz_light_check_code$1 = 88
PMC_Subtruct_X_L PROC					; COMDAT

; 523  : {

$LN69:
	mov	QWORD PTR [rsp+16], rbx
	mov	QWORD PTR [rsp+24], rsi
	push	rdi
	sub	rsp, 48					; 00000030H
	mov	rsi, r8
	mov	rdi, rdx
	mov	rbx, rcx

; 524  :     if (__UNIT_TYPE_BIT_COUNT * 2 < sizeof(y) * 8)
; 525  :     {
; 526  :         // _UINT64_T が 2 ワードで表現しきれない処理系には対応しない
; 527  :         return (PMC_STATUS_INTERNAL_ERROR);
; 528  :     }
; 529  :     if (x == NULL)

	test	rcx, rcx
	je	$LN65@PMC_Subtru

; 530  :         return (PMC_STATUS_ARGUMENT_ERROR);
; 531  :     if (o == NULL)

	test	r8, r8
	je	$LN65@PMC_Subtru

; 533  :     NUMBER_HEADER* nx = (NUMBER_HEADER*)x;
; 534  :     PMC_STATUS_CODE result;
; 535  :     if ((result = CheckNumber(nx)) != PMC_STATUS_OK)

	call	CheckNumber
	test	eax, eax
	jne	$LN1@PMC_Subtru

; 536  :         return (result);
; 537  :     NUMBER_HEADER* nz;
; 538  :     if (nx->IS_ZERO)

	test	BYTE PTR [rbx+40], 2
	je	SHORT $LN6@PMC_Subtru

; 539  :     {
; 540  :         // x が 0 である場合
; 541  : 
; 542  :         if (y == 0)

	test	rdi, rdi
	jne	SHORT $LN64@PMC_Subtru

; 651  :                 nz = &number_zero;
; 652  :             }
; 653  :         }
; 654  :         *o = nz;
; 655  :     }
; 656  : #ifdef _DEBUG
; 657  :     if ((result = CheckNumber(*o)) != PMC_STATUS_OK)
; 658  :         return (result);
; 659  : #endif
; 660  :     return (PMC_STATUS_OK);

	lea	rax, OFFSET FLAT:number_zero
	mov	QWORD PTR [rsi], rax
	xor	eax, eax

; 661  : }

	mov	rbx, QWORD PTR [rsp+72]
	mov	rsi, QWORD PTR [rsp+80]
	add	rsp, 48					; 00000030H
	pop	rdi
	ret	0
$LN6@PMC_Subtru:

; 543  :         {
; 544  :             // y が 0 である場合
; 545  : 
; 546  :             // x と y がともに 0 であるので、演算結果の 0 を呼び出し元に返す。
; 547  :             *o = &number_zero;
; 548  :         }
; 549  :         else
; 550  :         {
; 551  :             // y が 0 ではない場合
; 552  : 
; 553  :             // 演算結果は負となってしまうのでエラーを返す。
; 554  :             return (PMC_STATUS_OVERFLOW);
; 555  :         }
; 556  :     }
; 557  :     else
; 558  :     {
; 559  :         // x が 0 ではない場合
; 560  : 
; 561  :         if (y == 0)

	test	rdi, rdi
	jne	SHORT $LN10@PMC_Subtru

; 562  :         {
; 563  :             // y が 0 である場合
; 564  : 
; 565  :             // 演算結果となる x の値を持つ NUMBER_HEADER 構造体を獲得し、呼び出し元へ返す。
; 566  :             if ((result = DuplicateNumber(nx, &nz)) != PMC_STATUS_OK)

	lea	rdx, QWORD PTR nz$[rsp]
	mov	rcx, rbx
	call	DuplicateNumber
	test	eax, eax
	jne	$LN1@PMC_Subtru
	mov	rax, QWORD PTR nz$[rsp]

; 651  :                 nz = &number_zero;
; 652  :             }
; 653  :         }
; 654  :         *o = nz;
; 655  :     }
; 656  : #ifdef _DEBUG
; 657  :     if ((result = CheckNumber(*o)) != PMC_STATUS_OK)
; 658  :         return (result);
; 659  : #endif
; 660  :     return (PMC_STATUS_OK);

	mov	QWORD PTR [rsi], rax
	xor	eax, eax

; 661  : }

	mov	rbx, QWORD PTR [rsp+72]
	mov	rsi, QWORD PTR [rsp+80]
	add	rsp, 48					; 00000030H
	pop	rdi
	ret	0
$LN10@PMC_Subtru:

; 567  :                 return (result);
; 568  :         }
; 569  :         else
; 570  :         {
; 571  :             // x と y がともに 0 ではない場合
; 572  : 
; 573  :             // x と y の差を計算する
; 574  :             if (__UNIT_TYPE_BIT_COUNT < sizeof(y) * 8)
; 575  :             {
; 576  :                 // _UINT64_T が 1 ワードで表現しきれない場合
; 577  : 
; 578  :                 __UNIT_TYPE x_bit_count = nx->UNIT_BIT_COUNT;
; 579  :                 _UINT32_T y_hi;
; 580  :                 _UINT32_T y_lo = _FROMDWORDTOWORD(y, &y_hi);
; 581  :                 if (y_hi == 0)
; 582  :                 {
; 583  :                     // y の値が 32bit で表現可能な場合
; 584  :                     __UNIT_TYPE y_bit_count = sizeof(y_lo) * 8 - _LZCNT_ALT_32(y_lo);
; 585  :                     if (x_bit_count < y_bit_count)
; 586  :                     {
; 587  :                         // 演算結果は負となってしまうのでエラーを返す。
; 588  :                         return (PMC_STATUS_OVERFLOW);
; 589  :                     }
; 590  :                     __UNIT_TYPE z_bit_count = x_bit_count;
; 591  :                     __UNIT_TYPE nz_light_check_code;
; 592  :                     if ((result = AllocateNumber(&nz, z_bit_count, &nz_light_check_code)) != PMC_STATUS_OK)
; 593  :                         return (result);
; 594  :                     if ((result = Subtruct_X_1W(nx->BLOCK, nx->UNIT_WORD_COUNT, y_lo, nz->BLOCK, nz->BLOCK_COUNT)) != PMC_STATUS_OK)
; 595  :                     {
; 596  :                         DeallocateNumber(nz);
; 597  :                         return (result == PMC_STATUS_INTERNAL_BORROW ? PMC_STATUS_OVERFLOW : result);
; 598  :                     }
; 599  :                     if ((result = CheckBlockLight(nz->BLOCK, nz_light_check_code)) != PMC_STATUS_OK)
; 600  :                         return (result);
; 601  :                 }
; 602  :                 else
; 603  :                 {
; 604  :                     // y の値が 32bit では表現できない場合
; 605  :                     __UNIT_TYPE y_bit_count = sizeof(y) * 8 - _LZCNT_ALT_32(y_hi);
; 606  :                     if (x_bit_count < y_bit_count)
; 607  :                     {
; 608  :                         // 演算結果は負となってしまうのでエラーを返す。
; 609  :                         return (PMC_STATUS_OVERFLOW);
; 610  :                     }
; 611  :                     __UNIT_TYPE z_bit_count = x_bit_count;
; 612  :                     __UNIT_TYPE nz_light_check_code;
; 613  :                     if ((result = AllocateNumber(&nz, z_bit_count, &nz_light_check_code)) != PMC_STATUS_OK)
; 614  :                         return (result);
; 615  :                     if ((result = Subtruct_X_2W(nx->BLOCK, nx->UNIT_WORD_COUNT, y_hi, y_lo, nz->BLOCK, nz->BLOCK_COUNT)) != PMC_STATUS_OK)
; 616  :                     {
; 617  :                         DeallocateNumber(nz);
; 618  :                         return (result == PMC_STATUS_INTERNAL_BORROW ? PMC_STATUS_OVERFLOW : result);
; 619  :                     }
; 620  :                     if ((result = CheckBlockLight(nz->BLOCK, nz_light_check_code)) != PMC_STATUS_OK)
; 621  :                         return (result);
; 622  :                 }
; 623  :             }
; 624  :             else
; 625  :             {
; 626  :                 // _UINT64_T が 1 ワードで表現できる場合
; 627  : 
; 628  :                 __UNIT_TYPE x_bit_count = nx->UNIT_BIT_COUNT;

	mov	rdx, QWORD PTR [rbx+16]
; File z:\sources\lunor\repos\rougemeilland\palmtree.math.core.implements\palmtree.math.core.implements\pmc_internal.h

; 940  :     return (sizeof(x) * 8 - 1 - pos);

	mov	ecx, 63					; 0000003fH
	bsr	rax, rdi
	sub	ecx, eax
; File z:\sources\lunor\repos\rougemeilland\palmtree.math.core.implements\palmtree.math.core.implements\pmc_subtruct.c

; 629  :                 __UNIT_TYPE y_bit_count = sizeof(y) * 8 - _LZCNT_ALT_UNIT((__UNIT_TYPE)y);

	movsxd	rax, ecx
	mov	ecx, 64					; 00000040H
	sub	rcx, rax

; 630  :                 if (x_bit_count < y_bit_count)

	cmp	rdx, rcx
	jae	SHORT $LN25@PMC_Subtru
$LN64@PMC_Subtru:

; 631  :                 {
; 632  :                     // 演算結果は負となってしまうのでエラーを返す。
; 633  :                     return (PMC_STATUS_OVERFLOW);

	mov	eax, -2

; 661  : }

	mov	rbx, QWORD PTR [rsp+72]
	mov	rsi, QWORD PTR [rsp+80]
	add	rsp, 48					; 00000030H
	pop	rdi
	ret	0
$LN25@PMC_Subtru:

; 634  :                 }
; 635  :                 __UNIT_TYPE z_bit_count = x_bit_count;
; 636  :                 __UNIT_TYPE nz_light_check_code;
; 637  :                 if ((result = AllocateNumber(&nz, z_bit_count, &nz_light_check_code)) != PMC_STATUS_OK)

	lea	r8, QWORD PTR nz_light_check_code$1[rsp]
	lea	rcx, QWORD PTR nz$[rsp]
	call	AllocateNumber
	test	eax, eax
	jne	$LN1@PMC_Subtru

; 638  :                     return (result);
; 639  :                 if ((result = Subtruct_X_1W(nx->BLOCK, nx->UNIT_WORD_COUNT, (__UNIT_TYPE)y, nz->BLOCK, nz->BLOCK_COUNT)) != PMC_STATUS_OK)

	mov	r9, QWORD PTR nz$[rsp]
	mov	r8, rdi
	mov	rdx, QWORD PTR [rbx+8]
	mov	rcx, QWORD PTR [rbx+56]
	mov	rax, QWORD PTR [r9+48]
	mov	r9, QWORD PTR [r9+56]
	mov	QWORD PTR [rsp+32], rax
	call	Subtruct_X_1W
	mov	rcx, QWORD PTR nz$[rsp]
	mov	ebx, eax
	test	eax, eax
	je	SHORT $LN27@PMC_Subtru

; 640  :                 {
; 641  :                     DeallocateNumber(nz);

	call	DeallocateNumber

; 642  :                     return (result == PMC_STATUS_INTERNAL_BORROW ? PMC_STATUS_OVERFLOW : result);

	mov	eax, -2
	cmp	ebx, -258				; fffffffffffffefeH
	cmove	ebx, eax
	mov	eax, ebx

; 661  : }

	mov	rbx, QWORD PTR [rsp+72]
	mov	rsi, QWORD PTR [rsp+80]
	add	rsp, 48					; 00000030H
	pop	rdi
	ret	0
$LN27@PMC_Subtru:

; 643  :                 }
; 644  :                 if ((result = CheckBlockLight(nz->BLOCK, nz_light_check_code)) != PMC_STATUS_OK)

	mov	rdx, QWORD PTR nz_light_check_code$1[rsp]
	mov	rcx, QWORD PTR [rcx+56]
	call	CheckBlockLight
	test	eax, eax
	jne	SHORT $LN1@PMC_Subtru

; 645  :                     return (result);
; 646  :             }
; 647  :             CommitNumber(nz);

	mov	rcx, QWORD PTR nz$[rsp]
	call	CommitNumber

; 648  :             if (nz->IS_ZERO)

	mov	rax, QWORD PTR nz$[rsp]
	test	BYTE PTR [rax+40], 2
	je	SHORT $LN29@PMC_Subtru

; 649  :             {
; 650  :                 DeallocateNumber(nz);

	mov	rcx, rax
	call	DeallocateNumber

; 651  :                 nz = &number_zero;
; 652  :             }
; 653  :         }
; 654  :         *o = nz;
; 655  :     }
; 656  : #ifdef _DEBUG
; 657  :     if ((result = CheckNumber(*o)) != PMC_STATUS_OK)
; 658  :         return (result);
; 659  : #endif
; 660  :     return (PMC_STATUS_OK);

	lea	rax, OFFSET FLAT:number_zero
$LN29@PMC_Subtru:
	mov	QWORD PTR [rsi], rax
	xor	eax, eax

; 661  : }

	mov	rbx, QWORD PTR [rsp+72]
	mov	rsi, QWORD PTR [rsp+80]
	add	rsp, 48					; 00000030H
	pop	rdi
	ret	0
$LN65@PMC_Subtru:

; 532  :         return (PMC_STATUS_ARGUMENT_ERROR);

	mov	eax, -1
$LN1@PMC_Subtru:

; 661  : }

	mov	rbx, QWORD PTR [rsp+72]
	mov	rsi, QWORD PTR [rsp+80]
	add	rsp, 48					; 00000030H
	pop	rdi
	ret	0
PMC_Subtruct_X_L ENDP
_TEXT	ENDS
; Function compile flags: /Ogtpy
; File z:\sources\lunor\repos\rougemeilland\palmtree.math.core.implements\palmtree.math.core.implements\pmc_subtruct.c
; File z:\sources\lunor\repos\rougemeilland\palmtree.math.core.implements\palmtree.math.core.implements\pmc_internal.h
; File z:\sources\lunor\repos\rougemeilland\palmtree.math.core.implements\palmtree.math.core.implements\pmc_subtruct.c
;	COMDAT PMC_Subtruct_X_I
_TEXT	SEGMENT
nw$ = 64
u$ = 64
v$ = 72
w$ = 80
w_light_check_code$1 = 88
PMC_Subtruct_X_I PROC					; COMDAT

; 268  : {

$LN27:
	mov	QWORD PTR [rsp+16], rbx
	mov	QWORD PTR [rsp+24], rsi
	push	rdi
	sub	rsp, 48					; 00000030H
	mov	edi, edx
	mov	rsi, r8
	mov	rbx, rcx

; 269  :     if (__UNIT_TYPE_BIT_COUNT < sizeof(v) * 8)
; 270  :     {
; 271  :         // _UINT32_T が 1 ワードで表現しきれない処理系には対応しない
; 272  :         return (PMC_STATUS_INTERNAL_ERROR);
; 273  :     }
; 274  :     if (u == NULL)

	test	rcx, rcx
	je	$LN23@PMC_Subtru

; 275  :         return (PMC_STATUS_ARGUMENT_ERROR);
; 276  :     if (w == NULL)

	test	r8, r8
	je	$LN23@PMC_Subtru

; 278  :     NUMBER_HEADER* nu = (NUMBER_HEADER*)u;
; 279  :     PMC_STATUS_CODE result;
; 280  :     if ((result = CheckNumber(nu)) != PMC_STATUS_OK)

	call	CheckNumber
	test	eax, eax
	jne	$LN1@PMC_Subtru

; 281  :         return (result);
; 282  :     NUMBER_HEADER* nw;
; 283  :     if (nu->IS_ZERO)

	test	BYTE PTR [rbx+40], 2
	je	SHORT $LN6@PMC_Subtru

; 284  :     {
; 285  :         // u が 0 である場合
; 286  : 
; 287  :         if (v == 0)

	test	edi, edi
	jne	SHORT $LN22@PMC_Subtru

; 341  :                 nw = &number_zero;
; 342  :             }
; 343  :         }
; 344  :         *w = nw;
; 345  :     }
; 346  : #ifdef _DEBUG
; 347  :     if ((result = CheckNumber(*w)) != PMC_STATUS_OK)
; 348  :         return (result);
; 349  : #endif
; 350  :     return (PMC_STATUS_OK);

	lea	rax, OFFSET FLAT:number_zero
	mov	QWORD PTR [rsi], rax
	xor	eax, eax

; 351  : }

	mov	rbx, QWORD PTR [rsp+72]
	mov	rsi, QWORD PTR [rsp+80]
	add	rsp, 48					; 00000030H
	pop	rdi
	ret	0
$LN6@PMC_Subtru:

; 288  :         {
; 289  :             // v が 0 である場合
; 290  : 
; 291  :             // u と v がともに 0 であるので、演算結果の 0 を呼び出し元に返す。
; 292  :             *w = &number_zero;
; 293  :         }
; 294  :         else
; 295  :         {
; 296  :             // v が 0 ではない場合
; 297  : 
; 298  :             // 演算結果は負となってしまうのでエラーを返す。
; 299  :             return (PMC_STATUS_OVERFLOW);
; 300  :         }
; 301  :     }
; 302  :     else
; 303  :     {
; 304  :         // u が 0 ではない場合
; 305  : 
; 306  :         if (v == 0)

	test	edi, edi
	jne	SHORT $LN10@PMC_Subtru

; 307  :         {
; 308  :             // v が 0 である場合
; 309  : 
; 310  :             // 演算結果となる x の値を持つ NUMBER_HEADER 構造体を獲得し、呼び出し元へ返す。
; 311  :             if ((result = DuplicateNumber(nu, &nw)) != PMC_STATUS_OK)

	lea	rdx, QWORD PTR nw$[rsp]
	mov	rcx, rbx
	call	DuplicateNumber
	test	eax, eax
	jne	$LN1@PMC_Subtru
	mov	rax, QWORD PTR nw$[rsp]

; 341  :                 nw = &number_zero;
; 342  :             }
; 343  :         }
; 344  :         *w = nw;
; 345  :     }
; 346  : #ifdef _DEBUG
; 347  :     if ((result = CheckNumber(*w)) != PMC_STATUS_OK)
; 348  :         return (result);
; 349  : #endif
; 350  :     return (PMC_STATUS_OK);

	mov	QWORD PTR [rsi], rax
	xor	eax, eax

; 351  : }

	mov	rbx, QWORD PTR [rsp+72]
	mov	rsi, QWORD PTR [rsp+80]
	add	rsp, 48					; 00000030H
	pop	rdi
	ret	0
$LN10@PMC_Subtru:

; 312  :                 return (result);
; 313  :         }
; 314  :         else
; 315  :         {
; 316  :             // u と v がともに 0 ではない場合
; 317  : 
; 318  :             // u と v の差を計算する
; 319  :             __UNIT_TYPE u_bit_count = nu->UNIT_BIT_COUNT;

	mov	rdx, QWORD PTR [rbx+16]
; File z:\sources\lunor\repos\rougemeilland\palmtree.math.core.implements\palmtree.math.core.implements\pmc_internal.h

; 893  :     return (sizeof(x) * 8 - 1 - pos);

	mov	ecx, 31
	bsr	eax, edi
	sub	ecx, eax
; File z:\sources\lunor\repos\rougemeilland\palmtree.math.core.implements\palmtree.math.core.implements\pmc_subtruct.c

; 320  :             __UNIT_TYPE v_bit_count = sizeof(v) * 8 - _LZCNT_ALT_32(v);

	movsxd	rax, ecx
	mov	ecx, 32					; 00000020H
	sub	rcx, rax

; 321  :             if (u_bit_count < v_bit_count)

	cmp	rdx, rcx
	jae	SHORT $LN13@PMC_Subtru
$LN22@PMC_Subtru:

; 322  :             {
; 323  :                 // 演算結果は負となってしまうのでエラーを返す。
; 324  :                 return (PMC_STATUS_OVERFLOW);

	mov	eax, -2

; 351  : }

	mov	rbx, QWORD PTR [rsp+72]
	mov	rsi, QWORD PTR [rsp+80]
	add	rsp, 48					; 00000030H
	pop	rdi
	ret	0
$LN13@PMC_Subtru:

; 325  :             }
; 326  :             __UNIT_TYPE w_bit_count = u_bit_count;
; 327  :             __UNIT_TYPE w_light_check_code;
; 328  :             if ((result = AllocateNumber(&nw, w_bit_count, &w_light_check_code)) != PMC_STATUS_OK)

	lea	r8, QWORD PTR w_light_check_code$1[rsp]
	lea	rcx, QWORD PTR nw$[rsp]
	call	AllocateNumber
	test	eax, eax
	jne	$LN1@PMC_Subtru

; 329  :                 return (result);
; 330  :             if ((result = Subtruct_X_1W(nu->BLOCK, nu->UNIT_WORD_COUNT, v, nw->BLOCK, nw->BLOCK_COUNT)) != PMC_STATUS_OK)

	mov	r9, QWORD PTR nw$[rsp]
	mov	r8, rdi
	mov	rdx, QWORD PTR [rbx+8]
	mov	rcx, QWORD PTR [rbx+56]
	mov	rax, QWORD PTR [r9+48]
	mov	r9, QWORD PTR [r9+56]
	mov	QWORD PTR [rsp+32], rax
	call	Subtruct_X_1W
	mov	rcx, QWORD PTR nw$[rsp]
	mov	ebx, eax
	test	eax, eax
	je	SHORT $LN15@PMC_Subtru

; 331  :             {
; 332  :                 DeallocateNumber(nw);

	call	DeallocateNumber

; 333  :                 return (result == PMC_STATUS_INTERNAL_BORROW ? PMC_STATUS_OVERFLOW : result);

	mov	eax, -2
	cmp	ebx, -258				; fffffffffffffefeH
	cmove	ebx, eax
	mov	eax, ebx

; 351  : }

	mov	rbx, QWORD PTR [rsp+72]
	mov	rsi, QWORD PTR [rsp+80]
	add	rsp, 48					; 00000030H
	pop	rdi
	ret	0
$LN15@PMC_Subtru:

; 334  :             }
; 335  :             if ((result = CheckBlockLight(nw->BLOCK, w_light_check_code)) != PMC_STATUS_OK)

	mov	rdx, QWORD PTR w_light_check_code$1[rsp]
	mov	rcx, QWORD PTR [rcx+56]
	call	CheckBlockLight
	test	eax, eax
	jne	SHORT $LN1@PMC_Subtru

; 336  :                 return (result);
; 337  :             CommitNumber(nw);

	mov	rcx, QWORD PTR nw$[rsp]
	call	CommitNumber

; 338  :             if (nw->IS_ZERO)

	mov	rax, QWORD PTR nw$[rsp]
	test	BYTE PTR [rax+40], 2
	je	SHORT $LN17@PMC_Subtru

; 339  :             {
; 340  :                 DeallocateNumber(nw);

	mov	rcx, rax
	call	DeallocateNumber

; 341  :                 nw = &number_zero;
; 342  :             }
; 343  :         }
; 344  :         *w = nw;
; 345  :     }
; 346  : #ifdef _DEBUG
; 347  :     if ((result = CheckNumber(*w)) != PMC_STATUS_OK)
; 348  :         return (result);
; 349  : #endif
; 350  :     return (PMC_STATUS_OK);

	lea	rax, OFFSET FLAT:number_zero
$LN17@PMC_Subtru:
	mov	QWORD PTR [rsi], rax
	xor	eax, eax

; 351  : }

	mov	rbx, QWORD PTR [rsp+72]
	mov	rsi, QWORD PTR [rsp+80]
	add	rsp, 48					; 00000030H
	pop	rdi
	ret	0
$LN23@PMC_Subtru:

; 277  :         return (PMC_STATUS_ARGUMENT_ERROR);

	mov	eax, -1
$LN1@PMC_Subtru:

; 351  : }

	mov	rbx, QWORD PTR [rsp+72]
	mov	rsi, QWORD PTR [rsp+80]
	add	rsp, 48					; 00000030H
	pop	rdi
	ret	0
PMC_Subtruct_X_I ENDP
_TEXT	ENDS
; Function compile flags: /Ogtpy
; File z:\sources\lunor\repos\rougemeilland\palmtree.math.core.implements\palmtree.math.core.implements\pmc_subtruct.c
; File z:\sources\lunor\repos\rougemeilland\palmtree.math.core.implements\palmtree.math.core.implements\pmc_internal.h
; File z:\sources\lunor\repos\rougemeilland\palmtree.math.core.implements\palmtree.math.core.implements\pmc_subtruct.c
; File z:\sources\lunor\repos\rougemeilland\palmtree.math.core.implements\palmtree.math.core.implements\pmc_internal.h
; File z:\sources\lunor\repos\rougemeilland\palmtree.math.core.implements\palmtree.math.core.implements\pmc_subtruct.c
;	COMDAT PMC_Subtruct_L_X
_TEXT	SEGMENT
u$ = 48
v$ = 56
w$ = 64
PMC_Subtruct_L_X PROC					; COMDAT

; 354  : {

$LN58:
	mov	QWORD PTR [rsp+8], rbx
	mov	QWORD PTR [rsp+16], rsi
	push	rdi
	sub	rsp, 32					; 00000020H
	mov	rdi, r8
	mov	rsi, rdx
	mov	rbx, rcx

; 355  :     if (__UNIT_TYPE_BIT_COUNT * 2 < sizeof(u) * 8)
; 356  :     {
; 357  :         // _UINT64_T が 2 ワードで表現しきれない処理系には対応しない
; 358  :         return (PMC_STATUS_INTERNAL_ERROR);
; 359  :     }
; 360  :     if (v == NULL)

	test	rdx, rdx
	je	$LN55@PMC_Subtru

; 361  :         return (PMC_STATUS_ARGUMENT_ERROR);
; 362  :     if (w == NULL)

	test	r8, r8
	je	$LN55@PMC_Subtru

; 364  :     NUMBER_HEADER* nv = (NUMBER_HEADER*)v;
; 365  :     PMC_STATUS_CODE result;
; 366  :     if ((result = CheckNumber(nv)) != PMC_STATUS_OK)

	mov	rcx, rdx
	call	CheckNumber
	test	eax, eax
	jne	$LN1@PMC_Subtru

; 367  :         return (result);
; 368  :     if (u == 0)

	mov	eax, DWORD PTR [rsi+40]
	and	eax, 2
	test	rbx, rbx
	jne	SHORT $LN6@PMC_Subtru

; 369  :     {
; 370  :         // u が 0 である場合
; 371  : 
; 372  :         if (nv->IS_ZERO)

	test	eax, eax
	je	SHORT $LN54@PMC_Subtru

; 373  :         {
; 374  :             // v が 0 である場合
; 375  : 
; 376  :             // x と y がともに 0 であるので、演算結果の 0 を呼び出し元に返す。
; 377  :             *w = 0;

	mov	QWORD PTR [rdi], rbx

; 510  :                     }
; 511  :                     else
; 512  :                     {
; 513  :                         *w = temp_w;
; 514  :                     }
; 515  :                 }
; 516  :             }
; 517  :         }
; 518  :     }
; 519  :     return (PMC_STATUS_OK);

	xor	eax, eax

; 520  : }

	mov	rbx, QWORD PTR [rsp+48]
	mov	rsi, QWORD PTR [rsp+56]
	add	rsp, 32					; 00000020H
	pop	rdi
	ret	0
$LN6@PMC_Subtru:

; 378  :         }
; 379  :         else
; 380  :         {
; 381  :             // v が 0 ではない場合
; 382  : 
; 383  :             // 演算結果は負となってしまうのでエラーを返す。
; 384  :             return (PMC_STATUS_OVERFLOW);
; 385  :         }
; 386  :     }
; 387  :     else
; 388  :     {
; 389  :         // u が 0 ではない場合
; 390  : 
; 391  :         if (nv->IS_ZERO)

	test	eax, eax
	jne	SHORT $LN56@PMC_Subtru
; File z:\sources\lunor\repos\rougemeilland\palmtree.math.core.implements\palmtree.math.core.implements\pmc_internal.h

; 930  :     _BitScanReverse64(&pos, x);

	bsr	rax, rbx

; 931  : #elif defined(__GNUC__)
; 932  :     _UINT64_T pos;
; 933  :     __asm__("bsrq %1, %0" : "=r"(pos) : "rm"(x));
; 934  : #else
; 935  : #error unknown compiler
; 936  : #endif
; 937  : #else
; 938  : #error unknown platform
; 939  : #endif
; 940  :     return (sizeof(x) * 8 - 1 - pos);

	mov	ecx, 63					; 0000003fH
	sub	ecx, eax
; File z:\sources\lunor\repos\rougemeilland\palmtree.math.core.implements\palmtree.math.core.implements\pmc_subtruct.c

; 489  :                 __UNIT_TYPE u_bit_count = sizeof(u) * 8 - _LZCNT_ALT_UNIT((__UNIT_TYPE)u);

	movsxd	rax, ecx
	mov	ecx, 64					; 00000040H
	sub	rcx, rax

; 490  :                 __UNIT_TYPE v_bit_count = nv->UNIT_BIT_COUNT;
; 491  :                 if (u_bit_count < v_bit_count)

	cmp	rcx, QWORD PTR [rsi+16]
	jb	SHORT $LN54@PMC_Subtru

; 492  :                 {
; 493  :                     // 明らかに u < v である場合
; 494  : 
; 495  :                     // 演算結果は負となってしまうのでエラーを返す。
; 496  :                     return (PMC_STATUS_OVERFLOW);
; 497  :                 }
; 498  :                 else
; 499  :                 {
; 500  :                     // u のビット長が v のビット長以上である場合
; 501  : 
; 502  :                     // u が 64bit 整数で表現できるので v も 64bit 整数で表現できる
; 503  : 
; 504  :                     __UNIT_TYPE temp_w;
; 505  :                     char borrow = _SUBTRUCT_UNIT(0, (__UNIT_TYPE)u, nv->BLOCK[0], &temp_w);

	mov	rax, QWORD PTR [rsi+56]
; File z:\sources\lunor\repos\rougemeilland\palmtree.math.core.implements\palmtree.math.core.implements\pmc_internal.h

; 559  :     return (_subborrow_u64(borrow, u, v, w));

	sub	rbx, QWORD PTR [rax]
	setb	al
; File z:\sources\lunor\repos\rougemeilland\palmtree.math.core.implements\palmtree.math.core.implements\pmc_subtruct.c

; 506  :                     if (borrow)

	test	al, al
	jne	SHORT $LN54@PMC_Subtru
$LN56@PMC_Subtru:

; 510  :                     }
; 511  :                     else
; 512  :                     {
; 513  :                         *w = temp_w;
; 514  :                     }
; 515  :                 }
; 516  :             }
; 517  :         }
; 518  :     }
; 519  :     return (PMC_STATUS_OK);

	mov	QWORD PTR [rdi], rbx
	xor	eax, eax

; 520  : }

	mov	rbx, QWORD PTR [rsp+48]
	mov	rsi, QWORD PTR [rsp+56]
	add	rsp, 32					; 00000020H
	pop	rdi
	ret	0
$LN54@PMC_Subtru:

; 507  :                     {
; 508  :                         // ボローが発生した場合は演算結果が負なのでエラーとする
; 509  :                         return (PMC_STATUS_OVERFLOW);

	mov	eax, -2

; 520  : }

	mov	rbx, QWORD PTR [rsp+48]
	mov	rsi, QWORD PTR [rsp+56]
	add	rsp, 32					; 00000020H
	pop	rdi
	ret	0
$LN55@PMC_Subtru:

; 363  :         return (PMC_STATUS_ARGUMENT_ERROR);

	mov	eax, -1
$LN1@PMC_Subtru:

; 520  : }

	mov	rbx, QWORD PTR [rsp+48]
	mov	rsi, QWORD PTR [rsp+56]
	add	rsp, 32					; 00000020H
	pop	rdi
	ret	0
PMC_Subtruct_L_X ENDP
_TEXT	ENDS
; Function compile flags: /Ogtpy
; File z:\sources\lunor\repos\rougemeilland\palmtree.math.core.implements\palmtree.math.core.implements\pmc_subtruct.c
; File z:\sources\lunor\repos\rougemeilland\palmtree.math.core.implements\palmtree.math.core.implements\pmc_internal.h
; File z:\sources\lunor\repos\rougemeilland\palmtree.math.core.implements\palmtree.math.core.implements\pmc_subtruct.c
; File z:\sources\lunor\repos\rougemeilland\palmtree.math.core.implements\palmtree.math.core.implements\pmc_internal.h
; File z:\sources\lunor\repos\rougemeilland\palmtree.math.core.implements\palmtree.math.core.implements\pmc_subtruct.c
;	COMDAT PMC_Subtruct_I_X
_TEXT	SEGMENT
u$ = 48
v$ = 56
w$ = 64
PMC_Subtruct_I_X PROC					; COMDAT

; 188  : {

$LN25:
	mov	QWORD PTR [rsp+8], rbx
	mov	QWORD PTR [rsp+16], rsi
	push	rdi
	sub	rsp, 32					; 00000020H
	mov	esi, ecx
	mov	rbx, r8
	mov	rdi, rdx

; 189  :     if (__UNIT_TYPE_BIT_COUNT < sizeof(u) * 8)
; 190  :     {
; 191  :         // _UINT32_T が 1 ワードで表現しきれない処理系には対応しない
; 192  :         return (PMC_STATUS_INTERNAL_ERROR);
; 193  :     }
; 194  :     if (v == NULL)

	test	rdx, rdx
	je	$LN23@PMC_Subtru

; 195  :         return (PMC_STATUS_ARGUMENT_ERROR);
; 196  :     if (w == NULL)

	test	rbx, rbx
	je	$LN23@PMC_Subtru

; 198  :     NUMBER_HEADER* nv = (NUMBER_HEADER*)v;
; 199  :     PMC_STATUS_CODE result;
; 200  :     if ((result = CheckNumber(nv)) != PMC_STATUS_OK)

	mov	rcx, rdx
	call	CheckNumber
	test	eax, eax
	jne	$LN1@PMC_Subtru

; 201  :         return (result);
; 202  :     if (u == 0)

	mov	eax, DWORD PTR [rdi+40]
	and	eax, 2
	test	esi, esi
	jne	SHORT $LN6@PMC_Subtru

; 203  :     {
; 204  :         // u が 0 である場合
; 205  : 
; 206  :         if (nv->IS_ZERO)

	test	eax, eax
	je	SHORT $LN22@PMC_Subtru

; 207  :         {
; 208  :             // v が 0 である場合
; 209  : 
; 210  :             // u と v がともに 0 であるので、演算結果の 0 を呼び出し元に返す。
; 211  :             *w = 0;

	mov	DWORD PTR [rbx], esi

; 260  :                 }
; 261  :             }
; 262  :         }
; 263  :     }
; 264  :     return (PMC_STATUS_OK);

	xor	eax, eax

; 265  : }

	mov	rbx, QWORD PTR [rsp+48]
	mov	rsi, QWORD PTR [rsp+56]
	add	rsp, 32					; 00000020H
	pop	rdi
	ret	0
$LN6@PMC_Subtru:

; 212  :         }
; 213  :         else
; 214  :         {
; 215  :             // v が 0 ではない場合
; 216  : 
; 217  :             // 演算結果は負となってしまうのでエラーを返す。
; 218  :             return (PMC_STATUS_OVERFLOW);
; 219  :         }
; 220  :     }
; 221  :     else
; 222  :     {
; 223  :         // u が 0 ではない場合
; 224  : 
; 225  :         if (nv->IS_ZERO)

	test	eax, eax
	je	SHORT $LN10@PMC_Subtru

; 226  :         {
; 227  :             // v が 0 である場合
; 228  : 
; 229  :             // 演算結果となる u の値を持つ NUMBER_HEADER 構造体を獲得し、呼び出し元へ返す。
; 230  :             *w = u;

	mov	DWORD PTR [rbx], esi

; 260  :                 }
; 261  :             }
; 262  :         }
; 263  :     }
; 264  :     return (PMC_STATUS_OK);

	xor	eax, eax

; 265  : }

	mov	rbx, QWORD PTR [rsp+48]
	mov	rsi, QWORD PTR [rsp+56]
	add	rsp, 32					; 00000020H
	pop	rdi
	ret	0
$LN10@PMC_Subtru:
; File z:\sources\lunor\repos\rougemeilland\palmtree.math.core.implements\palmtree.math.core.implements\pmc_internal.h

; 887  :     _BitScanReverse(&pos, x);

	bsr	eax, esi

; 888  : #elif defined(__GNUC__)
; 889  :     __asm__( "bsrl %1, %0" : "=r"(pos) : "rm"(x) );
; 890  : #else
; 891  : #error unknown compiler
; 892  : #endif
; 893  :     return (sizeof(x) * 8 - 1 - pos);

	mov	ecx, 31
	sub	ecx, eax
; File z:\sources\lunor\repos\rougemeilland\palmtree.math.core.implements\palmtree.math.core.implements\pmc_subtruct.c

; 237  :             __UNIT_TYPE u_bit_count = sizeof(u) * 8 - _LZCNT_ALT_32(u);

	movsxd	rax, ecx
	mov	ecx, 32					; 00000020H
	sub	rcx, rax

; 238  :             __UNIT_TYPE v_bit_count = nv->UNIT_BIT_COUNT;
; 239  :             if (u_bit_count < v_bit_count)

	cmp	rcx, QWORD PTR [rdi+16]
	jb	SHORT $LN22@PMC_Subtru

; 240  :             {
; 241  :                 // 明らかに u < v である場合
; 242  :                 // 演算結果は負となってしまうのでエラーを返す。
; 243  :                 return (PMC_STATUS_OVERFLOW);
; 244  :             }
; 245  :             else
; 246  :             {
; 247  :                 // u のビット長が v のビット長以上である場合
; 248  : 
; 249  :                 // u が 32bit 整数なので、v も32bit 整数で表現できる
; 250  :                 __UNIT_TYPE temp_w;
; 251  :                 char borrow = _SUBTRUCT_UNIT(0, u, nv->BLOCK[0], &temp_w);

	mov	rax, QWORD PTR [rdi+56]
	mov	rcx, rsi
; File z:\sources\lunor\repos\rougemeilland\palmtree.math.core.implements\palmtree.math.core.implements\pmc_internal.h

; 559  :     return (_subborrow_u64(borrow, u, v, w));

	sub	rcx, QWORD PTR [rax]
	setb	al
; File z:\sources\lunor\repos\rougemeilland\palmtree.math.core.implements\palmtree.math.core.implements\pmc_subtruct.c

; 252  :                 if (borrow)

	test	al, al
	jne	SHORT $LN22@PMC_Subtru

; 256  :                 }
; 257  :                 else
; 258  :                 {
; 259  :                     *w = (_UINT32_T)temp_w;

	mov	DWORD PTR [rbx], ecx

; 260  :                 }
; 261  :             }
; 262  :         }
; 263  :     }
; 264  :     return (PMC_STATUS_OK);

	xor	eax, eax

; 265  : }

	mov	rbx, QWORD PTR [rsp+48]
	mov	rsi, QWORD PTR [rsp+56]
	add	rsp, 32					; 00000020H
	pop	rdi
	ret	0
$LN22@PMC_Subtru:

; 253  :                 {
; 254  :                     // ボローが発生した場合は演算結果が負なのでエラーとする
; 255  :                     return (PMC_STATUS_OVERFLOW);

	mov	eax, -2

; 265  : }

	mov	rbx, QWORD PTR [rsp+48]
	mov	rsi, QWORD PTR [rsp+56]
	add	rsp, 32					; 00000020H
	pop	rdi
	ret	0
$LN23@PMC_Subtru:

; 197  :         return (PMC_STATUS_ARGUMENT_ERROR);

	mov	eax, -1
$LN1@PMC_Subtru:

; 265  : }

	mov	rbx, QWORD PTR [rsp+48]
	mov	rsi, QWORD PTR [rsp+56]
	add	rsp, 32					; 00000020H
	pop	rdi
	ret	0
PMC_Subtruct_I_X ENDP
_TEXT	ENDS
; Function compile flags: /Ogtpy
; File z:\sources\lunor\repos\rougemeilland\palmtree.math.core.implements\palmtree.math.core.implements\pmc_subtruct.c
;	COMDAT Initialize_Subtruct
_TEXT	SEGMENT
feature$ = 8
Initialize_Subtruct PROC				; COMDAT

; 744  :     return (PMC_STATUS_OK);

	xor	eax, eax

; 745  : }

	ret	0
Initialize_Subtruct ENDP
_TEXT	ENDS
; Function compile flags: /Ogtpy
; File z:\sources\lunor\repos\rougemeilland\palmtree.math.core.implements\palmtree.math.core.implements\pmc_subtruct.c
; File z:\sources\lunor\repos\rougemeilland\palmtree.math.core.implements\palmtree.math.core.implements\autogenerated_inline_func.h
; File z:\sources\lunor\repos\rougemeilland\palmtree.math.core.implements\palmtree.math.core.implements\pmc_internal.h
; File z:\sources\lunor\repos\rougemeilland\palmtree.math.core.implements\palmtree.math.core.implements\autogenerated_inline_func.h
; File z:\sources\lunor\repos\rougemeilland\palmtree.math.core.implements\palmtree.math.core.implements\pmc_internal.h
; File z:\sources\lunor\repos\rougemeilland\palmtree.math.core.implements\palmtree.math.core.implements\autogenerated_inline_func.h
; File z:\sources\lunor\repos\rougemeilland\palmtree.math.core.implements\palmtree.math.core.implements\pmc_internal.h
; File z:\sources\lunor\repos\rougemeilland\palmtree.math.core.implements\palmtree.math.core.implements\autogenerated_inline_func.h
; File z:\sources\lunor\repos\rougemeilland\palmtree.math.core.implements\palmtree.math.core.implements\pmc_internal.h
; File z:\sources\lunor\repos\rougemeilland\palmtree.math.core.implements\palmtree.math.core.implements\autogenerated_inline_func.h
; File z:\sources\lunor\repos\rougemeilland\palmtree.math.core.implements\palmtree.math.core.implements\pmc_internal.h
; File z:\sources\lunor\repos\rougemeilland\palmtree.math.core.implements\palmtree.math.core.implements\autogenerated_inline_func.h
; File z:\sources\lunor\repos\rougemeilland\palmtree.math.core.implements\palmtree.math.core.implements\pmc_internal.h
; File z:\sources\lunor\repos\rougemeilland\palmtree.math.core.implements\palmtree.math.core.implements\autogenerated_inline_func.h
; File z:\sources\lunor\repos\rougemeilland\palmtree.math.core.implements\palmtree.math.core.implements\pmc_internal.h
; File z:\sources\lunor\repos\rougemeilland\palmtree.math.core.implements\palmtree.math.core.implements\autogenerated_inline_func.h
; File z:\sources\lunor\repos\rougemeilland\palmtree.math.core.implements\palmtree.math.core.implements\pmc_internal.h
; File z:\sources\lunor\repos\rougemeilland\palmtree.math.core.implements\palmtree.math.core.implements\autogenerated_inline_func.h
; File z:\sources\lunor\repos\rougemeilland\palmtree.math.core.implements\palmtree.math.core.implements\pmc_internal.h
; File z:\sources\lunor\repos\rougemeilland\palmtree.math.core.implements\palmtree.math.core.implements\autogenerated_inline_func.h
; File z:\sources\lunor\repos\rougemeilland\palmtree.math.core.implements\palmtree.math.core.implements\pmc_internal.h
; File z:\sources\lunor\repos\rougemeilland\palmtree.math.core.implements\palmtree.math.core.implements\autogenerated_inline_func.h
; File z:\sources\lunor\repos\rougemeilland\palmtree.math.core.implements\palmtree.math.core.implements\pmc_internal.h
; File z:\sources\lunor\repos\rougemeilland\palmtree.math.core.implements\palmtree.math.core.implements\autogenerated_inline_func.h
; File z:\sources\lunor\repos\rougemeilland\palmtree.math.core.implements\palmtree.math.core.implements\pmc_internal.h
; File z:\sources\lunor\repos\rougemeilland\palmtree.math.core.implements\palmtree.math.core.implements\autogenerated_inline_func.h
; File z:\sources\lunor\repos\rougemeilland\palmtree.math.core.implements\palmtree.math.core.implements\pmc_internal.h
; File z:\sources\lunor\repos\rougemeilland\palmtree.math.core.implements\palmtree.math.core.implements\autogenerated_inline_func.h
; File z:\sources\lunor\repos\rougemeilland\palmtree.math.core.implements\palmtree.math.core.implements\pmc_internal.h
; File z:\sources\lunor\repos\rougemeilland\palmtree.math.core.implements\palmtree.math.core.implements\autogenerated_inline_func.h
; File z:\sources\lunor\repos\rougemeilland\palmtree.math.core.implements\palmtree.math.core.implements\pmc_internal.h
; File z:\sources\lunor\repos\rougemeilland\palmtree.math.core.implements\palmtree.math.core.implements\autogenerated_inline_func.h
; File z:\sources\lunor\repos\rougemeilland\palmtree.math.core.implements\palmtree.math.core.implements\pmc_internal.h
; File z:\sources\lunor\repos\rougemeilland\palmtree.math.core.implements\palmtree.math.core.implements\autogenerated_inline_func.h
; File z:\sources\lunor\repos\rougemeilland\palmtree.math.core.implements\palmtree.math.core.implements\pmc_internal.h
; File z:\sources\lunor\repos\rougemeilland\palmtree.math.core.implements\palmtree.math.core.implements\autogenerated_inline_func.h
; File z:\sources\lunor\repos\rougemeilland\palmtree.math.core.implements\palmtree.math.core.implements\pmc_internal.h
; File z:\sources\lunor\repos\rougemeilland\palmtree.math.core.implements\palmtree.math.core.implements\autogenerated_inline_func.h
; File z:\sources\lunor\repos\rougemeilland\palmtree.math.core.implements\palmtree.math.core.implements\pmc_internal.h
; File z:\sources\lunor\repos\rougemeilland\palmtree.math.core.implements\palmtree.math.core.implements\autogenerated_inline_func.h
; File z:\sources\lunor\repos\rougemeilland\palmtree.math.core.implements\palmtree.math.core.implements\pmc_internal.h
; File z:\sources\lunor\repos\rougemeilland\palmtree.math.core.implements\palmtree.math.core.implements\autogenerated_inline_func.h
; File z:\sources\lunor\repos\rougemeilland\palmtree.math.core.implements\palmtree.math.core.implements\pmc_internal.h
; File z:\sources\lunor\repos\rougemeilland\palmtree.math.core.implements\palmtree.math.core.implements\autogenerated_inline_func.h
; File z:\sources\lunor\repos\rougemeilland\palmtree.math.core.implements\palmtree.math.core.implements\pmc_internal.h
; File z:\sources\lunor\repos\rougemeilland\palmtree.math.core.implements\palmtree.math.core.implements\autogenerated_inline_func.h
; File z:\sources\lunor\repos\rougemeilland\palmtree.math.core.implements\palmtree.math.core.implements\pmc_internal.h
; File z:\sources\lunor\repos\rougemeilland\palmtree.math.core.implements\palmtree.math.core.implements\autogenerated_inline_func.h
; File z:\sources\lunor\repos\rougemeilland\palmtree.math.core.implements\palmtree.math.core.implements\pmc_internal.h
; File z:\sources\lunor\repos\rougemeilland\palmtree.math.core.implements\palmtree.math.core.implements\autogenerated_inline_func.h
; File z:\sources\lunor\repos\rougemeilland\palmtree.math.core.implements\palmtree.math.core.implements\pmc_internal.h
; File z:\sources\lunor\repos\rougemeilland\palmtree.math.core.implements\palmtree.math.core.implements\autogenerated_inline_func.h
; File z:\sources\lunor\repos\rougemeilland\palmtree.math.core.implements\palmtree.math.core.implements\pmc_internal.h
; File z:\sources\lunor\repos\rougemeilland\palmtree.math.core.implements\palmtree.math.core.implements\autogenerated_inline_func.h
; File z:\sources\lunor\repos\rougemeilland\palmtree.math.core.implements\palmtree.math.core.implements\pmc_internal.h
; File z:\sources\lunor\repos\rougemeilland\palmtree.math.core.implements\palmtree.math.core.implements\autogenerated_inline_func.h
; File z:\sources\lunor\repos\rougemeilland\palmtree.math.core.implements\palmtree.math.core.implements\pmc_internal.h
; File z:\sources\lunor\repos\rougemeilland\palmtree.math.core.implements\palmtree.math.core.implements\autogenerated_inline_func.h
; File z:\sources\lunor\repos\rougemeilland\palmtree.math.core.implements\palmtree.math.core.implements\pmc_internal.h
; File z:\sources\lunor\repos\rougemeilland\palmtree.math.core.implements\palmtree.math.core.implements\autogenerated_inline_func.h
; File z:\sources\lunor\repos\rougemeilland\palmtree.math.core.implements\palmtree.math.core.implements\pmc_internal.h
; File z:\sources\lunor\repos\rougemeilland\palmtree.math.core.implements\palmtree.math.core.implements\autogenerated_inline_func.h
; File z:\sources\lunor\repos\rougemeilland\palmtree.math.core.implements\palmtree.math.core.implements\pmc_internal.h
; File z:\sources\lunor\repos\rougemeilland\palmtree.math.core.implements\palmtree.math.core.implements\autogenerated_inline_func.h
; File z:\sources\lunor\repos\rougemeilland\palmtree.math.core.implements\palmtree.math.core.implements\pmc_internal.h
; File z:\sources\lunor\repos\rougemeilland\palmtree.math.core.implements\palmtree.math.core.implements\pmc_subtruct.c
; File z:\sources\lunor\repos\rougemeilland\palmtree.math.core.implements\palmtree.math.core.implements\autogenerated_inline_func.h
; File z:\sources\lunor\repos\rougemeilland\palmtree.math.core.implements\palmtree.math.core.implements\pmc_internal.h
; File z:\sources\lunor\repos\rougemeilland\palmtree.math.core.implements\palmtree.math.core.implements\autogenerated_inline_func.h
; File z:\sources\lunor\repos\rougemeilland\palmtree.math.core.implements\palmtree.math.core.implements\pmc_internal.h
; File z:\sources\lunor\repos\rougemeilland\palmtree.math.core.implements\palmtree.math.core.implements\autogenerated_inline_func.h
; File z:\sources\lunor\repos\rougemeilland\palmtree.math.core.implements\palmtree.math.core.implements\pmc_internal.h
; File z:\sources\lunor\repos\rougemeilland\palmtree.math.core.implements\palmtree.math.core.implements\autogenerated_inline_func.h
; File z:\sources\lunor\repos\rougemeilland\palmtree.math.core.implements\palmtree.math.core.implements\pmc_internal.h
; File z:\sources\lunor\repos\rougemeilland\palmtree.math.core.implements\palmtree.math.core.implements\autogenerated_inline_func.h
; File z:\sources\lunor\repos\rougemeilland\palmtree.math.core.implements\palmtree.math.core.implements\pmc_internal.h
; File z:\sources\lunor\repos\rougemeilland\palmtree.math.core.implements\palmtree.math.core.implements\autogenerated_inline_func.h
; File z:\sources\lunor\repos\rougemeilland\palmtree.math.core.implements\palmtree.math.core.implements\pmc_internal.h
; File z:\sources\lunor\repos\rougemeilland\palmtree.math.core.implements\palmtree.math.core.implements\autogenerated_inline_func.h
; File z:\sources\lunor\repos\rougemeilland\palmtree.math.core.implements\palmtree.math.core.implements\pmc_internal.h
; File z:\sources\lunor\repos\rougemeilland\palmtree.math.core.implements\palmtree.math.core.implements\autogenerated_inline_func.h
; File z:\sources\lunor\repos\rougemeilland\palmtree.math.core.implements\palmtree.math.core.implements\pmc_internal.h
; File z:\sources\lunor\repos\rougemeilland\palmtree.math.core.implements\palmtree.math.core.implements\pmc_subtruct.c
; File z:\sources\lunor\repos\rougemeilland\palmtree.math.core.implements\palmtree.math.core.implements\autogenerated_inline_func.h
; File z:\sources\lunor\repos\rougemeilland\palmtree.math.core.implements\palmtree.math.core.implements\pmc_internal.h
; File z:\sources\lunor\repos\rougemeilland\palmtree.math.core.implements\palmtree.math.core.implements\autogenerated_inline_func.h
; File z:\sources\lunor\repos\rougemeilland\palmtree.math.core.implements\palmtree.math.core.implements\pmc_internal.h
; File z:\sources\lunor\repos\rougemeilland\palmtree.math.core.implements\palmtree.math.core.implements\autogenerated_inline_func.h
; File z:\sources\lunor\repos\rougemeilland\palmtree.math.core.implements\palmtree.math.core.implements\pmc_internal.h
; File z:\sources\lunor\repos\rougemeilland\palmtree.math.core.implements\palmtree.math.core.implements\autogenerated_inline_func.h
; File z:\sources\lunor\repos\rougemeilland\palmtree.math.core.implements\palmtree.math.core.implements\pmc_internal.h
; File z:\sources\lunor\repos\rougemeilland\palmtree.math.core.implements\palmtree.math.core.implements\pmc_subtruct.c
; File z:\sources\lunor\repos\rougemeilland\palmtree.math.core.implements\palmtree.math.core.implements\autogenerated_inline_func.h
; File z:\sources\lunor\repos\rougemeilland\palmtree.math.core.implements\palmtree.math.core.implements\pmc_internal.h
; File z:\sources\lunor\repos\rougemeilland\palmtree.math.core.implements\palmtree.math.core.implements\autogenerated_inline_func.h
; File z:\sources\lunor\repos\rougemeilland\palmtree.math.core.implements\palmtree.math.core.implements\pmc_internal.h
; File z:\sources\lunor\repos\rougemeilland\palmtree.math.core.implements\palmtree.math.core.implements\pmc_subtruct.c
; File z:\sources\lunor\repos\rougemeilland\palmtree.math.core.implements\palmtree.math.core.implements\pmc_internal.h
; File z:\sources\lunor\repos\rougemeilland\palmtree.math.core.implements\palmtree.math.core.implements\pmc_subtruct.c
; File z:\sources\lunor\repos\rougemeilland\palmtree.math.core.implements\palmtree.math.core.implements\pmc_internal.h
; File z:\sources\lunor\repos\rougemeilland\palmtree.math.core.implements\palmtree.math.core.implements\pmc_subtruct.c
;	COMDAT Subtruct_Imp
_TEXT	SEGMENT
up$ = 48
u_count$ = 56
vp$ = 64
v_count$ = 72
wp$ = 80
w_count$ = 88
Subtruct_Imp PROC					; COMDAT

; 124  : {

$LN140:
	push	rbx
	sub	rsp, 32					; 00000020H

; 125  :     char c = 0;
; 126  : 
; 127  :     // まず 32 ワードずつ減算をする。
; 128  :     __UNIT_TYPE count = v_count >> 5;

	mov	rbx, r9
	mov	r10, rdx
	mov	rdx, rcx
	shr	rbx, 5
	xor	cl, cl
	mov	r11, r9

; 129  :     while (count != 0)

	mov	r9, QWORD PTR wp$[rsp]
	test	rbx, rbx
	je	$LN3@Subtruct_I
	npad	10
$LL2@Subtruct_I:
; File z:\sources\lunor\repos\rougemeilland\palmtree.math.core.implements\palmtree.math.core.implements\autogenerated_inline_func.h

; 806  :     c = _SUBTRUCT_UNIT(c, xp[0], yp[0], &zp[0]);

	mov	rax, QWORD PTR [rdx]
; File z:\sources\lunor\repos\rougemeilland\palmtree.math.core.implements\palmtree.math.core.implements\pmc_internal.h

; 559  :     return (_subborrow_u64(borrow, u, v, w));

	add	cl, -1
	sbb	rax, QWORD PTR [r8]
	mov	QWORD PTR [r9], rax
; File z:\sources\lunor\repos\rougemeilland\palmtree.math.core.implements\palmtree.math.core.implements\autogenerated_inline_func.h

; 807  :     c = _SUBTRUCT_UNIT(c, xp[1], yp[1], &zp[1]);

	mov	rax, QWORD PTR [rdx+8]
; File z:\sources\lunor\repos\rougemeilland\palmtree.math.core.implements\palmtree.math.core.implements\pmc_internal.h

; 559  :     return (_subborrow_u64(borrow, u, v, w));

	sbb	rax, QWORD PTR [r8+8]
	mov	QWORD PTR [r9+8], rax
; File z:\sources\lunor\repos\rougemeilland\palmtree.math.core.implements\palmtree.math.core.implements\autogenerated_inline_func.h

; 808  :     c = _SUBTRUCT_UNIT(c, xp[2], yp[2], &zp[2]);

	mov	rax, QWORD PTR [rdx+16]
; File z:\sources\lunor\repos\rougemeilland\palmtree.math.core.implements\palmtree.math.core.implements\pmc_internal.h

; 559  :     return (_subborrow_u64(borrow, u, v, w));

	sbb	rax, QWORD PTR [r8+16]
	mov	QWORD PTR [r9+16], rax
; File z:\sources\lunor\repos\rougemeilland\palmtree.math.core.implements\palmtree.math.core.implements\autogenerated_inline_func.h

; 809  :     c = _SUBTRUCT_UNIT(c, xp[3], yp[3], &zp[3]);

	mov	rax, QWORD PTR [rdx+24]
; File z:\sources\lunor\repos\rougemeilland\palmtree.math.core.implements\palmtree.math.core.implements\pmc_internal.h

; 559  :     return (_subborrow_u64(borrow, u, v, w));

	sbb	rax, QWORD PTR [r8+24]
	mov	QWORD PTR [r9+24], rax
; File z:\sources\lunor\repos\rougemeilland\palmtree.math.core.implements\palmtree.math.core.implements\autogenerated_inline_func.h

; 810  :     c = _SUBTRUCT_UNIT(c, xp[4], yp[4], &zp[4]);

	mov	rax, QWORD PTR [rdx+32]
; File z:\sources\lunor\repos\rougemeilland\palmtree.math.core.implements\palmtree.math.core.implements\pmc_internal.h

; 559  :     return (_subborrow_u64(borrow, u, v, w));

	sbb	rax, QWORD PTR [r8+32]
	mov	QWORD PTR [r9+32], rax
; File z:\sources\lunor\repos\rougemeilland\palmtree.math.core.implements\palmtree.math.core.implements\autogenerated_inline_func.h

; 811  :     c = _SUBTRUCT_UNIT(c, xp[5], yp[5], &zp[5]);

	mov	rax, QWORD PTR [rdx+40]
; File z:\sources\lunor\repos\rougemeilland\palmtree.math.core.implements\palmtree.math.core.implements\pmc_internal.h

; 559  :     return (_subborrow_u64(borrow, u, v, w));

	sbb	rax, QWORD PTR [r8+40]
	mov	QWORD PTR [r9+40], rax
; File z:\sources\lunor\repos\rougemeilland\palmtree.math.core.implements\palmtree.math.core.implements\autogenerated_inline_func.h

; 812  :     c = _SUBTRUCT_UNIT(c, xp[6], yp[6], &zp[6]);

	mov	rax, QWORD PTR [rdx+48]
; File z:\sources\lunor\repos\rougemeilland\palmtree.math.core.implements\palmtree.math.core.implements\pmc_internal.h

; 559  :     return (_subborrow_u64(borrow, u, v, w));

	sbb	rax, QWORD PTR [r8+48]
	mov	QWORD PTR [r9+48], rax
; File z:\sources\lunor\repos\rougemeilland\palmtree.math.core.implements\palmtree.math.core.implements\autogenerated_inline_func.h

; 813  :     c = _SUBTRUCT_UNIT(c, xp[7], yp[7], &zp[7]);

	mov	rax, QWORD PTR [rdx+56]
; File z:\sources\lunor\repos\rougemeilland\palmtree.math.core.implements\palmtree.math.core.implements\pmc_internal.h

; 559  :     return (_subborrow_u64(borrow, u, v, w));

	sbb	rax, QWORD PTR [r8+56]
	mov	QWORD PTR [r9+56], rax
; File z:\sources\lunor\repos\rougemeilland\palmtree.math.core.implements\palmtree.math.core.implements\autogenerated_inline_func.h

; 814  :     c = _SUBTRUCT_UNIT(c, xp[8], yp[8], &zp[8]);

	mov	rax, QWORD PTR [rdx+64]
; File z:\sources\lunor\repos\rougemeilland\palmtree.math.core.implements\palmtree.math.core.implements\pmc_internal.h

; 559  :     return (_subborrow_u64(borrow, u, v, w));

	sbb	rax, QWORD PTR [r8+64]
	mov	QWORD PTR [r9+64], rax
; File z:\sources\lunor\repos\rougemeilland\palmtree.math.core.implements\palmtree.math.core.implements\autogenerated_inline_func.h

; 815  :     c = _SUBTRUCT_UNIT(c, xp[9], yp[9], &zp[9]);

	mov	rax, QWORD PTR [rdx+72]
; File z:\sources\lunor\repos\rougemeilland\palmtree.math.core.implements\palmtree.math.core.implements\pmc_internal.h

; 559  :     return (_subborrow_u64(borrow, u, v, w));

	sbb	rax, QWORD PTR [r8+72]
	mov	QWORD PTR [r9+72], rax
; File z:\sources\lunor\repos\rougemeilland\palmtree.math.core.implements\palmtree.math.core.implements\autogenerated_inline_func.h

; 816  :     c = _SUBTRUCT_UNIT(c, xp[10], yp[10], &zp[10]);

	mov	rax, QWORD PTR [rdx+80]
; File z:\sources\lunor\repos\rougemeilland\palmtree.math.core.implements\palmtree.math.core.implements\pmc_internal.h

; 559  :     return (_subborrow_u64(borrow, u, v, w));

	sbb	rax, QWORD PTR [r8+80]
	mov	QWORD PTR [r9+80], rax
; File z:\sources\lunor\repos\rougemeilland\palmtree.math.core.implements\palmtree.math.core.implements\autogenerated_inline_func.h

; 817  :     c = _SUBTRUCT_UNIT(c, xp[11], yp[11], &zp[11]);

	mov	rax, QWORD PTR [rdx+88]
; File z:\sources\lunor\repos\rougemeilland\palmtree.math.core.implements\palmtree.math.core.implements\pmc_internal.h

; 559  :     return (_subborrow_u64(borrow, u, v, w));

	sbb	rax, QWORD PTR [r8+88]
	mov	QWORD PTR [r9+88], rax
; File z:\sources\lunor\repos\rougemeilland\palmtree.math.core.implements\palmtree.math.core.implements\autogenerated_inline_func.h

; 818  :     c = _SUBTRUCT_UNIT(c, xp[12], yp[12], &zp[12]);

	mov	rax, QWORD PTR [rdx+96]
; File z:\sources\lunor\repos\rougemeilland\palmtree.math.core.implements\palmtree.math.core.implements\pmc_internal.h

; 559  :     return (_subborrow_u64(borrow, u, v, w));

	sbb	rax, QWORD PTR [r8+96]
	mov	QWORD PTR [r9+96], rax
; File z:\sources\lunor\repos\rougemeilland\palmtree.math.core.implements\palmtree.math.core.implements\autogenerated_inline_func.h

; 819  :     c = _SUBTRUCT_UNIT(c, xp[13], yp[13], &zp[13]);

	mov	rax, QWORD PTR [rdx+104]
; File z:\sources\lunor\repos\rougemeilland\palmtree.math.core.implements\palmtree.math.core.implements\pmc_internal.h

; 559  :     return (_subborrow_u64(borrow, u, v, w));

	sbb	rax, QWORD PTR [r8+104]
	mov	QWORD PTR [r9+104], rax
; File z:\sources\lunor\repos\rougemeilland\palmtree.math.core.implements\palmtree.math.core.implements\autogenerated_inline_func.h

; 820  :     c = _SUBTRUCT_UNIT(c, xp[14], yp[14], &zp[14]);

	mov	rax, QWORD PTR [rdx+112]
; File z:\sources\lunor\repos\rougemeilland\palmtree.math.core.implements\palmtree.math.core.implements\pmc_internal.h

; 559  :     return (_subborrow_u64(borrow, u, v, w));

	sbb	rax, QWORD PTR [r8+112]
	mov	QWORD PTR [r9+112], rax
; File z:\sources\lunor\repos\rougemeilland\palmtree.math.core.implements\palmtree.math.core.implements\autogenerated_inline_func.h

; 821  :     c = _SUBTRUCT_UNIT(c, xp[15], yp[15], &zp[15]);

	mov	rax, QWORD PTR [rdx+120]
; File z:\sources\lunor\repos\rougemeilland\palmtree.math.core.implements\palmtree.math.core.implements\pmc_internal.h

; 559  :     return (_subborrow_u64(borrow, u, v, w));

	sbb	rax, QWORD PTR [r8+120]
	mov	QWORD PTR [r9+120], rax
; File z:\sources\lunor\repos\rougemeilland\palmtree.math.core.implements\palmtree.math.core.implements\autogenerated_inline_func.h

; 822  :     c = _SUBTRUCT_UNIT(c, xp[16], yp[16], &zp[16]);

	mov	rax, QWORD PTR [rdx+128]
; File z:\sources\lunor\repos\rougemeilland\palmtree.math.core.implements\palmtree.math.core.implements\pmc_internal.h

; 559  :     return (_subborrow_u64(borrow, u, v, w));

	sbb	rax, QWORD PTR [r8+128]
	mov	QWORD PTR [r9+128], rax
; File z:\sources\lunor\repos\rougemeilland\palmtree.math.core.implements\palmtree.math.core.implements\autogenerated_inline_func.h

; 823  :     c = _SUBTRUCT_UNIT(c, xp[17], yp[17], &zp[17]);

	mov	rax, QWORD PTR [rdx+136]
; File z:\sources\lunor\repos\rougemeilland\palmtree.math.core.implements\palmtree.math.core.implements\pmc_internal.h

; 559  :     return (_subborrow_u64(borrow, u, v, w));

	sbb	rax, QWORD PTR [r8+136]
	mov	QWORD PTR [r9+136], rax
; File z:\sources\lunor\repos\rougemeilland\palmtree.math.core.implements\palmtree.math.core.implements\autogenerated_inline_func.h

; 824  :     c = _SUBTRUCT_UNIT(c, xp[18], yp[18], &zp[18]);

	mov	rax, QWORD PTR [rdx+144]
; File z:\sources\lunor\repos\rougemeilland\palmtree.math.core.implements\palmtree.math.core.implements\pmc_internal.h

; 559  :     return (_subborrow_u64(borrow, u, v, w));

	sbb	rax, QWORD PTR [r8+144]
	mov	QWORD PTR [r9+144], rax
; File z:\sources\lunor\repos\rougemeilland\palmtree.math.core.implements\palmtree.math.core.implements\autogenerated_inline_func.h

; 825  :     c = _SUBTRUCT_UNIT(c, xp[19], yp[19], &zp[19]);

	mov	rax, QWORD PTR [rdx+152]
; File z:\sources\lunor\repos\rougemeilland\palmtree.math.core.implements\palmtree.math.core.implements\pmc_internal.h

; 559  :     return (_subborrow_u64(borrow, u, v, w));

	sbb	rax, QWORD PTR [r8+152]
	mov	QWORD PTR [r9+152], rax
; File z:\sources\lunor\repos\rougemeilland\palmtree.math.core.implements\palmtree.math.core.implements\autogenerated_inline_func.h

; 826  :     c = _SUBTRUCT_UNIT(c, xp[20], yp[20], &zp[20]);

	mov	rax, QWORD PTR [rdx+160]
; File z:\sources\lunor\repos\rougemeilland\palmtree.math.core.implements\palmtree.math.core.implements\pmc_internal.h

; 559  :     return (_subborrow_u64(borrow, u, v, w));

	sbb	rax, QWORD PTR [r8+160]
	mov	QWORD PTR [r9+160], rax
; File z:\sources\lunor\repos\rougemeilland\palmtree.math.core.implements\palmtree.math.core.implements\autogenerated_inline_func.h

; 827  :     c = _SUBTRUCT_UNIT(c, xp[21], yp[21], &zp[21]);

	mov	rax, QWORD PTR [rdx+168]
; File z:\sources\lunor\repos\rougemeilland\palmtree.math.core.implements\palmtree.math.core.implements\pmc_internal.h

; 559  :     return (_subborrow_u64(borrow, u, v, w));

	sbb	rax, QWORD PTR [r8+168]
	mov	QWORD PTR [r9+168], rax
; File z:\sources\lunor\repos\rougemeilland\palmtree.math.core.implements\palmtree.math.core.implements\autogenerated_inline_func.h

; 828  :     c = _SUBTRUCT_UNIT(c, xp[22], yp[22], &zp[22]);

	mov	rax, QWORD PTR [rdx+176]
; File z:\sources\lunor\repos\rougemeilland\palmtree.math.core.implements\palmtree.math.core.implements\pmc_internal.h

; 559  :     return (_subborrow_u64(borrow, u, v, w));

	sbb	rax, QWORD PTR [r8+176]
	mov	QWORD PTR [r9+176], rax
; File z:\sources\lunor\repos\rougemeilland\palmtree.math.core.implements\palmtree.math.core.implements\autogenerated_inline_func.h

; 829  :     c = _SUBTRUCT_UNIT(c, xp[23], yp[23], &zp[23]);

	mov	rax, QWORD PTR [rdx+184]
; File z:\sources\lunor\repos\rougemeilland\palmtree.math.core.implements\palmtree.math.core.implements\pmc_internal.h

; 559  :     return (_subborrow_u64(borrow, u, v, w));

	sbb	rax, QWORD PTR [r8+184]
	mov	QWORD PTR [r9+184], rax
; File z:\sources\lunor\repos\rougemeilland\palmtree.math.core.implements\palmtree.math.core.implements\autogenerated_inline_func.h

; 830  :     c = _SUBTRUCT_UNIT(c, xp[24], yp[24], &zp[24]);

	mov	rax, QWORD PTR [rdx+192]
; File z:\sources\lunor\repos\rougemeilland\palmtree.math.core.implements\palmtree.math.core.implements\pmc_internal.h

; 559  :     return (_subborrow_u64(borrow, u, v, w));

	sbb	rax, QWORD PTR [r8+192]
	mov	QWORD PTR [r9+192], rax
; File z:\sources\lunor\repos\rougemeilland\palmtree.math.core.implements\palmtree.math.core.implements\autogenerated_inline_func.h

; 831  :     c = _SUBTRUCT_UNIT(c, xp[25], yp[25], &zp[25]);

	mov	rax, QWORD PTR [rdx+200]
; File z:\sources\lunor\repos\rougemeilland\palmtree.math.core.implements\palmtree.math.core.implements\pmc_internal.h

; 559  :     return (_subborrow_u64(borrow, u, v, w));

	sbb	rax, QWORD PTR [r8+200]
	mov	QWORD PTR [r9+200], rax
; File z:\sources\lunor\repos\rougemeilland\palmtree.math.core.implements\palmtree.math.core.implements\autogenerated_inline_func.h

; 832  :     c = _SUBTRUCT_UNIT(c, xp[26], yp[26], &zp[26]);

	mov	rax, QWORD PTR [rdx+208]
; File z:\sources\lunor\repos\rougemeilland\palmtree.math.core.implements\palmtree.math.core.implements\pmc_internal.h

; 559  :     return (_subborrow_u64(borrow, u, v, w));

	sbb	rax, QWORD PTR [r8+208]
	mov	QWORD PTR [r9+208], rax
; File z:\sources\lunor\repos\rougemeilland\palmtree.math.core.implements\palmtree.math.core.implements\autogenerated_inline_func.h

; 833  :     c = _SUBTRUCT_UNIT(c, xp[27], yp[27], &zp[27]);

	mov	rax, QWORD PTR [rdx+216]
; File z:\sources\lunor\repos\rougemeilland\palmtree.math.core.implements\palmtree.math.core.implements\pmc_internal.h

; 559  :     return (_subborrow_u64(borrow, u, v, w));

	sbb	rax, QWORD PTR [r8+216]
	mov	QWORD PTR [r9+216], rax
; File z:\sources\lunor\repos\rougemeilland\palmtree.math.core.implements\palmtree.math.core.implements\autogenerated_inline_func.h

; 834  :     c = _SUBTRUCT_UNIT(c, xp[28], yp[28], &zp[28]);

	mov	rax, QWORD PTR [rdx+224]
; File z:\sources\lunor\repos\rougemeilland\palmtree.math.core.implements\palmtree.math.core.implements\pmc_internal.h

; 559  :     return (_subborrow_u64(borrow, u, v, w));

	sbb	rax, QWORD PTR [r8+224]
	mov	QWORD PTR [r9+224], rax
; File z:\sources\lunor\repos\rougemeilland\palmtree.math.core.implements\palmtree.math.core.implements\autogenerated_inline_func.h

; 835  :     c = _SUBTRUCT_UNIT(c, xp[29], yp[29], &zp[29]);

	mov	rax, QWORD PTR [rdx+232]
; File z:\sources\lunor\repos\rougemeilland\palmtree.math.core.implements\palmtree.math.core.implements\pmc_internal.h

; 559  :     return (_subborrow_u64(borrow, u, v, w));

	sbb	rax, QWORD PTR [r8+232]
	mov	QWORD PTR [r9+232], rax
; File z:\sources\lunor\repos\rougemeilland\palmtree.math.core.implements\palmtree.math.core.implements\autogenerated_inline_func.h

; 836  :     c = _SUBTRUCT_UNIT(c, xp[30], yp[30], &zp[30]);

	mov	rax, QWORD PTR [rdx+240]
; File z:\sources\lunor\repos\rougemeilland\palmtree.math.core.implements\palmtree.math.core.implements\pmc_internal.h

; 559  :     return (_subborrow_u64(borrow, u, v, w));

	sbb	rax, QWORD PTR [r8+240]
	mov	QWORD PTR [r9+240], rax
; File z:\sources\lunor\repos\rougemeilland\palmtree.math.core.implements\palmtree.math.core.implements\autogenerated_inline_func.h

; 837  :     c = _SUBTRUCT_UNIT(c, xp[31], yp[31], &zp[31]);

	mov	rax, QWORD PTR [rdx+248]
; File z:\sources\lunor\repos\rougemeilland\palmtree.math.core.implements\palmtree.math.core.implements\pmc_internal.h

; 559  :     return (_subborrow_u64(borrow, u, v, w));

	sbb	rax, QWORD PTR [r8+248]
	mov	QWORD PTR [r9+248], rax
	setb	cl
; File z:\sources\lunor\repos\rougemeilland\palmtree.math.core.implements\palmtree.math.core.implements\pmc_subtruct.c

; 132  :         up += 32;

	add	rdx, 256				; 00000100H

; 133  :         vp += 32;

	add	r8, 256					; 00000100H

; 134  :         wp += 32;

	add	r9, 256					; 00000100H

; 135  :         --count;

	sub	rbx, 1
	jne	$LL2@Subtruct_I
$LN3@Subtruct_I:

; 136  :     }
; 137  :     // この時点で未処理の桁は 32 ワード未満のはず
; 138  : 
; 139  :     // 未処理の桁が 16 ワード以上あるなら 16 ワード減算を行う。
; 140  :     if (v_count & 0x10)

	test	r11b, 16
	je	SHORT $LN4@Subtruct_I

; 141  :     {
; 142  :         c = _SUBTRUCT_16WORDS_SBB(c, up, vp, wp);

	call	_SUBTRUCT_16WORDS_SBB

; 143  :         up += 16;

	sub	rdx, -128				; ffffffffffffff80H

; 144  :         vp += 16;

	sub	r8, -128				; ffffffffffffff80H

; 145  :         wp += 16;

	sub	r9, -128				; ffffffffffffff80H
	movzx	ecx, al
$LN4@Subtruct_I:

; 146  :     }
; 147  :     // この時点で未処理の桁は 16 ワード未満のはず
; 148  : 
; 149  :     // 未処理の桁が 8 ワード以上あるなら 8 ワード減算を行う。
; 150  :     if (v_count & 0x8)

	test	r11b, 8
	je	SHORT $LN5@Subtruct_I
; File z:\sources\lunor\repos\rougemeilland\palmtree.math.core.implements\palmtree.math.core.implements\autogenerated_inline_func.h

; 3454 :     c = _SUBTRUCT_UNIT(c, xp[0], yp[0], &zp[0]);

	mov	rax, QWORD PTR [rdx]
; File z:\sources\lunor\repos\rougemeilland\palmtree.math.core.implements\palmtree.math.core.implements\pmc_internal.h

; 559  :     return (_subborrow_u64(borrow, u, v, w));

	add	cl, -1
	sbb	rax, QWORD PTR [r8]
	mov	QWORD PTR [r9], rax
; File z:\sources\lunor\repos\rougemeilland\palmtree.math.core.implements\palmtree.math.core.implements\autogenerated_inline_func.h

; 3455 :     c = _SUBTRUCT_UNIT(c, xp[1], yp[1], &zp[1]);

	mov	rax, QWORD PTR [rdx+8]
; File z:\sources\lunor\repos\rougemeilland\palmtree.math.core.implements\palmtree.math.core.implements\pmc_internal.h

; 559  :     return (_subborrow_u64(borrow, u, v, w));

	sbb	rax, QWORD PTR [r8+8]
	mov	QWORD PTR [r9+8], rax
; File z:\sources\lunor\repos\rougemeilland\palmtree.math.core.implements\palmtree.math.core.implements\autogenerated_inline_func.h

; 3456 :     c = _SUBTRUCT_UNIT(c, xp[2], yp[2], &zp[2]);

	mov	rax, QWORD PTR [rdx+16]
; File z:\sources\lunor\repos\rougemeilland\palmtree.math.core.implements\palmtree.math.core.implements\pmc_internal.h

; 559  :     return (_subborrow_u64(borrow, u, v, w));

	sbb	rax, QWORD PTR [r8+16]
	mov	QWORD PTR [r9+16], rax
; File z:\sources\lunor\repos\rougemeilland\palmtree.math.core.implements\palmtree.math.core.implements\autogenerated_inline_func.h

; 3457 :     c = _SUBTRUCT_UNIT(c, xp[3], yp[3], &zp[3]);

	mov	rax, QWORD PTR [rdx+24]
; File z:\sources\lunor\repos\rougemeilland\palmtree.math.core.implements\palmtree.math.core.implements\pmc_internal.h

; 559  :     return (_subborrow_u64(borrow, u, v, w));

	sbb	rax, QWORD PTR [r8+24]
	mov	QWORD PTR [r9+24], rax
; File z:\sources\lunor\repos\rougemeilland\palmtree.math.core.implements\palmtree.math.core.implements\autogenerated_inline_func.h

; 3458 :     c = _SUBTRUCT_UNIT(c, xp[4], yp[4], &zp[4]);

	mov	rax, QWORD PTR [rdx+32]
; File z:\sources\lunor\repos\rougemeilland\palmtree.math.core.implements\palmtree.math.core.implements\pmc_internal.h

; 559  :     return (_subborrow_u64(borrow, u, v, w));

	sbb	rax, QWORD PTR [r8+32]
	mov	QWORD PTR [r9+32], rax
; File z:\sources\lunor\repos\rougemeilland\palmtree.math.core.implements\palmtree.math.core.implements\autogenerated_inline_func.h

; 3459 :     c = _SUBTRUCT_UNIT(c, xp[5], yp[5], &zp[5]);

	mov	rax, QWORD PTR [rdx+40]
; File z:\sources\lunor\repos\rougemeilland\palmtree.math.core.implements\palmtree.math.core.implements\pmc_internal.h

; 559  :     return (_subborrow_u64(borrow, u, v, w));

	sbb	rax, QWORD PTR [r8+40]
	mov	QWORD PTR [r9+40], rax
; File z:\sources\lunor\repos\rougemeilland\palmtree.math.core.implements\palmtree.math.core.implements\autogenerated_inline_func.h

; 3460 :     c = _SUBTRUCT_UNIT(c, xp[6], yp[6], &zp[6]);

	mov	rax, QWORD PTR [rdx+48]
; File z:\sources\lunor\repos\rougemeilland\palmtree.math.core.implements\palmtree.math.core.implements\pmc_internal.h

; 559  :     return (_subborrow_u64(borrow, u, v, w));

	sbb	rax, QWORD PTR [r8+48]
	mov	QWORD PTR [r9+48], rax
; File z:\sources\lunor\repos\rougemeilland\palmtree.math.core.implements\palmtree.math.core.implements\autogenerated_inline_func.h

; 3461 :     c = _SUBTRUCT_UNIT(c, xp[7], yp[7], &zp[7]);

	mov	rax, QWORD PTR [rdx+56]
; File z:\sources\lunor\repos\rougemeilland\palmtree.math.core.implements\palmtree.math.core.implements\pmc_internal.h

; 559  :     return (_subborrow_u64(borrow, u, v, w));

	sbb	rax, QWORD PTR [r8+56]
	mov	QWORD PTR [r9+56], rax
	setb	cl
; File z:\sources\lunor\repos\rougemeilland\palmtree.math.core.implements\palmtree.math.core.implements\pmc_subtruct.c

; 153  :         up += 8;

	add	rdx, 64					; 00000040H

; 154  :         vp += 8;

	add	r8, 64					; 00000040H

; 155  :         wp += 8;

	add	r9, 64					; 00000040H
$LN5@Subtruct_I:

; 156  :     }
; 157  :     // この時点で未処理の桁は 8 ワード未満のはず
; 158  : 
; 159  :     // 未処理の桁が 4 ワード以上あるなら 4 ワード減算を行う。
; 160  :     if (v_count & 0x4)

	test	r11b, 4
	je	SHORT $LN6@Subtruct_I
; File z:\sources\lunor\repos\rougemeilland\palmtree.math.core.implements\palmtree.math.core.implements\autogenerated_inline_func.h

; 4050 :     c = _SUBTRUCT_UNIT(c, xp[0], yp[0], &zp[0]);

	mov	rax, QWORD PTR [rdx]
; File z:\sources\lunor\repos\rougemeilland\palmtree.math.core.implements\palmtree.math.core.implements\pmc_internal.h

; 559  :     return (_subborrow_u64(borrow, u, v, w));

	add	cl, -1
	sbb	rax, QWORD PTR [r8]
	mov	QWORD PTR [r9], rax
; File z:\sources\lunor\repos\rougemeilland\palmtree.math.core.implements\palmtree.math.core.implements\autogenerated_inline_func.h

; 4051 :     c = _SUBTRUCT_UNIT(c, xp[1], yp[1], &zp[1]);

	mov	rax, QWORD PTR [rdx+8]
; File z:\sources\lunor\repos\rougemeilland\palmtree.math.core.implements\palmtree.math.core.implements\pmc_internal.h

; 559  :     return (_subborrow_u64(borrow, u, v, w));

	sbb	rax, QWORD PTR [r8+8]
	mov	QWORD PTR [r9+8], rax
; File z:\sources\lunor\repos\rougemeilland\palmtree.math.core.implements\palmtree.math.core.implements\autogenerated_inline_func.h

; 4052 :     c = _SUBTRUCT_UNIT(c, xp[2], yp[2], &zp[2]);

	mov	rax, QWORD PTR [rdx+16]
; File z:\sources\lunor\repos\rougemeilland\palmtree.math.core.implements\palmtree.math.core.implements\pmc_internal.h

; 559  :     return (_subborrow_u64(borrow, u, v, w));

	sbb	rax, QWORD PTR [r8+16]
	mov	QWORD PTR [r9+16], rax
; File z:\sources\lunor\repos\rougemeilland\palmtree.math.core.implements\palmtree.math.core.implements\autogenerated_inline_func.h

; 4053 :     c = _SUBTRUCT_UNIT(c, xp[3], yp[3], &zp[3]);

	mov	rax, QWORD PTR [rdx+24]
; File z:\sources\lunor\repos\rougemeilland\palmtree.math.core.implements\palmtree.math.core.implements\pmc_internal.h

; 559  :     return (_subborrow_u64(borrow, u, v, w));

	sbb	rax, QWORD PTR [r8+24]
	mov	QWORD PTR [r9+24], rax
	setb	cl
; File z:\sources\lunor\repos\rougemeilland\palmtree.math.core.implements\palmtree.math.core.implements\pmc_subtruct.c

; 163  :         up += 4;

	add	rdx, 32					; 00000020H

; 164  :         vp += 4;

	add	r8, 32					; 00000020H

; 165  :         wp += 4;

	add	r9, 32					; 00000020H
$LN6@Subtruct_I:

; 166  :     }
; 167  :     // この時点で未処理の桁は 4 ワード未満のはず
; 168  : 
; 169  :     // 未処理の桁が 2 ワード以上あるなら 2 ワード減算を行う。
; 170  :     if (v_count & 0x2)

	test	r11b, 2
	je	SHORT $LN7@Subtruct_I
; File z:\sources\lunor\repos\rougemeilland\palmtree.math.core.implements\palmtree.math.core.implements\autogenerated_inline_func.h

; 4464 :     c = _SUBTRUCT_UNIT(c, xp[0], yp[0], &zp[0]);

	mov	rax, QWORD PTR [rdx]
; File z:\sources\lunor\repos\rougemeilland\palmtree.math.core.implements\palmtree.math.core.implements\pmc_internal.h

; 559  :     return (_subborrow_u64(borrow, u, v, w));

	add	cl, -1
	sbb	rax, QWORD PTR [r8]
	mov	QWORD PTR [r9], rax
; File z:\sources\lunor\repos\rougemeilland\palmtree.math.core.implements\palmtree.math.core.implements\autogenerated_inline_func.h

; 4465 :     c = _SUBTRUCT_UNIT(c, xp[1], yp[1], &zp[1]);

	mov	rax, QWORD PTR [rdx+8]
; File z:\sources\lunor\repos\rougemeilland\palmtree.math.core.implements\palmtree.math.core.implements\pmc_internal.h

; 559  :     return (_subborrow_u64(borrow, u, v, w));

	sbb	rax, QWORD PTR [r8+8]
	mov	QWORD PTR [r9+8], rax
	setb	cl
; File z:\sources\lunor\repos\rougemeilland\palmtree.math.core.implements\palmtree.math.core.implements\pmc_subtruct.c

; 173  :         up += 2;

	add	rdx, 16

; 174  :         vp += 2;

	add	r8, 16

; 175  :         wp += 2;

	add	r9, 16
$LN7@Subtruct_I:

; 176  :     }
; 177  :     // この時点で未処理の桁は 2 ワード未満のはず
; 178  : 
; 179  :     // 未処理の桁が 1 ワード以上あるなら 1 ワード減算を行う。
; 180  :     if (v_count & 1)

	test	r11b, 1
	je	SHORT $LN8@Subtruct_I

; 181  :         c = _SUBTRUCT_UNIT(c, *up++, *vp++, wp++);

	mov	rax, QWORD PTR [rdx]
; File z:\sources\lunor\repos\rougemeilland\palmtree.math.core.implements\palmtree.math.core.implements\pmc_internal.h

; 559  :     return (_subborrow_u64(borrow, u, v, w));

	add	cl, -1
	sbb	rax, QWORD PTR [r8]
	mov	QWORD PTR [r9], rax
	setb	cl
; File z:\sources\lunor\repos\rougemeilland\palmtree.math.core.implements\palmtree.math.core.implements\pmc_subtruct.c

; 181  :         c = _SUBTRUCT_UNIT(c, *up++, *vp++, wp++);

	add	rdx, 8
	add	r9, 8
$LN8@Subtruct_I:

; 182  : 
; 183  :     // 残りの桁の繰り上がりを計算し、復帰する。
; 184  :     return (DoBorrow(c, up, u_count - v_count, wp, w_count - v_count));

	sub	r10, r11

; 43   :         if (u_count <= 0)

	je	SHORT $LN129@Subtruct_I
$LL113@Subtruct_I:

; 48   :             {
; 49   :                 // かつそれでも桁借りを行う必要がある場合
; 50   : 
; 51   :                 // 減算結果が負になってしまったので呼び出し元に通知する。
; 52   :                 return (PMC_STATUS_INTERNAL_BORROW);
; 53   :             }
; 54   : 
; 55   :             // xの最上位に達してしまった場合はいずれにしろループを中断して正常復帰する。
; 56   : 
; 57   :             return (PMC_STATUS_OK);
; 58   :         }
; 59   :         else if (c)

	test	cl, cl
	je	SHORT $LN128@Subtruct_I

; 64   :             c = _SUBTRUCT_UNIT(c, *up++, 0, wp++);

	mov	rax, QWORD PTR [rdx]
; File z:\sources\lunor\repos\rougemeilland\palmtree.math.core.implements\palmtree.math.core.implements\pmc_internal.h

; 559  :     return (_subborrow_u64(borrow, u, v, w));

	add	cl, -1
	sbb	rax, 0
	mov	QWORD PTR [r9], rax
	setb	cl
; File z:\sources\lunor\repos\rougemeilland\palmtree.math.core.implements\palmtree.math.core.implements\pmc_subtruct.c

; 64   :             c = _SUBTRUCT_UNIT(c, *up++, 0, wp++);

	add	rdx, 8
	add	r9, 8

; 65   :             --u_count;

	sub	r10, 1
	jne	SHORT $LL113@Subtruct_I
$LN129@Subtruct_I:

; 44   :         {
; 45   :             // x の最上位まで達してしまった場合
; 46   : 
; 47   :             if (c)

	neg	cl
	sbb	eax, eax
	and	eax, -258				; fffffffffffffefeH

; 185  : }

	add	rsp, 32					; 00000020H
	pop	rbx
	ret	0
$LN128@Subtruct_I:

; 73   :             while (u_count > 0)

	test	r10, r10
	je	SHORT $LN117@Subtruct_I
	sub	rdx, r9
	npad	2
$LL116@Subtruct_I:

; 74   :             {
; 75   :                 *wp++ = *up++;

	mov	rax, QWORD PTR [rdx+r9]
	mov	QWORD PTR [r9], rax
	lea	r9, QWORD PTR [r9+8]

; 76   :                 --u_count;

	sub	r10, 1
	jne	SHORT $LL116@Subtruct_I
$LN117@Subtruct_I:

; 182  : 
; 183  :     // 残りの桁の繰り上がりを計算し、復帰する。
; 184  :     return (DoBorrow(c, up, u_count - v_count, wp, w_count - v_count));

	xor	eax, eax

; 185  : }

	add	rsp, 32					; 00000020H
	pop	rbx
	ret	0
Subtruct_Imp ENDP
_TEXT	ENDS
END
