; Listing generated by Microsoft (R) Optimizing Compiler Version 19.16.27026.1 

include listing.inc

INCLUDELIB MSVCRT
INCLUDELIB OLDNAMES

PUBLIC	RightShift_Imp_DIV
PUBLIC	LeftShift_Imp_DIV
PUBLIC	Initialize_Shift
PUBLIC	PMC_RightShift_X_I
PUBLIC	PMC_RightShift_X_L
PUBLIC	PMC_LeftShift_X_I
PUBLIC	PMC_LeftShift_X_L
PUBLIC	RightShift_Imp
PUBLIC	LeftShift_Imp
EXTRN	CheckBlockLight:PROC
EXTRN	AllocateNumber:PROC
EXTRN	CommitNumber:PROC
EXTRN	CheckNumber:PROC
EXTRN	DuplicateNumber:PROC
EXTRN	number_zero:BYTE
;	COMDAT pdata
pdata	SEGMENT
$pdata$RightShift_Imp_DIV DD imagerel $LN104
	DD	imagerel $LN104+66
	DD	imagerel $unwind$RightShift_Imp_DIV
pdata	ENDS
;	COMDAT pdata
pdata	SEGMENT
$pdata$0$RightShift_Imp_DIV DD imagerel $LN104+66
	DD	imagerel $LN104+77
	DD	imagerel $chain$0$RightShift_Imp_DIV
pdata	ENDS
;	COMDAT pdata
pdata	SEGMENT
$pdata$1$RightShift_Imp_DIV DD imagerel $LN104+77
	DD	imagerel $LN104+814
	DD	imagerel $chain$1$RightShift_Imp_DIV
pdata	ENDS
;	COMDAT pdata
pdata	SEGMENT
$pdata$2$RightShift_Imp_DIV DD imagerel $LN104+814
	DD	imagerel $LN104+1497
	DD	imagerel $chain$2$RightShift_Imp_DIV
pdata	ENDS
;	COMDAT pdata
pdata	SEGMENT
$pdata$3$RightShift_Imp_DIV DD imagerel $LN104+1497
	DD	imagerel $LN104+1565
	DD	imagerel $chain$3$RightShift_Imp_DIV
pdata	ENDS
;	COMDAT pdata
pdata	SEGMENT
$pdata$LeftShift_Imp_DIV DD imagerel $LN23
	DD	imagerel $LN23+80
	DD	imagerel $unwind$LeftShift_Imp_DIV
pdata	ENDS
;	COMDAT pdata
pdata	SEGMENT
$pdata$0$LeftShift_Imp_DIV DD imagerel $LN23+80
	DD	imagerel $LN23+847
	DD	imagerel $chain$0$LeftShift_Imp_DIV
pdata	ENDS
;	COMDAT pdata
pdata	SEGMENT
$pdata$1$LeftShift_Imp_DIV DD imagerel $LN23+847
	DD	imagerel $LN23+1595
	DD	imagerel $chain$1$LeftShift_Imp_DIV
pdata	ENDS
;	COMDAT pdata
pdata	SEGMENT
$pdata$PMC_RightShift_X_I DD imagerel $LN20
	DD	imagerel $LN20+282
	DD	imagerel $unwind$PMC_RightShift_X_I
pdata	ENDS
;	COMDAT pdata
pdata	SEGMENT
$pdata$PMC_RightShift_X_L DD imagerel $LN20
	DD	imagerel $LN20+284
	DD	imagerel $unwind$PMC_RightShift_X_L
pdata	ENDS
;	COMDAT pdata
pdata	SEGMENT
$pdata$PMC_LeftShift_X_I DD imagerel $LN18
	DD	imagerel $LN18+273
	DD	imagerel $unwind$PMC_LeftShift_X_I
pdata	ENDS
;	COMDAT pdata
pdata	SEGMENT
$pdata$PMC_LeftShift_X_L DD imagerel $LN18
	DD	imagerel $LN18+275
	DD	imagerel $unwind$PMC_LeftShift_X_L
pdata	ENDS
;	COMDAT pdata
pdata	SEGMENT
$pdata$_COPY_MEMORY_UNIT DD imagerel _COPY_MEMORY_UNIT
	DD	imagerel _COPY_MEMORY_UNIT+33
	DD	imagerel $unwind$_COPY_MEMORY_UNIT
pdata	ENDS
;	COMDAT pdata
pdata	SEGMENT
$pdata$_COPY_MEMORY_UNIT_DIV DD imagerel _COPY_MEMORY_UNIT_DIV
	DD	imagerel _COPY_MEMORY_UNIT_DIV+32
	DD	imagerel $unwind$_COPY_MEMORY_UNIT_DIV
pdata	ENDS
;	COMDAT pdata
pdata	SEGMENT
$pdata$_ZERO_MEMORY_UNIT DD imagerel _ZERO_MEMORY_UNIT
	DD	imagerel _ZERO_MEMORY_UNIT+22
	DD	imagerel $unwind$_ZERO_MEMORY_UNIT
pdata	ENDS
;	COMDAT pdata
pdata	SEGMENT
$pdata$_ZERO_MEMORY_UNIT_DIV DD imagerel _ZERO_MEMORY_UNIT_DIV
	DD	imagerel _ZERO_MEMORY_UNIT_DIV+20
	DD	imagerel $unwind$_ZERO_MEMORY_UNIT_DIV
pdata	ENDS
;	COMDAT pdata
pdata	SEGMENT
$pdata$RightShift_Imp DD imagerel $LN110
	DD	imagerel $LN110+82
	DD	imagerel $unwind$RightShift_Imp
pdata	ENDS
;	COMDAT pdata
pdata	SEGMENT
$pdata$0$RightShift_Imp DD imagerel $LN110+82
	DD	imagerel $LN110+1093
	DD	imagerel $chain$0$RightShift_Imp
pdata	ENDS
;	COMDAT pdata
pdata	SEGMENT
$pdata$1$RightShift_Imp DD imagerel $LN110+1093
	DD	imagerel $LN110+2008
	DD	imagerel $chain$1$RightShift_Imp
pdata	ENDS
;	COMDAT pdata
pdata	SEGMENT
$pdata$LeftShift_Imp DD imagerel $LN23
	DD	imagerel $LN23+83
	DD	imagerel $unwind$LeftShift_Imp
pdata	ENDS
;	COMDAT pdata
pdata	SEGMENT
$pdata$0$LeftShift_Imp DD imagerel $LN23+83
	DD	imagerel $LN23+1118
	DD	imagerel $chain$0$LeftShift_Imp
pdata	ENDS
;	COMDAT pdata
pdata	SEGMENT
$pdata$1$LeftShift_Imp DD imagerel $LN23+1118
	DD	imagerel $LN23+2026
	DD	imagerel $chain$1$LeftShift_Imp
pdata	ENDS
;	COMDAT xdata
xdata	SEGMENT
$chain$1$LeftShift_Imp DD 021H
	DD	imagerel $LN23
	DD	imagerel $LN23+83
	DD	imagerel $unwind$LeftShift_Imp
xdata	ENDS
;	COMDAT xdata
xdata	SEGMENT
$chain$0$LeftShift_Imp DD 020521H
	DD	025405H
	DD	imagerel $LN23
	DD	imagerel $LN23+83
	DD	imagerel $unwind$LeftShift_Imp
xdata	ENDS
;	COMDAT xdata
xdata	SEGMENT
$unwind$LeftShift_Imp DD 071101H
	DD	057411H
	DD	046411H
	DD	033411H
	DD	0e011H
xdata	ENDS
;	COMDAT xdata
xdata	SEGMENT
$chain$1$RightShift_Imp DD 021H
	DD	imagerel $LN110
	DD	imagerel $LN110+82
	DD	imagerel $unwind$RightShift_Imp
xdata	ENDS
;	COMDAT xdata
xdata	SEGMENT
$chain$0$RightShift_Imp DD 020521H
	DD	03e405H
	DD	imagerel $LN110
	DD	imagerel $LN110+82
	DD	imagerel $unwind$RightShift_Imp
xdata	ENDS
;	COMDAT xdata
xdata	SEGMENT
$unwind$RightShift_Imp DD 081201H
	DD	066412H
	DD	055412H
	DD	043412H
	DD	07010f012H
xdata	ENDS
;	COMDAT xdata
xdata	SEGMENT
$unwind$_ZERO_MEMORY_UNIT_DIV DD 020501H
	DD	017405H
xdata	ENDS
;	COMDAT xdata
xdata	SEGMENT
$unwind$_ZERO_MEMORY_UNIT DD 020501H
	DD	017405H
xdata	ENDS
;	COMDAT xdata
xdata	SEGMENT
$unwind$_COPY_MEMORY_UNIT_DIV DD 040a01H
	DD	02740aH
	DD	016405H
xdata	ENDS
;	COMDAT xdata
xdata	SEGMENT
$unwind$_COPY_MEMORY_UNIT DD 040a01H
	DD	02740aH
	DD	016405H
xdata	ENDS
;	COMDAT xdata
xdata	SEGMENT
$unwind$PMC_LeftShift_X_L DD 060f01H
	DD	0a640fH
	DD	09340fH
	DD	0700b520fH
xdata	ENDS
;	COMDAT xdata
xdata	SEGMENT
$unwind$PMC_LeftShift_X_I DD 060f01H
	DD	0a640fH
	DD	09340fH
	DD	0700b520fH
xdata	ENDS
;	COMDAT xdata
xdata	SEGMENT
$unwind$PMC_RightShift_X_L DD 060f01H
	DD	0a640fH
	DD	09340fH
	DD	0700b520fH
xdata	ENDS
;	COMDAT xdata
xdata	SEGMENT
$unwind$PMC_RightShift_X_I DD 060f01H
	DD	0a640fH
	DD	09340fH
	DD	0700b520fH
xdata	ENDS
;	COMDAT xdata
xdata	SEGMENT
$chain$1$LeftShift_Imp_DIV DD 021H
	DD	imagerel $LN23
	DD	imagerel $LN23+80
	DD	imagerel $unwind$LeftShift_Imp_DIV
xdata	ENDS
;	COMDAT xdata
xdata	SEGMENT
$chain$0$LeftShift_Imp_DIV DD 020521H
	DD	025405H
	DD	imagerel $LN23
	DD	imagerel $LN23+80
	DD	imagerel $unwind$LeftShift_Imp_DIV
xdata	ENDS
;	COMDAT xdata
xdata	SEGMENT
$unwind$LeftShift_Imp_DIV DD 071101H
	DD	057411H
	DD	046411H
	DD	033411H
	DD	0e011H
xdata	ENDS
;	COMDAT xdata
xdata	SEGMENT
$chain$3$RightShift_Imp_DIV DD 021H
	DD	imagerel $LN104
	DD	imagerel $LN104+66
	DD	imagerel $unwind$RightShift_Imp_DIV
xdata	ENDS
;	COMDAT xdata
xdata	SEGMENT
$chain$2$RightShift_Imp_DIV DD 021H
	DD	imagerel $LN104+66
	DD	imagerel $LN104+77
	DD	imagerel $chain$0$RightShift_Imp_DIV
xdata	ENDS
;	COMDAT xdata
xdata	SEGMENT
$chain$1$RightShift_Imp_DIV DD 020521H
	DD	04e405H
	DD	imagerel $LN104+66
	DD	imagerel $LN104+77
	DD	imagerel $chain$0$RightShift_Imp_DIV
xdata	ENDS
;	COMDAT xdata
xdata	SEGMENT
$chain$0$RightShift_Imp_DIV DD 020521H
	DD	033405H
	DD	imagerel $LN104
	DD	imagerel $LN104+66
	DD	imagerel $unwind$RightShift_Imp_DIV
xdata	ENDS
;	COMDAT xdata
xdata	SEGMENT
$unwind$RightShift_Imp_DIV DD 060d01H
	DD	06640dH
	DD	05540dH
	DD	0700bf00dH
xdata	ENDS
; Function compile flags: /Ogtpy
; File z:\sources\lunor\repos\rougemeilland\palmtree.math.core.implements\palmtree.math.core.implements\pmc_shift.c
; File z:\sources\lunor\repos\rougemeilland\palmtree.math.core.implements\palmtree.math.core.implements\pmc_internal.h
; File z:\sources\lunor\repos\rougemeilland\palmtree.math.core.implements\palmtree.math.core.implements\pmc_shift.c
; File z:\sources\lunor\repos\rougemeilland\palmtree.math.core.implements\palmtree.math.core.implements\pmc_internal.h
; File z:\sources\lunor\repos\rougemeilland\palmtree.math.core.implements\palmtree.math.core.implements\pmc_shift.c
; File z:\sources\lunor\repos\rougemeilland\palmtree.math.core.implements\palmtree.math.core.implements\pmc_internal.h
; File z:\sources\lunor\repos\rougemeilland\palmtree.math.core.implements\palmtree.math.core.implements\pmc_shift.c
;	COMDAT LeftShift_Imp
_TEXT	SEGMENT
p$ = 16
p_word_count$ = 24
n$ = 32
o$ = 40
padding_zero$ = 48
LeftShift_Imp PROC					; COMDAT

; 304  : {

$LN23:
	mov	QWORD PTR [rsp+16], rbx
	mov	QWORD PTR [rsp+24], rsi
	mov	QWORD PTR [rsp+32], rdi
	push	r14

; 305  :     __UNIT_TYPE* pp = p;
; 306  :     __UNIT_TYPE p_count = p_word_count;
; 307  :     __UNIT_TYPE* op = o;
; 308  :     __UNIT_TYPE n_word_count = n / __UNIT_TYPE_BIT_COUNT;

	mov	rbx, r8
	mov	r10, r8
	shr	rbx, 6
	mov	rdi, r9
	mov	r14, rcx

; 309  :     __UNIT_TYPE n_lshift_bit_count = n % __UNIT_TYPE_BIT_COUNT;

	and	r10d, 63				; 0000003fH

; 310  :     if (n_lshift_bit_count == 0)

	jne	SHORT $LN4@LeftShift_
; File z:\sources\lunor\repos\rougemeilland\palmtree.math.core.implements\palmtree.math.core.implements\pmc_internal.h

; 281  :     __movsq(d, s, count);

	mov	rsi, rcx
; File z:\sources\lunor\repos\rougemeilland\palmtree.math.core.implements\palmtree.math.core.implements\pmc_shift.c

; 313  :         _COPY_MEMORY_UNIT(op + n_word_count, pp, p_count);

	lea	rdi, QWORD PTR [r9+rbx*8]
; File z:\sources\lunor\repos\rougemeilland\palmtree.math.core.implements\palmtree.math.core.implements\pmc_internal.h

; 281  :     __movsq(d, s, count);

	mov	rcx, rdx
	rep movsq
; File z:\sources\lunor\repos\rougemeilland\palmtree.math.core.implements\palmtree.math.core.implements\pmc_shift.c

; 434  : }

	mov	rbx, QWORD PTR [rsp+24]
	mov	rsi, QWORD PTR [rsp+32]
	mov	rdi, QWORD PTR [rsp+40]
	pop	r14
	ret	0
$LN4@LeftShift_:

; 314  :     }
; 315  :     else
; 316  :     {
; 317  :         __UNIT_TYPE n_rshift_bit_count = __UNIT_TYPE_BIT_COUNT - n_lshift_bit_count;
; 318  :         pp += p_count - 1;
; 319  :         op += p_count + n_word_count;
; 320  :         p_count -= 1;
; 321  :         __UNIT_TYPE temp = *pp;

	mov	rsi, QWORD PTR [rcx+rdx*8-8]
	lea	r8, QWORD PTR [rcx+rdx*8]
	lea	rax, QWORD PTR [rbx+rdx]
	mov	QWORD PTR [rsp+16], rbp
	lea	r11, QWORD PTR [rdx-1]
	mov	r9d, 64					; 00000040H
	sub	r9, r10
	lea	rax, QWORD PTR [rdi+rax*8]

; 322  :         __UNIT_TYPE work = temp >> n_rshift_bit_count;

	mov	rdx, rsi
	mov	rcx, r9
	shr	rdx, cl

; 323  :         if (work != 0)

	test	rdx, rdx
	je	SHORT $LN6@LeftShift_

; 324  :             *op = work;

	mov	QWORD PTR [rax], rdx
$LN6@LeftShift_:

; 325  :         --pp;
; 326  :         --op;
; 327  : 
; 328  :         __UNIT_TYPE count = p_count >> 5;

	mov	rbp, r11
	sub	r8, 16
	shr	rbp, 5
	sub	rax, 8

; 329  :         while (count != 0)

	test	rbp, rbp
	je	$LN3@LeftShift_
	npad	14
$LL2@LeftShift_:

; 330  :         {
; 331  :             work = temp << n_lshift_bit_count; temp = pp[-0]; work |= temp >> n_rshift_bit_count; op[-0] = work;

	mov	rdi, QWORD PTR [r8]
	mov	rcx, r10
	shl	rsi, cl
	mov	rdx, rdi
	mov	rcx, r9
	shr	rdx, cl

; 332  :             work = temp << n_lshift_bit_count; temp = pp[-1]; work |= temp >> n_rshift_bit_count; op[-1] = work;

	mov	rcx, r10
	or	rdx, rsi
	shl	rdi, cl
	mov	QWORD PTR [rax], rdx
	mov	rcx, r9
	mov	rsi, QWORD PTR [r8-8]
	mov	rdx, rsi
	shr	rdx, cl

; 333  :             work = temp << n_lshift_bit_count; temp = pp[-2]; work |= temp >> n_rshift_bit_count; op[-2] = work;

	mov	rcx, r10
	or	rdx, rdi
	shl	rsi, cl
	mov	QWORD PTR [rax-8], rdx
	mov	rcx, r9
	mov	rdi, QWORD PTR [r8-16]
	mov	rdx, rdi
	shr	rdx, cl

; 334  :             work = temp << n_lshift_bit_count; temp = pp[-3]; work |= temp >> n_rshift_bit_count; op[-3] = work;

	mov	rcx, r10
	or	rdx, rsi
	shl	rdi, cl
	mov	QWORD PTR [rax-16], rdx
	mov	rcx, r9
	mov	rsi, QWORD PTR [r8-24]
	mov	rdx, rsi
	shr	rdx, cl

; 335  :             work = temp << n_lshift_bit_count; temp = pp[-4]; work |= temp >> n_rshift_bit_count; op[-4] = work;

	mov	rcx, r10
	or	rdx, rdi
	shl	rsi, cl
	mov	QWORD PTR [rax-24], rdx
	mov	rcx, r9
	mov	rdi, QWORD PTR [r8-32]
	mov	rdx, rdi
	shr	rdx, cl

; 336  :             work = temp << n_lshift_bit_count; temp = pp[-5]; work |= temp >> n_rshift_bit_count; op[-5] = work;

	mov	rcx, r10
	or	rdx, rsi
	shl	rdi, cl
	mov	QWORD PTR [rax-32], rdx
	mov	rcx, r9
	mov	rsi, QWORD PTR [r8-40]
	mov	rdx, rsi
	shr	rdx, cl

; 337  :             work = temp << n_lshift_bit_count; temp = pp[-6]; work |= temp >> n_rshift_bit_count; op[-6] = work;

	mov	rcx, r10
	or	rdx, rdi
	shl	rsi, cl
	mov	QWORD PTR [rax-40], rdx
	mov	rcx, r9
	mov	rdi, QWORD PTR [r8-48]
	mov	rdx, rdi
	shr	rdx, cl

; 338  :             work = temp << n_lshift_bit_count; temp = pp[-7]; work |= temp >> n_rshift_bit_count; op[-7] = work;

	mov	rcx, r10
	or	rdx, rsi
	shl	rdi, cl
	mov	QWORD PTR [rax-48], rdx
	mov	rcx, r9
	mov	rsi, QWORD PTR [r8-56]
	mov	rdx, rsi
	shr	rdx, cl

; 339  :             work = temp << n_lshift_bit_count; temp = pp[-8]; work |= temp >> n_rshift_bit_count; op[-8] = work;

	mov	rcx, r10
	or	rdx, rdi
	shl	rsi, cl
	mov	QWORD PTR [rax-56], rdx
	mov	rcx, r9
	mov	rdi, QWORD PTR [r8-64]
	mov	rdx, rdi
	shr	rdx, cl

; 340  :             work = temp << n_lshift_bit_count; temp = pp[-9]; work |= temp >> n_rshift_bit_count; op[-9] = work;

	mov	rcx, r10
	or	rdx, rsi
	shl	rdi, cl
	mov	QWORD PTR [rax-64], rdx
	mov	rcx, r9
	mov	rsi, QWORD PTR [r8-72]
	mov	rdx, rsi
	shr	rdx, cl

; 341  :             work = temp << n_lshift_bit_count; temp = pp[-10]; work |= temp >> n_rshift_bit_count; op[-10] = work;

	mov	rcx, r10
	or	rdx, rdi
	mov	QWORD PTR [rax-72], rdx
	mov	rdi, QWORD PTR [r8-80]
	shl	rsi, cl
	mov	rdx, rdi
	mov	rcx, r9
	shr	rdx, cl

; 342  :             work = temp << n_lshift_bit_count; temp = pp[-11]; work |= temp >> n_rshift_bit_count; op[-11] = work;

	mov	rcx, r10
	or	rdx, rsi
	shl	rdi, cl
	mov	QWORD PTR [rax-80], rdx
	mov	rcx, r9
	mov	rsi, QWORD PTR [r8-88]
	mov	rdx, rsi
	shr	rdx, cl

; 343  :             work = temp << n_lshift_bit_count; temp = pp[-12]; work |= temp >> n_rshift_bit_count; op[-12] = work;

	mov	rcx, r10
	or	rdx, rdi
	shl	rsi, cl
	mov	QWORD PTR [rax-88], rdx
	mov	rcx, r9
	mov	rdi, QWORD PTR [r8-96]
	mov	rdx, rdi
	shr	rdx, cl

; 344  :             work = temp << n_lshift_bit_count; temp = pp[-13]; work |= temp >> n_rshift_bit_count; op[-13] = work;

	mov	rcx, r10
	or	rdx, rsi
	shl	rdi, cl
	mov	QWORD PTR [rax-96], rdx
	mov	rcx, r9
	mov	rsi, QWORD PTR [r8-104]
	mov	rdx, rsi
	shr	rdx, cl

; 345  :             work = temp << n_lshift_bit_count; temp = pp[-14]; work |= temp >> n_rshift_bit_count; op[-14] = work;

	mov	rcx, r10
	or	rdx, rdi
	shl	rsi, cl
	mov	QWORD PTR [rax-104], rdx
	mov	rcx, r9
	mov	rdi, QWORD PTR [r8-112]
	mov	rdx, rdi
	shr	rdx, cl

; 346  :             work = temp << n_lshift_bit_count; temp = pp[-15]; work |= temp >> n_rshift_bit_count; op[-15] = work;

	mov	rcx, r10
	or	rdx, rsi
	shl	rdi, cl
	mov	QWORD PTR [rax-112], rdx
	mov	rcx, r9
	mov	rsi, QWORD PTR [r8-120]
	mov	rdx, rsi
	shr	rdx, cl

; 347  :             work = temp << n_lshift_bit_count; temp = pp[-16]; work |= temp >> n_rshift_bit_count; op[-16] = work;

	mov	rcx, r10
	or	rdx, rdi
	shl	rsi, cl
	mov	QWORD PTR [rax-120], rdx
	mov	rcx, r9
	mov	rdi, QWORD PTR [r8-128]
	mov	rdx, rdi
	shr	rdx, cl

; 348  :             work = temp << n_lshift_bit_count; temp = pp[-17]; work |= temp >> n_rshift_bit_count; op[-17] = work;

	mov	rcx, r10
	or	rdx, rsi
	shl	rdi, cl
	mov	QWORD PTR [rax-128], rdx
	mov	rcx, r9
	mov	rsi, QWORD PTR [r8-136]
	mov	rdx, rsi
	shr	rdx, cl

; 349  :             work = temp << n_lshift_bit_count; temp = pp[-18]; work |= temp >> n_rshift_bit_count; op[-18] = work;

	mov	rcx, r10
	or	rdx, rdi
	shl	rsi, cl
	mov	QWORD PTR [rax-136], rdx
	mov	rcx, r9
	mov	rdi, QWORD PTR [r8-144]
	mov	rdx, rdi
	shr	rdx, cl

; 350  :             work = temp << n_lshift_bit_count; temp = pp[-19]; work |= temp >> n_rshift_bit_count; op[-19] = work;

	mov	rcx, r10
	or	rdx, rsi
	shl	rdi, cl
	mov	QWORD PTR [rax-144], rdx
	mov	rcx, r9
	mov	rsi, QWORD PTR [r8-152]
	mov	rdx, rsi
	shr	rdx, cl

; 351  :             work = temp << n_lshift_bit_count; temp = pp[-20]; work |= temp >> n_rshift_bit_count; op[-20] = work;

	mov	rcx, r10
	or	rdx, rdi
	mov	QWORD PTR [rax-152], rdx
	shl	rsi, cl
	mov	rdi, QWORD PTR [r8-160]
	mov	rcx, r9
	mov	rdx, rdi
	shr	rdx, cl

; 352  :             work = temp << n_lshift_bit_count; temp = pp[-21]; work |= temp >> n_rshift_bit_count; op[-21] = work;

	mov	rcx, r10
	or	rdx, rsi
	shl	rdi, cl
	mov	QWORD PTR [rax-160], rdx
	mov	rcx, r9
	mov	rsi, QWORD PTR [r8-168]
	mov	rdx, rsi
	shr	rdx, cl

; 353  :             work = temp << n_lshift_bit_count; temp = pp[-22]; work |= temp >> n_rshift_bit_count; op[-22] = work;

	mov	rcx, r10
	or	rdx, rdi
	shl	rsi, cl
	mov	QWORD PTR [rax-168], rdx
	mov	rcx, r9
	mov	rdi, QWORD PTR [r8-176]
	mov	rdx, rdi
	shr	rdx, cl

; 354  :             work = temp << n_lshift_bit_count; temp = pp[-23]; work |= temp >> n_rshift_bit_count; op[-23] = work;

	mov	rcx, r10
	or	rdx, rsi
	shl	rdi, cl
	mov	QWORD PTR [rax-176], rdx
	mov	rcx, r9
	mov	rsi, QWORD PTR [r8-184]
	mov	rdx, rsi
	shr	rdx, cl

; 355  :             work = temp << n_lshift_bit_count; temp = pp[-24]; work |= temp >> n_rshift_bit_count; op[-24] = work;

	mov	rcx, r10
	or	rdx, rdi
	shl	rsi, cl
	mov	QWORD PTR [rax-184], rdx
	mov	rcx, r9
	mov	rdi, QWORD PTR [r8-192]
	mov	rdx, rdi
	shr	rdx, cl

; 356  :             work = temp << n_lshift_bit_count; temp = pp[-25]; work |= temp >> n_rshift_bit_count; op[-25] = work;

	mov	rcx, r10
	or	rdx, rsi
	shl	rdi, cl
	mov	QWORD PTR [rax-192], rdx
	mov	rcx, r9
	mov	rsi, QWORD PTR [r8-200]
	mov	rdx, rsi
	shr	rdx, cl

; 357  :             work = temp << n_lshift_bit_count; temp = pp[-26]; work |= temp >> n_rshift_bit_count; op[-26] = work;

	mov	rcx, r10
	or	rdx, rdi
	shl	rsi, cl
	mov	QWORD PTR [rax-200], rdx
	mov	rcx, r9
	mov	rdi, QWORD PTR [r8-208]
	mov	rdx, rdi
	shr	rdx, cl

; 358  :             work = temp << n_lshift_bit_count; temp = pp[-27]; work |= temp >> n_rshift_bit_count; op[-27] = work;

	mov	rcx, r10
	or	rdx, rsi
	shl	rdi, cl
	mov	QWORD PTR [rax-208], rdx
	mov	rcx, r9
	mov	rsi, QWORD PTR [r8-216]
	mov	rdx, rsi
	shr	rdx, cl

; 359  :             work = temp << n_lshift_bit_count; temp = pp[-28]; work |= temp >> n_rshift_bit_count; op[-28] = work;

	mov	rcx, r10
	or	rdx, rdi
	shl	rsi, cl
	mov	QWORD PTR [rax-216], rdx
	mov	rcx, r9
	mov	rdi, QWORD PTR [r8-224]
	mov	rdx, rdi
	shr	rdx, cl

; 360  :             work = temp << n_lshift_bit_count; temp = pp[-29]; work |= temp >> n_rshift_bit_count; op[-29] = work;

	mov	rcx, r10
	or	rdx, rsi
	shl	rdi, cl
	mov	QWORD PTR [rax-224], rdx
	mov	rcx, r9
	mov	rsi, QWORD PTR [r8-232]
	mov	rdx, rsi
	shr	rdx, cl

; 361  :             work = temp << n_lshift_bit_count; temp = pp[-30]; work |= temp >> n_rshift_bit_count; op[-30] = work;

	mov	rcx, r10
	or	rdx, rdi
	mov	QWORD PTR [rax-232], rdx
	mov	rdi, QWORD PTR [r8-240]
	shl	rsi, cl
	mov	rdx, rdi
	mov	rcx, r9
	shr	rdx, cl

; 362  :             work = temp << n_lshift_bit_count; temp = pp[-31]; work |= temp >> n_rshift_bit_count; op[-31] = work;

	mov	rcx, r10
	or	rdx, rsi
	shl	rdi, cl
	mov	QWORD PTR [rax-240], rdx
	mov	rcx, r9
	mov	rsi, QWORD PTR [r8-248]

; 363  :             pp -= 32;

	sub	r8, 256					; 00000100H
	mov	rdx, rsi
	shr	rdx, cl
	or	rdx, rdi
	mov	QWORD PTR [rax-248], rdx

; 364  :             op -= 32;

	sub	rax, 256				; 00000100H

; 365  :             --count;

	sub	rbp, 1
	jne	$LL2@LeftShift_
$LN3@LeftShift_:
	mov	rbp, QWORD PTR [rsp+16]

; 366  :         }
; 367  : 
; 368  :         if (p_count & 0x10)

	test	r11b, 16
	je	$LN7@LeftShift_

; 369  :         {
; 370  :             work = temp << n_lshift_bit_count; temp = pp[-0]; work |= temp >> n_rshift_bit_count; op[-0] = work;

	mov	rdi, QWORD PTR [r8]
	mov	rcx, r10
	shl	rsi, cl
	mov	rdx, rdi
	mov	rcx, r9
	shr	rdx, cl

; 371  :             work = temp << n_lshift_bit_count; temp = pp[-1]; work |= temp >> n_rshift_bit_count; op[-1] = work;

	mov	rcx, r10
	or	rdx, rsi
	shl	rdi, cl
	mov	QWORD PTR [rax], rdx
	mov	rcx, r9
	mov	rsi, QWORD PTR [r8-8]
	mov	rdx, rsi
	shr	rdx, cl

; 372  :             work = temp << n_lshift_bit_count; temp = pp[-2]; work |= temp >> n_rshift_bit_count; op[-2] = work;

	mov	rcx, r10
	or	rdx, rdi
	shl	rsi, cl
	mov	QWORD PTR [rax-8], rdx
	mov	rcx, r9
	mov	rdi, QWORD PTR [r8-16]
	mov	rdx, rdi
	shr	rdx, cl

; 373  :             work = temp << n_lshift_bit_count; temp = pp[-3]; work |= temp >> n_rshift_bit_count; op[-3] = work;

	mov	rcx, r10
	or	rdx, rsi
	shl	rdi, cl
	mov	QWORD PTR [rax-16], rdx
	mov	rcx, r9
	mov	rsi, QWORD PTR [r8-24]
	mov	rdx, rsi
	shr	rdx, cl

; 374  :             work = temp << n_lshift_bit_count; temp = pp[-4]; work |= temp >> n_rshift_bit_count; op[-4] = work;

	mov	rcx, r10
	or	rdx, rdi
	shl	rsi, cl
	mov	QWORD PTR [rax-24], rdx
	mov	rcx, r9
	mov	rdi, QWORD PTR [r8-32]
	mov	rdx, rdi
	shr	rdx, cl

; 375  :             work = temp << n_lshift_bit_count; temp = pp[-5]; work |= temp >> n_rshift_bit_count; op[-5] = work;

	mov	rcx, r10
	or	rdx, rsi
	shl	rdi, cl
	mov	QWORD PTR [rax-32], rdx
	mov	rcx, r9
	mov	rsi, QWORD PTR [r8-40]
	mov	rdx, rsi
	shr	rdx, cl

; 376  :             work = temp << n_lshift_bit_count; temp = pp[-6]; work |= temp >> n_rshift_bit_count; op[-6] = work;

	mov	rcx, r10
	or	rdx, rdi
	shl	rsi, cl
	mov	QWORD PTR [rax-40], rdx
	mov	rcx, r9
	mov	rdi, QWORD PTR [r8-48]
	mov	rdx, rdi
	shr	rdx, cl

; 377  :             work = temp << n_lshift_bit_count; temp = pp[-7]; work |= temp >> n_rshift_bit_count; op[-7] = work;

	mov	rcx, r10
	or	rdx, rsi
	shl	rdi, cl
	mov	QWORD PTR [rax-48], rdx
	mov	rcx, r9
	mov	rsi, QWORD PTR [r8-56]
	mov	rdx, rsi
	shr	rdx, cl

; 378  :             work = temp << n_lshift_bit_count; temp = pp[-8]; work |= temp >> n_rshift_bit_count; op[-8] = work;

	mov	rcx, r10
	or	rdx, rdi
	shl	rsi, cl
	mov	QWORD PTR [rax-56], rdx
	mov	rcx, r9
	mov	rdi, QWORD PTR [r8-64]
	mov	rdx, rdi
	shr	rdx, cl

; 379  :             work = temp << n_lshift_bit_count; temp = pp[-9]; work |= temp >> n_rshift_bit_count; op[-9] = work;

	mov	rcx, r10
	or	rdx, rsi
	shl	rdi, cl
	mov	QWORD PTR [rax-64], rdx
	mov	rcx, r9
	mov	rsi, QWORD PTR [r8-72]
	mov	rdx, rsi
	shr	rdx, cl

; 380  :             work = temp << n_lshift_bit_count; temp = pp[-10]; work |= temp >> n_rshift_bit_count; op[-10] = work;

	mov	rcx, r10
	or	rdx, rdi
	mov	QWORD PTR [rax-72], rdx
	mov	rdi, QWORD PTR [r8-80]
	shl	rsi, cl
	mov	rdx, rdi
	mov	rcx, r9
	shr	rdx, cl

; 381  :             work = temp << n_lshift_bit_count; temp = pp[-11]; work |= temp >> n_rshift_bit_count; op[-11] = work;

	mov	rcx, r10
	or	rdx, rsi
	shl	rdi, cl
	mov	QWORD PTR [rax-80], rdx
	mov	rcx, r9
	mov	rsi, QWORD PTR [r8-88]
	mov	rdx, rsi
	shr	rdx, cl

; 382  :             work = temp << n_lshift_bit_count; temp = pp[-12]; work |= temp >> n_rshift_bit_count; op[-12] = work;

	mov	rcx, r10
	or	rdx, rdi
	shl	rsi, cl
	mov	QWORD PTR [rax-88], rdx
	mov	rcx, r9
	mov	rdi, QWORD PTR [r8-96]
	mov	rdx, rdi
	shr	rdx, cl

; 383  :             work = temp << n_lshift_bit_count; temp = pp[-13]; work |= temp >> n_rshift_bit_count; op[-13] = work;

	mov	rcx, r10
	or	rdx, rsi
	shl	rdi, cl
	mov	QWORD PTR [rax-96], rdx
	mov	rcx, r9
	mov	rsi, QWORD PTR [r8-104]
	mov	rdx, rsi
	shr	rdx, cl

; 384  :             work = temp << n_lshift_bit_count; temp = pp[-14]; work |= temp >> n_rshift_bit_count; op[-14] = work;

	mov	rcx, r10
	or	rdx, rdi
	shl	rsi, cl
	mov	QWORD PTR [rax-104], rdx
	mov	rcx, r9
	mov	rdi, QWORD PTR [r8-112]
	mov	rdx, rdi
	shr	rdx, cl

; 385  :             work = temp << n_lshift_bit_count; temp = pp[-15]; work |= temp >> n_rshift_bit_count; op[-15] = work;

	mov	rcx, r10
	or	rdx, rsi
	shl	rdi, cl
	mov	QWORD PTR [rax-112], rdx
	mov	rcx, r9
	mov	rsi, QWORD PTR [r8-120]

; 386  :             pp -= 16;

	add	r8, -128				; ffffffffffffff80H
	mov	rdx, rsi
	shr	rdx, cl
	or	rdx, rdi
	mov	QWORD PTR [rax-120], rdx

; 387  :             op -= 16;

	add	rax, -128				; ffffffffffffff80H
$LN7@LeftShift_:

; 388  :         }
; 389  : 
; 390  :         if (p_count & 0x8)

	test	r11b, 8
	je	$LN8@LeftShift_

; 391  :         {
; 392  :             work = temp << n_lshift_bit_count; temp = pp[-0]; work |= temp >> n_rshift_bit_count; op[-0] = work;

	mov	rdi, QWORD PTR [r8]
	mov	rcx, r10
	shl	rsi, cl
	mov	rdx, rdi
	mov	rcx, r9
	shr	rdx, cl

; 393  :             work = temp << n_lshift_bit_count; temp = pp[-1]; work |= temp >> n_rshift_bit_count; op[-1] = work;

	mov	rcx, r10
	or	rdx, rsi
	shl	rdi, cl
	mov	QWORD PTR [rax], rdx
	mov	rcx, r9
	mov	rsi, QWORD PTR [r8-8]
	mov	rdx, rsi
	shr	rdx, cl

; 394  :             work = temp << n_lshift_bit_count; temp = pp[-2]; work |= temp >> n_rshift_bit_count; op[-2] = work;

	mov	rcx, r10
	or	rdx, rdi
	shl	rsi, cl
	mov	QWORD PTR [rax-8], rdx
	mov	rcx, r9
	mov	rdi, QWORD PTR [r8-16]
	mov	rdx, rdi
	shr	rdx, cl

; 395  :             work = temp << n_lshift_bit_count; temp = pp[-3]; work |= temp >> n_rshift_bit_count; op[-3] = work;

	mov	rcx, r10
	or	rdx, rsi
	shl	rdi, cl
	mov	QWORD PTR [rax-16], rdx
	mov	rcx, r9
	mov	rsi, QWORD PTR [r8-24]
	mov	rdx, rsi
	shr	rdx, cl

; 396  :             work = temp << n_lshift_bit_count; temp = pp[-4]; work |= temp >> n_rshift_bit_count; op[-4] = work;

	mov	rcx, r10
	or	rdx, rdi
	shl	rsi, cl
	mov	QWORD PTR [rax-24], rdx
	mov	rcx, r9
	mov	rdi, QWORD PTR [r8-32]
	mov	rdx, rdi
	shr	rdx, cl

; 397  :             work = temp << n_lshift_bit_count; temp = pp[-5]; work |= temp >> n_rshift_bit_count; op[-5] = work;

	mov	rcx, r10
	or	rdx, rsi
	shl	rdi, cl
	mov	QWORD PTR [rax-32], rdx
	mov	rcx, r9
	mov	rsi, QWORD PTR [r8-40]
	mov	rdx, rsi
	shr	rdx, cl

; 398  :             work = temp << n_lshift_bit_count; temp = pp[-6]; work |= temp >> n_rshift_bit_count; op[-6] = work;

	mov	rcx, r10
	or	rdx, rdi
	shl	rsi, cl
	mov	QWORD PTR [rax-40], rdx
	mov	rcx, r9
	mov	rdi, QWORD PTR [r8-48]
	mov	rdx, rdi
	shr	rdx, cl

; 399  :             work = temp << n_lshift_bit_count; temp = pp[-7]; work |= temp >> n_rshift_bit_count; op[-7] = work;

	mov	rcx, r10
	or	rdx, rsi
	shl	rdi, cl
	mov	QWORD PTR [rax-48], rdx
	mov	rcx, r9
	mov	rsi, QWORD PTR [r8-56]

; 400  :             pp -= 8;

	sub	r8, 64					; 00000040H
	mov	rdx, rsi
	shr	rdx, cl
	or	rdx, rdi
	mov	QWORD PTR [rax-56], rdx

; 401  :             op -= 8;

	sub	rax, 64					; 00000040H
$LN8@LeftShift_:

; 402  :         }
; 403  : 
; 404  :         if (p_count & 0x4)

	test	r11b, 4
	je	SHORT $LN9@LeftShift_

; 405  :         {
; 406  :             work = temp << n_lshift_bit_count; temp = pp[-0]; work |= temp >> n_rshift_bit_count; op[-0] = work;

	mov	rdi, QWORD PTR [r8]
	mov	rcx, r10
	shl	rsi, cl
	mov	rdx, rdi
	mov	rcx, r9
	shr	rdx, cl

; 407  :             work = temp << n_lshift_bit_count; temp = pp[-1]; work |= temp >> n_rshift_bit_count; op[-1] = work;

	mov	rcx, r10
	or	rdx, rsi
	shl	rdi, cl
	mov	QWORD PTR [rax], rdx
	mov	rcx, r9
	mov	rsi, QWORD PTR [r8-8]
	mov	rdx, rsi
	shr	rdx, cl

; 408  :             work = temp << n_lshift_bit_count; temp = pp[-2]; work |= temp >> n_rshift_bit_count; op[-2] = work;

	mov	rcx, r10
	or	rdx, rdi
	shl	rsi, cl
	mov	QWORD PTR [rax-8], rdx
	mov	rcx, r9
	mov	rdi, QWORD PTR [r8-16]
	mov	rdx, rdi
	shr	rdx, cl

; 409  :             work = temp << n_lshift_bit_count; temp = pp[-3]; work |= temp >> n_rshift_bit_count; op[-3] = work;

	mov	rcx, r10
	or	rdx, rsi
	shl	rdi, cl
	mov	QWORD PTR [rax-16], rdx
	mov	rcx, r9
	mov	rsi, QWORD PTR [r8-24]

; 410  :             pp -= 4;

	sub	r8, 32					; 00000020H
	mov	rdx, rsi
	shr	rdx, cl
	or	rdx, rdi
	mov	QWORD PTR [rax-24], rdx

; 411  :             op -= 4;

	sub	rax, 32					; 00000020H
$LN9@LeftShift_:

; 412  :         }
; 413  : 
; 414  :         if (p_count & 0x2)

	test	r11b, 2
	je	SHORT $LN10@LeftShift_

; 415  :         {
; 416  :             work = temp << n_lshift_bit_count; temp = pp[-0]; work |= temp >> n_rshift_bit_count; op[-0] = work;

	mov	rdi, QWORD PTR [r8]
	mov	rcx, r10
	shl	rsi, cl
	mov	rdx, rdi
	mov	rcx, r9
	shr	rdx, cl

; 417  :             work = temp << n_lshift_bit_count; temp = pp[-1]; work |= temp >> n_rshift_bit_count; op[-1] = work;

	mov	rcx, r10
	or	rdx, rsi
	shl	rdi, cl
	mov	QWORD PTR [rax], rdx
	mov	rcx, r9
	mov	rsi, QWORD PTR [r8-8]

; 418  :             pp -= 2;

	sub	r8, 16
	mov	rdx, rsi
	shr	rdx, cl
	or	rdx, rdi
	mov	QWORD PTR [rax-8], rdx

; 419  :             op -= 2;

	sub	rax, 16
$LN10@LeftShift_:

; 420  :         }
; 421  : 
; 422  :         if (p_count & 0x1)

	test	r11b, 1
	je	SHORT $LN11@LeftShift_

; 423  :         {
; 424  :             work = temp << n_lshift_bit_count; temp = pp[-0]; work |= temp >> n_rshift_bit_count; op[-0] = work;

	mov	rcx, r10
	shl	rsi, cl
	mov	rcx, r9
	mov	rdi, rsi
	mov	rsi, QWORD PTR [r8]
	mov	rdx, rsi
	shr	rdx, cl
	or	rdx, rdi
	mov	QWORD PTR [rax], rdx

; 425  :             pp -= 1;
; 426  :             op -= 1;

	sub	rax, 8
$LN11@LeftShift_:

; 427  :         }
; 428  :         work = temp << n_lshift_bit_count;

	mov	rcx, r10
	shl	rsi, cl

; 429  :         *op = work;
; 430  : 
; 431  :         if (padding_zero)

	cmp	DWORD PTR padding_zero$[rsp], 0
	mov	QWORD PTR [rax], rsi
	je	SHORT $LN16@LeftShift_
; File z:\sources\lunor\repos\rougemeilland\palmtree.math.core.implements\palmtree.math.core.implements\pmc_internal.h

; 331  :     __stosq(d, 0, count);

	mov	rdi, r14
	xor	eax, eax
	mov	rcx, rbx
	rep stosq
$LN16@LeftShift_:
; File z:\sources\lunor\repos\rougemeilland\palmtree.math.core.implements\palmtree.math.core.implements\pmc_shift.c

; 434  : }

	mov	rbx, QWORD PTR [rsp+24]
	mov	rsi, QWORD PTR [rsp+32]
	mov	rdi, QWORD PTR [rsp+40]
	pop	r14
	ret	0
LeftShift_Imp ENDP
_TEXT	ENDS
; Function compile flags: /Ogtpy
; File z:\sources\lunor\repos\rougemeilland\palmtree.math.core.implements\palmtree.math.core.implements\pmc_shift.c
; File z:\sources\lunor\repos\rougemeilland\palmtree.math.core.implements\palmtree.math.core.implements\pmc_internal.h
; File z:\sources\lunor\repos\rougemeilland\palmtree.math.core.implements\palmtree.math.core.implements\pmc_shift.c
; File z:\sources\lunor\repos\rougemeilland\palmtree.math.core.implements\palmtree.math.core.implements\pmc_internal.h
; File z:\sources\lunor\repos\rougemeilland\palmtree.math.core.implements\palmtree.math.core.implements\pmc_shift.c
;	COMDAT RightShift_Imp
_TEXT	SEGMENT
p$ = 24
p_word_count$ = 32
n$ = 40
o$ = 48
padding_zero$ = 56
RightShift_Imp PROC					; COMDAT

; 38   : {

$LN110:
	mov	QWORD PTR [rsp+16], rbx
	mov	QWORD PTR [rsp+24], rbp
	mov	QWORD PTR [rsp+32], rsi
	push	rdi
	push	r15

; 39   :     __UNIT_TYPE* pp = p;
; 40   :     __UNIT_TYPE p_count = p_word_count;
; 41   :     __UNIT_TYPE* op = o;
; 42   :     // n_word_count ワード右に移動し、更に n_bit_count ビット右に移動する。
; 43   :     __UNIT_TYPE n_word_count = n / __UNIT_TYPE_BIT_COUNT;

	mov	rbp, r8
	mov	rbx, rdx
	shr	rbp, 6

; 44   :     __UNIT_TYPE n_rshift_bit_count = n % __UNIT_TYPE_BIT_COUNT;

	and	r8d, 63					; 0000003fH
	sub	rbx, rbp
	mov	r15, rcx
	lea	rsi, QWORD PTR [rcx+rbp*8]

; 45   :     if (n_rshift_bit_count == 0)

	test	r8, r8
	jne	SHORT $LN4@RightShift
; File z:\sources\lunor\repos\rougemeilland\palmtree.math.core.implements\palmtree.math.core.implements\pmc_internal.h

; 281  :     __movsq(d, s, count);

	mov	rdi, r9
	mov	rcx, rbx
	rep movsq
; File z:\sources\lunor\repos\rougemeilland\palmtree.math.core.implements\palmtree.math.core.implements\pmc_shift.c

; 168  : }

	mov	rbx, QWORD PTR [rsp+32]
	mov	rbp, QWORD PTR [rsp+40]
	mov	rsi, QWORD PTR [rsp+48]
	pop	r15
	pop	rdi
	ret	0
$LN4@RightShift:

; 46   :     {
; 47   :         // シフト数がちょうどワード境界分であれば単にワード単位のデータ移動のみ行う。
; 48   :         _COPY_MEMORY_UNIT(op, pp + n_word_count, p_count - n_word_count);
; 49   :     }
; 50   :     else
; 51   :     {
; 52   :         pp += n_word_count;
; 53   :         __UNIT_TYPE n_lshift_bit_count = __UNIT_TYPE_BIT_COUNT - n_rshift_bit_count;
; 54   :         // p_count - n_word_count 回繰り返し
; 55   : 
; 56   :         __UNIT_TYPE temp = *pp++;

	mov	rdi, QWORD PTR [rsi]

; 57   :         __UNIT_TYPE work;
; 58   :         __UNIT_TYPE t_count = p_count - n_word_count - 1;

	lea	r11, QWORD PTR [rbx-1]
	mov	QWORD PTR [rsp+24], r14
	mov	r10d, 64				; 00000040H

; 59   : 
; 60   :         __UNIT_TYPE count = t_count >> 5;

	mov	r14, r11
	sub	r10, r8
	shr	r14, 5
	add	rsi, 8

; 61   :         while ( count > 0)

	test	r14, r14
	je	$LN3@RightShift
	npad	12
$LL2@RightShift:

; 62   :         {
; 63   :             work = temp >> n_rshift_bit_count; temp = pp[0]; work |= temp << n_lshift_bit_count; op[0] = work;

	mov	rdx, QWORD PTR [rsi]
	mov	rcx, r8
	shr	rdi, cl
	mov	rax, rdx
	mov	rcx, r10
	shl	rax, cl
	mov	rcx, r8
	or	rax, rdi
	shr	rdx, cl
	mov	QWORD PTR [r9], rax
	mov	rcx, r10
	mov	rdi, QWORD PTR [rsi+8]
	mov	rax, rdi
	shl	rax, cl
	mov	rcx, r8
	or	rax, rdx
	shr	rdi, cl
	mov	QWORD PTR [r9+8], rax
	mov	rcx, r10
	mov	rdx, QWORD PTR [rsi+16]
	mov	rax, rdx
	shl	rax, cl
	mov	rcx, r8
	or	rax, rdi
	shr	rdx, cl
	mov	QWORD PTR [r9+16], rax
	mov	rcx, r10
	mov	rdi, QWORD PTR [rsi+24]
	mov	rax, rdi
	shl	rax, cl
	mov	rcx, r8
	or	rax, rdx
	shr	rdi, cl
	mov	QWORD PTR [r9+24], rax
	mov	rcx, r10
	mov	rdx, QWORD PTR [rsi+32]
	mov	rax, rdx
	shl	rax, cl
	mov	rcx, r8
	or	rax, rdi
	shr	rdx, cl
	mov	QWORD PTR [r9+32], rax
	mov	rcx, r10
	mov	rdi, QWORD PTR [rsi+40]
	mov	rax, rdi
	shl	rax, cl
	mov	rcx, r8
	or	rax, rdx
	shr	rdi, cl
	mov	QWORD PTR [r9+40], rax
	mov	rcx, r10
	mov	rdx, QWORD PTR [rsi+48]
	mov	rax, rdx
	shl	rax, cl
	mov	rcx, r8
	or	rax, rdi
	shr	rdx, cl
	mov	QWORD PTR [r9+48], rax
	mov	rcx, r10
	mov	rdi, QWORD PTR [rsi+56]
	mov	rax, rdi
	shl	rax, cl
	mov	rcx, r8
	or	rax, rdx
	shr	rdi, cl
	mov	QWORD PTR [r9+56], rax
	mov	rcx, r10
	mov	rdx, QWORD PTR [rsi+64]
	mov	rax, rdx
	shl	rax, cl
	mov	rcx, r8
	or	rax, rdi
	shr	rdx, cl
	mov	QWORD PTR [r9+64], rax
	mov	rcx, r10
	mov	rdi, QWORD PTR [rsi+72]
	mov	rax, rdi
	shl	rax, cl
	mov	rcx, r8
	or	rax, rdx
	mov	QWORD PTR [r9+72], rax
	mov	rdx, QWORD PTR [rsi+80]
	shr	rdi, cl
	mov	rax, rdx
	mov	rcx, r10
	shl	rax, cl
	mov	rcx, r8
	or	rax, rdi
	shr	rdx, cl
	mov	QWORD PTR [r9+80], rax
	mov	rcx, r10
	mov	rdi, QWORD PTR [rsi+88]
	mov	rax, rdi
	shl	rax, cl
	mov	rcx, r8
	or	rax, rdx
	shr	rdi, cl
	mov	QWORD PTR [r9+88], rax
	mov	rcx, r10
	mov	rdx, QWORD PTR [rsi+96]
	mov	rax, rdx
	shl	rax, cl
	mov	rcx, r8
	or	rax, rdi
	shr	rdx, cl
	mov	QWORD PTR [r9+96], rax
	mov	rcx, r10
	mov	rdi, QWORD PTR [rsi+104]
	mov	rax, rdi
	shl	rax, cl
	mov	rcx, r8
	or	rax, rdx
	shr	rdi, cl
	mov	QWORD PTR [r9+104], rax
	mov	rcx, r10
	mov	rdx, QWORD PTR [rsi+112]
	mov	rax, rdx
	shl	rax, cl
	mov	rcx, r8
	or	rax, rdi
	shr	rdx, cl
	mov	QWORD PTR [r9+112], rax
	mov	rcx, r10
	mov	rdi, QWORD PTR [rsi+120]
	mov	rax, rdi
	shl	rax, cl
	mov	rcx, r8
	or	rax, rdx
	shr	rdi, cl
	mov	QWORD PTR [r9+120], rax
	mov	rcx, r10
	mov	rdx, QWORD PTR [rsi+128]
	mov	rax, rdx
	shl	rax, cl
	mov	rcx, r8
	or	rax, rdi
	shr	rdx, cl
	mov	QWORD PTR [r9+128], rax
	mov	rcx, r10
	mov	rdi, QWORD PTR [rsi+136]
	mov	rax, rdi
	shl	rax, cl
	mov	rcx, r8
	or	rax, rdx
	shr	rdi, cl
	mov	QWORD PTR [r9+136], rax
	mov	rcx, r10
	mov	rdx, QWORD PTR [rsi+144]
	mov	rax, rdx
	shl	rax, cl
	mov	rcx, r8
	or	rax, rdi
	shr	rdx, cl
	mov	QWORD PTR [r9+144], rax
	mov	rcx, r10
	mov	rdi, QWORD PTR [rsi+152]
	mov	rax, rdi
	shl	rax, cl
	mov	rcx, r8
	or	rax, rdx
	mov	QWORD PTR [r9+152], rax
	shr	rdi, cl
	mov	rdx, QWORD PTR [rsi+160]
	mov	rcx, r10
	mov	rax, rdx
	shl	rax, cl
	mov	rcx, r8
	or	rax, rdi
	shr	rdx, cl
	mov	QWORD PTR [r9+160], rax
	mov	rcx, r10
	mov	rdi, QWORD PTR [rsi+168]
	mov	rax, rdi
	shl	rax, cl
	mov	rcx, r8
	or	rax, rdx
	shr	rdi, cl
	mov	QWORD PTR [r9+168], rax
	mov	rcx, r10
	mov	rdx, QWORD PTR [rsi+176]
	mov	rax, rdx
	shl	rax, cl
	mov	rcx, r8
	or	rax, rdi
	shr	rdx, cl
	mov	QWORD PTR [r9+176], rax
	mov	rcx, r10
	mov	rdi, QWORD PTR [rsi+184]
	mov	rax, rdi
	shl	rax, cl
	mov	rcx, r8
	or	rax, rdx
	shr	rdi, cl
	mov	QWORD PTR [r9+184], rax
	mov	rcx, r10
	mov	rdx, QWORD PTR [rsi+192]
	mov	rax, rdx
	shl	rax, cl
	mov	rcx, r8
	or	rax, rdi
	shr	rdx, cl
	mov	QWORD PTR [r9+192], rax
	mov	rcx, r10
	mov	rdi, QWORD PTR [rsi+200]
	mov	rax, rdi
	shl	rax, cl
	mov	rcx, r8
	or	rax, rdx
	shr	rdi, cl
	mov	QWORD PTR [r9+200], rax
	mov	rcx, r10
	mov	rdx, QWORD PTR [rsi+208]
	mov	rax, rdx
	shl	rax, cl
	mov	rcx, r8
	or	rax, rdi
	shr	rdx, cl
	mov	QWORD PTR [r9+208], rax
	mov	rcx, r10
	mov	rdi, QWORD PTR [rsi+216]
	mov	rax, rdi
	shl	rax, cl
	mov	rcx, r8
	or	rax, rdx
	shr	rdi, cl
	mov	QWORD PTR [r9+216], rax
	mov	rcx, r10
	mov	rdx, QWORD PTR [rsi+224]
	mov	rax, rdx
	shl	rax, cl
	mov	rcx, r8
	or	rax, rdi
	shr	rdx, cl
	mov	QWORD PTR [r9+224], rax
	mov	rcx, r10
	mov	rdi, QWORD PTR [rsi+232]
	mov	rax, rdi
	shl	rax, cl
	mov	rcx, r8
	or	rax, rdx
	mov	QWORD PTR [r9+232], rax
	mov	rdx, QWORD PTR [rsi+240]
	shr	rdi, cl
	mov	rcx, r10
	mov	rax, rdx
	shl	rax, cl
	mov	rcx, r8
	or	rax, rdi
	shr	rdx, cl
	mov	QWORD PTR [r9+240], rax
	mov	rcx, r10
	mov	rdi, QWORD PTR [rsi+248]

; 64   :             work = temp >> n_rshift_bit_count; temp = pp[1]; work |= temp << n_lshift_bit_count; op[1] = work;
; 65   :             work = temp >> n_rshift_bit_count; temp = pp[2]; work |= temp << n_lshift_bit_count; op[2] = work;
; 66   :             work = temp >> n_rshift_bit_count; temp = pp[3]; work |= temp << n_lshift_bit_count; op[3] = work;
; 67   :             work = temp >> n_rshift_bit_count; temp = pp[4]; work |= temp << n_lshift_bit_count; op[4] = work;
; 68   :             work = temp >> n_rshift_bit_count; temp = pp[5]; work |= temp << n_lshift_bit_count; op[5] = work;
; 69   :             work = temp >> n_rshift_bit_count; temp = pp[6]; work |= temp << n_lshift_bit_count; op[6] = work;
; 70   :             work = temp >> n_rshift_bit_count; temp = pp[7]; work |= temp << n_lshift_bit_count; op[7] = work;
; 71   :             work = temp >> n_rshift_bit_count; temp = pp[8]; work |= temp << n_lshift_bit_count; op[8] = work;
; 72   :             work = temp >> n_rshift_bit_count; temp = pp[9]; work |= temp << n_lshift_bit_count; op[9] = work;
; 73   :             work = temp >> n_rshift_bit_count; temp = pp[10]; work |= temp << n_lshift_bit_count; op[10] = work;
; 74   :             work = temp >> n_rshift_bit_count; temp = pp[11]; work |= temp << n_lshift_bit_count; op[11] = work;
; 75   :             work = temp >> n_rshift_bit_count; temp = pp[12]; work |= temp << n_lshift_bit_count; op[12] = work;
; 76   :             work = temp >> n_rshift_bit_count; temp = pp[13]; work |= temp << n_lshift_bit_count; op[13] = work;
; 77   :             work = temp >> n_rshift_bit_count; temp = pp[14]; work |= temp << n_lshift_bit_count; op[14] = work;
; 78   :             work = temp >> n_rshift_bit_count; temp = pp[15]; work |= temp << n_lshift_bit_count; op[15] = work;
; 79   :             work = temp >> n_rshift_bit_count; temp = pp[16]; work |= temp << n_lshift_bit_count; op[16] = work;
; 80   :             work = temp >> n_rshift_bit_count; temp = pp[17]; work |= temp << n_lshift_bit_count; op[17] = work;
; 81   :             work = temp >> n_rshift_bit_count; temp = pp[18]; work |= temp << n_lshift_bit_count; op[18] = work;
; 82   :             work = temp >> n_rshift_bit_count; temp = pp[19]; work |= temp << n_lshift_bit_count; op[19] = work;
; 83   :             work = temp >> n_rshift_bit_count; temp = pp[20]; work |= temp << n_lshift_bit_count; op[20] = work;
; 84   :             work = temp >> n_rshift_bit_count; temp = pp[21]; work |= temp << n_lshift_bit_count; op[21] = work;
; 85   :             work = temp >> n_rshift_bit_count; temp = pp[22]; work |= temp << n_lshift_bit_count; op[22] = work;
; 86   :             work = temp >> n_rshift_bit_count; temp = pp[23]; work |= temp << n_lshift_bit_count; op[23] = work;
; 87   :             work = temp >> n_rshift_bit_count; temp = pp[24]; work |= temp << n_lshift_bit_count; op[24] = work;
; 88   :             work = temp >> n_rshift_bit_count; temp = pp[25]; work |= temp << n_lshift_bit_count; op[25] = work;
; 89   :             work = temp >> n_rshift_bit_count; temp = pp[26]; work |= temp << n_lshift_bit_count; op[26] = work;
; 90   :             work = temp >> n_rshift_bit_count; temp = pp[27]; work |= temp << n_lshift_bit_count; op[27] = work;
; 91   :             work = temp >> n_rshift_bit_count; temp = pp[28]; work |= temp << n_lshift_bit_count; op[28] = work;
; 92   :             work = temp >> n_rshift_bit_count; temp = pp[29]; work |= temp << n_lshift_bit_count; op[29] = work;
; 93   :             work = temp >> n_rshift_bit_count; temp = pp[30]; work |= temp << n_lshift_bit_count; op[30] = work;
; 94   :             work = temp >> n_rshift_bit_count; temp = pp[31]; work |= temp << n_lshift_bit_count; op[31] = work;
; 95   :             --count;
; 96   :             pp += 32;

	add	rsi, 256				; 00000100H
	mov	rax, rdi
	shl	rax, cl
	or	rax, rdx
	mov	QWORD PTR [r9+248], rax

; 97   :             op += 32;

	add	r9, 256					; 00000100H
	sub	r14, 1
	jne	$LL2@RightShift
$LN3@RightShift:
	mov	r14, QWORD PTR [rsp+24]

; 98   :         }
; 99   : 
; 100  :         if (t_count & 0x10)

	test	r11b, 16
	je	$LN6@RightShift

; 101  :         {
; 102  :             work = temp >> n_rshift_bit_count; temp = pp[0]; work |= temp << n_lshift_bit_count; op[0] = work;

	mov	rdx, QWORD PTR [rsi]
	mov	rcx, r8
	shr	rdi, cl
	mov	rax, rdx
	mov	rcx, r10
	shl	rax, cl
	mov	rcx, r8
	or	rax, rdi
	shr	rdx, cl
	mov	QWORD PTR [r9], rax
	mov	rcx, r10
	mov	rdi, QWORD PTR [rsi+8]
	mov	rax, rdi
	shl	rax, cl
	mov	rcx, r8
	or	rax, rdx
	shr	rdi, cl
	mov	QWORD PTR [r9+8], rax
	mov	rcx, r10
	mov	rdx, QWORD PTR [rsi+16]
	mov	rax, rdx
	shl	rax, cl
	mov	rcx, r8
	or	rax, rdi
	shr	rdx, cl
	mov	QWORD PTR [r9+16], rax
	mov	rcx, r10
	mov	rdi, QWORD PTR [rsi+24]
	mov	rax, rdi
	shl	rax, cl
	mov	rcx, r8
	or	rax, rdx
	shr	rdi, cl
	mov	QWORD PTR [r9+24], rax
	mov	rcx, r10
	mov	rdx, QWORD PTR [rsi+32]
	mov	rax, rdx
	shl	rax, cl
	mov	rcx, r8
	or	rax, rdi
	shr	rdx, cl
	mov	QWORD PTR [r9+32], rax
	mov	rcx, r10
	mov	rdi, QWORD PTR [rsi+40]
	mov	rax, rdi
	shl	rax, cl
	mov	rcx, r8
	or	rax, rdx
	shr	rdi, cl
	mov	QWORD PTR [r9+40], rax
	mov	rcx, r10
	mov	rdx, QWORD PTR [rsi+48]
	mov	rax, rdx
	shl	rax, cl
	mov	rcx, r8
	or	rax, rdi
	shr	rdx, cl
	mov	QWORD PTR [r9+48], rax
	mov	rcx, r10
	mov	rdi, QWORD PTR [rsi+56]
	mov	rax, rdi
	shl	rax, cl
	mov	rcx, r8
	or	rax, rdx
	shr	rdi, cl
	mov	QWORD PTR [r9+56], rax
	mov	rcx, r10
	mov	rdx, QWORD PTR [rsi+64]
	mov	rax, rdx
	shl	rax, cl
	mov	rcx, r8
	or	rax, rdi
	shr	rdx, cl
	mov	QWORD PTR [r9+64], rax
	mov	rcx, r10
	mov	rdi, QWORD PTR [rsi+72]
	mov	rax, rdi
	shl	rax, cl
	mov	rcx, r8
	or	rax, rdx
	mov	QWORD PTR [r9+72], rax
	mov	rdx, QWORD PTR [rsi+80]
	shr	rdi, cl
	mov	rax, rdx
	mov	rcx, r10
	shl	rax, cl
	mov	rcx, r8
	or	rax, rdi
	shr	rdx, cl
	mov	QWORD PTR [r9+80], rax
	mov	rcx, r10
	mov	rdi, QWORD PTR [rsi+88]
	mov	rax, rdi
	shl	rax, cl
	mov	rcx, r8
	or	rax, rdx
	shr	rdi, cl
	mov	QWORD PTR [r9+88], rax
	mov	rcx, r10
	mov	rdx, QWORD PTR [rsi+96]
	mov	rax, rdx
	shl	rax, cl
	mov	rcx, r8
	or	rax, rdi
	shr	rdx, cl
	mov	QWORD PTR [r9+96], rax
	mov	rcx, r10
	mov	rdi, QWORD PTR [rsi+104]
	mov	rax, rdi
	shl	rax, cl
	mov	rcx, r8
	or	rax, rdx
	shr	rdi, cl
	mov	QWORD PTR [r9+104], rax
	mov	rcx, r10
	mov	rdx, QWORD PTR [rsi+112]
	mov	rax, rdx
	shl	rax, cl
	mov	rcx, r8
	or	rax, rdi
	shr	rdx, cl
	mov	QWORD PTR [r9+112], rax
	mov	rcx, r10
	mov	rdi, QWORD PTR [rsi+120]

; 103  :             work = temp >> n_rshift_bit_count; temp = pp[1]; work |= temp << n_lshift_bit_count; op[1] = work;
; 104  :             work = temp >> n_rshift_bit_count; temp = pp[2]; work |= temp << n_lshift_bit_count; op[2] = work;
; 105  :             work = temp >> n_rshift_bit_count; temp = pp[3]; work |= temp << n_lshift_bit_count; op[3] = work;
; 106  :             work = temp >> n_rshift_bit_count; temp = pp[4]; work |= temp << n_lshift_bit_count; op[4] = work;
; 107  :             work = temp >> n_rshift_bit_count; temp = pp[5]; work |= temp << n_lshift_bit_count; op[5] = work;
; 108  :             work = temp >> n_rshift_bit_count; temp = pp[6]; work |= temp << n_lshift_bit_count; op[6] = work;
; 109  :             work = temp >> n_rshift_bit_count; temp = pp[7]; work |= temp << n_lshift_bit_count; op[7] = work;
; 110  :             work = temp >> n_rshift_bit_count; temp = pp[8]; work |= temp << n_lshift_bit_count; op[8] = work;
; 111  :             work = temp >> n_rshift_bit_count; temp = pp[9]; work |= temp << n_lshift_bit_count; op[9] = work;
; 112  :             work = temp >> n_rshift_bit_count; temp = pp[10]; work |= temp << n_lshift_bit_count; op[10] = work;
; 113  :             work = temp >> n_rshift_bit_count; temp = pp[11]; work |= temp << n_lshift_bit_count; op[11] = work;
; 114  :             work = temp >> n_rshift_bit_count; temp = pp[12]; work |= temp << n_lshift_bit_count; op[12] = work;
; 115  :             work = temp >> n_rshift_bit_count; temp = pp[13]; work |= temp << n_lshift_bit_count; op[13] = work;
; 116  :             work = temp >> n_rshift_bit_count; temp = pp[14]; work |= temp << n_lshift_bit_count; op[14] = work;
; 117  :             work = temp >> n_rshift_bit_count; temp = pp[15]; work |= temp << n_lshift_bit_count; op[15] = work;
; 118  :             pp += 16;

	sub	rsi, -128				; ffffffffffffff80H
	mov	rax, rdi
	shl	rax, cl
	or	rax, rdx
	mov	QWORD PTR [r9+120], rax

; 119  :             op += 16;

	sub	r9, -128				; ffffffffffffff80H
$LN6@RightShift:

; 120  :         }
; 121  : 
; 122  :         if (t_count & 0x8)

	test	r11b, 8
	je	$LN7@RightShift

; 123  :         {
; 124  :             work = temp >> n_rshift_bit_count; temp = pp[0]; work |= temp << n_lshift_bit_count; op[0] = work;

	mov	rdx, QWORD PTR [rsi]
	mov	rcx, r8
	shr	rdi, cl
	mov	rax, rdx
	mov	rcx, r10
	shl	rax, cl
	mov	rcx, r8
	or	rax, rdi
	shr	rdx, cl
	mov	QWORD PTR [r9], rax
	mov	rcx, r10
	mov	rdi, QWORD PTR [rsi+8]
	mov	rax, rdi
	shl	rax, cl
	mov	rcx, r8
	or	rax, rdx
	shr	rdi, cl
	mov	QWORD PTR [r9+8], rax
	mov	rcx, r10
	mov	rdx, QWORD PTR [rsi+16]
	mov	rax, rdx
	shl	rax, cl
	mov	rcx, r8
	or	rax, rdi
	shr	rdx, cl
	mov	QWORD PTR [r9+16], rax
	mov	rcx, r10
	mov	rdi, QWORD PTR [rsi+24]
	mov	rax, rdi
	shl	rax, cl
	mov	rcx, r8
	or	rax, rdx
	shr	rdi, cl
	mov	QWORD PTR [r9+24], rax
	mov	rcx, r10
	mov	rdx, QWORD PTR [rsi+32]
	mov	rax, rdx
	shl	rax, cl
	mov	rcx, r8
	or	rax, rdi
	shr	rdx, cl
	mov	QWORD PTR [r9+32], rax
	mov	rcx, r10
	mov	rdi, QWORD PTR [rsi+40]
	mov	rax, rdi
	shl	rax, cl
	mov	rcx, r8
	or	rax, rdx
	shr	rdi, cl
	mov	QWORD PTR [r9+40], rax
	mov	rcx, r10
	mov	rdx, QWORD PTR [rsi+48]
	mov	rax, rdx
	shl	rax, cl
	mov	rcx, r8
	or	rax, rdi
	shr	rdx, cl
	mov	QWORD PTR [r9+48], rax
	mov	rcx, r10
	mov	rdi, QWORD PTR [rsi+56]

; 125  :             work = temp >> n_rshift_bit_count; temp = pp[1]; work |= temp << n_lshift_bit_count; op[1] = work;
; 126  :             work = temp >> n_rshift_bit_count; temp = pp[2]; work |= temp << n_lshift_bit_count; op[2] = work;
; 127  :             work = temp >> n_rshift_bit_count; temp = pp[3]; work |= temp << n_lshift_bit_count; op[3] = work;
; 128  :             work = temp >> n_rshift_bit_count; temp = pp[4]; work |= temp << n_lshift_bit_count; op[4] = work;
; 129  :             work = temp >> n_rshift_bit_count; temp = pp[5]; work |= temp << n_lshift_bit_count; op[5] = work;
; 130  :             work = temp >> n_rshift_bit_count; temp = pp[6]; work |= temp << n_lshift_bit_count; op[6] = work;
; 131  :             work = temp >> n_rshift_bit_count; temp = pp[7]; work |= temp << n_lshift_bit_count; op[7] = work;
; 132  :             pp += 8;

	add	rsi, 64					; 00000040H
	mov	rax, rdi
	shl	rax, cl
	or	rax, rdx
	mov	QWORD PTR [r9+56], rax

; 133  :             op += 8;

	add	r9, 64					; 00000040H
$LN7@RightShift:

; 134  :         }
; 135  : 
; 136  :         if (t_count & 0x4)

	test	r11b, 4
	je	SHORT $LN8@RightShift

; 137  :         {
; 138  :             work = temp >> n_rshift_bit_count; temp = pp[0]; work |= temp << n_lshift_bit_count; op[0] = work;

	mov	rdx, QWORD PTR [rsi]
	mov	rcx, r8
	shr	rdi, cl
	mov	rax, rdx
	mov	rcx, r10
	shl	rax, cl
	mov	rcx, r8
	or	rax, rdi
	shr	rdx, cl
	mov	QWORD PTR [r9], rax
	mov	rcx, r10
	mov	rdi, QWORD PTR [rsi+8]
	mov	rax, rdi
	shl	rax, cl
	mov	rcx, r8
	or	rax, rdx
	shr	rdi, cl
	mov	QWORD PTR [r9+8], rax
	mov	rcx, r10
	mov	rdx, QWORD PTR [rsi+16]
	mov	rax, rdx
	shl	rax, cl
	mov	rcx, r8
	or	rax, rdi
	shr	rdx, cl
	mov	QWORD PTR [r9+16], rax
	mov	rcx, r10
	mov	rdi, QWORD PTR [rsi+24]

; 139  :             work = temp >> n_rshift_bit_count; temp = pp[1]; work |= temp << n_lshift_bit_count; op[1] = work;
; 140  :             work = temp >> n_rshift_bit_count; temp = pp[2]; work |= temp << n_lshift_bit_count; op[2] = work;
; 141  :             work = temp >> n_rshift_bit_count; temp = pp[3]; work |= temp << n_lshift_bit_count; op[3] = work;
; 142  :             pp += 4;

	add	rsi, 32					; 00000020H
	mov	rax, rdi
	shl	rax, cl
	or	rax, rdx
	mov	QWORD PTR [r9+24], rax

; 143  :             op += 4;

	add	r9, 32					; 00000020H
$LN8@RightShift:

; 144  :         }
; 145  : 
; 146  :         if (t_count & 0x2)

	test	r11b, 2
	je	SHORT $LN9@RightShift

; 147  :         {
; 148  :             work = temp >> n_rshift_bit_count; temp = pp[0]; work |= temp << n_lshift_bit_count; op[0] = work;

	mov	rdx, QWORD PTR [rsi]
	mov	rcx, r8
	shr	rdi, cl
	mov	rax, rdx
	mov	rcx, r10
	shl	rax, cl
	mov	rcx, r8
	or	rax, rdi
	shr	rdx, cl
	mov	QWORD PTR [r9], rax
	mov	rcx, r10
	mov	rdi, QWORD PTR [rsi+8]

; 149  :             work = temp >> n_rshift_bit_count; temp = pp[1]; work |= temp << n_lshift_bit_count; op[1] = work;
; 150  :             pp += 2;

	add	rsi, 16
	mov	rax, rdi
	shl	rax, cl
	or	rax, rdx
	mov	QWORD PTR [r9+8], rax

; 151  :             op += 2;

	add	r9, 16
$LN9@RightShift:

; 152  :         }
; 153  : 
; 154  :         if (t_count & 0x1)

	test	r11b, 1
	je	SHORT $LN10@RightShift

; 155  :         {
; 156  :             work = temp >> n_rshift_bit_count; temp = pp[0]; work |= temp << n_lshift_bit_count; op[0] = work;

	mov	rcx, r8
	shr	rdi, cl
	mov	rcx, r10
	mov	rdx, rdi
	mov	rdi, QWORD PTR [rsi]
	mov	rax, rdi
	shl	rax, cl
	or	rax, rdx
	mov	QWORD PTR [r9], rax

; 157  :             pp += 1;
; 158  :             op += 1;

	add	r9, 8
$LN10@RightShift:

; 159  :         }
; 160  : 
; 161  :         work = temp >> n_rshift_bit_count;

	mov	rcx, r8
	shr	rdi, cl

; 162  :         if (work != 0)

	test	rdi, rdi
	je	SHORT $LN11@RightShift

; 163  :             *op = work;

	mov	QWORD PTR [r9], rdi
$LN11@RightShift:

; 164  : 
; 165  :         if (padding_zero)

	cmp	DWORD PTR padding_zero$[rsp], 0
	je	SHORT $LN16@RightShift

; 166  :             _ZERO_MEMORY_UNIT(p + p_word_count - n_word_count, n_word_count);

	lea	rdi, QWORD PTR [r15+rbx*8]
; File z:\sources\lunor\repos\rougemeilland\palmtree.math.core.implements\palmtree.math.core.implements\pmc_internal.h

; 331  :     __stosq(d, 0, count);

	xor	eax, eax
	mov	rcx, rbp
	rep stosq
$LN16@RightShift:
; File z:\sources\lunor\repos\rougemeilland\palmtree.math.core.implements\palmtree.math.core.implements\pmc_shift.c

; 168  : }

	mov	rbx, QWORD PTR [rsp+32]
	mov	rbp, QWORD PTR [rsp+40]
	mov	rsi, QWORD PTR [rsp+48]
	pop	r15
	pop	rdi
	ret	0
RightShift_Imp ENDP
_TEXT	ENDS
; Function compile flags: /Ogtpy
; File z:\sources\lunor\repos\rougemeilland\palmtree.math.core.implements\palmtree.math.core.implements\pmc_internal.h
;	COMDAT _ZERO_MEMORY_UNIT_DIV
_TEXT	SEGMENT
d$ = 8
count$ = 16
_ZERO_MEMORY_UNIT_DIV PROC				; COMDAT

; 338  : {

	mov	QWORD PTR [rsp+8], rdi
	mov	rdi, rcx

; 339  : #ifdef _M_IX86
; 340  :     __stosd((unsigned long*)d, 0, (unsigned long)count);
; 341  : #elif defined(_M_X64)
; 342  : #ifdef _MSC_VER
; 343  :     __stosd((unsigned long*)d, 0, (unsigned long)count);

	xor	eax, eax
	mov	ecx, edx
	rep stosd

; 344  : #elif defined(__GNUC__)
; 345  :     __stosq(d, 0, count);
; 346  : #else
; 347  : #error unknown compiler
; 348  : #endif
; 349  : #else
; 350  : #error unknown platform
; 351  : #endif
; 352  : }

	mov	rdi, QWORD PTR [rsp+8]
	ret	0
_ZERO_MEMORY_UNIT_DIV ENDP
_TEXT	ENDS
; Function compile flags: /Ogtpy
; File z:\sources\lunor\repos\rougemeilland\palmtree.math.core.implements\palmtree.math.core.implements\pmc_internal.h
;	COMDAT _ZERO_MEMORY_UNIT
_TEXT	SEGMENT
d$ = 8
count$ = 16
_ZERO_MEMORY_UNIT PROC					; COMDAT

; 327  : {

	mov	QWORD PTR [rsp+8], rdi

; 328  : #ifdef _M_IX86
; 329  :     __stosd((unsigned long*)d, 0, (unsigned long)count);
; 330  : #elif defined(_M_X64)
; 331  :     __stosq(d, 0, count);

	mov	rdi, rcx
	xor	eax, eax
	mov	rcx, rdx
	rep stosq

; 332  : #else
; 333  : #error unknown platform
; 334  : #endif
; 335  : }

	mov	rdi, QWORD PTR [rsp+8]
	ret	0
_ZERO_MEMORY_UNIT ENDP
_TEXT	ENDS
; Function compile flags: /Ogtpy
; File z:\sources\lunor\repos\rougemeilland\palmtree.math.core.implements\palmtree.math.core.implements\pmc_internal.h
;	COMDAT _COPY_MEMORY_UNIT_DIV
_TEXT	SEGMENT
d$ = 8
s$ = 16
count$ = 24
_COPY_MEMORY_UNIT_DIV PROC				; COMDAT

; 288  : {

	mov	QWORD PTR [rsp+8], rsi
	mov	QWORD PTR [rsp+16], rdi
	mov	rdi, rcx

; 289  : #ifdef _M_IX86
; 290  :     __movsd((unsigned long *)d, (unsigned long *)s, (unsigned long)count);
; 291  : #elif defined(_M_X64)
; 292  : #ifdef _MSC_VER
; 293  :     __movsd((unsigned long *)d, (unsigned long *)s, (unsigned long)count);

	mov	rsi, rdx
	mov	ecx, r8d
	rep movsd

; 294  : #elif defined(__GNUC__)
; 295  :     __movsq(d, s, count);
; 296  : #else
; 297  : #error unknown compiler
; 298  : #endif
; 299  : #else
; 300  : #error unknown platform
; 301  : #endif
; 302  : }

	mov	rsi, QWORD PTR [rsp+8]
	mov	rdi, QWORD PTR [rsp+16]
	ret	0
_COPY_MEMORY_UNIT_DIV ENDP
_TEXT	ENDS
; Function compile flags: /Ogtpy
; File z:\sources\lunor\repos\rougemeilland\palmtree.math.core.implements\palmtree.math.core.implements\pmc_internal.h
;	COMDAT _COPY_MEMORY_UNIT
_TEXT	SEGMENT
d$ = 8
s$ = 16
count$ = 24
_COPY_MEMORY_UNIT PROC					; COMDAT

; 277  : {

	mov	QWORD PTR [rsp+8], rsi
	mov	QWORD PTR [rsp+16], rdi

; 278  : #ifdef _M_IX86
; 279  :     __movsd((unsigned long *)d, (unsigned long *)s, (unsigned long)count);
; 280  : #elif defined(_M_X64)
; 281  :     __movsq(d, s, count);

	mov	rdi, rcx
	mov	rsi, rdx
	mov	rcx, r8
	rep movsq

; 282  : #else
; 283  : #error unknown platform
; 284  : #endif
; 285  : }

	mov	rsi, QWORD PTR [rsp+8]
	mov	rdi, QWORD PTR [rsp+16]
	ret	0
_COPY_MEMORY_UNIT ENDP
_TEXT	ENDS
; Function compile flags: /Ogtpy
; File z:\sources\lunor\repos\rougemeilland\palmtree.math.core.implements\palmtree.math.core.implements\pmc_shift.c
;	COMDAT PMC_LeftShift_X_L
_TEXT	SEGMENT
no$ = 64
p$ = 64
n$ = 72
o$ = 80
no_light_check_code$1 = 88
PMC_LeftShift_X_L PROC					; COMDAT

; 712  : {

$LN18:
	mov	QWORD PTR [rsp+16], rbx
	mov	QWORD PTR [rsp+24], rsi
	push	rdi
	sub	rsp, 48					; 00000030H
	mov	rdi, r8
	mov	rsi, rdx
	mov	rbx, rcx

; 713  :     if (__UNIT_TYPE_BIT_COUNT < sizeof(n) * 8)
; 714  :     {
; 715  :         // _UINT64_T が 1 ワードで表現しきれない処理系には対応しない
; 716  :         return (PMC_STATUS_NOT_SUPPORTED);
; 717  :     }
; 718  :     if (p == NULL)

	test	rcx, rcx
	je	$LN14@PMC_LeftSh

; 719  :         return (PMC_STATUS_ARGUMENT_ERROR);
; 720  :     if (o == NULL)

	test	r8, r8
	je	$LN14@PMC_LeftSh

; 722  :     NUMBER_HEADER* np = (NUMBER_HEADER*)p;
; 723  :     NUMBER_HEADER* no;
; 724  :     PMC_STATUS_CODE result;
; 725  :     if ((result = CheckNumber(np)) != PMC_STATUS_OK)

	call	CheckNumber
	test	eax, eax
	jne	$LN1@PMC_LeftSh

; 726  :         return (result);
; 727  :     if (np->IS_ZERO)

	test	BYTE PTR [rbx+32], 2
	je	SHORT $LN6@PMC_LeftSh

; 728  :         *o = &number_zero;

	lea	rax, OFFSET FLAT:number_zero

; 746  :         *o = no;
; 747  :     }
; 748  : #ifdef _DEBUG
; 749  :     if ((result = CheckNumber(*o)) != PMC_STATUS_OK)
; 750  :         return (result);
; 751  : #endif
; 752  :     return (PMC_STATUS_OK);

	mov	QWORD PTR [rdi], rax
	xor	eax, eax

; 753  : }

	mov	rbx, QWORD PTR [rsp+72]
	mov	rsi, QWORD PTR [rsp+80]
	add	rsp, 48					; 00000030H
	pop	rdi
	ret	0
$LN6@PMC_LeftSh:

; 729  :     else if (n == 0)

	test	rsi, rsi
	jne	SHORT $LN8@PMC_LeftSh

; 730  :     {
; 731  :         if ((result = DuplicateNumber(np, &no)) != PMC_STATUS_OK)

	lea	rdx, QWORD PTR no$[rsp]
	mov	rcx, rbx
	call	DuplicateNumber
	test	eax, eax
	jne	$LN1@PMC_LeftSh

; 746  :         *o = no;
; 747  :     }
; 748  : #ifdef _DEBUG
; 749  :     if ((result = CheckNumber(*o)) != PMC_STATUS_OK)
; 750  :         return (result);
; 751  : #endif
; 752  :     return (PMC_STATUS_OK);

	mov	rax, QWORD PTR no$[rsp]
	mov	QWORD PTR [rdi], rax
	xor	eax, eax

; 753  : }

	mov	rbx, QWORD PTR [rsp+72]
	mov	rsi, QWORD PTR [rsp+80]
	add	rsp, 48					; 00000030H
	pop	rdi
	ret	0
$LN8@PMC_LeftSh:

; 732  :             return (result);
; 733  :         *o = no;
; 734  :     }
; 735  :     else
; 736  :     {
; 737  :         __UNIT_TYPE p_bit_count = np->UNIT_BIT_COUNT;
; 738  :         __UNIT_TYPE o_bit_count = p_bit_count + (__UNIT_TYPE)n;

	mov	rdx, QWORD PTR [rbx+8]

; 739  :         __UNIT_TYPE no_light_check_code;
; 740  :         if ((result = AllocateNumber(&no, o_bit_count, &no_light_check_code)) != PMC_STATUS_OK)

	lea	r8, QWORD PTR no_light_check_code$1[rsp]
	add	rdx, rsi
	lea	rcx, QWORD PTR no$[rsp]
	call	AllocateNumber
	test	eax, eax
	jne	SHORT $LN1@PMC_LeftSh

; 741  :             return (result);
; 742  :         LeftShift_Imp(np->BLOCK, np->UNIT_WORD_COUNT, (__UNIT_TYPE)n, no->BLOCK, FALSE);

	mov	r9, QWORD PTR no$[rsp]
	mov	r8, rsi
	mov	rdx, QWORD PTR [rbx]
	mov	rcx, QWORD PTR [rbx+48]
	mov	DWORD PTR [rsp+32], eax
	mov	r9, QWORD PTR [r9+48]
	call	LeftShift_Imp

; 743  :         if ((result = CheckBlockLight(no->BLOCK, no_light_check_code)) != PMC_STATUS_OK)

	mov	rcx, QWORD PTR no$[rsp]
	mov	rdx, QWORD PTR no_light_check_code$1[rsp]
	mov	rcx, QWORD PTR [rcx+48]
	call	CheckBlockLight
	test	eax, eax
	jne	SHORT $LN1@PMC_LeftSh

; 744  :             return (result);
; 745  :         CommitNumber(no);

	mov	rcx, QWORD PTR no$[rsp]
	call	CommitNumber

; 746  :         *o = no;
; 747  :     }
; 748  : #ifdef _DEBUG
; 749  :     if ((result = CheckNumber(*o)) != PMC_STATUS_OK)
; 750  :         return (result);
; 751  : #endif
; 752  :     return (PMC_STATUS_OK);

	mov	rax, QWORD PTR no$[rsp]
	mov	QWORD PTR [rdi], rax
	xor	eax, eax

; 753  : }

	mov	rbx, QWORD PTR [rsp+72]
	mov	rsi, QWORD PTR [rsp+80]
	add	rsp, 48					; 00000030H
	pop	rdi
	ret	0
$LN14@PMC_LeftSh:

; 721  :         return (PMC_STATUS_ARGUMENT_ERROR);

	mov	eax, -1
$LN1@PMC_LeftSh:

; 753  : }

	mov	rbx, QWORD PTR [rsp+72]
	mov	rsi, QWORD PTR [rsp+80]
	add	rsp, 48					; 00000030H
	pop	rdi
	ret	0
PMC_LeftShift_X_L ENDP
_TEXT	ENDS
; Function compile flags: /Ogtpy
; File z:\sources\lunor\repos\rougemeilland\palmtree.math.core.implements\palmtree.math.core.implements\pmc_shift.c
;	COMDAT PMC_LeftShift_X_I
_TEXT	SEGMENT
no$ = 64
p$ = 64
n$ = 72
o$ = 80
no_light_check_code$1 = 88
PMC_LeftShift_X_I PROC					; COMDAT

; 668  : {

$LN18:
	mov	QWORD PTR [rsp+16], rbx
	mov	QWORD PTR [rsp+24], rsi
	push	rdi
	sub	rsp, 48					; 00000030H
	mov	esi, edx
	mov	rdi, r8
	mov	rbx, rcx

; 669  :     if (__UNIT_TYPE_BIT_COUNT < sizeof(n) * 8)
; 670  :     {
; 671  :         // _UINT32_T が 1 ワードで表現しきれない処理系には対応しない
; 672  :         return (PMC_STATUS_NOT_SUPPORTED);
; 673  :     }
; 674  :     if (p == NULL)

	test	rcx, rcx
	je	$LN14@PMC_LeftSh

; 675  :         return (PMC_STATUS_ARGUMENT_ERROR);
; 676  :     if (o == NULL)

	test	r8, r8
	je	$LN14@PMC_LeftSh

; 678  :     NUMBER_HEADER* np = (NUMBER_HEADER*)p;
; 679  :     NUMBER_HEADER* no;
; 680  :     PMC_STATUS_CODE result;
; 681  :     if ((result = CheckNumber(np)) != PMC_STATUS_OK)

	call	CheckNumber
	test	eax, eax
	jne	$LN1@PMC_LeftSh

; 682  :         return (result);
; 683  :     if (np->IS_ZERO)

	test	BYTE PTR [rbx+32], 2
	je	SHORT $LN6@PMC_LeftSh

; 684  :         *o = &number_zero;

	lea	rax, OFFSET FLAT:number_zero

; 702  :         *o = no;
; 703  :     }
; 704  : #ifdef _DEBUG
; 705  :     if ((result = CheckNumber(*o)) != PMC_STATUS_OK)
; 706  :         return (result);
; 707  : #endif
; 708  :     return (PMC_STATUS_OK);

	mov	QWORD PTR [rdi], rax
	xor	eax, eax

; 709  : }

	mov	rbx, QWORD PTR [rsp+72]
	mov	rsi, QWORD PTR [rsp+80]
	add	rsp, 48					; 00000030H
	pop	rdi
	ret	0
$LN6@PMC_LeftSh:

; 685  :     else if (n == 0)

	test	esi, esi
	jne	SHORT $LN8@PMC_LeftSh

; 686  :     {
; 687  :         if ((result = DuplicateNumber(np, &no)) != PMC_STATUS_OK)

	lea	rdx, QWORD PTR no$[rsp]
	mov	rcx, rbx
	call	DuplicateNumber
	test	eax, eax
	jne	$LN1@PMC_LeftSh

; 702  :         *o = no;
; 703  :     }
; 704  : #ifdef _DEBUG
; 705  :     if ((result = CheckNumber(*o)) != PMC_STATUS_OK)
; 706  :         return (result);
; 707  : #endif
; 708  :     return (PMC_STATUS_OK);

	mov	rax, QWORD PTR no$[rsp]
	mov	QWORD PTR [rdi], rax
	xor	eax, eax

; 709  : }

	mov	rbx, QWORD PTR [rsp+72]
	mov	rsi, QWORD PTR [rsp+80]
	add	rsp, 48					; 00000030H
	pop	rdi
	ret	0
$LN8@PMC_LeftSh:

; 688  :             return (result);
; 689  :         *o = no;
; 690  :     }
; 691  :     else
; 692  :     {
; 693  :         __UNIT_TYPE p_bit_count = np->UNIT_BIT_COUNT;
; 694  :         __UNIT_TYPE o_bit_count = p_bit_count + n;

	mov	rdx, QWORD PTR [rbx+8]

; 695  :         __UNIT_TYPE no_light_check_code;
; 696  :         if ((result = AllocateNumber(&no, o_bit_count, &no_light_check_code)) != PMC_STATUS_OK)

	lea	r8, QWORD PTR no_light_check_code$1[rsp]
	add	rdx, rsi
	lea	rcx, QWORD PTR no$[rsp]
	call	AllocateNumber
	test	eax, eax
	jne	SHORT $LN1@PMC_LeftSh

; 697  :             return (result);
; 698  :         LeftShift_Imp(np->BLOCK, np->UNIT_WORD_COUNT, n, no->BLOCK, FALSE);

	mov	r9, QWORD PTR no$[rsp]
	mov	r8, rsi
	mov	rdx, QWORD PTR [rbx]
	mov	rcx, QWORD PTR [rbx+48]
	mov	DWORD PTR [rsp+32], eax
	mov	r9, QWORD PTR [r9+48]
	call	LeftShift_Imp

; 699  :         if ((result = CheckBlockLight(no->BLOCK, no_light_check_code)) != PMC_STATUS_OK)

	mov	rcx, QWORD PTR no$[rsp]
	mov	rdx, QWORD PTR no_light_check_code$1[rsp]
	mov	rcx, QWORD PTR [rcx+48]
	call	CheckBlockLight
	test	eax, eax
	jne	SHORT $LN1@PMC_LeftSh

; 700  :             return (result);
; 701  :         CommitNumber(no);

	mov	rcx, QWORD PTR no$[rsp]
	call	CommitNumber

; 702  :         *o = no;
; 703  :     }
; 704  : #ifdef _DEBUG
; 705  :     if ((result = CheckNumber(*o)) != PMC_STATUS_OK)
; 706  :         return (result);
; 707  : #endif
; 708  :     return (PMC_STATUS_OK);

	mov	rax, QWORD PTR no$[rsp]
	mov	QWORD PTR [rdi], rax
	xor	eax, eax

; 709  : }

	mov	rbx, QWORD PTR [rsp+72]
	mov	rsi, QWORD PTR [rsp+80]
	add	rsp, 48					; 00000030H
	pop	rdi
	ret	0
$LN14@PMC_LeftSh:

; 677  :         return (PMC_STATUS_ARGUMENT_ERROR);

	mov	eax, -1
$LN1@PMC_LeftSh:

; 709  : }

	mov	rbx, QWORD PTR [rsp+72]
	mov	rsi, QWORD PTR [rsp+80]
	add	rsp, 48					; 00000030H
	pop	rdi
	ret	0
PMC_LeftShift_X_I ENDP
_TEXT	ENDS
; Function compile flags: /Ogtpy
; File z:\sources\lunor\repos\rougemeilland\palmtree.math.core.implements\palmtree.math.core.implements\pmc_shift.c
;	COMDAT PMC_RightShift_X_L
_TEXT	SEGMENT
no$ = 64
p$ = 64
n$ = 72
o$ = 80
no_light_check_code$1 = 88
PMC_RightShift_X_L PROC					; COMDAT

; 619  : {

$LN20:
	mov	QWORD PTR [rsp+16], rbx
	mov	QWORD PTR [rsp+24], rsi
	push	rdi
	sub	rsp, 48					; 00000030H
	mov	rdi, r8
	mov	rsi, rdx
	mov	rbx, rcx

; 620  :     if (__UNIT_TYPE_BIT_COUNT < sizeof(n) * 8)
; 621  :     {
; 622  :         // _UINT64_T が 1 ワードで表現しきれない処理系には対応しない
; 623  :         return (PMC_STATUS_NOT_SUPPORTED);
; 624  :     }
; 625  :     if (p == NULL)

	test	rcx, rcx
	je	$LN17@PMC_RightS

; 626  :         return (PMC_STATUS_ARGUMENT_ERROR);
; 627  :     if (o == NULL)

	test	r8, r8
	je	$LN17@PMC_RightS

; 629  :     NUMBER_HEADER* np = (NUMBER_HEADER*)p;
; 630  :     NUMBER_HEADER* no;
; 631  :     PMC_STATUS_CODE result;
; 632  :     if ((result = CheckNumber(np)) != PMC_STATUS_OK)

	call	CheckNumber
	test	eax, eax
	jne	$LN1@PMC_RightS

; 633  :         return (result);
; 634  :     if (np->IS_ZERO)

	test	BYTE PTR [rbx+32], 2
	jne	$LN16@PMC_RightS

; 635  :         *o = &number_zero;
; 636  :     else if (n == 0)

	test	rsi, rsi
	jne	SHORT $LN8@PMC_RightS

; 637  :     {
; 638  :         if ((result = DuplicateNumber(np, &no)) != PMC_STATUS_OK)

	lea	rdx, QWORD PTR no$[rsp]
	mov	rcx, rbx
	call	DuplicateNumber
	test	eax, eax
	jne	$LN1@PMC_RightS

; 639  :             return (result);
; 640  :         *o = no;

	mov	rax, QWORD PTR no$[rsp]

; 658  :         }
; 659  :     }
; 660  : #ifdef _DEBUG
; 661  :     if ((result = CheckNumber(*o)) != PMC_STATUS_OK)
; 662  :         return (result);
; 663  : #endif
; 664  :     return (PMC_STATUS_OK);

	mov	QWORD PTR [rdi], rax
	xor	eax, eax

; 665  : }

	mov	rbx, QWORD PTR [rsp+72]
	mov	rsi, QWORD PTR [rsp+80]
	add	rsp, 48					; 00000030H
	pop	rdi
	ret	0
$LN8@PMC_RightS:

; 641  :     }
; 642  :     else
; 643  :     {
; 644  :         __UNIT_TYPE p_bit_count = np->UNIT_BIT_COUNT;

	mov	rdx, QWORD PTR [rbx+8]

; 645  :         if (p_bit_count <= n)

	cmp	rdx, rsi
	jbe	SHORT $LN16@PMC_RightS

; 647  :         else
; 648  :         {
; 649  :             __UNIT_TYPE o_bit_count = p_bit_count - (__UNIT_TYPE)n;

	sub	rdx, rsi

; 650  :             __UNIT_TYPE no_light_check_code;
; 651  :             if ((result = AllocateNumber(&no, o_bit_count, &no_light_check_code)) != PMC_STATUS_OK)

	lea	r8, QWORD PTR no_light_check_code$1[rsp]
	lea	rcx, QWORD PTR no$[rsp]
	call	AllocateNumber
	test	eax, eax
	jne	SHORT $LN1@PMC_RightS

; 652  :                 return (result);
; 653  :             RightShift_Imp(np->BLOCK, np->UNIT_WORD_COUNT, (__UNIT_TYPE)n, no->BLOCK, FALSE);

	mov	r9, QWORD PTR no$[rsp]
	mov	r8, rsi
	mov	rdx, QWORD PTR [rbx]
	mov	rcx, QWORD PTR [rbx+48]
	mov	DWORD PTR [rsp+32], eax
	mov	r9, QWORD PTR [r9+48]
	call	RightShift_Imp

; 654  :             if ((result = CheckBlockLight(no->BLOCK, no_light_check_code)) != PMC_STATUS_OK)

	mov	rcx, QWORD PTR no$[rsp]
	mov	rdx, QWORD PTR no_light_check_code$1[rsp]
	mov	rcx, QWORD PTR [rcx+48]
	call	CheckBlockLight
	test	eax, eax
	jne	SHORT $LN1@PMC_RightS

; 655  :                 return (result);
; 656  :             CommitNumber(no);

	mov	rcx, QWORD PTR no$[rsp]
	call	CommitNumber

; 657  :             *o = no;

	mov	rax, QWORD PTR no$[rsp]

; 658  :         }
; 659  :     }
; 660  : #ifdef _DEBUG
; 661  :     if ((result = CheckNumber(*o)) != PMC_STATUS_OK)
; 662  :         return (result);
; 663  : #endif
; 664  :     return (PMC_STATUS_OK);

	mov	QWORD PTR [rdi], rax
	xor	eax, eax

; 665  : }

	mov	rbx, QWORD PTR [rsp+72]
	mov	rsi, QWORD PTR [rsp+80]
	add	rsp, 48					; 00000030H
	pop	rdi
	ret	0
$LN16@PMC_RightS:

; 646  :             *o = &number_zero;

	lea	rax, OFFSET FLAT:number_zero

; 658  :         }
; 659  :     }
; 660  : #ifdef _DEBUG
; 661  :     if ((result = CheckNumber(*o)) != PMC_STATUS_OK)
; 662  :         return (result);
; 663  : #endif
; 664  :     return (PMC_STATUS_OK);

	mov	QWORD PTR [rdi], rax
	xor	eax, eax

; 665  : }

	mov	rbx, QWORD PTR [rsp+72]
	mov	rsi, QWORD PTR [rsp+80]
	add	rsp, 48					; 00000030H
	pop	rdi
	ret	0
$LN17@PMC_RightS:

; 628  :         return (PMC_STATUS_ARGUMENT_ERROR);

	mov	eax, -1
$LN1@PMC_RightS:

; 665  : }

	mov	rbx, QWORD PTR [rsp+72]
	mov	rsi, QWORD PTR [rsp+80]
	add	rsp, 48					; 00000030H
	pop	rdi
	ret	0
PMC_RightShift_X_L ENDP
_TEXT	ENDS
; Function compile flags: /Ogtpy
; File z:\sources\lunor\repos\rougemeilland\palmtree.math.core.implements\palmtree.math.core.implements\pmc_shift.c
;	COMDAT PMC_RightShift_X_I
_TEXT	SEGMENT
no$ = 64
p$ = 64
n$ = 72
o$ = 80
no_light_check_code$1 = 88
PMC_RightShift_X_I PROC					; COMDAT

; 570  : {

$LN20:
	mov	QWORD PTR [rsp+16], rbx
	mov	QWORD PTR [rsp+24], rsi
	push	rdi
	sub	rsp, 48					; 00000030H
	mov	esi, edx
	mov	rdi, r8
	mov	rbx, rcx

; 571  :     if (__UNIT_TYPE_BIT_COUNT < sizeof(n) * 8)
; 572  :     {
; 573  :         // _UINT32_T が 1 ワードで表現しきれない処理系には対応しない
; 574  :         return (PMC_STATUS_NOT_SUPPORTED);
; 575  :     }
; 576  :     if (p == NULL)

	test	rcx, rcx
	je	$LN17@PMC_RightS

; 577  :         return (PMC_STATUS_ARGUMENT_ERROR);
; 578  :     if (o == NULL)

	test	r8, r8
	je	$LN17@PMC_RightS

; 580  :     NUMBER_HEADER* np = (NUMBER_HEADER*)p;
; 581  :     NUMBER_HEADER* no;
; 582  :     PMC_STATUS_CODE result;
; 583  :     if ((result = CheckNumber(np)) != PMC_STATUS_OK)

	call	CheckNumber
	test	eax, eax
	jne	$LN1@PMC_RightS

; 584  :         return (result);
; 585  :     if (np->IS_ZERO)

	test	BYTE PTR [rbx+32], 2
	jne	$LN16@PMC_RightS

; 586  :         *o = &number_zero;
; 587  :     else if (n == 0)

	test	esi, esi
	jne	SHORT $LN8@PMC_RightS

; 588  :     {
; 589  :         if ((result = DuplicateNumber(np, &no)) != PMC_STATUS_OK)

	lea	rdx, QWORD PTR no$[rsp]
	mov	rcx, rbx
	call	DuplicateNumber
	test	eax, eax
	jne	$LN1@PMC_RightS

; 590  :             return (result);
; 591  :         *o = no;

	mov	rax, QWORD PTR no$[rsp]

; 609  :         }
; 610  :     }
; 611  : #ifdef _DEBUG
; 612  :     if ((result = CheckNumber(*o)) != PMC_STATUS_OK)
; 613  :         return (result);
; 614  : #endif
; 615  :     return (PMC_STATUS_OK);

	mov	QWORD PTR [rdi], rax
	xor	eax, eax

; 616  : }

	mov	rbx, QWORD PTR [rsp+72]
	mov	rsi, QWORD PTR [rsp+80]
	add	rsp, 48					; 00000030H
	pop	rdi
	ret	0
$LN8@PMC_RightS:

; 592  :     }
; 593  :     else
; 594  :     {
; 595  :         __UNIT_TYPE p_bit_count = np->UNIT_BIT_COUNT;

	mov	rdx, QWORD PTR [rbx+8]

; 596  :         if (p_bit_count <= n)

	cmp	rdx, rsi
	jbe	SHORT $LN16@PMC_RightS

; 598  :         else
; 599  :         {
; 600  :             __UNIT_TYPE o_bit_count = p_bit_count - n;

	sub	rdx, rsi

; 601  :             __UNIT_TYPE no_light_check_code;
; 602  :             if ((result = AllocateNumber(&no, o_bit_count, &no_light_check_code)) != PMC_STATUS_OK)

	lea	r8, QWORD PTR no_light_check_code$1[rsp]
	lea	rcx, QWORD PTR no$[rsp]
	call	AllocateNumber
	test	eax, eax
	jne	SHORT $LN1@PMC_RightS

; 603  :                 return (result);
; 604  :             RightShift_Imp(np->BLOCK, np->UNIT_WORD_COUNT, n, no->BLOCK, FALSE);

	mov	r9, QWORD PTR no$[rsp]
	mov	r8, rsi
	mov	rdx, QWORD PTR [rbx]
	mov	rcx, QWORD PTR [rbx+48]
	mov	DWORD PTR [rsp+32], eax
	mov	r9, QWORD PTR [r9+48]
	call	RightShift_Imp

; 605  :             if ((result = CheckBlockLight(no->BLOCK, no_light_check_code)) != PMC_STATUS_OK)

	mov	rcx, QWORD PTR no$[rsp]
	mov	rdx, QWORD PTR no_light_check_code$1[rsp]
	mov	rcx, QWORD PTR [rcx+48]
	call	CheckBlockLight
	test	eax, eax
	jne	SHORT $LN1@PMC_RightS

; 606  :                 return (result);
; 607  :             CommitNumber(no);

	mov	rcx, QWORD PTR no$[rsp]
	call	CommitNumber

; 608  :             *o = no;

	mov	rax, QWORD PTR no$[rsp]

; 609  :         }
; 610  :     }
; 611  : #ifdef _DEBUG
; 612  :     if ((result = CheckNumber(*o)) != PMC_STATUS_OK)
; 613  :         return (result);
; 614  : #endif
; 615  :     return (PMC_STATUS_OK);

	mov	QWORD PTR [rdi], rax
	xor	eax, eax

; 616  : }

	mov	rbx, QWORD PTR [rsp+72]
	mov	rsi, QWORD PTR [rsp+80]
	add	rsp, 48					; 00000030H
	pop	rdi
	ret	0
$LN16@PMC_RightS:

; 597  :             *o = &number_zero;

	lea	rax, OFFSET FLAT:number_zero

; 609  :         }
; 610  :     }
; 611  : #ifdef _DEBUG
; 612  :     if ((result = CheckNumber(*o)) != PMC_STATUS_OK)
; 613  :         return (result);
; 614  : #endif
; 615  :     return (PMC_STATUS_OK);

	mov	QWORD PTR [rdi], rax
	xor	eax, eax

; 616  : }

	mov	rbx, QWORD PTR [rsp+72]
	mov	rsi, QWORD PTR [rsp+80]
	add	rsp, 48					; 00000030H
	pop	rdi
	ret	0
$LN17@PMC_RightS:

; 579  :         return (PMC_STATUS_ARGUMENT_ERROR);

	mov	eax, -1
$LN1@PMC_RightS:

; 616  : }

	mov	rbx, QWORD PTR [rsp+72]
	mov	rsi, QWORD PTR [rsp+80]
	add	rsp, 48					; 00000030H
	pop	rdi
	ret	0
PMC_RightShift_X_I ENDP
_TEXT	ENDS
; Function compile flags: /Ogtpy
; File z:\sources\lunor\repos\rougemeilland\palmtree.math.core.implements\palmtree.math.core.implements\pmc_shift.c
;	COMDAT Initialize_Shift
_TEXT	SEGMENT
feature$ = 8
Initialize_Shift PROC					; COMDAT

; 757  :     return (PMC_STATUS_OK);

	xor	eax, eax

; 758  : }

	ret	0
Initialize_Shift ENDP
_TEXT	ENDS
; Function compile flags: /Ogtpy
; File z:\sources\lunor\repos\rougemeilland\palmtree.math.core.implements\palmtree.math.core.implements\pmc_shift.c
; File z:\sources\lunor\repos\rougemeilland\palmtree.math.core.implements\palmtree.math.core.implements\pmc_internal.h
; File z:\sources\lunor\repos\rougemeilland\palmtree.math.core.implements\palmtree.math.core.implements\pmc_shift.c
; File z:\sources\lunor\repos\rougemeilland\palmtree.math.core.implements\palmtree.math.core.implements\pmc_internal.h
; File z:\sources\lunor\repos\rougemeilland\palmtree.math.core.implements\palmtree.math.core.implements\pmc_shift.c
; File z:\sources\lunor\repos\rougemeilland\palmtree.math.core.implements\palmtree.math.core.implements\pmc_internal.h
; File z:\sources\lunor\repos\rougemeilland\palmtree.math.core.implements\palmtree.math.core.implements\pmc_shift.c
;	COMDAT LeftShift_Imp_DIV
_TEXT	SEGMENT
p$ = 16
p_word_count$ = 24
n$ = 32
o$ = 40
padding_zero$ = 48
LeftShift_Imp_DIV PROC					; COMDAT

; 437  : {

$LN23:
	mov	QWORD PTR [rsp+16], rbx
	mov	QWORD PTR [rsp+24], rsi
	mov	QWORD PTR [rsp+32], rdi
	push	r14

; 438  :     __UNIT_TYPE_DIV* pp = p;
; 439  :     __UNIT_TYPE p_count = p_word_count;
; 440  :     __UNIT_TYPE_DIV* op = o;
; 441  :     __UNIT_TYPE n_word_count = n / __UNIT_TYPE_BIT_COUNT;

	mov	rbx, r8
	mov	r10, r8
	shr	rbx, 6
	mov	rdi, r9
	mov	r14, rcx

; 442  :     __UNIT_TYPE n_lshift_bit_count = n % __UNIT_TYPE_BIT_COUNT;

	and	r10d, 63				; 0000003fH

; 443  :     if (n_lshift_bit_count == 0)

	jne	SHORT $LN4@LeftShift_
; File z:\sources\lunor\repos\rougemeilland\palmtree.math.core.implements\palmtree.math.core.implements\pmc_internal.h

; 293  :     __movsd((unsigned long *)d, (unsigned long *)s, (unsigned long)count);

	mov	ecx, edx
; File z:\sources\lunor\repos\rougemeilland\palmtree.math.core.implements\palmtree.math.core.implements\pmc_shift.c

; 446  :         _COPY_MEMORY_UNIT_DIV(op + n_word_count, pp, p_count);

	lea	rdi, QWORD PTR [r9+rbx*4]
; File z:\sources\lunor\repos\rougemeilland\palmtree.math.core.implements\palmtree.math.core.implements\pmc_internal.h

; 293  :     __movsd((unsigned long *)d, (unsigned long *)s, (unsigned long)count);

	mov	rsi, r14
	rep movsd
; File z:\sources\lunor\repos\rougemeilland\palmtree.math.core.implements\palmtree.math.core.implements\pmc_shift.c

; 567  : }

	mov	rbx, QWORD PTR [rsp+24]
	mov	rsi, QWORD PTR [rsp+32]
	mov	rdi, QWORD PTR [rsp+40]
	pop	r14
	ret	0
$LN4@LeftShift_:

; 447  :     }
; 448  :     else
; 449  :     {
; 450  :         __UNIT_TYPE n_rshift_bit_count = __UNIT_TYPE_BIT_COUNT - n_lshift_bit_count;
; 451  :         pp += p_count - 1;
; 452  :         op += p_count + n_word_count;
; 453  :         p_count -= 1;
; 454  :         __UNIT_TYPE_DIV temp = *pp;

	mov	esi, DWORD PTR [rcx+rdx*4-4]
	lea	r8, QWORD PTR [rcx+rdx*4]
	lea	rax, QWORD PTR [rbx+rdx]
	mov	QWORD PTR [rsp+16], rbp
	lea	r11, QWORD PTR [rdx-1]
	mov	r9d, 64					; 00000040H
	sub	r9, r10
	lea	rax, QWORD PTR [rdi+rax*4]

; 455  :         __UNIT_TYPE_DIV work = temp >> n_rshift_bit_count;

	mov	rcx, r9
	mov	edx, esi
	shr	edx, cl

; 456  :         if (work != 0)

	test	edx, edx
	je	SHORT $LN6@LeftShift_

; 457  :             *op = work;

	mov	DWORD PTR [rax], edx
$LN6@LeftShift_:

; 458  :         --pp;
; 459  :         --op;
; 460  : 
; 461  :         __UNIT_TYPE count = p_count >> 5;

	mov	rbp, r11
	sub	r8, 8
	shr	rbp, 5
	sub	rax, 4

; 462  :         while (count != 0)

	test	rbp, rbp
	je	$LN3@LeftShift_
	npad	5
$LL2@LeftShift_:

; 463  :         {
; 464  :             work = temp << n_lshift_bit_count; temp = pp[-0]; work |= temp >> n_rshift_bit_count; op[-0] = work;

	mov	edi, DWORD PTR [r8]
	mov	rcx, r10
	shl	esi, cl
	mov	edx, edi
	mov	rcx, r9
	shr	edx, cl

; 465  :             work = temp << n_lshift_bit_count; temp = pp[-1]; work |= temp >> n_rshift_bit_count; op[-1] = work;

	mov	rcx, r10
	or	edx, esi
	shl	edi, cl
	mov	DWORD PTR [rax], edx
	mov	rcx, r9
	mov	esi, DWORD PTR [r8-4]
	mov	edx, esi
	shr	edx, cl

; 466  :             work = temp << n_lshift_bit_count; temp = pp[-2]; work |= temp >> n_rshift_bit_count; op[-2] = work;

	mov	rcx, r10
	or	edx, edi
	shl	esi, cl
	mov	DWORD PTR [rax-4], edx
	mov	rcx, r9
	mov	edi, DWORD PTR [r8-8]
	mov	edx, edi
	shr	edx, cl

; 467  :             work = temp << n_lshift_bit_count; temp = pp[-3]; work |= temp >> n_rshift_bit_count; op[-3] = work;

	mov	rcx, r10
	or	edx, esi
	shl	edi, cl
	mov	DWORD PTR [rax-8], edx
	mov	rcx, r9
	mov	esi, DWORD PTR [r8-12]
	mov	edx, esi
	shr	edx, cl

; 468  :             work = temp << n_lshift_bit_count; temp = pp[-4]; work |= temp >> n_rshift_bit_count; op[-4] = work;

	mov	rcx, r10
	or	edx, edi
	shl	esi, cl
	mov	DWORD PTR [rax-12], edx
	mov	rcx, r9
	mov	edi, DWORD PTR [r8-16]
	mov	edx, edi
	shr	edx, cl

; 469  :             work = temp << n_lshift_bit_count; temp = pp[-5]; work |= temp >> n_rshift_bit_count; op[-5] = work;

	mov	rcx, r10
	or	edx, esi
	shl	edi, cl
	mov	DWORD PTR [rax-16], edx
	mov	rcx, r9
	mov	esi, DWORD PTR [r8-20]
	mov	edx, esi
	shr	edx, cl

; 470  :             work = temp << n_lshift_bit_count; temp = pp[-6]; work |= temp >> n_rshift_bit_count; op[-6] = work;

	mov	rcx, r10
	or	edx, edi
	shl	esi, cl
	mov	DWORD PTR [rax-20], edx
	mov	rcx, r9
	mov	edi, DWORD PTR [r8-24]
	mov	edx, edi
	shr	edx, cl

; 471  :             work = temp << n_lshift_bit_count; temp = pp[-7]; work |= temp >> n_rshift_bit_count; op[-7] = work;

	mov	rcx, r10
	or	edx, esi
	shl	edi, cl
	mov	DWORD PTR [rax-24], edx
	mov	rcx, r9
	mov	esi, DWORD PTR [r8-28]
	mov	edx, esi
	shr	edx, cl

; 472  :             work = temp << n_lshift_bit_count; temp = pp[-8]; work |= temp >> n_rshift_bit_count; op[-8] = work;

	mov	rcx, r10
	or	edx, edi
	shl	esi, cl
	mov	DWORD PTR [rax-28], edx
	mov	rcx, r9
	mov	edi, DWORD PTR [r8-32]
	mov	edx, edi
	shr	edx, cl

; 473  :             work = temp << n_lshift_bit_count; temp = pp[-9]; work |= temp >> n_rshift_bit_count; op[-9] = work;

	mov	rcx, r10
	or	edx, esi
	shl	edi, cl
	mov	DWORD PTR [rax-32], edx
	mov	rcx, r9
	mov	esi, DWORD PTR [r8-36]
	mov	edx, esi
	shr	edx, cl

; 474  :             work = temp << n_lshift_bit_count; temp = pp[-10]; work |= temp >> n_rshift_bit_count; op[-10] = work;

	mov	rcx, r10
	or	edx, edi
	mov	DWORD PTR [rax-36], edx
	mov	edi, DWORD PTR [r8-40]
	mov	edx, edi
	shl	esi, cl
	mov	rcx, r9
	shr	edx, cl

; 475  :             work = temp << n_lshift_bit_count; temp = pp[-11]; work |= temp >> n_rshift_bit_count; op[-11] = work;

	mov	rcx, r10
	or	edx, esi
	shl	edi, cl
	mov	DWORD PTR [rax-40], edx
	mov	rcx, r9
	mov	esi, DWORD PTR [r8-44]
	mov	edx, esi
	shr	edx, cl

; 476  :             work = temp << n_lshift_bit_count; temp = pp[-12]; work |= temp >> n_rshift_bit_count; op[-12] = work;

	mov	rcx, r10
	or	edx, edi
	shl	esi, cl
	mov	DWORD PTR [rax-44], edx
	mov	rcx, r9
	mov	edi, DWORD PTR [r8-48]
	mov	edx, edi
	shr	edx, cl

; 477  :             work = temp << n_lshift_bit_count; temp = pp[-13]; work |= temp >> n_rshift_bit_count; op[-13] = work;

	mov	rcx, r10
	or	edx, esi
	shl	edi, cl
	mov	DWORD PTR [rax-48], edx
	mov	rcx, r9
	mov	esi, DWORD PTR [r8-52]
	mov	edx, esi
	shr	edx, cl

; 478  :             work = temp << n_lshift_bit_count; temp = pp[-14]; work |= temp >> n_rshift_bit_count; op[-14] = work;

	mov	rcx, r10
	or	edx, edi
	shl	esi, cl
	mov	DWORD PTR [rax-52], edx
	mov	rcx, r9
	mov	edi, DWORD PTR [r8-56]
	mov	edx, edi
	shr	edx, cl

; 479  :             work = temp << n_lshift_bit_count; temp = pp[-15]; work |= temp >> n_rshift_bit_count; op[-15] = work;

	mov	rcx, r10
	or	edx, esi
	shl	edi, cl
	mov	DWORD PTR [rax-56], edx
	mov	rcx, r9
	mov	esi, DWORD PTR [r8-60]
	mov	edx, esi
	shr	edx, cl

; 480  :             work = temp << n_lshift_bit_count; temp = pp[-16]; work |= temp >> n_rshift_bit_count; op[-16] = work;

	mov	rcx, r10
	or	edx, edi
	shl	esi, cl
	mov	DWORD PTR [rax-60], edx
	mov	rcx, r9
	mov	edi, DWORD PTR [r8-64]
	mov	edx, edi
	shr	edx, cl

; 481  :             work = temp << n_lshift_bit_count; temp = pp[-17]; work |= temp >> n_rshift_bit_count; op[-17] = work;

	mov	rcx, r10
	or	edx, esi
	shl	edi, cl
	mov	DWORD PTR [rax-64], edx
	mov	rcx, r9
	mov	esi, DWORD PTR [r8-68]
	mov	edx, esi
	shr	edx, cl

; 482  :             work = temp << n_lshift_bit_count; temp = pp[-18]; work |= temp >> n_rshift_bit_count; op[-18] = work;

	mov	rcx, r10
	or	edx, edi
	shl	esi, cl
	mov	DWORD PTR [rax-68], edx
	mov	rcx, r9
	mov	edi, DWORD PTR [r8-72]
	mov	edx, edi
	shr	edx, cl

; 483  :             work = temp << n_lshift_bit_count; temp = pp[-19]; work |= temp >> n_rshift_bit_count; op[-19] = work;

	mov	rcx, r10
	or	edx, esi
	shl	edi, cl
	mov	DWORD PTR [rax-72], edx
	mov	rcx, r9
	mov	esi, DWORD PTR [r8-76]
	mov	edx, esi
	shr	edx, cl

; 484  :             work = temp << n_lshift_bit_count; temp = pp[-20]; work |= temp >> n_rshift_bit_count; op[-20] = work;

	mov	rcx, r10
	or	edx, edi
	mov	DWORD PTR [rax-76], edx
	shl	esi, cl
	mov	edi, DWORD PTR [r8-80]
	mov	rcx, r9
	mov	edx, edi
	shr	edx, cl

; 485  :             work = temp << n_lshift_bit_count; temp = pp[-21]; work |= temp >> n_rshift_bit_count; op[-21] = work;

	mov	rcx, r10
	or	edx, esi
	shl	edi, cl
	mov	DWORD PTR [rax-80], edx
	mov	rcx, r9
	mov	esi, DWORD PTR [r8-84]
	mov	edx, esi
	shr	edx, cl

; 486  :             work = temp << n_lshift_bit_count; temp = pp[-22]; work |= temp >> n_rshift_bit_count; op[-22] = work;

	mov	rcx, r10
	or	edx, edi
	shl	esi, cl
	mov	DWORD PTR [rax-84], edx
	mov	rcx, r9
	mov	edi, DWORD PTR [r8-88]
	mov	edx, edi
	shr	edx, cl

; 487  :             work = temp << n_lshift_bit_count; temp = pp[-23]; work |= temp >> n_rshift_bit_count; op[-23] = work;

	mov	rcx, r10
	or	edx, esi
	shl	edi, cl
	mov	DWORD PTR [rax-88], edx
	mov	rcx, r9
	mov	esi, DWORD PTR [r8-92]
	mov	edx, esi
	shr	edx, cl

; 488  :             work = temp << n_lshift_bit_count; temp = pp[-24]; work |= temp >> n_rshift_bit_count; op[-24] = work;

	mov	rcx, r10
	or	edx, edi
	shl	esi, cl
	mov	DWORD PTR [rax-92], edx
	mov	rcx, r9
	mov	edi, DWORD PTR [r8-96]
	mov	edx, edi
	shr	edx, cl

; 489  :             work = temp << n_lshift_bit_count; temp = pp[-25]; work |= temp >> n_rshift_bit_count; op[-25] = work;

	mov	rcx, r10
	or	edx, esi
	shl	edi, cl
	mov	DWORD PTR [rax-96], edx
	mov	rcx, r9
	mov	esi, DWORD PTR [r8-100]
	mov	edx, esi
	shr	edx, cl

; 490  :             work = temp << n_lshift_bit_count; temp = pp[-26]; work |= temp >> n_rshift_bit_count; op[-26] = work;

	mov	rcx, r10
	or	edx, edi
	shl	esi, cl
	mov	DWORD PTR [rax-100], edx
	mov	rcx, r9
	mov	edi, DWORD PTR [r8-104]
	mov	edx, edi
	shr	edx, cl

; 491  :             work = temp << n_lshift_bit_count; temp = pp[-27]; work |= temp >> n_rshift_bit_count; op[-27] = work;

	mov	rcx, r10
	or	edx, esi
	shl	edi, cl
	mov	DWORD PTR [rax-104], edx
	mov	rcx, r9
	mov	esi, DWORD PTR [r8-108]
	mov	edx, esi
	shr	edx, cl

; 492  :             work = temp << n_lshift_bit_count; temp = pp[-28]; work |= temp >> n_rshift_bit_count; op[-28] = work;

	mov	rcx, r10
	or	edx, edi
	shl	esi, cl
	mov	DWORD PTR [rax-108], edx
	mov	rcx, r9
	mov	edi, DWORD PTR [r8-112]
	mov	edx, edi
	shr	edx, cl

; 493  :             work = temp << n_lshift_bit_count; temp = pp[-29]; work |= temp >> n_rshift_bit_count; op[-29] = work;

	mov	rcx, r10
	or	edx, esi
	shl	edi, cl
	mov	DWORD PTR [rax-112], edx
	mov	rcx, r9
	mov	esi, DWORD PTR [r8-116]
	mov	edx, esi
	shr	edx, cl

; 494  :             work = temp << n_lshift_bit_count; temp = pp[-30]; work |= temp >> n_rshift_bit_count; op[-30] = work;

	mov	rcx, r10
	or	edx, edi
	mov	DWORD PTR [rax-116], edx
	mov	edi, DWORD PTR [r8-120]
	shl	esi, cl
	mov	edx, edi
	mov	rcx, r9
	shr	edx, cl

; 495  :             work = temp << n_lshift_bit_count; temp = pp[-31]; work |= temp >> n_rshift_bit_count; op[-31] = work;

	mov	rcx, r10
	or	edx, esi
	shl	edi, cl
	mov	DWORD PTR [rax-120], edx
	mov	rcx, r9
	mov	esi, DWORD PTR [r8-124]
	mov	edx, esi
	shr	edx, cl

; 496  :             pp -= 32;

	add	r8, -128				; ffffffffffffff80H
	or	edx, edi
	mov	DWORD PTR [rax-124], edx

; 497  :             op -= 32;

	add	rax, -128				; ffffffffffffff80H

; 498  :             --count;

	sub	rbp, 1
	jne	$LL2@LeftShift_
$LN3@LeftShift_:
	mov	rbp, QWORD PTR [rsp+16]

; 499  :         }
; 500  : 
; 501  :         if (p_count & 0x10)

	test	r11b, 16
	je	$LN7@LeftShift_

; 502  :         {
; 503  :             work = temp << n_lshift_bit_count; temp = pp[-0]; work |= temp >> n_rshift_bit_count; op[-0] = work;

	mov	edi, DWORD PTR [r8]
	mov	rcx, r10
	shl	esi, cl
	mov	edx, edi
	mov	rcx, r9
	shr	edx, cl

; 504  :             work = temp << n_lshift_bit_count; temp = pp[-1]; work |= temp >> n_rshift_bit_count; op[-1] = work;

	mov	rcx, r10
	or	edx, esi
	shl	edi, cl
	mov	DWORD PTR [rax], edx
	mov	rcx, r9
	mov	esi, DWORD PTR [r8-4]
	mov	edx, esi
	shr	edx, cl

; 505  :             work = temp << n_lshift_bit_count; temp = pp[-2]; work |= temp >> n_rshift_bit_count; op[-2] = work;

	mov	rcx, r10
	or	edx, edi
	shl	esi, cl
	mov	DWORD PTR [rax-4], edx
	mov	rcx, r9
	mov	edi, DWORD PTR [r8-8]
	mov	edx, edi
	shr	edx, cl

; 506  :             work = temp << n_lshift_bit_count; temp = pp[-3]; work |= temp >> n_rshift_bit_count; op[-3] = work;

	mov	rcx, r10
	or	edx, esi
	shl	edi, cl
	mov	DWORD PTR [rax-8], edx
	mov	rcx, r9
	mov	esi, DWORD PTR [r8-12]
	mov	edx, esi
	shr	edx, cl

; 507  :             work = temp << n_lshift_bit_count; temp = pp[-4]; work |= temp >> n_rshift_bit_count; op[-4] = work;

	mov	rcx, r10
	or	edx, edi
	shl	esi, cl
	mov	DWORD PTR [rax-12], edx
	mov	rcx, r9
	mov	edi, DWORD PTR [r8-16]
	mov	edx, edi
	shr	edx, cl

; 508  :             work = temp << n_lshift_bit_count; temp = pp[-5]; work |= temp >> n_rshift_bit_count; op[-5] = work;

	mov	rcx, r10
	or	edx, esi
	shl	edi, cl
	mov	DWORD PTR [rax-16], edx
	mov	rcx, r9
	mov	esi, DWORD PTR [r8-20]
	mov	edx, esi
	shr	edx, cl

; 509  :             work = temp << n_lshift_bit_count; temp = pp[-6]; work |= temp >> n_rshift_bit_count; op[-6] = work;

	mov	rcx, r10
	or	edx, edi
	shl	esi, cl
	mov	DWORD PTR [rax-20], edx
	mov	rcx, r9
	mov	edi, DWORD PTR [r8-24]
	mov	edx, edi
	shr	edx, cl

; 510  :             work = temp << n_lshift_bit_count; temp = pp[-7]; work |= temp >> n_rshift_bit_count; op[-7] = work;

	mov	rcx, r10
	or	edx, esi
	shl	edi, cl
	mov	DWORD PTR [rax-24], edx
	mov	rcx, r9
	mov	esi, DWORD PTR [r8-28]
	mov	edx, esi
	shr	edx, cl

; 511  :             work = temp << n_lshift_bit_count; temp = pp[-8]; work |= temp >> n_rshift_bit_count; op[-8] = work;

	mov	rcx, r10
	or	edx, edi
	shl	esi, cl
	mov	DWORD PTR [rax-28], edx
	mov	rcx, r9
	mov	edi, DWORD PTR [r8-32]
	mov	edx, edi
	shr	edx, cl

; 512  :             work = temp << n_lshift_bit_count; temp = pp[-9]; work |= temp >> n_rshift_bit_count; op[-9] = work;

	mov	rcx, r10
	or	edx, esi
	shl	edi, cl
	mov	DWORD PTR [rax-32], edx
	mov	rcx, r9
	mov	esi, DWORD PTR [r8-36]
	mov	edx, esi
	shr	edx, cl

; 513  :             work = temp << n_lshift_bit_count; temp = pp[-10]; work |= temp >> n_rshift_bit_count; op[-10] = work;

	mov	rcx, r10
	or	edx, edi
	mov	DWORD PTR [rax-36], edx
	mov	edi, DWORD PTR [r8-40]
	mov	edx, edi
	shl	esi, cl
	mov	rcx, r9
	shr	edx, cl

; 514  :             work = temp << n_lshift_bit_count; temp = pp[-11]; work |= temp >> n_rshift_bit_count; op[-11] = work;

	mov	rcx, r10
	or	edx, esi
	shl	edi, cl
	mov	DWORD PTR [rax-40], edx
	mov	rcx, r9
	mov	esi, DWORD PTR [r8-44]
	mov	edx, esi
	shr	edx, cl

; 515  :             work = temp << n_lshift_bit_count; temp = pp[-12]; work |= temp >> n_rshift_bit_count; op[-12] = work;

	mov	rcx, r10
	or	edx, edi
	shl	esi, cl
	mov	DWORD PTR [rax-44], edx
	mov	rcx, r9
	mov	edi, DWORD PTR [r8-48]
	mov	edx, edi
	shr	edx, cl

; 516  :             work = temp << n_lshift_bit_count; temp = pp[-13]; work |= temp >> n_rshift_bit_count; op[-13] = work;

	mov	rcx, r10
	or	edx, esi
	shl	edi, cl
	mov	DWORD PTR [rax-48], edx
	mov	rcx, r9
	mov	esi, DWORD PTR [r8-52]
	mov	edx, esi
	shr	edx, cl

; 517  :             work = temp << n_lshift_bit_count; temp = pp[-14]; work |= temp >> n_rshift_bit_count; op[-14] = work;

	mov	rcx, r10
	or	edx, edi
	shl	esi, cl
	mov	DWORD PTR [rax-52], edx
	mov	rcx, r9
	mov	edi, DWORD PTR [r8-56]
	mov	edx, edi
	shr	edx, cl

; 518  :             work = temp << n_lshift_bit_count; temp = pp[-15]; work |= temp >> n_rshift_bit_count; op[-15] = work;

	mov	rcx, r10
	or	edx, esi
	shl	edi, cl
	mov	DWORD PTR [rax-56], edx
	mov	rcx, r9
	mov	esi, DWORD PTR [r8-60]
	mov	edx, esi
	shr	edx, cl

; 519  :             pp -= 16;

	sub	r8, 64					; 00000040H
	or	edx, edi
	mov	DWORD PTR [rax-60], edx

; 520  :             op -= 16;

	sub	rax, 64					; 00000040H
$LN7@LeftShift_:

; 521  :         }
; 522  : 
; 523  :         if (p_count & 0x8)

	test	r11b, 8
	je	$LN8@LeftShift_

; 524  :         {
; 525  :             work = temp << n_lshift_bit_count; temp = pp[-0]; work |= temp >> n_rshift_bit_count; op[-0] = work;

	mov	edi, DWORD PTR [r8]
	mov	rcx, r10
	shl	esi, cl
	mov	edx, edi
	mov	rcx, r9
	shr	edx, cl

; 526  :             work = temp << n_lshift_bit_count; temp = pp[-1]; work |= temp >> n_rshift_bit_count; op[-1] = work;

	mov	rcx, r10
	or	edx, esi
	shl	edi, cl
	mov	DWORD PTR [rax], edx
	mov	rcx, r9
	mov	esi, DWORD PTR [r8-4]
	mov	edx, esi
	shr	edx, cl

; 527  :             work = temp << n_lshift_bit_count; temp = pp[-2]; work |= temp >> n_rshift_bit_count; op[-2] = work;

	mov	rcx, r10
	or	edx, edi
	shl	esi, cl
	mov	DWORD PTR [rax-4], edx
	mov	rcx, r9
	mov	edi, DWORD PTR [r8-8]
	mov	edx, edi
	shr	edx, cl

; 528  :             work = temp << n_lshift_bit_count; temp = pp[-3]; work |= temp >> n_rshift_bit_count; op[-3] = work;

	mov	rcx, r10
	or	edx, esi
	shl	edi, cl
	mov	DWORD PTR [rax-8], edx
	mov	rcx, r9
	mov	esi, DWORD PTR [r8-12]
	mov	edx, esi
	shr	edx, cl

; 529  :             work = temp << n_lshift_bit_count; temp = pp[-4]; work |= temp >> n_rshift_bit_count; op[-4] = work;

	mov	rcx, r10
	or	edx, edi
	shl	esi, cl
	mov	DWORD PTR [rax-12], edx
	mov	rcx, r9
	mov	edi, DWORD PTR [r8-16]
	mov	edx, edi
	shr	edx, cl

; 530  :             work = temp << n_lshift_bit_count; temp = pp[-5]; work |= temp >> n_rshift_bit_count; op[-5] = work;

	mov	rcx, r10
	or	edx, esi
	shl	edi, cl
	mov	DWORD PTR [rax-16], edx
	mov	rcx, r9
	mov	esi, DWORD PTR [r8-20]
	mov	edx, esi
	shr	edx, cl

; 531  :             work = temp << n_lshift_bit_count; temp = pp[-6]; work |= temp >> n_rshift_bit_count; op[-6] = work;

	mov	rcx, r10
	or	edx, edi
	shl	esi, cl
	mov	DWORD PTR [rax-20], edx
	mov	rcx, r9
	mov	edi, DWORD PTR [r8-24]
	mov	edx, edi
	shr	edx, cl

; 532  :             work = temp << n_lshift_bit_count; temp = pp[-7]; work |= temp >> n_rshift_bit_count; op[-7] = work;

	mov	rcx, r10
	or	edx, esi
	shl	edi, cl
	mov	DWORD PTR [rax-24], edx
	mov	rcx, r9
	mov	esi, DWORD PTR [r8-28]
	mov	edx, esi
	shr	edx, cl

; 533  :             pp -= 8;

	sub	r8, 32					; 00000020H
	or	edx, edi
	mov	DWORD PTR [rax-28], edx

; 534  :             op -= 8;

	sub	rax, 32					; 00000020H
$LN8@LeftShift_:

; 535  :         }
; 536  : 
; 537  :         if (p_count & 0x4)

	test	r11b, 4
	je	SHORT $LN9@LeftShift_

; 538  :         {
; 539  :             work = temp << n_lshift_bit_count; temp = pp[-0]; work |= temp >> n_rshift_bit_count; op[-0] = work;

	mov	edi, DWORD PTR [r8]
	mov	rcx, r10
	shl	esi, cl
	mov	edx, edi
	mov	rcx, r9
	shr	edx, cl

; 540  :             work = temp << n_lshift_bit_count; temp = pp[-1]; work |= temp >> n_rshift_bit_count; op[-1] = work;

	mov	rcx, r10
	or	edx, esi
	shl	edi, cl
	mov	DWORD PTR [rax], edx
	mov	rcx, r9
	mov	esi, DWORD PTR [r8-4]
	mov	edx, esi
	shr	edx, cl

; 541  :             work = temp << n_lshift_bit_count; temp = pp[-2]; work |= temp >> n_rshift_bit_count; op[-2] = work;

	mov	rcx, r10
	or	edx, edi
	shl	esi, cl
	mov	DWORD PTR [rax-4], edx
	mov	rcx, r9
	mov	edi, DWORD PTR [r8-8]
	mov	edx, edi
	shr	edx, cl

; 542  :             work = temp << n_lshift_bit_count; temp = pp[-3]; work |= temp >> n_rshift_bit_count; op[-3] = work;

	mov	rcx, r10
	or	edx, esi
	shl	edi, cl
	mov	DWORD PTR [rax-8], edx
	mov	rcx, r9
	mov	esi, DWORD PTR [r8-12]
	mov	edx, esi
	shr	edx, cl

; 543  :             pp -= 4;

	sub	r8, 16
	or	edx, edi
	mov	DWORD PTR [rax-12], edx

; 544  :             op -= 4;

	sub	rax, 16
$LN9@LeftShift_:

; 545  :         }
; 546  : 
; 547  :         if (p_count & 0x2)

	test	r11b, 2
	je	SHORT $LN10@LeftShift_

; 548  :         {
; 549  :             work = temp << n_lshift_bit_count; temp = pp[-0]; work |= temp >> n_rshift_bit_count; op[-0] = work;

	mov	edi, DWORD PTR [r8]
	mov	rcx, r10
	shl	esi, cl
	mov	edx, edi
	mov	rcx, r9
	shr	edx, cl

; 550  :             work = temp << n_lshift_bit_count; temp = pp[-1]; work |= temp >> n_rshift_bit_count; op[-1] = work;

	mov	rcx, r10
	or	edx, esi
	shl	edi, cl
	mov	DWORD PTR [rax], edx
	mov	rcx, r9
	mov	esi, DWORD PTR [r8-4]
	mov	edx, esi
	shr	edx, cl

; 551  :             pp -= 2;

	sub	r8, 8
	or	edx, edi
	mov	DWORD PTR [rax-4], edx

; 552  :             op -= 2;

	sub	rax, 8
$LN10@LeftShift_:

; 553  :         }
; 554  : 
; 555  :         if (p_count & 0x1)

	test	r11b, 1
	je	SHORT $LN11@LeftShift_

; 556  :         {
; 557  :             work = temp << n_lshift_bit_count; temp = pp[-0]; work |= temp >> n_rshift_bit_count; op[-0] = work;

	mov	rcx, r10
	shl	esi, cl
	mov	rcx, r9
	mov	edi, esi
	mov	esi, DWORD PTR [r8]
	mov	edx, esi
	shr	edx, cl
	or	edx, edi
	mov	DWORD PTR [rax], edx

; 558  :             pp -= 1;
; 559  :             op -= 1;

	sub	rax, 4
$LN11@LeftShift_:

; 560  :         }
; 561  :         work = temp << n_lshift_bit_count;

	mov	rcx, r10
	shl	esi, cl

; 562  :         *op = work;
; 563  : 
; 564  :         if (padding_zero)

	cmp	DWORD PTR padding_zero$[rsp], 0
	mov	DWORD PTR [rax], esi
	je	SHORT $LN16@LeftShift_
; File z:\sources\lunor\repos\rougemeilland\palmtree.math.core.implements\palmtree.math.core.implements\pmc_internal.h

; 343  :     __stosd((unsigned long*)d, 0, (unsigned long)count);

	mov	ecx, ebx
	mov	rdi, r14
	xor	eax, eax
	rep stosd
$LN16@LeftShift_:
; File z:\sources\lunor\repos\rougemeilland\palmtree.math.core.implements\palmtree.math.core.implements\pmc_shift.c

; 567  : }

	mov	rbx, QWORD PTR [rsp+24]
	mov	rsi, QWORD PTR [rsp+32]
	mov	rdi, QWORD PTR [rsp+40]
	pop	r14
	ret	0
LeftShift_Imp_DIV ENDP
_TEXT	ENDS
; Function compile flags: /Ogtpy
; File z:\sources\lunor\repos\rougemeilland\palmtree.math.core.implements\palmtree.math.core.implements\pmc_shift.c
; File z:\sources\lunor\repos\rougemeilland\palmtree.math.core.implements\palmtree.math.core.implements\pmc_internal.h
; File z:\sources\lunor\repos\rougemeilland\palmtree.math.core.implements\palmtree.math.core.implements\pmc_shift.c
; File z:\sources\lunor\repos\rougemeilland\palmtree.math.core.implements\palmtree.math.core.implements\pmc_internal.h
; File z:\sources\lunor\repos\rougemeilland\palmtree.math.core.implements\palmtree.math.core.implements\pmc_shift.c
; File z:\sources\lunor\repos\rougemeilland\palmtree.math.core.implements\palmtree.math.core.implements\pmc_internal.h
; File z:\sources\lunor\repos\rougemeilland\palmtree.math.core.implements\palmtree.math.core.implements\pmc_shift.c
;	COMDAT RightShift_Imp_DIV
_TEXT	SEGMENT
p$ = 24
p_word_count$ = 32
n$ = 40
o$ = 48
padding_zero$ = 56
RightShift_Imp_DIV PROC					; COMDAT

; 171  : {

$LN104:
	mov	QWORD PTR [rsp+24], rbp
	mov	QWORD PTR [rsp+32], rsi
	push	rdi
	push	r15

; 172  :     __UNIT_TYPE_DIV* pp = p;
; 173  :     __UNIT_TYPE p_count = p_word_count;
; 174  :     __UNIT_TYPE_DIV* op = o;
; 175  :     // n_word_count ワード右に移動し、更に n_bit_count ビット右に移動する。
; 176  :     __UNIT_TYPE n_word_count = n / __UNIT_TYPE_BIT_COUNT;

	mov	rbp, r8
	mov	r11, rdx
	shr	rbp, 6
	mov	r15, rcx

; 177  :     __UNIT_TYPE n_rshift_bit_count = n % __UNIT_TYPE_BIT_COUNT;

	lea	rsi, QWORD PTR [rcx+rbp*4]
	and	r8d, 63					; 0000003fH

; 178  :     if (n_rshift_bit_count == 0)

	jne	SHORT $LN4@RightShift

; 179  :     {
; 180  :         // シフト数がちょうどワード境界分であれば単にワード単位のデータ移動のみ行う。
; 181  :         _COPY_MEMORY_UNIT_DIV(op, pp + n_word_count, p_count - n_word_count);

	sub	r11d, ebp
; File z:\sources\lunor\repos\rougemeilland\palmtree.math.core.implements\palmtree.math.core.implements\pmc_internal.h

; 293  :     __movsd((unsigned long *)d, (unsigned long *)s, (unsigned long)count);

	mov	rdi, r9
	mov	ecx, r11d
	rep movsd
; File z:\sources\lunor\repos\rougemeilland\palmtree.math.core.implements\palmtree.math.core.implements\pmc_shift.c

; 301  : }

	mov	rbp, QWORD PTR [rsp+40]
	mov	rsi, QWORD PTR [rsp+48]
	pop	r15
	pop	rdi
	ret	0
$LN4@RightShift:

; 182  :     }
; 183  :     else
; 184  :     {
; 185  :         pp += n_word_count;
; 186  :         __UNIT_TYPE n_lshift_bit_count = __UNIT_TYPE_BIT_COUNT - n_rshift_bit_count;
; 187  :         // p_count - n_word_count 回繰り返し
; 188  : 
; 189  :         __UNIT_TYPE_DIV temp = *pp++;

	mov	edi, DWORD PTR [rsi]

; 190  :         __UNIT_TYPE_DIV work;
; 191  :         __UNIT_TYPE t_count = p_count - n_word_count - 1;

	sub	r11, rbp
	mov	QWORD PTR [rsp+24], rbx
	mov	r10d, 64				; 00000040H
	mov	QWORD PTR [rsp+32], r14
	sub	r10, r8
	add	rsi, 4
	lea	rbx, QWORD PTR [r11-1]

; 192  : 
; 193  :         __UNIT_TYPE count = t_count >> 5;

	mov	r14, rbx
	shr	r14, 5

; 194  :         while (count > 0)

	test	r14, r14
	je	$LN3@RightShift
	npad	3
$LL2@RightShift:

; 195  :         {
; 196  :             work = temp >> n_rshift_bit_count; temp = pp[0]; work |= temp << n_lshift_bit_count; op[0] = work;

	mov	edx, DWORD PTR [rsi]
	mov	rcx, r8
	shr	edi, cl
	mov	eax, edx
	mov	rcx, r10
	shl	eax, cl
	mov	rcx, r8
	or	eax, edi
	shr	edx, cl
	mov	DWORD PTR [r9], eax
	mov	rcx, r10
	mov	edi, DWORD PTR [rsi+4]
	mov	eax, edi
	shl	eax, cl
	mov	rcx, r8
	or	eax, edx
	shr	edi, cl
	mov	DWORD PTR [r9+4], eax
	mov	rcx, r10
	mov	edx, DWORD PTR [rsi+8]
	mov	eax, edx
	shl	eax, cl
	mov	rcx, r8
	or	eax, edi
	shr	edx, cl
	mov	DWORD PTR [r9+8], eax
	mov	rcx, r10
	mov	edi, DWORD PTR [rsi+12]
	mov	eax, edi
	shl	eax, cl
	mov	rcx, r8
	or	eax, edx
	shr	edi, cl
	mov	DWORD PTR [r9+12], eax
	mov	rcx, r10
	mov	edx, DWORD PTR [rsi+16]
	mov	eax, edx
	shl	eax, cl
	mov	rcx, r8
	or	eax, edi
	shr	edx, cl
	mov	DWORD PTR [r9+16], eax
	mov	rcx, r10
	mov	edi, DWORD PTR [rsi+20]
	mov	eax, edi
	shl	eax, cl
	mov	rcx, r8
	or	eax, edx
	shr	edi, cl
	mov	DWORD PTR [r9+20], eax
	mov	rcx, r10
	mov	edx, DWORD PTR [rsi+24]
	mov	eax, edx
	shl	eax, cl
	mov	rcx, r8
	or	eax, edi
	shr	edx, cl
	mov	DWORD PTR [r9+24], eax
	mov	rcx, r10
	mov	edi, DWORD PTR [rsi+28]
	mov	eax, edi
	shl	eax, cl
	mov	rcx, r8
	or	eax, edx
	shr	edi, cl
	mov	DWORD PTR [r9+28], eax
	mov	rcx, r10
	mov	edx, DWORD PTR [rsi+32]
	mov	eax, edx
	shl	eax, cl
	mov	rcx, r8
	or	eax, edi
	shr	edx, cl
	mov	DWORD PTR [r9+32], eax
	mov	rcx, r10
	mov	edi, DWORD PTR [rsi+36]
	mov	eax, edi
	shl	eax, cl
	mov	rcx, r8
	or	eax, edx
	mov	DWORD PTR [r9+36], eax
	mov	edx, DWORD PTR [rsi+40]
	mov	eax, edx
	shr	edi, cl
	mov	rcx, r10
	shl	eax, cl
	mov	rcx, r8
	or	eax, edi
	shr	edx, cl
	mov	DWORD PTR [r9+40], eax
	mov	rcx, r10
	mov	edi, DWORD PTR [rsi+44]
	mov	eax, edi
	shl	eax, cl
	mov	rcx, r8
	or	eax, edx
	shr	edi, cl
	mov	DWORD PTR [r9+44], eax
	mov	rcx, r10
	mov	edx, DWORD PTR [rsi+48]
	mov	eax, edx
	shl	eax, cl
	mov	rcx, r8
	or	eax, edi
	shr	edx, cl
	mov	DWORD PTR [r9+48], eax
	mov	rcx, r10
	mov	edi, DWORD PTR [rsi+52]
	mov	eax, edi
	shl	eax, cl
	mov	rcx, r8
	or	eax, edx
	shr	edi, cl
	mov	DWORD PTR [r9+52], eax
	mov	rcx, r10
	mov	edx, DWORD PTR [rsi+56]
	mov	eax, edx
	shl	eax, cl
	mov	rcx, r8
	or	eax, edi
	shr	edx, cl
	mov	DWORD PTR [r9+56], eax
	mov	rcx, r10
	mov	edi, DWORD PTR [rsi+60]
	mov	eax, edi
	shl	eax, cl
	mov	rcx, r8
	or	eax, edx
	shr	edi, cl
	mov	DWORD PTR [r9+60], eax
	mov	rcx, r10
	mov	edx, DWORD PTR [rsi+64]
	mov	eax, edx
	shl	eax, cl
	mov	rcx, r8
	or	eax, edi
	shr	edx, cl
	mov	DWORD PTR [r9+64], eax
	mov	rcx, r10
	mov	edi, DWORD PTR [rsi+68]
	mov	eax, edi
	shl	eax, cl
	mov	rcx, r8
	or	eax, edx
	shr	edi, cl
	mov	DWORD PTR [r9+68], eax
	mov	rcx, r10
	mov	edx, DWORD PTR [rsi+72]
	mov	eax, edx
	shl	eax, cl
	mov	rcx, r8
	or	eax, edi
	shr	edx, cl
	mov	DWORD PTR [r9+72], eax
	mov	rcx, r10
	mov	edi, DWORD PTR [rsi+76]
	mov	eax, edi
	shl	eax, cl
	mov	rcx, r8
	or	eax, edx
	mov	DWORD PTR [r9+76], eax
	shr	edi, cl
	mov	edx, DWORD PTR [rsi+80]
	mov	rcx, r10
	mov	eax, edx
	shl	eax, cl
	mov	rcx, r8
	or	eax, edi
	shr	edx, cl
	mov	DWORD PTR [r9+80], eax
	mov	rcx, r10
	mov	edi, DWORD PTR [rsi+84]
	mov	eax, edi
	shl	eax, cl
	mov	rcx, r8
	or	eax, edx
	shr	edi, cl
	mov	DWORD PTR [r9+84], eax
	mov	rcx, r10
	mov	edx, DWORD PTR [rsi+88]
	mov	eax, edx
	shl	eax, cl
	mov	rcx, r8
	or	eax, edi
	shr	edx, cl
	mov	DWORD PTR [r9+88], eax
	mov	rcx, r10
	mov	edi, DWORD PTR [rsi+92]
	mov	eax, edi
	shl	eax, cl
	mov	rcx, r8
	or	eax, edx
	shr	edi, cl
	mov	DWORD PTR [r9+92], eax
	mov	rcx, r10
	mov	edx, DWORD PTR [rsi+96]
	mov	eax, edx
	shl	eax, cl
	mov	rcx, r8
	or	eax, edi
	shr	edx, cl
	mov	DWORD PTR [r9+96], eax
	mov	rcx, r10
	mov	edi, DWORD PTR [rsi+100]
	mov	eax, edi
	shl	eax, cl
	mov	rcx, r8
	or	eax, edx
	shr	edi, cl
	mov	DWORD PTR [r9+100], eax
	mov	rcx, r10
	mov	edx, DWORD PTR [rsi+104]
	mov	eax, edx
	shl	eax, cl
	mov	rcx, r8
	or	eax, edi
	shr	edx, cl
	mov	DWORD PTR [r9+104], eax
	mov	rcx, r10
	mov	edi, DWORD PTR [rsi+108]
	mov	eax, edi
	shl	eax, cl
	mov	rcx, r8
	or	eax, edx
	shr	edi, cl
	mov	DWORD PTR [r9+108], eax
	mov	rcx, r10
	mov	edx, DWORD PTR [rsi+112]
	mov	eax, edx
	shl	eax, cl
	mov	rcx, r8
	or	eax, edi
	shr	edx, cl
	mov	DWORD PTR [r9+112], eax
	mov	rcx, r10
	mov	edi, DWORD PTR [rsi+116]
	mov	eax, edi
	shl	eax, cl
	mov	rcx, r8
	or	eax, edx
	mov	DWORD PTR [r9+116], eax
	mov	edx, DWORD PTR [rsi+120]
	shr	edi, cl
	mov	rcx, r10
	mov	eax, edx
	shl	eax, cl
	mov	rcx, r8
	or	eax, edi
	shr	edx, cl
	mov	DWORD PTR [r9+120], eax
	mov	rcx, r10
	mov	edi, DWORD PTR [rsi+124]
	mov	eax, edi
	shl	eax, cl

; 197  :             work = temp >> n_rshift_bit_count; temp = pp[1]; work |= temp << n_lshift_bit_count; op[1] = work;
; 198  :             work = temp >> n_rshift_bit_count; temp = pp[2]; work |= temp << n_lshift_bit_count; op[2] = work;
; 199  :             work = temp >> n_rshift_bit_count; temp = pp[3]; work |= temp << n_lshift_bit_count; op[3] = work;
; 200  :             work = temp >> n_rshift_bit_count; temp = pp[4]; work |= temp << n_lshift_bit_count; op[4] = work;
; 201  :             work = temp >> n_rshift_bit_count; temp = pp[5]; work |= temp << n_lshift_bit_count; op[5] = work;
; 202  :             work = temp >> n_rshift_bit_count; temp = pp[6]; work |= temp << n_lshift_bit_count; op[6] = work;
; 203  :             work = temp >> n_rshift_bit_count; temp = pp[7]; work |= temp << n_lshift_bit_count; op[7] = work;
; 204  :             work = temp >> n_rshift_bit_count; temp = pp[8]; work |= temp << n_lshift_bit_count; op[8] = work;
; 205  :             work = temp >> n_rshift_bit_count; temp = pp[9]; work |= temp << n_lshift_bit_count; op[9] = work;
; 206  :             work = temp >> n_rshift_bit_count; temp = pp[10]; work |= temp << n_lshift_bit_count; op[10] = work;
; 207  :             work = temp >> n_rshift_bit_count; temp = pp[11]; work |= temp << n_lshift_bit_count; op[11] = work;
; 208  :             work = temp >> n_rshift_bit_count; temp = pp[12]; work |= temp << n_lshift_bit_count; op[12] = work;
; 209  :             work = temp >> n_rshift_bit_count; temp = pp[13]; work |= temp << n_lshift_bit_count; op[13] = work;
; 210  :             work = temp >> n_rshift_bit_count; temp = pp[14]; work |= temp << n_lshift_bit_count; op[14] = work;
; 211  :             work = temp >> n_rshift_bit_count; temp = pp[15]; work |= temp << n_lshift_bit_count; op[15] = work;
; 212  :             work = temp >> n_rshift_bit_count; temp = pp[16]; work |= temp << n_lshift_bit_count; op[16] = work;
; 213  :             work = temp >> n_rshift_bit_count; temp = pp[17]; work |= temp << n_lshift_bit_count; op[17] = work;
; 214  :             work = temp >> n_rshift_bit_count; temp = pp[18]; work |= temp << n_lshift_bit_count; op[18] = work;
; 215  :             work = temp >> n_rshift_bit_count; temp = pp[19]; work |= temp << n_lshift_bit_count; op[19] = work;
; 216  :             work = temp >> n_rshift_bit_count; temp = pp[20]; work |= temp << n_lshift_bit_count; op[20] = work;
; 217  :             work = temp >> n_rshift_bit_count; temp = pp[21]; work |= temp << n_lshift_bit_count; op[21] = work;
; 218  :             work = temp >> n_rshift_bit_count; temp = pp[22]; work |= temp << n_lshift_bit_count; op[22] = work;
; 219  :             work = temp >> n_rshift_bit_count; temp = pp[23]; work |= temp << n_lshift_bit_count; op[23] = work;
; 220  :             work = temp >> n_rshift_bit_count; temp = pp[24]; work |= temp << n_lshift_bit_count; op[24] = work;
; 221  :             work = temp >> n_rshift_bit_count; temp = pp[25]; work |= temp << n_lshift_bit_count; op[25] = work;
; 222  :             work = temp >> n_rshift_bit_count; temp = pp[26]; work |= temp << n_lshift_bit_count; op[26] = work;
; 223  :             work = temp >> n_rshift_bit_count; temp = pp[27]; work |= temp << n_lshift_bit_count; op[27] = work;
; 224  :             work = temp >> n_rshift_bit_count; temp = pp[28]; work |= temp << n_lshift_bit_count; op[28] = work;
; 225  :             work = temp >> n_rshift_bit_count; temp = pp[29]; work |= temp << n_lshift_bit_count; op[29] = work;
; 226  :             work = temp >> n_rshift_bit_count; temp = pp[30]; work |= temp << n_lshift_bit_count; op[30] = work;
; 227  :             work = temp >> n_rshift_bit_count; temp = pp[31]; work |= temp << n_lshift_bit_count; op[31] = work;
; 228  :             --count;
; 229  :             pp += 32;

	sub	rsi, -128				; ffffffffffffff80H
	or	eax, edx
	mov	DWORD PTR [r9+124], eax

; 230  :             op += 32;

	sub	r9, -128				; ffffffffffffff80H
	sub	r14, 1
	jne	$LL2@RightShift
$LN3@RightShift:
	mov	r14, QWORD PTR [rsp+32]

; 231  :         }
; 232  : 
; 233  :         if (t_count & 0x10)

	test	bl, 16
	je	$LN6@RightShift

; 234  :         {
; 235  :             work = temp >> n_rshift_bit_count; temp = pp[0]; work |= temp << n_lshift_bit_count; op[0] = work;

	mov	edx, DWORD PTR [rsi]
	mov	rcx, r8
	shr	edi, cl
	mov	eax, edx
	mov	rcx, r10
	shl	eax, cl
	mov	rcx, r8
	or	eax, edi
	shr	edx, cl
	mov	DWORD PTR [r9], eax
	mov	rcx, r10
	mov	edi, DWORD PTR [rsi+4]
	mov	eax, edi
	shl	eax, cl
	mov	rcx, r8
	or	eax, edx
	shr	edi, cl
	mov	DWORD PTR [r9+4], eax
	mov	rcx, r10
	mov	edx, DWORD PTR [rsi+8]
	mov	eax, edx
	shl	eax, cl
	mov	rcx, r8
	or	eax, edi
	shr	edx, cl
	mov	DWORD PTR [r9+8], eax
	mov	rcx, r10
	mov	edi, DWORD PTR [rsi+12]
	mov	eax, edi
	shl	eax, cl
	mov	rcx, r8
	or	eax, edx
	shr	edi, cl
	mov	DWORD PTR [r9+12], eax
	mov	rcx, r10
	mov	edx, DWORD PTR [rsi+16]
	mov	eax, edx
	shl	eax, cl
	mov	rcx, r8
	or	eax, edi
	shr	edx, cl
	mov	DWORD PTR [r9+16], eax
	mov	rcx, r10
	mov	edi, DWORD PTR [rsi+20]
	mov	eax, edi
	shl	eax, cl
	mov	rcx, r8
	or	eax, edx
	shr	edi, cl
	mov	DWORD PTR [r9+20], eax
	mov	rcx, r10
	mov	edx, DWORD PTR [rsi+24]
	mov	eax, edx
	shl	eax, cl
	mov	rcx, r8
	or	eax, edi
	shr	edx, cl
	mov	DWORD PTR [r9+24], eax
	mov	rcx, r10
	mov	edi, DWORD PTR [rsi+28]
	mov	eax, edi
	shl	eax, cl
	mov	rcx, r8
	or	eax, edx
	shr	edi, cl
	mov	DWORD PTR [r9+28], eax
	mov	rcx, r10
	mov	edx, DWORD PTR [rsi+32]
	mov	eax, edx
	shl	eax, cl
	mov	rcx, r8
	or	eax, edi
	shr	edx, cl
	mov	DWORD PTR [r9+32], eax
	mov	rcx, r10
	mov	edi, DWORD PTR [rsi+36]
	mov	eax, edi
	shl	eax, cl
	mov	rcx, r8
	or	eax, edx
	mov	DWORD PTR [r9+36], eax
	mov	edx, DWORD PTR [rsi+40]
	mov	eax, edx
	shr	edi, cl
	mov	rcx, r10
	shl	eax, cl
	mov	rcx, r8
	or	eax, edi
	shr	edx, cl
	mov	DWORD PTR [r9+40], eax
	mov	rcx, r10
	mov	edi, DWORD PTR [rsi+44]
	mov	eax, edi
	shl	eax, cl
	mov	rcx, r8
	or	eax, edx
	shr	edi, cl
	mov	DWORD PTR [r9+44], eax
	mov	rcx, r10
	mov	edx, DWORD PTR [rsi+48]
	mov	eax, edx
	shl	eax, cl
	mov	rcx, r8
	or	eax, edi
	shr	edx, cl
	mov	DWORD PTR [r9+48], eax
	mov	rcx, r10
	mov	edi, DWORD PTR [rsi+52]
	mov	eax, edi
	shl	eax, cl
	mov	rcx, r8
	or	eax, edx
	shr	edi, cl
	mov	DWORD PTR [r9+52], eax
	mov	rcx, r10
	mov	edx, DWORD PTR [rsi+56]
	mov	eax, edx
	shl	eax, cl
	mov	rcx, r8
	or	eax, edi
	shr	edx, cl
	mov	DWORD PTR [r9+56], eax
	mov	rcx, r10
	mov	edi, DWORD PTR [rsi+60]
	mov	eax, edi
	shl	eax, cl

; 236  :             work = temp >> n_rshift_bit_count; temp = pp[1]; work |= temp << n_lshift_bit_count; op[1] = work;
; 237  :             work = temp >> n_rshift_bit_count; temp = pp[2]; work |= temp << n_lshift_bit_count; op[2] = work;
; 238  :             work = temp >> n_rshift_bit_count; temp = pp[3]; work |= temp << n_lshift_bit_count; op[3] = work;
; 239  :             work = temp >> n_rshift_bit_count; temp = pp[4]; work |= temp << n_lshift_bit_count; op[4] = work;
; 240  :             work = temp >> n_rshift_bit_count; temp = pp[5]; work |= temp << n_lshift_bit_count; op[5] = work;
; 241  :             work = temp >> n_rshift_bit_count; temp = pp[6]; work |= temp << n_lshift_bit_count; op[6] = work;
; 242  :             work = temp >> n_rshift_bit_count; temp = pp[7]; work |= temp << n_lshift_bit_count; op[7] = work;
; 243  :             work = temp >> n_rshift_bit_count; temp = pp[8]; work |= temp << n_lshift_bit_count; op[8] = work;
; 244  :             work = temp >> n_rshift_bit_count; temp = pp[9]; work |= temp << n_lshift_bit_count; op[9] = work;
; 245  :             work = temp >> n_rshift_bit_count; temp = pp[10]; work |= temp << n_lshift_bit_count; op[10] = work;
; 246  :             work = temp >> n_rshift_bit_count; temp = pp[11]; work |= temp << n_lshift_bit_count; op[11] = work;
; 247  :             work = temp >> n_rshift_bit_count; temp = pp[12]; work |= temp << n_lshift_bit_count; op[12] = work;
; 248  :             work = temp >> n_rshift_bit_count; temp = pp[13]; work |= temp << n_lshift_bit_count; op[13] = work;
; 249  :             work = temp >> n_rshift_bit_count; temp = pp[14]; work |= temp << n_lshift_bit_count; op[14] = work;
; 250  :             work = temp >> n_rshift_bit_count; temp = pp[15]; work |= temp << n_lshift_bit_count; op[15] = work;
; 251  :             pp += 16;

	add	rsi, 64					; 00000040H
	or	eax, edx
	mov	DWORD PTR [r9+60], eax

; 252  :             op += 16;

	add	r9, 64					; 00000040H
$LN6@RightShift:

; 253  :         }
; 254  : 
; 255  :         if (t_count & 0x8)

	test	bl, 8
	je	$LN7@RightShift

; 256  :         {
; 257  :             work = temp >> n_rshift_bit_count; temp = pp[0]; work |= temp << n_lshift_bit_count; op[0] = work;

	mov	edx, DWORD PTR [rsi]
	mov	rcx, r8
	shr	edi, cl
	mov	eax, edx
	mov	rcx, r10
	shl	eax, cl
	mov	rcx, r8
	or	eax, edi
	shr	edx, cl
	mov	DWORD PTR [r9], eax
	mov	rcx, r10
	mov	edi, DWORD PTR [rsi+4]
	mov	eax, edi
	shl	eax, cl
	mov	rcx, r8
	or	eax, edx
	shr	edi, cl
	mov	DWORD PTR [r9+4], eax
	mov	rcx, r10
	mov	edx, DWORD PTR [rsi+8]
	mov	eax, edx
	shl	eax, cl
	mov	rcx, r8
	or	eax, edi
	shr	edx, cl
	mov	DWORD PTR [r9+8], eax
	mov	rcx, r10
	mov	edi, DWORD PTR [rsi+12]
	mov	eax, edi
	shl	eax, cl
	mov	rcx, r8
	or	eax, edx
	shr	edi, cl
	mov	DWORD PTR [r9+12], eax
	mov	rcx, r10
	mov	edx, DWORD PTR [rsi+16]
	mov	eax, edx
	shl	eax, cl
	mov	rcx, r8
	or	eax, edi
	shr	edx, cl
	mov	DWORD PTR [r9+16], eax
	mov	rcx, r10
	mov	edi, DWORD PTR [rsi+20]
	mov	eax, edi
	shl	eax, cl
	mov	rcx, r8
	or	eax, edx
	shr	edi, cl
	mov	DWORD PTR [r9+20], eax
	mov	rcx, r10
	mov	edx, DWORD PTR [rsi+24]
	mov	eax, edx
	shl	eax, cl
	mov	rcx, r8
	or	eax, edi
	shr	edx, cl
	mov	DWORD PTR [r9+24], eax
	mov	rcx, r10
	mov	edi, DWORD PTR [rsi+28]
	mov	eax, edi
	shl	eax, cl

; 258  :             work = temp >> n_rshift_bit_count; temp = pp[1]; work |= temp << n_lshift_bit_count; op[1] = work;
; 259  :             work = temp >> n_rshift_bit_count; temp = pp[2]; work |= temp << n_lshift_bit_count; op[2] = work;
; 260  :             work = temp >> n_rshift_bit_count; temp = pp[3]; work |= temp << n_lshift_bit_count; op[3] = work;
; 261  :             work = temp >> n_rshift_bit_count; temp = pp[4]; work |= temp << n_lshift_bit_count; op[4] = work;
; 262  :             work = temp >> n_rshift_bit_count; temp = pp[5]; work |= temp << n_lshift_bit_count; op[5] = work;
; 263  :             work = temp >> n_rshift_bit_count; temp = pp[6]; work |= temp << n_lshift_bit_count; op[6] = work;
; 264  :             work = temp >> n_rshift_bit_count; temp = pp[7]; work |= temp << n_lshift_bit_count; op[7] = work;
; 265  :             pp += 8;

	add	rsi, 32					; 00000020H
	or	eax, edx
	mov	DWORD PTR [r9+28], eax

; 266  :             op += 8;

	add	r9, 32					; 00000020H
$LN7@RightShift:

; 267  :         }
; 268  : 
; 269  :         if (t_count & 0x4)

	test	bl, 4
	je	SHORT $LN8@RightShift

; 270  :         {
; 271  :             work = temp >> n_rshift_bit_count; temp = pp[0]; work |= temp << n_lshift_bit_count; op[0] = work;

	mov	edx, DWORD PTR [rsi]
	mov	rcx, r8
	shr	edi, cl
	mov	eax, edx
	mov	rcx, r10
	shl	eax, cl
	mov	rcx, r8
	or	eax, edi
	shr	edx, cl
	mov	DWORD PTR [r9], eax
	mov	rcx, r10
	mov	edi, DWORD PTR [rsi+4]
	mov	eax, edi
	shl	eax, cl
	mov	rcx, r8
	or	eax, edx
	shr	edi, cl
	mov	DWORD PTR [r9+4], eax
	mov	rcx, r10
	mov	edx, DWORD PTR [rsi+8]
	mov	eax, edx
	shl	eax, cl
	mov	rcx, r8
	or	eax, edi
	shr	edx, cl
	mov	DWORD PTR [r9+8], eax
	mov	rcx, r10
	mov	edi, DWORD PTR [rsi+12]
	mov	eax, edi
	shl	eax, cl

; 272  :             work = temp >> n_rshift_bit_count; temp = pp[1]; work |= temp << n_lshift_bit_count; op[1] = work;
; 273  :             work = temp >> n_rshift_bit_count; temp = pp[2]; work |= temp << n_lshift_bit_count; op[2] = work;
; 274  :             work = temp >> n_rshift_bit_count; temp = pp[3]; work |= temp << n_lshift_bit_count; op[3] = work;
; 275  :             pp += 4;

	add	rsi, 16
	or	eax, edx
	mov	DWORD PTR [r9+12], eax

; 276  :             op += 4;

	add	r9, 16
$LN8@RightShift:

; 277  :         }
; 278  : 
; 279  :         if (t_count & 0x2)

	test	bl, 2
	je	SHORT $LN9@RightShift

; 280  :         {
; 281  :             work = temp >> n_rshift_bit_count; temp = pp[0]; work |= temp << n_lshift_bit_count; op[0] = work;

	mov	edx, DWORD PTR [rsi]
	mov	rcx, r8
	shr	edi, cl
	mov	eax, edx
	mov	rcx, r10
	shl	eax, cl

; 282  :             work = temp >> n_rshift_bit_count; temp = pp[1]; work |= temp << n_lshift_bit_count; op[1] = work;

	mov	rcx, r8
	or	eax, edi
	shr	edx, cl
	mov	DWORD PTR [r9], eax
	mov	rcx, r10
	mov	edi, DWORD PTR [rsi+4]
	mov	eax, edi
	shl	eax, cl

; 283  :             pp += 2;

	add	rsi, 8
	or	eax, edx
	mov	DWORD PTR [r9+4], eax

; 284  :             op += 2;

	add	r9, 8
$LN9@RightShift:

; 285  :         }
; 286  : 
; 287  :         if (t_count & 0x1)

	test	bl, 1
	mov	rbx, QWORD PTR [rsp+24]
	je	SHORT $LN10@RightShift

; 288  :         {
; 289  :             work = temp >> n_rshift_bit_count; temp = pp[0]; work |= temp << n_lshift_bit_count; op[0] = work;

	mov	rcx, r8
	shr	edi, cl
	mov	rcx, r10
	mov	edx, edi
	mov	edi, DWORD PTR [rsi]
	mov	eax, edi
	shl	eax, cl
	or	eax, edx
	mov	DWORD PTR [r9], eax

; 290  :             pp += 1;
; 291  :             op += 1;

	add	r9, 4
$LN10@RightShift:

; 292  :         }
; 293  : 
; 294  :         work = temp >> n_rshift_bit_count;

	mov	rcx, r8
	shr	edi, cl

; 295  :         if (work != 0)

	test	edi, edi
	je	SHORT $LN11@RightShift

; 296  :             *op = work;

	mov	DWORD PTR [r9], edi
$LN11@RightShift:

; 297  : 
; 298  :         if (padding_zero)

	cmp	DWORD PTR padding_zero$[rsp], 0
	je	SHORT $LN16@RightShift
; File z:\sources\lunor\repos\rougemeilland\palmtree.math.core.implements\palmtree.math.core.implements\pmc_internal.h

; 343  :     __stosd((unsigned long*)d, 0, (unsigned long)count);

	mov	ecx, ebp
; File z:\sources\lunor\repos\rougemeilland\palmtree.math.core.implements\palmtree.math.core.implements\pmc_shift.c

; 299  :             _ZERO_MEMORY_UNIT_DIV(p + p_word_count - n_word_count, n_word_count);

	lea	rdi, QWORD PTR [r15+r11*4]
; File z:\sources\lunor\repos\rougemeilland\palmtree.math.core.implements\palmtree.math.core.implements\pmc_internal.h

; 343  :     __stosd((unsigned long*)d, 0, (unsigned long)count);

	xor	eax, eax
	rep stosd
$LN16@RightShift:
; File z:\sources\lunor\repos\rougemeilland\palmtree.math.core.implements\palmtree.math.core.implements\pmc_shift.c

; 301  : }

	mov	rbp, QWORD PTR [rsp+40]
	mov	rsi, QWORD PTR [rsp+48]
	pop	r15
	pop	rdi
	ret	0
RightShift_Imp_DIV ENDP
_TEXT	ENDS
END
