; Listing generated by Microsoft (R) Optimizing Compiler Version 19.16.27026.1 

include listing.inc

INCLUDELIB MSVCRT
INCLUDELIB OLDNAMES

PUBLIC	Initialize_Multiply
PUBLIC	PMC_Multiply_I_X
PUBLIC	PMC_Multiply_L_X
PUBLIC	PMC_Multiply_X_I
PUBLIC	PMC_Multiply_X_L
PUBLIC	PMC_Multiply_X_X
EXTRN	CheckBlockLight:PROC
EXTRN	AllocateNumber:PROC
EXTRN	DeallocateNumber:PROC
EXTRN	CommitNumber:PROC
EXTRN	CheckNumber:PROC
EXTRN	DuplicateNumber:PROC
EXTRN	From_I_Imp:PROC
EXTRN	From_L_Imp:PROC
EXTRN	number_zero:BYTE
EXTRN	statistics_info:BYTE
_BSS	SEGMENT
fp_Multiply_X_1W DQ 01H DUP (?)
fp_Multiply_X_2W DQ 01H DUP (?)
fp_Multiply_X_X DQ 01H DUP (?)
_BSS	ENDS
;	COMDAT pdata
pdata	SEGMENT
$pdata$PMC_Multiply_I_X DD imagerel $LN10
	DD	imagerel $LN10+94
	DD	imagerel $unwind$PMC_Multiply_I_X
pdata	ENDS
;	COMDAT pdata
pdata	SEGMENT
$pdata$PMC_Multiply_L_X DD imagerel $LN10
	DD	imagerel $LN10+96
	DD	imagerel $unwind$PMC_Multiply_L_X
pdata	ENDS
;	COMDAT pdata
pdata	SEGMENT
$pdata$PMC_Multiply_X_I DD imagerel $LN10
	DD	imagerel $LN10+91
	DD	imagerel $unwind$PMC_Multiply_X_I
pdata	ENDS
;	COMDAT pdata
pdata	SEGMENT
$pdata$PMC_Multiply_X_L DD imagerel $LN10
	DD	imagerel $LN10+93
	DD	imagerel $unwind$PMC_Multiply_X_L
pdata	ENDS
;	COMDAT pdata
pdata	SEGMENT
$pdata$PMC_Multiply_X_X DD imagerel $LN28
	DD	imagerel $LN28+389
	DD	imagerel $unwind$PMC_Multiply_X_X
pdata	ENDS
;	COMDAT pdata
pdata	SEGMENT
$pdata$Multiply_WORD_using_MUL_ADC DD imagerel Multiply_WORD_using_MUL_ADC
	DD	imagerel Multiply_WORD_using_MUL_ADC+2979
	DD	imagerel $unwind$Multiply_WORD_using_MUL_ADC
pdata	ENDS
;	COMDAT pdata
pdata	SEGMENT
$pdata$Multiply_WORD_using_MULX_ADCX DD imagerel Multiply_WORD_using_MULX_ADCX
	DD	imagerel Multiply_WORD_using_MULX_ADCX+3188
	DD	imagerel $unwind$Multiply_WORD_using_MULX_ADCX
pdata	ENDS
;	COMDAT pdata
pdata	SEGMENT
$pdata$Multiply_X_1W_using_MUL_ADC DD imagerel Multiply_X_1W_using_MUL_ADC
	DD	imagerel Multiply_X_1W_using_MUL_ADC+30
	DD	imagerel $unwind$Multiply_X_1W_using_MUL_ADC
pdata	ENDS
;	COMDAT pdata
pdata	SEGMENT
$pdata$Multiply_X_1W_using_MULX_ADCX DD imagerel Multiply_X_1W_using_MULX_ADCX
	DD	imagerel Multiply_X_1W_using_MULX_ADCX+30
	DD	imagerel $unwind$Multiply_X_1W_using_MULX_ADCX
pdata	ENDS
;	COMDAT pdata
pdata	SEGMENT
$pdata$Multiply_X_2W_using_MUL_ADC DD imagerel Multiply_X_2W_using_MUL_ADC
	DD	imagerel Multiply_X_2W_using_MUL_ADC+81
	DD	imagerel $unwind$Multiply_X_2W_using_MUL_ADC
pdata	ENDS
;	COMDAT pdata
pdata	SEGMENT
$pdata$Multiply_X_2W_using_MULX_ADCX DD imagerel Multiply_X_2W_using_MULX_ADCX
	DD	imagerel Multiply_X_2W_using_MULX_ADCX+81
	DD	imagerel $unwind$Multiply_X_2W_using_MULX_ADCX
pdata	ENDS
;	COMDAT pdata
pdata	SEGMENT
$pdata$Multiply_X_X_using_MUL_ADC DD imagerel Multiply_X_X_using_MUL_ADC
	DD	imagerel Multiply_X_X_using_MUL_ADC+140
	DD	imagerel $unwind$Multiply_X_X_using_MUL_ADC
pdata	ENDS
;	COMDAT pdata
pdata	SEGMENT
$pdata$Multiply_X_X_using_MULX_ADCX DD imagerel Multiply_X_X_using_MULX_ADCX
	DD	imagerel Multiply_X_X_using_MULX_ADCX+140
	DD	imagerel $unwind$Multiply_X_X_using_MULX_ADCX
pdata	ENDS
;	COMDAT pdata
pdata	SEGMENT
$pdata$PMC_Multiply_X_I_Imp DD imagerel PMC_Multiply_X_I_Imp
	DD	imagerel PMC_Multiply_X_I_Imp+272
	DD	imagerel $unwind$PMC_Multiply_X_I_Imp
pdata	ENDS
;	COMDAT pdata
pdata	SEGMENT
$pdata$PMC_Multiply_X_L_Imp DD imagerel PMC_Multiply_X_L_Imp
	DD	imagerel PMC_Multiply_X_L_Imp+277
	DD	imagerel $unwind$PMC_Multiply_X_L_Imp
pdata	ENDS
;	COMDAT xdata
xdata	SEGMENT
$unwind$PMC_Multiply_X_L_Imp DD 060f01H
	DD	08640fH
	DD	07340fH
	DD	0700b320fH
xdata	ENDS
;	COMDAT xdata
xdata	SEGMENT
$unwind$PMC_Multiply_X_I_Imp DD 060f01H
	DD	08640fH
	DD	07340fH
	DD	0700b320fH
xdata	ENDS
;	COMDAT xdata
xdata	SEGMENT
$unwind$Multiply_X_X_using_MULX_ADCX DD 0a1a01H
	DD	09741aH
	DD	08641aH
	DD	07541aH
	DD	06341aH
	DD	0e016321aH
xdata	ENDS
;	COMDAT xdata
xdata	SEGMENT
$unwind$Multiply_X_X_using_MUL_ADC DD 0a1a01H
	DD	09741aH
	DD	08641aH
	DD	07541aH
	DD	06341aH
	DD	0e016321aH
xdata	ENDS
;	COMDAT xdata
xdata	SEGMENT
$unwind$Multiply_X_2W_using_MULX_ADCX DD 060f01H
	DD	07640fH
	DD	06340fH
	DD	0700b320fH
xdata	ENDS
;	COMDAT xdata
xdata	SEGMENT
$unwind$Multiply_X_2W_using_MUL_ADC DD 060f01H
	DD	07640fH
	DD	06340fH
	DD	0700b320fH
xdata	ENDS
;	COMDAT xdata
xdata	SEGMENT
$unwind$Multiply_X_1W_using_MULX_ADCX DD 010401H
	DD	04204H
xdata	ENDS
;	COMDAT xdata
xdata	SEGMENT
$unwind$Multiply_X_1W_using_MUL_ADC DD 010401H
	DD	04204H
xdata	ENDS
;	COMDAT xdata
xdata	SEGMENT
$unwind$Multiply_WORD_using_MULX_ADCX DD 091d01H
	DD	084641dH
	DD	082341dH
	DD	07e011dH
	DD	0700ce00eH
	DD	0500bH
xdata	ENDS
;	COMDAT xdata
xdata	SEGMENT
$unwind$Multiply_WORD_using_MUL_ADC DD 091f01H
	DD	083741fH
	DD	082641fH
	DD	080341fH
	DD	07e011fH
	DD	05010H
xdata	ENDS
;	COMDAT xdata
xdata	SEGMENT
$unwind$PMC_Multiply_X_X DD 060f01H
	DD	08640fH
	DD	07340fH
	DD	0700b320fH
xdata	ENDS
;	COMDAT xdata
xdata	SEGMENT
$unwind$PMC_Multiply_X_L DD 060f01H
	DD	07640fH
	DD	06340fH
	DD	0700b320fH
xdata	ENDS
;	COMDAT xdata
xdata	SEGMENT
$unwind$PMC_Multiply_X_I DD 060f01H
	DD	07640fH
	DD	06340fH
	DD	0700b320fH
xdata	ENDS
;	COMDAT xdata
xdata	SEGMENT
$unwind$PMC_Multiply_L_X DD 060f01H
	DD	07640fH
	DD	06340fH
	DD	0700b320fH
xdata	ENDS
;	COMDAT xdata
xdata	SEGMENT
$unwind$PMC_Multiply_I_X DD 060f01H
	DD	07640fH
	DD	06340fH
	DD	0700b320fH
xdata	ENDS
; Function compile flags: /Ogtpy
; File z:\sources\lunor\repos\rougemeilland\palmtree.math.core.implements\palmtree.math.core.implements\pmc_multiply.c
; File z:\sources\lunor\repos\rougemeilland\palmtree.math.core.implements\palmtree.math.core.implements\pmc_internal.h
; File z:\sources\lunor\repos\rougemeilland\palmtree.math.core.implements\palmtree.math.core.implements\pmc_multiply.c
;	COMDAT PMC_Multiply_X_L_Imp
_TEXT	SEGMENT
nz_light_check_code$1 = 48
u$ = 48
v$ = 56
w$ = 64
PMC_Multiply_X_L_Imp PROC				; COMDAT

; 560  : {

	mov	QWORD PTR [rsp+16], rbx
	mov	QWORD PTR [rsp+24], rsi
	push	rdi
	sub	rsp, 32					; 00000020H

; 561  :     PMC_STATUS_CODE result;
; 562  :     if (u->IS_ZERO)

	mov	eax, DWORD PTR [rcx+32]
	mov	rbx, r8
	mov	rdi, rdx
	mov	rsi, rcx
	test	al, 2
	jne	SHORT $LN39@PMC_Multip

; 563  :     {
; 564  :         // x が 0 である場合
; 565  : 
; 566  :         // y の値にかかわらず 0 を返す。
; 567  :         *w = &number_zero;
; 568  :     }
; 569  :     else if (u->IS_ONE)

	test	al, 4
	je	SHORT $LN4@PMC_Multip

; 570  :     {
; 571  :         // x が 1 である場合
; 572  :         if (v == 0)

	test	rdx, rdx
	je	SHORT $LN39@PMC_Multip

; 573  :         {
; 574  :             // y が 0 である場合
; 575  : 
; 576  :             //  0  を返す。
; 577  :             *w = &number_zero;
; 578  :         }
; 579  :         else
; 580  :         {
; 581  :             // y が 0 ではない場合
; 582  : 
; 583  :             // 乗算結果は y に等しいため、y の値を持つ NUMBER_HEADER 構造体を獲得し、呼び出し元へ返す。
; 584  :             if ((result = From_L_Imp(v, w)) != PMC_STATUS_OK)

	mov	rdx, rbx
	mov	rcx, rdi
	call	From_L_Imp
	test	eax, eax
	je	$LN15@PMC_Multip

; 675  : }

	mov	rbx, QWORD PTR [rsp+56]
	mov	rsi, QWORD PTR [rsp+64]
	add	rsp, 32					; 00000020H
	pop	rdi
	ret	0
$LN4@PMC_Multip:

; 585  :                 return (result);
; 586  :         }
; 587  :     }
; 588  :     else
; 589  :     {
; 590  :         // x が 0 と 1 のどちらでもない場合
; 591  : 
; 592  :         if (v == 0)

	test	rdi, rdi
	jne	SHORT $LN9@PMC_Multip
$LN39@PMC_Multip:

; 671  :             }
; 672  :         }
; 673  :     }
; 674  :     return (PMC_STATUS_OK);

	lea	rax, OFFSET FLAT:number_zero
	mov	QWORD PTR [r8], rax
	xor	eax, eax

; 675  : }

	mov	rbx, QWORD PTR [rsp+56]
	mov	rsi, QWORD PTR [rsp+64]
	add	rsp, 32					; 00000020H
	pop	rdi
	ret	0
$LN9@PMC_Multip:

; 593  :         {
; 594  :             // y が 0 である場合
; 595  : 
; 596  :             //  0  を返す。
; 597  :             *w = &number_zero;
; 598  :         }
; 599  :         else if (v == 1)

	cmp	rdi, 1
	jne	SHORT $LN11@PMC_Multip

; 600  :         {
; 601  :             // y が 1 である場合
; 602  : 
; 603  :             // 乗算結果は x に等しいため、x の値を持つ NUMBER_HEADER 構造体を獲得し、呼び出し元へ返す。
; 604  :             if ((result = DuplicateNumber(u, w)) != PMC_STATUS_OK)

	mov	rdx, rbx
	call	DuplicateNumber
	test	eax, eax
	je	$LN15@PMC_Multip

; 675  : }

	mov	rbx, QWORD PTR [rsp+56]
	mov	rsi, QWORD PTR [rsp+64]
	add	rsp, 32					; 00000020H
	pop	rdi
	ret	0
$LN11@PMC_Multip:

; 605  :                 return (result);
; 606  :         }
; 607  :         else
; 608  :         {
; 609  :             // x と y がともに 0 、1 のどちらでもない場合
; 610  : 
; 611  :             // x と y の積を計算する
; 612  :             if (__UNIT_TYPE_BIT_COUNT < sizeof(v) * 8)
; 613  :             {
; 614  :                 // _UINT64_T が 1 ワードで表現しきれない場合
; 615  : 
; 616  :                 __UNIT_TYPE x_bit_count = u->UNIT_BIT_COUNT;
; 617  :                 _UINT32_T y_hi;
; 618  :                 _UINT32_T y_lo = _FROMDWORDTOWORD(v, &y_hi);
; 619  :                 if (y_hi == 0)
; 620  :                 {
; 621  :                     // y の値が 32bit で表現可能な場合
; 622  :                     __UNIT_TYPE y_bit_count = sizeof(y_lo) * 8 - _LZCNT_ALT_32(y_lo);
; 623  :                     __UNIT_TYPE z_bit_count = x_bit_count + y_bit_count;
; 624  :                     __UNIT_TYPE nz_light_check_code;
; 625  :                     if ((result = AllocateNumber(w, z_bit_count, &nz_light_check_code)) != PMC_STATUS_OK)
; 626  :                         return (result);
; 627  :                     if ((result = (*fp_Multiply_X_1W)(u, y_lo, *w)) != PMC_STATUS_OK)
; 628  :                     {
; 629  :                         DeallocateNumber(*w);
; 630  :                         return (result);
; 631  :                     }
; 632  :                     if ((result = CheckBlockLight((*w)->BLOCK, nz_light_check_code)) != PMC_STATUS_OK)
; 633  :                         return (result);
; 634  :                 }
; 635  :                 else
; 636  :                 {
; 637  :                     // y の値が 32bit では表現できない場合
; 638  :                     __UNIT_TYPE y_bit_count = sizeof(v) * 8 - _LZCNT_ALT_32(y_hi);
; 639  :                     __UNIT_TYPE z_bit_count = x_bit_count + y_bit_count;
; 640  :                     __UNIT_TYPE nz_light_check_code;
; 641  :                     if ((result = AllocateNumber(w, z_bit_count, &nz_light_check_code)) != PMC_STATUS_OK)
; 642  :                         return (result);
; 643  :                     if ((result = (*fp_Multiply_X_2W)(u, y_hi, y_lo, *w)) != PMC_STATUS_OK)
; 644  :                     {
; 645  :                         DeallocateNumber(*w);
; 646  :                         return (result);
; 647  :                     }
; 648  :                     if ((result = CheckBlockLight((*w)->BLOCK, nz_light_check_code)) != PMC_STATUS_OK)
; 649  :                         return (result);
; 650  :                 }
; 651  :                 CommitNumber(*w);
; 652  :             }
; 653  :             else
; 654  :             {
; 655  :                 // _UINT64_T が 1 ワードで表現できる場合
; 656  : 
; 657  :                 __UNIT_TYPE x_bit_count = u->UNIT_BIT_COUNT;

	mov	rdx, QWORD PTR [rcx+8]

; 661  :                 if ((result = AllocateNumber(w, z_bit_count, &nz_light_check_code)) != PMC_STATUS_OK)

	lea	r8, QWORD PTR nz_light_check_code$1[rsp]
; File z:\sources\lunor\repos\rougemeilland\palmtree.math.core.implements\palmtree.math.core.implements\pmc_internal.h

; 894  :     _BitScanReverse64(&pos, x);

	bsr	rcx, rdi

; 895  : #elif defined(__GNUC__)
; 896  :     _UINT64_T pos;
; 897  :     __asm__("bsrq %1, %0" : "=r"(pos) : "rm"(x));
; 898  : #else
; 899  : #error unknown compiler
; 900  : #endif
; 901  : #else
; 902  : #error unknown platform
; 903  : #endif
; 904  :     return (sizeof(x) * 8 - 1 - pos);

	mov	eax, 63					; 0000003fH
	sub	rax, rcx
; File z:\sources\lunor\repos\rougemeilland\palmtree.math.core.implements\palmtree.math.core.implements\pmc_multiply.c

; 661  :                 if ((result = AllocateNumber(w, z_bit_count, &nz_light_check_code)) != PMC_STATUS_OK)

	mov	rcx, rbx
	sub	rdx, rax
	add	rdx, 64					; 00000040H
	call	AllocateNumber
	test	eax, eax
	jne	SHORT $LN1@PMC_Multip

; 662  :                     return (result);
; 663  :                 if ((result = (*fp_Multiply_X_1W)(u, (__UNIT_TYPE)v, *w)) != PMC_STATUS_OK)

	mov	r8, QWORD PTR [rbx]
	mov	rdx, rdi
	mov	rcx, rsi
	call	QWORD PTR fp_Multiply_X_1W
	mov	rcx, QWORD PTR [rbx]
	mov	edi, eax
	test	eax, eax
	je	SHORT $LN25@PMC_Multip

; 664  :                 {
; 665  :                     DeallocateNumber(*w);

	call	DeallocateNumber

; 666  :                     return (result);

	mov	eax, edi

; 675  : }

	mov	rbx, QWORD PTR [rsp+56]
	mov	rsi, QWORD PTR [rsp+64]
	add	rsp, 32					; 00000020H
	pop	rdi
	ret	0
$LN25@PMC_Multip:

; 667  :                 }
; 668  :                 if ((result = CheckBlockLight((*w)->BLOCK, nz_light_check_code)) != PMC_STATUS_OK)

	mov	rdx, QWORD PTR nz_light_check_code$1[rsp]
	mov	rcx, QWORD PTR [rcx+48]
	call	CheckBlockLight
	test	eax, eax
	jne	SHORT $LN1@PMC_Multip

; 669  :                     return (result);
; 670  :                 CommitNumber(*w);

	mov	rcx, QWORD PTR [rbx]
	call	CommitNumber
$LN15@PMC_Multip:

; 671  :             }
; 672  :         }
; 673  :     }
; 674  :     return (PMC_STATUS_OK);

	xor	eax, eax
$LN1@PMC_Multip:

; 675  : }

	mov	rbx, QWORD PTR [rsp+56]
	mov	rsi, QWORD PTR [rsp+64]
	add	rsp, 32					; 00000020H
	pop	rdi
	ret	0
PMC_Multiply_X_L_Imp ENDP
_TEXT	ENDS
; Function compile flags: /Ogtpy
; File z:\sources\lunor\repos\rougemeilland\palmtree.math.core.implements\palmtree.math.core.implements\pmc_multiply.c
; File z:\sources\lunor\repos\rougemeilland\palmtree.math.core.implements\palmtree.math.core.implements\pmc_internal.h
; File z:\sources\lunor\repos\rougemeilland\palmtree.math.core.implements\palmtree.math.core.implements\pmc_multiply.c
;	COMDAT PMC_Multiply_X_I_Imp
_TEXT	SEGMENT
w_light_check_code$1 = 48
u$ = 48
v$ = 56
w$ = 64
PMC_Multiply_X_I_Imp PROC				; COMDAT

; 442  : {

	mov	QWORD PTR [rsp+16], rbx
	mov	QWORD PTR [rsp+24], rsi
	push	rdi
	sub	rsp, 32					; 00000020H

; 443  :     PMC_STATUS_CODE result;
; 444  :     if (u->IS_ZERO)

	mov	eax, DWORD PTR [rcx+32]
	mov	rbx, r8
	mov	edi, edx
	mov	rsi, rcx
	test	al, 2
	jne	SHORT $LN21@PMC_Multip

; 445  :     {
; 446  :         // u が 0 である場合
; 447  : 
; 448  :         // v の値にかかわらず 0 を返す。
; 449  :         *w = &number_zero;
; 450  :     }
; 451  :     else if (u->IS_ONE)

	test	al, 4
	je	SHORT $LN4@PMC_Multip

; 452  :     {
; 453  :         // u が 1 である場合
; 454  :         if (v == 0)

	test	edx, edx
	je	SHORT $LN21@PMC_Multip

; 455  :         {
; 456  :             // v が 0 である場合
; 457  : 
; 458  :             //  0  を返す。
; 459  :             *w = &number_zero;
; 460  :         }
; 461  :         else
; 462  :         {
; 463  :             // y が 0 ではない場合
; 464  : 
; 465  :             // 乗算結果は v に等しいため、v の値を持つ NUMBER_HEADER 構造体を獲得し、呼び出し元へ返す。
; 466  :             if ((result = From_I_Imp(v, w)) != PMC_STATUS_OK)

	mov	rdx, rbx
	mov	ecx, edi
	call	From_I_Imp
	test	eax, eax
	je	$LN12@PMC_Multip

; 511  : }

	mov	rbx, QWORD PTR [rsp+56]
	mov	rsi, QWORD PTR [rsp+64]
	add	rsp, 32					; 00000020H
	pop	rdi
	ret	0
$LN4@PMC_Multip:

; 467  :                 return (result);
; 468  :         }
; 469  :     }
; 470  :     else
; 471  :     {
; 472  :         // u が 0 と 1 のどちらでもない場合
; 473  : 
; 474  :         if (v == 0)

	test	edx, edx
	jne	SHORT $LN9@PMC_Multip
$LN21@PMC_Multip:

; 508  :         }
; 509  :     }
; 510  :     return (PMC_STATUS_OK);

	lea	rax, OFFSET FLAT:number_zero
	mov	QWORD PTR [r8], rax
	xor	eax, eax

; 511  : }

	mov	rbx, QWORD PTR [rsp+56]
	mov	rsi, QWORD PTR [rsp+64]
	add	rsp, 32					; 00000020H
	pop	rdi
	ret	0
$LN9@PMC_Multip:

; 475  :         {
; 476  :             // v が 0 である場合
; 477  : 
; 478  :             //  0  を返す。
; 479  :             *w = &number_zero;
; 480  :         }
; 481  :         else if (v == 1)

	cmp	edi, 1
	jne	SHORT $LN11@PMC_Multip

; 482  :         {
; 483  :             // v が 1 である場合
; 484  : 
; 485  :             // 乗算結果は u に等しいため、u の値を持つ NUMBER_HEADER 構造体を獲得し、呼び出し元へ返す。
; 486  :             if ((result = DuplicateNumber(u, w)) != PMC_STATUS_OK)

	mov	rdx, rbx
	call	DuplicateNumber
	test	eax, eax
	je	$LN12@PMC_Multip

; 511  : }

	mov	rbx, QWORD PTR [rsp+56]
	mov	rsi, QWORD PTR [rsp+64]
	add	rsp, 32					; 00000020H
	pop	rdi
	ret	0
$LN11@PMC_Multip:

; 487  :                 return (result);
; 488  :         }
; 489  :         else
; 490  :         {
; 491  :             // u と v がともに 0 、1 のどちらでもない場合
; 492  : 
; 493  :             // u と v の積を計算する
; 494  :             __UNIT_TYPE u_bit_count = u->UNIT_BIT_COUNT;

	mov	rdx, QWORD PTR [rcx+8]

; 496  :             __UNIT_TYPE w_bit_count = u_bit_count + v_bit_count;
; 497  :             __UNIT_TYPE w_light_check_code;
; 498  :             if ((result = AllocateNumber(w, w_bit_count, &w_light_check_code)) != PMC_STATUS_OK)

	lea	r8, QWORD PTR w_light_check_code$1[rsp]
; File z:\sources\lunor\repos\rougemeilland\palmtree.math.core.implements\palmtree.math.core.implements\pmc_internal.h

; 851  :     _BitScanReverse(&pos, x);

	bsr	eax, edi

; 852  : #elif defined(__GNUC__)
; 853  :     __asm__( "bsrl %1, %0" : "=r"(pos) : "rm"(x) );
; 854  : #else
; 855  : #error unknown compiler
; 856  : #endif
; 857  :     return (sizeof(x) * 8 - 1 - pos);

	mov	ecx, 31
	sub	ecx, eax
; File z:\sources\lunor\repos\rougemeilland\palmtree.math.core.implements\palmtree.math.core.implements\pmc_multiply.c

; 495  :             __UNIT_TYPE v_bit_count = sizeof(v) * 8 - _LZCNT_ALT_32(v);

	mov	eax, ecx

; 496  :             __UNIT_TYPE w_bit_count = u_bit_count + v_bit_count;
; 497  :             __UNIT_TYPE w_light_check_code;
; 498  :             if ((result = AllocateNumber(w, w_bit_count, &w_light_check_code)) != PMC_STATUS_OK)

	mov	rcx, rbx
	sub	rdx, rax
	add	rdx, 32					; 00000020H
	call	AllocateNumber
	test	eax, eax
	jne	SHORT $LN1@PMC_Multip

; 499  :                 return (result);
; 500  :             if ((result = (*fp_Multiply_X_1W)(u, v, *w)) != PMC_STATUS_OK)

	mov	r8, QWORD PTR [rbx]
	mov	rdx, rdi
	mov	rcx, rsi
	call	QWORD PTR fp_Multiply_X_1W
	mov	rcx, QWORD PTR [rbx]
	mov	edi, eax
	test	eax, eax
	je	SHORT $LN15@PMC_Multip

; 501  :             {
; 502  :                 DeallocateNumber(*w);

	call	DeallocateNumber

; 503  :                 return (result);

	mov	eax, edi

; 511  : }

	mov	rbx, QWORD PTR [rsp+56]
	mov	rsi, QWORD PTR [rsp+64]
	add	rsp, 32					; 00000020H
	pop	rdi
	ret	0
$LN15@PMC_Multip:

; 504  :             }
; 505  :             if ((result = CheckBlockLight((*w)->BLOCK, w_light_check_code)) != PMC_STATUS_OK)

	mov	rdx, QWORD PTR w_light_check_code$1[rsp]
	mov	rcx, QWORD PTR [rcx+48]
	call	CheckBlockLight
	test	eax, eax
	jne	SHORT $LN1@PMC_Multip

; 506  :                 return (result);
; 507  :             CommitNumber(*w);

	mov	rcx, QWORD PTR [rbx]
	call	CommitNumber
$LN12@PMC_Multip:

; 508  :         }
; 509  :     }
; 510  :     return (PMC_STATUS_OK);

	xor	eax, eax
$LN1@PMC_Multip:

; 511  : }

	mov	rbx, QWORD PTR [rsp+56]
	mov	rsi, QWORD PTR [rsp+64]
	add	rsp, 32					; 00000020H
	pop	rdi
	ret	0
PMC_Multiply_X_I_Imp ENDP
_TEXT	ENDS
; Function compile flags: /Ogtpy
; File z:\sources\lunor\repos\rougemeilland\palmtree.math.core.implements\palmtree.math.core.implements\pmc_multiply.c
;	COMDAT Multiply_X_X_using_MULX_ADCX
_TEXT	SEGMENT
u$ = 48
v$ = 56
w$ = 64
Multiply_X_X_using_MULX_ADCX PROC			; COMDAT

; 415  : {

	mov	QWORD PTR [rsp+8], rbx
	mov	QWORD PTR [rsp+16], rbp
	mov	QWORD PTR [rsp+24], rsi
	mov	QWORD PTR [rsp+32], rdi
	push	r14
	sub	rsp, 32					; 00000020H
	mov	r10, QWORD PTR [rcx]

; 416  :     // x のワード長が y のワード長以上であるようにする
; 417  :     if (u->UNIT_WORD_COUNT < v->UNIT_WORD_COUNT)
; 418  :     {
; 419  :         NUMBER_HEADER* t = u;
; 420  :         u = v;
; 421  :         v = t;
; 422  :     }
; 423  :     __UNIT_TYPE u_count = u->UNIT_WORD_COUNT;

	mov	rax, rdx
	mov	r9, QWORD PTR [rdx]
	mov	rsi, r10

; 424  :     __UNIT_TYPE v_count = v->UNIT_WORD_COUNT;
; 425  :     __UNIT_TYPE w_count = w->BLOCK_COUNT;
; 426  :     __UNIT_TYPE* up = &u->BLOCK[0];
; 427  :     __UNIT_TYPE* vp = &v->BLOCK[0];
; 428  :     __UNIT_TYPE* wp = &w->BLOCK[0];

	mov	rbx, QWORD PTR [r8+48]
	cmp	r10, r9
	mov	rbp, r9
	cmovae	rax, rcx
	cmovae	rbp, r10
	cmovae	rcx, rdx
	cmovae	rsi, r9
	mov	r14, QWORD PTR [rax+48]
	mov	rdi, QWORD PTR [rcx+48]
	npad	8
$LL4@Multiply_X:

; 429  : 
; 430  :     do
; 431  :     {
; 432  :         Multiply_WORD_using_MULX_ADCX(up, u_count, *vp, wp);

	mov	r8, QWORD PTR [rdi]
	mov	r9, rbx
	mov	rdx, rbp
	mov	rcx, r14
	call	Multiply_WORD_using_MULX_ADCX

; 433  :         ++vp;
; 434  :         ++wp;

	add	rbx, 8
	lea	rdi, QWORD PTR [rdi+8]

; 435  :         --v_count;

	sub	rsi, 1

; 436  :     } while (v_count != 0);

	jne	SHORT $LL4@Multiply_X

; 437  : 
; 438  :     return (PMC_STATUS_OK);
; 439  : }

	mov	rbx, QWORD PTR [rsp+48]
	xor	eax, eax
	mov	rbp, QWORD PTR [rsp+56]
	mov	rsi, QWORD PTR [rsp+64]
	mov	rdi, QWORD PTR [rsp+72]
	add	rsp, 32					; 00000020H
	pop	r14
	ret	0
Multiply_X_X_using_MULX_ADCX ENDP
_TEXT	ENDS
; Function compile flags: /Ogtpy
; File z:\sources\lunor\repos\rougemeilland\palmtree.math.core.implements\palmtree.math.core.implements\pmc_multiply.c
;	COMDAT Multiply_X_X_using_MUL_ADC
_TEXT	SEGMENT
u$ = 48
v$ = 56
w$ = 64
Multiply_X_X_using_MUL_ADC PROC				; COMDAT

; 388  : {

	mov	QWORD PTR [rsp+8], rbx
	mov	QWORD PTR [rsp+16], rbp
	mov	QWORD PTR [rsp+24], rsi
	mov	QWORD PTR [rsp+32], rdi
	push	r14
	sub	rsp, 32					; 00000020H
	mov	r10, QWORD PTR [rcx]

; 389  :     // x のワード長が y のワード長以上であるようにする
; 390  :     if (u->UNIT_WORD_COUNT < v->UNIT_WORD_COUNT)
; 391  :     {
; 392  :         NUMBER_HEADER* t = u;
; 393  :         u = v;
; 394  :         v = t;
; 395  :     }
; 396  :     __UNIT_TYPE u_count = u->UNIT_WORD_COUNT;

	mov	rax, rdx
	mov	r9, QWORD PTR [rdx]
	mov	rsi, r10

; 397  :     __UNIT_TYPE v_count = v->UNIT_WORD_COUNT;
; 398  :     __UNIT_TYPE w_count = w->BLOCK_COUNT;
; 399  :     __UNIT_TYPE* up = &u->BLOCK[0];
; 400  :     __UNIT_TYPE* vp = &v->BLOCK[0];
; 401  :     __UNIT_TYPE* wp = &w->BLOCK[0];

	mov	rbx, QWORD PTR [r8+48]
	cmp	r10, r9
	mov	rbp, r9
	cmovae	rax, rcx
	cmovae	rbp, r10
	cmovae	rcx, rdx
	cmovae	rsi, r9
	mov	r14, QWORD PTR [rax+48]
	mov	rdi, QWORD PTR [rcx+48]
	npad	8
$LL4@Multiply_X:

; 402  : 
; 403  :     do
; 404  :     {
; 405  :         Multiply_WORD_using_MUL_ADC(up, u_count, *vp, wp);

	mov	r8, QWORD PTR [rdi]
	mov	r9, rbx
	mov	rdx, rbp
	mov	rcx, r14
	call	Multiply_WORD_using_MUL_ADC

; 406  :         ++vp;
; 407  :         ++wp;

	add	rbx, 8
	lea	rdi, QWORD PTR [rdi+8]

; 408  :         --v_count;

	sub	rsi, 1

; 409  :     } while (v_count != 0);

	jne	SHORT $LL4@Multiply_X

; 410  : 
; 411  :     return (PMC_STATUS_OK);
; 412  : }

	mov	rbx, QWORD PTR [rsp+48]
	xor	eax, eax
	mov	rbp, QWORD PTR [rsp+56]
	mov	rsi, QWORD PTR [rsp+64]
	mov	rdi, QWORD PTR [rsp+72]
	add	rsp, 32					; 00000020H
	pop	r14
	ret	0
Multiply_X_X_using_MUL_ADC ENDP
_TEXT	ENDS
; Function compile flags: /Ogtpy
; File z:\sources\lunor\repos\rougemeilland\palmtree.math.core.implements\palmtree.math.core.implements\pmc_multiply.c
;	COMDAT Multiply_X_2W_using_MULX_ADCX
_TEXT	SEGMENT
u$ = 48
v_hi$ = 56
w_lo$ = 64
z$ = 72
Multiply_X_2W_using_MULX_ADCX PROC			; COMDAT

; 381  : {

	mov	QWORD PTR [rsp+8], rbx
	mov	QWORD PTR [rsp+16], rsi
	push	rdi
	sub	rsp, 32					; 00000020H
	mov	rdi, rdx
	mov	rbx, r9

; 382  :     Multiply_WORD_using_MULX_ADCX(&u->BLOCK[0], u->UNIT_WORD_COUNT, w_lo, &z->BLOCK[0]);

	mov	rdx, QWORD PTR [rcx]
	mov	rsi, rcx
	mov	rcx, QWORD PTR [rcx+48]
	mov	r9, QWORD PTR [r9+48]
	call	Multiply_WORD_using_MULX_ADCX

; 383  :     Multiply_WORD_using_MULX_ADCX(&u->BLOCK[0], u->UNIT_WORD_COUNT, v_hi, &z->BLOCK[1]);

	mov	r9, QWORD PTR [rbx+48]
	mov	r8, rdi
	mov	rdx, QWORD PTR [rsi]
	add	r9, 8
	mov	rcx, QWORD PTR [rsi+48]
	call	Multiply_WORD_using_MULX_ADCX

; 384  :     return (PMC_STATUS_OK);
; 385  : }

	mov	rbx, QWORD PTR [rsp+48]
	xor	eax, eax
	mov	rsi, QWORD PTR [rsp+56]
	add	rsp, 32					; 00000020H
	pop	rdi
	ret	0
Multiply_X_2W_using_MULX_ADCX ENDP
_TEXT	ENDS
; Function compile flags: /Ogtpy
; File z:\sources\lunor\repos\rougemeilland\palmtree.math.core.implements\palmtree.math.core.implements\pmc_multiply.c
;	COMDAT Multiply_X_2W_using_MUL_ADC
_TEXT	SEGMENT
u$ = 48
v_hi$ = 56
v_lo$ = 64
w$ = 72
Multiply_X_2W_using_MUL_ADC PROC			; COMDAT

; 374  : {

	mov	QWORD PTR [rsp+8], rbx
	mov	QWORD PTR [rsp+16], rsi
	push	rdi
	sub	rsp, 32					; 00000020H
	mov	rdi, rdx
	mov	rbx, r9

; 375  :     Multiply_WORD_using_MUL_ADC(&u->BLOCK[0], u->UNIT_WORD_COUNT, v_lo, &w->BLOCK[0]);

	mov	rdx, QWORD PTR [rcx]
	mov	rsi, rcx
	mov	rcx, QWORD PTR [rcx+48]
	mov	r9, QWORD PTR [r9+48]
	call	Multiply_WORD_using_MUL_ADC

; 376  :     Multiply_WORD_using_MUL_ADC(&u->BLOCK[0], u->UNIT_WORD_COUNT, v_hi, &w->BLOCK[1]);

	mov	r9, QWORD PTR [rbx+48]
	mov	r8, rdi
	mov	rdx, QWORD PTR [rsi]
	add	r9, 8
	mov	rcx, QWORD PTR [rsi+48]
	call	Multiply_WORD_using_MUL_ADC

; 377  :     return (PMC_STATUS_OK);
; 378  : }

	mov	rbx, QWORD PTR [rsp+48]
	xor	eax, eax
	mov	rsi, QWORD PTR [rsp+56]
	add	rsp, 32					; 00000020H
	pop	rdi
	ret	0
Multiply_X_2W_using_MUL_ADC ENDP
_TEXT	ENDS
; Function compile flags: /Ogtpy
; File z:\sources\lunor\repos\rougemeilland\palmtree.math.core.implements\palmtree.math.core.implements\pmc_multiply.c
;	COMDAT Multiply_X_1W_using_MULX_ADCX
_TEXT	SEGMENT
u$ = 48
v$ = 56
w$ = 64
Multiply_X_1W_using_MULX_ADCX PROC			; COMDAT

; 368  : {

	sub	rsp, 40					; 00000028H

; 369  :     Multiply_WORD_using_MULX_ADCX(&u->BLOCK[0], u->UNIT_WORD_COUNT, v, &w->BLOCK[0]);

	mov	r9, QWORD PTR [r8+48]
	mov	r8, rdx
	mov	rdx, QWORD PTR [rcx]
	mov	rcx, QWORD PTR [rcx+48]
	call	Multiply_WORD_using_MULX_ADCX

; 370  :     return (PMC_STATUS_OK);

	xor	eax, eax

; 371  : }

	add	rsp, 40					; 00000028H
	ret	0
Multiply_X_1W_using_MULX_ADCX ENDP
_TEXT	ENDS
; Function compile flags: /Ogtpy
; File z:\sources\lunor\repos\rougemeilland\palmtree.math.core.implements\palmtree.math.core.implements\pmc_multiply.c
;	COMDAT Multiply_X_1W_using_MUL_ADC
_TEXT	SEGMENT
u$ = 48
v$ = 56
w$ = 64
Multiply_X_1W_using_MUL_ADC PROC			; COMDAT

; 362  : {

	sub	rsp, 40					; 00000028H

; 363  :     Multiply_WORD_using_MUL_ADC(&u->BLOCK[0], u->UNIT_WORD_COUNT, v, &w->BLOCK[0]);

	mov	r9, QWORD PTR [r8+48]
	mov	r8, rdx
	mov	rdx, QWORD PTR [rcx]
	mov	rcx, QWORD PTR [rcx+48]
	call	Multiply_WORD_using_MUL_ADC

; 364  :     return (PMC_STATUS_OK);

	xor	eax, eax

; 365  : }

	add	rsp, 40					; 00000028H
	ret	0
Multiply_X_1W_using_MUL_ADC ENDP
_TEXT	ENDS
; Function compile flags: /Ogtpy
; File z:\sources\lunor\repos\rougemeilland\palmtree.math.core.implements\palmtree.math.core.implements\pmc_multiply.c
; File z:\sources\lunor\repos\rougemeilland\palmtree.math.core.implements\palmtree.math.core.implements\pmc_internal.h
; File z:\sources\lunor\repos\rougemeilland\palmtree.math.core.implements\palmtree.math.core.implements\pmc_multiply.c
; File z:\sources\lunor\repos\rougemeilland\palmtree.math.core.implements\palmtree.math.core.implements\pmc_internal.h
; File z:\sources\lunor\repos\rougemeilland\palmtree.math.core.implements\palmtree.math.core.implements\pmc_multiply.c
; File z:\sources\lunor\repos\rougemeilland\palmtree.math.core.implements\palmtree.math.core.implements\pmc_internal.h
; File z:\sources\lunor\repos\rougemeilland\palmtree.math.core.implements\palmtree.math.core.implements\pmc_multiply.c
; File z:\sources\lunor\repos\rougemeilland\palmtree.math.core.implements\palmtree.math.core.implements\pmc_internal.h
; File z:\sources\lunor\repos\rougemeilland\palmtree.math.core.implements\palmtree.math.core.implements\pmc_multiply.c
; File z:\sources\lunor\repos\rougemeilland\palmtree.math.core.implements\palmtree.math.core.implements\pmc_internal.h
; File z:\sources\lunor\repos\rougemeilland\palmtree.math.core.implements\palmtree.math.core.implements\pmc_multiply.c
; File z:\sources\lunor\repos\rougemeilland\palmtree.math.core.implements\palmtree.math.core.implements\pmc_internal.h
; File z:\sources\lunor\repos\rougemeilland\palmtree.math.core.implements\palmtree.math.core.implements\pmc_multiply.c
; File z:\sources\lunor\repos\rougemeilland\palmtree.math.core.implements\palmtree.math.core.implements\pmc_internal.h
; File z:\sources\lunor\repos\rougemeilland\palmtree.math.core.implements\palmtree.math.core.implements\pmc_multiply.c
; File z:\sources\lunor\repos\rougemeilland\palmtree.math.core.implements\palmtree.math.core.implements\pmc_internal.h
; File z:\sources\lunor\repos\rougemeilland\palmtree.math.core.implements\palmtree.math.core.implements\pmc_multiply.c
; File z:\sources\lunor\repos\rougemeilland\palmtree.math.core.implements\palmtree.math.core.implements\pmc_internal.h
; File z:\sources\lunor\repos\rougemeilland\palmtree.math.core.implements\palmtree.math.core.implements\pmc_multiply.c
; File z:\sources\lunor\repos\rougemeilland\palmtree.math.core.implements\palmtree.math.core.implements\pmc_internal.h
; File z:\sources\lunor\repos\rougemeilland\palmtree.math.core.implements\palmtree.math.core.implements\pmc_multiply.c
; File z:\sources\lunor\repos\rougemeilland\palmtree.math.core.implements\palmtree.math.core.implements\pmc_internal.h
; File z:\sources\lunor\repos\rougemeilland\palmtree.math.core.implements\palmtree.math.core.implements\pmc_multiply.c
; File z:\sources\lunor\repos\rougemeilland\palmtree.math.core.implements\palmtree.math.core.implements\pmc_internal.h
; File z:\sources\lunor\repos\rougemeilland\palmtree.math.core.implements\palmtree.math.core.implements\pmc_multiply.c
; File z:\sources\lunor\repos\rougemeilland\palmtree.math.core.implements\palmtree.math.core.implements\pmc_internal.h
; File z:\sources\lunor\repos\rougemeilland\palmtree.math.core.implements\palmtree.math.core.implements\pmc_multiply.c
; File z:\sources\lunor\repos\rougemeilland\palmtree.math.core.implements\palmtree.math.core.implements\pmc_internal.h
; File z:\sources\lunor\repos\rougemeilland\palmtree.math.core.implements\palmtree.math.core.implements\pmc_multiply.c
; File z:\sources\lunor\repos\rougemeilland\palmtree.math.core.implements\palmtree.math.core.implements\pmc_internal.h
; File z:\sources\lunor\repos\rougemeilland\palmtree.math.core.implements\palmtree.math.core.implements\pmc_multiply.c
; File z:\sources\lunor\repos\rougemeilland\palmtree.math.core.implements\palmtree.math.core.implements\pmc_internal.h
; File z:\sources\lunor\repos\rougemeilland\palmtree.math.core.implements\palmtree.math.core.implements\pmc_multiply.c
; File z:\sources\lunor\repos\rougemeilland\palmtree.math.core.implements\palmtree.math.core.implements\pmc_internal.h
; File z:\sources\lunor\repos\rougemeilland\palmtree.math.core.implements\palmtree.math.core.implements\pmc_multiply.c
; File z:\sources\lunor\repos\rougemeilland\palmtree.math.core.implements\palmtree.math.core.implements\pmc_internal.h
; File z:\sources\lunor\repos\rougemeilland\palmtree.math.core.implements\palmtree.math.core.implements\pmc_multiply.c
; File z:\sources\lunor\repos\rougemeilland\palmtree.math.core.implements\palmtree.math.core.implements\pmc_internal.h
; File z:\sources\lunor\repos\rougemeilland\palmtree.math.core.implements\palmtree.math.core.implements\pmc_multiply.c
; File z:\sources\lunor\repos\rougemeilland\palmtree.math.core.implements\palmtree.math.core.implements\pmc_internal.h
; File z:\sources\lunor\repos\rougemeilland\palmtree.math.core.implements\palmtree.math.core.implements\pmc_multiply.c
; File z:\sources\lunor\repos\rougemeilland\palmtree.math.core.implements\palmtree.math.core.implements\pmc_internal.h
; File z:\sources\lunor\repos\rougemeilland\palmtree.math.core.implements\palmtree.math.core.implements\pmc_multiply.c
; File z:\sources\lunor\repos\rougemeilland\palmtree.math.core.implements\palmtree.math.core.implements\pmc_internal.h
; File z:\sources\lunor\repos\rougemeilland\palmtree.math.core.implements\palmtree.math.core.implements\pmc_multiply.c
; File z:\sources\lunor\repos\rougemeilland\palmtree.math.core.implements\palmtree.math.core.implements\pmc_internal.h
; File z:\sources\lunor\repos\rougemeilland\palmtree.math.core.implements\palmtree.math.core.implements\pmc_multiply.c
; File z:\sources\lunor\repos\rougemeilland\palmtree.math.core.implements\palmtree.math.core.implements\pmc_internal.h
; File z:\sources\lunor\repos\rougemeilland\palmtree.math.core.implements\palmtree.math.core.implements\pmc_multiply.c
; File z:\sources\lunor\repos\rougemeilland\palmtree.math.core.implements\palmtree.math.core.implements\pmc_internal.h
; File z:\sources\lunor\repos\rougemeilland\palmtree.math.core.implements\palmtree.math.core.implements\pmc_multiply.c
; File z:\sources\lunor\repos\rougemeilland\palmtree.math.core.implements\palmtree.math.core.implements\pmc_internal.h
; File z:\sources\lunor\repos\rougemeilland\palmtree.math.core.implements\palmtree.math.core.implements\pmc_multiply.c
; File z:\sources\lunor\repos\rougemeilland\palmtree.math.core.implements\palmtree.math.core.implements\pmc_internal.h
; File z:\sources\lunor\repos\rougemeilland\palmtree.math.core.implements\palmtree.math.core.implements\pmc_multiply.c
; File z:\sources\lunor\repos\rougemeilland\palmtree.math.core.implements\palmtree.math.core.implements\pmc_internal.h
; File z:\sources\lunor\repos\rougemeilland\palmtree.math.core.implements\palmtree.math.core.implements\pmc_multiply.c
; File z:\sources\lunor\repos\rougemeilland\palmtree.math.core.implements\palmtree.math.core.implements\pmc_internal.h
; File z:\sources\lunor\repos\rougemeilland\palmtree.math.core.implements\palmtree.math.core.implements\pmc_multiply.c
; File z:\sources\lunor\repos\rougemeilland\palmtree.math.core.implements\palmtree.math.core.implements\pmc_internal.h
; File z:\sources\lunor\repos\rougemeilland\palmtree.math.core.implements\palmtree.math.core.implements\pmc_multiply.c
; File z:\sources\lunor\repos\rougemeilland\palmtree.math.core.implements\palmtree.math.core.implements\pmc_internal.h
; File z:\sources\lunor\repos\rougemeilland\palmtree.math.core.implements\palmtree.math.core.implements\pmc_multiply.c
; File z:\sources\lunor\repos\rougemeilland\palmtree.math.core.implements\palmtree.math.core.implements\pmc_internal.h
; File z:\sources\lunor\repos\rougemeilland\palmtree.math.core.implements\palmtree.math.core.implements\pmc_multiply.c
; File z:\sources\lunor\repos\rougemeilland\palmtree.math.core.implements\palmtree.math.core.implements\pmc_internal.h
; File z:\sources\lunor\repos\rougemeilland\palmtree.math.core.implements\palmtree.math.core.implements\pmc_multiply.c
; File z:\sources\lunor\repos\rougemeilland\palmtree.math.core.implements\palmtree.math.core.implements\pmc_internal.h
; File z:\sources\lunor\repos\rougemeilland\palmtree.math.core.implements\palmtree.math.core.implements\pmc_multiply.c
; File z:\sources\lunor\repos\rougemeilland\palmtree.math.core.implements\palmtree.math.core.implements\pmc_internal.h
; File z:\sources\lunor\repos\rougemeilland\palmtree.math.core.implements\palmtree.math.core.implements\pmc_multiply.c
; File z:\sources\lunor\repos\rougemeilland\palmtree.math.core.implements\palmtree.math.core.implements\pmc_internal.h
; File z:\sources\lunor\repos\rougemeilland\palmtree.math.core.implements\palmtree.math.core.implements\pmc_multiply.c
; File z:\sources\lunor\repos\rougemeilland\palmtree.math.core.implements\palmtree.math.core.implements\pmc_internal.h
; File z:\sources\lunor\repos\rougemeilland\palmtree.math.core.implements\palmtree.math.core.implements\pmc_multiply.c
; File z:\sources\lunor\repos\rougemeilland\palmtree.math.core.implements\palmtree.math.core.implements\pmc_internal.h
; File z:\sources\lunor\repos\rougemeilland\palmtree.math.core.implements\palmtree.math.core.implements\pmc_multiply.c
; File z:\sources\lunor\repos\rougemeilland\palmtree.math.core.implements\palmtree.math.core.implements\pmc_internal.h
; File z:\sources\lunor\repos\rougemeilland\palmtree.math.core.implements\palmtree.math.core.implements\pmc_multiply.c
; File z:\sources\lunor\repos\rougemeilland\palmtree.math.core.implements\palmtree.math.core.implements\pmc_internal.h
; File z:\sources\lunor\repos\rougemeilland\palmtree.math.core.implements\palmtree.math.core.implements\pmc_multiply.c
; File z:\sources\lunor\repos\rougemeilland\palmtree.math.core.implements\palmtree.math.core.implements\pmc_internal.h
; File z:\sources\lunor\repos\rougemeilland\palmtree.math.core.implements\palmtree.math.core.implements\pmc_multiply.c
; File z:\sources\lunor\repos\rougemeilland\palmtree.math.core.implements\palmtree.math.core.implements\pmc_internal.h
; File z:\sources\lunor\repos\rougemeilland\palmtree.math.core.implements\palmtree.math.core.implements\pmc_multiply.c
; File z:\sources\lunor\repos\rougemeilland\palmtree.math.core.implements\palmtree.math.core.implements\pmc_internal.h
; File z:\sources\lunor\repos\rougemeilland\palmtree.math.core.implements\palmtree.math.core.implements\pmc_multiply.c
; File z:\sources\lunor\repos\rougemeilland\palmtree.math.core.implements\palmtree.math.core.implements\pmc_internal.h
; File z:\sources\lunor\repos\rougemeilland\palmtree.math.core.implements\palmtree.math.core.implements\pmc_multiply.c
; File z:\sources\lunor\repos\rougemeilland\palmtree.math.core.implements\palmtree.math.core.implements\pmc_internal.h
; File z:\sources\lunor\repos\rougemeilland\palmtree.math.core.implements\palmtree.math.core.implements\pmc_multiply.c
; File z:\sources\lunor\repos\rougemeilland\palmtree.math.core.implements\palmtree.math.core.implements\pmc_internal.h
; File z:\sources\lunor\repos\rougemeilland\palmtree.math.core.implements\palmtree.math.core.implements\pmc_multiply.c
; File z:\sources\lunor\repos\rougemeilland\palmtree.math.core.implements\palmtree.math.core.implements\pmc_internal.h
; File z:\sources\lunor\repos\rougemeilland\palmtree.math.core.implements\palmtree.math.core.implements\pmc_multiply.c
; File z:\sources\lunor\repos\rougemeilland\palmtree.math.core.implements\palmtree.math.core.implements\pmc_internal.h
; File z:\sources\lunor\repos\rougemeilland\palmtree.math.core.implements\palmtree.math.core.implements\pmc_multiply.c
; File z:\sources\lunor\repos\rougemeilland\palmtree.math.core.implements\palmtree.math.core.implements\pmc_internal.h
; File z:\sources\lunor\repos\rougemeilland\palmtree.math.core.implements\palmtree.math.core.implements\pmc_multiply.c
; File z:\sources\lunor\repos\rougemeilland\palmtree.math.core.implements\palmtree.math.core.implements\pmc_internal.h
; File z:\sources\lunor\repos\rougemeilland\palmtree.math.core.implements\palmtree.math.core.implements\pmc_multiply.c
; File z:\sources\lunor\repos\rougemeilland\palmtree.math.core.implements\palmtree.math.core.implements\pmc_internal.h
; File z:\sources\lunor\repos\rougemeilland\palmtree.math.core.implements\palmtree.math.core.implements\pmc_multiply.c
; File z:\sources\lunor\repos\rougemeilland\palmtree.math.core.implements\palmtree.math.core.implements\pmc_internal.h
; File z:\sources\lunor\repos\rougemeilland\palmtree.math.core.implements\palmtree.math.core.implements\pmc_multiply.c
; File z:\sources\lunor\repos\rougemeilland\palmtree.math.core.implements\palmtree.math.core.implements\pmc_internal.h
; File z:\sources\lunor\repos\rougemeilland\palmtree.math.core.implements\palmtree.math.core.implements\pmc_multiply.c
; File z:\sources\lunor\repos\rougemeilland\palmtree.math.core.implements\palmtree.math.core.implements\pmc_internal.h
; File z:\sources\lunor\repos\rougemeilland\palmtree.math.core.implements\palmtree.math.core.implements\pmc_multiply.c
; File z:\sources\lunor\repos\rougemeilland\palmtree.math.core.implements\palmtree.math.core.implements\pmc_internal.h
; File z:\sources\lunor\repos\rougemeilland\palmtree.math.core.implements\palmtree.math.core.implements\pmc_multiply.c
; File z:\sources\lunor\repos\rougemeilland\palmtree.math.core.implements\palmtree.math.core.implements\pmc_internal.h
; File z:\sources\lunor\repos\rougemeilland\palmtree.math.core.implements\palmtree.math.core.implements\pmc_multiply.c
; File z:\sources\lunor\repos\rougemeilland\palmtree.math.core.implements\palmtree.math.core.implements\pmc_internal.h
; File z:\sources\lunor\repos\rougemeilland\palmtree.math.core.implements\palmtree.math.core.implements\pmc_multiply.c
; File z:\sources\lunor\repos\rougemeilland\palmtree.math.core.implements\palmtree.math.core.implements\pmc_internal.h
; File z:\sources\lunor\repos\rougemeilland\palmtree.math.core.implements\palmtree.math.core.implements\pmc_multiply.c
; File z:\sources\lunor\repos\rougemeilland\palmtree.math.core.implements\palmtree.math.core.implements\pmc_internal.h
; File z:\sources\lunor\repos\rougemeilland\palmtree.math.core.implements\palmtree.math.core.implements\pmc_multiply.c
; File z:\sources\lunor\repos\rougemeilland\palmtree.math.core.implements\palmtree.math.core.implements\pmc_internal.h
; File z:\sources\lunor\repos\rougemeilland\palmtree.math.core.implements\palmtree.math.core.implements\pmc_multiply.c
; File z:\sources\lunor\repos\rougemeilland\palmtree.math.core.implements\palmtree.math.core.implements\pmc_internal.h
; File z:\sources\lunor\repos\rougemeilland\palmtree.math.core.implements\palmtree.math.core.implements\pmc_multiply.c
; File z:\sources\lunor\repos\rougemeilland\palmtree.math.core.implements\palmtree.math.core.implements\pmc_internal.h
; File z:\sources\lunor\repos\rougemeilland\palmtree.math.core.implements\palmtree.math.core.implements\pmc_multiply.c
; File z:\sources\lunor\repos\rougemeilland\palmtree.math.core.implements\palmtree.math.core.implements\pmc_internal.h
; File z:\sources\lunor\repos\rougemeilland\palmtree.math.core.implements\palmtree.math.core.implements\pmc_multiply.c
; File z:\sources\lunor\repos\rougemeilland\palmtree.math.core.implements\palmtree.math.core.implements\pmc_internal.h
; File z:\sources\lunor\repos\rougemeilland\palmtree.math.core.implements\palmtree.math.core.implements\pmc_multiply.c
; File z:\sources\lunor\repos\rougemeilland\palmtree.math.core.implements\palmtree.math.core.implements\pmc_internal.h
; File z:\sources\lunor\repos\rougemeilland\palmtree.math.core.implements\palmtree.math.core.implements\pmc_multiply.c
; File z:\sources\lunor\repos\rougemeilland\palmtree.math.core.implements\palmtree.math.core.implements\pmc_internal.h
; File z:\sources\lunor\repos\rougemeilland\palmtree.math.core.implements\palmtree.math.core.implements\pmc_multiply.c
; File z:\sources\lunor\repos\rougemeilland\palmtree.math.core.implements\palmtree.math.core.implements\pmc_internal.h
; File z:\sources\lunor\repos\rougemeilland\palmtree.math.core.implements\palmtree.math.core.implements\pmc_multiply.c
; File z:\sources\lunor\repos\rougemeilland\palmtree.math.core.implements\palmtree.math.core.implements\pmc_internal.h
; File z:\sources\lunor\repos\rougemeilland\palmtree.math.core.implements\palmtree.math.core.implements\pmc_multiply.c
; File z:\sources\lunor\repos\rougemeilland\palmtree.math.core.implements\palmtree.math.core.implements\pmc_internal.h
; File z:\sources\lunor\repos\rougemeilland\palmtree.math.core.implements\palmtree.math.core.implements\pmc_multiply.c
; File z:\sources\lunor\repos\rougemeilland\palmtree.math.core.implements\palmtree.math.core.implements\pmc_internal.h
; File z:\sources\lunor\repos\rougemeilland\palmtree.math.core.implements\palmtree.math.core.implements\pmc_multiply.c
; File z:\sources\lunor\repos\rougemeilland\palmtree.math.core.implements\palmtree.math.core.implements\pmc_internal.h
; File z:\sources\lunor\repos\rougemeilland\palmtree.math.core.implements\palmtree.math.core.implements\pmc_multiply.c
; File z:\sources\lunor\repos\rougemeilland\palmtree.math.core.implements\palmtree.math.core.implements\pmc_internal.h
; File z:\sources\lunor\repos\rougemeilland\palmtree.math.core.implements\palmtree.math.core.implements\pmc_multiply.c
; File z:\sources\lunor\repos\rougemeilland\palmtree.math.core.implements\palmtree.math.core.implements\pmc_internal.h
; File z:\sources\lunor\repos\rougemeilland\palmtree.math.core.implements\palmtree.math.core.implements\pmc_multiply.c
; File z:\sources\lunor\repos\rougemeilland\palmtree.math.core.implements\palmtree.math.core.implements\pmc_internal.h
; File z:\sources\lunor\repos\rougemeilland\palmtree.math.core.implements\palmtree.math.core.implements\pmc_multiply.c
; File z:\sources\lunor\repos\rougemeilland\palmtree.math.core.implements\palmtree.math.core.implements\pmc_internal.h
; File z:\sources\lunor\repos\rougemeilland\palmtree.math.core.implements\palmtree.math.core.implements\pmc_multiply.c
; File z:\sources\lunor\repos\rougemeilland\palmtree.math.core.implements\palmtree.math.core.implements\pmc_internal.h
; File z:\sources\lunor\repos\rougemeilland\palmtree.math.core.implements\palmtree.math.core.implements\pmc_multiply.c
; File z:\sources\lunor\repos\rougemeilland\palmtree.math.core.implements\palmtree.math.core.implements\pmc_internal.h
; File z:\sources\lunor\repos\rougemeilland\palmtree.math.core.implements\palmtree.math.core.implements\pmc_multiply.c
; File z:\sources\lunor\repos\rougemeilland\palmtree.math.core.implements\palmtree.math.core.implements\pmc_internal.h
; File z:\sources\lunor\repos\rougemeilland\palmtree.math.core.implements\palmtree.math.core.implements\pmc_multiply.c
; File z:\sources\lunor\repos\rougemeilland\palmtree.math.core.implements\palmtree.math.core.implements\pmc_internal.h
; File z:\sources\lunor\repos\rougemeilland\palmtree.math.core.implements\palmtree.math.core.implements\pmc_multiply.c
; File z:\sources\lunor\repos\rougemeilland\palmtree.math.core.implements\palmtree.math.core.implements\pmc_internal.h
; File z:\sources\lunor\repos\rougemeilland\palmtree.math.core.implements\palmtree.math.core.implements\pmc_multiply.c
;	COMDAT Multiply_WORD_using_MULX_ADCX
_TEXT	SEGMENT
t_hi$1 = 0
t_lo$2 = 8
t_hi$3 = 16
t_lo$4 = 24
t_hi$5 = 32
t_lo$6 = 40
t_hi$7 = 48
t_lo$8 = 56
t_hi$9 = 64
t_lo$10 = 72
t_hi$11 = 80
t_lo$12 = 88
t_hi$13 = 96
t_lo$14 = 104
t_hi$15 = 112
t_lo$16 = 120
t_hi$17 = 128
t_lo$18 = 136
t_hi$19 = 144
t_lo$20 = 152
t_hi$21 = 160
t_lo$22 = 168
t_hi$23 = 176
t_lo$24 = 184
t_hi$25 = 192
t_lo$26 = 200
t_hi$27 = 208
t_lo$28 = 216
t_hi$29 = 224
t_lo$30 = 232
t_hi$31 = 240
t_lo$32 = 248
t_hi$33 = 256
t_lo$34 = 264
t_hi$35 = 272
t_lo$36 = 280
t_hi$37 = 288
t_lo$38 = 296
t_hi$39 = 304
t_lo$40 = 312
t_hi$41 = 320
t_lo$42 = 328
t_hi$43 = 336
t_lo$44 = 344
t_hi$45 = 352
t_lo$46 = 360
t_hi$47 = 368
t_lo$48 = 376
t_hi$49 = 384
t_lo$50 = 392
t_hi$51 = 400
t_lo$52 = 408
t_hi$53 = 416
t_lo$54 = 424
t_hi$55 = 432
t_lo$56 = 440
t_hi$57 = 448
t_lo$58 = 456
t_hi$59 = 464
t_lo$60 = 472
t_hi$61 = 480
t_lo$62 = 488
t_hi$63 = 496
t_lo$64 = 504
t_hi$65 = 512
t_lo$66 = 520
t_hi$67 = 528
t_lo$68 = 536
t_hi$69 = 544
t_lo$70 = 552
t_hi$71 = 560
t_lo$72 = 568
t_hi$73 = 576
t_lo$74 = 584
t_hi$75 = 592
t_lo$76 = 600
t_hi$77 = 608
t_lo$78 = 616
t_hi$79 = 624
t_lo$80 = 632
t_hi$81 = 640
t_lo$82 = 648
t_hi$83 = 656
t_lo$84 = 664
t_hi$85 = 672
t_lo$86 = 680
t_hi$87 = 688
t_lo$88 = 696
t_hi$89 = 704
t_lo$90 = 712
t_hi$91 = 720
t_lo$92 = 728
t_hi$93 = 736
t_lo$94 = 744
t_hi$95 = 752
t_lo$96 = 760
t_hi$97 = 768
t_lo$98 = 776
t_hi$99 = 784
t_lo$100 = 792
t_hi$101 = 800
t_lo$102 = 808
t_hi$103 = 816
t_lo$104 = 824
t_hi$105 = 832
t_lo$106 = 840
t_hi$107 = 848
t_lo$108 = 856
t_hi$109 = 864
t_lo$110 = 872
t_hi$111 = 880
t_lo$112 = 888
t_hi$113 = 896
t_lo$114 = 904
t_hi$115 = 912
t_lo$116 = 920
t_hi$117 = 928
t_lo$118 = 936
t_hi$119 = 944
t_lo$120 = 952
t_hi$121 = 960
t_lo$122 = 968
t_hi$123 = 976
t_lo$124 = 984
t_hi$125 = 992
up$ = 1040
t_lo$126 = 1048
u_count$ = 1048
v$ = 1056
wp$ = 1064
Multiply_WORD_using_MULX_ADCX PROC			; COMDAT

; 214  : {

	mov	QWORD PTR [rsp+8], rbx
	mov	QWORD PTR [rsp+24], rsi
	push	rbp
	push	rdi
	push	r14
	lea	rbp, QWORD PTR [rsp-752]
	sub	rsp, 1008				; 000003f0H

; 215  :     __UNIT_TYPE k = 0;

	xor	r14d, r14d

; 216  :     __UNIT_TYPE count = u_count >> 5;

	mov	rsi, rdx
	shr	rsi, 5
	mov	rbx, r8
	mov	rdi, rdx
	mov	r11, rcx
	mov	r10d, r14d

; 218  :     while (count != 0)

	test	rsi, rsi
	je	$LN3@Multiply_W
	npad	4
$LL2@Multiply_W:

; 58   :     t_lo = _MULTIPLYX_UNIT(*up, v, &t_hi);

	mov	rax, QWORD PTR [r11]
; File z:\sources\lunor\repos\rougemeilland\palmtree.math.core.implements\palmtree.math.core.implements\pmc_internal.h

; 590  :     return (_mulx_u64(u, v, w_hi));

	mov	rdx, rbx
	mulx	r8, rcx, rax

; 495  :     return (_addcarryx_u64(carry, u, v, w));

	add	rcx, QWORD PTR [r9]
	adcx	r8, r14
	add	rcx, r10
; File z:\sources\lunor\repos\rougemeilland\palmtree.math.core.implements\palmtree.math.core.implements\pmc_multiply.c

; 61   :     *wp = t_lo;

	mov	QWORD PTR [r9], rcx

; 58   :     t_lo = _MULTIPLYX_UNIT(*up, v, &t_hi);

	mov	rax, QWORD PTR [r11+8]
; File z:\sources\lunor\repos\rougemeilland\palmtree.math.core.implements\palmtree.math.core.implements\pmc_internal.h

; 495  :     return (_addcarryx_u64(carry, u, v, w));

	adcx	r8, r14
	mov	QWORD PTR t_lo$126[rbp-256], rcx
	mov	QWORD PTR t_hi$1[rsp], r8

; 590  :     return (_mulx_u64(u, v, w_hi));

	mulx	r10, rcx, rax

; 495  :     return (_addcarryx_u64(carry, u, v, w));

	add	rcx, QWORD PTR [r9+8]
	adcx	r10, r14
	add	rcx, r8
; File z:\sources\lunor\repos\rougemeilland\palmtree.math.core.implements\palmtree.math.core.implements\pmc_multiply.c

; 61   :     *wp = t_lo;

	mov	QWORD PTR [r9+8], rcx

; 58   :     t_lo = _MULTIPLYX_UNIT(*up, v, &t_hi);

	mov	rax, QWORD PTR [r11+16]
; File z:\sources\lunor\repos\rougemeilland\palmtree.math.core.implements\palmtree.math.core.implements\pmc_internal.h

; 495  :     return (_addcarryx_u64(carry, u, v, w));

	adcx	r10, r14
	mov	QWORD PTR t_lo$2[rsp], rcx
	mov	QWORD PTR t_hi$3[rsp], r10

; 590  :     return (_mulx_u64(u, v, w_hi));

	mulx	r8, rcx, rax

; 495  :     return (_addcarryx_u64(carry, u, v, w));

	add	rcx, QWORD PTR [r9+16]
	adcx	r8, r14
	add	rcx, r10
; File z:\sources\lunor\repos\rougemeilland\palmtree.math.core.implements\palmtree.math.core.implements\pmc_multiply.c

; 61   :     *wp = t_lo;

	mov	QWORD PTR [r9+16], rcx

; 58   :     t_lo = _MULTIPLYX_UNIT(*up, v, &t_hi);

	mov	rax, QWORD PTR [r11+24]
; File z:\sources\lunor\repos\rougemeilland\palmtree.math.core.implements\palmtree.math.core.implements\pmc_internal.h

; 495  :     return (_addcarryx_u64(carry, u, v, w));

	adcx	r8, r14
	mov	QWORD PTR t_lo$4[rsp], rcx
	mov	QWORD PTR t_hi$5[rsp], r8

; 590  :     return (_mulx_u64(u, v, w_hi));

	mulx	r10, rcx, rax

; 495  :     return (_addcarryx_u64(carry, u, v, w));

	add	rcx, QWORD PTR [r9+24]
	adcx	r10, r14
	add	rcx, r8
; File z:\sources\lunor\repos\rougemeilland\palmtree.math.core.implements\palmtree.math.core.implements\pmc_multiply.c

; 61   :     *wp = t_lo;

	mov	QWORD PTR [r9+24], rcx

; 58   :     t_lo = _MULTIPLYX_UNIT(*up, v, &t_hi);

	mov	rax, QWORD PTR [r11+32]
; File z:\sources\lunor\repos\rougemeilland\palmtree.math.core.implements\palmtree.math.core.implements\pmc_internal.h

; 495  :     return (_addcarryx_u64(carry, u, v, w));

	adcx	r10, r14
	mov	QWORD PTR t_lo$6[rsp], rcx

; 590  :     return (_mulx_u64(u, v, w_hi));

	mulx	r8, rcx, rax

; 495  :     return (_addcarryx_u64(carry, u, v, w));

	add	rcx, QWORD PTR [r9+32]
	mov	QWORD PTR t_hi$7[rsp], r10
	adcx	r8, r14
	add	rcx, r10
; File z:\sources\lunor\repos\rougemeilland\palmtree.math.core.implements\palmtree.math.core.implements\pmc_multiply.c

; 61   :     *wp = t_lo;

	mov	QWORD PTR [r9+32], rcx

; 58   :     t_lo = _MULTIPLYX_UNIT(*up, v, &t_hi);

	mov	rax, QWORD PTR [r11+40]
; File z:\sources\lunor\repos\rougemeilland\palmtree.math.core.implements\palmtree.math.core.implements\pmc_internal.h

; 495  :     return (_addcarryx_u64(carry, u, v, w));

	adcx	r8, r14
	mov	QWORD PTR t_lo$8[rsp], rcx
	mov	QWORD PTR t_hi$9[rsp], r8

; 590  :     return (_mulx_u64(u, v, w_hi));

	mulx	r10, rcx, rax

; 495  :     return (_addcarryx_u64(carry, u, v, w));

	add	rcx, QWORD PTR [r9+40]
	adcx	r10, r14
	add	rcx, r8
; File z:\sources\lunor\repos\rougemeilland\palmtree.math.core.implements\palmtree.math.core.implements\pmc_multiply.c

; 61   :     *wp = t_lo;

	mov	QWORD PTR [r9+40], rcx

; 58   :     t_lo = _MULTIPLYX_UNIT(*up, v, &t_hi);

	mov	rax, QWORD PTR [r11+48]
; File z:\sources\lunor\repos\rougemeilland\palmtree.math.core.implements\palmtree.math.core.implements\pmc_internal.h

; 495  :     return (_addcarryx_u64(carry, u, v, w));

	adcx	r10, r14
	mov	QWORD PTR t_lo$10[rsp], rcx

; 590  :     return (_mulx_u64(u, v, w_hi));

	mulx	r8, rcx, rax

; 495  :     return (_addcarryx_u64(carry, u, v, w));

	add	rcx, QWORD PTR [r9+48]
	mov	QWORD PTR t_hi$11[rsp], r10
	adcx	r8, r14
	add	rcx, r10
; File z:\sources\lunor\repos\rougemeilland\palmtree.math.core.implements\palmtree.math.core.implements\pmc_multiply.c

; 61   :     *wp = t_lo;

	mov	QWORD PTR [r9+48], rcx

; 58   :     t_lo = _MULTIPLYX_UNIT(*up, v, &t_hi);

	mov	rax, QWORD PTR [r11+56]
; File z:\sources\lunor\repos\rougemeilland\palmtree.math.core.implements\palmtree.math.core.implements\pmc_internal.h

; 495  :     return (_addcarryx_u64(carry, u, v, w));

	adcx	r8, r14
	mov	QWORD PTR t_lo$12[rsp], rcx

; 590  :     return (_mulx_u64(u, v, w_hi));

	mulx	r10, rcx, rax

; 495  :     return (_addcarryx_u64(carry, u, v, w));

	add	rcx, QWORD PTR [r9+56]
	mov	QWORD PTR t_hi$13[rsp], r8
	adcx	r10, r14
	add	rcx, r8
; File z:\sources\lunor\repos\rougemeilland\palmtree.math.core.implements\palmtree.math.core.implements\pmc_multiply.c

; 61   :     *wp = t_lo;

	mov	QWORD PTR [r9+56], rcx

; 58   :     t_lo = _MULTIPLYX_UNIT(*up, v, &t_hi);

	mov	rax, QWORD PTR [r11+64]
; File z:\sources\lunor\repos\rougemeilland\palmtree.math.core.implements\palmtree.math.core.implements\pmc_internal.h

; 495  :     return (_addcarryx_u64(carry, u, v, w));

	adcx	r10, r14
	mov	QWORD PTR t_lo$14[rsp], rcx

; 590  :     return (_mulx_u64(u, v, w_hi));

	mulx	r8, rcx, rax

; 495  :     return (_addcarryx_u64(carry, u, v, w));

	add	rcx, QWORD PTR [r9+64]
	mov	QWORD PTR t_hi$15[rsp], r10
	adcx	r8, r14
	add	rcx, r10
	mov	QWORD PTR t_lo$16[rsp], rcx
	adcx	r8, r14
	mov	QWORD PTR t_hi$17[rbp-256], r8
; File z:\sources\lunor\repos\rougemeilland\palmtree.math.core.implements\palmtree.math.core.implements\pmc_multiply.c

; 61   :     *wp = t_lo;

	mov	QWORD PTR [r9+64], rcx

; 58   :     t_lo = _MULTIPLYX_UNIT(*up, v, &t_hi);

	mov	rax, QWORD PTR [r11+72]
; File z:\sources\lunor\repos\rougemeilland\palmtree.math.core.implements\palmtree.math.core.implements\pmc_internal.h

; 590  :     return (_mulx_u64(u, v, w_hi));

	mulx	r10, rcx, rax

; 495  :     return (_addcarryx_u64(carry, u, v, w));

	add	rcx, QWORD PTR [r9+72]
	adcx	r10, r14
	add	rcx, r8
; File z:\sources\lunor\repos\rougemeilland\palmtree.math.core.implements\palmtree.math.core.implements\pmc_multiply.c

; 61   :     *wp = t_lo;

	mov	QWORD PTR [r9+72], rcx

; 58   :     t_lo = _MULTIPLYX_UNIT(*up, v, &t_hi);

	mov	rax, QWORD PTR [r11+80]
; File z:\sources\lunor\repos\rougemeilland\palmtree.math.core.implements\palmtree.math.core.implements\pmc_internal.h

; 495  :     return (_addcarryx_u64(carry, u, v, w));

	adcx	r10, r14
	mov	QWORD PTR t_lo$18[rbp-256], rcx
	mov	QWORD PTR t_hi$19[rbp-256], r10

; 590  :     return (_mulx_u64(u, v, w_hi));

	mulx	r8, rcx, rax

; 495  :     return (_addcarryx_u64(carry, u, v, w));

	add	rcx, QWORD PTR [r9+80]
	adcx	r8, r14
	add	rcx, r10
; File z:\sources\lunor\repos\rougemeilland\palmtree.math.core.implements\palmtree.math.core.implements\pmc_multiply.c

; 61   :     *wp = t_lo;

	mov	QWORD PTR [r9+80], rcx

; 58   :     t_lo = _MULTIPLYX_UNIT(*up, v, &t_hi);

	mov	rax, QWORD PTR [r11+88]
; File z:\sources\lunor\repos\rougemeilland\palmtree.math.core.implements\palmtree.math.core.implements\pmc_internal.h

; 495  :     return (_addcarryx_u64(carry, u, v, w));

	adcx	r8, r14
	mov	QWORD PTR t_lo$20[rbp-256], rcx
	mov	QWORD PTR t_hi$21[rbp-256], r8

; 590  :     return (_mulx_u64(u, v, w_hi));

	mulx	r10, rcx, rax

; 495  :     return (_addcarryx_u64(carry, u, v, w));

	add	rcx, QWORD PTR [r9+88]
	adcx	r10, r14
	add	rcx, r8
; File z:\sources\lunor\repos\rougemeilland\palmtree.math.core.implements\palmtree.math.core.implements\pmc_multiply.c

; 61   :     *wp = t_lo;

	mov	QWORD PTR [r9+88], rcx

; 58   :     t_lo = _MULTIPLYX_UNIT(*up, v, &t_hi);

	mov	rax, QWORD PTR [r11+96]
; File z:\sources\lunor\repos\rougemeilland\palmtree.math.core.implements\palmtree.math.core.implements\pmc_internal.h

; 495  :     return (_addcarryx_u64(carry, u, v, w));

	adcx	r10, r14
	mov	QWORD PTR t_lo$22[rbp-256], rcx
	mov	QWORD PTR t_hi$23[rbp-256], r10

; 590  :     return (_mulx_u64(u, v, w_hi));

	mulx	r8, rcx, rax

; 495  :     return (_addcarryx_u64(carry, u, v, w));

	add	rcx, QWORD PTR [r9+96]
	adcx	r8, r14
	add	rcx, r10
; File z:\sources\lunor\repos\rougemeilland\palmtree.math.core.implements\palmtree.math.core.implements\pmc_multiply.c

; 61   :     *wp = t_lo;

	mov	QWORD PTR [r9+96], rcx

; 58   :     t_lo = _MULTIPLYX_UNIT(*up, v, &t_hi);

	mov	rax, QWORD PTR [r11+104]
; File z:\sources\lunor\repos\rougemeilland\palmtree.math.core.implements\palmtree.math.core.implements\pmc_internal.h

; 495  :     return (_addcarryx_u64(carry, u, v, w));

	adcx	r8, r14
	mov	QWORD PTR t_lo$24[rbp-256], rcx

; 590  :     return (_mulx_u64(u, v, w_hi));

	mulx	r10, rcx, rax

; 495  :     return (_addcarryx_u64(carry, u, v, w));

	add	rcx, QWORD PTR [r9+104]
	mov	QWORD PTR t_hi$25[rbp-256], r8
	adcx	r10, r14
	add	rcx, r8
; File z:\sources\lunor\repos\rougemeilland\palmtree.math.core.implements\palmtree.math.core.implements\pmc_multiply.c

; 61   :     *wp = t_lo;

	mov	QWORD PTR [r9+104], rcx

; 58   :     t_lo = _MULTIPLYX_UNIT(*up, v, &t_hi);

	mov	rax, QWORD PTR [r11+112]
; File z:\sources\lunor\repos\rougemeilland\palmtree.math.core.implements\palmtree.math.core.implements\pmc_internal.h

; 495  :     return (_addcarryx_u64(carry, u, v, w));

	adcx	r10, r14
	mov	QWORD PTR t_lo$26[rbp-256], rcx
	mov	QWORD PTR t_hi$27[rbp-256], r10

; 590  :     return (_mulx_u64(u, v, w_hi));

	mulx	r8, rcx, rax

; 495  :     return (_addcarryx_u64(carry, u, v, w));

	add	rcx, QWORD PTR [r9+112]
	adcx	r8, r14
	add	rcx, r10
; File z:\sources\lunor\repos\rougemeilland\palmtree.math.core.implements\palmtree.math.core.implements\pmc_multiply.c

; 61   :     *wp = t_lo;

	mov	QWORD PTR [r9+112], rcx

; 58   :     t_lo = _MULTIPLYX_UNIT(*up, v, &t_hi);

	mov	rax, QWORD PTR [r11+120]
; File z:\sources\lunor\repos\rougemeilland\palmtree.math.core.implements\palmtree.math.core.implements\pmc_internal.h

; 495  :     return (_addcarryx_u64(carry, u, v, w));

	adcx	r8, r14
	mov	QWORD PTR t_lo$28[rbp-256], rcx

; 590  :     return (_mulx_u64(u, v, w_hi));

	mulx	r10, rcx, rax

; 495  :     return (_addcarryx_u64(carry, u, v, w));

	add	rcx, QWORD PTR [r9+120]
	mov	QWORD PTR t_hi$29[rbp-256], r8
	adcx	r10, r14
	add	rcx, r8
; File z:\sources\lunor\repos\rougemeilland\palmtree.math.core.implements\palmtree.math.core.implements\pmc_multiply.c

; 61   :     *wp = t_lo;

	mov	QWORD PTR [r9+120], rcx

; 58   :     t_lo = _MULTIPLYX_UNIT(*up, v, &t_hi);

	mov	rax, QWORD PTR [r11+128]
; File z:\sources\lunor\repos\rougemeilland\palmtree.math.core.implements\palmtree.math.core.implements\pmc_internal.h

; 495  :     return (_addcarryx_u64(carry, u, v, w));

	adcx	r10, r14
	mov	QWORD PTR t_lo$30[rbp-256], rcx

; 590  :     return (_mulx_u64(u, v, w_hi));

	mulx	r8, rcx, rax

; 495  :     return (_addcarryx_u64(carry, u, v, w));

	add	rcx, QWORD PTR [r9+128]
	mov	QWORD PTR t_hi$31[rbp-256], r10
	adcx	r8, r14
	add	rcx, r10
; File z:\sources\lunor\repos\rougemeilland\palmtree.math.core.implements\palmtree.math.core.implements\pmc_multiply.c

; 61   :     *wp = t_lo;

	mov	QWORD PTR [r9+128], rcx

; 58   :     t_lo = _MULTIPLYX_UNIT(*up, v, &t_hi);

	mov	rax, QWORD PTR [r11+136]
; File z:\sources\lunor\repos\rougemeilland\palmtree.math.core.implements\palmtree.math.core.implements\pmc_internal.h

; 495  :     return (_addcarryx_u64(carry, u, v, w));

	adcx	r8, r14
	mov	QWORD PTR t_lo$32[rbp-256], rcx

; 590  :     return (_mulx_u64(u, v, w_hi));

	mulx	r10, rcx, rax

; 495  :     return (_addcarryx_u64(carry, u, v, w));

	add	rcx, QWORD PTR [r9+136]
	mov	QWORD PTR t_hi$33[rbp-256], r8
	adcx	r10, r14
	add	rcx, r8
	mov	QWORD PTR t_lo$34[rbp-256], rcx
	adcx	r10, r14
	mov	QWORD PTR t_hi$35[rbp-256], r10
; File z:\sources\lunor\repos\rougemeilland\palmtree.math.core.implements\palmtree.math.core.implements\pmc_multiply.c

; 61   :     *wp = t_lo;

	mov	QWORD PTR [r9+136], rcx

; 58   :     t_lo = _MULTIPLYX_UNIT(*up, v, &t_hi);

	mov	rax, QWORD PTR [r11+144]
; File z:\sources\lunor\repos\rougemeilland\palmtree.math.core.implements\palmtree.math.core.implements\pmc_internal.h

; 590  :     return (_mulx_u64(u, v, w_hi));

	mulx	r8, rcx, rax

; 495  :     return (_addcarryx_u64(carry, u, v, w));

	add	rcx, QWORD PTR [r9+144]
	adcx	r8, r14
	add	rcx, r10
; File z:\sources\lunor\repos\rougemeilland\palmtree.math.core.implements\palmtree.math.core.implements\pmc_multiply.c

; 61   :     *wp = t_lo;

	mov	QWORD PTR [r9+144], rcx

; 58   :     t_lo = _MULTIPLYX_UNIT(*up, v, &t_hi);

	mov	rax, QWORD PTR [r11+152]
; File z:\sources\lunor\repos\rougemeilland\palmtree.math.core.implements\palmtree.math.core.implements\pmc_internal.h

; 495  :     return (_addcarryx_u64(carry, u, v, w));

	adcx	r8, r14
	mov	QWORD PTR t_lo$36[rbp-256], rcx
	mov	QWORD PTR t_hi$37[rbp-256], r8

; 590  :     return (_mulx_u64(u, v, w_hi));

	mulx	r10, rcx, rax

; 495  :     return (_addcarryx_u64(carry, u, v, w));

	add	rcx, QWORD PTR [r9+152]
	adcx	r10, r14
	add	rcx, r8
; File z:\sources\lunor\repos\rougemeilland\palmtree.math.core.implements\palmtree.math.core.implements\pmc_multiply.c

; 61   :     *wp = t_lo;

	mov	QWORD PTR [r9+152], rcx

; 58   :     t_lo = _MULTIPLYX_UNIT(*up, v, &t_hi);

	mov	rax, QWORD PTR [r11+160]
; File z:\sources\lunor\repos\rougemeilland\palmtree.math.core.implements\palmtree.math.core.implements\pmc_internal.h

; 495  :     return (_addcarryx_u64(carry, u, v, w));

	adcx	r10, r14
	mov	QWORD PTR t_lo$38[rbp-256], rcx
	mov	QWORD PTR t_hi$39[rbp-256], r10

; 590  :     return (_mulx_u64(u, v, w_hi));

	mulx	r8, rcx, rax

; 495  :     return (_addcarryx_u64(carry, u, v, w));

	add	rcx, QWORD PTR [r9+160]
	adcx	r8, r14
	add	rcx, r10
; File z:\sources\lunor\repos\rougemeilland\palmtree.math.core.implements\palmtree.math.core.implements\pmc_multiply.c

; 61   :     *wp = t_lo;

	mov	QWORD PTR [r9+160], rcx

; 58   :     t_lo = _MULTIPLYX_UNIT(*up, v, &t_hi);

	mov	rax, QWORD PTR [r11+168]
; File z:\sources\lunor\repos\rougemeilland\palmtree.math.core.implements\palmtree.math.core.implements\pmc_internal.h

; 495  :     return (_addcarryx_u64(carry, u, v, w));

	adcx	r8, r14
	mov	QWORD PTR t_lo$40[rbp-256], rcx
	mov	QWORD PTR t_hi$41[rbp-256], r8

; 590  :     return (_mulx_u64(u, v, w_hi));

	mulx	r10, rcx, rax

; 495  :     return (_addcarryx_u64(carry, u, v, w));

	add	rcx, QWORD PTR [r9+168]
	adcx	r10, r14
	add	rcx, r8
; File z:\sources\lunor\repos\rougemeilland\palmtree.math.core.implements\palmtree.math.core.implements\pmc_multiply.c

; 61   :     *wp = t_lo;

	mov	QWORD PTR [r9+168], rcx

; 58   :     t_lo = _MULTIPLYX_UNIT(*up, v, &t_hi);

	mov	rax, QWORD PTR [r11+176]
; File z:\sources\lunor\repos\rougemeilland\palmtree.math.core.implements\palmtree.math.core.implements\pmc_internal.h

; 495  :     return (_addcarryx_u64(carry, u, v, w));

	adcx	r10, r14
	mov	QWORD PTR t_lo$42[rbp-256], rcx

; 590  :     return (_mulx_u64(u, v, w_hi));

	mulx	r8, rcx, rax

; 495  :     return (_addcarryx_u64(carry, u, v, w));

	add	rcx, QWORD PTR [r9+176]
	mov	QWORD PTR t_hi$43[rbp-256], r10
	adcx	r8, r14
	add	rcx, r10
; File z:\sources\lunor\repos\rougemeilland\palmtree.math.core.implements\palmtree.math.core.implements\pmc_multiply.c

; 61   :     *wp = t_lo;

	mov	QWORD PTR [r9+176], rcx

; 58   :     t_lo = _MULTIPLYX_UNIT(*up, v, &t_hi);

	mov	rax, QWORD PTR [r11+184]
; File z:\sources\lunor\repos\rougemeilland\palmtree.math.core.implements\palmtree.math.core.implements\pmc_internal.h

; 495  :     return (_addcarryx_u64(carry, u, v, w));

	adcx	r8, r14
	mov	QWORD PTR t_lo$44[rbp-256], rcx
	mov	QWORD PTR t_hi$45[rbp-256], r8

; 590  :     return (_mulx_u64(u, v, w_hi));

	mulx	r10, rcx, rax

; 495  :     return (_addcarryx_u64(carry, u, v, w));

	add	rcx, QWORD PTR [r9+184]
	adcx	r10, r14
	add	rcx, r8
; File z:\sources\lunor\repos\rougemeilland\palmtree.math.core.implements\palmtree.math.core.implements\pmc_multiply.c

; 61   :     *wp = t_lo;

	mov	QWORD PTR [r9+184], rcx

; 58   :     t_lo = _MULTIPLYX_UNIT(*up, v, &t_hi);

	mov	rax, QWORD PTR [r11+192]
; File z:\sources\lunor\repos\rougemeilland\palmtree.math.core.implements\palmtree.math.core.implements\pmc_internal.h

; 495  :     return (_addcarryx_u64(carry, u, v, w));

	adcx	r10, r14
	mov	QWORD PTR t_lo$46[rbp-256], rcx

; 590  :     return (_mulx_u64(u, v, w_hi));

	mulx	r8, rcx, rax

; 495  :     return (_addcarryx_u64(carry, u, v, w));

	add	rcx, QWORD PTR [r9+192]
	mov	QWORD PTR t_hi$47[rbp-256], r10
	adcx	r8, r14
	add	rcx, r10
; File z:\sources\lunor\repos\rougemeilland\palmtree.math.core.implements\palmtree.math.core.implements\pmc_multiply.c

; 61   :     *wp = t_lo;

	mov	QWORD PTR [r9+192], rcx

; 58   :     t_lo = _MULTIPLYX_UNIT(*up, v, &t_hi);

	mov	rax, QWORD PTR [r11+200]
; File z:\sources\lunor\repos\rougemeilland\palmtree.math.core.implements\palmtree.math.core.implements\pmc_internal.h

; 495  :     return (_addcarryx_u64(carry, u, v, w));

	adcx	r8, r14
	mov	QWORD PTR t_lo$48[rbp-256], rcx

; 590  :     return (_mulx_u64(u, v, w_hi));

	mulx	r10, rcx, rax

; 495  :     return (_addcarryx_u64(carry, u, v, w));

	add	rcx, QWORD PTR [r9+200]
	mov	QWORD PTR t_hi$49[rbp-256], r8
	adcx	r10, r14
	add	rcx, r8
; File z:\sources\lunor\repos\rougemeilland\palmtree.math.core.implements\palmtree.math.core.implements\pmc_multiply.c

; 61   :     *wp = t_lo;

	mov	QWORD PTR [r9+200], rcx

; 58   :     t_lo = _MULTIPLYX_UNIT(*up, v, &t_hi);

	mov	rax, QWORD PTR [r11+208]
; File z:\sources\lunor\repos\rougemeilland\palmtree.math.core.implements\palmtree.math.core.implements\pmc_internal.h

; 495  :     return (_addcarryx_u64(carry, u, v, w));

	adcx	r10, r14
	mov	QWORD PTR t_lo$50[rbp-256], rcx

; 590  :     return (_mulx_u64(u, v, w_hi));

	mulx	r8, rcx, rax

; 495  :     return (_addcarryx_u64(carry, u, v, w));

	add	rcx, QWORD PTR [r9+208]
	mov	QWORD PTR t_hi$51[rbp-256], r10
	adcx	r8, r14
	add	rcx, r10
	mov	QWORD PTR t_lo$52[rbp-256], rcx
	adcx	r8, r14
	mov	QWORD PTR t_hi$53[rbp-256], r8
; File z:\sources\lunor\repos\rougemeilland\palmtree.math.core.implements\palmtree.math.core.implements\pmc_multiply.c

; 61   :     *wp = t_lo;

	mov	QWORD PTR [r9+208], rcx

; 58   :     t_lo = _MULTIPLYX_UNIT(*up, v, &t_hi);

	mov	rax, QWORD PTR [r11+216]
; File z:\sources\lunor\repos\rougemeilland\palmtree.math.core.implements\palmtree.math.core.implements\pmc_internal.h

; 590  :     return (_mulx_u64(u, v, w_hi));

	mulx	r10, rcx, rax

; 495  :     return (_addcarryx_u64(carry, u, v, w));

	add	rcx, QWORD PTR [r9+216]
	adcx	r10, r14
	add	rcx, r8
; File z:\sources\lunor\repos\rougemeilland\palmtree.math.core.implements\palmtree.math.core.implements\pmc_multiply.c

; 61   :     *wp = t_lo;

	mov	QWORD PTR [r9+216], rcx

; 58   :     t_lo = _MULTIPLYX_UNIT(*up, v, &t_hi);

	mov	rax, QWORD PTR [r11+224]
; File z:\sources\lunor\repos\rougemeilland\palmtree.math.core.implements\palmtree.math.core.implements\pmc_internal.h

; 495  :     return (_addcarryx_u64(carry, u, v, w));

	adcx	r10, r14
	mov	QWORD PTR t_lo$54[rbp-256], rcx

; 590  :     return (_mulx_u64(u, v, w_hi));

	mulx	r8, rcx, rax

; 495  :     return (_addcarryx_u64(carry, u, v, w));

	add	rcx, QWORD PTR [r9+224]
	mov	QWORD PTR t_hi$55[rbp-256], r10
	adcx	r8, r14
	add	rcx, r10
; File z:\sources\lunor\repos\rougemeilland\palmtree.math.core.implements\palmtree.math.core.implements\pmc_multiply.c

; 61   :     *wp = t_lo;

	mov	QWORD PTR [r9+224], rcx

; 58   :     t_lo = _MULTIPLYX_UNIT(*up, v, &t_hi);

	mov	rax, QWORD PTR [r11+232]
; File z:\sources\lunor\repos\rougemeilland\palmtree.math.core.implements\palmtree.math.core.implements\pmc_internal.h

; 495  :     return (_addcarryx_u64(carry, u, v, w));

	adcx	r8, r14
	mov	QWORD PTR t_lo$56[rbp-256], rcx

; 590  :     return (_mulx_u64(u, v, w_hi));

	mulx	r10, rcx, rax

; 495  :     return (_addcarryx_u64(carry, u, v, w));

	add	rcx, QWORD PTR [r9+232]
	mov	QWORD PTR t_hi$57[rbp-256], r8
	adcx	r10, r14
	add	rcx, r8
; File z:\sources\lunor\repos\rougemeilland\palmtree.math.core.implements\palmtree.math.core.implements\pmc_multiply.c

; 61   :     *wp = t_lo;

	mov	QWORD PTR [r9+232], rcx

; 58   :     t_lo = _MULTIPLYX_UNIT(*up, v, &t_hi);

	mov	rax, QWORD PTR [r11+240]
; File z:\sources\lunor\repos\rougemeilland\palmtree.math.core.implements\palmtree.math.core.implements\pmc_internal.h

; 495  :     return (_addcarryx_u64(carry, u, v, w));

	adcx	r10, r14
	mov	QWORD PTR t_lo$58[rbp-256], rcx

; 590  :     return (_mulx_u64(u, v, w_hi));

	mulx	r8, rcx, rax

; 495  :     return (_addcarryx_u64(carry, u, v, w));

	add	rcx, QWORD PTR [r9+240]
	mov	QWORD PTR t_hi$59[rbp-256], r10
	adcx	r8, r14
	add	rcx, r10
; File z:\sources\lunor\repos\rougemeilland\palmtree.math.core.implements\palmtree.math.core.implements\pmc_multiply.c

; 61   :     *wp = t_lo;

	mov	QWORD PTR [r9+240], rcx

; 58   :     t_lo = _MULTIPLYX_UNIT(*up, v, &t_hi);

	mov	rax, QWORD PTR [r11+248]
; File z:\sources\lunor\repos\rougemeilland\palmtree.math.core.implements\palmtree.math.core.implements\pmc_internal.h

; 495  :     return (_addcarryx_u64(carry, u, v, w));

	adcx	r8, r14
	mov	QWORD PTR t_lo$60[rbp-256], rcx

; 590  :     return (_mulx_u64(u, v, w_hi));

	mulx	r10, rcx, rax

; 495  :     return (_addcarryx_u64(carry, u, v, w));

	add	rcx, QWORD PTR [r9+248]

; 1030 :     _InterlockedExchangeAdd(&statistics_info.COUNT_MULTI64, value);

	mov	eax, 32					; 00000020H

; 495  :     return (_addcarryx_u64(carry, u, v, w));

	mov	QWORD PTR t_hi$61[rbp-256], r8
	adcx	r10, r14
	add	rcx, r8
; File z:\sources\lunor\repos\rougemeilland\palmtree.math.core.implements\palmtree.math.core.implements\pmc_multiply.c

; 61   :     *wp = t_lo;

	mov	QWORD PTR [r9+248], rcx
; File z:\sources\lunor\repos\rougemeilland\palmtree.math.core.implements\palmtree.math.core.implements\pmc_internal.h

; 495  :     return (_addcarryx_u64(carry, u, v, w));

	adcx	r10, r14
; File z:\sources\lunor\repos\rougemeilland\palmtree.math.core.implements\palmtree.math.core.implements\pmc_multiply.c

; 252  :         up += 32;

	add	r11, 256				; 00000100H
; File z:\sources\lunor\repos\rougemeilland\palmtree.math.core.implements\palmtree.math.core.implements\pmc_internal.h

; 495  :     return (_addcarryx_u64(carry, u, v, w));

	mov	QWORD PTR t_lo$62[rbp-256], rcx
; File z:\sources\lunor\repos\rougemeilland\palmtree.math.core.implements\palmtree.math.core.implements\pmc_multiply.c

; 253  :         wp += 32;

	add	r9, 256					; 00000100H
; File z:\sources\lunor\repos\rougemeilland\palmtree.math.core.implements\palmtree.math.core.implements\pmc_internal.h

; 495  :     return (_addcarryx_u64(carry, u, v, w));

	mov	QWORD PTR t_hi$63[rbp-256], r10

; 1030 :     _InterlockedExchangeAdd(&statistics_info.COUNT_MULTI64, value);

	lock xadd DWORD PTR statistics_info, eax
; File z:\sources\lunor\repos\rougemeilland\palmtree.math.core.implements\palmtree.math.core.implements\pmc_multiply.c

; 218  :     while (count != 0)

	sub	rsi, 1
	jne	$LL2@Multiply_W
$LN3@Multiply_W:

; 254  :         --count;
; 255  : #ifdef ENABLED_PERFORMANCE_COUNTER
; 256  :         if (sizeof(k) == sizeof(_UINT32_T))
; 257  :             AddToMULTI32Counter(32);
; 258  :         else
; 259  :             AddToMULTI64Counter(32);
; 260  : #endif
; 261  :     }
; 262  : 
; 263  :     if (u_count & 0x10)

	test	dil, 16
	je	$LN605@Multiply_W

; 58   :     t_lo = _MULTIPLYX_UNIT(*up, v, &t_hi);

	mov	rax, QWORD PTR [r11]
; File z:\sources\lunor\repos\rougemeilland\palmtree.math.core.implements\palmtree.math.core.implements\pmc_internal.h

; 590  :     return (_mulx_u64(u, v, w_hi));

	mov	rdx, rbx
	mulx	r8, rcx, rax

; 495  :     return (_addcarryx_u64(carry, u, v, w));

	add	rcx, QWORD PTR [r9]
	adcx	r8, r14
	add	rcx, r10
; File z:\sources\lunor\repos\rougemeilland\palmtree.math.core.implements\palmtree.math.core.implements\pmc_multiply.c

; 61   :     *wp = t_lo;

	mov	QWORD PTR [r9], rcx

; 58   :     t_lo = _MULTIPLYX_UNIT(*up, v, &t_hi);

	mov	rax, QWORD PTR [r11+8]
; File z:\sources\lunor\repos\rougemeilland\palmtree.math.core.implements\palmtree.math.core.implements\pmc_internal.h

; 495  :     return (_addcarryx_u64(carry, u, v, w));

	adcx	r8, r14
	mov	QWORD PTR t_lo$64[rbp-256], rcx
	mov	QWORD PTR t_hi$65[rbp-256], r8

; 590  :     return (_mulx_u64(u, v, w_hi));

	mulx	r10, rcx, rax

; 495  :     return (_addcarryx_u64(carry, u, v, w));

	add	rcx, QWORD PTR [r9+8]
	adcx	r10, r14
	add	rcx, r8
; File z:\sources\lunor\repos\rougemeilland\palmtree.math.core.implements\palmtree.math.core.implements\pmc_multiply.c

; 61   :     *wp = t_lo;

	mov	QWORD PTR [r9+8], rcx

; 58   :     t_lo = _MULTIPLYX_UNIT(*up, v, &t_hi);

	mov	rax, QWORD PTR [r11+16]
; File z:\sources\lunor\repos\rougemeilland\palmtree.math.core.implements\palmtree.math.core.implements\pmc_internal.h

; 495  :     return (_addcarryx_u64(carry, u, v, w));

	adcx	r10, r14
	mov	QWORD PTR t_lo$66[rbp-256], rcx
	mov	QWORD PTR t_hi$67[rbp-256], r10

; 590  :     return (_mulx_u64(u, v, w_hi));

	mulx	r8, rcx, rax

; 495  :     return (_addcarryx_u64(carry, u, v, w));

	add	rcx, QWORD PTR [r9+16]
	adcx	r8, r14
	add	rcx, r10
; File z:\sources\lunor\repos\rougemeilland\palmtree.math.core.implements\palmtree.math.core.implements\pmc_multiply.c

; 61   :     *wp = t_lo;

	mov	QWORD PTR [r9+16], rcx

; 58   :     t_lo = _MULTIPLYX_UNIT(*up, v, &t_hi);

	mov	rax, QWORD PTR [r11+24]
; File z:\sources\lunor\repos\rougemeilland\palmtree.math.core.implements\palmtree.math.core.implements\pmc_internal.h

; 495  :     return (_addcarryx_u64(carry, u, v, w));

	adcx	r8, r14
	mov	QWORD PTR t_lo$68[rbp-256], rcx
	mov	QWORD PTR t_hi$69[rbp-256], r8

; 590  :     return (_mulx_u64(u, v, w_hi));

	mulx	r10, rcx, rax

; 495  :     return (_addcarryx_u64(carry, u, v, w));

	add	rcx, QWORD PTR [r9+24]
	adcx	r10, r14
	add	rcx, r8
; File z:\sources\lunor\repos\rougemeilland\palmtree.math.core.implements\palmtree.math.core.implements\pmc_multiply.c

; 61   :     *wp = t_lo;

	mov	QWORD PTR [r9+24], rcx

; 58   :     t_lo = _MULTIPLYX_UNIT(*up, v, &t_hi);

	mov	rax, QWORD PTR [r11+32]
; File z:\sources\lunor\repos\rougemeilland\palmtree.math.core.implements\palmtree.math.core.implements\pmc_internal.h

; 495  :     return (_addcarryx_u64(carry, u, v, w));

	adcx	r10, r14
	mov	QWORD PTR t_lo$70[rbp-256], rcx

; 590  :     return (_mulx_u64(u, v, w_hi));

	mulx	r8, rcx, rax

; 495  :     return (_addcarryx_u64(carry, u, v, w));

	add	rcx, QWORD PTR [r9+32]
	mov	QWORD PTR t_hi$71[rbp-256], r10
	adcx	r8, r14
	add	rcx, r10
; File z:\sources\lunor\repos\rougemeilland\palmtree.math.core.implements\palmtree.math.core.implements\pmc_multiply.c

; 61   :     *wp = t_lo;

	mov	QWORD PTR [r9+32], rcx

; 58   :     t_lo = _MULTIPLYX_UNIT(*up, v, &t_hi);

	mov	rax, QWORD PTR [r11+40]
; File z:\sources\lunor\repos\rougemeilland\palmtree.math.core.implements\palmtree.math.core.implements\pmc_internal.h

; 495  :     return (_addcarryx_u64(carry, u, v, w));

	adcx	r8, r14
	mov	QWORD PTR t_lo$72[rbp-256], rcx
	mov	QWORD PTR t_hi$73[rbp-256], r8

; 590  :     return (_mulx_u64(u, v, w_hi));

	mulx	r10, rcx, rax

; 495  :     return (_addcarryx_u64(carry, u, v, w));

	add	rcx, QWORD PTR [r9+40]
	adcx	r10, r14
	add	rcx, r8
; File z:\sources\lunor\repos\rougemeilland\palmtree.math.core.implements\palmtree.math.core.implements\pmc_multiply.c

; 61   :     *wp = t_lo;

	mov	QWORD PTR [r9+40], rcx

; 58   :     t_lo = _MULTIPLYX_UNIT(*up, v, &t_hi);

	mov	rax, QWORD PTR [r11+48]
; File z:\sources\lunor\repos\rougemeilland\palmtree.math.core.implements\palmtree.math.core.implements\pmc_internal.h

; 495  :     return (_addcarryx_u64(carry, u, v, w));

	adcx	r10, r14
	mov	QWORD PTR t_lo$74[rbp-256], rcx

; 590  :     return (_mulx_u64(u, v, w_hi));

	mulx	r8, rcx, rax

; 495  :     return (_addcarryx_u64(carry, u, v, w));

	add	rcx, QWORD PTR [r9+48]
	mov	QWORD PTR t_hi$75[rbp-256], r10
	adcx	r8, r14
	add	rcx, r10
; File z:\sources\lunor\repos\rougemeilland\palmtree.math.core.implements\palmtree.math.core.implements\pmc_multiply.c

; 61   :     *wp = t_lo;

	mov	QWORD PTR [r9+48], rcx

; 58   :     t_lo = _MULTIPLYX_UNIT(*up, v, &t_hi);

	mov	rax, QWORD PTR [r11+56]
; File z:\sources\lunor\repos\rougemeilland\palmtree.math.core.implements\palmtree.math.core.implements\pmc_internal.h

; 495  :     return (_addcarryx_u64(carry, u, v, w));

	adcx	r8, r14
	mov	QWORD PTR t_lo$76[rbp-256], rcx

; 590  :     return (_mulx_u64(u, v, w_hi));

	mulx	r10, rcx, rax

; 495  :     return (_addcarryx_u64(carry, u, v, w));

	add	rcx, QWORD PTR [r9+56]
	mov	QWORD PTR t_hi$77[rbp-256], r8
	adcx	r10, r14
	add	rcx, r8
; File z:\sources\lunor\repos\rougemeilland\palmtree.math.core.implements\palmtree.math.core.implements\pmc_multiply.c

; 61   :     *wp = t_lo;

	mov	QWORD PTR [r9+56], rcx

; 58   :     t_lo = _MULTIPLYX_UNIT(*up, v, &t_hi);

	mov	rax, QWORD PTR [r11+64]
; File z:\sources\lunor\repos\rougemeilland\palmtree.math.core.implements\palmtree.math.core.implements\pmc_internal.h

; 495  :     return (_addcarryx_u64(carry, u, v, w));

	adcx	r10, r14
	mov	QWORD PTR t_lo$78[rbp-256], rcx

; 590  :     return (_mulx_u64(u, v, w_hi));

	mulx	r8, rcx, rax

; 495  :     return (_addcarryx_u64(carry, u, v, w));

	add	rcx, QWORD PTR [r9+64]
	mov	QWORD PTR t_hi$79[rbp-256], r10
	adcx	r8, r14
	add	rcx, r10
	mov	QWORD PTR t_lo$80[rbp-256], rcx
	adcx	r8, r14
	mov	QWORD PTR t_hi$81[rbp-256], r8
; File z:\sources\lunor\repos\rougemeilland\palmtree.math.core.implements\palmtree.math.core.implements\pmc_multiply.c

; 61   :     *wp = t_lo;

	mov	QWORD PTR [r9+64], rcx

; 58   :     t_lo = _MULTIPLYX_UNIT(*up, v, &t_hi);

	mov	rax, QWORD PTR [r11+72]
; File z:\sources\lunor\repos\rougemeilland\palmtree.math.core.implements\palmtree.math.core.implements\pmc_internal.h

; 590  :     return (_mulx_u64(u, v, w_hi));

	mulx	r10, rcx, rax

; 495  :     return (_addcarryx_u64(carry, u, v, w));

	add	rcx, QWORD PTR [r9+72]
	adcx	r10, r14
	add	rcx, r8
; File z:\sources\lunor\repos\rougemeilland\palmtree.math.core.implements\palmtree.math.core.implements\pmc_multiply.c

; 61   :     *wp = t_lo;

	mov	QWORD PTR [r9+72], rcx

; 58   :     t_lo = _MULTIPLYX_UNIT(*up, v, &t_hi);

	mov	rax, QWORD PTR [r11+80]
; File z:\sources\lunor\repos\rougemeilland\palmtree.math.core.implements\palmtree.math.core.implements\pmc_internal.h

; 495  :     return (_addcarryx_u64(carry, u, v, w));

	adcx	r10, r14
	mov	QWORD PTR t_lo$82[rbp-256], rcx
	mov	QWORD PTR t_hi$83[rbp-256], r10

; 590  :     return (_mulx_u64(u, v, w_hi));

	mulx	r8, rcx, rax

; 495  :     return (_addcarryx_u64(carry, u, v, w));

	add	rcx, QWORD PTR [r9+80]
	adcx	r8, r14
	add	rcx, r10
; File z:\sources\lunor\repos\rougemeilland\palmtree.math.core.implements\palmtree.math.core.implements\pmc_multiply.c

; 61   :     *wp = t_lo;

	mov	QWORD PTR [r9+80], rcx

; 58   :     t_lo = _MULTIPLYX_UNIT(*up, v, &t_hi);

	mov	rax, QWORD PTR [r11+88]
; File z:\sources\lunor\repos\rougemeilland\palmtree.math.core.implements\palmtree.math.core.implements\pmc_internal.h

; 495  :     return (_addcarryx_u64(carry, u, v, w));

	adcx	r8, r14
	mov	QWORD PTR t_lo$84[rbp-256], rcx

; 590  :     return (_mulx_u64(u, v, w_hi));

	mulx	r10, rcx, rax

; 495  :     return (_addcarryx_u64(carry, u, v, w));

	add	rcx, QWORD PTR [r9+88]
	mov	QWORD PTR t_hi$85[rbp-256], r8
	adcx	r10, r14
	add	rcx, r8
; File z:\sources\lunor\repos\rougemeilland\palmtree.math.core.implements\palmtree.math.core.implements\pmc_multiply.c

; 61   :     *wp = t_lo;

	mov	QWORD PTR [r9+88], rcx

; 58   :     t_lo = _MULTIPLYX_UNIT(*up, v, &t_hi);

	mov	rax, QWORD PTR [r11+96]
; File z:\sources\lunor\repos\rougemeilland\palmtree.math.core.implements\palmtree.math.core.implements\pmc_internal.h

; 495  :     return (_addcarryx_u64(carry, u, v, w));

	adcx	r10, r14
	mov	QWORD PTR t_lo$86[rbp-256], rcx

; 590  :     return (_mulx_u64(u, v, w_hi));

	mulx	r8, rcx, rax

; 495  :     return (_addcarryx_u64(carry, u, v, w));

	add	rcx, QWORD PTR [r9+96]
	mov	QWORD PTR t_hi$87[rbp-256], r10
	adcx	r8, r14
	add	rcx, r10
; File z:\sources\lunor\repos\rougemeilland\palmtree.math.core.implements\palmtree.math.core.implements\pmc_multiply.c

; 61   :     *wp = t_lo;

	mov	QWORD PTR [r9+96], rcx

; 58   :     t_lo = _MULTIPLYX_UNIT(*up, v, &t_hi);

	mov	rax, QWORD PTR [r11+104]
; File z:\sources\lunor\repos\rougemeilland\palmtree.math.core.implements\palmtree.math.core.implements\pmc_internal.h

; 495  :     return (_addcarryx_u64(carry, u, v, w));

	adcx	r8, r14
	mov	QWORD PTR t_lo$88[rbp-256], rcx

; 590  :     return (_mulx_u64(u, v, w_hi));

	mulx	r10, rcx, rax

; 495  :     return (_addcarryx_u64(carry, u, v, w));

	add	rcx, QWORD PTR [r9+104]
	mov	QWORD PTR t_hi$89[rbp-256], r8
	adcx	r10, r14
	add	rcx, r8
; File z:\sources\lunor\repos\rougemeilland\palmtree.math.core.implements\palmtree.math.core.implements\pmc_multiply.c

; 61   :     *wp = t_lo;

	mov	QWORD PTR [r9+104], rcx

; 58   :     t_lo = _MULTIPLYX_UNIT(*up, v, &t_hi);

	mov	rax, QWORD PTR [r11+112]
; File z:\sources\lunor\repos\rougemeilland\palmtree.math.core.implements\palmtree.math.core.implements\pmc_internal.h

; 495  :     return (_addcarryx_u64(carry, u, v, w));

	adcx	r10, r14
	mov	QWORD PTR t_lo$90[rbp-256], rcx

; 590  :     return (_mulx_u64(u, v, w_hi));

	mulx	r8, rcx, rax

; 495  :     return (_addcarryx_u64(carry, u, v, w));

	add	rcx, QWORD PTR [r9+112]
	mov	QWORD PTR t_hi$91[rbp-256], r10
	adcx	r8, r14
	add	rcx, r10
; File z:\sources\lunor\repos\rougemeilland\palmtree.math.core.implements\palmtree.math.core.implements\pmc_multiply.c

; 61   :     *wp = t_lo;

	mov	QWORD PTR [r9+112], rcx

; 58   :     t_lo = _MULTIPLYX_UNIT(*up, v, &t_hi);

	mov	rax, QWORD PTR [r11+120]
; File z:\sources\lunor\repos\rougemeilland\palmtree.math.core.implements\palmtree.math.core.implements\pmc_internal.h

; 495  :     return (_addcarryx_u64(carry, u, v, w));

	adcx	r8, r14
	mov	QWORD PTR t_lo$92[rbp-256], rcx

; 590  :     return (_mulx_u64(u, v, w_hi));

	mulx	r10, rcx, rax

; 495  :     return (_addcarryx_u64(carry, u, v, w));

	add	rcx, QWORD PTR [r9+120]

; 1030 :     _InterlockedExchangeAdd(&statistics_info.COUNT_MULTI64, value);

	mov	eax, 16

; 495  :     return (_addcarryx_u64(carry, u, v, w));

	mov	QWORD PTR t_hi$93[rbp-256], r8
	adcx	r10, r14
	add	rcx, r8
; File z:\sources\lunor\repos\rougemeilland\palmtree.math.core.implements\palmtree.math.core.implements\pmc_multiply.c

; 61   :     *wp = t_lo;

	mov	QWORD PTR [r9+120], rcx
; File z:\sources\lunor\repos\rougemeilland\palmtree.math.core.implements\palmtree.math.core.implements\pmc_internal.h

; 495  :     return (_addcarryx_u64(carry, u, v, w));

	adcx	r10, r14
; File z:\sources\lunor\repos\rougemeilland\palmtree.math.core.implements\palmtree.math.core.implements\pmc_multiply.c

; 281  :         up += 16;

	sub	r11, -128				; ffffffffffffff80H
; File z:\sources\lunor\repos\rougemeilland\palmtree.math.core.implements\palmtree.math.core.implements\pmc_internal.h

; 495  :     return (_addcarryx_u64(carry, u, v, w));

	mov	QWORD PTR t_lo$94[rbp-256], rcx
; File z:\sources\lunor\repos\rougemeilland\palmtree.math.core.implements\palmtree.math.core.implements\pmc_multiply.c

; 282  :         wp += 16;

	sub	r9, -128				; ffffffffffffff80H
; File z:\sources\lunor\repos\rougemeilland\palmtree.math.core.implements\palmtree.math.core.implements\pmc_internal.h

; 495  :     return (_addcarryx_u64(carry, u, v, w));

	mov	QWORD PTR t_hi$95[rbp-256], r10

; 1030 :     _InterlockedExchangeAdd(&statistics_info.COUNT_MULTI64, value);

	lock xadd DWORD PTR statistics_info, eax
$LN605@Multiply_W:
; File z:\sources\lunor\repos\rougemeilland\palmtree.math.core.implements\palmtree.math.core.implements\pmc_multiply.c

; 291  :     if (u_count & 0x8)

	test	dil, 8
	je	$LN705@Multiply_W

; 58   :     t_lo = _MULTIPLYX_UNIT(*up, v, &t_hi);

	mov	rax, QWORD PTR [r11]
; File z:\sources\lunor\repos\rougemeilland\palmtree.math.core.implements\palmtree.math.core.implements\pmc_internal.h

; 590  :     return (_mulx_u64(u, v, w_hi));

	mov	rdx, rbx
	mulx	r8, rcx, rax

; 495  :     return (_addcarryx_u64(carry, u, v, w));

	add	rcx, QWORD PTR [r9]
	adcx	r8, r14
	add	rcx, r10
; File z:\sources\lunor\repos\rougemeilland\palmtree.math.core.implements\palmtree.math.core.implements\pmc_multiply.c

; 61   :     *wp = t_lo;

	mov	QWORD PTR [r9], rcx

; 58   :     t_lo = _MULTIPLYX_UNIT(*up, v, &t_hi);

	mov	rax, QWORD PTR [r11+8]
; File z:\sources\lunor\repos\rougemeilland\palmtree.math.core.implements\palmtree.math.core.implements\pmc_internal.h

; 495  :     return (_addcarryx_u64(carry, u, v, w));

	adcx	r8, r14
	mov	QWORD PTR t_lo$96[rbp-256], rcx

; 590  :     return (_mulx_u64(u, v, w_hi));

	mulx	r10, rcx, rax

; 495  :     return (_addcarryx_u64(carry, u, v, w));

	add	rcx, QWORD PTR [r9+8]
	mov	QWORD PTR t_hi$97[rbp-256], r8
	adcx	r10, r14
	add	rcx, r8
; File z:\sources\lunor\repos\rougemeilland\palmtree.math.core.implements\palmtree.math.core.implements\pmc_multiply.c

; 61   :     *wp = t_lo;

	mov	QWORD PTR [r9+8], rcx

; 58   :     t_lo = _MULTIPLYX_UNIT(*up, v, &t_hi);

	mov	rax, QWORD PTR [r11+16]
; File z:\sources\lunor\repos\rougemeilland\palmtree.math.core.implements\palmtree.math.core.implements\pmc_internal.h

; 495  :     return (_addcarryx_u64(carry, u, v, w));

	adcx	r10, r14
	mov	QWORD PTR t_lo$98[rbp-256], rcx
	mov	QWORD PTR t_hi$99[rbp-256], r10

; 590  :     return (_mulx_u64(u, v, w_hi));

	mulx	r8, rcx, rax

; 495  :     return (_addcarryx_u64(carry, u, v, w));

	add	rcx, QWORD PTR [r9+16]
	adcx	r8, r14
	add	rcx, r10
; File z:\sources\lunor\repos\rougemeilland\palmtree.math.core.implements\palmtree.math.core.implements\pmc_multiply.c

; 61   :     *wp = t_lo;

	mov	QWORD PTR [r9+16], rcx

; 58   :     t_lo = _MULTIPLYX_UNIT(*up, v, &t_hi);

	mov	rax, QWORD PTR [r11+24]
; File z:\sources\lunor\repos\rougemeilland\palmtree.math.core.implements\palmtree.math.core.implements\pmc_internal.h

; 495  :     return (_addcarryx_u64(carry, u, v, w));

	adcx	r8, r14
	mov	QWORD PTR t_lo$100[rbp-256], rcx

; 590  :     return (_mulx_u64(u, v, w_hi));

	mulx	r10, rcx, rax

; 495  :     return (_addcarryx_u64(carry, u, v, w));

	add	rcx, QWORD PTR [r9+24]
	mov	QWORD PTR t_hi$101[rbp-256], r8
	adcx	r10, r14
	add	rcx, r8
; File z:\sources\lunor\repos\rougemeilland\palmtree.math.core.implements\palmtree.math.core.implements\pmc_multiply.c

; 61   :     *wp = t_lo;

	mov	QWORD PTR [r9+24], rcx

; 58   :     t_lo = _MULTIPLYX_UNIT(*up, v, &t_hi);

	mov	rax, QWORD PTR [r11+32]
; File z:\sources\lunor\repos\rougemeilland\palmtree.math.core.implements\palmtree.math.core.implements\pmc_internal.h

; 495  :     return (_addcarryx_u64(carry, u, v, w));

	adcx	r10, r14
	mov	QWORD PTR t_lo$102[rbp-256], rcx

; 590  :     return (_mulx_u64(u, v, w_hi));

	mulx	r8, rcx, rax

; 495  :     return (_addcarryx_u64(carry, u, v, w));

	add	rcx, QWORD PTR [r9+32]
	mov	QWORD PTR t_hi$103[rbp-256], r10
	adcx	r8, r14
	add	rcx, r10
; File z:\sources\lunor\repos\rougemeilland\palmtree.math.core.implements\palmtree.math.core.implements\pmc_multiply.c

; 61   :     *wp = t_lo;

	mov	QWORD PTR [r9+32], rcx

; 58   :     t_lo = _MULTIPLYX_UNIT(*up, v, &t_hi);

	mov	rax, QWORD PTR [r11+40]
; File z:\sources\lunor\repos\rougemeilland\palmtree.math.core.implements\palmtree.math.core.implements\pmc_internal.h

; 495  :     return (_addcarryx_u64(carry, u, v, w));

	adcx	r8, r14
	mov	QWORD PTR t_lo$104[rbp-256], rcx

; 590  :     return (_mulx_u64(u, v, w_hi));

	mulx	r10, rcx, rax

; 495  :     return (_addcarryx_u64(carry, u, v, w));

	add	rcx, QWORD PTR [r9+40]
	mov	QWORD PTR t_hi$105[rbp-256], r8
	adcx	r10, r14
	add	rcx, r8
; File z:\sources\lunor\repos\rougemeilland\palmtree.math.core.implements\palmtree.math.core.implements\pmc_multiply.c

; 61   :     *wp = t_lo;

	mov	QWORD PTR [r9+40], rcx

; 58   :     t_lo = _MULTIPLYX_UNIT(*up, v, &t_hi);

	mov	rax, QWORD PTR [r11+48]
; File z:\sources\lunor\repos\rougemeilland\palmtree.math.core.implements\palmtree.math.core.implements\pmc_internal.h

; 495  :     return (_addcarryx_u64(carry, u, v, w));

	adcx	r10, r14
	mov	QWORD PTR t_lo$106[rbp-256], rcx

; 590  :     return (_mulx_u64(u, v, w_hi));

	mulx	r8, rcx, rax

; 495  :     return (_addcarryx_u64(carry, u, v, w));

	add	rcx, QWORD PTR [r9+48]
	mov	QWORD PTR t_hi$107[rbp-256], r10
	adcx	r8, r14
	add	rcx, r10
; File z:\sources\lunor\repos\rougemeilland\palmtree.math.core.implements\palmtree.math.core.implements\pmc_multiply.c

; 61   :     *wp = t_lo;

	mov	QWORD PTR [r9+48], rcx

; 58   :     t_lo = _MULTIPLYX_UNIT(*up, v, &t_hi);

	mov	rax, QWORD PTR [r11+56]
; File z:\sources\lunor\repos\rougemeilland\palmtree.math.core.implements\palmtree.math.core.implements\pmc_internal.h

; 495  :     return (_addcarryx_u64(carry, u, v, w));

	adcx	r8, r14
	mov	QWORD PTR t_lo$108[rbp-256], rcx

; 590  :     return (_mulx_u64(u, v, w_hi));

	mulx	r10, rcx, rax

; 495  :     return (_addcarryx_u64(carry, u, v, w));

	add	rcx, QWORD PTR [r9+56]

; 1030 :     _InterlockedExchangeAdd(&statistics_info.COUNT_MULTI64, value);

	mov	eax, 8

; 495  :     return (_addcarryx_u64(carry, u, v, w));

	mov	QWORD PTR t_hi$109[rbp-256], r8
	adcx	r10, r14
	add	rcx, r8
; File z:\sources\lunor\repos\rougemeilland\palmtree.math.core.implements\palmtree.math.core.implements\pmc_multiply.c

; 61   :     *wp = t_lo;

	mov	QWORD PTR [r9+56], rcx
; File z:\sources\lunor\repos\rougemeilland\palmtree.math.core.implements\palmtree.math.core.implements\pmc_internal.h

; 495  :     return (_addcarryx_u64(carry, u, v, w));

	adcx	r10, r14
; File z:\sources\lunor\repos\rougemeilland\palmtree.math.core.implements\palmtree.math.core.implements\pmc_multiply.c

; 301  :         up += 8;

	add	r11, 64					; 00000040H
; File z:\sources\lunor\repos\rougemeilland\palmtree.math.core.implements\palmtree.math.core.implements\pmc_internal.h

; 495  :     return (_addcarryx_u64(carry, u, v, w));

	mov	QWORD PTR t_lo$110[rbp-256], rcx
; File z:\sources\lunor\repos\rougemeilland\palmtree.math.core.implements\palmtree.math.core.implements\pmc_multiply.c

; 302  :         wp += 8;

	add	r9, 64					; 00000040H
; File z:\sources\lunor\repos\rougemeilland\palmtree.math.core.implements\palmtree.math.core.implements\pmc_internal.h

; 495  :     return (_addcarryx_u64(carry, u, v, w));

	mov	QWORD PTR t_hi$111[rbp-256], r10

; 1030 :     _InterlockedExchangeAdd(&statistics_info.COUNT_MULTI64, value);

	lock xadd DWORD PTR statistics_info, eax
$LN705@Multiply_W:
; File z:\sources\lunor\repos\rougemeilland\palmtree.math.core.implements\palmtree.math.core.implements\pmc_multiply.c

; 311  :     if (u_count & 0x4)

	test	dil, 4
	je	$LN757@Multiply_W

; 58   :     t_lo = _MULTIPLYX_UNIT(*up, v, &t_hi);

	mov	rax, QWORD PTR [r11]
; File z:\sources\lunor\repos\rougemeilland\palmtree.math.core.implements\palmtree.math.core.implements\pmc_internal.h

; 590  :     return (_mulx_u64(u, v, w_hi));

	mov	rdx, rbx
	mulx	r8, rcx, rax

; 495  :     return (_addcarryx_u64(carry, u, v, w));

	add	rcx, QWORD PTR [r9]
	adcx	r8, r14
	add	rcx, r10
; File z:\sources\lunor\repos\rougemeilland\palmtree.math.core.implements\palmtree.math.core.implements\pmc_multiply.c

; 61   :     *wp = t_lo;

	mov	QWORD PTR [r9], rcx

; 58   :     t_lo = _MULTIPLYX_UNIT(*up, v, &t_hi);

	mov	rax, QWORD PTR [r11+8]
; File z:\sources\lunor\repos\rougemeilland\palmtree.math.core.implements\palmtree.math.core.implements\pmc_internal.h

; 495  :     return (_addcarryx_u64(carry, u, v, w));

	adcx	r8, r14
	mov	QWORD PTR t_lo$112[rbp-256], rcx

; 590  :     return (_mulx_u64(u, v, w_hi));

	mulx	r10, rcx, rax

; 495  :     return (_addcarryx_u64(carry, u, v, w));

	add	rcx, QWORD PTR [r9+8]
	mov	QWORD PTR t_hi$113[rbp-256], r8
	adcx	r10, r14
	add	rcx, r8
; File z:\sources\lunor\repos\rougemeilland\palmtree.math.core.implements\palmtree.math.core.implements\pmc_multiply.c

; 61   :     *wp = t_lo;

	mov	QWORD PTR [r9+8], rcx

; 58   :     t_lo = _MULTIPLYX_UNIT(*up, v, &t_hi);

	mov	rax, QWORD PTR [r11+16]
; File z:\sources\lunor\repos\rougemeilland\palmtree.math.core.implements\palmtree.math.core.implements\pmc_internal.h

; 495  :     return (_addcarryx_u64(carry, u, v, w));

	adcx	r10, r14
	mov	QWORD PTR t_lo$114[rbp-256], rcx

; 590  :     return (_mulx_u64(u, v, w_hi));

	mulx	r8, rcx, rax

; 495  :     return (_addcarryx_u64(carry, u, v, w));

	add	rcx, QWORD PTR [r9+16]
	mov	QWORD PTR t_hi$115[rbp-256], r10
	adcx	r8, r14
	add	rcx, r10
; File z:\sources\lunor\repos\rougemeilland\palmtree.math.core.implements\palmtree.math.core.implements\pmc_multiply.c

; 61   :     *wp = t_lo;

	mov	QWORD PTR [r9+16], rcx

; 58   :     t_lo = _MULTIPLYX_UNIT(*up, v, &t_hi);

	mov	rax, QWORD PTR [r11+24]
; File z:\sources\lunor\repos\rougemeilland\palmtree.math.core.implements\palmtree.math.core.implements\pmc_internal.h

; 495  :     return (_addcarryx_u64(carry, u, v, w));

	adcx	r8, r14
	mov	QWORD PTR t_lo$116[rbp-256], rcx

; 590  :     return (_mulx_u64(u, v, w_hi));

	mulx	r10, rcx, rax

; 495  :     return (_addcarryx_u64(carry, u, v, w));

	add	rcx, QWORD PTR [r9+24]

; 1030 :     _InterlockedExchangeAdd(&statistics_info.COUNT_MULTI64, value);

	mov	eax, 4

; 495  :     return (_addcarryx_u64(carry, u, v, w));

	mov	QWORD PTR t_hi$117[rbp-256], r8
	adcx	r10, r14
	add	rcx, r8
; File z:\sources\lunor\repos\rougemeilland\palmtree.math.core.implements\palmtree.math.core.implements\pmc_multiply.c

; 61   :     *wp = t_lo;

	mov	QWORD PTR [r9+24], rcx
; File z:\sources\lunor\repos\rougemeilland\palmtree.math.core.implements\palmtree.math.core.implements\pmc_internal.h

; 495  :     return (_addcarryx_u64(carry, u, v, w));

	adcx	r10, r14
; File z:\sources\lunor\repos\rougemeilland\palmtree.math.core.implements\palmtree.math.core.implements\pmc_multiply.c

; 317  :         up += 4;

	add	r11, 32					; 00000020H
; File z:\sources\lunor\repos\rougemeilland\palmtree.math.core.implements\palmtree.math.core.implements\pmc_internal.h

; 495  :     return (_addcarryx_u64(carry, u, v, w));

	mov	QWORD PTR t_lo$118[rbp-256], rcx
; File z:\sources\lunor\repos\rougemeilland\palmtree.math.core.implements\palmtree.math.core.implements\pmc_multiply.c

; 318  :         wp += 4;

	add	r9, 32					; 00000020H
; File z:\sources\lunor\repos\rougemeilland\palmtree.math.core.implements\palmtree.math.core.implements\pmc_internal.h

; 495  :     return (_addcarryx_u64(carry, u, v, w));

	mov	QWORD PTR t_hi$119[rbp-256], r10

; 1030 :     _InterlockedExchangeAdd(&statistics_info.COUNT_MULTI64, value);

	lock xadd DWORD PTR statistics_info, eax
$LN757@Multiply_W:
; File z:\sources\lunor\repos\rougemeilland\palmtree.math.core.implements\palmtree.math.core.implements\pmc_multiply.c

; 327  :     if (u_count & 0x2)

	test	dil, 2
	je	SHORT $LN785@Multiply_W

; 58   :     t_lo = _MULTIPLYX_UNIT(*up, v, &t_hi);

	mov	rax, QWORD PTR [r11]
; File z:\sources\lunor\repos\rougemeilland\palmtree.math.core.implements\palmtree.math.core.implements\pmc_internal.h

; 590  :     return (_mulx_u64(u, v, w_hi));

	mov	rdx, rbx
	mulx	r8, rcx, rax

; 495  :     return (_addcarryx_u64(carry, u, v, w));

	add	rcx, QWORD PTR [r9]
	adcx	r8, r14
	add	rcx, r10
; File z:\sources\lunor\repos\rougemeilland\palmtree.math.core.implements\palmtree.math.core.implements\pmc_multiply.c

; 61   :     *wp = t_lo;

	mov	QWORD PTR [r9], rcx

; 58   :     t_lo = _MULTIPLYX_UNIT(*up, v, &t_hi);

	mov	rax, QWORD PTR [r11+8]
; File z:\sources\lunor\repos\rougemeilland\palmtree.math.core.implements\palmtree.math.core.implements\pmc_internal.h

; 495  :     return (_addcarryx_u64(carry, u, v, w));

	adcx	r8, r14
	mov	QWORD PTR t_lo$120[rbp-256], rcx

; 590  :     return (_mulx_u64(u, v, w_hi));

	mulx	r10, rcx, rax

; 495  :     return (_addcarryx_u64(carry, u, v, w));

	add	rcx, QWORD PTR [r9+8]

; 1030 :     _InterlockedExchangeAdd(&statistics_info.COUNT_MULTI64, value);

	mov	eax, 2

; 495  :     return (_addcarryx_u64(carry, u, v, w));

	mov	QWORD PTR t_hi$121[rbp-256], r8
	adcx	r10, r14
	add	rcx, r8
; File z:\sources\lunor\repos\rougemeilland\palmtree.math.core.implements\palmtree.math.core.implements\pmc_multiply.c

; 61   :     *wp = t_lo;

	mov	QWORD PTR [r9+8], rcx
; File z:\sources\lunor\repos\rougemeilland\palmtree.math.core.implements\palmtree.math.core.implements\pmc_internal.h

; 495  :     return (_addcarryx_u64(carry, u, v, w));

	adcx	r10, r14
; File z:\sources\lunor\repos\rougemeilland\palmtree.math.core.implements\palmtree.math.core.implements\pmc_multiply.c

; 331  :         up += 2;

	add	r11, 16
; File z:\sources\lunor\repos\rougemeilland\palmtree.math.core.implements\palmtree.math.core.implements\pmc_internal.h

; 495  :     return (_addcarryx_u64(carry, u, v, w));

	mov	QWORD PTR t_lo$122[rbp-256], rcx
; File z:\sources\lunor\repos\rougemeilland\palmtree.math.core.implements\palmtree.math.core.implements\pmc_multiply.c

; 332  :         wp += 2;

	add	r9, 16
; File z:\sources\lunor\repos\rougemeilland\palmtree.math.core.implements\palmtree.math.core.implements\pmc_internal.h

; 495  :     return (_addcarryx_u64(carry, u, v, w));

	mov	QWORD PTR t_hi$123[rbp-256], r10

; 1030 :     _InterlockedExchangeAdd(&statistics_info.COUNT_MULTI64, value);

	lock xadd DWORD PTR statistics_info, eax
$LN785@Multiply_W:
; File z:\sources\lunor\repos\rougemeilland\palmtree.math.core.implements\palmtree.math.core.implements\pmc_multiply.c

; 341  :     if (u_count & 0x1)

	test	dil, 1
	je	SHORT $LN801@Multiply_W

; 58   :     t_lo = _MULTIPLYX_UNIT(*up, v, &t_hi);

	mov	rax, QWORD PTR [r11]
; File z:\sources\lunor\repos\rougemeilland\palmtree.math.core.implements\palmtree.math.core.implements\pmc_internal.h

; 590  :     return (_mulx_u64(u, v, w_hi));

	mov	rdx, rbx
	mulx	rcx, r8, rax

; 495  :     return (_addcarryx_u64(carry, u, v, w));

	add	r8, QWORD PTR [r9]
	adcx	rcx, r14
	add	r8, r10
	mov	r10, rcx
; File z:\sources\lunor\repos\rougemeilland\palmtree.math.core.implements\palmtree.math.core.implements\pmc_multiply.c

; 61   :     *wp = t_lo;

	mov	QWORD PTR [r9], r8
; File z:\sources\lunor\repos\rougemeilland\palmtree.math.core.implements\palmtree.math.core.implements\pmc_internal.h

; 495  :     return (_addcarryx_u64(carry, u, v, w));

	adcx	r10, r14
	mov	QWORD PTR t_hi$125[rbp-256], r10
; File z:\sources\lunor\repos\rougemeilland\palmtree.math.core.implements\palmtree.math.core.implements\pmc_multiply.c

; 345  :         wp += 1;

	add	r9, 8
; File z:\sources\lunor\repos\rougemeilland\palmtree.math.core.implements\palmtree.math.core.implements\pmc_internal.h

; 495  :     return (_addcarryx_u64(carry, u, v, w));

	mov	QWORD PTR t_lo$124[rbp-256], r8

; 1007 :     _InterlockedIncrement(&statistics_info.COUNT_MULTI64);

	lock inc DWORD PTR statistics_info
$LN801@Multiply_W:
; File z:\sources\lunor\repos\rougemeilland\palmtree.math.core.implements\palmtree.math.core.implements\pmc_multiply.c

; 354  :     if (k != 0)

	xor	eax, eax
	test	r10, r10
	je	SHORT $LN21@Multiply_W

; 355  :         *wp = k;

	mov	QWORD PTR [r9], r10
$LN21@Multiply_W:

; 356  : 
; 357  :     return (PMC_STATUS_OK);
; 358  : }

	lea	r11, QWORD PTR [rsp+1008]
	mov	rbx, QWORD PTR [r11+32]
	mov	rsi, QWORD PTR [r11+48]
	mov	rsp, r11
	pop	r14
	pop	rdi
	pop	rbp
	ret	0
Multiply_WORD_using_MULX_ADCX ENDP
_TEXT	ENDS
; Function compile flags: /Ogtpy
; File z:\sources\lunor\repos\rougemeilland\palmtree.math.core.implements\palmtree.math.core.implements\pmc_multiply.c
; File z:\sources\lunor\repos\rougemeilland\palmtree.math.core.implements\palmtree.math.core.implements\pmc_internal.h
; File z:\sources\lunor\repos\rougemeilland\palmtree.math.core.implements\palmtree.math.core.implements\pmc_multiply.c
; File z:\sources\lunor\repos\rougemeilland\palmtree.math.core.implements\palmtree.math.core.implements\pmc_internal.h
; File z:\sources\lunor\repos\rougemeilland\palmtree.math.core.implements\palmtree.math.core.implements\pmc_multiply.c
; File z:\sources\lunor\repos\rougemeilland\palmtree.math.core.implements\palmtree.math.core.implements\pmc_internal.h
; File z:\sources\lunor\repos\rougemeilland\palmtree.math.core.implements\palmtree.math.core.implements\pmc_multiply.c
; File z:\sources\lunor\repos\rougemeilland\palmtree.math.core.implements\palmtree.math.core.implements\pmc_internal.h
; File z:\sources\lunor\repos\rougemeilland\palmtree.math.core.implements\palmtree.math.core.implements\pmc_multiply.c
; File z:\sources\lunor\repos\rougemeilland\palmtree.math.core.implements\palmtree.math.core.implements\pmc_internal.h
; File z:\sources\lunor\repos\rougemeilland\palmtree.math.core.implements\palmtree.math.core.implements\pmc_multiply.c
; File z:\sources\lunor\repos\rougemeilland\palmtree.math.core.implements\palmtree.math.core.implements\pmc_internal.h
; File z:\sources\lunor\repos\rougemeilland\palmtree.math.core.implements\palmtree.math.core.implements\pmc_multiply.c
; File z:\sources\lunor\repos\rougemeilland\palmtree.math.core.implements\palmtree.math.core.implements\pmc_internal.h
; File z:\sources\lunor\repos\rougemeilland\palmtree.math.core.implements\palmtree.math.core.implements\pmc_multiply.c
; File z:\sources\lunor\repos\rougemeilland\palmtree.math.core.implements\palmtree.math.core.implements\pmc_internal.h
; File z:\sources\lunor\repos\rougemeilland\palmtree.math.core.implements\palmtree.math.core.implements\pmc_multiply.c
; File z:\sources\lunor\repos\rougemeilland\palmtree.math.core.implements\palmtree.math.core.implements\pmc_internal.h
; File z:\sources\lunor\repos\rougemeilland\palmtree.math.core.implements\palmtree.math.core.implements\pmc_multiply.c
; File z:\sources\lunor\repos\rougemeilland\palmtree.math.core.implements\palmtree.math.core.implements\pmc_internal.h
; File z:\sources\lunor\repos\rougemeilland\palmtree.math.core.implements\palmtree.math.core.implements\pmc_multiply.c
; File z:\sources\lunor\repos\rougemeilland\palmtree.math.core.implements\palmtree.math.core.implements\pmc_internal.h
; File z:\sources\lunor\repos\rougemeilland\palmtree.math.core.implements\palmtree.math.core.implements\pmc_multiply.c
; File z:\sources\lunor\repos\rougemeilland\palmtree.math.core.implements\palmtree.math.core.implements\pmc_internal.h
; File z:\sources\lunor\repos\rougemeilland\palmtree.math.core.implements\palmtree.math.core.implements\pmc_multiply.c
; File z:\sources\lunor\repos\rougemeilland\palmtree.math.core.implements\palmtree.math.core.implements\pmc_internal.h
; File z:\sources\lunor\repos\rougemeilland\palmtree.math.core.implements\palmtree.math.core.implements\pmc_multiply.c
; File z:\sources\lunor\repos\rougemeilland\palmtree.math.core.implements\palmtree.math.core.implements\pmc_internal.h
; File z:\sources\lunor\repos\rougemeilland\palmtree.math.core.implements\palmtree.math.core.implements\pmc_multiply.c
; File z:\sources\lunor\repos\rougemeilland\palmtree.math.core.implements\palmtree.math.core.implements\pmc_internal.h
; File z:\sources\lunor\repos\rougemeilland\palmtree.math.core.implements\palmtree.math.core.implements\pmc_multiply.c
; File z:\sources\lunor\repos\rougemeilland\palmtree.math.core.implements\palmtree.math.core.implements\pmc_internal.h
; File z:\sources\lunor\repos\rougemeilland\palmtree.math.core.implements\palmtree.math.core.implements\pmc_multiply.c
; File z:\sources\lunor\repos\rougemeilland\palmtree.math.core.implements\palmtree.math.core.implements\pmc_internal.h
; File z:\sources\lunor\repos\rougemeilland\palmtree.math.core.implements\palmtree.math.core.implements\pmc_multiply.c
; File z:\sources\lunor\repos\rougemeilland\palmtree.math.core.implements\palmtree.math.core.implements\pmc_internal.h
; File z:\sources\lunor\repos\rougemeilland\palmtree.math.core.implements\palmtree.math.core.implements\pmc_multiply.c
; File z:\sources\lunor\repos\rougemeilland\palmtree.math.core.implements\palmtree.math.core.implements\pmc_internal.h
; File z:\sources\lunor\repos\rougemeilland\palmtree.math.core.implements\palmtree.math.core.implements\pmc_multiply.c
; File z:\sources\lunor\repos\rougemeilland\palmtree.math.core.implements\palmtree.math.core.implements\pmc_internal.h
; File z:\sources\lunor\repos\rougemeilland\palmtree.math.core.implements\palmtree.math.core.implements\pmc_multiply.c
; File z:\sources\lunor\repos\rougemeilland\palmtree.math.core.implements\palmtree.math.core.implements\pmc_internal.h
; File z:\sources\lunor\repos\rougemeilland\palmtree.math.core.implements\palmtree.math.core.implements\pmc_multiply.c
; File z:\sources\lunor\repos\rougemeilland\palmtree.math.core.implements\palmtree.math.core.implements\pmc_internal.h
; File z:\sources\lunor\repos\rougemeilland\palmtree.math.core.implements\palmtree.math.core.implements\pmc_multiply.c
; File z:\sources\lunor\repos\rougemeilland\palmtree.math.core.implements\palmtree.math.core.implements\pmc_internal.h
; File z:\sources\lunor\repos\rougemeilland\palmtree.math.core.implements\palmtree.math.core.implements\pmc_multiply.c
; File z:\sources\lunor\repos\rougemeilland\palmtree.math.core.implements\palmtree.math.core.implements\pmc_internal.h
; File z:\sources\lunor\repos\rougemeilland\palmtree.math.core.implements\palmtree.math.core.implements\pmc_multiply.c
; File z:\sources\lunor\repos\rougemeilland\palmtree.math.core.implements\palmtree.math.core.implements\pmc_internal.h
; File z:\sources\lunor\repos\rougemeilland\palmtree.math.core.implements\palmtree.math.core.implements\pmc_multiply.c
; File z:\sources\lunor\repos\rougemeilland\palmtree.math.core.implements\palmtree.math.core.implements\pmc_internal.h
; File z:\sources\lunor\repos\rougemeilland\palmtree.math.core.implements\palmtree.math.core.implements\pmc_multiply.c
; File z:\sources\lunor\repos\rougemeilland\palmtree.math.core.implements\palmtree.math.core.implements\pmc_internal.h
; File z:\sources\lunor\repos\rougemeilland\palmtree.math.core.implements\palmtree.math.core.implements\pmc_multiply.c
; File z:\sources\lunor\repos\rougemeilland\palmtree.math.core.implements\palmtree.math.core.implements\pmc_internal.h
; File z:\sources\lunor\repos\rougemeilland\palmtree.math.core.implements\palmtree.math.core.implements\pmc_multiply.c
; File z:\sources\lunor\repos\rougemeilland\palmtree.math.core.implements\palmtree.math.core.implements\pmc_internal.h
; File z:\sources\lunor\repos\rougemeilland\palmtree.math.core.implements\palmtree.math.core.implements\pmc_multiply.c
; File z:\sources\lunor\repos\rougemeilland\palmtree.math.core.implements\palmtree.math.core.implements\pmc_internal.h
; File z:\sources\lunor\repos\rougemeilland\palmtree.math.core.implements\palmtree.math.core.implements\pmc_multiply.c
; File z:\sources\lunor\repos\rougemeilland\palmtree.math.core.implements\palmtree.math.core.implements\pmc_internal.h
; File z:\sources\lunor\repos\rougemeilland\palmtree.math.core.implements\palmtree.math.core.implements\pmc_multiply.c
; File z:\sources\lunor\repos\rougemeilland\palmtree.math.core.implements\palmtree.math.core.implements\pmc_internal.h
; File z:\sources\lunor\repos\rougemeilland\palmtree.math.core.implements\palmtree.math.core.implements\pmc_multiply.c
; File z:\sources\lunor\repos\rougemeilland\palmtree.math.core.implements\palmtree.math.core.implements\pmc_internal.h
; File z:\sources\lunor\repos\rougemeilland\palmtree.math.core.implements\palmtree.math.core.implements\pmc_multiply.c
; File z:\sources\lunor\repos\rougemeilland\palmtree.math.core.implements\palmtree.math.core.implements\pmc_internal.h
; File z:\sources\lunor\repos\rougemeilland\palmtree.math.core.implements\palmtree.math.core.implements\pmc_multiply.c
; File z:\sources\lunor\repos\rougemeilland\palmtree.math.core.implements\palmtree.math.core.implements\pmc_internal.h
; File z:\sources\lunor\repos\rougemeilland\palmtree.math.core.implements\palmtree.math.core.implements\pmc_multiply.c
; File z:\sources\lunor\repos\rougemeilland\palmtree.math.core.implements\palmtree.math.core.implements\pmc_internal.h
; File z:\sources\lunor\repos\rougemeilland\palmtree.math.core.implements\palmtree.math.core.implements\pmc_multiply.c
; File z:\sources\lunor\repos\rougemeilland\palmtree.math.core.implements\palmtree.math.core.implements\pmc_internal.h
; File z:\sources\lunor\repos\rougemeilland\palmtree.math.core.implements\palmtree.math.core.implements\pmc_multiply.c
; File z:\sources\lunor\repos\rougemeilland\palmtree.math.core.implements\palmtree.math.core.implements\pmc_internal.h
; File z:\sources\lunor\repos\rougemeilland\palmtree.math.core.implements\palmtree.math.core.implements\pmc_multiply.c
; File z:\sources\lunor\repos\rougemeilland\palmtree.math.core.implements\palmtree.math.core.implements\pmc_internal.h
; File z:\sources\lunor\repos\rougemeilland\palmtree.math.core.implements\palmtree.math.core.implements\pmc_multiply.c
; File z:\sources\lunor\repos\rougemeilland\palmtree.math.core.implements\palmtree.math.core.implements\pmc_internal.h
; File z:\sources\lunor\repos\rougemeilland\palmtree.math.core.implements\palmtree.math.core.implements\pmc_multiply.c
; File z:\sources\lunor\repos\rougemeilland\palmtree.math.core.implements\palmtree.math.core.implements\pmc_internal.h
; File z:\sources\lunor\repos\rougemeilland\palmtree.math.core.implements\palmtree.math.core.implements\pmc_multiply.c
; File z:\sources\lunor\repos\rougemeilland\palmtree.math.core.implements\palmtree.math.core.implements\pmc_internal.h
; File z:\sources\lunor\repos\rougemeilland\palmtree.math.core.implements\palmtree.math.core.implements\pmc_multiply.c
; File z:\sources\lunor\repos\rougemeilland\palmtree.math.core.implements\palmtree.math.core.implements\pmc_internal.h
; File z:\sources\lunor\repos\rougemeilland\palmtree.math.core.implements\palmtree.math.core.implements\pmc_multiply.c
; File z:\sources\lunor\repos\rougemeilland\palmtree.math.core.implements\palmtree.math.core.implements\pmc_internal.h
; File z:\sources\lunor\repos\rougemeilland\palmtree.math.core.implements\palmtree.math.core.implements\pmc_multiply.c
; File z:\sources\lunor\repos\rougemeilland\palmtree.math.core.implements\palmtree.math.core.implements\pmc_internal.h
; File z:\sources\lunor\repos\rougemeilland\palmtree.math.core.implements\palmtree.math.core.implements\pmc_multiply.c
; File z:\sources\lunor\repos\rougemeilland\palmtree.math.core.implements\palmtree.math.core.implements\pmc_internal.h
; File z:\sources\lunor\repos\rougemeilland\palmtree.math.core.implements\palmtree.math.core.implements\pmc_multiply.c
; File z:\sources\lunor\repos\rougemeilland\palmtree.math.core.implements\palmtree.math.core.implements\pmc_internal.h
; File z:\sources\lunor\repos\rougemeilland\palmtree.math.core.implements\palmtree.math.core.implements\pmc_multiply.c
; File z:\sources\lunor\repos\rougemeilland\palmtree.math.core.implements\palmtree.math.core.implements\pmc_internal.h
; File z:\sources\lunor\repos\rougemeilland\palmtree.math.core.implements\palmtree.math.core.implements\pmc_multiply.c
; File z:\sources\lunor\repos\rougemeilland\palmtree.math.core.implements\palmtree.math.core.implements\pmc_internal.h
; File z:\sources\lunor\repos\rougemeilland\palmtree.math.core.implements\palmtree.math.core.implements\pmc_multiply.c
; File z:\sources\lunor\repos\rougemeilland\palmtree.math.core.implements\palmtree.math.core.implements\pmc_internal.h
; File z:\sources\lunor\repos\rougemeilland\palmtree.math.core.implements\palmtree.math.core.implements\pmc_multiply.c
; File z:\sources\lunor\repos\rougemeilland\palmtree.math.core.implements\palmtree.math.core.implements\pmc_internal.h
; File z:\sources\lunor\repos\rougemeilland\palmtree.math.core.implements\palmtree.math.core.implements\pmc_multiply.c
; File z:\sources\lunor\repos\rougemeilland\palmtree.math.core.implements\palmtree.math.core.implements\pmc_internal.h
; File z:\sources\lunor\repos\rougemeilland\palmtree.math.core.implements\palmtree.math.core.implements\pmc_multiply.c
; File z:\sources\lunor\repos\rougemeilland\palmtree.math.core.implements\palmtree.math.core.implements\pmc_internal.h
; File z:\sources\lunor\repos\rougemeilland\palmtree.math.core.implements\palmtree.math.core.implements\pmc_multiply.c
; File z:\sources\lunor\repos\rougemeilland\palmtree.math.core.implements\palmtree.math.core.implements\pmc_internal.h
; File z:\sources\lunor\repos\rougemeilland\palmtree.math.core.implements\palmtree.math.core.implements\pmc_multiply.c
; File z:\sources\lunor\repos\rougemeilland\palmtree.math.core.implements\palmtree.math.core.implements\pmc_internal.h
; File z:\sources\lunor\repos\rougemeilland\palmtree.math.core.implements\palmtree.math.core.implements\pmc_multiply.c
; File z:\sources\lunor\repos\rougemeilland\palmtree.math.core.implements\palmtree.math.core.implements\pmc_internal.h
; File z:\sources\lunor\repos\rougemeilland\palmtree.math.core.implements\palmtree.math.core.implements\pmc_multiply.c
; File z:\sources\lunor\repos\rougemeilland\palmtree.math.core.implements\palmtree.math.core.implements\pmc_internal.h
; File z:\sources\lunor\repos\rougemeilland\palmtree.math.core.implements\palmtree.math.core.implements\pmc_multiply.c
; File z:\sources\lunor\repos\rougemeilland\palmtree.math.core.implements\palmtree.math.core.implements\pmc_internal.h
; File z:\sources\lunor\repos\rougemeilland\palmtree.math.core.implements\palmtree.math.core.implements\pmc_multiply.c
; File z:\sources\lunor\repos\rougemeilland\palmtree.math.core.implements\palmtree.math.core.implements\pmc_internal.h
; File z:\sources\lunor\repos\rougemeilland\palmtree.math.core.implements\palmtree.math.core.implements\pmc_multiply.c
; File z:\sources\lunor\repos\rougemeilland\palmtree.math.core.implements\palmtree.math.core.implements\pmc_internal.h
; File z:\sources\lunor\repos\rougemeilland\palmtree.math.core.implements\palmtree.math.core.implements\pmc_multiply.c
; File z:\sources\lunor\repos\rougemeilland\palmtree.math.core.implements\palmtree.math.core.implements\pmc_internal.h
; File z:\sources\lunor\repos\rougemeilland\palmtree.math.core.implements\palmtree.math.core.implements\pmc_multiply.c
; File z:\sources\lunor\repos\rougemeilland\palmtree.math.core.implements\palmtree.math.core.implements\pmc_internal.h
; File z:\sources\lunor\repos\rougemeilland\palmtree.math.core.implements\palmtree.math.core.implements\pmc_multiply.c
; File z:\sources\lunor\repos\rougemeilland\palmtree.math.core.implements\palmtree.math.core.implements\pmc_internal.h
; File z:\sources\lunor\repos\rougemeilland\palmtree.math.core.implements\palmtree.math.core.implements\pmc_multiply.c
; File z:\sources\lunor\repos\rougemeilland\palmtree.math.core.implements\palmtree.math.core.implements\pmc_internal.h
; File z:\sources\lunor\repos\rougemeilland\palmtree.math.core.implements\palmtree.math.core.implements\pmc_multiply.c
; File z:\sources\lunor\repos\rougemeilland\palmtree.math.core.implements\palmtree.math.core.implements\pmc_internal.h
; File z:\sources\lunor\repos\rougemeilland\palmtree.math.core.implements\palmtree.math.core.implements\pmc_multiply.c
; File z:\sources\lunor\repos\rougemeilland\palmtree.math.core.implements\palmtree.math.core.implements\pmc_internal.h
; File z:\sources\lunor\repos\rougemeilland\palmtree.math.core.implements\palmtree.math.core.implements\pmc_multiply.c
; File z:\sources\lunor\repos\rougemeilland\palmtree.math.core.implements\palmtree.math.core.implements\pmc_internal.h
; File z:\sources\lunor\repos\rougemeilland\palmtree.math.core.implements\palmtree.math.core.implements\pmc_multiply.c
; File z:\sources\lunor\repos\rougemeilland\palmtree.math.core.implements\palmtree.math.core.implements\pmc_internal.h
; File z:\sources\lunor\repos\rougemeilland\palmtree.math.core.implements\palmtree.math.core.implements\pmc_multiply.c
; File z:\sources\lunor\repos\rougemeilland\palmtree.math.core.implements\palmtree.math.core.implements\pmc_internal.h
; File z:\sources\lunor\repos\rougemeilland\palmtree.math.core.implements\palmtree.math.core.implements\pmc_multiply.c
; File z:\sources\lunor\repos\rougemeilland\palmtree.math.core.implements\palmtree.math.core.implements\pmc_internal.h
; File z:\sources\lunor\repos\rougemeilland\palmtree.math.core.implements\palmtree.math.core.implements\pmc_multiply.c
; File z:\sources\lunor\repos\rougemeilland\palmtree.math.core.implements\palmtree.math.core.implements\pmc_internal.h
; File z:\sources\lunor\repos\rougemeilland\palmtree.math.core.implements\palmtree.math.core.implements\pmc_multiply.c
; File z:\sources\lunor\repos\rougemeilland\palmtree.math.core.implements\palmtree.math.core.implements\pmc_internal.h
; File z:\sources\lunor\repos\rougemeilland\palmtree.math.core.implements\palmtree.math.core.implements\pmc_multiply.c
; File z:\sources\lunor\repos\rougemeilland\palmtree.math.core.implements\palmtree.math.core.implements\pmc_internal.h
; File z:\sources\lunor\repos\rougemeilland\palmtree.math.core.implements\palmtree.math.core.implements\pmc_multiply.c
; File z:\sources\lunor\repos\rougemeilland\palmtree.math.core.implements\palmtree.math.core.implements\pmc_internal.h
; File z:\sources\lunor\repos\rougemeilland\palmtree.math.core.implements\palmtree.math.core.implements\pmc_multiply.c
; File z:\sources\lunor\repos\rougemeilland\palmtree.math.core.implements\palmtree.math.core.implements\pmc_internal.h
; File z:\sources\lunor\repos\rougemeilland\palmtree.math.core.implements\palmtree.math.core.implements\pmc_multiply.c
; File z:\sources\lunor\repos\rougemeilland\palmtree.math.core.implements\palmtree.math.core.implements\pmc_internal.h
; File z:\sources\lunor\repos\rougemeilland\palmtree.math.core.implements\palmtree.math.core.implements\pmc_multiply.c
; File z:\sources\lunor\repos\rougemeilland\palmtree.math.core.implements\palmtree.math.core.implements\pmc_internal.h
; File z:\sources\lunor\repos\rougemeilland\palmtree.math.core.implements\palmtree.math.core.implements\pmc_multiply.c
; File z:\sources\lunor\repos\rougemeilland\palmtree.math.core.implements\palmtree.math.core.implements\pmc_internal.h
; File z:\sources\lunor\repos\rougemeilland\palmtree.math.core.implements\palmtree.math.core.implements\pmc_multiply.c
; File z:\sources\lunor\repos\rougemeilland\palmtree.math.core.implements\palmtree.math.core.implements\pmc_internal.h
; File z:\sources\lunor\repos\rougemeilland\palmtree.math.core.implements\palmtree.math.core.implements\pmc_multiply.c
;	COMDAT Multiply_WORD_using_MUL_ADC
_TEXT	SEGMENT
t_hi$1 = 0
t_lo$2 = 8
t_hi$3 = 16
t_lo$4 = 24
t_hi$5 = 32
t_lo$6 = 40
t_hi$7 = 48
t_lo$8 = 56
t_hi$9 = 64
t_lo$10 = 72
t_hi$11 = 80
t_lo$12 = 88
t_hi$13 = 96
t_lo$14 = 104
t_hi$15 = 112
t_lo$16 = 120
t_hi$17 = 128
t_lo$18 = 136
t_hi$19 = 144
t_lo$20 = 152
t_hi$21 = 160
t_lo$22 = 168
t_hi$23 = 176
t_lo$24 = 184
t_hi$25 = 192
t_lo$26 = 200
t_hi$27 = 208
t_lo$28 = 216
t_hi$29 = 224
t_lo$30 = 232
t_hi$31 = 240
t_lo$32 = 248
t_hi$33 = 256
t_lo$34 = 264
t_hi$35 = 272
t_lo$36 = 280
t_hi$37 = 288
t_lo$38 = 296
t_hi$39 = 304
t_lo$40 = 312
t_hi$41 = 320
t_lo$42 = 328
t_hi$43 = 336
t_lo$44 = 344
t_hi$45 = 352
t_lo$46 = 360
t_hi$47 = 368
t_lo$48 = 376
t_hi$49 = 384
t_lo$50 = 392
t_hi$51 = 400
t_lo$52 = 408
t_hi$53 = 416
t_lo$54 = 424
t_hi$55 = 432
t_lo$56 = 440
t_hi$57 = 448
t_lo$58 = 456
t_hi$59 = 464
t_lo$60 = 472
t_hi$61 = 480
t_lo$62 = 488
t_hi$63 = 496
t_lo$64 = 504
t_hi$65 = 512
t_lo$66 = 520
t_hi$67 = 528
t_lo$68 = 536
t_hi$69 = 544
t_lo$70 = 552
t_hi$71 = 560
t_lo$72 = 568
t_hi$73 = 576
t_lo$74 = 584
t_hi$75 = 592
t_lo$76 = 600
t_hi$77 = 608
t_lo$78 = 616
t_hi$79 = 624
t_lo$80 = 632
t_hi$81 = 640
t_lo$82 = 648
t_hi$83 = 656
t_lo$84 = 664
t_hi$85 = 672
t_lo$86 = 680
t_hi$87 = 688
t_lo$88 = 696
t_hi$89 = 704
t_lo$90 = 712
t_hi$91 = 720
t_lo$92 = 728
t_hi$93 = 736
t_lo$94 = 744
t_hi$95 = 752
t_lo$96 = 760
t_hi$97 = 768
t_lo$98 = 776
t_hi$99 = 784
t_lo$100 = 792
t_hi$101 = 800
t_lo$102 = 808
t_hi$103 = 816
t_lo$104 = 824
t_hi$105 = 832
t_lo$106 = 840
t_hi$107 = 848
t_lo$108 = 856
t_hi$109 = 864
t_lo$110 = 872
t_hi$111 = 880
t_lo$112 = 888
t_hi$113 = 896
t_lo$114 = 904
t_hi$115 = 912
t_lo$116 = 920
t_hi$117 = 928
t_lo$118 = 936
t_hi$119 = 944
t_lo$120 = 952
t_hi$121 = 960
t_lo$122 = 968
t_hi$123 = 976
t_lo$124 = 984
t_hi$125 = 992
up$ = 1024
t_lo$126 = 1032
u_count$ = 1032
v$ = 1040
wp$ = 1048
Multiply_WORD_using_MUL_ADC PROC			; COMDAT

; 67   : {

	mov	QWORD PTR [rsp+8], rbx
	mov	QWORD PTR [rsp+24], rsi
	mov	QWORD PTR [rsp+32], rdi
	push	rbp
	lea	rbp, QWORD PTR [rsp-752]
	sub	rsp, 1008				; 000003f0H

; 68   :     __UNIT_TYPE k = 0;
; 69   :     __UNIT_TYPE count = u_count >> 5;

	mov	rsi, rdx
	xor	r10d, r10d
	shr	rsi, 5
	mov	rbx, r8
	mov	rdi, rdx
	mov	r11, rcx

; 71   :     while (count != 0)

	test	rsi, rsi
	je	$LN3@Multiply_W
	npad	5
$LL2@Multiply_W:
; File z:\sources\lunor\repos\rougemeilland\palmtree.math.core.implements\palmtree.math.core.implements\pmc_internal.h

; 559  :     return (_umul128(u, v, w_hi));

	mov	rax, rbx
	mul	QWORD PTR [r11]

; 467  :     return (_addcarry_u64(carry, u, v, w));

	add	rax, QWORD PTR [r9]

; 559  :     return (_umul128(u, v, w_hi));

	mov	rcx, rdx

; 467  :     return (_addcarry_u64(carry, u, v, w));

	adc	rcx, 0
	add	rax, r10
; File z:\sources\lunor\repos\rougemeilland\palmtree.math.core.implements\palmtree.math.core.implements\pmc_multiply.c

; 49   :     *wp = t_lo;

	mov	QWORD PTR [r9], rax
; File z:\sources\lunor\repos\rougemeilland\palmtree.math.core.implements\palmtree.math.core.implements\pmc_internal.h

; 467  :     return (_addcarry_u64(carry, u, v, w));

	adc	rcx, 0
	mov	QWORD PTR t_lo$126[rbp-256], rax
	mov	QWORD PTR t_hi$1[rsp], rcx

; 559  :     return (_umul128(u, v, w_hi));

	mov	rax, rbx
	mul	QWORD PTR [r11+8]

; 467  :     return (_addcarry_u64(carry, u, v, w));

	add	rax, QWORD PTR [r9+8]

; 559  :     return (_umul128(u, v, w_hi));

	mov	r8, rdx

; 467  :     return (_addcarry_u64(carry, u, v, w));

	adc	r8, 0
	add	rax, rcx
; File z:\sources\lunor\repos\rougemeilland\palmtree.math.core.implements\palmtree.math.core.implements\pmc_multiply.c

; 49   :     *wp = t_lo;

	mov	QWORD PTR [r9+8], rax
; File z:\sources\lunor\repos\rougemeilland\palmtree.math.core.implements\palmtree.math.core.implements\pmc_internal.h

; 467  :     return (_addcarry_u64(carry, u, v, w));

	adc	r8, 0
	mov	QWORD PTR t_lo$2[rsp], rax
	mov	QWORD PTR t_hi$3[rsp], r8

; 559  :     return (_umul128(u, v, w_hi));

	mov	rax, rbx
	mul	QWORD PTR [r11+16]

; 467  :     return (_addcarry_u64(carry, u, v, w));

	add	rax, QWORD PTR [r9+16]

; 559  :     return (_umul128(u, v, w_hi));

	mov	rcx, rdx

; 467  :     return (_addcarry_u64(carry, u, v, w));

	adc	rcx, 0
	add	rax, r8
; File z:\sources\lunor\repos\rougemeilland\palmtree.math.core.implements\palmtree.math.core.implements\pmc_multiply.c

; 49   :     *wp = t_lo;

	mov	QWORD PTR [r9+16], rax
; File z:\sources\lunor\repos\rougemeilland\palmtree.math.core.implements\palmtree.math.core.implements\pmc_internal.h

; 467  :     return (_addcarry_u64(carry, u, v, w));

	adc	rcx, 0
	mov	QWORD PTR t_lo$4[rsp], rax
	mov	QWORD PTR t_hi$5[rsp], rcx

; 559  :     return (_umul128(u, v, w_hi));

	mov	rax, rbx
	mul	QWORD PTR [r11+24]

; 467  :     return (_addcarry_u64(carry, u, v, w));

	add	rax, QWORD PTR [r9+24]

; 559  :     return (_umul128(u, v, w_hi));

	mov	r8, rdx

; 467  :     return (_addcarry_u64(carry, u, v, w));

	adc	r8, 0
	add	rax, rcx
; File z:\sources\lunor\repos\rougemeilland\palmtree.math.core.implements\palmtree.math.core.implements\pmc_multiply.c

; 49   :     *wp = t_lo;

	mov	QWORD PTR [r9+24], rax
; File z:\sources\lunor\repos\rougemeilland\palmtree.math.core.implements\palmtree.math.core.implements\pmc_internal.h

; 467  :     return (_addcarry_u64(carry, u, v, w));

	adc	r8, 0
	mov	QWORD PTR t_lo$6[rsp], rax
	mov	QWORD PTR t_hi$7[rsp], r8

; 559  :     return (_umul128(u, v, w_hi));

	mov	rax, rbx
	mul	QWORD PTR [r11+32]

; 467  :     return (_addcarry_u64(carry, u, v, w));

	add	rax, QWORD PTR [r9+32]

; 559  :     return (_umul128(u, v, w_hi));

	mov	rcx, rdx

; 467  :     return (_addcarry_u64(carry, u, v, w));

	adc	rcx, 0
	add	rax, r8
; File z:\sources\lunor\repos\rougemeilland\palmtree.math.core.implements\palmtree.math.core.implements\pmc_multiply.c

; 49   :     *wp = t_lo;

	mov	QWORD PTR [r9+32], rax
; File z:\sources\lunor\repos\rougemeilland\palmtree.math.core.implements\palmtree.math.core.implements\pmc_internal.h

; 467  :     return (_addcarry_u64(carry, u, v, w));

	adc	rcx, 0
	mov	QWORD PTR t_lo$8[rsp], rax
	mov	QWORD PTR t_hi$9[rsp], rcx

; 559  :     return (_umul128(u, v, w_hi));

	mov	rax, rbx
	mul	QWORD PTR [r11+40]

; 467  :     return (_addcarry_u64(carry, u, v, w));

	add	rax, QWORD PTR [r9+40]

; 559  :     return (_umul128(u, v, w_hi));

	mov	r8, rdx

; 467  :     return (_addcarry_u64(carry, u, v, w));

	adc	r8, 0
	add	rax, rcx
; File z:\sources\lunor\repos\rougemeilland\palmtree.math.core.implements\palmtree.math.core.implements\pmc_multiply.c

; 49   :     *wp = t_lo;

	mov	QWORD PTR [r9+40], rax
; File z:\sources\lunor\repos\rougemeilland\palmtree.math.core.implements\palmtree.math.core.implements\pmc_internal.h

; 467  :     return (_addcarry_u64(carry, u, v, w));

	adc	r8, 0
	mov	QWORD PTR t_lo$10[rsp], rax
	mov	QWORD PTR t_hi$11[rsp], r8

; 559  :     return (_umul128(u, v, w_hi));

	mov	rax, rbx
	mul	QWORD PTR [r11+48]

; 467  :     return (_addcarry_u64(carry, u, v, w));

	add	rax, QWORD PTR [r9+48]

; 559  :     return (_umul128(u, v, w_hi));

	mov	rcx, rdx

; 467  :     return (_addcarry_u64(carry, u, v, w));

	adc	rcx, 0
	add	rax, r8
; File z:\sources\lunor\repos\rougemeilland\palmtree.math.core.implements\palmtree.math.core.implements\pmc_multiply.c

; 49   :     *wp = t_lo;

	mov	QWORD PTR [r9+48], rax
; File z:\sources\lunor\repos\rougemeilland\palmtree.math.core.implements\palmtree.math.core.implements\pmc_internal.h

; 467  :     return (_addcarry_u64(carry, u, v, w));

	adc	rcx, 0
	mov	QWORD PTR t_lo$12[rsp], rax

; 559  :     return (_umul128(u, v, w_hi));

	mov	rax, rbx

; 467  :     return (_addcarry_u64(carry, u, v, w));

	mov	QWORD PTR t_hi$13[rsp], rcx

; 559  :     return (_umul128(u, v, w_hi));

	mul	QWORD PTR [r11+56]

; 467  :     return (_addcarry_u64(carry, u, v, w));

	add	rax, QWORD PTR [r9+56]

; 559  :     return (_umul128(u, v, w_hi));

	mov	r8, rdx

; 467  :     return (_addcarry_u64(carry, u, v, w));

	adc	r8, 0
	add	rax, rcx
	mov	QWORD PTR t_lo$14[rsp], rax
	adc	r8, 0
; File z:\sources\lunor\repos\rougemeilland\palmtree.math.core.implements\palmtree.math.core.implements\pmc_multiply.c

; 49   :     *wp = t_lo;

	mov	QWORD PTR [r9+56], rax
; File z:\sources\lunor\repos\rougemeilland\palmtree.math.core.implements\palmtree.math.core.implements\pmc_internal.h

; 467  :     return (_addcarry_u64(carry, u, v, w));

	mov	QWORD PTR t_hi$15[rsp], r8

; 559  :     return (_umul128(u, v, w_hi));

	mov	rax, rbx
	mul	QWORD PTR [r11+64]

; 467  :     return (_addcarry_u64(carry, u, v, w));

	add	rax, QWORD PTR [r9+64]

; 559  :     return (_umul128(u, v, w_hi));

	mov	rcx, rdx

; 467  :     return (_addcarry_u64(carry, u, v, w));

	adc	rcx, 0
	add	rax, r8
; File z:\sources\lunor\repos\rougemeilland\palmtree.math.core.implements\palmtree.math.core.implements\pmc_multiply.c

; 49   :     *wp = t_lo;

	mov	QWORD PTR [r9+64], rax
; File z:\sources\lunor\repos\rougemeilland\palmtree.math.core.implements\palmtree.math.core.implements\pmc_internal.h

; 467  :     return (_addcarry_u64(carry, u, v, w));

	adc	rcx, 0
	mov	QWORD PTR t_lo$16[rsp], rax
	mov	QWORD PTR t_hi$17[rbp-256], rcx

; 559  :     return (_umul128(u, v, w_hi));

	mov	rax, rbx
	mul	QWORD PTR [r11+72]

; 467  :     return (_addcarry_u64(carry, u, v, w));

	add	rax, QWORD PTR [r9+72]

; 559  :     return (_umul128(u, v, w_hi));

	mov	r8, rdx

; 467  :     return (_addcarry_u64(carry, u, v, w));

	adc	r8, 0
	add	rax, rcx
; File z:\sources\lunor\repos\rougemeilland\palmtree.math.core.implements\palmtree.math.core.implements\pmc_multiply.c

; 49   :     *wp = t_lo;

	mov	QWORD PTR [r9+72], rax
; File z:\sources\lunor\repos\rougemeilland\palmtree.math.core.implements\palmtree.math.core.implements\pmc_internal.h

; 467  :     return (_addcarry_u64(carry, u, v, w));

	adc	r8, 0
	mov	QWORD PTR t_lo$18[rbp-256], rax
	mov	QWORD PTR t_hi$19[rbp-256], r8

; 559  :     return (_umul128(u, v, w_hi));

	mov	rax, rbx
	mul	QWORD PTR [r11+80]

; 467  :     return (_addcarry_u64(carry, u, v, w));

	add	rax, QWORD PTR [r9+80]

; 559  :     return (_umul128(u, v, w_hi));

	mov	rcx, rdx

; 467  :     return (_addcarry_u64(carry, u, v, w));

	adc	rcx, 0
	add	rax, r8
; File z:\sources\lunor\repos\rougemeilland\palmtree.math.core.implements\palmtree.math.core.implements\pmc_multiply.c

; 49   :     *wp = t_lo;

	mov	QWORD PTR [r9+80], rax
; File z:\sources\lunor\repos\rougemeilland\palmtree.math.core.implements\palmtree.math.core.implements\pmc_internal.h

; 467  :     return (_addcarry_u64(carry, u, v, w));

	adc	rcx, 0
	mov	QWORD PTR t_lo$20[rbp-256], rax
	mov	QWORD PTR t_hi$21[rbp-256], rcx

; 559  :     return (_umul128(u, v, w_hi));

	mov	rax, rbx
	mul	QWORD PTR [r11+88]

; 467  :     return (_addcarry_u64(carry, u, v, w));

	add	rax, QWORD PTR [r9+88]

; 559  :     return (_umul128(u, v, w_hi));

	mov	r8, rdx

; 467  :     return (_addcarry_u64(carry, u, v, w));

	adc	r8, 0
	add	rax, rcx
; File z:\sources\lunor\repos\rougemeilland\palmtree.math.core.implements\palmtree.math.core.implements\pmc_multiply.c

; 49   :     *wp = t_lo;

	mov	QWORD PTR [r9+88], rax
; File z:\sources\lunor\repos\rougemeilland\palmtree.math.core.implements\palmtree.math.core.implements\pmc_internal.h

; 467  :     return (_addcarry_u64(carry, u, v, w));

	adc	r8, 0
	mov	QWORD PTR t_lo$22[rbp-256], rax
	mov	QWORD PTR t_hi$23[rbp-256], r8

; 559  :     return (_umul128(u, v, w_hi));

	mov	rax, rbx
	mul	QWORD PTR [r11+96]

; 467  :     return (_addcarry_u64(carry, u, v, w));

	add	rax, QWORD PTR [r9+96]

; 559  :     return (_umul128(u, v, w_hi));

	mov	rcx, rdx

; 467  :     return (_addcarry_u64(carry, u, v, w));

	adc	rcx, 0
	add	rax, r8
; File z:\sources\lunor\repos\rougemeilland\palmtree.math.core.implements\palmtree.math.core.implements\pmc_multiply.c

; 49   :     *wp = t_lo;

	mov	QWORD PTR [r9+96], rax
; File z:\sources\lunor\repos\rougemeilland\palmtree.math.core.implements\palmtree.math.core.implements\pmc_internal.h

; 467  :     return (_addcarry_u64(carry, u, v, w));

	adc	rcx, 0
	mov	QWORD PTR t_lo$24[rbp-256], rax
	mov	QWORD PTR t_hi$25[rbp-256], rcx

; 559  :     return (_umul128(u, v, w_hi));

	mov	rax, rbx
	mul	QWORD PTR [r11+104]

; 467  :     return (_addcarry_u64(carry, u, v, w));

	add	rax, QWORD PTR [r9+104]

; 559  :     return (_umul128(u, v, w_hi));

	mov	r8, rdx

; 467  :     return (_addcarry_u64(carry, u, v, w));

	adc	r8, 0
	add	rax, rcx
; File z:\sources\lunor\repos\rougemeilland\palmtree.math.core.implements\palmtree.math.core.implements\pmc_multiply.c

; 49   :     *wp = t_lo;

	mov	QWORD PTR [r9+104], rax
; File z:\sources\lunor\repos\rougemeilland\palmtree.math.core.implements\palmtree.math.core.implements\pmc_internal.h

; 467  :     return (_addcarry_u64(carry, u, v, w));

	adc	r8, 0
	mov	QWORD PTR t_lo$26[rbp-256], rax
	mov	QWORD PTR t_hi$27[rbp-256], r8

; 559  :     return (_umul128(u, v, w_hi));

	mov	rax, rbx
	mul	QWORD PTR [r11+112]

; 467  :     return (_addcarry_u64(carry, u, v, w));

	add	rax, QWORD PTR [r9+112]

; 559  :     return (_umul128(u, v, w_hi));

	mov	rcx, rdx

; 467  :     return (_addcarry_u64(carry, u, v, w));

	adc	rcx, 0
	add	rax, r8
; File z:\sources\lunor\repos\rougemeilland\palmtree.math.core.implements\palmtree.math.core.implements\pmc_multiply.c

; 49   :     *wp = t_lo;

	mov	QWORD PTR [r9+112], rax
; File z:\sources\lunor\repos\rougemeilland\palmtree.math.core.implements\palmtree.math.core.implements\pmc_internal.h

; 467  :     return (_addcarry_u64(carry, u, v, w));

	adc	rcx, 0
	mov	QWORD PTR t_lo$28[rbp-256], rax

; 559  :     return (_umul128(u, v, w_hi));

	mov	rax, rbx

; 467  :     return (_addcarry_u64(carry, u, v, w));

	mov	QWORD PTR t_hi$29[rbp-256], rcx

; 559  :     return (_umul128(u, v, w_hi));

	mul	QWORD PTR [r11+120]

; 467  :     return (_addcarry_u64(carry, u, v, w));

	add	rax, QWORD PTR [r9+120]

; 559  :     return (_umul128(u, v, w_hi));

	mov	r8, rdx

; 467  :     return (_addcarry_u64(carry, u, v, w));

	adc	r8, 0
	add	rax, rcx
	mov	QWORD PTR t_lo$30[rbp-256], rax
; File z:\sources\lunor\repos\rougemeilland\palmtree.math.core.implements\palmtree.math.core.implements\pmc_multiply.c

; 49   :     *wp = t_lo;

	mov	QWORD PTR [r9+120], rax
; File z:\sources\lunor\repos\rougemeilland\palmtree.math.core.implements\palmtree.math.core.implements\pmc_internal.h

; 467  :     return (_addcarry_u64(carry, u, v, w));

	adc	r8, 0

; 559  :     return (_umul128(u, v, w_hi));

	mov	rax, rbx

; 467  :     return (_addcarry_u64(carry, u, v, w));

	mov	QWORD PTR t_hi$31[rbp-256], r8

; 559  :     return (_umul128(u, v, w_hi));

	mul	QWORD PTR [r11+128]

; 467  :     return (_addcarry_u64(carry, u, v, w));

	add	rax, QWORD PTR [r9+128]

; 559  :     return (_umul128(u, v, w_hi));

	mov	rcx, rdx

; 467  :     return (_addcarry_u64(carry, u, v, w));

	adc	rcx, 0
	add	rax, r8
; File z:\sources\lunor\repos\rougemeilland\palmtree.math.core.implements\palmtree.math.core.implements\pmc_multiply.c

; 49   :     *wp = t_lo;

	mov	QWORD PTR [r9+128], rax
; File z:\sources\lunor\repos\rougemeilland\palmtree.math.core.implements\palmtree.math.core.implements\pmc_internal.h

; 467  :     return (_addcarry_u64(carry, u, v, w));

	adc	rcx, 0
	mov	QWORD PTR t_lo$32[rbp-256], rax
	mov	QWORD PTR t_hi$33[rbp-256], rcx

; 559  :     return (_umul128(u, v, w_hi));

	mov	rax, rbx
	mul	QWORD PTR [r11+136]

; 467  :     return (_addcarry_u64(carry, u, v, w));

	add	rax, QWORD PTR [r9+136]

; 559  :     return (_umul128(u, v, w_hi));

	mov	r8, rdx

; 467  :     return (_addcarry_u64(carry, u, v, w));

	adc	r8, 0
	add	rax, rcx
; File z:\sources\lunor\repos\rougemeilland\palmtree.math.core.implements\palmtree.math.core.implements\pmc_multiply.c

; 49   :     *wp = t_lo;

	mov	QWORD PTR [r9+136], rax
; File z:\sources\lunor\repos\rougemeilland\palmtree.math.core.implements\palmtree.math.core.implements\pmc_internal.h

; 467  :     return (_addcarry_u64(carry, u, v, w));

	adc	r8, 0
	mov	QWORD PTR t_lo$34[rbp-256], rax
	mov	QWORD PTR t_hi$35[rbp-256], r8

; 559  :     return (_umul128(u, v, w_hi));

	mov	rax, rbx
	mul	QWORD PTR [r11+144]

; 467  :     return (_addcarry_u64(carry, u, v, w));

	add	rax, QWORD PTR [r9+144]

; 559  :     return (_umul128(u, v, w_hi));

	mov	rcx, rdx

; 467  :     return (_addcarry_u64(carry, u, v, w));

	adc	rcx, 0
	add	rax, r8
; File z:\sources\lunor\repos\rougemeilland\palmtree.math.core.implements\palmtree.math.core.implements\pmc_multiply.c

; 49   :     *wp = t_lo;

	mov	QWORD PTR [r9+144], rax
; File z:\sources\lunor\repos\rougemeilland\palmtree.math.core.implements\palmtree.math.core.implements\pmc_internal.h

; 467  :     return (_addcarry_u64(carry, u, v, w));

	adc	rcx, 0
	mov	QWORD PTR t_lo$36[rbp-256], rax
	mov	QWORD PTR t_hi$37[rbp-256], rcx

; 559  :     return (_umul128(u, v, w_hi));

	mov	rax, rbx
	mul	QWORD PTR [r11+152]

; 467  :     return (_addcarry_u64(carry, u, v, w));

	add	rax, QWORD PTR [r9+152]

; 559  :     return (_umul128(u, v, w_hi));

	mov	r8, rdx

; 467  :     return (_addcarry_u64(carry, u, v, w));

	adc	r8, 0
	add	rax, rcx
; File z:\sources\lunor\repos\rougemeilland\palmtree.math.core.implements\palmtree.math.core.implements\pmc_multiply.c

; 49   :     *wp = t_lo;

	mov	QWORD PTR [r9+152], rax
; File z:\sources\lunor\repos\rougemeilland\palmtree.math.core.implements\palmtree.math.core.implements\pmc_internal.h

; 467  :     return (_addcarry_u64(carry, u, v, w));

	adc	r8, 0
	mov	QWORD PTR t_lo$38[rbp-256], rax
	mov	QWORD PTR t_hi$39[rbp-256], r8

; 559  :     return (_umul128(u, v, w_hi));

	mov	rax, rbx
	mul	QWORD PTR [r11+160]

; 467  :     return (_addcarry_u64(carry, u, v, w));

	add	rax, QWORD PTR [r9+160]

; 559  :     return (_umul128(u, v, w_hi));

	mov	rcx, rdx

; 467  :     return (_addcarry_u64(carry, u, v, w));

	adc	rcx, 0
	add	rax, r8
; File z:\sources\lunor\repos\rougemeilland\palmtree.math.core.implements\palmtree.math.core.implements\pmc_multiply.c

; 49   :     *wp = t_lo;

	mov	QWORD PTR [r9+160], rax
; File z:\sources\lunor\repos\rougemeilland\palmtree.math.core.implements\palmtree.math.core.implements\pmc_internal.h

; 467  :     return (_addcarry_u64(carry, u, v, w));

	adc	rcx, 0
	mov	QWORD PTR t_lo$40[rbp-256], rax
	mov	QWORD PTR t_hi$41[rbp-256], rcx

; 559  :     return (_umul128(u, v, w_hi));

	mov	rax, rbx
	mul	QWORD PTR [r11+168]

; 467  :     return (_addcarry_u64(carry, u, v, w));

	add	rax, QWORD PTR [r9+168]

; 559  :     return (_umul128(u, v, w_hi));

	mov	r8, rdx

; 467  :     return (_addcarry_u64(carry, u, v, w));

	adc	r8, 0
	add	rax, rcx
; File z:\sources\lunor\repos\rougemeilland\palmtree.math.core.implements\palmtree.math.core.implements\pmc_multiply.c

; 49   :     *wp = t_lo;

	mov	QWORD PTR [r9+168], rax
; File z:\sources\lunor\repos\rougemeilland\palmtree.math.core.implements\palmtree.math.core.implements\pmc_internal.h

; 467  :     return (_addcarry_u64(carry, u, v, w));

	adc	r8, 0
	mov	QWORD PTR t_lo$42[rbp-256], rax
	mov	QWORD PTR t_hi$43[rbp-256], r8

; 559  :     return (_umul128(u, v, w_hi));

	mov	rax, rbx
	mul	QWORD PTR [r11+176]

; 467  :     return (_addcarry_u64(carry, u, v, w));

	add	rax, QWORD PTR [r9+176]

; 559  :     return (_umul128(u, v, w_hi));

	mov	rcx, rdx

; 467  :     return (_addcarry_u64(carry, u, v, w));

	adc	rcx, 0
	add	rax, r8
; File z:\sources\lunor\repos\rougemeilland\palmtree.math.core.implements\palmtree.math.core.implements\pmc_multiply.c

; 49   :     *wp = t_lo;

	mov	QWORD PTR [r9+176], rax
; File z:\sources\lunor\repos\rougemeilland\palmtree.math.core.implements\palmtree.math.core.implements\pmc_internal.h

; 467  :     return (_addcarry_u64(carry, u, v, w));

	adc	rcx, 0
	mov	QWORD PTR t_lo$44[rbp-256], rax

; 559  :     return (_umul128(u, v, w_hi));

	mov	rax, rbx

; 467  :     return (_addcarry_u64(carry, u, v, w));

	mov	QWORD PTR t_hi$45[rbp-256], rcx

; 559  :     return (_umul128(u, v, w_hi));

	mul	QWORD PTR [r11+184]

; 467  :     return (_addcarry_u64(carry, u, v, w));

	add	rax, QWORD PTR [r9+184]

; 559  :     return (_umul128(u, v, w_hi));

	mov	r8, rdx

; 467  :     return (_addcarry_u64(carry, u, v, w));

	adc	r8, 0
	add	rax, rcx
	mov	QWORD PTR t_lo$46[rbp-256], rax
; File z:\sources\lunor\repos\rougemeilland\palmtree.math.core.implements\palmtree.math.core.implements\pmc_multiply.c

; 49   :     *wp = t_lo;

	mov	QWORD PTR [r9+184], rax
; File z:\sources\lunor\repos\rougemeilland\palmtree.math.core.implements\palmtree.math.core.implements\pmc_internal.h

; 467  :     return (_addcarry_u64(carry, u, v, w));

	adc	r8, 0

; 559  :     return (_umul128(u, v, w_hi));

	mov	rax, rbx

; 467  :     return (_addcarry_u64(carry, u, v, w));

	mov	QWORD PTR t_hi$47[rbp-256], r8

; 559  :     return (_umul128(u, v, w_hi));

	mul	QWORD PTR [r11+192]
	mov	rcx, rdx

; 467  :     return (_addcarry_u64(carry, u, v, w));

	add	rax, QWORD PTR [r9+192]
	adc	rcx, 0
	add	rax, r8
; File z:\sources\lunor\repos\rougemeilland\palmtree.math.core.implements\palmtree.math.core.implements\pmc_multiply.c

; 49   :     *wp = t_lo;

	mov	QWORD PTR [r9+192], rax
; File z:\sources\lunor\repos\rougemeilland\palmtree.math.core.implements\palmtree.math.core.implements\pmc_internal.h

; 467  :     return (_addcarry_u64(carry, u, v, w));

	adc	rcx, 0
	mov	QWORD PTR t_lo$48[rbp-256], rax
	mov	QWORD PTR t_hi$49[rbp-256], rcx

; 559  :     return (_umul128(u, v, w_hi));

	mov	rax, rbx
	mul	QWORD PTR [r11+200]

; 467  :     return (_addcarry_u64(carry, u, v, w));

	add	rax, QWORD PTR [r9+200]

; 559  :     return (_umul128(u, v, w_hi));

	mov	r8, rdx

; 467  :     return (_addcarry_u64(carry, u, v, w));

	adc	r8, 0
	add	rax, rcx
; File z:\sources\lunor\repos\rougemeilland\palmtree.math.core.implements\palmtree.math.core.implements\pmc_multiply.c

; 49   :     *wp = t_lo;

	mov	QWORD PTR [r9+200], rax
; File z:\sources\lunor\repos\rougemeilland\palmtree.math.core.implements\palmtree.math.core.implements\pmc_internal.h

; 467  :     return (_addcarry_u64(carry, u, v, w));

	adc	r8, 0
	mov	QWORD PTR t_lo$50[rbp-256], rax
	mov	QWORD PTR t_hi$51[rbp-256], r8

; 559  :     return (_umul128(u, v, w_hi));

	mov	rax, rbx
	mul	QWORD PTR [r11+208]

; 467  :     return (_addcarry_u64(carry, u, v, w));

	add	rax, QWORD PTR [r9+208]

; 559  :     return (_umul128(u, v, w_hi));

	mov	rcx, rdx

; 467  :     return (_addcarry_u64(carry, u, v, w));

	adc	rcx, 0
	add	rax, r8
; File z:\sources\lunor\repos\rougemeilland\palmtree.math.core.implements\palmtree.math.core.implements\pmc_multiply.c

; 49   :     *wp = t_lo;

	mov	QWORD PTR [r9+208], rax
; File z:\sources\lunor\repos\rougemeilland\palmtree.math.core.implements\palmtree.math.core.implements\pmc_internal.h

; 467  :     return (_addcarry_u64(carry, u, v, w));

	adc	rcx, 0
	mov	QWORD PTR t_lo$52[rbp-256], rax
	mov	QWORD PTR t_hi$53[rbp-256], rcx

; 559  :     return (_umul128(u, v, w_hi));

	mov	rax, rbx
	mul	QWORD PTR [r11+216]

; 467  :     return (_addcarry_u64(carry, u, v, w));

	add	rax, QWORD PTR [r9+216]

; 559  :     return (_umul128(u, v, w_hi));

	mov	r8, rdx

; 467  :     return (_addcarry_u64(carry, u, v, w));

	adc	r8, 0
	add	rax, rcx
; File z:\sources\lunor\repos\rougemeilland\palmtree.math.core.implements\palmtree.math.core.implements\pmc_multiply.c

; 49   :     *wp = t_lo;

	mov	QWORD PTR [r9+216], rax
; File z:\sources\lunor\repos\rougemeilland\palmtree.math.core.implements\palmtree.math.core.implements\pmc_internal.h

; 467  :     return (_addcarry_u64(carry, u, v, w));

	adc	r8, 0
	mov	QWORD PTR t_lo$54[rbp-256], rax
	mov	QWORD PTR t_hi$55[rbp-256], r8

; 559  :     return (_umul128(u, v, w_hi));

	mov	rax, rbx
	mul	QWORD PTR [r11+224]

; 467  :     return (_addcarry_u64(carry, u, v, w));

	add	rax, QWORD PTR [r9+224]

; 559  :     return (_umul128(u, v, w_hi));

	mov	rcx, rdx

; 467  :     return (_addcarry_u64(carry, u, v, w));

	adc	rcx, 0
	add	rax, r8
; File z:\sources\lunor\repos\rougemeilland\palmtree.math.core.implements\palmtree.math.core.implements\pmc_multiply.c

; 49   :     *wp = t_lo;

	mov	QWORD PTR [r9+224], rax
; File z:\sources\lunor\repos\rougemeilland\palmtree.math.core.implements\palmtree.math.core.implements\pmc_internal.h

; 467  :     return (_addcarry_u64(carry, u, v, w));

	adc	rcx, 0
	mov	QWORD PTR t_lo$56[rbp-256], rax
	mov	QWORD PTR t_hi$57[rbp-256], rcx

; 559  :     return (_umul128(u, v, w_hi));

	mov	rax, rbx
	mul	QWORD PTR [r11+232]

; 467  :     return (_addcarry_u64(carry, u, v, w));

	add	rax, QWORD PTR [r9+232]

; 559  :     return (_umul128(u, v, w_hi));

	mov	r8, rdx

; 467  :     return (_addcarry_u64(carry, u, v, w));

	adc	r8, 0
	add	rax, rcx
; File z:\sources\lunor\repos\rougemeilland\palmtree.math.core.implements\palmtree.math.core.implements\pmc_multiply.c

; 49   :     *wp = t_lo;

	mov	QWORD PTR [r9+232], rax
; File z:\sources\lunor\repos\rougemeilland\palmtree.math.core.implements\palmtree.math.core.implements\pmc_internal.h

; 467  :     return (_addcarry_u64(carry, u, v, w));

	adc	r8, 0
	mov	QWORD PTR t_lo$58[rbp-256], rax

; 559  :     return (_umul128(u, v, w_hi));

	mov	rax, rbx

; 467  :     return (_addcarry_u64(carry, u, v, w));

	mov	QWORD PTR t_hi$59[rbp-256], r8

; 559  :     return (_umul128(u, v, w_hi));

	mul	QWORD PTR [r11+240]

; 467  :     return (_addcarry_u64(carry, u, v, w));

	add	rax, QWORD PTR [r9+240]

; 559  :     return (_umul128(u, v, w_hi));

	mov	rcx, rdx

; 467  :     return (_addcarry_u64(carry, u, v, w));

	adc	rcx, 0
	add	rax, r8
; File z:\sources\lunor\repos\rougemeilland\palmtree.math.core.implements\palmtree.math.core.implements\pmc_multiply.c

; 49   :     *wp = t_lo;

	mov	QWORD PTR [r9+240], rax
; File z:\sources\lunor\repos\rougemeilland\palmtree.math.core.implements\palmtree.math.core.implements\pmc_internal.h

; 467  :     return (_addcarry_u64(carry, u, v, w));

	adc	rcx, 0
	mov	QWORD PTR t_lo$60[rbp-256], rax

; 559  :     return (_umul128(u, v, w_hi));

	mov	rax, rbx

; 467  :     return (_addcarry_u64(carry, u, v, w));

	mov	QWORD PTR t_hi$61[rbp-256], rcx

; 559  :     return (_umul128(u, v, w_hi));

	mul	QWORD PTR [r11+248]

; 467  :     return (_addcarry_u64(carry, u, v, w));

	add	rax, QWORD PTR [r9+248]

; 559  :     return (_umul128(u, v, w_hi));

	mov	r10, rdx

; 467  :     return (_addcarry_u64(carry, u, v, w));

	adc	r10, 0
	add	rax, rcx
; File z:\sources\lunor\repos\rougemeilland\palmtree.math.core.implements\palmtree.math.core.implements\pmc_multiply.c

; 49   :     *wp = t_lo;

	mov	QWORD PTR [r9+248], rax
; File z:\sources\lunor\repos\rougemeilland\palmtree.math.core.implements\palmtree.math.core.implements\pmc_internal.h

; 467  :     return (_addcarry_u64(carry, u, v, w));

	adc	r10, 0
	mov	QWORD PTR t_lo$62[rbp-256], rax
; File z:\sources\lunor\repos\rougemeilland\palmtree.math.core.implements\palmtree.math.core.implements\pmc_multiply.c

; 105  :         up += 32;

	add	r11, 256				; 00000100H
; File z:\sources\lunor\repos\rougemeilland\palmtree.math.core.implements\palmtree.math.core.implements\pmc_internal.h

; 467  :     return (_addcarry_u64(carry, u, v, w));

	mov	QWORD PTR t_hi$63[rbp-256], r10
; File z:\sources\lunor\repos\rougemeilland\palmtree.math.core.implements\palmtree.math.core.implements\pmc_multiply.c

; 106  :         wp += 32;

	add	r9, 256					; 00000100H
; File z:\sources\lunor\repos\rougemeilland\palmtree.math.core.implements\palmtree.math.core.implements\pmc_internal.h

; 1030 :     _InterlockedExchangeAdd(&statistics_info.COUNT_MULTI64, value);

	mov	eax, 32					; 00000020H
	lock xadd DWORD PTR statistics_info, eax
; File z:\sources\lunor\repos\rougemeilland\palmtree.math.core.implements\palmtree.math.core.implements\pmc_multiply.c

; 71   :     while (count != 0)

	sub	rsi, 1
	jne	$LL2@Multiply_W
$LN3@Multiply_W:

; 107  :         --count;
; 108  : #ifdef ENABLED_PERFORMANCE_COUNTER
; 109  :         if (sizeof(k) == sizeof(_UINT32_T))
; 110  :             AddToMULTI32Counter(32);
; 111  :         else
; 112  :             AddToMULTI64Counter(32);
; 113  : #endif
; 114  :     }
; 115  : 
; 116  :     if (u_count & 0x10)

	test	dil, 16
	je	$LN605@Multiply_W
; File z:\sources\lunor\repos\rougemeilland\palmtree.math.core.implements\palmtree.math.core.implements\pmc_internal.h

; 559  :     return (_umul128(u, v, w_hi));

	mov	rax, rbx
	mul	QWORD PTR [r11]

; 467  :     return (_addcarry_u64(carry, u, v, w));

	add	rax, QWORD PTR [r9]

; 559  :     return (_umul128(u, v, w_hi));

	mov	rcx, rdx

; 467  :     return (_addcarry_u64(carry, u, v, w));

	adc	rcx, 0
	add	rax, r10
; File z:\sources\lunor\repos\rougemeilland\palmtree.math.core.implements\palmtree.math.core.implements\pmc_multiply.c

; 49   :     *wp = t_lo;

	mov	QWORD PTR [r9], rax
; File z:\sources\lunor\repos\rougemeilland\palmtree.math.core.implements\palmtree.math.core.implements\pmc_internal.h

; 467  :     return (_addcarry_u64(carry, u, v, w));

	adc	rcx, 0
	mov	QWORD PTR t_lo$64[rbp-256], rax
	mov	QWORD PTR t_hi$65[rbp-256], rcx

; 559  :     return (_umul128(u, v, w_hi));

	mov	rax, rbx
	mul	QWORD PTR [r11+8]

; 467  :     return (_addcarry_u64(carry, u, v, w));

	add	rax, QWORD PTR [r9+8]

; 559  :     return (_umul128(u, v, w_hi));

	mov	r8, rdx

; 467  :     return (_addcarry_u64(carry, u, v, w));

	adc	r8, 0
	add	rax, rcx
; File z:\sources\lunor\repos\rougemeilland\palmtree.math.core.implements\palmtree.math.core.implements\pmc_multiply.c

; 49   :     *wp = t_lo;

	mov	QWORD PTR [r9+8], rax
; File z:\sources\lunor\repos\rougemeilland\palmtree.math.core.implements\palmtree.math.core.implements\pmc_internal.h

; 467  :     return (_addcarry_u64(carry, u, v, w));

	adc	r8, 0
	mov	QWORD PTR t_lo$66[rbp-256], rax
	mov	QWORD PTR t_hi$67[rbp-256], r8

; 559  :     return (_umul128(u, v, w_hi));

	mov	rax, rbx
	mul	QWORD PTR [r11+16]

; 467  :     return (_addcarry_u64(carry, u, v, w));

	add	rax, QWORD PTR [r9+16]

; 559  :     return (_umul128(u, v, w_hi));

	mov	rcx, rdx

; 467  :     return (_addcarry_u64(carry, u, v, w));

	adc	rcx, 0
	add	rax, r8
; File z:\sources\lunor\repos\rougemeilland\palmtree.math.core.implements\palmtree.math.core.implements\pmc_multiply.c

; 49   :     *wp = t_lo;

	mov	QWORD PTR [r9+16], rax
; File z:\sources\lunor\repos\rougemeilland\palmtree.math.core.implements\palmtree.math.core.implements\pmc_internal.h

; 467  :     return (_addcarry_u64(carry, u, v, w));

	adc	rcx, 0
	mov	QWORD PTR t_lo$68[rbp-256], rax
	mov	QWORD PTR t_hi$69[rbp-256], rcx

; 559  :     return (_umul128(u, v, w_hi));

	mov	rax, rbx
	mul	QWORD PTR [r11+24]

; 467  :     return (_addcarry_u64(carry, u, v, w));

	add	rax, QWORD PTR [r9+24]

; 559  :     return (_umul128(u, v, w_hi));

	mov	r8, rdx

; 467  :     return (_addcarry_u64(carry, u, v, w));

	adc	r8, 0
	add	rax, rcx
; File z:\sources\lunor\repos\rougemeilland\palmtree.math.core.implements\palmtree.math.core.implements\pmc_multiply.c

; 49   :     *wp = t_lo;

	mov	QWORD PTR [r9+24], rax
; File z:\sources\lunor\repos\rougemeilland\palmtree.math.core.implements\palmtree.math.core.implements\pmc_internal.h

; 467  :     return (_addcarry_u64(carry, u, v, w));

	adc	r8, 0
	mov	QWORD PTR t_lo$70[rbp-256], rax
	mov	QWORD PTR t_hi$71[rbp-256], r8

; 559  :     return (_umul128(u, v, w_hi));

	mov	rax, rbx
	mul	QWORD PTR [r11+32]

; 467  :     return (_addcarry_u64(carry, u, v, w));

	add	rax, QWORD PTR [r9+32]

; 559  :     return (_umul128(u, v, w_hi));

	mov	rcx, rdx

; 467  :     return (_addcarry_u64(carry, u, v, w));

	adc	rcx, 0
	add	rax, r8
; File z:\sources\lunor\repos\rougemeilland\palmtree.math.core.implements\palmtree.math.core.implements\pmc_multiply.c

; 49   :     *wp = t_lo;

	mov	QWORD PTR [r9+32], rax
; File z:\sources\lunor\repos\rougemeilland\palmtree.math.core.implements\palmtree.math.core.implements\pmc_internal.h

; 467  :     return (_addcarry_u64(carry, u, v, w));

	adc	rcx, 0
	mov	QWORD PTR t_lo$72[rbp-256], rax
	mov	QWORD PTR t_hi$73[rbp-256], rcx

; 559  :     return (_umul128(u, v, w_hi));

	mov	rax, rbx
	mul	QWORD PTR [r11+40]

; 467  :     return (_addcarry_u64(carry, u, v, w));

	add	rax, QWORD PTR [r9+40]

; 559  :     return (_umul128(u, v, w_hi));

	mov	r8, rdx

; 467  :     return (_addcarry_u64(carry, u, v, w));

	adc	r8, 0
	add	rax, rcx
; File z:\sources\lunor\repos\rougemeilland\palmtree.math.core.implements\palmtree.math.core.implements\pmc_multiply.c

; 49   :     *wp = t_lo;

	mov	QWORD PTR [r9+40], rax
; File z:\sources\lunor\repos\rougemeilland\palmtree.math.core.implements\palmtree.math.core.implements\pmc_internal.h

; 467  :     return (_addcarry_u64(carry, u, v, w));

	adc	r8, 0
	mov	QWORD PTR t_lo$74[rbp-256], rax
	mov	QWORD PTR t_hi$75[rbp-256], r8

; 559  :     return (_umul128(u, v, w_hi));

	mov	rax, rbx
	mul	QWORD PTR [r11+48]

; 467  :     return (_addcarry_u64(carry, u, v, w));

	add	rax, QWORD PTR [r9+48]

; 559  :     return (_umul128(u, v, w_hi));

	mov	rcx, rdx

; 467  :     return (_addcarry_u64(carry, u, v, w));

	adc	rcx, 0
	add	rax, r8
; File z:\sources\lunor\repos\rougemeilland\palmtree.math.core.implements\palmtree.math.core.implements\pmc_multiply.c

; 49   :     *wp = t_lo;

	mov	QWORD PTR [r9+48], rax
; File z:\sources\lunor\repos\rougemeilland\palmtree.math.core.implements\palmtree.math.core.implements\pmc_internal.h

; 467  :     return (_addcarry_u64(carry, u, v, w));

	adc	rcx, 0
	mov	QWORD PTR t_lo$76[rbp-256], rax

; 559  :     return (_umul128(u, v, w_hi));

	mov	rax, rbx

; 467  :     return (_addcarry_u64(carry, u, v, w));

	mov	QWORD PTR t_hi$77[rbp-256], rcx

; 559  :     return (_umul128(u, v, w_hi));

	mul	QWORD PTR [r11+56]

; 467  :     return (_addcarry_u64(carry, u, v, w));

	add	rax, QWORD PTR [r9+56]

; 559  :     return (_umul128(u, v, w_hi));

	mov	r8, rdx

; 467  :     return (_addcarry_u64(carry, u, v, w));

	adc	r8, 0
	add	rax, rcx
	mov	QWORD PTR t_lo$78[rbp-256], rax
	adc	r8, 0
; File z:\sources\lunor\repos\rougemeilland\palmtree.math.core.implements\palmtree.math.core.implements\pmc_multiply.c

; 49   :     *wp = t_lo;

	mov	QWORD PTR [r9+56], rax
; File z:\sources\lunor\repos\rougemeilland\palmtree.math.core.implements\palmtree.math.core.implements\pmc_internal.h

; 467  :     return (_addcarry_u64(carry, u, v, w));

	mov	QWORD PTR t_hi$79[rbp-256], r8

; 559  :     return (_umul128(u, v, w_hi));

	mov	rax, rbx
	mul	QWORD PTR [r11+64]

; 467  :     return (_addcarry_u64(carry, u, v, w));

	add	rax, QWORD PTR [r9+64]

; 559  :     return (_umul128(u, v, w_hi));

	mov	rcx, rdx

; 467  :     return (_addcarry_u64(carry, u, v, w));

	adc	rcx, 0
	add	rax, r8
; File z:\sources\lunor\repos\rougemeilland\palmtree.math.core.implements\palmtree.math.core.implements\pmc_multiply.c

; 49   :     *wp = t_lo;

	mov	QWORD PTR [r9+64], rax
; File z:\sources\lunor\repos\rougemeilland\palmtree.math.core.implements\palmtree.math.core.implements\pmc_internal.h

; 467  :     return (_addcarry_u64(carry, u, v, w));

	adc	rcx, 0
	mov	QWORD PTR t_lo$80[rbp-256], rax
	mov	QWORD PTR t_hi$81[rbp-256], rcx

; 559  :     return (_umul128(u, v, w_hi));

	mov	rax, rbx
	mul	QWORD PTR [r11+72]

; 467  :     return (_addcarry_u64(carry, u, v, w));

	add	rax, QWORD PTR [r9+72]

; 559  :     return (_umul128(u, v, w_hi));

	mov	r8, rdx

; 467  :     return (_addcarry_u64(carry, u, v, w));

	adc	r8, 0
	add	rax, rcx
; File z:\sources\lunor\repos\rougemeilland\palmtree.math.core.implements\palmtree.math.core.implements\pmc_multiply.c

; 49   :     *wp = t_lo;

	mov	QWORD PTR [r9+72], rax
; File z:\sources\lunor\repos\rougemeilland\palmtree.math.core.implements\palmtree.math.core.implements\pmc_internal.h

; 467  :     return (_addcarry_u64(carry, u, v, w));

	adc	r8, 0
	mov	QWORD PTR t_lo$82[rbp-256], rax
	mov	QWORD PTR t_hi$83[rbp-256], r8

; 559  :     return (_umul128(u, v, w_hi));

	mov	rax, rbx
	mul	QWORD PTR [r11+80]

; 467  :     return (_addcarry_u64(carry, u, v, w));

	add	rax, QWORD PTR [r9+80]

; 559  :     return (_umul128(u, v, w_hi));

	mov	rcx, rdx

; 467  :     return (_addcarry_u64(carry, u, v, w));

	adc	rcx, 0
	add	rax, r8
; File z:\sources\lunor\repos\rougemeilland\palmtree.math.core.implements\palmtree.math.core.implements\pmc_multiply.c

; 49   :     *wp = t_lo;

	mov	QWORD PTR [r9+80], rax
; File z:\sources\lunor\repos\rougemeilland\palmtree.math.core.implements\palmtree.math.core.implements\pmc_internal.h

; 467  :     return (_addcarry_u64(carry, u, v, w));

	adc	rcx, 0
	mov	QWORD PTR t_lo$84[rbp-256], rax
	mov	QWORD PTR t_hi$85[rbp-256], rcx

; 559  :     return (_umul128(u, v, w_hi));

	mov	rax, rbx
	mul	QWORD PTR [r11+88]

; 467  :     return (_addcarry_u64(carry, u, v, w));

	add	rax, QWORD PTR [r9+88]

; 559  :     return (_umul128(u, v, w_hi));

	mov	r8, rdx

; 467  :     return (_addcarry_u64(carry, u, v, w));

	adc	r8, 0
	add	rax, rcx
; File z:\sources\lunor\repos\rougemeilland\palmtree.math.core.implements\palmtree.math.core.implements\pmc_multiply.c

; 49   :     *wp = t_lo;

	mov	QWORD PTR [r9+88], rax
; File z:\sources\lunor\repos\rougemeilland\palmtree.math.core.implements\palmtree.math.core.implements\pmc_internal.h

; 467  :     return (_addcarry_u64(carry, u, v, w));

	adc	r8, 0
	mov	QWORD PTR t_lo$86[rbp-256], rax
	mov	QWORD PTR t_hi$87[rbp-256], r8

; 559  :     return (_umul128(u, v, w_hi));

	mov	rax, rbx
	mul	QWORD PTR [r11+96]

; 467  :     return (_addcarry_u64(carry, u, v, w));

	add	rax, QWORD PTR [r9+96]

; 559  :     return (_umul128(u, v, w_hi));

	mov	rcx, rdx

; 467  :     return (_addcarry_u64(carry, u, v, w));

	adc	rcx, 0
	add	rax, r8
; File z:\sources\lunor\repos\rougemeilland\palmtree.math.core.implements\palmtree.math.core.implements\pmc_multiply.c

; 49   :     *wp = t_lo;

	mov	QWORD PTR [r9+96], rax
; File z:\sources\lunor\repos\rougemeilland\palmtree.math.core.implements\palmtree.math.core.implements\pmc_internal.h

; 467  :     return (_addcarry_u64(carry, u, v, w));

	adc	rcx, 0
	mov	QWORD PTR t_lo$88[rbp-256], rax
	mov	QWORD PTR t_hi$89[rbp-256], rcx

; 559  :     return (_umul128(u, v, w_hi));

	mov	rax, rbx
	mul	QWORD PTR [r11+104]

; 467  :     return (_addcarry_u64(carry, u, v, w));

	add	rax, QWORD PTR [r9+104]

; 559  :     return (_umul128(u, v, w_hi));

	mov	r8, rdx

; 467  :     return (_addcarry_u64(carry, u, v, w));

	adc	r8, 0
	add	rax, rcx
; File z:\sources\lunor\repos\rougemeilland\palmtree.math.core.implements\palmtree.math.core.implements\pmc_multiply.c

; 49   :     *wp = t_lo;

	mov	QWORD PTR [r9+104], rax
; File z:\sources\lunor\repos\rougemeilland\palmtree.math.core.implements\palmtree.math.core.implements\pmc_internal.h

; 467  :     return (_addcarry_u64(carry, u, v, w));

	adc	r8, 0
	mov	QWORD PTR t_lo$90[rbp-256], rax

; 559  :     return (_umul128(u, v, w_hi));

	mov	rax, rbx

; 467  :     return (_addcarry_u64(carry, u, v, w));

	mov	QWORD PTR t_hi$91[rbp-256], r8

; 559  :     return (_umul128(u, v, w_hi));

	mul	QWORD PTR [r11+112]

; 467  :     return (_addcarry_u64(carry, u, v, w));

	add	rax, QWORD PTR [r9+112]

; 559  :     return (_umul128(u, v, w_hi));

	mov	rcx, rdx

; 467  :     return (_addcarry_u64(carry, u, v, w));

	adc	rcx, 0
	add	rax, r8
; File z:\sources\lunor\repos\rougemeilland\palmtree.math.core.implements\palmtree.math.core.implements\pmc_multiply.c

; 49   :     *wp = t_lo;

	mov	QWORD PTR [r9+112], rax
; File z:\sources\lunor\repos\rougemeilland\palmtree.math.core.implements\palmtree.math.core.implements\pmc_internal.h

; 467  :     return (_addcarry_u64(carry, u, v, w));

	adc	rcx, 0
	mov	QWORD PTR t_lo$92[rbp-256], rax

; 559  :     return (_umul128(u, v, w_hi));

	mov	rax, rbx

; 467  :     return (_addcarry_u64(carry, u, v, w));

	mov	QWORD PTR t_hi$93[rbp-256], rcx

; 559  :     return (_umul128(u, v, w_hi));

	mul	QWORD PTR [r11+120]

; 467  :     return (_addcarry_u64(carry, u, v, w));

	add	rax, QWORD PTR [r9+120]

; 559  :     return (_umul128(u, v, w_hi));

	mov	r10, rdx

; 467  :     return (_addcarry_u64(carry, u, v, w));

	adc	r10, 0
	add	rax, rcx
; File z:\sources\lunor\repos\rougemeilland\palmtree.math.core.implements\palmtree.math.core.implements\pmc_multiply.c

; 49   :     *wp = t_lo;

	mov	QWORD PTR [r9+120], rax
; File z:\sources\lunor\repos\rougemeilland\palmtree.math.core.implements\palmtree.math.core.implements\pmc_internal.h

; 467  :     return (_addcarry_u64(carry, u, v, w));

	adc	r10, 0
	mov	QWORD PTR t_lo$94[rbp-256], rax
; File z:\sources\lunor\repos\rougemeilland\palmtree.math.core.implements\palmtree.math.core.implements\pmc_multiply.c

; 134  :         up += 16;

	sub	r11, -128				; ffffffffffffff80H
; File z:\sources\lunor\repos\rougemeilland\palmtree.math.core.implements\palmtree.math.core.implements\pmc_internal.h

; 467  :     return (_addcarry_u64(carry, u, v, w));

	mov	QWORD PTR t_hi$95[rbp-256], r10
; File z:\sources\lunor\repos\rougemeilland\palmtree.math.core.implements\palmtree.math.core.implements\pmc_multiply.c

; 135  :         wp += 16;

	sub	r9, -128				; ffffffffffffff80H
; File z:\sources\lunor\repos\rougemeilland\palmtree.math.core.implements\palmtree.math.core.implements\pmc_internal.h

; 1030 :     _InterlockedExchangeAdd(&statistics_info.COUNT_MULTI64, value);

	mov	eax, 16
	lock xadd DWORD PTR statistics_info, eax
$LN605@Multiply_W:
; File z:\sources\lunor\repos\rougemeilland\palmtree.math.core.implements\palmtree.math.core.implements\pmc_multiply.c

; 144  :     if (u_count & 0x8)

	test	dil, 8
	je	$LN705@Multiply_W
; File z:\sources\lunor\repos\rougemeilland\palmtree.math.core.implements\palmtree.math.core.implements\pmc_internal.h

; 559  :     return (_umul128(u, v, w_hi));

	mov	rax, rbx
	mul	QWORD PTR [r11]

; 467  :     return (_addcarry_u64(carry, u, v, w));

	add	rax, QWORD PTR [r9]

; 559  :     return (_umul128(u, v, w_hi));

	mov	rcx, rdx

; 467  :     return (_addcarry_u64(carry, u, v, w));

	adc	rcx, 0
	add	rax, r10
; File z:\sources\lunor\repos\rougemeilland\palmtree.math.core.implements\palmtree.math.core.implements\pmc_multiply.c

; 49   :     *wp = t_lo;

	mov	QWORD PTR [r9], rax
; File z:\sources\lunor\repos\rougemeilland\palmtree.math.core.implements\palmtree.math.core.implements\pmc_internal.h

; 467  :     return (_addcarry_u64(carry, u, v, w));

	adc	rcx, 0
	mov	QWORD PTR t_lo$96[rbp-256], rax
	mov	QWORD PTR t_hi$97[rbp-256], rcx

; 559  :     return (_umul128(u, v, w_hi));

	mov	rax, rbx
	mul	QWORD PTR [r11+8]

; 467  :     return (_addcarry_u64(carry, u, v, w));

	add	rax, QWORD PTR [r9+8]

; 559  :     return (_umul128(u, v, w_hi));

	mov	r8, rdx

; 467  :     return (_addcarry_u64(carry, u, v, w));

	adc	r8, 0
	add	rax, rcx
; File z:\sources\lunor\repos\rougemeilland\palmtree.math.core.implements\palmtree.math.core.implements\pmc_multiply.c

; 49   :     *wp = t_lo;

	mov	QWORD PTR [r9+8], rax
; File z:\sources\lunor\repos\rougemeilland\palmtree.math.core.implements\palmtree.math.core.implements\pmc_internal.h

; 467  :     return (_addcarry_u64(carry, u, v, w));

	adc	r8, 0
	mov	QWORD PTR t_lo$98[rbp-256], rax
	mov	QWORD PTR t_hi$99[rbp-256], r8

; 559  :     return (_umul128(u, v, w_hi));

	mov	rax, rbx
	mul	QWORD PTR [r11+16]

; 467  :     return (_addcarry_u64(carry, u, v, w));

	add	rax, QWORD PTR [r9+16]

; 559  :     return (_umul128(u, v, w_hi));

	mov	rcx, rdx

; 467  :     return (_addcarry_u64(carry, u, v, w));

	adc	rcx, 0
	add	rax, r8
; File z:\sources\lunor\repos\rougemeilland\palmtree.math.core.implements\palmtree.math.core.implements\pmc_multiply.c

; 49   :     *wp = t_lo;

	mov	QWORD PTR [r9+16], rax
; File z:\sources\lunor\repos\rougemeilland\palmtree.math.core.implements\palmtree.math.core.implements\pmc_internal.h

; 467  :     return (_addcarry_u64(carry, u, v, w));

	adc	rcx, 0
	mov	QWORD PTR t_lo$100[rbp-256], rax
	mov	QWORD PTR t_hi$101[rbp-256], rcx

; 559  :     return (_umul128(u, v, w_hi));

	mov	rax, rbx
	mul	QWORD PTR [r11+24]

; 467  :     return (_addcarry_u64(carry, u, v, w));

	add	rax, QWORD PTR [r9+24]

; 559  :     return (_umul128(u, v, w_hi));

	mov	r8, rdx

; 467  :     return (_addcarry_u64(carry, u, v, w));

	adc	r8, 0
	add	rax, rcx
; File z:\sources\lunor\repos\rougemeilland\palmtree.math.core.implements\palmtree.math.core.implements\pmc_multiply.c

; 49   :     *wp = t_lo;

	mov	QWORD PTR [r9+24], rax
; File z:\sources\lunor\repos\rougemeilland\palmtree.math.core.implements\palmtree.math.core.implements\pmc_internal.h

; 467  :     return (_addcarry_u64(carry, u, v, w));

	adc	r8, 0
	mov	QWORD PTR t_lo$102[rbp-256], rax
	mov	QWORD PTR t_hi$103[rbp-256], r8

; 559  :     return (_umul128(u, v, w_hi));

	mov	rax, rbx
	mul	QWORD PTR [r11+32]

; 467  :     return (_addcarry_u64(carry, u, v, w));

	add	rax, QWORD PTR [r9+32]

; 559  :     return (_umul128(u, v, w_hi));

	mov	rcx, rdx

; 467  :     return (_addcarry_u64(carry, u, v, w));

	adc	rcx, 0
	add	rax, r8
; File z:\sources\lunor\repos\rougemeilland\palmtree.math.core.implements\palmtree.math.core.implements\pmc_multiply.c

; 49   :     *wp = t_lo;

	mov	QWORD PTR [r9+32], rax
; File z:\sources\lunor\repos\rougemeilland\palmtree.math.core.implements\palmtree.math.core.implements\pmc_internal.h

; 467  :     return (_addcarry_u64(carry, u, v, w));

	adc	rcx, 0
	mov	QWORD PTR t_lo$104[rbp-256], rax
	mov	QWORD PTR t_hi$105[rbp-256], rcx

; 559  :     return (_umul128(u, v, w_hi));

	mov	rax, rbx
	mul	QWORD PTR [r11+40]

; 467  :     return (_addcarry_u64(carry, u, v, w));

	add	rax, QWORD PTR [r9+40]

; 559  :     return (_umul128(u, v, w_hi));

	mov	r8, rdx

; 467  :     return (_addcarry_u64(carry, u, v, w));

	adc	r8, 0
	add	rax, rcx
; File z:\sources\lunor\repos\rougemeilland\palmtree.math.core.implements\palmtree.math.core.implements\pmc_multiply.c

; 49   :     *wp = t_lo;

	mov	QWORD PTR [r9+40], rax
; File z:\sources\lunor\repos\rougemeilland\palmtree.math.core.implements\palmtree.math.core.implements\pmc_internal.h

; 467  :     return (_addcarry_u64(carry, u, v, w));

	adc	r8, 0
	mov	QWORD PTR t_lo$106[rbp-256], rax

; 559  :     return (_umul128(u, v, w_hi));

	mov	rax, rbx

; 467  :     return (_addcarry_u64(carry, u, v, w));

	mov	QWORD PTR t_hi$107[rbp-256], r8

; 559  :     return (_umul128(u, v, w_hi));

	mul	QWORD PTR [r11+48]

; 467  :     return (_addcarry_u64(carry, u, v, w));

	add	rax, QWORD PTR [r9+48]

; 559  :     return (_umul128(u, v, w_hi));

	mov	rcx, rdx

; 467  :     return (_addcarry_u64(carry, u, v, w));

	adc	rcx, 0
	add	rax, r8
; File z:\sources\lunor\repos\rougemeilland\palmtree.math.core.implements\palmtree.math.core.implements\pmc_multiply.c

; 49   :     *wp = t_lo;

	mov	QWORD PTR [r9+48], rax
; File z:\sources\lunor\repos\rougemeilland\palmtree.math.core.implements\palmtree.math.core.implements\pmc_internal.h

; 467  :     return (_addcarry_u64(carry, u, v, w));

	adc	rcx, 0
	mov	QWORD PTR t_lo$108[rbp-256], rax

; 559  :     return (_umul128(u, v, w_hi));

	mov	rax, rbx

; 467  :     return (_addcarry_u64(carry, u, v, w));

	mov	QWORD PTR t_hi$109[rbp-256], rcx

; 559  :     return (_umul128(u, v, w_hi));

	mul	QWORD PTR [r11+56]

; 467  :     return (_addcarry_u64(carry, u, v, w));

	add	rax, QWORD PTR [r9+56]

; 559  :     return (_umul128(u, v, w_hi));

	mov	r10, rdx

; 467  :     return (_addcarry_u64(carry, u, v, w));

	adc	r10, 0
	add	rax, rcx
	mov	QWORD PTR t_lo$110[rbp-256], rax
	adc	r10, 0
; File z:\sources\lunor\repos\rougemeilland\palmtree.math.core.implements\palmtree.math.core.implements\pmc_multiply.c

; 49   :     *wp = t_lo;

	mov	QWORD PTR [r9+56], rax
; File z:\sources\lunor\repos\rougemeilland\palmtree.math.core.implements\palmtree.math.core.implements\pmc_internal.h

; 467  :     return (_addcarry_u64(carry, u, v, w));

	mov	QWORD PTR t_hi$111[rbp-256], r10
; File z:\sources\lunor\repos\rougemeilland\palmtree.math.core.implements\palmtree.math.core.implements\pmc_multiply.c

; 154  :         up += 8;

	add	r11, 64					; 00000040H

; 155  :         wp += 8;

	add	r9, 64					; 00000040H
; File z:\sources\lunor\repos\rougemeilland\palmtree.math.core.implements\palmtree.math.core.implements\pmc_internal.h

; 1030 :     _InterlockedExchangeAdd(&statistics_info.COUNT_MULTI64, value);

	mov	eax, 8
	lock xadd DWORD PTR statistics_info, eax
$LN705@Multiply_W:
; File z:\sources\lunor\repos\rougemeilland\palmtree.math.core.implements\palmtree.math.core.implements\pmc_multiply.c

; 164  :     if (u_count & 0x4)

	test	dil, 4
	je	$LN757@Multiply_W
; File z:\sources\lunor\repos\rougemeilland\palmtree.math.core.implements\palmtree.math.core.implements\pmc_internal.h

; 559  :     return (_umul128(u, v, w_hi));

	mov	rax, rbx
	mul	QWORD PTR [r11]

; 467  :     return (_addcarry_u64(carry, u, v, w));

	add	rax, QWORD PTR [r9]

; 559  :     return (_umul128(u, v, w_hi));

	mov	rcx, rdx

; 467  :     return (_addcarry_u64(carry, u, v, w));

	adc	rcx, 0
	add	rax, r10
; File z:\sources\lunor\repos\rougemeilland\palmtree.math.core.implements\palmtree.math.core.implements\pmc_multiply.c

; 49   :     *wp = t_lo;

	mov	QWORD PTR [r9], rax
; File z:\sources\lunor\repos\rougemeilland\palmtree.math.core.implements\palmtree.math.core.implements\pmc_internal.h

; 467  :     return (_addcarry_u64(carry, u, v, w));

	adc	rcx, 0
	mov	QWORD PTR t_lo$112[rbp-256], rax
	mov	QWORD PTR t_hi$113[rbp-256], rcx

; 559  :     return (_umul128(u, v, w_hi));

	mov	rax, rbx
	mul	QWORD PTR [r11+8]

; 467  :     return (_addcarry_u64(carry, u, v, w));

	add	rax, QWORD PTR [r9+8]

; 559  :     return (_umul128(u, v, w_hi));

	mov	r8, rdx

; 467  :     return (_addcarry_u64(carry, u, v, w));

	adc	r8, 0
	add	rax, rcx
; File z:\sources\lunor\repos\rougemeilland\palmtree.math.core.implements\palmtree.math.core.implements\pmc_multiply.c

; 49   :     *wp = t_lo;

	mov	QWORD PTR [r9+8], rax
; File z:\sources\lunor\repos\rougemeilland\palmtree.math.core.implements\palmtree.math.core.implements\pmc_internal.h

; 467  :     return (_addcarry_u64(carry, u, v, w));

	adc	r8, 0
	mov	QWORD PTR t_lo$114[rbp-256], rax

; 559  :     return (_umul128(u, v, w_hi));

	mov	rax, rbx

; 467  :     return (_addcarry_u64(carry, u, v, w));

	mov	QWORD PTR t_hi$115[rbp-256], r8

; 559  :     return (_umul128(u, v, w_hi));

	mul	QWORD PTR [r11+16]

; 467  :     return (_addcarry_u64(carry, u, v, w));

	add	rax, QWORD PTR [r9+16]

; 559  :     return (_umul128(u, v, w_hi));

	mov	rcx, rdx

; 467  :     return (_addcarry_u64(carry, u, v, w));

	adc	rcx, 0
	add	rax, r8
; File z:\sources\lunor\repos\rougemeilland\palmtree.math.core.implements\palmtree.math.core.implements\pmc_multiply.c

; 49   :     *wp = t_lo;

	mov	QWORD PTR [r9+16], rax
; File z:\sources\lunor\repos\rougemeilland\palmtree.math.core.implements\palmtree.math.core.implements\pmc_internal.h

; 467  :     return (_addcarry_u64(carry, u, v, w));

	adc	rcx, 0
	mov	QWORD PTR t_lo$116[rbp-256], rax

; 559  :     return (_umul128(u, v, w_hi));

	mov	rax, rbx

; 467  :     return (_addcarry_u64(carry, u, v, w));

	mov	QWORD PTR t_hi$117[rbp-256], rcx

; 559  :     return (_umul128(u, v, w_hi));

	mul	QWORD PTR [r11+24]

; 467  :     return (_addcarry_u64(carry, u, v, w));

	add	rax, QWORD PTR [r9+24]

; 559  :     return (_umul128(u, v, w_hi));

	mov	r10, rdx

; 467  :     return (_addcarry_u64(carry, u, v, w));

	adc	r10, 0
	add	rax, rcx
; File z:\sources\lunor\repos\rougemeilland\palmtree.math.core.implements\palmtree.math.core.implements\pmc_multiply.c

; 49   :     *wp = t_lo;

	mov	QWORD PTR [r9+24], rax
; File z:\sources\lunor\repos\rougemeilland\palmtree.math.core.implements\palmtree.math.core.implements\pmc_internal.h

; 467  :     return (_addcarry_u64(carry, u, v, w));

	adc	r10, 0
	mov	QWORD PTR t_lo$118[rbp-256], rax
; File z:\sources\lunor\repos\rougemeilland\palmtree.math.core.implements\palmtree.math.core.implements\pmc_multiply.c

; 170  :         up += 4;

	add	r11, 32					; 00000020H
; File z:\sources\lunor\repos\rougemeilland\palmtree.math.core.implements\palmtree.math.core.implements\pmc_internal.h

; 467  :     return (_addcarry_u64(carry, u, v, w));

	mov	QWORD PTR t_hi$119[rbp-256], r10
; File z:\sources\lunor\repos\rougemeilland\palmtree.math.core.implements\palmtree.math.core.implements\pmc_multiply.c

; 171  :         wp += 4;

	add	r9, 32					; 00000020H
; File z:\sources\lunor\repos\rougemeilland\palmtree.math.core.implements\palmtree.math.core.implements\pmc_internal.h

; 1030 :     _InterlockedExchangeAdd(&statistics_info.COUNT_MULTI64, value);

	mov	eax, 4
	lock xadd DWORD PTR statistics_info, eax
$LN757@Multiply_W:
; File z:\sources\lunor\repos\rougemeilland\palmtree.math.core.implements\palmtree.math.core.implements\pmc_multiply.c

; 180  :     if (u_count & 0x2)

	test	dil, 2
	je	SHORT $LN785@Multiply_W
; File z:\sources\lunor\repos\rougemeilland\palmtree.math.core.implements\palmtree.math.core.implements\pmc_internal.h

; 559  :     return (_umul128(u, v, w_hi));

	mov	rax, rbx
	mul	QWORD PTR [r11]

; 467  :     return (_addcarry_u64(carry, u, v, w));

	add	rax, QWORD PTR [r9]

; 559  :     return (_umul128(u, v, w_hi));

	mov	rcx, rdx

; 467  :     return (_addcarry_u64(carry, u, v, w));

	adc	rcx, 0
	add	rax, r10
; File z:\sources\lunor\repos\rougemeilland\palmtree.math.core.implements\palmtree.math.core.implements\pmc_multiply.c

; 49   :     *wp = t_lo;

	mov	QWORD PTR [r9], rax
; File z:\sources\lunor\repos\rougemeilland\palmtree.math.core.implements\palmtree.math.core.implements\pmc_internal.h

; 467  :     return (_addcarry_u64(carry, u, v, w));

	adc	rcx, 0
	mov	QWORD PTR t_lo$120[rbp-256], rax

; 559  :     return (_umul128(u, v, w_hi));

	mov	rax, rbx

; 467  :     return (_addcarry_u64(carry, u, v, w));

	mov	QWORD PTR t_hi$121[rbp-256], rcx

; 559  :     return (_umul128(u, v, w_hi));

	mul	QWORD PTR [r11+8]

; 467  :     return (_addcarry_u64(carry, u, v, w));

	add	rax, QWORD PTR [r9+8]

; 559  :     return (_umul128(u, v, w_hi));

	mov	r10, rdx

; 467  :     return (_addcarry_u64(carry, u, v, w));

	adc	r10, 0
	add	rax, rcx
; File z:\sources\lunor\repos\rougemeilland\palmtree.math.core.implements\palmtree.math.core.implements\pmc_multiply.c

; 49   :     *wp = t_lo;

	mov	QWORD PTR [r9+8], rax
; File z:\sources\lunor\repos\rougemeilland\palmtree.math.core.implements\palmtree.math.core.implements\pmc_internal.h

; 467  :     return (_addcarry_u64(carry, u, v, w));

	adc	r10, 0
	mov	QWORD PTR t_lo$122[rbp-256], rax
; File z:\sources\lunor\repos\rougemeilland\palmtree.math.core.implements\palmtree.math.core.implements\pmc_multiply.c

; 184  :         up += 2;

	add	r11, 16
; File z:\sources\lunor\repos\rougemeilland\palmtree.math.core.implements\palmtree.math.core.implements\pmc_internal.h

; 467  :     return (_addcarry_u64(carry, u, v, w));

	mov	QWORD PTR t_hi$123[rbp-256], r10
; File z:\sources\lunor\repos\rougemeilland\palmtree.math.core.implements\palmtree.math.core.implements\pmc_multiply.c

; 185  :         wp += 2;

	add	r9, 16
; File z:\sources\lunor\repos\rougemeilland\palmtree.math.core.implements\palmtree.math.core.implements\pmc_internal.h

; 1030 :     _InterlockedExchangeAdd(&statistics_info.COUNT_MULTI64, value);

	mov	eax, 2
	lock xadd DWORD PTR statistics_info, eax
$LN785@Multiply_W:
; File z:\sources\lunor\repos\rougemeilland\palmtree.math.core.implements\palmtree.math.core.implements\pmc_multiply.c

; 194  :     if (u_count & 0x1)

	test	dil, 1
	je	SHORT $LN801@Multiply_W
; File z:\sources\lunor\repos\rougemeilland\palmtree.math.core.implements\palmtree.math.core.implements\pmc_internal.h

; 559  :     return (_umul128(u, v, w_hi));

	mov	rax, rbx
	mul	QWORD PTR [r11]

; 467  :     return (_addcarry_u64(carry, u, v, w));

	add	rax, QWORD PTR [r9]
	adc	rdx, 0
	add	rax, r10
	mov	r10, rdx
; File z:\sources\lunor\repos\rougemeilland\palmtree.math.core.implements\palmtree.math.core.implements\pmc_multiply.c

; 49   :     *wp = t_lo;

	mov	QWORD PTR [r9], rax
; File z:\sources\lunor\repos\rougemeilland\palmtree.math.core.implements\palmtree.math.core.implements\pmc_internal.h

; 467  :     return (_addcarry_u64(carry, u, v, w));

	adc	r10, 0
	mov	QWORD PTR t_lo$124[rbp-256], rax
	mov	QWORD PTR t_hi$125[rbp-256], r10
; File z:\sources\lunor\repos\rougemeilland\palmtree.math.core.implements\palmtree.math.core.implements\pmc_multiply.c

; 198  :         wp += 1;

	add	r9, 8
; File z:\sources\lunor\repos\rougemeilland\palmtree.math.core.implements\palmtree.math.core.implements\pmc_internal.h

; 1007 :     _InterlockedIncrement(&statistics_info.COUNT_MULTI64);

	lock inc DWORD PTR statistics_info
$LN801@Multiply_W:
; File z:\sources\lunor\repos\rougemeilland\palmtree.math.core.implements\palmtree.math.core.implements\pmc_multiply.c

; 207  :     if (k != 0)

	xor	eax, eax
	test	r10, r10
	je	SHORT $LN21@Multiply_W

; 208  :         *wp = k;

	mov	QWORD PTR [r9], r10
$LN21@Multiply_W:

; 209  : 
; 210  :     return (PMC_STATUS_OK);
; 211  : }

	lea	r11, QWORD PTR [rsp+1008]
	mov	rbx, QWORD PTR [r11+16]
	mov	rsi, QWORD PTR [r11+32]
	mov	rdi, QWORD PTR [r11+40]
	mov	rsp, r11
	pop	rbp
	ret	0
Multiply_WORD_using_MUL_ADC ENDP
_TEXT	ENDS
; Function compile flags: /Ogtpy
; File z:\sources\lunor\repos\rougemeilland\palmtree.math.core.implements\palmtree.math.core.implements\pmc_multiply.c
; File z:\sources\lunor\repos\rougemeilland\palmtree.math.core.implements\palmtree.math.core.implements\pmc_internal.h
; File z:\sources\lunor\repos\rougemeilland\palmtree.math.core.implements\palmtree.math.core.implements\pmc_multiply.c
; File z:\sources\lunor\repos\rougemeilland\palmtree.math.core.implements\palmtree.math.core.implements\pmc_internal.h
; File z:\sources\lunor\repos\rougemeilland\palmtree.math.core.implements\palmtree.math.core.implements\pmc_multiply.c
;	COMDAT _MULTIPLYX_DIGIT_UNIT
_TEXT	SEGMENT
k$ = 8
up$ = 16
v$ = 24
wp$ = 32
_MULTIPLYX_DIGIT_UNIT PROC				; COMDAT

; 56   :     __UNIT_TYPE t_hi;
; 57   :     __UNIT_TYPE t_lo;
; 58   :     t_lo = _MULTIPLYX_UNIT(*up, v, &t_hi);

	mov	rax, QWORD PTR [rdx]
; File z:\sources\lunor\repos\rougemeilland\palmtree.math.core.implements\palmtree.math.core.implements\pmc_internal.h

; 590  :     return (_mulx_u64(u, v, w_hi));

	mov	rdx, r8
	mulx	rax, r8, rax

; 495  :     return (_addcarryx_u64(carry, u, v, w));

	add	r8, QWORD PTR [r9]
	mov	edx, 0
	adcx	rax, rdx
	add	r8, rcx
; File z:\sources\lunor\repos\rougemeilland\palmtree.math.core.implements\palmtree.math.core.implements\pmc_multiply.c

; 61   :     *wp = t_lo;

	mov	QWORD PTR [r9], r8
; File z:\sources\lunor\repos\rougemeilland\palmtree.math.core.implements\palmtree.math.core.implements\pmc_internal.h

; 495  :     return (_addcarryx_u64(carry, u, v, w));

	adcx	rax, rdx
; File z:\sources\lunor\repos\rougemeilland\palmtree.math.core.implements\palmtree.math.core.implements\pmc_multiply.c

; 64   : }

	ret	0
_MULTIPLYX_DIGIT_UNIT ENDP
_TEXT	ENDS
; Function compile flags: /Ogtpy
; File z:\sources\lunor\repos\rougemeilland\palmtree.math.core.implements\palmtree.math.core.implements\pmc_multiply.c
; File z:\sources\lunor\repos\rougemeilland\palmtree.math.core.implements\palmtree.math.core.implements\pmc_internal.h
; File z:\sources\lunor\repos\rougemeilland\palmtree.math.core.implements\palmtree.math.core.implements\pmc_multiply.c
; File z:\sources\lunor\repos\rougemeilland\palmtree.math.core.implements\palmtree.math.core.implements\pmc_internal.h
; File z:\sources\lunor\repos\rougemeilland\palmtree.math.core.implements\palmtree.math.core.implements\pmc_multiply.c
;	COMDAT _MULTIPLY_DIGIT_UNIT
_TEXT	SEGMENT
k$ = 8
up$ = 16
v$ = 24
wp$ = 32
_MULTIPLY_DIGIT_UNIT PROC				; COMDAT
; File z:\sources\lunor\repos\rougemeilland\palmtree.math.core.implements\palmtree.math.core.implements\pmc_internal.h

; 559  :     return (_umul128(u, v, w_hi));

	mov	rax, r8
	mul	QWORD PTR [rdx]

; 467  :     return (_addcarry_u64(carry, u, v, w));

	add	rax, QWORD PTR [r9]
	adc	rdx, 0
	add	rax, rcx
; File z:\sources\lunor\repos\rougemeilland\palmtree.math.core.implements\palmtree.math.core.implements\pmc_multiply.c

; 49   :     *wp = t_lo;

	mov	QWORD PTR [r9], rax
; File z:\sources\lunor\repos\rougemeilland\palmtree.math.core.implements\palmtree.math.core.implements\pmc_internal.h

; 467  :     return (_addcarry_u64(carry, u, v, w));

	adc	rdx, 0
; File z:\sources\lunor\repos\rougemeilland\palmtree.math.core.implements\palmtree.math.core.implements\pmc_multiply.c

; 51   :     return (k);

	mov	rax, rdx

; 52   : }

	ret	0
_MULTIPLY_DIGIT_UNIT ENDP
_TEXT	ENDS
; Function compile flags: /Ogtpy
; File z:\sources\lunor\repos\rougemeilland\palmtree.math.core.implements\palmtree.math.core.implements\pmc_internal.h
;	COMDAT AddToMULTI64Counter
_TEXT	SEGMENT
value$ = 8
AddToMULTI64Counter PROC				; COMDAT

; 1030 :     _InterlockedExchangeAdd(&statistics_info.COUNT_MULTI64, value);

	lock xadd DWORD PTR statistics_info, ecx

; 1031 : }

	ret	0
AddToMULTI64Counter ENDP
_TEXT	ENDS
; Function compile flags: /Ogtpy
; File z:\sources\lunor\repos\rougemeilland\palmtree.math.core.implements\palmtree.math.core.implements\pmc_internal.h
;	COMDAT AddToMULTI32Counter
_TEXT	SEGMENT
value$ = 8
AddToMULTI32Counter PROC				; COMDAT

; 1024 :     _InterlockedExchangeAdd(&statistics_info.COUNT_MULTI32, value);

	lock xadd DWORD PTR statistics_info+4, ecx

; 1025 : }

	ret	0
AddToMULTI32Counter ENDP
_TEXT	ENDS
; Function compile flags: /Ogtpy
; File z:\sources\lunor\repos\rougemeilland\palmtree.math.core.implements\palmtree.math.core.implements\pmc_internal.h
;	COMDAT IncrementMULTI64Counter
_TEXT	SEGMENT
IncrementMULTI64Counter PROC				; COMDAT

; 1007 :     _InterlockedIncrement(&statistics_info.COUNT_MULTI64);

	lock inc DWORD PTR statistics_info

; 1008 : }

	ret	0
IncrementMULTI64Counter ENDP
_TEXT	ENDS
; Function compile flags: /Ogtpy
; File z:\sources\lunor\repos\rougemeilland\palmtree.math.core.implements\palmtree.math.core.implements\pmc_internal.h
;	COMDAT IncrementMULTI32Counter
_TEXT	SEGMENT
IncrementMULTI32Counter PROC				; COMDAT

; 1001 :     _InterlockedIncrement(&statistics_info.COUNT_MULTI32);

	lock inc DWORD PTR statistics_info+4

; 1002 : }

	ret	0
IncrementMULTI32Counter ENDP
_TEXT	ENDS
; Function compile flags: /Ogtpy
; File z:\sources\lunor\repos\rougemeilland\palmtree.math.core.implements\palmtree.math.core.implements\pmc_internal.h
;	COMDAT _LZCNT_ALT_UNIT
_TEXT	SEGMENT
x$ = 8
_LZCNT_ALT_UNIT PROC					; COMDAT

; 880  :     if (x == 0)

	test	rcx, rcx
	jne	SHORT $LN2@LZCNT_ALT_

; 881  :         return (sizeof(x) * 8);

	mov	eax, 64					; 00000040H

; 905  : }

	ret	0
$LN2@LZCNT_ALT_:

; 882  : #ifdef _M_IX86
; 883  :     _UINT32_T pos;
; 884  : #ifdef _MSC_VER
; 885  :     _BitScanReverse(&pos, x);
; 886  : #elif defined(__GNUC__)
; 887  :     __asm__("bsrl %1, %0" : "=r"(pos) : "rm"(x));
; 888  : #else
; 889  : #error unknown compiler
; 890  : #endif
; 891  : #elif defined(_M_X64)
; 892  : #ifdef _MSC_VER
; 893  :     _UINT32_T pos;
; 894  :     _BitScanReverse64(&pos, x);

	bsr	rcx, rcx

; 895  : #elif defined(__GNUC__)
; 896  :     _UINT64_T pos;
; 897  :     __asm__("bsrq %1, %0" : "=r"(pos) : "rm"(x));
; 898  : #else
; 899  : #error unknown compiler
; 900  : #endif
; 901  : #else
; 902  : #error unknown platform
; 903  : #endif
; 904  :     return (sizeof(x) * 8 - 1 - pos);

	mov	eax, 63					; 0000003fH
	sub	rax, rcx

; 905  : }

	ret	0
_LZCNT_ALT_UNIT ENDP
_TEXT	ENDS
; Function compile flags: /Ogtpy
; File z:\sources\lunor\repos\rougemeilland\palmtree.math.core.implements\palmtree.math.core.implements\pmc_internal.h
;	COMDAT _LZCNT_ALT_32
_TEXT	SEGMENT
x$ = 8
_LZCNT_ALT_32 PROC					; COMDAT

; 847  :     if (x == 0)

	test	ecx, ecx
	jne	SHORT $LN2@LZCNT_ALT_

; 848  :         return (sizeof(x) * 8);

	mov	eax, 32					; 00000020H

; 858  : }

	ret	0
$LN2@LZCNT_ALT_:

; 849  :     _UINT32_T pos;
; 850  : #ifdef _MSC_VER
; 851  :     _BitScanReverse(&pos, x);

	bsr	ecx, ecx

; 852  : #elif defined(__GNUC__)
; 853  :     __asm__( "bsrl %1, %0" : "=r"(pos) : "rm"(x) );
; 854  : #else
; 855  : #error unknown compiler
; 856  : #endif
; 857  :     return (sizeof(x) * 8 - 1 - pos);

	mov	eax, 31
	sub	eax, ecx

; 858  : }

	ret	0
_LZCNT_ALT_32 ENDP
_TEXT	ENDS
; Function compile flags: /Ogtpy
; File z:\sources\lunor\repos\rougemeilland\palmtree.math.core.implements\palmtree.math.core.implements\pmc_internal.h
;	COMDAT _MULTIPLYX_UNIT
_TEXT	SEGMENT
u$ = 8
v$ = 16
w_hi$ = 24
_MULTIPLYX_UNIT PROC					; COMDAT

; 586  : #ifdef _MSC_VER
; 587  : #ifdef _M_IX86
; 588  :     return (_FROMDWORDTOWORD((_UINT64_T)u * v, w_hi));
; 589  : #elif defined(_M_X64)
; 590  :     return (_mulx_u64(u, v, w_hi));

	mulx	rcx, rax, rcx
	mov	QWORD PTR [r8], rcx

; 591  : #else
; 592  : #error unknown platform
; 593  : #endif
; 594  : #elif defined(__GNUC__)
; 595  : #ifdef _M_IX86
; 596  :     _UINT32_T w_lo;
; 597  :     __asm__("mulxl %3, %0, %1" : "=r"(w_lo), "=r"(*w_hi), "+d"(u) : "rm"(v));
; 598  :     return (w_lo);
; 599  : #elif defined(_M_X64)
; 600  :     _UINT64_T w_lo;
; 601  :     __asm__("mulxq %3, %0, %1" : "=r"(w_lo), "=r"(*w_hi), "+d"(u) : "rm"(v));
; 602  :     return (w_lo);
; 603  : #else
; 604  : #error unknown platform
; 605  : #endif
; 606  : #else
; 607  : #error unknown compiler
; 608  : #endif
; 609  : }

	ret	0
_MULTIPLYX_UNIT ENDP
_TEXT	ENDS
; Function compile flags: /Ogtpy
; File z:\sources\lunor\repos\rougemeilland\palmtree.math.core.implements\palmtree.math.core.implements\pmc_internal.h
;	COMDAT _MULTIPLY_UNIT
_TEXT	SEGMENT
u$ = 8
v$ = 16
w_hi$ = 24
_MULTIPLY_UNIT PROC					; COMDAT

; 548  : #ifdef _M_IX86
; 549  : #ifdef _MSC_VER
; 550  :     return (_FROMDWORDTOWORD((_UINT64_T)u * v, w_hi));
; 551  : #elif defined(__GNUC__)
; 552  :     _UINT32_T w_lo;
; 553  :     __asm__("mull %3": "=a"(w_lo), "=d"(*w_hi) : "0"(u), "rm"(v));
; 554  :     return (w_lo);
; 555  : #else
; 556  : #error unknown compiler
; 557  : #endif
; 558  : #elif defined(_M_X64)
; 559  :     return (_umul128(u, v, w_hi));

	mov	rax, rdx
	mul	rcx
	mov	QWORD PTR [r8], rdx

; 560  : #else
; 561  : #error unknown platform
; 562  : #endif
; 563  : }

	ret	0
_MULTIPLY_UNIT ENDP
_TEXT	ENDS
; Function compile flags: /Ogtpy
; File z:\sources\lunor\repos\rougemeilland\palmtree.math.core.implements\palmtree.math.core.implements\pmc_internal.h
;	COMDAT _ADDX_UNIT
_TEXT	SEGMENT
carry$ = 8
u$ = 16
v$ = 24
w$ = 32
_ADDX_UNIT PROC						; COMDAT

; 492  : #ifdef _M_IX86
; 493  :     return (_addcarryx_u32(carry, u, v, w));
; 494  : #elif defined(_M_X64)
; 495  :     return (_addcarryx_u64(carry, u, v, w));

	add	cl, -1
	adcx	rdx, r8
	mov	QWORD PTR [r9], rdx
	setb	al

; 496  : #else
; 497  : #error unknown platform
; 498  : #endif
; 499  : }

	ret	0
_ADDX_UNIT ENDP
_TEXT	ENDS
; Function compile flags: /Ogtpy
; File z:\sources\lunor\repos\rougemeilland\palmtree.math.core.implements\palmtree.math.core.implements\pmc_internal.h
;	COMDAT _ADD_UNIT
_TEXT	SEGMENT
carry$ = 8
u$ = 16
v$ = 24
w$ = 32
_ADD_UNIT PROC						; COMDAT

; 464  : #ifdef _M_IX86
; 465  :     return (_addcarry_u32(carry, u, v, w));
; 466  : #elif defined(_M_X64)
; 467  :     return (_addcarry_u64(carry, u, v, w));

	add	cl, -1
	adc	rdx, r8
	mov	QWORD PTR [r9], rdx
	setb	al

; 468  : #else
; 469  : #error unknown platform
; 470  : #endif
; 471  : }

	ret	0
_ADD_UNIT ENDP
_TEXT	ENDS
; Function compile flags: /Ogtpy
; File z:\sources\lunor\repos\rougemeilland\palmtree.math.core.implements\palmtree.math.core.implements\pmc_internal.h
;	COMDAT _FROMDWORDTOWORD
_TEXT	SEGMENT
value$ = 8
result_high$ = 16
_FROMDWORDTOWORD PROC					; COMDAT

; 433  :     *result_high = (_UINT32_T)(value >> 32);

	mov	rax, rcx
	shr	rax, 32					; 00000020H
	mov	DWORD PTR [rdx], eax

; 434  :     return ((_UINT32_T)value);

	mov	eax, ecx

; 435  : }

	ret	0
_FROMDWORDTOWORD ENDP
_TEXT	ENDS
; Function compile flags: /Ogtpy
; File z:\sources\lunor\repos\rougemeilland\palmtree.math.core.implements\palmtree.math.core.implements\pmc_multiply.c
;	COMDAT PMC_Multiply_X_X
_TEXT	SEGMENT
nz$ = 48
x$ = 48
y$ = 56
o$ = 64
nz_light_check_code$1 = 72
PMC_Multiply_X_X PROC					; COMDAT

; 724  : {

$LN28:
	mov	QWORD PTR [rsp+16], rbx
	mov	QWORD PTR [rsp+24], rsi
	push	rdi
	sub	rsp, 32					; 00000020H
	mov	rbx, r8
	mov	rdi, rdx
	mov	rsi, rcx

; 725  :     if (x == NULL)

	test	rcx, rcx
	je	$LN23@PMC_Multip

; 726  :         return (PMC_STATUS_ARGUMENT_ERROR);
; 727  :     if (y == NULL)

	test	rdx, rdx
	je	$LN23@PMC_Multip

; 728  :         return (PMC_STATUS_ARGUMENT_ERROR);
; 729  :     if (o == NULL)

	test	rbx, rbx
	je	$LN23@PMC_Multip

; 731  :     NUMBER_HEADER* nx = (NUMBER_HEADER*)x;
; 732  :     NUMBER_HEADER* ny = (NUMBER_HEADER*)y;
; 733  :     PMC_STATUS_CODE result;
; 734  :     if ((result = CheckNumber(nx)) != PMC_STATUS_OK)

	call	CheckNumber
	test	eax, eax
	jne	$LN1@PMC_Multip

; 735  :         return (result);
; 736  :     if ((result = CheckNumber(ny)) != PMC_STATUS_OK)

	mov	rcx, rdi
	call	CheckNumber
	test	eax, eax
	jne	$LN1@PMC_Multip

; 737  :         return (result);
; 738  :     NUMBER_HEADER* nz;
; 739  :     if (nx->IS_ZERO)

	mov	ecx, DWORD PTR [rsi+32]
	test	cl, 2
	jne	SHORT $LN26@PMC_Multip

; 740  :     {
; 741  :         // x が 0 である場合
; 742  : 
; 743  :         // y の値にかかわらず 0 を返す。
; 744  :         *o = &number_zero;
; 745  :     }
; 746  :     else if (nx->IS_ONE)

	mov	edx, DWORD PTR [rdi+32]
	mov	eax, edx
	and	eax, 2
	test	cl, 4
	je	SHORT $LN9@PMC_Multip

; 747  :     {
; 748  :         // x が 1 である場合
; 749  :         if (ny->IS_ZERO)

	test	eax, eax
	jne	SHORT $LN26@PMC_Multip

; 750  :         {
; 751  :             // y が 0 である場合
; 752  : 
; 753  :             //  0  を返す。
; 754  :             *o = &number_zero;
; 755  :         }
; 756  :         else
; 757  :         {
; 758  :             // y が 0 ではない場合
; 759  : 
; 760  :             // 乗算結果は y に等しいため、y の値を持つ NUMBER_HEADER 構造体を獲得し、呼び出し元へ返す。
; 761  :             if ((result = DuplicateNumber(ny, &nz)) != PMC_STATUS_OK)

	lea	rdx, QWORD PTR nz$[rsp]
	mov	rcx, rdi
	call	DuplicateNumber
	test	eax, eax
	jne	$LN1@PMC_Multip

; 804  :         }
; 805  :         *o = nz;
; 806  :     }
; 807  : #ifdef _DEBUG
; 808  :     if ((result = CheckNumber(*o)) != PMC_STATUS_OK)
; 809  :         return (result);
; 810  : #endif
; 811  :     return (PMC_STATUS_OK);

	mov	rax, QWORD PTR nz$[rsp]
	mov	QWORD PTR [rbx], rax
	xor	eax, eax

; 812  : }

	mov	rbx, QWORD PTR [rsp+56]
	mov	rsi, QWORD PTR [rsp+64]
	add	rsp, 32					; 00000020H
	pop	rdi
	ret	0
$LN9@PMC_Multip:

; 762  :                 return (result);
; 763  :             *o = nz;
; 764  :         }
; 765  :     }
; 766  :     else
; 767  :     {
; 768  :         // x が 0 と 1 のどちらでもない場合
; 769  : 
; 770  :         if (ny->IS_ZERO)

	test	eax, eax
	je	SHORT $LN14@PMC_Multip
$LN26@PMC_Multip:

; 804  :         }
; 805  :         *o = nz;
; 806  :     }
; 807  : #ifdef _DEBUG
; 808  :     if ((result = CheckNumber(*o)) != PMC_STATUS_OK)
; 809  :         return (result);
; 810  : #endif
; 811  :     return (PMC_STATUS_OK);

	lea	rax, OFFSET FLAT:number_zero
	mov	QWORD PTR [rbx], rax
	xor	eax, eax

; 812  : }

	mov	rbx, QWORD PTR [rsp+56]
	mov	rsi, QWORD PTR [rsp+64]
	add	rsp, 32					; 00000020H
	pop	rdi
	ret	0
$LN14@PMC_Multip:

; 771  :         {
; 772  :             // y が 0 である場合
; 773  : 
; 774  :             //  0  を返す。
; 775  :             nz = &number_zero;
; 776  :         }
; 777  :         else if (ny->IS_ONE)

	test	dl, 4
	je	SHORT $LN16@PMC_Multip

; 778  :         {
; 779  :             // y が 1 である場合
; 780  : 
; 781  :             // 乗算結果は x に等しいため、x の値を持つ NUMBER_HEADER 構造体を獲得し、呼び出し元へ返す。
; 782  :             if ((result = DuplicateNumber(nx, &nz)) != PMC_STATUS_OK)

	lea	rdx, QWORD PTR nz$[rsp]
	mov	rcx, rsi
	call	DuplicateNumber
	test	eax, eax
	jne	$LN1@PMC_Multip

; 804  :         }
; 805  :         *o = nz;
; 806  :     }
; 807  : #ifdef _DEBUG
; 808  :     if ((result = CheckNumber(*o)) != PMC_STATUS_OK)
; 809  :         return (result);
; 810  : #endif
; 811  :     return (PMC_STATUS_OK);

	mov	rax, QWORD PTR nz$[rsp]
	mov	QWORD PTR [rbx], rax
	xor	eax, eax

; 812  : }

	mov	rbx, QWORD PTR [rsp+56]
	mov	rsi, QWORD PTR [rsp+64]
	add	rsp, 32					; 00000020H
	pop	rdi
	ret	0
$LN16@PMC_Multip:

; 783  :                 return (result);
; 784  :         }
; 785  :         else
; 786  :         {
; 787  :             // x と y がともに 0 、1 のどちらでもない場合
; 788  : 
; 789  :             // x と y の積を計算する
; 790  :             __UNIT_TYPE x_bit_count = nx->UNIT_BIT_COUNT;
; 791  :             __UNIT_TYPE y_bit_count = ny->UNIT_BIT_COUNT;
; 792  :             __UNIT_TYPE z_bit_count = x_bit_count + y_bit_count;

	mov	rdx, QWORD PTR [rsi+8]

; 793  :             __UNIT_TYPE nz_light_check_code;
; 794  :             if ((result = AllocateNumber(&nz, z_bit_count, &nz_light_check_code)) != PMC_STATUS_OK)

	lea	r8, QWORD PTR nz_light_check_code$1[rsp]
	add	rdx, QWORD PTR [rdi+8]
	lea	rcx, QWORD PTR nz$[rsp]
	call	AllocateNumber
	test	eax, eax
	jne	SHORT $LN1@PMC_Multip

; 795  :                 return (result);
; 796  :             if ((result = (*fp_Multiply_X_X)(nx, ny, nz)) != PMC_STATUS_OK)

	mov	r8, QWORD PTR nz$[rsp]
	mov	rdx, rdi
	mov	rcx, rsi
	call	QWORD PTR fp_Multiply_X_X
	mov	rcx, QWORD PTR nz$[rsp]
	mov	edi, eax
	test	eax, eax
	je	SHORT $LN20@PMC_Multip

; 797  :             {
; 798  :                 DeallocateNumber(nz);

	call	DeallocateNumber

; 799  :                 return (result);

	mov	eax, edi

; 812  : }

	mov	rbx, QWORD PTR [rsp+56]
	mov	rsi, QWORD PTR [rsp+64]
	add	rsp, 32					; 00000020H
	pop	rdi
	ret	0
$LN20@PMC_Multip:

; 800  :             }
; 801  :             if ((result = CheckBlockLight(nz->BLOCK, nz_light_check_code)) != PMC_STATUS_OK)

	mov	rdx, QWORD PTR nz_light_check_code$1[rsp]
	mov	rcx, QWORD PTR [rcx+48]
	call	CheckBlockLight
	test	eax, eax
	jne	SHORT $LN1@PMC_Multip

; 802  :                 return (result);
; 803  :             CommitNumber(nz);

	mov	rcx, QWORD PTR nz$[rsp]
	call	CommitNumber

; 804  :         }
; 805  :         *o = nz;
; 806  :     }
; 807  : #ifdef _DEBUG
; 808  :     if ((result = CheckNumber(*o)) != PMC_STATUS_OK)
; 809  :         return (result);
; 810  : #endif
; 811  :     return (PMC_STATUS_OK);

	mov	rax, QWORD PTR nz$[rsp]
	mov	QWORD PTR [rbx], rax
	xor	eax, eax

; 812  : }

	mov	rbx, QWORD PTR [rsp+56]
	mov	rsi, QWORD PTR [rsp+64]
	add	rsp, 32					; 00000020H
	pop	rdi
	ret	0
$LN23@PMC_Multip:

; 730  :         return (PMC_STATUS_ARGUMENT_ERROR);

	mov	eax, -1
$LN1@PMC_Multip:

; 812  : }

	mov	rbx, QWORD PTR [rsp+56]
	mov	rsi, QWORD PTR [rsp+64]
	add	rsp, 32					; 00000020H
	pop	rdi
	ret	0
PMC_Multiply_X_X ENDP
_TEXT	ENDS
; Function compile flags: /Ogtpy
; File z:\sources\lunor\repos\rougemeilland\palmtree.math.core.implements\palmtree.math.core.implements\pmc_multiply.c
;	COMDAT PMC_Multiply_X_L
_TEXT	SEGMENT
u$ = 48
v$ = 56
w$ = 64
PMC_Multiply_X_L PROC					; COMDAT

; 701  : {

$LN10:
	mov	QWORD PTR [rsp+8], rbx
	mov	QWORD PTR [rsp+16], rsi
	push	rdi
	sub	rsp, 32					; 00000020H
	mov	rdi, r8
	mov	rsi, rdx
	mov	rbx, rcx

; 702  :     if (__UNIT_TYPE_BIT_COUNT * 2 < sizeof(v) * 8)
; 703  :     {
; 704  :         // _UINT64_T が 2 ワードで表現しきれない処理系には対応しない
; 705  :         return (PMC_STATUS_INTERNAL_ERROR);
; 706  :     }
; 707  :     if (u == NULL)

	test	rcx, rcx
	je	SHORT $LN8@PMC_Multip

; 708  :         return (PMC_STATUS_ARGUMENT_ERROR);
; 709  :     if (w == NULL)

	test	r8, r8
	je	SHORT $LN8@PMC_Multip

; 711  :     PMC_STATUS_CODE result;
; 712  :     if ((result = CheckNumber((NUMBER_HEADER*)u)) != PMC_STATUS_OK)

	call	CheckNumber
	test	eax, eax
	jne	SHORT $LN6@PMC_Multip

; 713  :         return (result);
; 714  :     if ((result = PMC_Multiply_X_L_Imp((NUMBER_HEADER*)u, v, (NUMBER_HEADER**)w)) != PMC_STATUS_OK)

	mov	r8, rdi
	mov	rdx, rsi
	mov	rcx, rbx

; 715  :         return (result);
; 716  : #ifdef _DEBUG
; 717  :     if ((result = CheckNumber(*w)) != PMC_STATUS_OK)
; 718  :         return (result);
; 719  : #endif
; 720  :     return (PMC_STATUS_OK);
; 721  : }

	mov	rbx, QWORD PTR [rsp+48]
	mov	rsi, QWORD PTR [rsp+56]
	add	rsp, 32					; 00000020H
	pop	rdi

; 713  :         return (result);
; 714  :     if ((result = PMC_Multiply_X_L_Imp((NUMBER_HEADER*)u, v, (NUMBER_HEADER**)w)) != PMC_STATUS_OK)

	jmp	PMC_Multiply_X_L_Imp
$LN8@PMC_Multip:

; 710  :         return (PMC_STATUS_ARGUMENT_ERROR);

	mov	eax, -1
$LN6@PMC_Multip:

; 715  :         return (result);
; 716  : #ifdef _DEBUG
; 717  :     if ((result = CheckNumber(*w)) != PMC_STATUS_OK)
; 718  :         return (result);
; 719  : #endif
; 720  :     return (PMC_STATUS_OK);
; 721  : }

	mov	rbx, QWORD PTR [rsp+48]
	mov	rsi, QWORD PTR [rsp+56]
	add	rsp, 32					; 00000020H
	pop	rdi
	ret	0
PMC_Multiply_X_L ENDP
_TEXT	ENDS
; Function compile flags: /Ogtpy
; File z:\sources\lunor\repos\rougemeilland\palmtree.math.core.implements\palmtree.math.core.implements\pmc_multiply.c
;	COMDAT PMC_Multiply_X_I
_TEXT	SEGMENT
u$ = 48
v$ = 56
w$ = 64
PMC_Multiply_X_I PROC					; COMDAT

; 537  : {

$LN10:
	mov	QWORD PTR [rsp+8], rbx
	mov	QWORD PTR [rsp+16], rsi
	push	rdi
	sub	rsp, 32					; 00000020H
	mov	rdi, r8
	mov	esi, edx
	mov	rbx, rcx

; 538  :     if (__UNIT_TYPE_BIT_COUNT < sizeof(v) * 8)
; 539  :     {
; 540  :         // _UINT32_T が 1 ワードで表現しきれない処理系には対応しない
; 541  :         return (PMC_STATUS_INTERNAL_ERROR);
; 542  :     }
; 543  :     if (u == NULL)

	test	rcx, rcx
	je	SHORT $LN8@PMC_Multip

; 544  :         return (PMC_STATUS_ARGUMENT_ERROR);
; 545  :     if (w == NULL)

	test	r8, r8
	je	SHORT $LN8@PMC_Multip

; 547  :     PMC_STATUS_CODE result;
; 548  :     if ((result = CheckNumber((NUMBER_HEADER*)u)) != PMC_STATUS_OK)

	call	CheckNumber
	test	eax, eax
	jne	SHORT $LN6@PMC_Multip

; 549  :         return (result);
; 550  :     if ((result = PMC_Multiply_X_I_Imp((NUMBER_HEADER*)u, v, (NUMBER_HEADER**)w)) != PMC_STATUS_OK)

	mov	r8, rdi
	mov	edx, esi
	mov	rcx, rbx

; 551  :         return (result);
; 552  : #ifdef _DEBUG
; 553  :     if ((result = CheckNumber(*w)) != PMC_STATUS_OK)
; 554  :         return (result);
; 555  : #endif
; 556  :     return (PMC_STATUS_OK);
; 557  : }

	mov	rbx, QWORD PTR [rsp+48]
	mov	rsi, QWORD PTR [rsp+56]
	add	rsp, 32					; 00000020H
	pop	rdi

; 549  :         return (result);
; 550  :     if ((result = PMC_Multiply_X_I_Imp((NUMBER_HEADER*)u, v, (NUMBER_HEADER**)w)) != PMC_STATUS_OK)

	jmp	PMC_Multiply_X_I_Imp
$LN8@PMC_Multip:

; 546  :         return (PMC_STATUS_ARGUMENT_ERROR);

	mov	eax, -1
$LN6@PMC_Multip:

; 551  :         return (result);
; 552  : #ifdef _DEBUG
; 553  :     if ((result = CheckNumber(*w)) != PMC_STATUS_OK)
; 554  :         return (result);
; 555  : #endif
; 556  :     return (PMC_STATUS_OK);
; 557  : }

	mov	rbx, QWORD PTR [rsp+48]
	mov	rsi, QWORD PTR [rsp+56]
	add	rsp, 32					; 00000020H
	pop	rdi
	ret	0
PMC_Multiply_X_I ENDP
_TEXT	ENDS
; Function compile flags: /Ogtpy
; File z:\sources\lunor\repos\rougemeilland\palmtree.math.core.implements\palmtree.math.core.implements\pmc_multiply.c
;	COMDAT PMC_Multiply_L_X
_TEXT	SEGMENT
u$ = 48
v$ = 56
w$ = 64
PMC_Multiply_L_X PROC					; COMDAT

; 678  : {

$LN10:
	mov	QWORD PTR [rsp+8], rbx
	mov	QWORD PTR [rsp+16], rsi
	push	rdi
	sub	rsp, 32					; 00000020H
	mov	rdi, r8
	mov	rbx, rdx
	mov	rsi, rcx

; 679  :     if (__UNIT_TYPE_BIT_COUNT * 2 < sizeof(u) * 8)
; 680  :     {
; 681  :         // _UINT64_T が 2 ワードで表現しきれない処理系には対応しない
; 682  :         return (PMC_STATUS_INTERNAL_ERROR);
; 683  :     }
; 684  :     if (v == NULL)

	test	rdx, rdx
	je	SHORT $LN8@PMC_Multip

; 685  :         return (PMC_STATUS_ARGUMENT_ERROR);
; 686  :     if (w == NULL)

	test	r8, r8
	je	SHORT $LN8@PMC_Multip

; 688  :     PMC_STATUS_CODE result;
; 689  :     if ((result = CheckNumber((NUMBER_HEADER*)v)) != PMC_STATUS_OK)

	mov	rcx, rdx
	call	CheckNumber
	test	eax, eax
	jne	SHORT $LN6@PMC_Multip

; 690  :         return (result);
; 691  :     if ((result = PMC_Multiply_X_L_Imp((NUMBER_HEADER*)v, u, (NUMBER_HEADER**)w)) != PMC_STATUS_OK)

	mov	r8, rdi
	mov	rdx, rsi
	mov	rcx, rbx

; 692  :         return (result);
; 693  : #ifdef _DEBUG
; 694  :     if ((result = CheckNumber(*w)) != PMC_STATUS_OK)
; 695  :         return (result);
; 696  : #endif
; 697  :     return (PMC_STATUS_OK);
; 698  : }

	mov	rbx, QWORD PTR [rsp+48]
	mov	rsi, QWORD PTR [rsp+56]
	add	rsp, 32					; 00000020H
	pop	rdi

; 690  :         return (result);
; 691  :     if ((result = PMC_Multiply_X_L_Imp((NUMBER_HEADER*)v, u, (NUMBER_HEADER**)w)) != PMC_STATUS_OK)

	jmp	PMC_Multiply_X_L_Imp
$LN8@PMC_Multip:

; 687  :         return (PMC_STATUS_ARGUMENT_ERROR);

	mov	eax, -1
$LN6@PMC_Multip:

; 692  :         return (result);
; 693  : #ifdef _DEBUG
; 694  :     if ((result = CheckNumber(*w)) != PMC_STATUS_OK)
; 695  :         return (result);
; 696  : #endif
; 697  :     return (PMC_STATUS_OK);
; 698  : }

	mov	rbx, QWORD PTR [rsp+48]
	mov	rsi, QWORD PTR [rsp+56]
	add	rsp, 32					; 00000020H
	pop	rdi
	ret	0
PMC_Multiply_L_X ENDP
_TEXT	ENDS
; Function compile flags: /Ogtpy
; File z:\sources\lunor\repos\rougemeilland\palmtree.math.core.implements\palmtree.math.core.implements\pmc_multiply.c
;	COMDAT PMC_Multiply_I_X
_TEXT	SEGMENT
u$ = 48
v$ = 56
w$ = 64
PMC_Multiply_I_X PROC					; COMDAT

; 514  : {

$LN10:
	mov	QWORD PTR [rsp+8], rbx
	mov	QWORD PTR [rsp+16], rsi
	push	rdi
	sub	rsp, 32					; 00000020H
	mov	rdi, r8
	mov	rbx, rdx
	mov	esi, ecx

; 515  :     if (__UNIT_TYPE_BIT_COUNT < sizeof(u) * 8)
; 516  :     {
; 517  :         // _UINT32_T が 1 ワードで表現しきれない処理系には対応しない
; 518  :         return (PMC_STATUS_INTERNAL_ERROR);
; 519  :     }
; 520  :     if (v == NULL)

	test	rdx, rdx
	je	SHORT $LN8@PMC_Multip

; 521  :         return (PMC_STATUS_ARGUMENT_ERROR);
; 522  :     if (w == NULL)

	test	r8, r8
	je	SHORT $LN8@PMC_Multip

; 524  :     PMC_STATUS_CODE result;
; 525  :     if ((result = CheckNumber((NUMBER_HEADER*)v)) != PMC_STATUS_OK)

	mov	rcx, rdx
	call	CheckNumber
	test	eax, eax
	jne	SHORT $LN6@PMC_Multip

; 526  :         return (result);
; 527  :     if ((result = PMC_Multiply_X_I_Imp((NUMBER_HEADER*)v, u, (NUMBER_HEADER**)w)) != PMC_STATUS_OK)

	mov	r8, rdi
	mov	edx, esi
	mov	rcx, rbx

; 528  :         return (result);
; 529  : #ifdef _DEBUG
; 530  :     if ((result = CheckNumber(*w)) != PMC_STATUS_OK)
; 531  :         return (result);
; 532  : #endif
; 533  :     return (PMC_STATUS_OK);
; 534  : }

	mov	rbx, QWORD PTR [rsp+48]
	mov	rsi, QWORD PTR [rsp+56]
	add	rsp, 32					; 00000020H
	pop	rdi

; 526  :         return (result);
; 527  :     if ((result = PMC_Multiply_X_I_Imp((NUMBER_HEADER*)v, u, (NUMBER_HEADER**)w)) != PMC_STATUS_OK)

	jmp	PMC_Multiply_X_I_Imp
$LN8@PMC_Multip:

; 523  :         return (PMC_STATUS_ARGUMENT_ERROR);

	mov	eax, -1
$LN6@PMC_Multip:

; 528  :         return (result);
; 529  : #ifdef _DEBUG
; 530  :     if ((result = CheckNumber(*w)) != PMC_STATUS_OK)
; 531  :         return (result);
; 532  : #endif
; 533  :     return (PMC_STATUS_OK);
; 534  : }

	mov	rbx, QWORD PTR [rsp+48]
	mov	rsi, QWORD PTR [rsp+56]
	add	rsp, 32					; 00000020H
	pop	rdi
	ret	0
PMC_Multiply_I_X ENDP
_TEXT	ENDS
; Function compile flags: /Ogtpy
; File z:\sources\lunor\repos\rougemeilland\palmtree.math.core.implements\palmtree.math.core.implements\pmc_multiply.c
;	COMDAT Initialize_Multiply
_TEXT	SEGMENT
feature$ = 8
Initialize_Multiply PROC				; COMDAT

; 815  : {

	mov	edx, DWORD PTR [rcx]

; 816  :     if (feature->PROCESSOR_FEATURE_ADX && feature->PROCESSOR_FEATURE_BMI2)
; 817  :     {
; 818  :         fp_Multiply_X_1W = Multiply_X_1W_using_MULX_ADCX;
; 819  :         fp_Multiply_X_2W = Multiply_X_2W_using_MULX_ADCX;
; 820  :         fp_Multiply_X_X = Multiply_X_X_using_MULX_ADCX;
; 821  :     }
; 822  :     else
; 823  :     {
; 824  :         fp_Multiply_X_1W = Multiply_X_1W_using_MUL_ADC;
; 825  :         fp_Multiply_X_2W = Multiply_X_2W_using_MUL_ADC;
; 826  :         fp_Multiply_X_X = Multiply_X_X_using_MUL_ADC;
; 827  :     }
; 828  :     return (PMC_STATUS_OK);

	lea	rax, OFFSET FLAT:Multiply_X_1W_using_MULX_ADCX
	lea	rcx, OFFSET FLAT:Multiply_X_1W_using_MUL_ADC
	and	edx, 10
	cmp	edx, 10
	cmovne	rax, rcx
	lea	rcx, OFFSET FLAT:Multiply_X_2W_using_MUL_ADC
	mov	QWORD PTR fp_Multiply_X_1W, rax
	lea	rax, OFFSET FLAT:Multiply_X_2W_using_MULX_ADCX
	cmovne	rax, rcx
	lea	rcx, OFFSET FLAT:Multiply_X_X_using_MUL_ADC
	mov	QWORD PTR fp_Multiply_X_2W, rax
	lea	rax, OFFSET FLAT:Multiply_X_X_using_MULX_ADCX
	cmovne	rax, rcx
	mov	QWORD PTR fp_Multiply_X_X, rax
	xor	eax, eax

; 829  : }

	ret	0
Initialize_Multiply ENDP
_TEXT	ENDS
END
