; Listing generated by Microsoft (R) Optimizing Compiler Version 19.16.27026.1 

include listing.inc

INCLUDELIB MSVCRT
INCLUDELIB OLDNAMES

PUBLIC	Initialize_ExclusiveOr
PUBLIC	PMC_ExclusiveOr_I_X
PUBLIC	PMC_ExclusiveOr_L_X
PUBLIC	PMC_ExclusiveOr_X_I
PUBLIC	PMC_ExclusiveOr_X_L
PUBLIC	PMC_ExclusiveOr_X_X
EXTRN	CheckBlockLight:PROC
EXTRN	AllocateNumber:PROC
EXTRN	DeallocateNumber:PROC
EXTRN	CommitNumber:PROC
EXTRN	CheckNumber:PROC
EXTRN	DuplicateNumber:PROC
EXTRN	From_I_Imp:PROC
EXTRN	From_L_Imp:PROC
EXTRN	number_zero:BYTE
;	COMDAT pdata
pdata	SEGMENT
$pdata$PMC_ExclusiveOr_I_X DD imagerel $LN10
	DD	imagerel $LN10+94
	DD	imagerel $unwind$PMC_ExclusiveOr_I_X
pdata	ENDS
;	COMDAT pdata
pdata	SEGMENT
$pdata$PMC_ExclusiveOr_L_X DD imagerel $LN10
	DD	imagerel $LN10+96
	DD	imagerel $unwind$PMC_ExclusiveOr_L_X
pdata	ENDS
;	COMDAT pdata
pdata	SEGMENT
$pdata$PMC_ExclusiveOr_X_I DD imagerel $LN10
	DD	imagerel $LN10+91
	DD	imagerel $unwind$PMC_ExclusiveOr_X_I
pdata	ENDS
;	COMDAT pdata
pdata	SEGMENT
$pdata$PMC_ExclusiveOr_X_L DD imagerel $LN10
	DD	imagerel $LN10+93
	DD	imagerel $unwind$PMC_ExclusiveOr_X_L
pdata	ENDS
;	COMDAT pdata
pdata	SEGMENT
$pdata$PMC_ExclusiveOr_X_X DD imagerel $LN24
	DD	imagerel $LN24+69
	DD	imagerel $unwind$PMC_ExclusiveOr_X_X
pdata	ENDS
;	COMDAT pdata
pdata	SEGMENT
$pdata$0$PMC_ExclusiveOr_X_X DD imagerel $LN24+69
	DD	imagerel $LN24+98
	DD	imagerel $chain$0$PMC_ExclusiveOr_X_X
pdata	ENDS
;	COMDAT pdata
pdata	SEGMENT
$pdata$1$PMC_ExclusiveOr_X_X DD imagerel $LN24+98
	DD	imagerel $LN24+106
	DD	imagerel $chain$1$PMC_ExclusiveOr_X_X
pdata	ENDS
;	COMDAT pdata
pdata	SEGMENT
$pdata$2$PMC_ExclusiveOr_X_X DD imagerel $LN24+106
	DD	imagerel $LN24+152
	DD	imagerel $chain$2$PMC_ExclusiveOr_X_X
pdata	ENDS
;	COMDAT pdata
pdata	SEGMENT
$pdata$4$PMC_ExclusiveOr_X_X DD imagerel $LN24+152
	DD	imagerel $LN24+315
	DD	imagerel $chain$4$PMC_ExclusiveOr_X_X
pdata	ENDS
;	COMDAT pdata
pdata	SEGMENT
$pdata$5$PMC_ExclusiveOr_X_X DD imagerel $LN24+315
	DD	imagerel $LN24+328
	DD	imagerel $chain$5$PMC_ExclusiveOr_X_X
pdata	ENDS
;	COMDAT pdata
pdata	SEGMENT
$pdata$_COPY_MEMORY_UNIT DD imagerel _COPY_MEMORY_UNIT
	DD	imagerel _COPY_MEMORY_UNIT+33
	DD	imagerel $unwind$_COPY_MEMORY_UNIT
pdata	ENDS
;	COMDAT pdata
pdata	SEGMENT
$pdata$ExclusiveOr_X_1W DD imagerel ExclusiveOr_X_1W
	DD	imagerel ExclusiveOr_X_1W+20
	DD	imagerel $unwind$ExclusiveOr_X_1W
pdata	ENDS
;	COMDAT pdata
pdata	SEGMENT
$pdata$0$ExclusiveOr_X_1W DD imagerel ExclusiveOr_X_1W+20
	DD	imagerel ExclusiveOr_X_1W+45
	DD	imagerel $chain$0$ExclusiveOr_X_1W
pdata	ENDS
;	COMDAT pdata
pdata	SEGMENT
$pdata$1$ExclusiveOr_X_1W DD imagerel ExclusiveOr_X_1W+45
	DD	imagerel ExclusiveOr_X_1W+47
	DD	imagerel $chain$1$ExclusiveOr_X_1W
pdata	ENDS
;	COMDAT pdata
pdata	SEGMENT
$pdata$ExclusiveOr_X_2W DD imagerel ExclusiveOr_X_2W
	DD	imagerel ExclusiveOr_X_2W+91
	DD	imagerel $unwind$ExclusiveOr_X_2W
pdata	ENDS
;	COMDAT pdata
pdata	SEGMENT
$pdata$ExclusiveOr_X_X DD imagerel ExclusiveOr_X_X
	DD	imagerel ExclusiveOr_X_X+820
	DD	imagerel $unwind$ExclusiveOr_X_X
pdata	ENDS
;	COMDAT pdata
pdata	SEGMENT
$pdata$PMC_ExclusiveOr_X_I_Imp DD imagerel PMC_ExclusiveOr_X_I_Imp
	DD	imagerel PMC_ExclusiveOr_X_I_Imp+272
	DD	imagerel $unwind$PMC_ExclusiveOr_X_I_Imp
pdata	ENDS
;	COMDAT pdata
pdata	SEGMENT
$pdata$PMC_ExclusiveOr_X_L_Imp DD imagerel PMC_ExclusiveOr_X_L_Imp
	DD	imagerel PMC_ExclusiveOr_X_L_Imp+277
	DD	imagerel $unwind$PMC_ExclusiveOr_X_L_Imp
pdata	ENDS
;	COMDAT xdata
xdata	SEGMENT
$unwind$PMC_ExclusiveOr_X_L_Imp DD 081501H
	DD	097415H
	DD	086415H
	DD	073415H
	DD	0e0113215H
xdata	ENDS
;	COMDAT xdata
xdata	SEGMENT
$unwind$PMC_ExclusiveOr_X_I_Imp DD 081501H
	DD	097415H
	DD	086415H
	DD	073415H
	DD	0e0113215H
xdata	ENDS
;	COMDAT xdata
xdata	SEGMENT
$unwind$ExclusiveOr_X_X DD 081401H
	DD	047414H
	DD	03640fH
	DD	02540aH
	DD	013405H
xdata	ENDS
;	COMDAT xdata
xdata	SEGMENT
$unwind$ExclusiveOr_X_2W DD 040a01H
	DD	02740aH
	DD	016405H
xdata	ENDS
;	COMDAT xdata
xdata	SEGMENT
$chain$1$ExclusiveOr_X_1W DD 021H
	DD	imagerel ExclusiveOr_X_1W
	DD	imagerel ExclusiveOr_X_1W+20
	DD	imagerel $unwind$ExclusiveOr_X_1W
xdata	ENDS
;	COMDAT xdata
xdata	SEGMENT
$chain$0$ExclusiveOr_X_1W DD 020521H
	DD	027405H
	DD	imagerel ExclusiveOr_X_1W
	DD	imagerel ExclusiveOr_X_1W+20
	DD	imagerel $unwind$ExclusiveOr_X_1W
xdata	ENDS
;	COMDAT xdata
xdata	SEGMENT
$unwind$ExclusiveOr_X_1W DD 010201H
	DD	06002H
xdata	ENDS
;	COMDAT xdata
xdata	SEGMENT
$unwind$_COPY_MEMORY_UNIT DD 040a01H
	DD	02740aH
	DD	016405H
xdata	ENDS
;	COMDAT xdata
xdata	SEGMENT
$chain$5$PMC_ExclusiveOr_X_X DD 021H
	DD	imagerel $LN24
	DD	imagerel $LN24+69
	DD	imagerel $unwind$PMC_ExclusiveOr_X_X
xdata	ENDS
;	COMDAT xdata
xdata	SEGMENT
$chain$4$PMC_ExclusiveOr_X_X DD 020021H
	DD	0be400H
	DD	imagerel $LN24
	DD	imagerel $LN24+69
	DD	imagerel $unwind$PMC_ExclusiveOr_X_X
xdata	ENDS
;	COMDAT xdata
xdata	SEGMENT
$chain$2$PMC_ExclusiveOr_X_X DD 020021H
	DD	0be400H
	DD	imagerel $LN24
	DD	imagerel $LN24+69
	DD	imagerel $unwind$PMC_ExclusiveOr_X_X
xdata	ENDS
;	COMDAT xdata
xdata	SEGMENT
$chain$1$PMC_ExclusiveOr_X_X DD 021H
	DD	imagerel $LN24
	DD	imagerel $LN24+69
	DD	imagerel $unwind$PMC_ExclusiveOr_X_X
xdata	ENDS
;	COMDAT xdata
xdata	SEGMENT
$chain$0$PMC_ExclusiveOr_X_X DD 020521H
	DD	0be405H
	DD	imagerel $LN24
	DD	imagerel $LN24+69
	DD	imagerel $unwind$PMC_ExclusiveOr_X_X
xdata	ENDS
;	COMDAT xdata
xdata	SEGMENT
$unwind$PMC_ExclusiveOr_X_X DD 040801H
	DD	070045208H
	DD	030026003H
xdata	ENDS
;	COMDAT xdata
xdata	SEGMENT
$unwind$PMC_ExclusiveOr_X_L DD 060f01H
	DD	07640fH
	DD	06340fH
	DD	0700b320fH
xdata	ENDS
;	COMDAT xdata
xdata	SEGMENT
$unwind$PMC_ExclusiveOr_X_I DD 060f01H
	DD	07640fH
	DD	06340fH
	DD	0700b320fH
xdata	ENDS
;	COMDAT xdata
xdata	SEGMENT
$unwind$PMC_ExclusiveOr_L_X DD 060f01H
	DD	07640fH
	DD	06340fH
	DD	0700b320fH
xdata	ENDS
;	COMDAT xdata
xdata	SEGMENT
$unwind$PMC_ExclusiveOr_I_X DD 060f01H
	DD	07640fH
	DD	06340fH
	DD	0700b320fH
xdata	ENDS
; Function compile flags: /Ogtpy
; File z:\sources\lunor\repos\rougemeilland\palmtree.math.core.implements\palmtree.math.core.implements\pmc_exclusiveor.c
; File z:\sources\lunor\repos\rougemeilland\palmtree.math.core.implements\palmtree.math.core.implements\pmc_internal.h
; File z:\sources\lunor\repos\rougemeilland\palmtree.math.core.implements\palmtree.math.core.implements\pmc_exclusiveor.c
; File z:\sources\lunor\repos\rougemeilland\palmtree.math.core.implements\palmtree.math.core.implements\pmc_internal.h
; File z:\sources\lunor\repos\rougemeilland\palmtree.math.core.implements\palmtree.math.core.implements\pmc_exclusiveor.c
; File z:\sources\lunor\repos\rougemeilland\palmtree.math.core.implements\palmtree.math.core.implements\pmc_internal.h
; File z:\sources\lunor\repos\rougemeilland\palmtree.math.core.implements\palmtree.math.core.implements\pmc_exclusiveor.c
; File z:\sources\lunor\repos\rougemeilland\palmtree.math.core.implements\palmtree.math.core.implements\pmc_internal.h
; File z:\sources\lunor\repos\rougemeilland\palmtree.math.core.implements\palmtree.math.core.implements\pmc_exclusiveor.c
;	COMDAT PMC_ExclusiveOr_X_L_Imp
_TEXT	SEGMENT
nw_light_check_code$1 = 48
u$ = 48
v$ = 56
w$ = 64
PMC_ExclusiveOr_X_L_Imp PROC				; COMDAT

; 281  : {

	mov	QWORD PTR [rsp+16], rbx
	mov	QWORD PTR [rsp+24], rsi
	mov	QWORD PTR [rsp+32], rdi
	push	r14
	sub	rsp, 32					; 00000020H

; 282  :     PMC_STATUS_CODE result;
; 283  :     if (u->IS_ZERO)

	test	BYTE PTR [rcx+32], 2
	mov	rbx, r8
	mov	rsi, rdx
	mov	r14, rcx
	je	SHORT $LN2@PMC_Exclus

; 284  :     {
; 285  :         // x が 0 である場合
; 286  :         if (v == 0)

	test	rdx, rdx
	jne	SHORT $LN4@PMC_Exclus

; 287  :         {
; 288  :             // v が 0 である場合
; 289  :             *w = &number_zero;

	lea	rax, OFFSET FLAT:number_zero
	mov	QWORD PTR [r8], rax

; 290  :         }

	jmp	$LN20@PMC_Exclus
$LN4@PMC_Exclus:

; 291  :         else
; 292  :         {
; 293  :             // v が 0 でない場合
; 294  :             if ((result = From_L_Imp(v, w)) != PMC_STATUS_OK)

	mov	rdx, rbx
	mov	rcx, rsi
	call	From_L_Imp
	test	eax, eax
	je	$LN20@PMC_Exclus

; 295  :                 return (result);

	jmp	$LN1@PMC_Exclus
$LN2@PMC_Exclus:

; 296  :         }
; 297  :     }
; 298  :     else if (v == 0)

	test	rsi, rsi
	jne	SHORT $LN7@PMC_Exclus

; 299  :     {
; 300  :         // y が 0 である場合
; 301  :         if ((result = DuplicateNumber(u, w)) != PMC_STATUS_OK)

	mov	rdx, rbx
	call	DuplicateNumber
	test	eax, eax
	je	$LN20@PMC_Exclus

; 302  :             return (result);

	jmp	$LN1@PMC_Exclus
$LN7@PMC_Exclus:
; File z:\sources\lunor\repos\rougemeilland\palmtree.math.core.implements\palmtree.math.core.implements\pmc_internal.h

; 920  :     _BitScanReverse64(&pos, x);

	bsr	rax, rsi

; 930  :     return (sizeof(x) * 8 - 1 - pos);

	mov	ecx, 63					; 0000003fH
; File z:\sources\lunor\repos\rougemeilland\palmtree.math.core.implements\palmtree.math.core.implements\pmc_exclusiveor.c

; 346  :             if ((result = AllocateNumber(w, w_bit_count, &nw_light_check_code)) != PMC_STATUS_OK)

	lea	r8, QWORD PTR nw_light_check_code$1[rsp]
; File z:\sources\lunor\repos\rougemeilland\palmtree.math.core.implements\palmtree.math.core.implements\pmc_internal.h

; 930  :     return (sizeof(x) * 8 - 1 - pos);

	sub	ecx, eax
; File z:\sources\lunor\repos\rougemeilland\palmtree.math.core.implements\palmtree.math.core.implements\pmc_exclusiveor.c

; 343  :             __UNIT_TYPE v_bit_count = sizeof(v) * 8 - _LZCNT_ALT_UNIT((__UNIT_TYPE)v);

	mov	edx, 64					; 00000040H
	movsxd	rax, ecx

; 346  :             if ((result = AllocateNumber(w, w_bit_count, &nw_light_check_code)) != PMC_STATUS_OK)

	mov	rcx, rbx
	sub	rdx, rax
; File z:\sources\lunor\repos\rougemeilland\palmtree.math.core.implements\palmtree.math.core.implements\pmc_internal.h

; 480  :     return (x >= y ? x : y);

	cmp	QWORD PTR [r14+8], rdx
	cmovae	rdx, QWORD PTR [r14+8]
; File z:\sources\lunor\repos\rougemeilland\palmtree.math.core.implements\palmtree.math.core.implements\pmc_exclusiveor.c

; 344  :             __UNIT_TYPE w_bit_count = _MAXIMUM_UNIT(u_bit_count, v_bit_count) + 1;

	inc	rdx

; 346  :             if ((result = AllocateNumber(w, w_bit_count, &nw_light_check_code)) != PMC_STATUS_OK)

	call	AllocateNumber
	test	eax, eax
	jne	SHORT $LN1@PMC_Exclus

; 347  :                 return (result);
; 348  :             ExclusiveOr_X_1W(u->BLOCK, u->UNIT_WORD_COUNT, (__UNIT_TYPE)v, (*w)->BLOCK);

	mov	rax, QWORD PTR [rbx]
	mov	rdx, QWORD PTR [r14+48]
	mov	rcx, QWORD PTR [r14]
	mov	rdi, QWORD PTR [rax+48]
	mov	rax, QWORD PTR [rdx]

; 40   :     if (u_count == 1)

	xor	rax, rsi
	mov	QWORD PTR [rdi], rax
	cmp	rcx, 1
	je	SHORT $LN57@PMC_Exclus

; 41   :         w[0] = u[0] ^ v;
; 42   :     else
; 43   :     {
; 44   :         w[0] = u[0] ^ v;
; 45   :         _COPY_MEMORY_UNIT(w + 1, u + 1, u_count - 1);

	dec	rcx
	lea	rsi, QWORD PTR [rdx+8]
	add	rdi, 8
; File z:\sources\lunor\repos\rougemeilland\palmtree.math.core.implements\palmtree.math.core.implements\pmc_internal.h

; 346  :     __movsq(d, s, count);

	rep movsq
$LN57@PMC_Exclus:
; File z:\sources\lunor\repos\rougemeilland\palmtree.math.core.implements\palmtree.math.core.implements\pmc_exclusiveor.c

; 349  :             if ((result = CheckBlockLight((*w)->BLOCK, nw_light_check_code)) != PMC_STATUS_OK)

	mov	rcx, QWORD PTR [rbx]
	mov	rdx, QWORD PTR nw_light_check_code$1[rsp]
	mov	rcx, QWORD PTR [rcx+48]
	call	CheckBlockLight
	test	eax, eax
	jne	SHORT $LN1@PMC_Exclus

; 350  :                 return (result);
; 351  :         }
; 352  :         CommitNumber(*w);

	mov	rcx, QWORD PTR [rbx]
	call	CommitNumber

; 353  :         if ((*w)->IS_ZERO)

	mov	rcx, QWORD PTR [rbx]
	test	BYTE PTR [rcx+32], 2
	je	SHORT $LN20@PMC_Exclus

; 354  :         {
; 355  :             DeallocateNumber(*w);

	call	DeallocateNumber

; 356  :             *w = &number_zero;

	lea	rax, OFFSET FLAT:number_zero
	mov	QWORD PTR [rbx], rax
$LN20@PMC_Exclus:

; 357  :         }
; 358  :     }
; 359  :     return (PMC_STATUS_OK);

	xor	eax, eax
$LN1@PMC_Exclus:

; 360  : }

	mov	rbx, QWORD PTR [rsp+56]
	mov	rsi, QWORD PTR [rsp+64]
	mov	rdi, QWORD PTR [rsp+72]
	add	rsp, 32					; 00000020H
	pop	r14
	ret	0
PMC_ExclusiveOr_X_L_Imp ENDP
_TEXT	ENDS
; Function compile flags: /Ogtpy
; File z:\sources\lunor\repos\rougemeilland\palmtree.math.core.implements\palmtree.math.core.implements\pmc_exclusiveor.c
; File z:\sources\lunor\repos\rougemeilland\palmtree.math.core.implements\palmtree.math.core.implements\pmc_internal.h
; File z:\sources\lunor\repos\rougemeilland\palmtree.math.core.implements\palmtree.math.core.implements\pmc_exclusiveor.c
; File z:\sources\lunor\repos\rougemeilland\palmtree.math.core.implements\palmtree.math.core.implements\pmc_internal.h
; File z:\sources\lunor\repos\rougemeilland\palmtree.math.core.implements\palmtree.math.core.implements\pmc_exclusiveor.c
; File z:\sources\lunor\repos\rougemeilland\palmtree.math.core.implements\palmtree.math.core.implements\pmc_internal.h
; File z:\sources\lunor\repos\rougemeilland\palmtree.math.core.implements\palmtree.math.core.implements\pmc_exclusiveor.c
; File z:\sources\lunor\repos\rougemeilland\palmtree.math.core.implements\palmtree.math.core.implements\pmc_internal.h
; File z:\sources\lunor\repos\rougemeilland\palmtree.math.core.implements\palmtree.math.core.implements\pmc_exclusiveor.c
;	COMDAT PMC_ExclusiveOr_X_I_Imp
_TEXT	SEGMENT
nz_check_code$1 = 48
u$ = 48
v$ = 56
w$ = 64
PMC_ExclusiveOr_X_I_Imp PROC				; COMDAT

; 187  : {

	mov	QWORD PTR [rsp+16], rbx
	mov	QWORD PTR [rsp+24], rsi
	mov	QWORD PTR [rsp+32], rdi
	push	r14
	sub	rsp, 32					; 00000020H

; 188  :     PMC_STATUS_CODE result;
; 189  :     if (u->IS_ZERO)

	test	BYTE PTR [rcx+32], 2
	mov	rbx, r8
	mov	esi, edx
	mov	r14, rcx
	je	SHORT $LN2@PMC_Exclus

; 190  :     {
; 191  :         // u が 0 である場合
; 192  :         if (v == 0)

	test	edx, edx
	jne	SHORT $LN4@PMC_Exclus

; 193  :         {
; 194  :             // v が 0 である場合
; 195  :             *w = &number_zero;

	lea	rax, OFFSET FLAT:number_zero
	mov	QWORD PTR [r8], rax

; 196  :         }

	jmp	$LN12@PMC_Exclus
$LN4@PMC_Exclus:

; 197  :         else
; 198  :         {
; 199  :             // v が 0 でない場合
; 200  :             if ((result = From_I_Imp(v, w)) != PMC_STATUS_OK)

	mov	rdx, rbx
	mov	ecx, esi
	call	From_I_Imp
	test	eax, eax
	je	$LN12@PMC_Exclus

; 201  :                 return (result);

	jmp	$LN1@PMC_Exclus
$LN2@PMC_Exclus:

; 202  :         }
; 203  :     }
; 204  :     else if (v == 0)

	test	edx, edx
	jne	SHORT $LN7@PMC_Exclus

; 205  :     {
; 206  :         // v が 0 である場合
; 207  :         if ((result = DuplicateNumber(u, w)) != PMC_STATUS_OK)

	mov	rdx, rbx
	call	DuplicateNumber
	test	eax, eax
	je	$LN12@PMC_Exclus

; 208  :             return (result);

	jmp	$LN1@PMC_Exclus
$LN7@PMC_Exclus:
; File z:\sources\lunor\repos\rougemeilland\palmtree.math.core.implements\palmtree.math.core.implements\pmc_internal.h

; 877  :     _BitScanReverse(&pos, x);

	bsr	eax, esi

; 883  :     return (sizeof(x) * 8 - 1 - pos);

	mov	ecx, 31
; File z:\sources\lunor\repos\rougemeilland\palmtree.math.core.implements\palmtree.math.core.implements\pmc_exclusiveor.c

; 217  :         if ((result = AllocateNumber(w, w_bit_count, &nz_check_code)) != PMC_STATUS_OK)

	lea	r8, QWORD PTR nz_check_code$1[rsp]
; File z:\sources\lunor\repos\rougemeilland\palmtree.math.core.implements\palmtree.math.core.implements\pmc_internal.h

; 883  :     return (sizeof(x) * 8 - 1 - pos);

	sub	ecx, eax
; File z:\sources\lunor\repos\rougemeilland\palmtree.math.core.implements\palmtree.math.core.implements\pmc_exclusiveor.c

; 214  :         __UNIT_TYPE v_bit_count = sizeof(v) * 8 - _LZCNT_ALT_32(v);

	mov	edx, 32					; 00000020H
	movsxd	rax, ecx

; 217  :         if ((result = AllocateNumber(w, w_bit_count, &nz_check_code)) != PMC_STATUS_OK)

	mov	rcx, rbx
	sub	rdx, rax
; File z:\sources\lunor\repos\rougemeilland\palmtree.math.core.implements\palmtree.math.core.implements\pmc_internal.h

; 480  :     return (x >= y ? x : y);

	cmp	QWORD PTR [r14+8], rdx
	cmovae	rdx, QWORD PTR [r14+8]
; File z:\sources\lunor\repos\rougemeilland\palmtree.math.core.implements\palmtree.math.core.implements\pmc_exclusiveor.c

; 215  :         __UNIT_TYPE w_bit_count = _MAXIMUM_UNIT(u_bit_count, v_bit_count) + 1;

	inc	rdx

; 217  :         if ((result = AllocateNumber(w, w_bit_count, &nz_check_code)) != PMC_STATUS_OK)

	call	AllocateNumber
	test	eax, eax
	jne	SHORT $LN1@PMC_Exclus

; 218  :             return (result);
; 219  :         ExclusiveOr_X_1W(u->BLOCK, u->UNIT_WORD_COUNT, v, (*w)->BLOCK);

	mov	rax, QWORD PTR [rbx]
	mov	rdx, QWORD PTR [r14+48]
	mov	rcx, QWORD PTR [r14]
	mov	rdi, QWORD PTR [rax+48]
	mov	rax, rsi
	xor	rax, QWORD PTR [rdx]
	mov	QWORD PTR [rdi], rax

; 40   :     if (u_count == 1)

	cmp	rcx, 1
	je	SHORT $LN23@PMC_Exclus

; 41   :         w[0] = u[0] ^ v;
; 42   :     else
; 43   :     {
; 44   :         w[0] = u[0] ^ v;
; 45   :         _COPY_MEMORY_UNIT(w + 1, u + 1, u_count - 1);

	dec	rcx
	lea	rsi, QWORD PTR [rdx+8]
	add	rdi, 8
; File z:\sources\lunor\repos\rougemeilland\palmtree.math.core.implements\palmtree.math.core.implements\pmc_internal.h

; 346  :     __movsq(d, s, count);

	rep movsq
$LN23@PMC_Exclus:
; File z:\sources\lunor\repos\rougemeilland\palmtree.math.core.implements\palmtree.math.core.implements\pmc_exclusiveor.c

; 220  :         if ((result = CheckBlockLight((*w)->BLOCK, nz_check_code)) != PMC_STATUS_OK)

	mov	rcx, QWORD PTR [rbx]
	mov	rdx, QWORD PTR nz_check_code$1[rsp]
	mov	rcx, QWORD PTR [rcx+48]
	call	CheckBlockLight
	test	eax, eax
	jne	SHORT $LN1@PMC_Exclus

; 221  :             return (result);
; 222  :         CommitNumber(*w);

	mov	rcx, QWORD PTR [rbx]
	call	CommitNumber

; 223  :         if ((*w)->IS_ZERO)

	mov	rcx, QWORD PTR [rbx]
	test	BYTE PTR [rcx+32], 2
	je	SHORT $LN12@PMC_Exclus

; 224  :         {
; 225  :             DeallocateNumber(*w);

	call	DeallocateNumber

; 226  :             *w = &number_zero;

	lea	rax, OFFSET FLAT:number_zero
	mov	QWORD PTR [rbx], rax
$LN12@PMC_Exclus:

; 227  :         }
; 228  :     }
; 229  :     return (PMC_STATUS_OK);

	xor	eax, eax
$LN1@PMC_Exclus:

; 230  : }

	mov	rbx, QWORD PTR [rsp+56]
	mov	rsi, QWORD PTR [rsp+64]
	mov	rdi, QWORD PTR [rsp+72]
	add	rsp, 32					; 00000020H
	pop	r14
	ret	0
PMC_ExclusiveOr_X_I_Imp ENDP
_TEXT	ENDS
; Function compile flags: /Ogtpy
; File z:\sources\lunor\repos\rougemeilland\palmtree.math.core.implements\palmtree.math.core.implements\pmc_exclusiveor.c
; File z:\sources\lunor\repos\rougemeilland\palmtree.math.core.implements\palmtree.math.core.implements\pmc_internal.h
; File z:\sources\lunor\repos\rougemeilland\palmtree.math.core.implements\palmtree.math.core.implements\pmc_exclusiveor.c
; File z:\sources\lunor\repos\rougemeilland\palmtree.math.core.implements\palmtree.math.core.implements\pmc_internal.h
; File z:\sources\lunor\repos\rougemeilland\palmtree.math.core.implements\palmtree.math.core.implements\pmc_exclusiveor.c
;	COMDAT ExclusiveOr_X_X
_TEXT	SEGMENT
u$ = 8
u_count$ = 16
v$ = 24
v_count$ = 32
w$ = 40
ExclusiveOr_X_X PROC					; COMDAT

; 72   : {

	mov	QWORD PTR [rsp+8], rbx
	mov	QWORD PTR [rsp+16], rbp
	mov	QWORD PTR [rsp+24], rsi
	mov	QWORD PTR [rsp+32], rdi

; 73   :     __UNIT_TYPE or_count = v_count;
; 74   :     __UNIT_TYPE cp_count = u_count - v_count;
; 75   : 
; 76   :     __UNIT_TYPE count = or_count >> 5;
; 77   :     while (count > 0)

	mov	rdi, QWORD PTR w$[rsp]
	mov	rbp, rdx
	mov	r11, r9
	sub	rbp, r9
	shr	r11, 5
	mov	rbx, r9
	mov	rsi, rcx
	test	r11, r11
	je	$LN3@ExclusiveO
	npad	11
$LL2@ExclusiveO:

; 78   :     {
; 79   :         w[0] = u[0] ^ v[0];

	lea	rcx, QWORD PTR [r8+16]
	lea	rax, QWORD PTR [rcx+232]
	cmp	rdi, rax
	ja	SHORT $LN32@ExclusiveO
	lea	rax, QWORD PTR [rdi+248]
	cmp	rax, r8
	jae	SHORT $LN72@ExclusiveO
$LN32@ExclusiveO:
	lea	rax, QWORD PTR [rsi+248]
	cmp	rdi, rax
	ja	SHORT $LN33@ExclusiveO
	lea	rax, QWORD PTR [rdi+248]
	cmp	rax, rsi
	jb	SHORT $LN33@ExclusiveO
$LN72@ExclusiveO:
	mov	r9, rsi
	mov	r10, rdi
	sub	r9, r8
	mov	rax, r8
	sub	r10, r8
	mov	edx, 32					; 00000020H
	npad	8
$LL71@ExclusiveO:
	mov	rcx, QWORD PTR [rax+r9]
	xor	rcx, QWORD PTR [rax]
	mov	QWORD PTR [rax+r10], rcx
	lea	rax, QWORD PTR [rax+8]
	sub	rdx, 1
	jne	SHORT $LL71@ExclusiveO
	jmp	SHORT $LN15@ExclusiveO
$LN33@ExclusiveO:
	mov	rax, rsi
	mov	rdx, rdi
	sub	rax, r8
	mov	r9d, 4
	sub	rdx, r8
	npad	7
$LL14@ExclusiveO:
	movdqu	xmm0, XMMWORD PTR [rcx-16]
	movdqu	xmm1, XMMWORD PTR [rax+rcx-16]
	movdqu	xmm2, XMMWORD PTR [rax+rcx]
	lea	rcx, QWORD PTR [rcx+64]
	pxor	xmm1, xmm0
	movdqu	xmm0, XMMWORD PTR [rcx-64]
	movdqu	XMMWORD PTR [rdx+rcx-80], xmm1
	pxor	xmm2, xmm0
	movdqu	xmm0, XMMWORD PTR [rcx-48]
	movdqu	xmm1, XMMWORD PTR [rax+rcx-48]
	movdqu	XMMWORD PTR [rdx+rcx-64], xmm2
	pxor	xmm1, xmm0
	movdqu	xmm0, XMMWORD PTR [rcx-32]
	movdqu	xmm2, XMMWORD PTR [rax+rcx-32]
	movdqu	XMMWORD PTR [rdx+rcx-48], xmm1
	pxor	xmm2, xmm0
	movdqu	XMMWORD PTR [rdx+rcx-32], xmm2
	sub	r9, 1
	jne	SHORT $LL14@ExclusiveO
$LN15@ExclusiveO:

; 80   :         w[1] = u[1] ^ v[1];
; 81   :         w[2] = u[2] ^ v[2];
; 82   :         w[3] = u[3] ^ v[3];
; 83   :         w[4] = u[4] ^ v[4];
; 84   :         w[5] = u[5] ^ v[5];
; 85   :         w[6] = u[6] ^ v[6];
; 86   :         w[7] = u[7] ^ v[7];
; 87   :         w[8] = u[8] ^ v[8];
; 88   :         w[9] = u[9] ^ v[9];
; 89   :         w[10] = u[10] ^ v[10];
; 90   :         w[11] = u[11] ^ v[11];
; 91   :         w[12] = u[12] ^ v[12];
; 92   :         w[13] = u[13] ^ v[13];
; 93   :         w[14] = u[14] ^ v[14];
; 94   :         w[15] = u[15] ^ v[15];
; 95   :         w[16] = u[16] ^ v[16];
; 96   :         w[17] = u[17] ^ v[17];
; 97   :         w[18] = u[18] ^ v[18];
; 98   :         w[19] = u[19] ^ v[19];
; 99   :         w[20] = u[20] ^ v[20];
; 100  :         w[21] = u[21] ^ v[21];
; 101  :         w[22] = u[22] ^ v[22];
; 102  :         w[23] = u[23] ^ v[23];
; 103  :         w[24] = u[24] ^ v[24];
; 104  :         w[25] = u[25] ^ v[25];
; 105  :         w[26] = u[26] ^ v[26];
; 106  :         w[27] = u[27] ^ v[27];
; 107  :         w[28] = u[28] ^ v[28];
; 108  :         w[29] = u[29] ^ v[29];
; 109  :         w[30] = u[30] ^ v[30];
; 110  :         w[31] = u[31] ^ v[31];
; 111  :         u += 32;

	add	rsi, 256				; 00000100H

; 112  :         v += 32;

	add	r8, 256					; 00000100H

; 113  :         w += 32;

	add	rdi, 256				; 00000100H

; 114  :         --count;

	sub	r11, 1
	jne	$LL2@ExclusiveO
$LN3@ExclusiveO:

; 115  :     }
; 116  : 
; 117  :     if (or_count & 0x10)

	test	bl, 16
	je	$LN4@ExclusiveO

; 118  :     {
; 119  :         w[0] = u[0] ^ v[0];

	lea	rax, QWORD PTR [r8+120]
	xor	r9d, r9d
	lea	rcx, QWORD PTR [rdi+120]
	mov	edx, 16
	cmp	rdi, rax
	ja	SHORT $LN36@ExclusiveO
	cmp	rcx, r8
	jae	$LN35@ExclusiveO
$LN36@ExclusiveO:
	lea	rax, QWORD PTR [rsi+120]
	cmp	rdi, rax
	ja	SHORT $LN37@ExclusiveO
	cmp	rcx, rsi
	jae	$LN35@ExclusiveO
$LN37@ExclusiveO:
	mov	rcx, rsi
	lea	rax, QWORD PTR [r8+16]
	sub	rcx, r8
	mov	r9, rdi
	sub	r9, r8
	mov	r10d, 2
	npad	5
$LL16@ExclusiveO:
	movdqu	xmm0, XMMWORD PTR [rax-16]
	movdqu	xmm1, XMMWORD PTR [rax+rcx-16]
	movdqu	xmm2, XMMWORD PTR [rax+rcx]
	lea	rax, QWORD PTR [rax+64]
	pxor	xmm1, xmm0
	movdqu	xmm0, XMMWORD PTR [rax-64]
	movdqu	XMMWORD PTR [rax+r9-80], xmm1
	pxor	xmm2, xmm0
	movdqu	xmm0, XMMWORD PTR [rax-48]
	movdqu	xmm1, XMMWORD PTR [rax+rcx-48]
	movdqu	XMMWORD PTR [rax+r9-64], xmm2
	pxor	xmm1, xmm0
	movdqu	xmm0, XMMWORD PTR [rax-32]
	movdqu	xmm2, XMMWORD PTR [rax+rcx-32]
	movdqu	XMMWORD PTR [rax+r9-48], xmm1
	pxor	xmm2, xmm0
	movdqu	XMMWORD PTR [rax+r9-32], xmm2
	sub	r10, 1
	jne	SHORT $LL16@ExclusiveO
	mov	r9, rdx
$LN35@ExclusiveO:
	cmp	r9, rdx
	jae	SHORT $LN17@ExclusiveO
	mov	r10, rsi
	lea	rcx, QWORD PTR [r8+r9*8]
	mov	r11, rdi
	sub	r10, r8
	sub	r11, r8
	sub	rdx, r9
	npad	4
$LL34@ExclusiveO:
	mov	rax, QWORD PTR [rcx+r10]
	xor	rax, QWORD PTR [rcx]
	mov	QWORD PTR [rcx+r11], rax
	lea	rcx, QWORD PTR [rcx+8]
	sub	rdx, 1
	jne	SHORT $LL34@ExclusiveO
$LN17@ExclusiveO:

; 120  :         w[1] = u[1] ^ v[1];
; 121  :         w[2] = u[2] ^ v[2];
; 122  :         w[3] = u[3] ^ v[3];
; 123  :         w[4] = u[4] ^ v[4];
; 124  :         w[5] = u[5] ^ v[5];
; 125  :         w[6] = u[6] ^ v[6];
; 126  :         w[7] = u[7] ^ v[7];
; 127  :         w[8] = u[8] ^ v[8];
; 128  :         w[9] = u[9] ^ v[9];
; 129  :         w[10] = u[10] ^ v[10];
; 130  :         w[11] = u[11] ^ v[11];
; 131  :         w[12] = u[12] ^ v[12];
; 132  :         w[13] = u[13] ^ v[13];
; 133  :         w[14] = u[14] ^ v[14];
; 134  :         w[15] = u[15] ^ v[15];
; 135  :         u += 16;

	sub	rsi, -128				; ffffffffffffff80H

; 136  :         v += 16;

	sub	r8, -128				; ffffffffffffff80H

; 137  :         w += 16;

	sub	rdi, -128				; ffffffffffffff80H
$LN4@ExclusiveO:

; 138  :     }
; 139  : 
; 140  :     if (or_count & 0x8)

	test	bl, 8
	je	SHORT $LN5@ExclusiveO

; 141  :     {
; 142  :         w[0] = u[0] ^ v[0];

	mov	rax, QWORD PTR [rsi]
	xor	rax, QWORD PTR [r8]
	mov	QWORD PTR [rdi], rax
	mov	rax, QWORD PTR [rsi+8]
	xor	rax, QWORD PTR [r8+8]
	mov	QWORD PTR [rdi+8], rax
	mov	rax, QWORD PTR [rsi+16]
	xor	rax, QWORD PTR [r8+16]
	mov	QWORD PTR [rdi+16], rax
	mov	rax, QWORD PTR [rsi+24]
	xor	rax, QWORD PTR [r8+24]
	mov	QWORD PTR [rdi+24], rax
	mov	rax, QWORD PTR [rsi+32]
	xor	rax, QWORD PTR [r8+32]
	mov	QWORD PTR [rdi+32], rax
	mov	rax, QWORD PTR [rsi+40]
	xor	rax, QWORD PTR [r8+40]
	mov	QWORD PTR [rdi+40], rax
	mov	rax, QWORD PTR [rsi+48]
	xor	rax, QWORD PTR [r8+48]
	mov	QWORD PTR [rdi+48], rax
	mov	rax, QWORD PTR [rsi+56]

; 143  :         w[1] = u[1] ^ v[1];
; 144  :         w[2] = u[2] ^ v[2];
; 145  :         w[3] = u[3] ^ v[3];
; 146  :         w[4] = u[4] ^ v[4];
; 147  :         w[5] = u[5] ^ v[5];
; 148  :         w[6] = u[6] ^ v[6];
; 149  :         w[7] = u[7] ^ v[7];
; 150  :         u += 8;

	add	rsi, 64					; 00000040H
	xor	rax, QWORD PTR [r8+56]

; 151  :         v += 8;

	add	r8, 64					; 00000040H
	mov	QWORD PTR [rdi+56], rax

; 152  :         w += 8;

	add	rdi, 64					; 00000040H
$LN5@ExclusiveO:

; 153  :     }
; 154  : 
; 155  :     if (or_count & 0x4)

	test	bl, 4
	je	SHORT $LN6@ExclusiveO

; 156  :     {
; 157  :         w[0] = u[0] ^ v[0];

	mov	rax, QWORD PTR [rsi]
	xor	rax, QWORD PTR [r8]
	mov	QWORD PTR [rdi], rax
	mov	rax, QWORD PTR [rsi+8]
	xor	rax, QWORD PTR [r8+8]
	mov	QWORD PTR [rdi+8], rax
	mov	rax, QWORD PTR [rsi+16]
	xor	rax, QWORD PTR [r8+16]
	mov	QWORD PTR [rdi+16], rax
	mov	rax, QWORD PTR [rsi+24]

; 158  :         w[1] = u[1] ^ v[1];
; 159  :         w[2] = u[2] ^ v[2];
; 160  :         w[3] = u[3] ^ v[3];
; 161  :         u += 4;

	add	rsi, 32					; 00000020H
	xor	rax, QWORD PTR [r8+24]

; 162  :         v += 4;

	add	r8, 32					; 00000020H
	mov	QWORD PTR [rdi+24], rax

; 163  :         w += 4;

	add	rdi, 32					; 00000020H
$LN6@ExclusiveO:

; 164  :     }
; 165  : 
; 166  :     if (or_count & 0x2)

	test	bl, 2
	je	SHORT $LN7@ExclusiveO

; 167  :     {
; 168  :         w[0] = u[0] ^ v[0];

	mov	rax, QWORD PTR [rsi]
	xor	rax, QWORD PTR [r8]
	mov	QWORD PTR [rdi], rax
	mov	rax, QWORD PTR [rsi+8]

; 169  :         w[1] = u[1] ^ v[1];
; 170  :         u += 2;

	add	rsi, 16
	xor	rax, QWORD PTR [r8+8]

; 171  :         v += 2;

	add	r8, 16
	mov	QWORD PTR [rdi+8], rax

; 172  :         w += 2;

	add	rdi, 16
$LN7@ExclusiveO:

; 173  :     }
; 174  : 
; 175  :     if (or_count & 0x1)

	test	bl, 1
	je	SHORT $LN8@ExclusiveO

; 176  :     {
; 177  :         w[0] = u[0] ^ v[0];

	mov	rax, QWORD PTR [rsi]

; 178  :         u += 1;

	add	rsi, 8
	xor	rax, QWORD PTR [r8]
	mov	QWORD PTR [rdi], rax

; 179  :         v += 1;
; 180  :         w += 1;

	add	rdi, 8
$LN8@ExclusiveO:

; 184  : }

	mov	rbx, QWORD PTR [rsp+8]
; File z:\sources\lunor\repos\rougemeilland\palmtree.math.core.implements\palmtree.math.core.implements\pmc_internal.h

; 346  :     __movsq(d, s, count);

	mov	rcx, rbp
; File z:\sources\lunor\repos\rougemeilland\palmtree.math.core.implements\palmtree.math.core.implements\pmc_exclusiveor.c

; 184  : }

	mov	rbp, QWORD PTR [rsp+16]
; File z:\sources\lunor\repos\rougemeilland\palmtree.math.core.implements\palmtree.math.core.implements\pmc_internal.h

; 346  :     __movsq(d, s, count);

	rep movsq
; File z:\sources\lunor\repos\rougemeilland\palmtree.math.core.implements\palmtree.math.core.implements\pmc_exclusiveor.c

; 184  : }

	mov	rsi, QWORD PTR [rsp+24]
	mov	rdi, QWORD PTR [rsp+32]
	ret	0
ExclusiveOr_X_X ENDP
_TEXT	ENDS
; Function compile flags: /Ogtpy
; File z:\sources\lunor\repos\rougemeilland\palmtree.math.core.implements\palmtree.math.core.implements\pmc_exclusiveor.c
; File z:\sources\lunor\repos\rougemeilland\palmtree.math.core.implements\palmtree.math.core.implements\pmc_internal.h
; File z:\sources\lunor\repos\rougemeilland\palmtree.math.core.implements\palmtree.math.core.implements\pmc_exclusiveor.c
;	COMDAT ExclusiveOr_X_2W
_TEXT	SEGMENT
u$ = 8
u_count$ = 16
v_hi$ = 24
v_lo$ = 32
w$ = 40
ExclusiveOr_X_2W PROC					; COMDAT

; 51   : {

	mov	QWORD PTR [rsp+8], rsi
	mov	QWORD PTR [rsp+16], rdi
	mov	rax, QWORD PTR [rcx]
	mov	rsi, rcx
	mov	rdi, QWORD PTR w$[rsp]
	xor	rax, r9

; 52   :     if (u_count == 1)

	mov	QWORD PTR [rdi], rax
	cmp	rdx, 1
	jne	SHORT $LN2@ExclusiveO

; 53   :     {
; 54   :         w[0] = u[0] ^ v_lo;
; 55   :         w[1] = v_hi;

	mov	QWORD PTR [rdi+8], r8

; 68   : }

	mov	rsi, QWORD PTR [rsp+8]
	mov	rdi, QWORD PTR [rsp+16]
	ret	0
$LN2@ExclusiveO:

; 56   :     }
; 57   :     else if (u_count == 2)

	mov	rax, QWORD PTR [rcx+8]
	xor	rax, r8
	mov	QWORD PTR [rdi+8], rax
	cmp	rdx, 2
	je	SHORT $LN7@ExclusiveO

; 58   :     {
; 59   :         w[0] = u[0] ^ v_lo;
; 60   :         w[1] = u[1] ^ v_hi;
; 61   :     }
; 62   :     else
; 63   :     {
; 64   :         w[0] = u[0] ^ v_lo;
; 65   :         w[1] = u[1] ^ v_hi;
; 66   :         _COPY_MEMORY_UNIT(w + 2, u + 2, u_count - 2);

	add	rsi, 16
	lea	rcx, QWORD PTR [rdx-2]
	add	rdi, 16
; File z:\sources\lunor\repos\rougemeilland\palmtree.math.core.implements\palmtree.math.core.implements\pmc_internal.h

; 346  :     __movsq(d, s, count);

	rep movsq
$LN7@ExclusiveO:
; File z:\sources\lunor\repos\rougemeilland\palmtree.math.core.implements\palmtree.math.core.implements\pmc_exclusiveor.c

; 68   : }

	mov	rsi, QWORD PTR [rsp+8]
	mov	rdi, QWORD PTR [rsp+16]
	ret	0
ExclusiveOr_X_2W ENDP
_TEXT	ENDS
; Function compile flags: /Ogtpy
; File z:\sources\lunor\repos\rougemeilland\palmtree.math.core.implements\palmtree.math.core.implements\pmc_exclusiveor.c
; File z:\sources\lunor\repos\rougemeilland\palmtree.math.core.implements\palmtree.math.core.implements\pmc_internal.h
; File z:\sources\lunor\repos\rougemeilland\palmtree.math.core.implements\palmtree.math.core.implements\pmc_exclusiveor.c
;	COMDAT ExclusiveOr_X_1W
_TEXT	SEGMENT
u$ = 16
u_count$ = 24
v$ = 32
w$ = 40
ExclusiveOr_X_1W PROC					; COMDAT

; 39   : {

	push	rsi
	mov	rax, QWORD PTR [rcx]
	mov	rsi, rcx
	xor	rax, r8
	mov	QWORD PTR [r9], rax

; 40   :     if (u_count == 1)

	cmp	rdx, 1
	je	SHORT $LN5@ExclusiveO

; 41   :         w[0] = u[0] ^ v;
; 42   :     else
; 43   :     {
; 44   :         w[0] = u[0] ^ v;
; 45   :         _COPY_MEMORY_UNIT(w + 1, u + 1, u_count - 1);

	mov	QWORD PTR [rsp+16], rdi
	lea	rcx, QWORD PTR [rdx-1]
	lea	rdi, QWORD PTR [r9+8]
	add	rsi, 8
; File z:\sources\lunor\repos\rougemeilland\palmtree.math.core.implements\palmtree.math.core.implements\pmc_internal.h

; 346  :     __movsq(d, s, count);

	rep movsq
	mov	rdi, QWORD PTR [rsp+16]
$LN5@ExclusiveO:
; File z:\sources\lunor\repos\rougemeilland\palmtree.math.core.implements\palmtree.math.core.implements\pmc_exclusiveor.c

; 47   : }

	pop	rsi
	ret	0
ExclusiveOr_X_1W ENDP
_TEXT	ENDS
; Function compile flags: /Ogtpy
; File z:\sources\lunor\repos\rougemeilland\palmtree.math.core.implements\palmtree.math.core.implements\pmc_internal.h
;	COMDAT _LZCNT_ALT_UNIT
_TEXT	SEGMENT
x$ = 8
_LZCNT_ALT_UNIT PROC					; COMDAT

; 906  :     if (x == 0)

	test	rcx, rcx
	jne	SHORT $LN2@LZCNT_ALT_

; 907  :         return (sizeof(x) * 8);

	mov	eax, 64					; 00000040H

; 931  : }

	ret	0
$LN2@LZCNT_ALT_:

; 908  : #ifdef _M_IX86
; 909  :     _UINT32_T pos;
; 910  : #ifdef _MSC_VER
; 911  :     _BitScanReverse(&pos, x);
; 912  : #elif defined(__GNUC__)
; 913  :     __asm__("bsrl %1, %0" : "=r"(pos) : "rm"(x));
; 914  : #else
; 915  : #error unknown compiler
; 916  : #endif
; 917  : #elif defined(_M_X64)
; 918  : #ifdef _MSC_VER
; 919  :     _UINT32_T pos;
; 920  :     _BitScanReverse64(&pos, x);

	bsr	rcx, rcx

; 921  : #elif defined(__GNUC__)
; 922  :     _UINT64_T pos;
; 923  :     __asm__("bsrq %1, %0" : "=r"(pos) : "rm"(x));
; 924  : #else
; 925  : #error unknown compiler
; 926  : #endif
; 927  : #else
; 928  : #error unknown platform
; 929  : #endif
; 930  :     return (sizeof(x) * 8 - 1 - pos);

	mov	eax, 63					; 0000003fH
	sub	eax, ecx

; 931  : }

	ret	0
_LZCNT_ALT_UNIT ENDP
_TEXT	ENDS
; Function compile flags: /Ogtpy
; File z:\sources\lunor\repos\rougemeilland\palmtree.math.core.implements\palmtree.math.core.implements\pmc_internal.h
;	COMDAT _LZCNT_ALT_32
_TEXT	SEGMENT
x$ = 8
_LZCNT_ALT_32 PROC					; COMDAT

; 873  :     if (x == 0)

	test	ecx, ecx
	jne	SHORT $LN2@LZCNT_ALT_

; 874  :         return (sizeof(x) * 8);

	mov	eax, 32					; 00000020H

; 884  : }

	ret	0
$LN2@LZCNT_ALT_:

; 875  :     _UINT32_T pos;
; 876  : #ifdef _MSC_VER
; 877  :     _BitScanReverse(&pos, x);

	bsr	ecx, ecx

; 878  : #elif defined(__GNUC__)
; 879  :     __asm__( "bsrl %1, %0" : "=r"(pos) : "rm"(x) );
; 880  : #else
; 881  : #error unknown compiler
; 882  : #endif
; 883  :     return (sizeof(x) * 8 - 1 - pos);

	mov	eax, 31
	sub	eax, ecx

; 884  : }

	ret	0
_LZCNT_ALT_32 ENDP
_TEXT	ENDS
; Function compile flags: /Ogtpy
; File z:\sources\lunor\repos\rougemeilland\palmtree.math.core.implements\palmtree.math.core.implements\pmc_internal.h
;	COMDAT _MAXIMUM_UNIT
_TEXT	SEGMENT
x$ = 8
y$ = 16
_MAXIMUM_UNIT PROC					; COMDAT

; 480  :     return (x >= y ? x : y);

	cmp	rcx, rdx
	cmovae	rdx, rcx
	mov	rax, rdx

; 481  : }

	ret	0
_MAXIMUM_UNIT ENDP
_TEXT	ENDS
; Function compile flags: /Ogtpy
; File z:\sources\lunor\repos\rougemeilland\palmtree.math.core.implements\palmtree.math.core.implements\pmc_internal.h
;	COMDAT _FROMDWORDTOWORD
_TEXT	SEGMENT
value$ = 8
result_high$ = 16
_FROMDWORDTOWORD PROC					; COMDAT

; 459  :     *result_high = (_UINT32_T)(value >> 32);

	mov	rax, rcx
	shr	rax, 32					; 00000020H
	mov	DWORD PTR [rdx], eax

; 460  :     return ((_UINT32_T)value);

	mov	eax, ecx

; 461  : }

	ret	0
_FROMDWORDTOWORD ENDP
_TEXT	ENDS
; Function compile flags: /Ogtpy
; File z:\sources\lunor\repos\rougemeilland\palmtree.math.core.implements\palmtree.math.core.implements\pmc_internal.h
;	COMDAT _COPY_MEMORY_UNIT
_TEXT	SEGMENT
d$ = 8
s$ = 16
count$ = 24
_COPY_MEMORY_UNIT PROC					; COMDAT

; 342  : {

	mov	QWORD PTR [rsp+8], rsi
	mov	QWORD PTR [rsp+16], rdi

; 343  : #ifdef _M_IX86
; 344  :     __movsd((unsigned long *)d, (unsigned long *)s, (unsigned long)count);
; 345  : #elif defined(_M_X64)
; 346  :     __movsq(d, s, count);

	mov	rdi, rcx
	mov	rsi, rdx
	mov	rcx, r8
	rep movsq

; 347  : #else
; 348  : #error unknown platform
; 349  : #endif
; 350  : }

	mov	rsi, QWORD PTR [rsp+8]
	mov	rdi, QWORD PTR [rsp+16]
	ret	0
_COPY_MEMORY_UNIT ENDP
_TEXT	ENDS
; Function compile flags: /Ogtpy
; File z:\sources\lunor\repos\rougemeilland\palmtree.math.core.implements\palmtree.math.core.implements\pmc_exclusiveor.c
; File z:\sources\lunor\repos\rougemeilland\palmtree.math.core.implements\palmtree.math.core.implements\pmc_internal.h
; File z:\sources\lunor\repos\rougemeilland\palmtree.math.core.implements\palmtree.math.core.implements\pmc_exclusiveor.c
;	COMDAT PMC_ExclusiveOr_X_X
_TEXT	SEGMENT
nw$ = 80
u$ = 80
v$ = 88
w$ = 96
nw_light_check_code$1 = 104
PMC_ExclusiveOr_X_X PROC				; COMDAT

; 411  : {

$LN24:
	push	rbx
	push	rsi
	push	rdi
	sub	rsp, 48					; 00000030H
	mov	rsi, r8
	mov	rbx, rdx
	mov	rdi, rcx

; 412  :     if (u == NULL)

	test	rcx, rcx
	je	$LN20@PMC_Exclus

; 413  :         return (PMC_STATUS_ARGUMENT_ERROR);
; 414  :     if (v == NULL)

	test	rdx, rdx
	je	$LN20@PMC_Exclus

; 415  :         return (PMC_STATUS_ARGUMENT_ERROR);
; 416  :     if (w == NULL)

	test	r8, r8
	je	$LN20@PMC_Exclus

; 418  :     NUMBER_HEADER* nu = (NUMBER_HEADER*)u;
; 419  :     NUMBER_HEADER* nv = (NUMBER_HEADER*)v;
; 420  :     PMC_STATUS_CODE result;
; 421  :     if ((result = CheckNumber(nu)) != PMC_STATUS_OK)

	call	CheckNumber
	test	eax, eax
	jne	SHORT $LN1@PMC_Exclus

; 422  :         return (result);
; 423  :     if ((result = CheckNumber(nv)) != PMC_STATUS_OK)

	mov	rcx, rbx
	call	CheckNumber
	test	eax, eax
	jne	SHORT $LN1@PMC_Exclus

; 424  :         return (result);
; 425  :     NUMBER_HEADER* nw;
; 426  :     if (nu->IS_ZERO)

	test	BYTE PTR [rdi+32], 2
	mov	QWORD PTR [rsp+88], r14
	je	SHORT $LN7@PMC_Exclus

; 427  :     {
; 428  :         if ((result = DuplicateNumber(nv, &nw)) != PMC_STATUS_OK)

	lea	rdx, QWORD PTR nw$[rsp]
	mov	rcx, rbx
	call	DuplicateNumber
	test	eax, eax
	je	SHORT $LN21@PMC_Exclus
$LN22@PMC_Exclus:
	mov	r14, QWORD PTR [rsp+88]
$LN1@PMC_Exclus:

; 466  : }

	add	rsp, 48					; 00000030H
	pop	rdi
	pop	rsi
	pop	rbx
	ret	0
$LN7@PMC_Exclus:

; 429  :             return (result);
; 430  :     }
; 431  :     else if (nv->IS_ZERO)

	test	BYTE PTR [rbx+32], 2
	je	SHORT $LN10@PMC_Exclus

; 432  :     {
; 433  :         if ((result = DuplicateNumber(nu, &nw)) != PMC_STATUS_OK)

	lea	rdx, QWORD PTR nw$[rsp]
	mov	rcx, rdi
	call	DuplicateNumber
	test	eax, eax
	jne	SHORT $LN22@PMC_Exclus
$LN21@PMC_Exclus:

; 427  :     {
; 428  :         if ((result = DuplicateNumber(nv, &nw)) != PMC_STATUS_OK)

	mov	rax, QWORD PTR nw$[rsp]
	mov	r14, QWORD PTR [rsp+88]

; 458  :         }
; 459  :     }
; 460  :     *w = nw;

	mov	QWORD PTR [rsi], rax

; 461  : #ifdef _DEBUG
; 462  :     if ((result = CheckNumber(*w)) != PMC_STATUS_OK)
; 463  :         return (result);
; 464  : #endif
; 465  :     return (PMC_STATUS_OK);

	xor	eax, eax

; 466  : }

	add	rsp, 48					; 00000030H
	pop	rdi
	pop	rsi
	pop	rbx
	ret	0
$LN10@PMC_Exclus:

; 434  :             return (result);
; 435  :     }
; 436  :     else
; 437  :     {
; 438  :         if (nu->UNIT_WORD_COUNT < nv->UNIT_WORD_COUNT)

	mov	rcx, QWORD PTR [rdi]

; 448  :         if ((result = AllocateNumber(&nw, w_bit_count, &nw_light_check_code)) != PMC_STATUS_OK)

	lea	r8, QWORD PTR nw_light_check_code$1[rsp]
	cmp	rcx, QWORD PTR [rbx]
	mov	r14, rdi
	lea	rcx, QWORD PTR nw$[rsp]
	cmovae	r14, rbx
	cmovae	rbx, rdi
	mov	rdx, QWORD PTR [r14+8]
; File z:\sources\lunor\repos\rougemeilland\palmtree.math.core.implements\palmtree.math.core.implements\pmc_internal.h

; 480  :     return (x >= y ? x : y);

	cmp	QWORD PTR [rbx+8], rdx
	cmovae	rdx, QWORD PTR [rbx+8]
; File z:\sources\lunor\repos\rougemeilland\palmtree.math.core.implements\palmtree.math.core.implements\pmc_exclusiveor.c

; 448  :         if ((result = AllocateNumber(&nw, w_bit_count, &nw_light_check_code)) != PMC_STATUS_OK)

	call	AllocateNumber
	test	eax, eax
	jne	SHORT $LN22@PMC_Exclus

; 449  :             return (result);
; 450  :         ExclusiveOr_X_X(nu->BLOCK, nu->UNIT_WORD_COUNT, nv->BLOCK, nv->UNIT_WORD_COUNT, nw->BLOCK);

	mov	rax, QWORD PTR nw$[rsp]
	mov	r9, QWORD PTR [r14]
	mov	r8, QWORD PTR [r14+48]
	mov	rdx, QWORD PTR [rbx]
	mov	rcx, QWORD PTR [rax+48]
	mov	QWORD PTR [rsp+32], rcx
	mov	rcx, QWORD PTR [rbx+48]
	call	ExclusiveOr_X_X

; 451  :         if ((result = CheckBlockLight(nw->BLOCK, nw_light_check_code)) != PMC_STATUS_OK)

	mov	rcx, QWORD PTR nw$[rsp]
	mov	rdx, QWORD PTR nw_light_check_code$1[rsp]
	mov	rcx, QWORD PTR [rcx+48]
	call	CheckBlockLight
	test	eax, eax
	jne	$LN22@PMC_Exclus

; 452  :             return (result);
; 453  :         CommitNumber(nw);

	mov	rcx, QWORD PTR nw$[rsp]
	call	CommitNumber

; 454  :         if (nw->IS_ZERO)

	mov	rax, QWORD PTR nw$[rsp]
	test	BYTE PTR [rax+32], 2
	je	SHORT $LN16@PMC_Exclus

; 455  :         {
; 456  :             DeallocateNumber(nw);

	mov	rcx, rax
	call	DeallocateNumber

; 457  :             nw = &number_zero;

	lea	rax, OFFSET FLAT:number_zero
$LN16@PMC_Exclus:

; 458  :         }
; 459  :     }
; 460  :     *w = nw;

	mov	r14, QWORD PTR [rsp+88]
	mov	QWORD PTR [rsi], rax

; 461  : #ifdef _DEBUG
; 462  :     if ((result = CheckNumber(*w)) != PMC_STATUS_OK)
; 463  :         return (result);
; 464  : #endif
; 465  :     return (PMC_STATUS_OK);

	xor	eax, eax

; 466  : }

	add	rsp, 48					; 00000030H
	pop	rdi
	pop	rsi
	pop	rbx
	ret	0
$LN20@PMC_Exclus:

; 417  :         return (PMC_STATUS_ARGUMENT_ERROR);

	mov	eax, -1

; 466  : }

	add	rsp, 48					; 00000030H
	pop	rdi
	pop	rsi
	pop	rbx
	ret	0
PMC_ExclusiveOr_X_X ENDP
_TEXT	ENDS
; Function compile flags: /Ogtpy
; File z:\sources\lunor\repos\rougemeilland\palmtree.math.core.implements\palmtree.math.core.implements\pmc_exclusiveor.c
;	COMDAT PMC_ExclusiveOr_X_L
_TEXT	SEGMENT
u$ = 48
v$ = 56
w$ = 64
PMC_ExclusiveOr_X_L PROC				; COMDAT

; 387  : {

$LN10:
	mov	QWORD PTR [rsp+8], rbx
	mov	QWORD PTR [rsp+16], rsi
	push	rdi
	sub	rsp, 32					; 00000020H
	mov	rdi, r8
	mov	rsi, rdx
	mov	rbx, rcx

; 388  :     if (__UNIT_TYPE_BIT_COUNT * 2 < sizeof(v) * 8)
; 389  :     {
; 390  :         // _UINT64_T が 2 ワードで表現しきれない処理系には対応しない
; 391  :         return (PMC_STATUS_INTERNAL_ERROR);
; 392  :     }
; 393  :     if (u == NULL)

	test	rcx, rcx
	je	SHORT $LN8@PMC_Exclus

; 394  :         return (PMC_STATUS_ARGUMENT_ERROR);
; 395  :     if (w == NULL)

	test	r8, r8
	je	SHORT $LN8@PMC_Exclus

; 397  :     NUMBER_HEADER* nu = (NUMBER_HEADER*)u;
; 398  :     PMC_STATUS_CODE result;
; 399  :     if ((result = CheckNumber(nu)) != PMC_STATUS_OK)

	call	CheckNumber
	test	eax, eax
	jne	SHORT $LN6@PMC_Exclus

; 400  :         return (result);
; 401  :     if ((result = PMC_ExclusiveOr_X_L_Imp((NUMBER_HEADER*)u, v, (NUMBER_HEADER**)w)) != PMC_STATUS_OK)

	mov	r8, rdi
	mov	rdx, rsi
	mov	rcx, rbx

; 402  :         return (result);
; 403  : #ifdef _DEBUG
; 404  :     if ((result = CheckNumber(*w)) != PMC_STATUS_OK)
; 405  :         return (result);
; 406  : #endif
; 407  :     return (PMC_STATUS_OK);
; 408  : }

	mov	rbx, QWORD PTR [rsp+48]
	mov	rsi, QWORD PTR [rsp+56]
	add	rsp, 32					; 00000020H
	pop	rdi

; 400  :         return (result);
; 401  :     if ((result = PMC_ExclusiveOr_X_L_Imp((NUMBER_HEADER*)u, v, (NUMBER_HEADER**)w)) != PMC_STATUS_OK)

	jmp	PMC_ExclusiveOr_X_L_Imp
$LN8@PMC_Exclus:

; 396  :         return (PMC_STATUS_ARGUMENT_ERROR);

	mov	eax, -1
$LN6@PMC_Exclus:

; 402  :         return (result);
; 403  : #ifdef _DEBUG
; 404  :     if ((result = CheckNumber(*w)) != PMC_STATUS_OK)
; 405  :         return (result);
; 406  : #endif
; 407  :     return (PMC_STATUS_OK);
; 408  : }

	mov	rbx, QWORD PTR [rsp+48]
	mov	rsi, QWORD PTR [rsp+56]
	add	rsp, 32					; 00000020H
	pop	rdi
	ret	0
PMC_ExclusiveOr_X_L ENDP
_TEXT	ENDS
; Function compile flags: /Ogtpy
; File z:\sources\lunor\repos\rougemeilland\palmtree.math.core.implements\palmtree.math.core.implements\pmc_exclusiveor.c
;	COMDAT PMC_ExclusiveOr_X_I
_TEXT	SEGMENT
u$ = 48
v$ = 56
w$ = 64
PMC_ExclusiveOr_X_I PROC				; COMDAT

; 257  : {

$LN10:
	mov	QWORD PTR [rsp+8], rbx
	mov	QWORD PTR [rsp+16], rsi
	push	rdi
	sub	rsp, 32					; 00000020H
	mov	rdi, r8
	mov	esi, edx
	mov	rbx, rcx

; 258  :     if (__UNIT_TYPE_BIT_COUNT < sizeof(v) * 8)
; 259  :     {
; 260  :         // _UINT32_T が 1 ワードで表現しきれない処理系には対応しない
; 261  :         return (PMC_STATUS_INTERNAL_ERROR);
; 262  :     }
; 263  :     if (u == NULL)

	test	rcx, rcx
	je	SHORT $LN8@PMC_Exclus

; 264  :         return (PMC_STATUS_ARGUMENT_ERROR);
; 265  :     if (w == NULL)

	test	r8, r8
	je	SHORT $LN8@PMC_Exclus

; 267  :     NUMBER_HEADER* nu = (NUMBER_HEADER*)u;
; 268  :     PMC_STATUS_CODE result;
; 269  :     if ((result = CheckNumber(nu)) != PMC_STATUS_OK)

	call	CheckNumber
	test	eax, eax
	jne	SHORT $LN6@PMC_Exclus

; 270  :         return (result);
; 271  :     if ((result = PMC_ExclusiveOr_X_I_Imp((NUMBER_HEADER*)u, v, (NUMBER_HEADER**)w)) != PMC_STATUS_OK)

	mov	r8, rdi
	mov	edx, esi
	mov	rcx, rbx

; 272  :         return (result);
; 273  : #ifdef _DEBUG
; 274  :     if ((result = CheckNumber(*w)) != PMC_STATUS_OK)
; 275  :         return (result);
; 276  : #endif
; 277  :     return (PMC_STATUS_OK);
; 278  : }

	mov	rbx, QWORD PTR [rsp+48]
	mov	rsi, QWORD PTR [rsp+56]
	add	rsp, 32					; 00000020H
	pop	rdi

; 270  :         return (result);
; 271  :     if ((result = PMC_ExclusiveOr_X_I_Imp((NUMBER_HEADER*)u, v, (NUMBER_HEADER**)w)) != PMC_STATUS_OK)

	jmp	PMC_ExclusiveOr_X_I_Imp
$LN8@PMC_Exclus:

; 266  :         return (PMC_STATUS_ARGUMENT_ERROR);

	mov	eax, -1
$LN6@PMC_Exclus:

; 272  :         return (result);
; 273  : #ifdef _DEBUG
; 274  :     if ((result = CheckNumber(*w)) != PMC_STATUS_OK)
; 275  :         return (result);
; 276  : #endif
; 277  :     return (PMC_STATUS_OK);
; 278  : }

	mov	rbx, QWORD PTR [rsp+48]
	mov	rsi, QWORD PTR [rsp+56]
	add	rsp, 32					; 00000020H
	pop	rdi
	ret	0
PMC_ExclusiveOr_X_I ENDP
_TEXT	ENDS
; Function compile flags: /Ogtpy
; File z:\sources\lunor\repos\rougemeilland\palmtree.math.core.implements\palmtree.math.core.implements\pmc_exclusiveor.c
;	COMDAT PMC_ExclusiveOr_L_X
_TEXT	SEGMENT
u$ = 48
v$ = 56
w$ = 64
PMC_ExclusiveOr_L_X PROC				; COMDAT

; 363  : {

$LN10:
	mov	QWORD PTR [rsp+8], rbx
	mov	QWORD PTR [rsp+16], rsi
	push	rdi
	sub	rsp, 32					; 00000020H
	mov	rdi, r8
	mov	rbx, rdx
	mov	rsi, rcx

; 364  :     if (__UNIT_TYPE_BIT_COUNT * 2 < sizeof(u) * 8)
; 365  :     {
; 366  :         // _UINT64_T が 2 ワードで表現しきれない処理系には対応しない
; 367  :         return (PMC_STATUS_INTERNAL_ERROR);
; 368  :     }
; 369  :     if (v == NULL)

	test	rdx, rdx
	je	SHORT $LN8@PMC_Exclus

; 370  :         return (PMC_STATUS_ARGUMENT_ERROR);
; 371  :     if (w == NULL)

	test	r8, r8
	je	SHORT $LN8@PMC_Exclus

; 373  :     NUMBER_HEADER* nu = (NUMBER_HEADER*)v;
; 374  :     PMC_STATUS_CODE result;
; 375  :     if ((result = CheckNumber(nu)) != PMC_STATUS_OK)

	mov	rcx, rdx
	call	CheckNumber
	test	eax, eax
	jne	SHORT $LN6@PMC_Exclus

; 376  :         return (result);
; 377  :     if ((result = PMC_ExclusiveOr_X_L_Imp((NUMBER_HEADER*)v, u, (NUMBER_HEADER**)w)) != PMC_STATUS_OK)

	mov	r8, rdi
	mov	rdx, rsi
	mov	rcx, rbx

; 378  :         return (result);
; 379  : #ifdef _DEBUG
; 380  :     if ((result = CheckNumber(*w)) != PMC_STATUS_OK)
; 381  :         return (result);
; 382  : #endif
; 383  :     return (PMC_STATUS_OK);
; 384  : }

	mov	rbx, QWORD PTR [rsp+48]
	mov	rsi, QWORD PTR [rsp+56]
	add	rsp, 32					; 00000020H
	pop	rdi

; 376  :         return (result);
; 377  :     if ((result = PMC_ExclusiveOr_X_L_Imp((NUMBER_HEADER*)v, u, (NUMBER_HEADER**)w)) != PMC_STATUS_OK)

	jmp	PMC_ExclusiveOr_X_L_Imp
$LN8@PMC_Exclus:

; 372  :         return (PMC_STATUS_ARGUMENT_ERROR);

	mov	eax, -1
$LN6@PMC_Exclus:

; 378  :         return (result);
; 379  : #ifdef _DEBUG
; 380  :     if ((result = CheckNumber(*w)) != PMC_STATUS_OK)
; 381  :         return (result);
; 382  : #endif
; 383  :     return (PMC_STATUS_OK);
; 384  : }

	mov	rbx, QWORD PTR [rsp+48]
	mov	rsi, QWORD PTR [rsp+56]
	add	rsp, 32					; 00000020H
	pop	rdi
	ret	0
PMC_ExclusiveOr_L_X ENDP
_TEXT	ENDS
; Function compile flags: /Ogtpy
; File z:\sources\lunor\repos\rougemeilland\palmtree.math.core.implements\palmtree.math.core.implements\pmc_exclusiveor.c
;	COMDAT PMC_ExclusiveOr_I_X
_TEXT	SEGMENT
u$ = 48
v$ = 56
w$ = 64
PMC_ExclusiveOr_I_X PROC				; COMDAT

; 233  : {

$LN10:
	mov	QWORD PTR [rsp+8], rbx
	mov	QWORD PTR [rsp+16], rsi
	push	rdi
	sub	rsp, 32					; 00000020H
	mov	rdi, r8
	mov	rbx, rdx
	mov	esi, ecx

; 234  :     if (__UNIT_TYPE_BIT_COUNT < sizeof(u) * 8)
; 235  :     {
; 236  :         // _UINT32_T が 1 ワードで表現しきれない処理系には対応しない
; 237  :         return (PMC_STATUS_INTERNAL_ERROR);
; 238  :     }
; 239  :     if (v == NULL)

	test	rdx, rdx
	je	SHORT $LN8@PMC_Exclus

; 240  :         return (PMC_STATUS_ARGUMENT_ERROR);
; 241  :     if (w == NULL)

	test	r8, r8
	je	SHORT $LN8@PMC_Exclus

; 243  :     NUMBER_HEADER* nu = (NUMBER_HEADER*)v;
; 244  :     PMC_STATUS_CODE result;
; 245  :     if ((result = CheckNumber(nu)) != PMC_STATUS_OK)

	mov	rcx, rdx
	call	CheckNumber
	test	eax, eax
	jne	SHORT $LN6@PMC_Exclus

; 246  :         return (result);
; 247  :     if ((result = PMC_ExclusiveOr_X_I_Imp((NUMBER_HEADER*)v, u, (NUMBER_HEADER**)w)) != PMC_STATUS_OK)

	mov	r8, rdi
	mov	edx, esi
	mov	rcx, rbx

; 248  :         return (result);
; 249  : #ifdef _DEBUG
; 250  :     if ((result = CheckNumber(*w)) != PMC_STATUS_OK)
; 251  :         return (result);
; 252  : #endif
; 253  :     return (PMC_STATUS_OK);
; 254  : }

	mov	rbx, QWORD PTR [rsp+48]
	mov	rsi, QWORD PTR [rsp+56]
	add	rsp, 32					; 00000020H
	pop	rdi

; 246  :         return (result);
; 247  :     if ((result = PMC_ExclusiveOr_X_I_Imp((NUMBER_HEADER*)v, u, (NUMBER_HEADER**)w)) != PMC_STATUS_OK)

	jmp	PMC_ExclusiveOr_X_I_Imp
$LN8@PMC_Exclus:

; 242  :         return (PMC_STATUS_ARGUMENT_ERROR);

	mov	eax, -1
$LN6@PMC_Exclus:

; 248  :         return (result);
; 249  : #ifdef _DEBUG
; 250  :     if ((result = CheckNumber(*w)) != PMC_STATUS_OK)
; 251  :         return (result);
; 252  : #endif
; 253  :     return (PMC_STATUS_OK);
; 254  : }

	mov	rbx, QWORD PTR [rsp+48]
	mov	rsi, QWORD PTR [rsp+56]
	add	rsp, 32					; 00000020H
	pop	rdi
	ret	0
PMC_ExclusiveOr_I_X ENDP
_TEXT	ENDS
; Function compile flags: /Ogtpy
; File z:\sources\lunor\repos\rougemeilland\palmtree.math.core.implements\palmtree.math.core.implements\pmc_exclusiveor.c
;	COMDAT Initialize_ExclusiveOr
_TEXT	SEGMENT
feature$ = 8
Initialize_ExclusiveOr PROC				; COMDAT

; 470  :     return (PMC_STATUS_OK);

	xor	eax, eax

; 471  : }

	ret	0
Initialize_ExclusiveOr ENDP
_TEXT	ENDS
END
