; Listing generated by Microsoft (R) Optimizing Compiler Version 19.16.27026.1 

include listing.inc

INCLUDELIB MSVCRT
INCLUDELIB OLDNAMES

PUBLIC	Initialize_Add
PUBLIC	PMC_Add_X_I
PUBLIC	PMC_Add_X_L
PUBLIC	PMC_Add_X_X
EXTRN	CheckBlockLight:PROC
EXTRN	AllocateNumber:PROC
EXTRN	DeallocateNumber:PROC
EXTRN	CommitNumber:PROC
EXTRN	CheckNumber:PROC
EXTRN	DuplicateNumber:PROC
EXTRN	From_I_Imp:PROC
EXTRN	From_L_Imp:PROC
EXTRN	number_zero:BYTE
_BSS	SEGMENT
fp_Add_X_X_using_ADC DQ 01H DUP (?)
_BSS	ENDS
;	COMDAT pdata
pdata	SEGMENT
$pdata$PMC_Add_X_I DD imagerel $LN26
	DD	imagerel $LN26+355
	DD	imagerel $unwind$PMC_Add_X_I
pdata	ENDS
;	COMDAT pdata
pdata	SEGMENT
$pdata$PMC_Add_X_L DD imagerel $LN61
	DD	imagerel $LN61+346
	DD	imagerel $unwind$PMC_Add_X_L
pdata	ENDS
;	COMDAT pdata
pdata	SEGMENT
$pdata$PMC_Add_X_X DD imagerel $LN26
	DD	imagerel $LN26+373
	DD	imagerel $unwind$PMC_Add_X_X
pdata	ENDS
;	COMDAT pdata
pdata	SEGMENT
$pdata$Add_X_1W DD imagerel Add_X_1W
	DD	imagerel Add_X_1W+65
	DD	imagerel $unwind$Add_X_1W
pdata	ENDS
;	COMDAT pdata
pdata	SEGMENT
$pdata$Add_X_2W DD imagerel Add_X_2W
	DD	imagerel Add_X_2W+125
	DD	imagerel $unwind$Add_X_2W
pdata	ENDS
;	COMDAT pdata
pdata	SEGMENT
$pdata$Add_X_X_using_ADC DD imagerel Add_X_X_using_ADC
	DD	imagerel Add_X_X_using_ADC+983
	DD	imagerel $unwind$Add_X_X_using_ADC
pdata	ENDS
;	COMDAT pdata
pdata	SEGMENT
$pdata$Add_X_X_using_ADCX DD imagerel Add_X_X_using_ADCX
	DD	imagerel Add_X_X_using_ADCX+509
	DD	imagerel $unwind$Add_X_X_using_ADCX
pdata	ENDS
;	COMDAT xdata
xdata	SEGMENT
$unwind$Add_X_X_using_ADCX DD 081401H
	DD	0a6414H
	DD	095414H
	DD	083414H
	DD	070105214H
xdata	ENDS
;	COMDAT xdata
xdata	SEGMENT
$unwind$Add_X_X_using_ADC DD 060f01H
	DD	09640fH
	DD	08340fH
	DD	0700b520fH
xdata	ENDS
;	COMDAT xdata
xdata	SEGMENT
$unwind$Add_X_2W DD 020601H
	DD	030025206H
xdata	ENDS
;	COMDAT xdata
xdata	SEGMENT
$unwind$Add_X_1W DD 020601H
	DD	030025206H
xdata	ENDS
;	COMDAT xdata
xdata	SEGMENT
$unwind$PMC_Add_X_X DD 060f01H
	DD	08640fH
	DD	07340fH
	DD	0700b320fH
xdata	ENDS
;	COMDAT xdata
xdata	SEGMENT
$unwind$PMC_Add_X_L DD 060f01H
	DD	08640fH
	DD	07340fH
	DD	0700b320fH
xdata	ENDS
;	COMDAT xdata
xdata	SEGMENT
$unwind$PMC_Add_X_I DD 060f01H
	DD	08640fH
	DD	07340fH
	DD	0700b320fH
xdata	ENDS
; Function compile flags: /Ogtpy
; File z:\sources\lunor\repos\rougemeilland\palmtree.math.core.implements\palmtree.math.core.implements\pmc_add.c
;	COMDAT Add_X_X
_TEXT	SEGMENT
x$ = 8
y$ = 16
z$ = 24
Add_X_X	PROC						; COMDAT

; 308  :     return ((*fp_Add_X_X_using_ADC)(x, y, z));

	rex_jmp	QWORD PTR fp_Add_X_X_using_ADC
Add_X_X	ENDP
_TEXT	ENDS
; Function compile flags: /Ogtpy
; File z:\sources\lunor\repos\rougemeilland\palmtree.math.core.implements\palmtree.math.core.implements\pmc_add.c
; File z:\sources\lunor\repos\rougemeilland\palmtree.math.core.implements\palmtree.math.core.implements\autogenerated_inline_func.h
; File z:\sources\lunor\repos\rougemeilland\palmtree.math.core.implements\palmtree.math.core.implements\pmc_internal.h
; File z:\sources\lunor\repos\rougemeilland\palmtree.math.core.implements\palmtree.math.core.implements\autogenerated_inline_func.h
; File z:\sources\lunor\repos\rougemeilland\palmtree.math.core.implements\palmtree.math.core.implements\pmc_internal.h
; File z:\sources\lunor\repos\rougemeilland\palmtree.math.core.implements\palmtree.math.core.implements\autogenerated_inline_func.h
; File z:\sources\lunor\repos\rougemeilland\palmtree.math.core.implements\palmtree.math.core.implements\pmc_internal.h
; File z:\sources\lunor\repos\rougemeilland\palmtree.math.core.implements\palmtree.math.core.implements\autogenerated_inline_func.h
; File z:\sources\lunor\repos\rougemeilland\palmtree.math.core.implements\palmtree.math.core.implements\pmc_internal.h
; File z:\sources\lunor\repos\rougemeilland\palmtree.math.core.implements\palmtree.math.core.implements\autogenerated_inline_func.h
; File z:\sources\lunor\repos\rougemeilland\palmtree.math.core.implements\palmtree.math.core.implements\pmc_internal.h
; File z:\sources\lunor\repos\rougemeilland\palmtree.math.core.implements\palmtree.math.core.implements\autogenerated_inline_func.h
; File z:\sources\lunor\repos\rougemeilland\palmtree.math.core.implements\palmtree.math.core.implements\pmc_internal.h
; File z:\sources\lunor\repos\rougemeilland\palmtree.math.core.implements\palmtree.math.core.implements\autogenerated_inline_func.h
; File z:\sources\lunor\repos\rougemeilland\palmtree.math.core.implements\palmtree.math.core.implements\pmc_internal.h
; File z:\sources\lunor\repos\rougemeilland\palmtree.math.core.implements\palmtree.math.core.implements\autogenerated_inline_func.h
; File z:\sources\lunor\repos\rougemeilland\palmtree.math.core.implements\palmtree.math.core.implements\pmc_internal.h
; File z:\sources\lunor\repos\rougemeilland\palmtree.math.core.implements\palmtree.math.core.implements\pmc_add.c
; File z:\sources\lunor\repos\rougemeilland\palmtree.math.core.implements\palmtree.math.core.implements\autogenerated_inline_func.h
; File z:\sources\lunor\repos\rougemeilland\palmtree.math.core.implements\palmtree.math.core.implements\pmc_internal.h
; File z:\sources\lunor\repos\rougemeilland\palmtree.math.core.implements\palmtree.math.core.implements\autogenerated_inline_func.h
; File z:\sources\lunor\repos\rougemeilland\palmtree.math.core.implements\palmtree.math.core.implements\pmc_internal.h
; File z:\sources\lunor\repos\rougemeilland\palmtree.math.core.implements\palmtree.math.core.implements\autogenerated_inline_func.h
; File z:\sources\lunor\repos\rougemeilland\palmtree.math.core.implements\palmtree.math.core.implements\pmc_internal.h
; File z:\sources\lunor\repos\rougemeilland\palmtree.math.core.implements\palmtree.math.core.implements\autogenerated_inline_func.h
; File z:\sources\lunor\repos\rougemeilland\palmtree.math.core.implements\palmtree.math.core.implements\pmc_internal.h
; File z:\sources\lunor\repos\rougemeilland\palmtree.math.core.implements\palmtree.math.core.implements\pmc_add.c
; File z:\sources\lunor\repos\rougemeilland\palmtree.math.core.implements\palmtree.math.core.implements\autogenerated_inline_func.h
; File z:\sources\lunor\repos\rougemeilland\palmtree.math.core.implements\palmtree.math.core.implements\pmc_internal.h
; File z:\sources\lunor\repos\rougemeilland\palmtree.math.core.implements\palmtree.math.core.implements\autogenerated_inline_func.h
; File z:\sources\lunor\repos\rougemeilland\palmtree.math.core.implements\palmtree.math.core.implements\pmc_internal.h
; File z:\sources\lunor\repos\rougemeilland\palmtree.math.core.implements\palmtree.math.core.implements\pmc_add.c
; File z:\sources\lunor\repos\rougemeilland\palmtree.math.core.implements\palmtree.math.core.implements\pmc_internal.h
; File z:\sources\lunor\repos\rougemeilland\palmtree.math.core.implements\palmtree.math.core.implements\pmc_add.c
;	COMDAT Add_X_X_using_ADCX
_TEXT	SEGMENT
x$ = 64
y$ = 72
z$ = 80
Add_X_X_using_ADCX PROC					; COMDAT

; 230  : {

	mov	QWORD PTR [rsp+8], rbx
	mov	QWORD PTR [rsp+16], rbp
	mov	QWORD PTR [rsp+24], rsi
	push	rdi
	sub	rsp, 48					; 00000030H
	mov	r10, QWORD PTR [rcx]

; 231  :     // x のワード長が y のワード長以上であるようにする
; 232  :     if (x->UNIT_WORD_COUNT < y->UNIT_WORD_COUNT)
; 233  :     {
; 234  :         NUMBER_HEADER* t = x;
; 235  :         x = y;
; 236  :         y = t;
; 237  :     }
; 238  :     __UNIT_TYPE x_count = x->UNIT_WORD_COUNT;

	mov	rax, rdx
	mov	r9, QWORD PTR [rdx]
	mov	rdi, r10

; 239  :     __UNIT_TYPE y_count = y->UNIT_WORD_COUNT;
; 240  :     __UNIT_TYPE z_count = z->BLOCK_COUNT;

	mov	rbp, QWORD PTR [r8+40]
	cmp	r10, r9
	mov	rsi, r9
	cmovae	rax, rcx
	cmovae	rdi, r9

; 241  :     __UNIT_TYPE* xp = &x->BLOCK[0];
; 242  :     __UNIT_TYPE* yp = &y->BLOCK[0];
; 243  :     __UNIT_TYPE* zp = &z->BLOCK[0];

	mov	r9, QWORD PTR [r8+48]
	cmovae	rcx, rdx
	cmovae	rsi, r10

; 244  :     char c = 0;
; 245  : 
; 246  :     // まず 32 ワードずつ加算をする。
; 247  :     __UNIT_TYPE count = y_count >> 5;

	mov	rbx, rdi
	shr	rbx, 5
	mov	r11, QWORD PTR [rax+48]
	mov	r10, QWORD PTR [rcx+48]
	xor	cl, cl

; 248  :     while (count != 0)

	test	rbx, rbx
	je	SHORT $LN3@Add_X_X_us
$LL2@Add_X_X_us:

; 249  :     {
; 250  :         c = _ADD_32WORDS_ADCX(c, xp, yp, zp);

	mov	r8, r10
	mov	rdx, r11
	call	_ADD_32WORDS_ADCX

; 251  :         xp += 32;

	add	r11, 256				; 00000100H

; 252  :         yp += 32;

	add	r10, 256				; 00000100H

; 253  :         zp += 32;

	add	r9, 256					; 00000100H
	movzx	ecx, al

; 254  :         --count;

	sub	rbx, 1
	jne	SHORT $LL2@Add_X_X_us
$LN3@Add_X_X_us:

; 255  :     }
; 256  :     // この時点で未処理の桁は 32 ワード未満のはず
; 257  : 
; 258  :     // 未処理の桁が 16 ワード以上あるなら 16 ワード加算を行う。
; 259  :     if (y_count & 0x10)

	test	dil, 16
	je	SHORT $LN5@Add_X_X_us

; 260  :     {
; 261  :         c = _ADD_16WORDS_ADCX(c, xp, yp, zp);

	mov	r8, r10
	mov	rdx, r11
	call	_ADD_16WORDS_ADCX

; 262  :         xp += 16;

	sub	r11, -128				; ffffffffffffff80H

; 263  :         yp += 16;

	sub	r10, -128				; ffffffffffffff80H

; 264  :         zp += 16;

	sub	r9, -128				; ffffffffffffff80H
	movzx	ecx, al
$LN5@Add_X_X_us:

; 265  :     }
; 266  :     // この時点で未処理の桁は 16 ワード未満のはず
; 267  : 
; 268  :     // 未処理の桁が 8 ワード以上あるなら 8 ワード加算を行う。
; 269  :     if (y_count & 0x8)

	test	dil, 8
	je	$LN6@Add_X_X_us
; File z:\sources\lunor\repos\rougemeilland\palmtree.math.core.implements\palmtree.math.core.implements\autogenerated_inline_func.h

; 3284 :     c = _ADDX_UNIT(c, xp[0], yp[0], &zp[0]);

	mov	rax, QWORD PTR [r11]
; File z:\sources\lunor\repos\rougemeilland\palmtree.math.core.implements\palmtree.math.core.implements\pmc_internal.h

; 475  :     return (_addcarryx_u64(carry, u, v, w));

	add	cl, -1
	adcx	rax, QWORD PTR [r10]
	mov	QWORD PTR [r9], rax
; File z:\sources\lunor\repos\rougemeilland\palmtree.math.core.implements\palmtree.math.core.implements\autogenerated_inline_func.h

; 3285 :     c = _ADDX_UNIT(c, xp[1], yp[1], &zp[1]);

	mov	rax, QWORD PTR [r11+8]
; File z:\sources\lunor\repos\rougemeilland\palmtree.math.core.implements\palmtree.math.core.implements\pmc_internal.h

; 475  :     return (_addcarryx_u64(carry, u, v, w));

	adcx	rax, QWORD PTR [r10+8]
	mov	QWORD PTR [r9+8], rax
; File z:\sources\lunor\repos\rougemeilland\palmtree.math.core.implements\palmtree.math.core.implements\autogenerated_inline_func.h

; 3286 :     c = _ADDX_UNIT(c, xp[2], yp[2], &zp[2]);

	mov	rax, QWORD PTR [r11+16]
; File z:\sources\lunor\repos\rougemeilland\palmtree.math.core.implements\palmtree.math.core.implements\pmc_internal.h

; 475  :     return (_addcarryx_u64(carry, u, v, w));

	adcx	rax, QWORD PTR [r10+16]
	mov	QWORD PTR [r9+16], rax
; File z:\sources\lunor\repos\rougemeilland\palmtree.math.core.implements\palmtree.math.core.implements\autogenerated_inline_func.h

; 3287 :     c = _ADDX_UNIT(c, xp[3], yp[3], &zp[3]);

	mov	rax, QWORD PTR [r11+24]
; File z:\sources\lunor\repos\rougemeilland\palmtree.math.core.implements\palmtree.math.core.implements\pmc_internal.h

; 475  :     return (_addcarryx_u64(carry, u, v, w));

	adcx	rax, QWORD PTR [r10+24]
	mov	QWORD PTR [r9+24], rax
; File z:\sources\lunor\repos\rougemeilland\palmtree.math.core.implements\palmtree.math.core.implements\autogenerated_inline_func.h

; 3288 :     c = _ADDX_UNIT(c, xp[4], yp[4], &zp[4]);

	mov	rax, QWORD PTR [r11+32]
; File z:\sources\lunor\repos\rougemeilland\palmtree.math.core.implements\palmtree.math.core.implements\pmc_internal.h

; 475  :     return (_addcarryx_u64(carry, u, v, w));

	adcx	rax, QWORD PTR [r10+32]
	mov	QWORD PTR [r9+32], rax
; File z:\sources\lunor\repos\rougemeilland\palmtree.math.core.implements\palmtree.math.core.implements\autogenerated_inline_func.h

; 3289 :     c = _ADDX_UNIT(c, xp[5], yp[5], &zp[5]);

	mov	rax, QWORD PTR [r11+40]
; File z:\sources\lunor\repos\rougemeilland\palmtree.math.core.implements\palmtree.math.core.implements\pmc_internal.h

; 475  :     return (_addcarryx_u64(carry, u, v, w));

	adcx	rax, QWORD PTR [r10+40]
	mov	QWORD PTR [r9+40], rax
; File z:\sources\lunor\repos\rougemeilland\palmtree.math.core.implements\palmtree.math.core.implements\autogenerated_inline_func.h

; 3290 :     c = _ADDX_UNIT(c, xp[6], yp[6], &zp[6]);

	mov	rax, QWORD PTR [r11+48]
; File z:\sources\lunor\repos\rougemeilland\palmtree.math.core.implements\palmtree.math.core.implements\pmc_internal.h

; 475  :     return (_addcarryx_u64(carry, u, v, w));

	adcx	rax, QWORD PTR [r10+48]
	mov	QWORD PTR [r9+48], rax
; File z:\sources\lunor\repos\rougemeilland\palmtree.math.core.implements\palmtree.math.core.implements\autogenerated_inline_func.h

; 3291 :     c = _ADDX_UNIT(c, xp[7], yp[7], &zp[7]);

	mov	rax, QWORD PTR [r11+56]
; File z:\sources\lunor\repos\rougemeilland\palmtree.math.core.implements\palmtree.math.core.implements\pmc_internal.h

; 475  :     return (_addcarryx_u64(carry, u, v, w));

	adcx	rax, QWORD PTR [r10+56]
	mov	QWORD PTR [r9+56], rax
	setb	cl
; File z:\sources\lunor\repos\rougemeilland\palmtree.math.core.implements\palmtree.math.core.implements\pmc_add.c

; 272  :         xp += 8;

	add	r11, 64					; 00000040H

; 273  :         yp += 8;

	add	r10, 64					; 00000040H

; 274  :         zp += 8;

	add	r9, 64					; 00000040H
$LN6@Add_X_X_us:

; 275  :     }
; 276  :     // この時点で未処理の桁は 8 ワード未満のはず
; 277  : 
; 278  :     // 未処理の桁が 4 ワード以上あるなら 4 ワード加算を行う。
; 279  :     if (y_count & 0x4)

	test	dil, 4
	je	SHORT $LN7@Add_X_X_us
; File z:\sources\lunor\repos\rougemeilland\palmtree.math.core.implements\palmtree.math.core.implements\autogenerated_inline_func.h

; 3936 :     c = _ADDX_UNIT(c, xp[0], yp[0], &zp[0]);

	mov	rax, QWORD PTR [r11]
; File z:\sources\lunor\repos\rougemeilland\palmtree.math.core.implements\palmtree.math.core.implements\pmc_internal.h

; 475  :     return (_addcarryx_u64(carry, u, v, w));

	add	cl, -1
	adcx	rax, QWORD PTR [r10]
	mov	QWORD PTR [r9], rax
; File z:\sources\lunor\repos\rougemeilland\palmtree.math.core.implements\palmtree.math.core.implements\autogenerated_inline_func.h

; 3937 :     c = _ADDX_UNIT(c, xp[1], yp[1], &zp[1]);

	mov	rax, QWORD PTR [r11+8]
; File z:\sources\lunor\repos\rougemeilland\palmtree.math.core.implements\palmtree.math.core.implements\pmc_internal.h

; 475  :     return (_addcarryx_u64(carry, u, v, w));

	adcx	rax, QWORD PTR [r10+8]
	mov	QWORD PTR [r9+8], rax
; File z:\sources\lunor\repos\rougemeilland\palmtree.math.core.implements\palmtree.math.core.implements\autogenerated_inline_func.h

; 3938 :     c = _ADDX_UNIT(c, xp[2], yp[2], &zp[2]);

	mov	rax, QWORD PTR [r11+16]
; File z:\sources\lunor\repos\rougemeilland\palmtree.math.core.implements\palmtree.math.core.implements\pmc_internal.h

; 475  :     return (_addcarryx_u64(carry, u, v, w));

	adcx	rax, QWORD PTR [r10+16]
	mov	QWORD PTR [r9+16], rax
; File z:\sources\lunor\repos\rougemeilland\palmtree.math.core.implements\palmtree.math.core.implements\autogenerated_inline_func.h

; 3939 :     c = _ADDX_UNIT(c, xp[3], yp[3], &zp[3]);

	mov	rax, QWORD PTR [r11+24]
; File z:\sources\lunor\repos\rougemeilland\palmtree.math.core.implements\palmtree.math.core.implements\pmc_internal.h

; 475  :     return (_addcarryx_u64(carry, u, v, w));

	adcx	rax, QWORD PTR [r10+24]
	mov	QWORD PTR [r9+24], rax
	setb	cl
; File z:\sources\lunor\repos\rougemeilland\palmtree.math.core.implements\palmtree.math.core.implements\pmc_add.c

; 282  :         xp += 4;

	add	r11, 32					; 00000020H

; 283  :         yp += 4;

	add	r10, 32					; 00000020H

; 284  :         zp += 4;

	add	r9, 32					; 00000020H
$LN7@Add_X_X_us:

; 285  :     }
; 286  :     // この時点で未処理の桁は 4 ワード未満のはず
; 287  : 
; 288  :     // 未処理の桁が 2 ワード以上あるなら 2 ワード加算を行う。
; 289  :     if (y_count & 0x2)

	test	dil, 2
	je	SHORT $LN8@Add_X_X_us
; File z:\sources\lunor\repos\rougemeilland\palmtree.math.core.implements\palmtree.math.core.implements\autogenerated_inline_func.h

; 4378 :     c = _ADDX_UNIT(c, xp[0], yp[0], &zp[0]);

	mov	rax, QWORD PTR [r11]
; File z:\sources\lunor\repos\rougemeilland\palmtree.math.core.implements\palmtree.math.core.implements\pmc_internal.h

; 475  :     return (_addcarryx_u64(carry, u, v, w));

	add	cl, -1
	adcx	rax, QWORD PTR [r10]
	mov	QWORD PTR [r9], rax
; File z:\sources\lunor\repos\rougemeilland\palmtree.math.core.implements\palmtree.math.core.implements\autogenerated_inline_func.h

; 4379 :     c = _ADDX_UNIT(c, xp[1], yp[1], &zp[1]);

	mov	rax, QWORD PTR [r11+8]
; File z:\sources\lunor\repos\rougemeilland\palmtree.math.core.implements\palmtree.math.core.implements\pmc_internal.h

; 475  :     return (_addcarryx_u64(carry, u, v, w));

	adcx	rax, QWORD PTR [r10+8]
	mov	QWORD PTR [r9+8], rax
	setb	cl
; File z:\sources\lunor\repos\rougemeilland\palmtree.math.core.implements\palmtree.math.core.implements\pmc_add.c

; 292  :         xp += 2;

	add	r11, 16

; 293  :         yp += 2;

	add	r10, 16

; 294  :         zp += 2;

	add	r9, 16
$LN8@Add_X_X_us:

; 295  :     }
; 296  :     // この時点で未処理の桁は 2 ワード未満のはず
; 297  : 
; 298  :     // 未処理の桁が 1 ワード以上あるなら 1 ワード加算を行う。
; 299  :     if (y_count & 0x1)

	test	dil, 1
	je	SHORT $LN9@Add_X_X_us

; 300  :         c = _ADDX_UNIT(c, *xp++, *yp++, zp++);

	mov	rax, QWORD PTR [r11]
; File z:\sources\lunor\repos\rougemeilland\palmtree.math.core.implements\palmtree.math.core.implements\pmc_internal.h

; 475  :     return (_addcarryx_u64(carry, u, v, w));

	add	cl, -1
	adcx	rax, QWORD PTR [r10]
	mov	QWORD PTR [r9], rax
	setb	cl
; File z:\sources\lunor\repos\rougemeilland\palmtree.math.core.implements\palmtree.math.core.implements\pmc_add.c

; 300  :         c = _ADDX_UNIT(c, *xp++, *yp++, zp++);

	add	r11, 8
	add	r9, 8
$LN9@Add_X_X_us:

; 301  : 
; 302  :     // 残りの桁の繰り上がりを計算し、復帰する。
; 303  :     return (DoCarry(c, xp, x_count - y_count, zp, z_count - y_count));

	sub	rsi, rdi
	sub	rbp, rdi
	mov	r8, rsi
	mov	QWORD PTR [rsp+32], rbp
	mov	rdx, r11
	call	DoCarry

; 304  : }

	mov	rbx, QWORD PTR [rsp+64]
	mov	rbp, QWORD PTR [rsp+72]
	mov	rsi, QWORD PTR [rsp+80]
	add	rsp, 48					; 00000030H
	pop	rdi
	ret	0
Add_X_X_using_ADCX ENDP
_TEXT	ENDS
; Function compile flags: /Ogtpy
; File z:\sources\lunor\repos\rougemeilland\palmtree.math.core.implements\palmtree.math.core.implements\pmc_add.c
; File z:\sources\lunor\repos\rougemeilland\palmtree.math.core.implements\palmtree.math.core.implements\autogenerated_inline_func.h
; File z:\sources\lunor\repos\rougemeilland\palmtree.math.core.implements\palmtree.math.core.implements\pmc_internal.h
; File z:\sources\lunor\repos\rougemeilland\palmtree.math.core.implements\palmtree.math.core.implements\autogenerated_inline_func.h
; File z:\sources\lunor\repos\rougemeilland\palmtree.math.core.implements\palmtree.math.core.implements\pmc_internal.h
; File z:\sources\lunor\repos\rougemeilland\palmtree.math.core.implements\palmtree.math.core.implements\autogenerated_inline_func.h
; File z:\sources\lunor\repos\rougemeilland\palmtree.math.core.implements\palmtree.math.core.implements\pmc_internal.h
; File z:\sources\lunor\repos\rougemeilland\palmtree.math.core.implements\palmtree.math.core.implements\autogenerated_inline_func.h
; File z:\sources\lunor\repos\rougemeilland\palmtree.math.core.implements\palmtree.math.core.implements\pmc_internal.h
; File z:\sources\lunor\repos\rougemeilland\palmtree.math.core.implements\palmtree.math.core.implements\autogenerated_inline_func.h
; File z:\sources\lunor\repos\rougemeilland\palmtree.math.core.implements\palmtree.math.core.implements\pmc_internal.h
; File z:\sources\lunor\repos\rougemeilland\palmtree.math.core.implements\palmtree.math.core.implements\autogenerated_inline_func.h
; File z:\sources\lunor\repos\rougemeilland\palmtree.math.core.implements\palmtree.math.core.implements\pmc_internal.h
; File z:\sources\lunor\repos\rougemeilland\palmtree.math.core.implements\palmtree.math.core.implements\autogenerated_inline_func.h
; File z:\sources\lunor\repos\rougemeilland\palmtree.math.core.implements\palmtree.math.core.implements\pmc_internal.h
; File z:\sources\lunor\repos\rougemeilland\palmtree.math.core.implements\palmtree.math.core.implements\autogenerated_inline_func.h
; File z:\sources\lunor\repos\rougemeilland\palmtree.math.core.implements\palmtree.math.core.implements\pmc_internal.h
; File z:\sources\lunor\repos\rougemeilland\palmtree.math.core.implements\palmtree.math.core.implements\autogenerated_inline_func.h
; File z:\sources\lunor\repos\rougemeilland\palmtree.math.core.implements\palmtree.math.core.implements\pmc_internal.h
; File z:\sources\lunor\repos\rougemeilland\palmtree.math.core.implements\palmtree.math.core.implements\autogenerated_inline_func.h
; File z:\sources\lunor\repos\rougemeilland\palmtree.math.core.implements\palmtree.math.core.implements\pmc_internal.h
; File z:\sources\lunor\repos\rougemeilland\palmtree.math.core.implements\palmtree.math.core.implements\autogenerated_inline_func.h
; File z:\sources\lunor\repos\rougemeilland\palmtree.math.core.implements\palmtree.math.core.implements\pmc_internal.h
; File z:\sources\lunor\repos\rougemeilland\palmtree.math.core.implements\palmtree.math.core.implements\autogenerated_inline_func.h
; File z:\sources\lunor\repos\rougemeilland\palmtree.math.core.implements\palmtree.math.core.implements\pmc_internal.h
; File z:\sources\lunor\repos\rougemeilland\palmtree.math.core.implements\palmtree.math.core.implements\autogenerated_inline_func.h
; File z:\sources\lunor\repos\rougemeilland\palmtree.math.core.implements\palmtree.math.core.implements\pmc_internal.h
; File z:\sources\lunor\repos\rougemeilland\palmtree.math.core.implements\palmtree.math.core.implements\autogenerated_inline_func.h
; File z:\sources\lunor\repos\rougemeilland\palmtree.math.core.implements\palmtree.math.core.implements\pmc_internal.h
; File z:\sources\lunor\repos\rougemeilland\palmtree.math.core.implements\palmtree.math.core.implements\autogenerated_inline_func.h
; File z:\sources\lunor\repos\rougemeilland\palmtree.math.core.implements\palmtree.math.core.implements\pmc_internal.h
; File z:\sources\lunor\repos\rougemeilland\palmtree.math.core.implements\palmtree.math.core.implements\autogenerated_inline_func.h
; File z:\sources\lunor\repos\rougemeilland\palmtree.math.core.implements\palmtree.math.core.implements\pmc_internal.h
; File z:\sources\lunor\repos\rougemeilland\palmtree.math.core.implements\palmtree.math.core.implements\autogenerated_inline_func.h
; File z:\sources\lunor\repos\rougemeilland\palmtree.math.core.implements\palmtree.math.core.implements\pmc_internal.h
; File z:\sources\lunor\repos\rougemeilland\palmtree.math.core.implements\palmtree.math.core.implements\autogenerated_inline_func.h
; File z:\sources\lunor\repos\rougemeilland\palmtree.math.core.implements\palmtree.math.core.implements\pmc_internal.h
; File z:\sources\lunor\repos\rougemeilland\palmtree.math.core.implements\palmtree.math.core.implements\autogenerated_inline_func.h
; File z:\sources\lunor\repos\rougemeilland\palmtree.math.core.implements\palmtree.math.core.implements\pmc_internal.h
; File z:\sources\lunor\repos\rougemeilland\palmtree.math.core.implements\palmtree.math.core.implements\autogenerated_inline_func.h
; File z:\sources\lunor\repos\rougemeilland\palmtree.math.core.implements\palmtree.math.core.implements\pmc_internal.h
; File z:\sources\lunor\repos\rougemeilland\palmtree.math.core.implements\palmtree.math.core.implements\autogenerated_inline_func.h
; File z:\sources\lunor\repos\rougemeilland\palmtree.math.core.implements\palmtree.math.core.implements\pmc_internal.h
; File z:\sources\lunor\repos\rougemeilland\palmtree.math.core.implements\palmtree.math.core.implements\autogenerated_inline_func.h
; File z:\sources\lunor\repos\rougemeilland\palmtree.math.core.implements\palmtree.math.core.implements\pmc_internal.h
; File z:\sources\lunor\repos\rougemeilland\palmtree.math.core.implements\palmtree.math.core.implements\autogenerated_inline_func.h
; File z:\sources\lunor\repos\rougemeilland\palmtree.math.core.implements\palmtree.math.core.implements\pmc_internal.h
; File z:\sources\lunor\repos\rougemeilland\palmtree.math.core.implements\palmtree.math.core.implements\autogenerated_inline_func.h
; File z:\sources\lunor\repos\rougemeilland\palmtree.math.core.implements\palmtree.math.core.implements\pmc_internal.h
; File z:\sources\lunor\repos\rougemeilland\palmtree.math.core.implements\palmtree.math.core.implements\autogenerated_inline_func.h
; File z:\sources\lunor\repos\rougemeilland\palmtree.math.core.implements\palmtree.math.core.implements\pmc_internal.h
; File z:\sources\lunor\repos\rougemeilland\palmtree.math.core.implements\palmtree.math.core.implements\autogenerated_inline_func.h
; File z:\sources\lunor\repos\rougemeilland\palmtree.math.core.implements\palmtree.math.core.implements\pmc_internal.h
; File z:\sources\lunor\repos\rougemeilland\palmtree.math.core.implements\palmtree.math.core.implements\autogenerated_inline_func.h
; File z:\sources\lunor\repos\rougemeilland\palmtree.math.core.implements\palmtree.math.core.implements\pmc_internal.h
; File z:\sources\lunor\repos\rougemeilland\palmtree.math.core.implements\palmtree.math.core.implements\autogenerated_inline_func.h
; File z:\sources\lunor\repos\rougemeilland\palmtree.math.core.implements\palmtree.math.core.implements\pmc_internal.h
; File z:\sources\lunor\repos\rougemeilland\palmtree.math.core.implements\palmtree.math.core.implements\autogenerated_inline_func.h
; File z:\sources\lunor\repos\rougemeilland\palmtree.math.core.implements\palmtree.math.core.implements\pmc_internal.h
; File z:\sources\lunor\repos\rougemeilland\palmtree.math.core.implements\palmtree.math.core.implements\autogenerated_inline_func.h
; File z:\sources\lunor\repos\rougemeilland\palmtree.math.core.implements\palmtree.math.core.implements\pmc_internal.h
; File z:\sources\lunor\repos\rougemeilland\palmtree.math.core.implements\palmtree.math.core.implements\autogenerated_inline_func.h
; File z:\sources\lunor\repos\rougemeilland\palmtree.math.core.implements\palmtree.math.core.implements\pmc_internal.h
; File z:\sources\lunor\repos\rougemeilland\palmtree.math.core.implements\palmtree.math.core.implements\autogenerated_inline_func.h
; File z:\sources\lunor\repos\rougemeilland\palmtree.math.core.implements\palmtree.math.core.implements\pmc_internal.h
; File z:\sources\lunor\repos\rougemeilland\palmtree.math.core.implements\palmtree.math.core.implements\pmc_add.c
; File z:\sources\lunor\repos\rougemeilland\palmtree.math.core.implements\palmtree.math.core.implements\autogenerated_inline_func.h
; File z:\sources\lunor\repos\rougemeilland\palmtree.math.core.implements\palmtree.math.core.implements\pmc_internal.h
; File z:\sources\lunor\repos\rougemeilland\palmtree.math.core.implements\palmtree.math.core.implements\autogenerated_inline_func.h
; File z:\sources\lunor\repos\rougemeilland\palmtree.math.core.implements\palmtree.math.core.implements\pmc_internal.h
; File z:\sources\lunor\repos\rougemeilland\palmtree.math.core.implements\palmtree.math.core.implements\autogenerated_inline_func.h
; File z:\sources\lunor\repos\rougemeilland\palmtree.math.core.implements\palmtree.math.core.implements\pmc_internal.h
; File z:\sources\lunor\repos\rougemeilland\palmtree.math.core.implements\palmtree.math.core.implements\autogenerated_inline_func.h
; File z:\sources\lunor\repos\rougemeilland\palmtree.math.core.implements\palmtree.math.core.implements\pmc_internal.h
; File z:\sources\lunor\repos\rougemeilland\palmtree.math.core.implements\palmtree.math.core.implements\autogenerated_inline_func.h
; File z:\sources\lunor\repos\rougemeilland\palmtree.math.core.implements\palmtree.math.core.implements\pmc_internal.h
; File z:\sources\lunor\repos\rougemeilland\palmtree.math.core.implements\palmtree.math.core.implements\autogenerated_inline_func.h
; File z:\sources\lunor\repos\rougemeilland\palmtree.math.core.implements\palmtree.math.core.implements\pmc_internal.h
; File z:\sources\lunor\repos\rougemeilland\palmtree.math.core.implements\palmtree.math.core.implements\autogenerated_inline_func.h
; File z:\sources\lunor\repos\rougemeilland\palmtree.math.core.implements\palmtree.math.core.implements\pmc_internal.h
; File z:\sources\lunor\repos\rougemeilland\palmtree.math.core.implements\palmtree.math.core.implements\autogenerated_inline_func.h
; File z:\sources\lunor\repos\rougemeilland\palmtree.math.core.implements\palmtree.math.core.implements\pmc_internal.h
; File z:\sources\lunor\repos\rougemeilland\palmtree.math.core.implements\palmtree.math.core.implements\pmc_add.c
; File z:\sources\lunor\repos\rougemeilland\palmtree.math.core.implements\palmtree.math.core.implements\autogenerated_inline_func.h
; File z:\sources\lunor\repos\rougemeilland\palmtree.math.core.implements\palmtree.math.core.implements\pmc_internal.h
; File z:\sources\lunor\repos\rougemeilland\palmtree.math.core.implements\palmtree.math.core.implements\autogenerated_inline_func.h
; File z:\sources\lunor\repos\rougemeilland\palmtree.math.core.implements\palmtree.math.core.implements\pmc_internal.h
; File z:\sources\lunor\repos\rougemeilland\palmtree.math.core.implements\palmtree.math.core.implements\autogenerated_inline_func.h
; File z:\sources\lunor\repos\rougemeilland\palmtree.math.core.implements\palmtree.math.core.implements\pmc_internal.h
; File z:\sources\lunor\repos\rougemeilland\palmtree.math.core.implements\palmtree.math.core.implements\autogenerated_inline_func.h
; File z:\sources\lunor\repos\rougemeilland\palmtree.math.core.implements\palmtree.math.core.implements\pmc_internal.h
; File z:\sources\lunor\repos\rougemeilland\palmtree.math.core.implements\palmtree.math.core.implements\pmc_add.c
; File z:\sources\lunor\repos\rougemeilland\palmtree.math.core.implements\palmtree.math.core.implements\autogenerated_inline_func.h
; File z:\sources\lunor\repos\rougemeilland\palmtree.math.core.implements\palmtree.math.core.implements\pmc_internal.h
; File z:\sources\lunor\repos\rougemeilland\palmtree.math.core.implements\palmtree.math.core.implements\autogenerated_inline_func.h
; File z:\sources\lunor\repos\rougemeilland\palmtree.math.core.implements\palmtree.math.core.implements\pmc_internal.h
; File z:\sources\lunor\repos\rougemeilland\palmtree.math.core.implements\palmtree.math.core.implements\pmc_add.c
; File z:\sources\lunor\repos\rougemeilland\palmtree.math.core.implements\palmtree.math.core.implements\pmc_internal.h
; File z:\sources\lunor\repos\rougemeilland\palmtree.math.core.implements\palmtree.math.core.implements\pmc_add.c
;	COMDAT Add_X_X_using_ADC
_TEXT	SEGMENT
x$ = 64
y$ = 72
z$ = 80
Add_X_X_using_ADC PROC					; COMDAT

; 153  : {

	mov	QWORD PTR [rsp+8], rbx
	mov	QWORD PTR [rsp+16], rsi
	push	rdi
	sub	rsp, 48					; 00000030H
	mov	r10, QWORD PTR [rcx]

; 154  :     // x のワード長が y のワード長以上であるようにする
; 155  :     if (x->UNIT_WORD_COUNT < y->UNIT_WORD_COUNT)
; 156  :     {
; 157  :         NUMBER_HEADER* t = x;
; 158  :         x = y;
; 159  :         y = t;
; 160  :     }
; 161  :     __UNIT_TYPE x_count = x->UNIT_WORD_COUNT;

	mov	rax, rdx
	mov	r9, QWORD PTR [rdx]
	mov	rbx, r10

; 162  :     __UNIT_TYPE y_count = y->UNIT_WORD_COUNT;
; 163  :     __UNIT_TYPE z_count = z->BLOCK_COUNT;

	mov	rsi, QWORD PTR [r8+40]
	cmp	r10, r9
	mov	rdi, r9
	cmovae	rax, rcx
	cmovae	rbx, r9

; 164  :     __UNIT_TYPE* xp = &x->BLOCK[0];
; 165  :     __UNIT_TYPE* yp = &y->BLOCK[0];
; 166  :     __UNIT_TYPE* zp = &z->BLOCK[0];

	mov	r9, QWORD PTR [r8+48]
	cmovae	rcx, rdx
	cmovae	rdi, r10

; 167  :     char c = 0;
; 168  : 
; 169  :     // まず 32 ワードずつ加算をする。
; 170  :     __UNIT_TYPE count = y_count >> 5;

	mov	rdx, rbx
	shr	rdx, 5
	mov	r11, QWORD PTR [rax+48]
	mov	r10, QWORD PTR [rcx+48]
	xor	cl, cl

; 171  :     while (count != 0)

	test	rdx, rdx
	je	$LN3@Add_X_X_us
	npad	13
$LL2@Add_X_X_us:
; File z:\sources\lunor\repos\rougemeilland\palmtree.math.core.implements\palmtree.math.core.implements\autogenerated_inline_func.h

; 47   :     c = _ADD_UNIT(c, xp[0], yp[0], &zp[0]);

	mov	rax, QWORD PTR [r11]
; File z:\sources\lunor\repos\rougemeilland\palmtree.math.core.implements\palmtree.math.core.implements\pmc_internal.h

; 447  :     return (_addcarry_u64(carry, u, v, w));

	add	cl, -1
	adc	rax, QWORD PTR [r10]
	mov	QWORD PTR [r9], rax
; File z:\sources\lunor\repos\rougemeilland\palmtree.math.core.implements\palmtree.math.core.implements\autogenerated_inline_func.h

; 48   :     c = _ADD_UNIT(c, xp[1], yp[1], &zp[1]);

	mov	rax, QWORD PTR [r11+8]
; File z:\sources\lunor\repos\rougemeilland\palmtree.math.core.implements\palmtree.math.core.implements\pmc_internal.h

; 447  :     return (_addcarry_u64(carry, u, v, w));

	adc	rax, QWORD PTR [r10+8]
	mov	QWORD PTR [r9+8], rax
; File z:\sources\lunor\repos\rougemeilland\palmtree.math.core.implements\palmtree.math.core.implements\autogenerated_inline_func.h

; 49   :     c = _ADD_UNIT(c, xp[2], yp[2], &zp[2]);

	mov	rax, QWORD PTR [r11+16]
; File z:\sources\lunor\repos\rougemeilland\palmtree.math.core.implements\palmtree.math.core.implements\pmc_internal.h

; 447  :     return (_addcarry_u64(carry, u, v, w));

	adc	rax, QWORD PTR [r10+16]
	mov	QWORD PTR [r9+16], rax
; File z:\sources\lunor\repos\rougemeilland\palmtree.math.core.implements\palmtree.math.core.implements\autogenerated_inline_func.h

; 50   :     c = _ADD_UNIT(c, xp[3], yp[3], &zp[3]);

	mov	rax, QWORD PTR [r11+24]
; File z:\sources\lunor\repos\rougemeilland\palmtree.math.core.implements\palmtree.math.core.implements\pmc_internal.h

; 447  :     return (_addcarry_u64(carry, u, v, w));

	adc	rax, QWORD PTR [r10+24]
	mov	QWORD PTR [r9+24], rax
; File z:\sources\lunor\repos\rougemeilland\palmtree.math.core.implements\palmtree.math.core.implements\autogenerated_inline_func.h

; 51   :     c = _ADD_UNIT(c, xp[4], yp[4], &zp[4]);

	mov	rax, QWORD PTR [r11+32]
; File z:\sources\lunor\repos\rougemeilland\palmtree.math.core.implements\palmtree.math.core.implements\pmc_internal.h

; 447  :     return (_addcarry_u64(carry, u, v, w));

	adc	rax, QWORD PTR [r10+32]
	mov	QWORD PTR [r9+32], rax
; File z:\sources\lunor\repos\rougemeilland\palmtree.math.core.implements\palmtree.math.core.implements\autogenerated_inline_func.h

; 52   :     c = _ADD_UNIT(c, xp[5], yp[5], &zp[5]);

	mov	rax, QWORD PTR [r11+40]
; File z:\sources\lunor\repos\rougemeilland\palmtree.math.core.implements\palmtree.math.core.implements\pmc_internal.h

; 447  :     return (_addcarry_u64(carry, u, v, w));

	adc	rax, QWORD PTR [r10+40]
	mov	QWORD PTR [r9+40], rax
; File z:\sources\lunor\repos\rougemeilland\palmtree.math.core.implements\palmtree.math.core.implements\autogenerated_inline_func.h

; 53   :     c = _ADD_UNIT(c, xp[6], yp[6], &zp[6]);

	mov	rax, QWORD PTR [r11+48]
; File z:\sources\lunor\repos\rougemeilland\palmtree.math.core.implements\palmtree.math.core.implements\pmc_internal.h

; 447  :     return (_addcarry_u64(carry, u, v, w));

	adc	rax, QWORD PTR [r10+48]
	mov	QWORD PTR [r9+48], rax
; File z:\sources\lunor\repos\rougemeilland\palmtree.math.core.implements\palmtree.math.core.implements\autogenerated_inline_func.h

; 54   :     c = _ADD_UNIT(c, xp[7], yp[7], &zp[7]);

	mov	rax, QWORD PTR [r11+56]
; File z:\sources\lunor\repos\rougemeilland\palmtree.math.core.implements\palmtree.math.core.implements\pmc_internal.h

; 447  :     return (_addcarry_u64(carry, u, v, w));

	adc	rax, QWORD PTR [r10+56]
	mov	QWORD PTR [r9+56], rax
; File z:\sources\lunor\repos\rougemeilland\palmtree.math.core.implements\palmtree.math.core.implements\autogenerated_inline_func.h

; 55   :     c = _ADD_UNIT(c, xp[8], yp[8], &zp[8]);

	mov	rax, QWORD PTR [r11+64]
; File z:\sources\lunor\repos\rougemeilland\palmtree.math.core.implements\palmtree.math.core.implements\pmc_internal.h

; 447  :     return (_addcarry_u64(carry, u, v, w));

	adc	rax, QWORD PTR [r10+64]
	mov	QWORD PTR [r9+64], rax
; File z:\sources\lunor\repos\rougemeilland\palmtree.math.core.implements\palmtree.math.core.implements\autogenerated_inline_func.h

; 56   :     c = _ADD_UNIT(c, xp[9], yp[9], &zp[9]);

	mov	rax, QWORD PTR [r11+72]
; File z:\sources\lunor\repos\rougemeilland\palmtree.math.core.implements\palmtree.math.core.implements\pmc_internal.h

; 447  :     return (_addcarry_u64(carry, u, v, w));

	adc	rax, QWORD PTR [r10+72]
	mov	QWORD PTR [r9+72], rax
; File z:\sources\lunor\repos\rougemeilland\palmtree.math.core.implements\palmtree.math.core.implements\autogenerated_inline_func.h

; 57   :     c = _ADD_UNIT(c, xp[10], yp[10], &zp[10]);

	mov	rax, QWORD PTR [r11+80]
; File z:\sources\lunor\repos\rougemeilland\palmtree.math.core.implements\palmtree.math.core.implements\pmc_internal.h

; 447  :     return (_addcarry_u64(carry, u, v, w));

	adc	rax, QWORD PTR [r10+80]
	mov	QWORD PTR [r9+80], rax
; File z:\sources\lunor\repos\rougemeilland\palmtree.math.core.implements\palmtree.math.core.implements\autogenerated_inline_func.h

; 58   :     c = _ADD_UNIT(c, xp[11], yp[11], &zp[11]);

	mov	rax, QWORD PTR [r11+88]
; File z:\sources\lunor\repos\rougemeilland\palmtree.math.core.implements\palmtree.math.core.implements\pmc_internal.h

; 447  :     return (_addcarry_u64(carry, u, v, w));

	adc	rax, QWORD PTR [r10+88]
	mov	QWORD PTR [r9+88], rax
; File z:\sources\lunor\repos\rougemeilland\palmtree.math.core.implements\palmtree.math.core.implements\autogenerated_inline_func.h

; 59   :     c = _ADD_UNIT(c, xp[12], yp[12], &zp[12]);

	mov	rax, QWORD PTR [r11+96]
; File z:\sources\lunor\repos\rougemeilland\palmtree.math.core.implements\palmtree.math.core.implements\pmc_internal.h

; 447  :     return (_addcarry_u64(carry, u, v, w));

	adc	rax, QWORD PTR [r10+96]
	mov	QWORD PTR [r9+96], rax
; File z:\sources\lunor\repos\rougemeilland\palmtree.math.core.implements\palmtree.math.core.implements\autogenerated_inline_func.h

; 60   :     c = _ADD_UNIT(c, xp[13], yp[13], &zp[13]);

	mov	rax, QWORD PTR [r11+104]
; File z:\sources\lunor\repos\rougemeilland\palmtree.math.core.implements\palmtree.math.core.implements\pmc_internal.h

; 447  :     return (_addcarry_u64(carry, u, v, w));

	adc	rax, QWORD PTR [r10+104]
	mov	QWORD PTR [r9+104], rax
; File z:\sources\lunor\repos\rougemeilland\palmtree.math.core.implements\palmtree.math.core.implements\autogenerated_inline_func.h

; 61   :     c = _ADD_UNIT(c, xp[14], yp[14], &zp[14]);

	mov	rax, QWORD PTR [r11+112]
; File z:\sources\lunor\repos\rougemeilland\palmtree.math.core.implements\palmtree.math.core.implements\pmc_internal.h

; 447  :     return (_addcarry_u64(carry, u, v, w));

	adc	rax, QWORD PTR [r10+112]
	mov	QWORD PTR [r9+112], rax
; File z:\sources\lunor\repos\rougemeilland\palmtree.math.core.implements\palmtree.math.core.implements\autogenerated_inline_func.h

; 62   :     c = _ADD_UNIT(c, xp[15], yp[15], &zp[15]);

	mov	rax, QWORD PTR [r11+120]
; File z:\sources\lunor\repos\rougemeilland\palmtree.math.core.implements\palmtree.math.core.implements\pmc_internal.h

; 447  :     return (_addcarry_u64(carry, u, v, w));

	adc	rax, QWORD PTR [r10+120]
	mov	QWORD PTR [r9+120], rax
; File z:\sources\lunor\repos\rougemeilland\palmtree.math.core.implements\palmtree.math.core.implements\autogenerated_inline_func.h

; 63   :     c = _ADD_UNIT(c, xp[16], yp[16], &zp[16]);

	mov	rax, QWORD PTR [r11+128]
; File z:\sources\lunor\repos\rougemeilland\palmtree.math.core.implements\palmtree.math.core.implements\pmc_internal.h

; 447  :     return (_addcarry_u64(carry, u, v, w));

	adc	rax, QWORD PTR [r10+128]
	mov	QWORD PTR [r9+128], rax
; File z:\sources\lunor\repos\rougemeilland\palmtree.math.core.implements\palmtree.math.core.implements\autogenerated_inline_func.h

; 64   :     c = _ADD_UNIT(c, xp[17], yp[17], &zp[17]);

	mov	rax, QWORD PTR [r11+136]
; File z:\sources\lunor\repos\rougemeilland\palmtree.math.core.implements\palmtree.math.core.implements\pmc_internal.h

; 447  :     return (_addcarry_u64(carry, u, v, w));

	adc	rax, QWORD PTR [r10+136]
	mov	QWORD PTR [r9+136], rax
; File z:\sources\lunor\repos\rougemeilland\palmtree.math.core.implements\palmtree.math.core.implements\autogenerated_inline_func.h

; 65   :     c = _ADD_UNIT(c, xp[18], yp[18], &zp[18]);

	mov	rax, QWORD PTR [r11+144]
; File z:\sources\lunor\repos\rougemeilland\palmtree.math.core.implements\palmtree.math.core.implements\pmc_internal.h

; 447  :     return (_addcarry_u64(carry, u, v, w));

	adc	rax, QWORD PTR [r10+144]
	mov	QWORD PTR [r9+144], rax
; File z:\sources\lunor\repos\rougemeilland\palmtree.math.core.implements\palmtree.math.core.implements\autogenerated_inline_func.h

; 66   :     c = _ADD_UNIT(c, xp[19], yp[19], &zp[19]);

	mov	rax, QWORD PTR [r11+152]
; File z:\sources\lunor\repos\rougemeilland\palmtree.math.core.implements\palmtree.math.core.implements\pmc_internal.h

; 447  :     return (_addcarry_u64(carry, u, v, w));

	adc	rax, QWORD PTR [r10+152]
	mov	QWORD PTR [r9+152], rax
; File z:\sources\lunor\repos\rougemeilland\palmtree.math.core.implements\palmtree.math.core.implements\autogenerated_inline_func.h

; 67   :     c = _ADD_UNIT(c, xp[20], yp[20], &zp[20]);

	mov	rax, QWORD PTR [r11+160]
; File z:\sources\lunor\repos\rougemeilland\palmtree.math.core.implements\palmtree.math.core.implements\pmc_internal.h

; 447  :     return (_addcarry_u64(carry, u, v, w));

	adc	rax, QWORD PTR [r10+160]
	mov	QWORD PTR [r9+160], rax
; File z:\sources\lunor\repos\rougemeilland\palmtree.math.core.implements\palmtree.math.core.implements\autogenerated_inline_func.h

; 68   :     c = _ADD_UNIT(c, xp[21], yp[21], &zp[21]);

	mov	rax, QWORD PTR [r11+168]
; File z:\sources\lunor\repos\rougemeilland\palmtree.math.core.implements\palmtree.math.core.implements\pmc_internal.h

; 447  :     return (_addcarry_u64(carry, u, v, w));

	adc	rax, QWORD PTR [r10+168]
	mov	QWORD PTR [r9+168], rax
; File z:\sources\lunor\repos\rougemeilland\palmtree.math.core.implements\palmtree.math.core.implements\autogenerated_inline_func.h

; 69   :     c = _ADD_UNIT(c, xp[22], yp[22], &zp[22]);

	mov	rax, QWORD PTR [r11+176]
; File z:\sources\lunor\repos\rougemeilland\palmtree.math.core.implements\palmtree.math.core.implements\pmc_internal.h

; 447  :     return (_addcarry_u64(carry, u, v, w));

	adc	rax, QWORD PTR [r10+176]
	mov	QWORD PTR [r9+176], rax
; File z:\sources\lunor\repos\rougemeilland\palmtree.math.core.implements\palmtree.math.core.implements\autogenerated_inline_func.h

; 70   :     c = _ADD_UNIT(c, xp[23], yp[23], &zp[23]);

	mov	rax, QWORD PTR [r11+184]
; File z:\sources\lunor\repos\rougemeilland\palmtree.math.core.implements\palmtree.math.core.implements\pmc_internal.h

; 447  :     return (_addcarry_u64(carry, u, v, w));

	adc	rax, QWORD PTR [r10+184]
	mov	QWORD PTR [r9+184], rax
; File z:\sources\lunor\repos\rougemeilland\palmtree.math.core.implements\palmtree.math.core.implements\autogenerated_inline_func.h

; 71   :     c = _ADD_UNIT(c, xp[24], yp[24], &zp[24]);

	mov	rax, QWORD PTR [r11+192]
; File z:\sources\lunor\repos\rougemeilland\palmtree.math.core.implements\palmtree.math.core.implements\pmc_internal.h

; 447  :     return (_addcarry_u64(carry, u, v, w));

	adc	rax, QWORD PTR [r10+192]
	mov	QWORD PTR [r9+192], rax
; File z:\sources\lunor\repos\rougemeilland\palmtree.math.core.implements\palmtree.math.core.implements\autogenerated_inline_func.h

; 72   :     c = _ADD_UNIT(c, xp[25], yp[25], &zp[25]);

	mov	rax, QWORD PTR [r11+200]
; File z:\sources\lunor\repos\rougemeilland\palmtree.math.core.implements\palmtree.math.core.implements\pmc_internal.h

; 447  :     return (_addcarry_u64(carry, u, v, w));

	adc	rax, QWORD PTR [r10+200]
	mov	QWORD PTR [r9+200], rax
; File z:\sources\lunor\repos\rougemeilland\palmtree.math.core.implements\palmtree.math.core.implements\autogenerated_inline_func.h

; 73   :     c = _ADD_UNIT(c, xp[26], yp[26], &zp[26]);

	mov	rax, QWORD PTR [r11+208]
; File z:\sources\lunor\repos\rougemeilland\palmtree.math.core.implements\palmtree.math.core.implements\pmc_internal.h

; 447  :     return (_addcarry_u64(carry, u, v, w));

	adc	rax, QWORD PTR [r10+208]
	mov	QWORD PTR [r9+208], rax
; File z:\sources\lunor\repos\rougemeilland\palmtree.math.core.implements\palmtree.math.core.implements\autogenerated_inline_func.h

; 74   :     c = _ADD_UNIT(c, xp[27], yp[27], &zp[27]);

	mov	rax, QWORD PTR [r11+216]
; File z:\sources\lunor\repos\rougemeilland\palmtree.math.core.implements\palmtree.math.core.implements\pmc_internal.h

; 447  :     return (_addcarry_u64(carry, u, v, w));

	adc	rax, QWORD PTR [r10+216]
	mov	QWORD PTR [r9+216], rax
; File z:\sources\lunor\repos\rougemeilland\palmtree.math.core.implements\palmtree.math.core.implements\autogenerated_inline_func.h

; 75   :     c = _ADD_UNIT(c, xp[28], yp[28], &zp[28]);

	mov	rax, QWORD PTR [r11+224]
; File z:\sources\lunor\repos\rougemeilland\palmtree.math.core.implements\palmtree.math.core.implements\pmc_internal.h

; 447  :     return (_addcarry_u64(carry, u, v, w));

	adc	rax, QWORD PTR [r10+224]
	mov	QWORD PTR [r9+224], rax
; File z:\sources\lunor\repos\rougemeilland\palmtree.math.core.implements\palmtree.math.core.implements\autogenerated_inline_func.h

; 76   :     c = _ADD_UNIT(c, xp[29], yp[29], &zp[29]);

	mov	rax, QWORD PTR [r11+232]
; File z:\sources\lunor\repos\rougemeilland\palmtree.math.core.implements\palmtree.math.core.implements\pmc_internal.h

; 447  :     return (_addcarry_u64(carry, u, v, w));

	adc	rax, QWORD PTR [r10+232]
	mov	QWORD PTR [r9+232], rax
; File z:\sources\lunor\repos\rougemeilland\palmtree.math.core.implements\palmtree.math.core.implements\autogenerated_inline_func.h

; 77   :     c = _ADD_UNIT(c, xp[30], yp[30], &zp[30]);

	mov	rax, QWORD PTR [r11+240]
; File z:\sources\lunor\repos\rougemeilland\palmtree.math.core.implements\palmtree.math.core.implements\pmc_internal.h

; 447  :     return (_addcarry_u64(carry, u, v, w));

	adc	rax, QWORD PTR [r10+240]
	mov	QWORD PTR [r9+240], rax
; File z:\sources\lunor\repos\rougemeilland\palmtree.math.core.implements\palmtree.math.core.implements\autogenerated_inline_func.h

; 78   :     c = _ADD_UNIT(c, xp[31], yp[31], &zp[31]);

	mov	rax, QWORD PTR [r11+248]
; File z:\sources\lunor\repos\rougemeilland\palmtree.math.core.implements\palmtree.math.core.implements\pmc_internal.h

; 447  :     return (_addcarry_u64(carry, u, v, w));

	adc	rax, QWORD PTR [r10+248]
	mov	QWORD PTR [r9+248], rax
	setb	cl
; File z:\sources\lunor\repos\rougemeilland\palmtree.math.core.implements\palmtree.math.core.implements\pmc_add.c

; 174  :         xp += 32;

	add	r11, 256				; 00000100H

; 175  :         yp += 32;

	add	r10, 256				; 00000100H

; 176  :         zp += 32;

	add	r9, 256					; 00000100H

; 177  :         --count;

	sub	rdx, 1
	jne	$LL2@Add_X_X_us
$LN3@Add_X_X_us:

; 178  :     }
; 179  :     // この時点で未処理の桁は 32 ワード未満のはず
; 180  : 
; 181  :     // 未処理の桁が 16 ワード以上あるなら 16 ワード加算を行う。
; 182  :     if (y_count & 0x10)

	test	bl, 16
	je	SHORT $LN5@Add_X_X_us

; 183  :     {
; 184  :         c = _ADD_16WORDS_ADC(c, xp, yp, zp);

	mov	r8, r10
	mov	rdx, r11
	call	_ADD_16WORDS_ADC

; 185  :         xp += 16;

	sub	r11, -128				; ffffffffffffff80H

; 186  :         yp += 16;

	sub	r10, -128				; ffffffffffffff80H

; 187  :         zp += 16;

	sub	r9, -128				; ffffffffffffff80H
	movzx	ecx, al
$LN5@Add_X_X_us:

; 188  :     }
; 189  :     // この時点で未処理の桁は 16 ワード未満のはず
; 190  : 
; 191  :     // 未処理の桁が 8 ワード以上あるなら 8 ワード加算を行う。
; 192  :     if (y_count & 0x8)

	test	bl, 8
	je	SHORT $LN6@Add_X_X_us
; File z:\sources\lunor\repos\rougemeilland\palmtree.math.core.implements\palmtree.math.core.implements\autogenerated_inline_func.h

; 3199 :     c = _ADD_UNIT(c, xp[0], yp[0], &zp[0]);

	mov	rax, QWORD PTR [r11]
; File z:\sources\lunor\repos\rougemeilland\palmtree.math.core.implements\palmtree.math.core.implements\pmc_internal.h

; 447  :     return (_addcarry_u64(carry, u, v, w));

	add	cl, -1
	adc	rax, QWORD PTR [r10]
	mov	QWORD PTR [r9], rax
; File z:\sources\lunor\repos\rougemeilland\palmtree.math.core.implements\palmtree.math.core.implements\autogenerated_inline_func.h

; 3200 :     c = _ADD_UNIT(c, xp[1], yp[1], &zp[1]);

	mov	rax, QWORD PTR [r11+8]
; File z:\sources\lunor\repos\rougemeilland\palmtree.math.core.implements\palmtree.math.core.implements\pmc_internal.h

; 447  :     return (_addcarry_u64(carry, u, v, w));

	adc	rax, QWORD PTR [r10+8]
	mov	QWORD PTR [r9+8], rax
; File z:\sources\lunor\repos\rougemeilland\palmtree.math.core.implements\palmtree.math.core.implements\autogenerated_inline_func.h

; 3201 :     c = _ADD_UNIT(c, xp[2], yp[2], &zp[2]);

	mov	rax, QWORD PTR [r11+16]
; File z:\sources\lunor\repos\rougemeilland\palmtree.math.core.implements\palmtree.math.core.implements\pmc_internal.h

; 447  :     return (_addcarry_u64(carry, u, v, w));

	adc	rax, QWORD PTR [r10+16]
	mov	QWORD PTR [r9+16], rax
; File z:\sources\lunor\repos\rougemeilland\palmtree.math.core.implements\palmtree.math.core.implements\autogenerated_inline_func.h

; 3202 :     c = _ADD_UNIT(c, xp[3], yp[3], &zp[3]);

	mov	rax, QWORD PTR [r11+24]
; File z:\sources\lunor\repos\rougemeilland\palmtree.math.core.implements\palmtree.math.core.implements\pmc_internal.h

; 447  :     return (_addcarry_u64(carry, u, v, w));

	adc	rax, QWORD PTR [r10+24]
	mov	QWORD PTR [r9+24], rax
; File z:\sources\lunor\repos\rougemeilland\palmtree.math.core.implements\palmtree.math.core.implements\autogenerated_inline_func.h

; 3203 :     c = _ADD_UNIT(c, xp[4], yp[4], &zp[4]);

	mov	rax, QWORD PTR [r11+32]
; File z:\sources\lunor\repos\rougemeilland\palmtree.math.core.implements\palmtree.math.core.implements\pmc_internal.h

; 447  :     return (_addcarry_u64(carry, u, v, w));

	adc	rax, QWORD PTR [r10+32]
	mov	QWORD PTR [r9+32], rax
; File z:\sources\lunor\repos\rougemeilland\palmtree.math.core.implements\palmtree.math.core.implements\autogenerated_inline_func.h

; 3204 :     c = _ADD_UNIT(c, xp[5], yp[5], &zp[5]);

	mov	rax, QWORD PTR [r11+40]
; File z:\sources\lunor\repos\rougemeilland\palmtree.math.core.implements\palmtree.math.core.implements\pmc_internal.h

; 447  :     return (_addcarry_u64(carry, u, v, w));

	adc	rax, QWORD PTR [r10+40]
	mov	QWORD PTR [r9+40], rax
; File z:\sources\lunor\repos\rougemeilland\palmtree.math.core.implements\palmtree.math.core.implements\autogenerated_inline_func.h

; 3205 :     c = _ADD_UNIT(c, xp[6], yp[6], &zp[6]);

	mov	rax, QWORD PTR [r11+48]
; File z:\sources\lunor\repos\rougemeilland\palmtree.math.core.implements\palmtree.math.core.implements\pmc_internal.h

; 447  :     return (_addcarry_u64(carry, u, v, w));

	adc	rax, QWORD PTR [r10+48]
	mov	QWORD PTR [r9+48], rax
; File z:\sources\lunor\repos\rougemeilland\palmtree.math.core.implements\palmtree.math.core.implements\autogenerated_inline_func.h

; 3206 :     c = _ADD_UNIT(c, xp[7], yp[7], &zp[7]);

	mov	rax, QWORD PTR [r11+56]
; File z:\sources\lunor\repos\rougemeilland\palmtree.math.core.implements\palmtree.math.core.implements\pmc_internal.h

; 447  :     return (_addcarry_u64(carry, u, v, w));

	adc	rax, QWORD PTR [r10+56]
	mov	QWORD PTR [r9+56], rax
	setb	cl
; File z:\sources\lunor\repos\rougemeilland\palmtree.math.core.implements\palmtree.math.core.implements\pmc_add.c

; 195  :         xp += 8;

	add	r11, 64					; 00000040H

; 196  :         yp += 8;

	add	r10, 64					; 00000040H

; 197  :         zp += 8;

	add	r9, 64					; 00000040H
$LN6@Add_X_X_us:

; 198  :     }
; 199  :     // この時点で未処理の桁は 8 ワード未満のはず
; 200  : 
; 201  :     // 未処理の桁が 4 ワード以上あるなら 4 ワード加算を行う。
; 202  :     if (y_count & 0x4)

	test	bl, 4
	je	SHORT $LN7@Add_X_X_us
; File z:\sources\lunor\repos\rougemeilland\palmtree.math.core.implements\palmtree.math.core.implements\autogenerated_inline_func.h

; 3879 :     c = _ADD_UNIT(c, xp[0], yp[0], &zp[0]);

	mov	rax, QWORD PTR [r11]
; File z:\sources\lunor\repos\rougemeilland\palmtree.math.core.implements\palmtree.math.core.implements\pmc_internal.h

; 447  :     return (_addcarry_u64(carry, u, v, w));

	add	cl, -1
	adc	rax, QWORD PTR [r10]
	mov	QWORD PTR [r9], rax
; File z:\sources\lunor\repos\rougemeilland\palmtree.math.core.implements\palmtree.math.core.implements\autogenerated_inline_func.h

; 3880 :     c = _ADD_UNIT(c, xp[1], yp[1], &zp[1]);

	mov	rax, QWORD PTR [r11+8]
; File z:\sources\lunor\repos\rougemeilland\palmtree.math.core.implements\palmtree.math.core.implements\pmc_internal.h

; 447  :     return (_addcarry_u64(carry, u, v, w));

	adc	rax, QWORD PTR [r10+8]
	mov	QWORD PTR [r9+8], rax
; File z:\sources\lunor\repos\rougemeilland\palmtree.math.core.implements\palmtree.math.core.implements\autogenerated_inline_func.h

; 3881 :     c = _ADD_UNIT(c, xp[2], yp[2], &zp[2]);

	mov	rax, QWORD PTR [r11+16]
; File z:\sources\lunor\repos\rougemeilland\palmtree.math.core.implements\palmtree.math.core.implements\pmc_internal.h

; 447  :     return (_addcarry_u64(carry, u, v, w));

	adc	rax, QWORD PTR [r10+16]
	mov	QWORD PTR [r9+16], rax
; File z:\sources\lunor\repos\rougemeilland\palmtree.math.core.implements\palmtree.math.core.implements\autogenerated_inline_func.h

; 3882 :     c = _ADD_UNIT(c, xp[3], yp[3], &zp[3]);

	mov	rax, QWORD PTR [r11+24]
; File z:\sources\lunor\repos\rougemeilland\palmtree.math.core.implements\palmtree.math.core.implements\pmc_internal.h

; 447  :     return (_addcarry_u64(carry, u, v, w));

	adc	rax, QWORD PTR [r10+24]
	mov	QWORD PTR [r9+24], rax
	setb	cl
; File z:\sources\lunor\repos\rougemeilland\palmtree.math.core.implements\palmtree.math.core.implements\pmc_add.c

; 205  :         xp += 4;

	add	r11, 32					; 00000020H

; 206  :         yp += 4;

	add	r10, 32					; 00000020H

; 207  :         zp += 4;

	add	r9, 32					; 00000020H
$LN7@Add_X_X_us:

; 208  :     }
; 209  :     // この時点で未処理の桁は 4 ワード未満のはず
; 210  : 
; 211  :     // 未処理の桁が 2 ワード以上あるなら 2 ワード加算を行う。
; 212  :     if (y_count & 0x2)

	test	bl, 2
	je	SHORT $LN8@Add_X_X_us
; File z:\sources\lunor\repos\rougemeilland\palmtree.math.core.implements\palmtree.math.core.implements\autogenerated_inline_func.h

; 4335 :     c = _ADD_UNIT(c, xp[0], yp[0], &zp[0]);

	mov	rax, QWORD PTR [r11]
; File z:\sources\lunor\repos\rougemeilland\palmtree.math.core.implements\palmtree.math.core.implements\pmc_internal.h

; 447  :     return (_addcarry_u64(carry, u, v, w));

	add	cl, -1
	adc	rax, QWORD PTR [r10]
	mov	QWORD PTR [r9], rax
; File z:\sources\lunor\repos\rougemeilland\palmtree.math.core.implements\palmtree.math.core.implements\autogenerated_inline_func.h

; 4336 :     c = _ADD_UNIT(c, xp[1], yp[1], &zp[1]);

	mov	rax, QWORD PTR [r11+8]
; File z:\sources\lunor\repos\rougemeilland\palmtree.math.core.implements\palmtree.math.core.implements\pmc_internal.h

; 447  :     return (_addcarry_u64(carry, u, v, w));

	adc	rax, QWORD PTR [r10+8]
	mov	QWORD PTR [r9+8], rax
	setb	cl
; File z:\sources\lunor\repos\rougemeilland\palmtree.math.core.implements\palmtree.math.core.implements\pmc_add.c

; 215  :         xp += 2;

	add	r11, 16

; 216  :         yp += 2;

	add	r10, 16

; 217  :         zp += 2;

	add	r9, 16
$LN8@Add_X_X_us:

; 218  :     }
; 219  :     // この時点で未処理の桁は 2 ワード未満のはず
; 220  : 
; 221  :     // 未処理の桁が 1 ワード以上あるなら 1 ワード加算を行う。
; 222  :     if (y_count & 0x1)

	test	bl, 1
	je	SHORT $LN9@Add_X_X_us

; 223  :         c = _ADD_UNIT(c, *xp++, *yp++, zp++);

	mov	rax, QWORD PTR [r11]
; File z:\sources\lunor\repos\rougemeilland\palmtree.math.core.implements\palmtree.math.core.implements\pmc_internal.h

; 447  :     return (_addcarry_u64(carry, u, v, w));

	add	cl, -1
	adc	rax, QWORD PTR [r10]
	mov	QWORD PTR [r9], rax
	setb	cl
; File z:\sources\lunor\repos\rougemeilland\palmtree.math.core.implements\palmtree.math.core.implements\pmc_add.c

; 223  :         c = _ADD_UNIT(c, *xp++, *yp++, zp++);

	add	r11, 8
	add	r9, 8
$LN9@Add_X_X_us:

; 224  : 
; 225  :     // 残りの桁の繰り上がりを計算し、復帰する。
; 226  :     return (DoCarry(c, xp, x_count - y_count, zp, z_count - y_count));

	sub	rdi, rbx
	sub	rsi, rbx
	mov	r8, rdi
	mov	QWORD PTR [rsp+32], rsi
	mov	rdx, r11
	call	DoCarry

; 227  : }

	mov	rbx, QWORD PTR [rsp+64]
	mov	rsi, QWORD PTR [rsp+72]
	add	rsp, 48					; 00000030H
	pop	rdi
	ret	0
Add_X_X_using_ADC ENDP
_TEXT	ENDS
; Function compile flags: /Ogtpy
; File z:\sources\lunor\repos\rougemeilland\palmtree.math.core.implements\palmtree.math.core.implements\pmc_add.c
; File z:\sources\lunor\repos\rougemeilland\palmtree.math.core.implements\palmtree.math.core.implements\pmc_internal.h
; File z:\sources\lunor\repos\rougemeilland\palmtree.math.core.implements\palmtree.math.core.implements\pmc_add.c
; File z:\sources\lunor\repos\rougemeilland\palmtree.math.core.implements\palmtree.math.core.implements\pmc_internal.h
; File z:\sources\lunor\repos\rougemeilland\palmtree.math.core.implements\palmtree.math.core.implements\pmc_add.c
; File z:\sources\lunor\repos\rougemeilland\palmtree.math.core.implements\palmtree.math.core.implements\pmc_internal.h
; File z:\sources\lunor\repos\rougemeilland\palmtree.math.core.implements\palmtree.math.core.implements\pmc_add.c
; File z:\sources\lunor\repos\rougemeilland\palmtree.math.core.implements\palmtree.math.core.implements\pmc_internal.h
; File z:\sources\lunor\repos\rougemeilland\palmtree.math.core.implements\palmtree.math.core.implements\pmc_add.c
; File z:\sources\lunor\repos\rougemeilland\palmtree.math.core.implements\palmtree.math.core.implements\pmc_internal.h
; File z:\sources\lunor\repos\rougemeilland\palmtree.math.core.implements\palmtree.math.core.implements\pmc_add.c
; File z:\sources\lunor\repos\rougemeilland\palmtree.math.core.implements\palmtree.math.core.implements\pmc_internal.h
; File z:\sources\lunor\repos\rougemeilland\palmtree.math.core.implements\palmtree.math.core.implements\pmc_add.c
;	COMDAT Add_X_2W
_TEXT	SEGMENT
x$ = 64
y_hi$ = 72
y_lo$ = 80
z$ = 88
Add_X_2W PROC						; COMDAT

; 110  : {

	push	rbx
	sub	rsp, 48					; 00000030H

; 111  :     __UNIT_TYPE x_count = x->UNIT_WORD_COUNT;
; 112  :     __UNIT_TYPE z_count = z->BLOCK_COUNT;
; 113  :     __UNIT_TYPE* xp = &x->BLOCK[0];

	mov	r10, QWORD PTR [rcx+48]
	mov	r11, QWORD PTR [rcx]
	mov	rbx, QWORD PTR [r9+40]

; 114  :     __UNIT_TYPE* zp = &z->BLOCK[0];

	mov	r9, QWORD PTR [r9+48]
	mov	rax, QWORD PTR [r10]

; 115  :     char c;
; 116  : 
; 117  :     if (x_count < 2)

	cmp	r11, 2
	jae	SHORT $LN2@Add_X_2W
; File z:\sources\lunor\repos\rougemeilland\palmtree.math.core.implements\palmtree.math.core.implements\pmc_internal.h

; 447  :     return (_addcarry_u64(carry, u, v, w));

	add	rax, r8
	mov	QWORD PTR [r9], rax
	adc	rdx, 0
	mov	QWORD PTR [r9+8], rdx
	setb	al
; File z:\sources\lunor\repos\rougemeilland\palmtree.math.core.implements\palmtree.math.core.implements\pmc_add.c

; 128  :         if (c)

	test	al, al
	je	SHORT $LN4@Add_X_2W

; 129  :             zp[2] = 1;

	mov	QWORD PTR [r9+16], 1
$LN4@Add_X_2W:

; 130  : 
; 131  :         // 正常復帰する。
; 132  :         return (PMC_STATUS_OK);

	xor	eax, eax

; 148  :     }
; 149  : }

	add	rsp, 48					; 00000030H
	pop	rbx
	ret	0
$LN2@Add_X_2W:
; File z:\sources\lunor\repos\rougemeilland\palmtree.math.core.implements\palmtree.math.core.implements\pmc_internal.h

; 447  :     return (_addcarry_u64(carry, u, v, w));

	add	rax, r8
; File z:\sources\lunor\repos\rougemeilland\palmtree.math.core.implements\palmtree.math.core.implements\pmc_add.c

; 143  :         x_count -= 2;

	lea	r8, QWORD PTR [r11-2]
; File z:\sources\lunor\repos\rougemeilland\palmtree.math.core.implements\palmtree.math.core.implements\pmc_internal.h

; 447  :     return (_addcarry_u64(carry, u, v, w));

	mov	QWORD PTR [r9], rax
; File z:\sources\lunor\repos\rougemeilland\palmtree.math.core.implements\palmtree.math.core.implements\pmc_add.c

; 142  :         c = _ADD_UNIT(c, *xp++, y_hi, zp++);

	mov	rax, QWORD PTR [r10+8]
; File z:\sources\lunor\repos\rougemeilland\palmtree.math.core.implements\palmtree.math.core.implements\pmc_internal.h

; 447  :     return (_addcarry_u64(carry, u, v, w));

	setb	cl
	add	cl, -1
	adc	rax, rdx
; File z:\sources\lunor\repos\rougemeilland\palmtree.math.core.implements\palmtree.math.core.implements\pmc_add.c

; 142  :         c = _ADD_UNIT(c, *xp++, y_hi, zp++);

	lea	rdx, QWORD PTR [r10+16]
; File z:\sources\lunor\repos\rougemeilland\palmtree.math.core.implements\palmtree.math.core.implements\pmc_internal.h

; 447  :     return (_addcarry_u64(carry, u, v, w));

	mov	QWORD PTR [r9+8], rax
; File z:\sources\lunor\repos\rougemeilland\palmtree.math.core.implements\palmtree.math.core.implements\pmc_add.c

; 144  :         z_count -= 2;

	lea	rax, QWORD PTR [rbx-2]
; File z:\sources\lunor\repos\rougemeilland\palmtree.math.core.implements\palmtree.math.core.implements\pmc_internal.h

; 447  :     return (_addcarry_u64(carry, u, v, w));

	setb	cl
; File z:\sources\lunor\repos\rougemeilland\palmtree.math.core.implements\palmtree.math.core.implements\pmc_add.c

; 147  :         return (DoCarry(c, xp, x_count, zp, z_count));

	mov	QWORD PTR [rsp+32], rax
	add	r9, 16
	call	DoCarry

; 148  :     }
; 149  : }

	add	rsp, 48					; 00000030H
	pop	rbx
	ret	0
Add_X_2W ENDP
_TEXT	ENDS
; Function compile flags: /Ogtpy
; File z:\sources\lunor\repos\rougemeilland\palmtree.math.core.implements\palmtree.math.core.implements\pmc_add.c
; File z:\sources\lunor\repos\rougemeilland\palmtree.math.core.implements\palmtree.math.core.implements\pmc_internal.h
; File z:\sources\lunor\repos\rougemeilland\palmtree.math.core.implements\palmtree.math.core.implements\pmc_add.c
; File z:\sources\lunor\repos\rougemeilland\palmtree.math.core.implements\palmtree.math.core.implements\pmc_internal.h
; File z:\sources\lunor\repos\rougemeilland\palmtree.math.core.implements\palmtree.math.core.implements\pmc_add.c
; File z:\sources\lunor\repos\rougemeilland\palmtree.math.core.implements\palmtree.math.core.implements\pmc_internal.h
; File z:\sources\lunor\repos\rougemeilland\palmtree.math.core.implements\palmtree.math.core.implements\pmc_add.c
;	COMDAT Add_X_1W
_TEXT	SEGMENT
x$ = 64
y$ = 72
z$ = 80
Add_X_1W PROC						; COMDAT

; 93   : {

	push	rbx
	sub	rsp, 48					; 00000030H

; 94   :     __UNIT_TYPE x_count = x->UNIT_WORD_COUNT;
; 95   :     __UNIT_TYPE z_count = z->BLOCK_COUNT;
; 96   :     __UNIT_TYPE* xp = &x->BLOCK[0];

	mov	r11, QWORD PTR [rcx+48]

; 97   :     __UNIT_TYPE* zp = &z->BLOCK[0];

	mov	r9, QWORD PTR [r8+48]
	mov	r10, QWORD PTR [r8+40]
	mov	rbx, QWORD PTR [rcx]

; 101  :     c = _ADD_UNIT(0, *xp++, y, zp++);

	mov	rax, QWORD PTR [r11]
; File z:\sources\lunor\repos\rougemeilland\palmtree.math.core.implements\palmtree.math.core.implements\pmc_internal.h

; 447  :     return (_addcarry_u64(carry, u, v, w));

	add	rax, rdx
; File z:\sources\lunor\repos\rougemeilland\palmtree.math.core.implements\palmtree.math.core.implements\pmc_add.c

; 101  :     c = _ADD_UNIT(0, *xp++, y, zp++);

	lea	rdx, QWORD PTR [r11+8]
; File z:\sources\lunor\repos\rougemeilland\palmtree.math.core.implements\palmtree.math.core.implements\pmc_internal.h

; 447  :     return (_addcarry_u64(carry, u, v, w));

	mov	QWORD PTR [r9], rax
; File z:\sources\lunor\repos\rougemeilland\palmtree.math.core.implements\palmtree.math.core.implements\pmc_add.c

; 103  :     --z_count;

	lea	rax, QWORD PTR [r10-1]
; File z:\sources\lunor\repos\rougemeilland\palmtree.math.core.implements\palmtree.math.core.implements\pmc_internal.h

; 447  :     return (_addcarry_u64(carry, u, v, w));

	setb	cl
; File z:\sources\lunor\repos\rougemeilland\palmtree.math.core.implements\palmtree.math.core.implements\pmc_add.c

; 106  :     return (DoCarry(c, xp, x_count, zp, z_count));

	mov	QWORD PTR [rsp+32], rax
	add	r9, 8
	lea	r8, QWORD PTR [rbx-1]
	call	DoCarry

; 107  : }

	add	rsp, 48					; 00000030H
	pop	rbx
	ret	0
Add_X_1W ENDP
_TEXT	ENDS
; Function compile flags: /Ogtpy
; File z:\sources\lunor\repos\rougemeilland\palmtree.math.core.implements\palmtree.math.core.implements\pmc_add.c
; File z:\sources\lunor\repos\rougemeilland\palmtree.math.core.implements\palmtree.math.core.implements\pmc_internal.h
; File z:\sources\lunor\repos\rougemeilland\palmtree.math.core.implements\palmtree.math.core.implements\pmc_add.c
;	COMDAT DoCarry
_TEXT	SEGMENT
c$ = 8
xp$ = 16
x_count$ = 24
op$ = 32
o_count$ = 40
DoCarry	PROC						; COMDAT

; 42   :     // 繰り上がりを続く限り行う
; 43   :     for (;;)
; 44   :     {
; 45   :         if (x_count <= 0)

	mov	r10, QWORD PTR o_count$[rsp]
	test	r8, r8
	je	SHORT $LN18@DoCarry
	npad	6
$LL2@DoCarry:

; 60   :             }
; 61   : 
; 62   :             // xの最上位に達してしまった場合はいずれにしろループを中断して正常復帰する。
; 63   : 
; 64   :             return (PMC_STATUS_OK);
; 65   :         }
; 66   :         else if (c)

	test	cl, cl
	je	SHORT $LN17@DoCarry

; 71   :             c = _ADD_UNIT(c, *xp++, 0, op++);

	mov	rax, QWORD PTR [rdx]
; File z:\sources\lunor\repos\rougemeilland\palmtree.math.core.implements\palmtree.math.core.implements\pmc_internal.h

; 447  :     return (_addcarry_u64(carry, u, v, w));

	add	cl, -1
	adc	rax, 0
	mov	QWORD PTR [r9], rax
	setb	cl
; File z:\sources\lunor\repos\rougemeilland\palmtree.math.core.implements\palmtree.math.core.implements\pmc_add.c

; 71   :             c = _ADD_UNIT(c, *xp++, 0, op++);

	add	rdx, 8
	add	r9, 8

; 72   :             --x_count;
; 73   :             --o_count;

	dec	r10
	sub	r8, 1
	jne	SHORT $LL2@DoCarry
$LN18@DoCarry:

; 46   :         {
; 47   :             // x の最上位まで達してしまった場合
; 48   : 
; 49   :             if (c)

	test	cl, cl
	je	SHORT $LN6@DoCarry

; 50   :             {
; 51   :                 // かつそれでも繰り上がりを行う必要がある場合
; 52   :                 if (o_count <= 0)

	test	r10, r10
	jne	SHORT $LN10@DoCarry

; 53   :                 {
; 54   :                     // しかし z がもう終端に達してしまった場合
; 55   : 
; 56   :                     // z のバッファはこの余裕を見込んでいるのでこのルートには到達しないはず。
; 57   :                     return (PMC_STATUS_INTERNAL_ERROR);

	mov	eax, -256				; ffffffffffffff00H

; 87   :         }
; 88   :     }
; 89   : }

	ret	0
$LN17@DoCarry:

; 74   :         }
; 75   :         else
; 76   :         {
; 77   :             // xの最上位に達しておらず、かつキャリーが立っていない場合
; 78   : 
; 79   :             // 繰り上がりを中断し、xの残りのデータをzにそのまま複写し、正常復帰する。
; 80   :             while (x_count > 0)

	test	r8, r8
	je	SHORT $LN6@DoCarry
	sub	rdx, r9
	npad	4
$LL5@DoCarry:

; 81   :             {
; 82   :                 *op++ = *xp++;

	mov	rax, QWORD PTR [rdx+r9]
	mov	QWORD PTR [r9], rax
	lea	r9, QWORD PTR [r9+8]

; 83   :                 --x_count;

	sub	r8, 1
	jne	SHORT $LL5@DoCarry

; 84   :                 --o_count;
; 85   :             }
; 86   :             return (PMC_STATUS_OK);

	xor	eax, eax

; 87   :         }
; 88   :     }
; 89   : }

	ret	0
$LN10@DoCarry:

; 58   :                 }
; 59   :                 *op = 1;

	mov	QWORD PTR [r9], 1
$LN6@DoCarry:

; 84   :                 --o_count;
; 85   :             }
; 86   :             return (PMC_STATUS_OK);

	xor	eax, eax

; 87   :         }
; 88   :     }
; 89   : }

	ret	0
DoCarry	ENDP
_TEXT	ENDS
; Function compile flags: /Ogtpy
; File z:\sources\lunor\repos\rougemeilland\palmtree.math.core.implements\palmtree.math.core.implements\autogenerated_inline_func.h
; File z:\sources\lunor\repos\rougemeilland\palmtree.math.core.implements\palmtree.math.core.implements\pmc_internal.h
; File z:\sources\lunor\repos\rougemeilland\palmtree.math.core.implements\palmtree.math.core.implements\autogenerated_inline_func.h
; File z:\sources\lunor\repos\rougemeilland\palmtree.math.core.implements\palmtree.math.core.implements\pmc_internal.h
; File z:\sources\lunor\repos\rougemeilland\palmtree.math.core.implements\palmtree.math.core.implements\autogenerated_inline_func.h
;	COMDAT _ADD_2WORDS_ADCX
_TEXT	SEGMENT
c$ = 8
xp$ = 16
yp$ = 24
zp$ = 32
_ADD_2WORDS_ADCX PROC					; COMDAT

; 4377 : #ifdef _MSC_VER
; 4378 :     c = _ADDX_UNIT(c, xp[0], yp[0], &zp[0]);

	mov	rax, QWORD PTR [rdx]
; File z:\sources\lunor\repos\rougemeilland\palmtree.math.core.implements\palmtree.math.core.implements\pmc_internal.h

; 475  :     return (_addcarryx_u64(carry, u, v, w));

	add	cl, -1
	adcx	rax, QWORD PTR [r8]
	mov	QWORD PTR [r9], rax
; File z:\sources\lunor\repos\rougemeilland\palmtree.math.core.implements\palmtree.math.core.implements\autogenerated_inline_func.h

; 4379 :     c = _ADDX_UNIT(c, xp[1], yp[1], &zp[1]);

	mov	rcx, QWORD PTR [rdx+8]
; File z:\sources\lunor\repos\rougemeilland\palmtree.math.core.implements\palmtree.math.core.implements\pmc_internal.h

; 475  :     return (_addcarryx_u64(carry, u, v, w));

	adcx	rcx, QWORD PTR [r8+8]
	mov	QWORD PTR [r9+8], rcx
	setb	al
; File z:\sources\lunor\repos\rougemeilland\palmtree.math.core.implements\palmtree.math.core.implements\autogenerated_inline_func.h

; 4416 : }

	ret	0
_ADD_2WORDS_ADCX ENDP
_TEXT	ENDS
; Function compile flags: /Ogtpy
; File z:\sources\lunor\repos\rougemeilland\palmtree.math.core.implements\palmtree.math.core.implements\autogenerated_inline_func.h
; File z:\sources\lunor\repos\rougemeilland\palmtree.math.core.implements\palmtree.math.core.implements\pmc_internal.h
; File z:\sources\lunor\repos\rougemeilland\palmtree.math.core.implements\palmtree.math.core.implements\autogenerated_inline_func.h
; File z:\sources\lunor\repos\rougemeilland\palmtree.math.core.implements\palmtree.math.core.implements\pmc_internal.h
; File z:\sources\lunor\repos\rougemeilland\palmtree.math.core.implements\palmtree.math.core.implements\autogenerated_inline_func.h
;	COMDAT _ADD_2WORDS_ADC
_TEXT	SEGMENT
c$ = 8
xp$ = 16
yp$ = 24
zp$ = 32
_ADD_2WORDS_ADC PROC					; COMDAT

; 4334 : #ifdef _MSC_VER
; 4335 :     c = _ADD_UNIT(c, xp[0], yp[0], &zp[0]);

	mov	rax, QWORD PTR [rdx]
; File z:\sources\lunor\repos\rougemeilland\palmtree.math.core.implements\palmtree.math.core.implements\pmc_internal.h

; 447  :     return (_addcarry_u64(carry, u, v, w));

	add	cl, -1
	adc	rax, QWORD PTR [r8]
	mov	QWORD PTR [r9], rax
; File z:\sources\lunor\repos\rougemeilland\palmtree.math.core.implements\palmtree.math.core.implements\autogenerated_inline_func.h

; 4336 :     c = _ADD_UNIT(c, xp[1], yp[1], &zp[1]);

	mov	rcx, QWORD PTR [rdx+8]
; File z:\sources\lunor\repos\rougemeilland\palmtree.math.core.implements\palmtree.math.core.implements\pmc_internal.h

; 447  :     return (_addcarry_u64(carry, u, v, w));

	adc	rcx, QWORD PTR [r8+8]
	mov	QWORD PTR [r9+8], rcx
	setb	al
; File z:\sources\lunor\repos\rougemeilland\palmtree.math.core.implements\palmtree.math.core.implements\autogenerated_inline_func.h

; 4373 : }

	ret	0
_ADD_2WORDS_ADC ENDP
_TEXT	ENDS
; Function compile flags: /Ogtpy
; File z:\sources\lunor\repos\rougemeilland\palmtree.math.core.implements\palmtree.math.core.implements\autogenerated_inline_func.h
; File z:\sources\lunor\repos\rougemeilland\palmtree.math.core.implements\palmtree.math.core.implements\pmc_internal.h
; File z:\sources\lunor\repos\rougemeilland\palmtree.math.core.implements\palmtree.math.core.implements\autogenerated_inline_func.h
; File z:\sources\lunor\repos\rougemeilland\palmtree.math.core.implements\palmtree.math.core.implements\pmc_internal.h
; File z:\sources\lunor\repos\rougemeilland\palmtree.math.core.implements\palmtree.math.core.implements\autogenerated_inline_func.h
; File z:\sources\lunor\repos\rougemeilland\palmtree.math.core.implements\palmtree.math.core.implements\pmc_internal.h
; File z:\sources\lunor\repos\rougemeilland\palmtree.math.core.implements\palmtree.math.core.implements\autogenerated_inline_func.h
; File z:\sources\lunor\repos\rougemeilland\palmtree.math.core.implements\palmtree.math.core.implements\pmc_internal.h
; File z:\sources\lunor\repos\rougemeilland\palmtree.math.core.implements\palmtree.math.core.implements\autogenerated_inline_func.h
;	COMDAT _ADD_4WORDS_ADCX
_TEXT	SEGMENT
c$ = 8
xp$ = 16
yp$ = 24
zp$ = 32
_ADD_4WORDS_ADCX PROC					; COMDAT

; 3935 : #ifdef _MSC_VER
; 3936 :     c = _ADDX_UNIT(c, xp[0], yp[0], &zp[0]);

	mov	rax, QWORD PTR [rdx]
; File z:\sources\lunor\repos\rougemeilland\palmtree.math.core.implements\palmtree.math.core.implements\pmc_internal.h

; 475  :     return (_addcarryx_u64(carry, u, v, w));

	add	cl, -1
	adcx	rax, QWORD PTR [r8]
	mov	QWORD PTR [r9], rax
; File z:\sources\lunor\repos\rougemeilland\palmtree.math.core.implements\palmtree.math.core.implements\autogenerated_inline_func.h

; 3937 :     c = _ADDX_UNIT(c, xp[1], yp[1], &zp[1]);

	mov	rax, QWORD PTR [rdx+8]
; File z:\sources\lunor\repos\rougemeilland\palmtree.math.core.implements\palmtree.math.core.implements\pmc_internal.h

; 475  :     return (_addcarryx_u64(carry, u, v, w));

	adcx	rax, QWORD PTR [r8+8]
	mov	QWORD PTR [r9+8], rax
; File z:\sources\lunor\repos\rougemeilland\palmtree.math.core.implements\palmtree.math.core.implements\autogenerated_inline_func.h

; 3938 :     c = _ADDX_UNIT(c, xp[2], yp[2], &zp[2]);

	mov	rax, QWORD PTR [rdx+16]
; File z:\sources\lunor\repos\rougemeilland\palmtree.math.core.implements\palmtree.math.core.implements\pmc_internal.h

; 475  :     return (_addcarryx_u64(carry, u, v, w));

	adcx	rax, QWORD PTR [r8+16]
	mov	QWORD PTR [r9+16], rax
; File z:\sources\lunor\repos\rougemeilland\palmtree.math.core.implements\palmtree.math.core.implements\autogenerated_inline_func.h

; 3939 :     c = _ADDX_UNIT(c, xp[3], yp[3], &zp[3]);

	mov	rcx, QWORD PTR [rdx+24]
; File z:\sources\lunor\repos\rougemeilland\palmtree.math.core.implements\palmtree.math.core.implements\pmc_internal.h

; 475  :     return (_addcarryx_u64(carry, u, v, w));

	adcx	rcx, QWORD PTR [r8+24]
	mov	QWORD PTR [r9+24], rcx
	setb	al
; File z:\sources\lunor\repos\rougemeilland\palmtree.math.core.implements\palmtree.math.core.implements\autogenerated_inline_func.h

; 3988 : }

	ret	0
_ADD_4WORDS_ADCX ENDP
_TEXT	ENDS
; Function compile flags: /Ogtpy
; File z:\sources\lunor\repos\rougemeilland\palmtree.math.core.implements\palmtree.math.core.implements\autogenerated_inline_func.h
; File z:\sources\lunor\repos\rougemeilland\palmtree.math.core.implements\palmtree.math.core.implements\pmc_internal.h
; File z:\sources\lunor\repos\rougemeilland\palmtree.math.core.implements\palmtree.math.core.implements\autogenerated_inline_func.h
; File z:\sources\lunor\repos\rougemeilland\palmtree.math.core.implements\palmtree.math.core.implements\pmc_internal.h
; File z:\sources\lunor\repos\rougemeilland\palmtree.math.core.implements\palmtree.math.core.implements\autogenerated_inline_func.h
; File z:\sources\lunor\repos\rougemeilland\palmtree.math.core.implements\palmtree.math.core.implements\pmc_internal.h
; File z:\sources\lunor\repos\rougemeilland\palmtree.math.core.implements\palmtree.math.core.implements\autogenerated_inline_func.h
; File z:\sources\lunor\repos\rougemeilland\palmtree.math.core.implements\palmtree.math.core.implements\pmc_internal.h
; File z:\sources\lunor\repos\rougemeilland\palmtree.math.core.implements\palmtree.math.core.implements\autogenerated_inline_func.h
;	COMDAT _ADD_4WORDS_ADC
_TEXT	SEGMENT
c$ = 8
xp$ = 16
yp$ = 24
zp$ = 32
_ADD_4WORDS_ADC PROC					; COMDAT

; 3878 : #ifdef _MSC_VER
; 3879 :     c = _ADD_UNIT(c, xp[0], yp[0], &zp[0]);

	mov	rax, QWORD PTR [rdx]
; File z:\sources\lunor\repos\rougemeilland\palmtree.math.core.implements\palmtree.math.core.implements\pmc_internal.h

; 447  :     return (_addcarry_u64(carry, u, v, w));

	add	cl, -1
	adc	rax, QWORD PTR [r8]
	mov	QWORD PTR [r9], rax
; File z:\sources\lunor\repos\rougemeilland\palmtree.math.core.implements\palmtree.math.core.implements\autogenerated_inline_func.h

; 3880 :     c = _ADD_UNIT(c, xp[1], yp[1], &zp[1]);

	mov	rax, QWORD PTR [rdx+8]
; File z:\sources\lunor\repos\rougemeilland\palmtree.math.core.implements\palmtree.math.core.implements\pmc_internal.h

; 447  :     return (_addcarry_u64(carry, u, v, w));

	adc	rax, QWORD PTR [r8+8]
	mov	QWORD PTR [r9+8], rax
; File z:\sources\lunor\repos\rougemeilland\palmtree.math.core.implements\palmtree.math.core.implements\autogenerated_inline_func.h

; 3881 :     c = _ADD_UNIT(c, xp[2], yp[2], &zp[2]);

	mov	rax, QWORD PTR [rdx+16]
; File z:\sources\lunor\repos\rougemeilland\palmtree.math.core.implements\palmtree.math.core.implements\pmc_internal.h

; 447  :     return (_addcarry_u64(carry, u, v, w));

	adc	rax, QWORD PTR [r8+16]
	mov	QWORD PTR [r9+16], rax
; File z:\sources\lunor\repos\rougemeilland\palmtree.math.core.implements\palmtree.math.core.implements\autogenerated_inline_func.h

; 3882 :     c = _ADD_UNIT(c, xp[3], yp[3], &zp[3]);

	mov	rcx, QWORD PTR [rdx+24]
; File z:\sources\lunor\repos\rougemeilland\palmtree.math.core.implements\palmtree.math.core.implements\pmc_internal.h

; 447  :     return (_addcarry_u64(carry, u, v, w));

	adc	rcx, QWORD PTR [r8+24]
	mov	QWORD PTR [r9+24], rcx
	setb	al
; File z:\sources\lunor\repos\rougemeilland\palmtree.math.core.implements\palmtree.math.core.implements\autogenerated_inline_func.h

; 3931 : }

	ret	0
_ADD_4WORDS_ADC ENDP
_TEXT	ENDS
; Function compile flags: /Ogtpy
; File z:\sources\lunor\repos\rougemeilland\palmtree.math.core.implements\palmtree.math.core.implements\autogenerated_inline_func.h
; File z:\sources\lunor\repos\rougemeilland\palmtree.math.core.implements\palmtree.math.core.implements\pmc_internal.h
; File z:\sources\lunor\repos\rougemeilland\palmtree.math.core.implements\palmtree.math.core.implements\autogenerated_inline_func.h
; File z:\sources\lunor\repos\rougemeilland\palmtree.math.core.implements\palmtree.math.core.implements\pmc_internal.h
; File z:\sources\lunor\repos\rougemeilland\palmtree.math.core.implements\palmtree.math.core.implements\autogenerated_inline_func.h
; File z:\sources\lunor\repos\rougemeilland\palmtree.math.core.implements\palmtree.math.core.implements\pmc_internal.h
; File z:\sources\lunor\repos\rougemeilland\palmtree.math.core.implements\palmtree.math.core.implements\autogenerated_inline_func.h
; File z:\sources\lunor\repos\rougemeilland\palmtree.math.core.implements\palmtree.math.core.implements\pmc_internal.h
; File z:\sources\lunor\repos\rougemeilland\palmtree.math.core.implements\palmtree.math.core.implements\autogenerated_inline_func.h
; File z:\sources\lunor\repos\rougemeilland\palmtree.math.core.implements\palmtree.math.core.implements\pmc_internal.h
; File z:\sources\lunor\repos\rougemeilland\palmtree.math.core.implements\palmtree.math.core.implements\autogenerated_inline_func.h
; File z:\sources\lunor\repos\rougemeilland\palmtree.math.core.implements\palmtree.math.core.implements\pmc_internal.h
; File z:\sources\lunor\repos\rougemeilland\palmtree.math.core.implements\palmtree.math.core.implements\autogenerated_inline_func.h
; File z:\sources\lunor\repos\rougemeilland\palmtree.math.core.implements\palmtree.math.core.implements\pmc_internal.h
; File z:\sources\lunor\repos\rougemeilland\palmtree.math.core.implements\palmtree.math.core.implements\autogenerated_inline_func.h
; File z:\sources\lunor\repos\rougemeilland\palmtree.math.core.implements\palmtree.math.core.implements\pmc_internal.h
; File z:\sources\lunor\repos\rougemeilland\palmtree.math.core.implements\palmtree.math.core.implements\autogenerated_inline_func.h
;	COMDAT _ADD_8WORDS_ADCX
_TEXT	SEGMENT
c$ = 8
xp$ = 16
yp$ = 24
zp$ = 32
_ADD_8WORDS_ADCX PROC					; COMDAT

; 3283 : #ifdef _MSC_VER
; 3284 :     c = _ADDX_UNIT(c, xp[0], yp[0], &zp[0]);

	mov	rax, QWORD PTR [rdx]
; File z:\sources\lunor\repos\rougemeilland\palmtree.math.core.implements\palmtree.math.core.implements\pmc_internal.h

; 475  :     return (_addcarryx_u64(carry, u, v, w));

	add	cl, -1
	adcx	rax, QWORD PTR [r8]
	mov	QWORD PTR [r9], rax
; File z:\sources\lunor\repos\rougemeilland\palmtree.math.core.implements\palmtree.math.core.implements\autogenerated_inline_func.h

; 3285 :     c = _ADDX_UNIT(c, xp[1], yp[1], &zp[1]);

	mov	rax, QWORD PTR [rdx+8]
; File z:\sources\lunor\repos\rougemeilland\palmtree.math.core.implements\palmtree.math.core.implements\pmc_internal.h

; 475  :     return (_addcarryx_u64(carry, u, v, w));

	adcx	rax, QWORD PTR [r8+8]
	mov	QWORD PTR [r9+8], rax
; File z:\sources\lunor\repos\rougemeilland\palmtree.math.core.implements\palmtree.math.core.implements\autogenerated_inline_func.h

; 3286 :     c = _ADDX_UNIT(c, xp[2], yp[2], &zp[2]);

	mov	rax, QWORD PTR [rdx+16]
; File z:\sources\lunor\repos\rougemeilland\palmtree.math.core.implements\palmtree.math.core.implements\pmc_internal.h

; 475  :     return (_addcarryx_u64(carry, u, v, w));

	adcx	rax, QWORD PTR [r8+16]
	mov	QWORD PTR [r9+16], rax
; File z:\sources\lunor\repos\rougemeilland\palmtree.math.core.implements\palmtree.math.core.implements\autogenerated_inline_func.h

; 3287 :     c = _ADDX_UNIT(c, xp[3], yp[3], &zp[3]);

	mov	rax, QWORD PTR [rdx+24]
; File z:\sources\lunor\repos\rougemeilland\palmtree.math.core.implements\palmtree.math.core.implements\pmc_internal.h

; 475  :     return (_addcarryx_u64(carry, u, v, w));

	adcx	rax, QWORD PTR [r8+24]
	mov	QWORD PTR [r9+24], rax
; File z:\sources\lunor\repos\rougemeilland\palmtree.math.core.implements\palmtree.math.core.implements\autogenerated_inline_func.h

; 3288 :     c = _ADDX_UNIT(c, xp[4], yp[4], &zp[4]);

	mov	rax, QWORD PTR [rdx+32]
; File z:\sources\lunor\repos\rougemeilland\palmtree.math.core.implements\palmtree.math.core.implements\pmc_internal.h

; 475  :     return (_addcarryx_u64(carry, u, v, w));

	adcx	rax, QWORD PTR [r8+32]
	mov	QWORD PTR [r9+32], rax
; File z:\sources\lunor\repos\rougemeilland\palmtree.math.core.implements\palmtree.math.core.implements\autogenerated_inline_func.h

; 3289 :     c = _ADDX_UNIT(c, xp[5], yp[5], &zp[5]);

	mov	rax, QWORD PTR [rdx+40]
; File z:\sources\lunor\repos\rougemeilland\palmtree.math.core.implements\palmtree.math.core.implements\pmc_internal.h

; 475  :     return (_addcarryx_u64(carry, u, v, w));

	adcx	rax, QWORD PTR [r8+40]
	mov	QWORD PTR [r9+40], rax
; File z:\sources\lunor\repos\rougemeilland\palmtree.math.core.implements\palmtree.math.core.implements\autogenerated_inline_func.h

; 3290 :     c = _ADDX_UNIT(c, xp[6], yp[6], &zp[6]);

	mov	rax, QWORD PTR [rdx+48]
; File z:\sources\lunor\repos\rougemeilland\palmtree.math.core.implements\palmtree.math.core.implements\pmc_internal.h

; 475  :     return (_addcarryx_u64(carry, u, v, w));

	adcx	rax, QWORD PTR [r8+48]
	mov	QWORD PTR [r9+48], rax
; File z:\sources\lunor\repos\rougemeilland\palmtree.math.core.implements\palmtree.math.core.implements\autogenerated_inline_func.h

; 3291 :     c = _ADDX_UNIT(c, xp[7], yp[7], &zp[7]);

	mov	rcx, QWORD PTR [rdx+56]
; File z:\sources\lunor\repos\rougemeilland\palmtree.math.core.implements\palmtree.math.core.implements\pmc_internal.h

; 475  :     return (_addcarryx_u64(carry, u, v, w));

	adcx	rcx, QWORD PTR [r8+56]
	mov	QWORD PTR [r9+56], rcx
	setb	al
; File z:\sources\lunor\repos\rougemeilland\palmtree.math.core.implements\palmtree.math.core.implements\autogenerated_inline_func.h

; 3364 : }

	ret	0
_ADD_8WORDS_ADCX ENDP
_TEXT	ENDS
; Function compile flags: /Ogtpy
; File z:\sources\lunor\repos\rougemeilland\palmtree.math.core.implements\palmtree.math.core.implements\autogenerated_inline_func.h
; File z:\sources\lunor\repos\rougemeilland\palmtree.math.core.implements\palmtree.math.core.implements\pmc_internal.h
; File z:\sources\lunor\repos\rougemeilland\palmtree.math.core.implements\palmtree.math.core.implements\autogenerated_inline_func.h
; File z:\sources\lunor\repos\rougemeilland\palmtree.math.core.implements\palmtree.math.core.implements\pmc_internal.h
; File z:\sources\lunor\repos\rougemeilland\palmtree.math.core.implements\palmtree.math.core.implements\autogenerated_inline_func.h
; File z:\sources\lunor\repos\rougemeilland\palmtree.math.core.implements\palmtree.math.core.implements\pmc_internal.h
; File z:\sources\lunor\repos\rougemeilland\palmtree.math.core.implements\palmtree.math.core.implements\autogenerated_inline_func.h
; File z:\sources\lunor\repos\rougemeilland\palmtree.math.core.implements\palmtree.math.core.implements\pmc_internal.h
; File z:\sources\lunor\repos\rougemeilland\palmtree.math.core.implements\palmtree.math.core.implements\autogenerated_inline_func.h
; File z:\sources\lunor\repos\rougemeilland\palmtree.math.core.implements\palmtree.math.core.implements\pmc_internal.h
; File z:\sources\lunor\repos\rougemeilland\palmtree.math.core.implements\palmtree.math.core.implements\autogenerated_inline_func.h
; File z:\sources\lunor\repos\rougemeilland\palmtree.math.core.implements\palmtree.math.core.implements\pmc_internal.h
; File z:\sources\lunor\repos\rougemeilland\palmtree.math.core.implements\palmtree.math.core.implements\autogenerated_inline_func.h
; File z:\sources\lunor\repos\rougemeilland\palmtree.math.core.implements\palmtree.math.core.implements\pmc_internal.h
; File z:\sources\lunor\repos\rougemeilland\palmtree.math.core.implements\palmtree.math.core.implements\autogenerated_inline_func.h
; File z:\sources\lunor\repos\rougemeilland\palmtree.math.core.implements\palmtree.math.core.implements\pmc_internal.h
; File z:\sources\lunor\repos\rougemeilland\palmtree.math.core.implements\palmtree.math.core.implements\autogenerated_inline_func.h
;	COMDAT _ADD_8WORDS_ADC
_TEXT	SEGMENT
c$ = 8
xp$ = 16
yp$ = 24
zp$ = 32
_ADD_8WORDS_ADC PROC					; COMDAT

; 3198 : #ifdef _MSC_VER
; 3199 :     c = _ADD_UNIT(c, xp[0], yp[0], &zp[0]);

	mov	rax, QWORD PTR [rdx]
; File z:\sources\lunor\repos\rougemeilland\palmtree.math.core.implements\palmtree.math.core.implements\pmc_internal.h

; 447  :     return (_addcarry_u64(carry, u, v, w));

	add	cl, -1
	adc	rax, QWORD PTR [r8]
	mov	QWORD PTR [r9], rax
; File z:\sources\lunor\repos\rougemeilland\palmtree.math.core.implements\palmtree.math.core.implements\autogenerated_inline_func.h

; 3200 :     c = _ADD_UNIT(c, xp[1], yp[1], &zp[1]);

	mov	rax, QWORD PTR [rdx+8]
; File z:\sources\lunor\repos\rougemeilland\palmtree.math.core.implements\palmtree.math.core.implements\pmc_internal.h

; 447  :     return (_addcarry_u64(carry, u, v, w));

	adc	rax, QWORD PTR [r8+8]
	mov	QWORD PTR [r9+8], rax
; File z:\sources\lunor\repos\rougemeilland\palmtree.math.core.implements\palmtree.math.core.implements\autogenerated_inline_func.h

; 3201 :     c = _ADD_UNIT(c, xp[2], yp[2], &zp[2]);

	mov	rax, QWORD PTR [rdx+16]
; File z:\sources\lunor\repos\rougemeilland\palmtree.math.core.implements\palmtree.math.core.implements\pmc_internal.h

; 447  :     return (_addcarry_u64(carry, u, v, w));

	adc	rax, QWORD PTR [r8+16]
	mov	QWORD PTR [r9+16], rax
; File z:\sources\lunor\repos\rougemeilland\palmtree.math.core.implements\palmtree.math.core.implements\autogenerated_inline_func.h

; 3202 :     c = _ADD_UNIT(c, xp[3], yp[3], &zp[3]);

	mov	rax, QWORD PTR [rdx+24]
; File z:\sources\lunor\repos\rougemeilland\palmtree.math.core.implements\palmtree.math.core.implements\pmc_internal.h

; 447  :     return (_addcarry_u64(carry, u, v, w));

	adc	rax, QWORD PTR [r8+24]
	mov	QWORD PTR [r9+24], rax
; File z:\sources\lunor\repos\rougemeilland\palmtree.math.core.implements\palmtree.math.core.implements\autogenerated_inline_func.h

; 3203 :     c = _ADD_UNIT(c, xp[4], yp[4], &zp[4]);

	mov	rax, QWORD PTR [rdx+32]
; File z:\sources\lunor\repos\rougemeilland\palmtree.math.core.implements\palmtree.math.core.implements\pmc_internal.h

; 447  :     return (_addcarry_u64(carry, u, v, w));

	adc	rax, QWORD PTR [r8+32]
	mov	QWORD PTR [r9+32], rax
; File z:\sources\lunor\repos\rougemeilland\palmtree.math.core.implements\palmtree.math.core.implements\autogenerated_inline_func.h

; 3204 :     c = _ADD_UNIT(c, xp[5], yp[5], &zp[5]);

	mov	rax, QWORD PTR [rdx+40]
; File z:\sources\lunor\repos\rougemeilland\palmtree.math.core.implements\palmtree.math.core.implements\pmc_internal.h

; 447  :     return (_addcarry_u64(carry, u, v, w));

	adc	rax, QWORD PTR [r8+40]
	mov	QWORD PTR [r9+40], rax
; File z:\sources\lunor\repos\rougemeilland\palmtree.math.core.implements\palmtree.math.core.implements\autogenerated_inline_func.h

; 3205 :     c = _ADD_UNIT(c, xp[6], yp[6], &zp[6]);

	mov	rax, QWORD PTR [rdx+48]
; File z:\sources\lunor\repos\rougemeilland\palmtree.math.core.implements\palmtree.math.core.implements\pmc_internal.h

; 447  :     return (_addcarry_u64(carry, u, v, w));

	adc	rax, QWORD PTR [r8+48]
	mov	QWORD PTR [r9+48], rax
; File z:\sources\lunor\repos\rougemeilland\palmtree.math.core.implements\palmtree.math.core.implements\autogenerated_inline_func.h

; 3206 :     c = _ADD_UNIT(c, xp[7], yp[7], &zp[7]);

	mov	rcx, QWORD PTR [rdx+56]
; File z:\sources\lunor\repos\rougemeilland\palmtree.math.core.implements\palmtree.math.core.implements\pmc_internal.h

; 447  :     return (_addcarry_u64(carry, u, v, w));

	adc	rcx, QWORD PTR [r8+56]
	mov	QWORD PTR [r9+56], rcx
	setb	al
; File z:\sources\lunor\repos\rougemeilland\palmtree.math.core.implements\palmtree.math.core.implements\autogenerated_inline_func.h

; 3279 : }

	ret	0
_ADD_8WORDS_ADC ENDP
_TEXT	ENDS
; Function compile flags: /Ogtpy
; File z:\sources\lunor\repos\rougemeilland\palmtree.math.core.implements\palmtree.math.core.implements\autogenerated_inline_func.h
; File z:\sources\lunor\repos\rougemeilland\palmtree.math.core.implements\palmtree.math.core.implements\pmc_internal.h
; File z:\sources\lunor\repos\rougemeilland\palmtree.math.core.implements\palmtree.math.core.implements\autogenerated_inline_func.h
; File z:\sources\lunor\repos\rougemeilland\palmtree.math.core.implements\palmtree.math.core.implements\pmc_internal.h
; File z:\sources\lunor\repos\rougemeilland\palmtree.math.core.implements\palmtree.math.core.implements\autogenerated_inline_func.h
; File z:\sources\lunor\repos\rougemeilland\palmtree.math.core.implements\palmtree.math.core.implements\pmc_internal.h
; File z:\sources\lunor\repos\rougemeilland\palmtree.math.core.implements\palmtree.math.core.implements\autogenerated_inline_func.h
; File z:\sources\lunor\repos\rougemeilland\palmtree.math.core.implements\palmtree.math.core.implements\pmc_internal.h
; File z:\sources\lunor\repos\rougemeilland\palmtree.math.core.implements\palmtree.math.core.implements\autogenerated_inline_func.h
; File z:\sources\lunor\repos\rougemeilland\palmtree.math.core.implements\palmtree.math.core.implements\pmc_internal.h
; File z:\sources\lunor\repos\rougemeilland\palmtree.math.core.implements\palmtree.math.core.implements\autogenerated_inline_func.h
; File z:\sources\lunor\repos\rougemeilland\palmtree.math.core.implements\palmtree.math.core.implements\pmc_internal.h
; File z:\sources\lunor\repos\rougemeilland\palmtree.math.core.implements\palmtree.math.core.implements\autogenerated_inline_func.h
; File z:\sources\lunor\repos\rougemeilland\palmtree.math.core.implements\palmtree.math.core.implements\pmc_internal.h
; File z:\sources\lunor\repos\rougemeilland\palmtree.math.core.implements\palmtree.math.core.implements\autogenerated_inline_func.h
; File z:\sources\lunor\repos\rougemeilland\palmtree.math.core.implements\palmtree.math.core.implements\pmc_internal.h
; File z:\sources\lunor\repos\rougemeilland\palmtree.math.core.implements\palmtree.math.core.implements\autogenerated_inline_func.h
; File z:\sources\lunor\repos\rougemeilland\palmtree.math.core.implements\palmtree.math.core.implements\pmc_internal.h
; File z:\sources\lunor\repos\rougemeilland\palmtree.math.core.implements\palmtree.math.core.implements\autogenerated_inline_func.h
; File z:\sources\lunor\repos\rougemeilland\palmtree.math.core.implements\palmtree.math.core.implements\pmc_internal.h
; File z:\sources\lunor\repos\rougemeilland\palmtree.math.core.implements\palmtree.math.core.implements\autogenerated_inline_func.h
; File z:\sources\lunor\repos\rougemeilland\palmtree.math.core.implements\palmtree.math.core.implements\pmc_internal.h
; File z:\sources\lunor\repos\rougemeilland\palmtree.math.core.implements\palmtree.math.core.implements\autogenerated_inline_func.h
; File z:\sources\lunor\repos\rougemeilland\palmtree.math.core.implements\palmtree.math.core.implements\pmc_internal.h
; File z:\sources\lunor\repos\rougemeilland\palmtree.math.core.implements\palmtree.math.core.implements\autogenerated_inline_func.h
; File z:\sources\lunor\repos\rougemeilland\palmtree.math.core.implements\palmtree.math.core.implements\pmc_internal.h
; File z:\sources\lunor\repos\rougemeilland\palmtree.math.core.implements\palmtree.math.core.implements\autogenerated_inline_func.h
; File z:\sources\lunor\repos\rougemeilland\palmtree.math.core.implements\palmtree.math.core.implements\pmc_internal.h
; File z:\sources\lunor\repos\rougemeilland\palmtree.math.core.implements\palmtree.math.core.implements\autogenerated_inline_func.h
; File z:\sources\lunor\repos\rougemeilland\palmtree.math.core.implements\palmtree.math.core.implements\pmc_internal.h
; File z:\sources\lunor\repos\rougemeilland\palmtree.math.core.implements\palmtree.math.core.implements\autogenerated_inline_func.h
; File z:\sources\lunor\repos\rougemeilland\palmtree.math.core.implements\palmtree.math.core.implements\pmc_internal.h
; File z:\sources\lunor\repos\rougemeilland\palmtree.math.core.implements\palmtree.math.core.implements\autogenerated_inline_func.h
;	COMDAT _ADD_16WORDS_ADCX
_TEXT	SEGMENT
c$ = 8
xp$ = 16
yp$ = 24
zp$ = 32
_ADD_16WORDS_ADCX PROC					; COMDAT

; 2211 : #ifdef _MSC_VER
; 2212 :     c = _ADDX_UNIT(c, xp[0], yp[0], &zp[0]);

	mov	rax, QWORD PTR [rdx]
; File z:\sources\lunor\repos\rougemeilland\palmtree.math.core.implements\palmtree.math.core.implements\pmc_internal.h

; 475  :     return (_addcarryx_u64(carry, u, v, w));

	add	cl, -1
	adcx	rax, QWORD PTR [r8]
	mov	QWORD PTR [r9], rax
; File z:\sources\lunor\repos\rougemeilland\palmtree.math.core.implements\palmtree.math.core.implements\autogenerated_inline_func.h

; 2213 :     c = _ADDX_UNIT(c, xp[1], yp[1], &zp[1]);

	mov	rax, QWORD PTR [rdx+8]
; File z:\sources\lunor\repos\rougemeilland\palmtree.math.core.implements\palmtree.math.core.implements\pmc_internal.h

; 475  :     return (_addcarryx_u64(carry, u, v, w));

	adcx	rax, QWORD PTR [r8+8]
	mov	QWORD PTR [r9+8], rax
; File z:\sources\lunor\repos\rougemeilland\palmtree.math.core.implements\palmtree.math.core.implements\autogenerated_inline_func.h

; 2214 :     c = _ADDX_UNIT(c, xp[2], yp[2], &zp[2]);

	mov	rax, QWORD PTR [rdx+16]
; File z:\sources\lunor\repos\rougemeilland\palmtree.math.core.implements\palmtree.math.core.implements\pmc_internal.h

; 475  :     return (_addcarryx_u64(carry, u, v, w));

	adcx	rax, QWORD PTR [r8+16]
	mov	QWORD PTR [r9+16], rax
; File z:\sources\lunor\repos\rougemeilland\palmtree.math.core.implements\palmtree.math.core.implements\autogenerated_inline_func.h

; 2215 :     c = _ADDX_UNIT(c, xp[3], yp[3], &zp[3]);

	mov	rax, QWORD PTR [rdx+24]
; File z:\sources\lunor\repos\rougemeilland\palmtree.math.core.implements\palmtree.math.core.implements\pmc_internal.h

; 475  :     return (_addcarryx_u64(carry, u, v, w));

	adcx	rax, QWORD PTR [r8+24]
	mov	QWORD PTR [r9+24], rax
; File z:\sources\lunor\repos\rougemeilland\palmtree.math.core.implements\palmtree.math.core.implements\autogenerated_inline_func.h

; 2216 :     c = _ADDX_UNIT(c, xp[4], yp[4], &zp[4]);

	mov	rax, QWORD PTR [rdx+32]
; File z:\sources\lunor\repos\rougemeilland\palmtree.math.core.implements\palmtree.math.core.implements\pmc_internal.h

; 475  :     return (_addcarryx_u64(carry, u, v, w));

	adcx	rax, QWORD PTR [r8+32]
	mov	QWORD PTR [r9+32], rax
; File z:\sources\lunor\repos\rougemeilland\palmtree.math.core.implements\palmtree.math.core.implements\autogenerated_inline_func.h

; 2217 :     c = _ADDX_UNIT(c, xp[5], yp[5], &zp[5]);

	mov	rax, QWORD PTR [rdx+40]
; File z:\sources\lunor\repos\rougemeilland\palmtree.math.core.implements\palmtree.math.core.implements\pmc_internal.h

; 475  :     return (_addcarryx_u64(carry, u, v, w));

	adcx	rax, QWORD PTR [r8+40]
	mov	QWORD PTR [r9+40], rax
; File z:\sources\lunor\repos\rougemeilland\palmtree.math.core.implements\palmtree.math.core.implements\autogenerated_inline_func.h

; 2218 :     c = _ADDX_UNIT(c, xp[6], yp[6], &zp[6]);

	mov	rax, QWORD PTR [rdx+48]
; File z:\sources\lunor\repos\rougemeilland\palmtree.math.core.implements\palmtree.math.core.implements\pmc_internal.h

; 475  :     return (_addcarryx_u64(carry, u, v, w));

	adcx	rax, QWORD PTR [r8+48]
	mov	QWORD PTR [r9+48], rax
; File z:\sources\lunor\repos\rougemeilland\palmtree.math.core.implements\palmtree.math.core.implements\autogenerated_inline_func.h

; 2219 :     c = _ADDX_UNIT(c, xp[7], yp[7], &zp[7]);

	mov	rax, QWORD PTR [rdx+56]
; File z:\sources\lunor\repos\rougemeilland\palmtree.math.core.implements\palmtree.math.core.implements\pmc_internal.h

; 475  :     return (_addcarryx_u64(carry, u, v, w));

	adcx	rax, QWORD PTR [r8+56]
	mov	QWORD PTR [r9+56], rax
; File z:\sources\lunor\repos\rougemeilland\palmtree.math.core.implements\palmtree.math.core.implements\autogenerated_inline_func.h

; 2220 :     c = _ADDX_UNIT(c, xp[8], yp[8], &zp[8]);

	mov	rax, QWORD PTR [rdx+64]
; File z:\sources\lunor\repos\rougemeilland\palmtree.math.core.implements\palmtree.math.core.implements\pmc_internal.h

; 475  :     return (_addcarryx_u64(carry, u, v, w));

	adcx	rax, QWORD PTR [r8+64]
	mov	QWORD PTR [r9+64], rax
; File z:\sources\lunor\repos\rougemeilland\palmtree.math.core.implements\palmtree.math.core.implements\autogenerated_inline_func.h

; 2221 :     c = _ADDX_UNIT(c, xp[9], yp[9], &zp[9]);

	mov	rax, QWORD PTR [rdx+72]
; File z:\sources\lunor\repos\rougemeilland\palmtree.math.core.implements\palmtree.math.core.implements\pmc_internal.h

; 475  :     return (_addcarryx_u64(carry, u, v, w));

	adcx	rax, QWORD PTR [r8+72]
	mov	QWORD PTR [r9+72], rax
; File z:\sources\lunor\repos\rougemeilland\palmtree.math.core.implements\palmtree.math.core.implements\autogenerated_inline_func.h

; 2222 :     c = _ADDX_UNIT(c, xp[10], yp[10], &zp[10]);

	mov	rax, QWORD PTR [rdx+80]
; File z:\sources\lunor\repos\rougemeilland\palmtree.math.core.implements\palmtree.math.core.implements\pmc_internal.h

; 475  :     return (_addcarryx_u64(carry, u, v, w));

	adcx	rax, QWORD PTR [r8+80]
	mov	QWORD PTR [r9+80], rax
; File z:\sources\lunor\repos\rougemeilland\palmtree.math.core.implements\palmtree.math.core.implements\autogenerated_inline_func.h

; 2223 :     c = _ADDX_UNIT(c, xp[11], yp[11], &zp[11]);

	mov	rax, QWORD PTR [rdx+88]
; File z:\sources\lunor\repos\rougemeilland\palmtree.math.core.implements\palmtree.math.core.implements\pmc_internal.h

; 475  :     return (_addcarryx_u64(carry, u, v, w));

	adcx	rax, QWORD PTR [r8+88]
	mov	QWORD PTR [r9+88], rax
; File z:\sources\lunor\repos\rougemeilland\palmtree.math.core.implements\palmtree.math.core.implements\autogenerated_inline_func.h

; 2224 :     c = _ADDX_UNIT(c, xp[12], yp[12], &zp[12]);

	mov	rax, QWORD PTR [rdx+96]
; File z:\sources\lunor\repos\rougemeilland\palmtree.math.core.implements\palmtree.math.core.implements\pmc_internal.h

; 475  :     return (_addcarryx_u64(carry, u, v, w));

	adcx	rax, QWORD PTR [r8+96]
	mov	QWORD PTR [r9+96], rax
; File z:\sources\lunor\repos\rougemeilland\palmtree.math.core.implements\palmtree.math.core.implements\autogenerated_inline_func.h

; 2225 :     c = _ADDX_UNIT(c, xp[13], yp[13], &zp[13]);

	mov	rax, QWORD PTR [rdx+104]
; File z:\sources\lunor\repos\rougemeilland\palmtree.math.core.implements\palmtree.math.core.implements\pmc_internal.h

; 475  :     return (_addcarryx_u64(carry, u, v, w));

	adcx	rax, QWORD PTR [r8+104]
	mov	QWORD PTR [r9+104], rax
; File z:\sources\lunor\repos\rougemeilland\palmtree.math.core.implements\palmtree.math.core.implements\autogenerated_inline_func.h

; 2226 :     c = _ADDX_UNIT(c, xp[14], yp[14], &zp[14]);

	mov	rax, QWORD PTR [rdx+112]
; File z:\sources\lunor\repos\rougemeilland\palmtree.math.core.implements\palmtree.math.core.implements\pmc_internal.h

; 475  :     return (_addcarryx_u64(carry, u, v, w));

	adcx	rax, QWORD PTR [r8+112]
	mov	QWORD PTR [r9+112], rax
; File z:\sources\lunor\repos\rougemeilland\palmtree.math.core.implements\palmtree.math.core.implements\autogenerated_inline_func.h

; 2227 :     c = _ADDX_UNIT(c, xp[15], yp[15], &zp[15]);

	mov	rcx, QWORD PTR [rdx+120]
; File z:\sources\lunor\repos\rougemeilland\palmtree.math.core.implements\palmtree.math.core.implements\pmc_internal.h

; 475  :     return (_addcarryx_u64(carry, u, v, w));

	adcx	rcx, QWORD PTR [r8+120]
	mov	QWORD PTR [r9+120], rcx
	setb	al
; File z:\sources\lunor\repos\rougemeilland\palmtree.math.core.implements\palmtree.math.core.implements\autogenerated_inline_func.h

; 2348 : }

	ret	0
_ADD_16WORDS_ADCX ENDP
_TEXT	ENDS
; Function compile flags: /Ogtpy
; File z:\sources\lunor\repos\rougemeilland\palmtree.math.core.implements\palmtree.math.core.implements\autogenerated_inline_func.h
; File z:\sources\lunor\repos\rougemeilland\palmtree.math.core.implements\palmtree.math.core.implements\pmc_internal.h
; File z:\sources\lunor\repos\rougemeilland\palmtree.math.core.implements\palmtree.math.core.implements\autogenerated_inline_func.h
; File z:\sources\lunor\repos\rougemeilland\palmtree.math.core.implements\palmtree.math.core.implements\pmc_internal.h
; File z:\sources\lunor\repos\rougemeilland\palmtree.math.core.implements\palmtree.math.core.implements\autogenerated_inline_func.h
; File z:\sources\lunor\repos\rougemeilland\palmtree.math.core.implements\palmtree.math.core.implements\pmc_internal.h
; File z:\sources\lunor\repos\rougemeilland\palmtree.math.core.implements\palmtree.math.core.implements\autogenerated_inline_func.h
; File z:\sources\lunor\repos\rougemeilland\palmtree.math.core.implements\palmtree.math.core.implements\pmc_internal.h
; File z:\sources\lunor\repos\rougemeilland\palmtree.math.core.implements\palmtree.math.core.implements\autogenerated_inline_func.h
; File z:\sources\lunor\repos\rougemeilland\palmtree.math.core.implements\palmtree.math.core.implements\pmc_internal.h
; File z:\sources\lunor\repos\rougemeilland\palmtree.math.core.implements\palmtree.math.core.implements\autogenerated_inline_func.h
; File z:\sources\lunor\repos\rougemeilland\palmtree.math.core.implements\palmtree.math.core.implements\pmc_internal.h
; File z:\sources\lunor\repos\rougemeilland\palmtree.math.core.implements\palmtree.math.core.implements\autogenerated_inline_func.h
; File z:\sources\lunor\repos\rougemeilland\palmtree.math.core.implements\palmtree.math.core.implements\pmc_internal.h
; File z:\sources\lunor\repos\rougemeilland\palmtree.math.core.implements\palmtree.math.core.implements\autogenerated_inline_func.h
; File z:\sources\lunor\repos\rougemeilland\palmtree.math.core.implements\palmtree.math.core.implements\pmc_internal.h
; File z:\sources\lunor\repos\rougemeilland\palmtree.math.core.implements\palmtree.math.core.implements\autogenerated_inline_func.h
; File z:\sources\lunor\repos\rougemeilland\palmtree.math.core.implements\palmtree.math.core.implements\pmc_internal.h
; File z:\sources\lunor\repos\rougemeilland\palmtree.math.core.implements\palmtree.math.core.implements\autogenerated_inline_func.h
; File z:\sources\lunor\repos\rougemeilland\palmtree.math.core.implements\palmtree.math.core.implements\pmc_internal.h
; File z:\sources\lunor\repos\rougemeilland\palmtree.math.core.implements\palmtree.math.core.implements\autogenerated_inline_func.h
; File z:\sources\lunor\repos\rougemeilland\palmtree.math.core.implements\palmtree.math.core.implements\pmc_internal.h
; File z:\sources\lunor\repos\rougemeilland\palmtree.math.core.implements\palmtree.math.core.implements\autogenerated_inline_func.h
; File z:\sources\lunor\repos\rougemeilland\palmtree.math.core.implements\palmtree.math.core.implements\pmc_internal.h
; File z:\sources\lunor\repos\rougemeilland\palmtree.math.core.implements\palmtree.math.core.implements\autogenerated_inline_func.h
; File z:\sources\lunor\repos\rougemeilland\palmtree.math.core.implements\palmtree.math.core.implements\pmc_internal.h
; File z:\sources\lunor\repos\rougemeilland\palmtree.math.core.implements\palmtree.math.core.implements\autogenerated_inline_func.h
; File z:\sources\lunor\repos\rougemeilland\palmtree.math.core.implements\palmtree.math.core.implements\pmc_internal.h
; File z:\sources\lunor\repos\rougemeilland\palmtree.math.core.implements\palmtree.math.core.implements\autogenerated_inline_func.h
; File z:\sources\lunor\repos\rougemeilland\palmtree.math.core.implements\palmtree.math.core.implements\pmc_internal.h
; File z:\sources\lunor\repos\rougemeilland\palmtree.math.core.implements\palmtree.math.core.implements\autogenerated_inline_func.h
; File z:\sources\lunor\repos\rougemeilland\palmtree.math.core.implements\palmtree.math.core.implements\pmc_internal.h
; File z:\sources\lunor\repos\rougemeilland\palmtree.math.core.implements\palmtree.math.core.implements\autogenerated_inline_func.h
;	COMDAT _ADD_16WORDS_ADC
_TEXT	SEGMENT
c$ = 8
xp$ = 16
yp$ = 24
zp$ = 32
_ADD_16WORDS_ADC PROC					; COMDAT

; 2070 : #ifdef _MSC_VER
; 2071 :     c = _ADD_UNIT(c, xp[0], yp[0], &zp[0]);

	mov	rax, QWORD PTR [rdx]
; File z:\sources\lunor\repos\rougemeilland\palmtree.math.core.implements\palmtree.math.core.implements\pmc_internal.h

; 447  :     return (_addcarry_u64(carry, u, v, w));

	add	cl, -1
	adc	rax, QWORD PTR [r8]
	mov	QWORD PTR [r9], rax
; File z:\sources\lunor\repos\rougemeilland\palmtree.math.core.implements\palmtree.math.core.implements\autogenerated_inline_func.h

; 2072 :     c = _ADD_UNIT(c, xp[1], yp[1], &zp[1]);

	mov	rax, QWORD PTR [rdx+8]
; File z:\sources\lunor\repos\rougemeilland\palmtree.math.core.implements\palmtree.math.core.implements\pmc_internal.h

; 447  :     return (_addcarry_u64(carry, u, v, w));

	adc	rax, QWORD PTR [r8+8]
	mov	QWORD PTR [r9+8], rax
; File z:\sources\lunor\repos\rougemeilland\palmtree.math.core.implements\palmtree.math.core.implements\autogenerated_inline_func.h

; 2073 :     c = _ADD_UNIT(c, xp[2], yp[2], &zp[2]);

	mov	rax, QWORD PTR [rdx+16]
; File z:\sources\lunor\repos\rougemeilland\palmtree.math.core.implements\palmtree.math.core.implements\pmc_internal.h

; 447  :     return (_addcarry_u64(carry, u, v, w));

	adc	rax, QWORD PTR [r8+16]
	mov	QWORD PTR [r9+16], rax
; File z:\sources\lunor\repos\rougemeilland\palmtree.math.core.implements\palmtree.math.core.implements\autogenerated_inline_func.h

; 2074 :     c = _ADD_UNIT(c, xp[3], yp[3], &zp[3]);

	mov	rax, QWORD PTR [rdx+24]
; File z:\sources\lunor\repos\rougemeilland\palmtree.math.core.implements\palmtree.math.core.implements\pmc_internal.h

; 447  :     return (_addcarry_u64(carry, u, v, w));

	adc	rax, QWORD PTR [r8+24]
	mov	QWORD PTR [r9+24], rax
; File z:\sources\lunor\repos\rougemeilland\palmtree.math.core.implements\palmtree.math.core.implements\autogenerated_inline_func.h

; 2075 :     c = _ADD_UNIT(c, xp[4], yp[4], &zp[4]);

	mov	rax, QWORD PTR [rdx+32]
; File z:\sources\lunor\repos\rougemeilland\palmtree.math.core.implements\palmtree.math.core.implements\pmc_internal.h

; 447  :     return (_addcarry_u64(carry, u, v, w));

	adc	rax, QWORD PTR [r8+32]
	mov	QWORD PTR [r9+32], rax
; File z:\sources\lunor\repos\rougemeilland\palmtree.math.core.implements\palmtree.math.core.implements\autogenerated_inline_func.h

; 2076 :     c = _ADD_UNIT(c, xp[5], yp[5], &zp[5]);

	mov	rax, QWORD PTR [rdx+40]
; File z:\sources\lunor\repos\rougemeilland\palmtree.math.core.implements\palmtree.math.core.implements\pmc_internal.h

; 447  :     return (_addcarry_u64(carry, u, v, w));

	adc	rax, QWORD PTR [r8+40]
	mov	QWORD PTR [r9+40], rax
; File z:\sources\lunor\repos\rougemeilland\palmtree.math.core.implements\palmtree.math.core.implements\autogenerated_inline_func.h

; 2077 :     c = _ADD_UNIT(c, xp[6], yp[6], &zp[6]);

	mov	rax, QWORD PTR [rdx+48]
; File z:\sources\lunor\repos\rougemeilland\palmtree.math.core.implements\palmtree.math.core.implements\pmc_internal.h

; 447  :     return (_addcarry_u64(carry, u, v, w));

	adc	rax, QWORD PTR [r8+48]
	mov	QWORD PTR [r9+48], rax
; File z:\sources\lunor\repos\rougemeilland\palmtree.math.core.implements\palmtree.math.core.implements\autogenerated_inline_func.h

; 2078 :     c = _ADD_UNIT(c, xp[7], yp[7], &zp[7]);

	mov	rax, QWORD PTR [rdx+56]
; File z:\sources\lunor\repos\rougemeilland\palmtree.math.core.implements\palmtree.math.core.implements\pmc_internal.h

; 447  :     return (_addcarry_u64(carry, u, v, w));

	adc	rax, QWORD PTR [r8+56]
	mov	QWORD PTR [r9+56], rax
; File z:\sources\lunor\repos\rougemeilland\palmtree.math.core.implements\palmtree.math.core.implements\autogenerated_inline_func.h

; 2079 :     c = _ADD_UNIT(c, xp[8], yp[8], &zp[8]);

	mov	rax, QWORD PTR [rdx+64]
; File z:\sources\lunor\repos\rougemeilland\palmtree.math.core.implements\palmtree.math.core.implements\pmc_internal.h

; 447  :     return (_addcarry_u64(carry, u, v, w));

	adc	rax, QWORD PTR [r8+64]
	mov	QWORD PTR [r9+64], rax
; File z:\sources\lunor\repos\rougemeilland\palmtree.math.core.implements\palmtree.math.core.implements\autogenerated_inline_func.h

; 2080 :     c = _ADD_UNIT(c, xp[9], yp[9], &zp[9]);

	mov	rax, QWORD PTR [rdx+72]
; File z:\sources\lunor\repos\rougemeilland\palmtree.math.core.implements\palmtree.math.core.implements\pmc_internal.h

; 447  :     return (_addcarry_u64(carry, u, v, w));

	adc	rax, QWORD PTR [r8+72]
	mov	QWORD PTR [r9+72], rax
; File z:\sources\lunor\repos\rougemeilland\palmtree.math.core.implements\palmtree.math.core.implements\autogenerated_inline_func.h

; 2081 :     c = _ADD_UNIT(c, xp[10], yp[10], &zp[10]);

	mov	rax, QWORD PTR [rdx+80]
; File z:\sources\lunor\repos\rougemeilland\palmtree.math.core.implements\palmtree.math.core.implements\pmc_internal.h

; 447  :     return (_addcarry_u64(carry, u, v, w));

	adc	rax, QWORD PTR [r8+80]
	mov	QWORD PTR [r9+80], rax
; File z:\sources\lunor\repos\rougemeilland\palmtree.math.core.implements\palmtree.math.core.implements\autogenerated_inline_func.h

; 2082 :     c = _ADD_UNIT(c, xp[11], yp[11], &zp[11]);

	mov	rax, QWORD PTR [rdx+88]
; File z:\sources\lunor\repos\rougemeilland\palmtree.math.core.implements\palmtree.math.core.implements\pmc_internal.h

; 447  :     return (_addcarry_u64(carry, u, v, w));

	adc	rax, QWORD PTR [r8+88]
	mov	QWORD PTR [r9+88], rax
; File z:\sources\lunor\repos\rougemeilland\palmtree.math.core.implements\palmtree.math.core.implements\autogenerated_inline_func.h

; 2083 :     c = _ADD_UNIT(c, xp[12], yp[12], &zp[12]);

	mov	rax, QWORD PTR [rdx+96]
; File z:\sources\lunor\repos\rougemeilland\palmtree.math.core.implements\palmtree.math.core.implements\pmc_internal.h

; 447  :     return (_addcarry_u64(carry, u, v, w));

	adc	rax, QWORD PTR [r8+96]
	mov	QWORD PTR [r9+96], rax
; File z:\sources\lunor\repos\rougemeilland\palmtree.math.core.implements\palmtree.math.core.implements\autogenerated_inline_func.h

; 2084 :     c = _ADD_UNIT(c, xp[13], yp[13], &zp[13]);

	mov	rax, QWORD PTR [rdx+104]
; File z:\sources\lunor\repos\rougemeilland\palmtree.math.core.implements\palmtree.math.core.implements\pmc_internal.h

; 447  :     return (_addcarry_u64(carry, u, v, w));

	adc	rax, QWORD PTR [r8+104]
	mov	QWORD PTR [r9+104], rax
; File z:\sources\lunor\repos\rougemeilland\palmtree.math.core.implements\palmtree.math.core.implements\autogenerated_inline_func.h

; 2085 :     c = _ADD_UNIT(c, xp[14], yp[14], &zp[14]);

	mov	rax, QWORD PTR [rdx+112]
; File z:\sources\lunor\repos\rougemeilland\palmtree.math.core.implements\palmtree.math.core.implements\pmc_internal.h

; 447  :     return (_addcarry_u64(carry, u, v, w));

	adc	rax, QWORD PTR [r8+112]
	mov	QWORD PTR [r9+112], rax
; File z:\sources\lunor\repos\rougemeilland\palmtree.math.core.implements\palmtree.math.core.implements\autogenerated_inline_func.h

; 2086 :     c = _ADD_UNIT(c, xp[15], yp[15], &zp[15]);

	mov	rcx, QWORD PTR [rdx+120]
; File z:\sources\lunor\repos\rougemeilland\palmtree.math.core.implements\palmtree.math.core.implements\pmc_internal.h

; 447  :     return (_addcarry_u64(carry, u, v, w));

	adc	rcx, QWORD PTR [r8+120]
	mov	QWORD PTR [r9+120], rcx
	setb	al
; File z:\sources\lunor\repos\rougemeilland\palmtree.math.core.implements\palmtree.math.core.implements\autogenerated_inline_func.h

; 2207 : }

	ret	0
_ADD_16WORDS_ADC ENDP
_TEXT	ENDS
; Function compile flags: /Ogtpy
; File z:\sources\lunor\repos\rougemeilland\palmtree.math.core.implements\palmtree.math.core.implements\autogenerated_inline_func.h
; File z:\sources\lunor\repos\rougemeilland\palmtree.math.core.implements\palmtree.math.core.implements\pmc_internal.h
; File z:\sources\lunor\repos\rougemeilland\palmtree.math.core.implements\palmtree.math.core.implements\autogenerated_inline_func.h
; File z:\sources\lunor\repos\rougemeilland\palmtree.math.core.implements\palmtree.math.core.implements\pmc_internal.h
; File z:\sources\lunor\repos\rougemeilland\palmtree.math.core.implements\palmtree.math.core.implements\autogenerated_inline_func.h
; File z:\sources\lunor\repos\rougemeilland\palmtree.math.core.implements\palmtree.math.core.implements\pmc_internal.h
; File z:\sources\lunor\repos\rougemeilland\palmtree.math.core.implements\palmtree.math.core.implements\autogenerated_inline_func.h
; File z:\sources\lunor\repos\rougemeilland\palmtree.math.core.implements\palmtree.math.core.implements\pmc_internal.h
; File z:\sources\lunor\repos\rougemeilland\palmtree.math.core.implements\palmtree.math.core.implements\autogenerated_inline_func.h
; File z:\sources\lunor\repos\rougemeilland\palmtree.math.core.implements\palmtree.math.core.implements\pmc_internal.h
; File z:\sources\lunor\repos\rougemeilland\palmtree.math.core.implements\palmtree.math.core.implements\autogenerated_inline_func.h
; File z:\sources\lunor\repos\rougemeilland\palmtree.math.core.implements\palmtree.math.core.implements\pmc_internal.h
; File z:\sources\lunor\repos\rougemeilland\palmtree.math.core.implements\palmtree.math.core.implements\autogenerated_inline_func.h
; File z:\sources\lunor\repos\rougemeilland\palmtree.math.core.implements\palmtree.math.core.implements\pmc_internal.h
; File z:\sources\lunor\repos\rougemeilland\palmtree.math.core.implements\palmtree.math.core.implements\autogenerated_inline_func.h
; File z:\sources\lunor\repos\rougemeilland\palmtree.math.core.implements\palmtree.math.core.implements\pmc_internal.h
; File z:\sources\lunor\repos\rougemeilland\palmtree.math.core.implements\palmtree.math.core.implements\autogenerated_inline_func.h
; File z:\sources\lunor\repos\rougemeilland\palmtree.math.core.implements\palmtree.math.core.implements\pmc_internal.h
; File z:\sources\lunor\repos\rougemeilland\palmtree.math.core.implements\palmtree.math.core.implements\autogenerated_inline_func.h
; File z:\sources\lunor\repos\rougemeilland\palmtree.math.core.implements\palmtree.math.core.implements\pmc_internal.h
; File z:\sources\lunor\repos\rougemeilland\palmtree.math.core.implements\palmtree.math.core.implements\autogenerated_inline_func.h
; File z:\sources\lunor\repos\rougemeilland\palmtree.math.core.implements\palmtree.math.core.implements\pmc_internal.h
; File z:\sources\lunor\repos\rougemeilland\palmtree.math.core.implements\palmtree.math.core.implements\autogenerated_inline_func.h
; File z:\sources\lunor\repos\rougemeilland\palmtree.math.core.implements\palmtree.math.core.implements\pmc_internal.h
; File z:\sources\lunor\repos\rougemeilland\palmtree.math.core.implements\palmtree.math.core.implements\autogenerated_inline_func.h
; File z:\sources\lunor\repos\rougemeilland\palmtree.math.core.implements\palmtree.math.core.implements\pmc_internal.h
; File z:\sources\lunor\repos\rougemeilland\palmtree.math.core.implements\palmtree.math.core.implements\autogenerated_inline_func.h
; File z:\sources\lunor\repos\rougemeilland\palmtree.math.core.implements\palmtree.math.core.implements\pmc_internal.h
; File z:\sources\lunor\repos\rougemeilland\palmtree.math.core.implements\palmtree.math.core.implements\autogenerated_inline_func.h
; File z:\sources\lunor\repos\rougemeilland\palmtree.math.core.implements\palmtree.math.core.implements\pmc_internal.h
; File z:\sources\lunor\repos\rougemeilland\palmtree.math.core.implements\palmtree.math.core.implements\autogenerated_inline_func.h
; File z:\sources\lunor\repos\rougemeilland\palmtree.math.core.implements\palmtree.math.core.implements\pmc_internal.h
; File z:\sources\lunor\repos\rougemeilland\palmtree.math.core.implements\palmtree.math.core.implements\autogenerated_inline_func.h
; File z:\sources\lunor\repos\rougemeilland\palmtree.math.core.implements\palmtree.math.core.implements\pmc_internal.h
; File z:\sources\lunor\repos\rougemeilland\palmtree.math.core.implements\palmtree.math.core.implements\autogenerated_inline_func.h
; File z:\sources\lunor\repos\rougemeilland\palmtree.math.core.implements\palmtree.math.core.implements\pmc_internal.h
; File z:\sources\lunor\repos\rougemeilland\palmtree.math.core.implements\palmtree.math.core.implements\autogenerated_inline_func.h
; File z:\sources\lunor\repos\rougemeilland\palmtree.math.core.implements\palmtree.math.core.implements\pmc_internal.h
; File z:\sources\lunor\repos\rougemeilland\palmtree.math.core.implements\palmtree.math.core.implements\autogenerated_inline_func.h
; File z:\sources\lunor\repos\rougemeilland\palmtree.math.core.implements\palmtree.math.core.implements\pmc_internal.h
; File z:\sources\lunor\repos\rougemeilland\palmtree.math.core.implements\palmtree.math.core.implements\autogenerated_inline_func.h
; File z:\sources\lunor\repos\rougemeilland\palmtree.math.core.implements\palmtree.math.core.implements\pmc_internal.h
; File z:\sources\lunor\repos\rougemeilland\palmtree.math.core.implements\palmtree.math.core.implements\autogenerated_inline_func.h
; File z:\sources\lunor\repos\rougemeilland\palmtree.math.core.implements\palmtree.math.core.implements\pmc_internal.h
; File z:\sources\lunor\repos\rougemeilland\palmtree.math.core.implements\palmtree.math.core.implements\autogenerated_inline_func.h
; File z:\sources\lunor\repos\rougemeilland\palmtree.math.core.implements\palmtree.math.core.implements\pmc_internal.h
; File z:\sources\lunor\repos\rougemeilland\palmtree.math.core.implements\palmtree.math.core.implements\autogenerated_inline_func.h
; File z:\sources\lunor\repos\rougemeilland\palmtree.math.core.implements\palmtree.math.core.implements\pmc_internal.h
; File z:\sources\lunor\repos\rougemeilland\palmtree.math.core.implements\palmtree.math.core.implements\autogenerated_inline_func.h
; File z:\sources\lunor\repos\rougemeilland\palmtree.math.core.implements\palmtree.math.core.implements\pmc_internal.h
; File z:\sources\lunor\repos\rougemeilland\palmtree.math.core.implements\palmtree.math.core.implements\autogenerated_inline_func.h
; File z:\sources\lunor\repos\rougemeilland\palmtree.math.core.implements\palmtree.math.core.implements\pmc_internal.h
; File z:\sources\lunor\repos\rougemeilland\palmtree.math.core.implements\palmtree.math.core.implements\autogenerated_inline_func.h
; File z:\sources\lunor\repos\rougemeilland\palmtree.math.core.implements\palmtree.math.core.implements\pmc_internal.h
; File z:\sources\lunor\repos\rougemeilland\palmtree.math.core.implements\palmtree.math.core.implements\autogenerated_inline_func.h
; File z:\sources\lunor\repos\rougemeilland\palmtree.math.core.implements\palmtree.math.core.implements\pmc_internal.h
; File z:\sources\lunor\repos\rougemeilland\palmtree.math.core.implements\palmtree.math.core.implements\autogenerated_inline_func.h
; File z:\sources\lunor\repos\rougemeilland\palmtree.math.core.implements\palmtree.math.core.implements\pmc_internal.h
; File z:\sources\lunor\repos\rougemeilland\palmtree.math.core.implements\palmtree.math.core.implements\autogenerated_inline_func.h
; File z:\sources\lunor\repos\rougemeilland\palmtree.math.core.implements\palmtree.math.core.implements\pmc_internal.h
; File z:\sources\lunor\repos\rougemeilland\palmtree.math.core.implements\palmtree.math.core.implements\autogenerated_inline_func.h
; File z:\sources\lunor\repos\rougemeilland\palmtree.math.core.implements\palmtree.math.core.implements\pmc_internal.h
; File z:\sources\lunor\repos\rougemeilland\palmtree.math.core.implements\palmtree.math.core.implements\autogenerated_inline_func.h
; File z:\sources\lunor\repos\rougemeilland\palmtree.math.core.implements\palmtree.math.core.implements\pmc_internal.h
; File z:\sources\lunor\repos\rougemeilland\palmtree.math.core.implements\palmtree.math.core.implements\autogenerated_inline_func.h
;	COMDAT _ADD_32WORDS_ADCX
_TEXT	SEGMENT
c$ = 8
xp$ = 16
yp$ = 24
zp$ = 32
_ADD_32WORDS_ADCX PROC					; COMDAT

; 299  : #ifdef _MSC_VER
; 300  :     c = _ADDX_UNIT(c, xp[0], yp[0], &zp[0]);

	mov	rax, QWORD PTR [rdx]
; File z:\sources\lunor\repos\rougemeilland\palmtree.math.core.implements\palmtree.math.core.implements\pmc_internal.h

; 475  :     return (_addcarryx_u64(carry, u, v, w));

	add	cl, -1
	adcx	rax, QWORD PTR [r8]
	mov	QWORD PTR [r9], rax
; File z:\sources\lunor\repos\rougemeilland\palmtree.math.core.implements\palmtree.math.core.implements\autogenerated_inline_func.h

; 301  :     c = _ADDX_UNIT(c, xp[1], yp[1], &zp[1]);

	mov	rax, QWORD PTR [rdx+8]
; File z:\sources\lunor\repos\rougemeilland\palmtree.math.core.implements\palmtree.math.core.implements\pmc_internal.h

; 475  :     return (_addcarryx_u64(carry, u, v, w));

	adcx	rax, QWORD PTR [r8+8]
	mov	QWORD PTR [r9+8], rax
; File z:\sources\lunor\repos\rougemeilland\palmtree.math.core.implements\palmtree.math.core.implements\autogenerated_inline_func.h

; 302  :     c = _ADDX_UNIT(c, xp[2], yp[2], &zp[2]);

	mov	rax, QWORD PTR [rdx+16]
; File z:\sources\lunor\repos\rougemeilland\palmtree.math.core.implements\palmtree.math.core.implements\pmc_internal.h

; 475  :     return (_addcarryx_u64(carry, u, v, w));

	adcx	rax, QWORD PTR [r8+16]
	mov	QWORD PTR [r9+16], rax
; File z:\sources\lunor\repos\rougemeilland\palmtree.math.core.implements\palmtree.math.core.implements\autogenerated_inline_func.h

; 303  :     c = _ADDX_UNIT(c, xp[3], yp[3], &zp[3]);

	mov	rax, QWORD PTR [rdx+24]
; File z:\sources\lunor\repos\rougemeilland\palmtree.math.core.implements\palmtree.math.core.implements\pmc_internal.h

; 475  :     return (_addcarryx_u64(carry, u, v, w));

	adcx	rax, QWORD PTR [r8+24]
	mov	QWORD PTR [r9+24], rax
; File z:\sources\lunor\repos\rougemeilland\palmtree.math.core.implements\palmtree.math.core.implements\autogenerated_inline_func.h

; 304  :     c = _ADDX_UNIT(c, xp[4], yp[4], &zp[4]);

	mov	rax, QWORD PTR [rdx+32]
; File z:\sources\lunor\repos\rougemeilland\palmtree.math.core.implements\palmtree.math.core.implements\pmc_internal.h

; 475  :     return (_addcarryx_u64(carry, u, v, w));

	adcx	rax, QWORD PTR [r8+32]
	mov	QWORD PTR [r9+32], rax
; File z:\sources\lunor\repos\rougemeilland\palmtree.math.core.implements\palmtree.math.core.implements\autogenerated_inline_func.h

; 305  :     c = _ADDX_UNIT(c, xp[5], yp[5], &zp[5]);

	mov	rax, QWORD PTR [rdx+40]
; File z:\sources\lunor\repos\rougemeilland\palmtree.math.core.implements\palmtree.math.core.implements\pmc_internal.h

; 475  :     return (_addcarryx_u64(carry, u, v, w));

	adcx	rax, QWORD PTR [r8+40]
	mov	QWORD PTR [r9+40], rax
; File z:\sources\lunor\repos\rougemeilland\palmtree.math.core.implements\palmtree.math.core.implements\autogenerated_inline_func.h

; 306  :     c = _ADDX_UNIT(c, xp[6], yp[6], &zp[6]);

	mov	rax, QWORD PTR [rdx+48]
; File z:\sources\lunor\repos\rougemeilland\palmtree.math.core.implements\palmtree.math.core.implements\pmc_internal.h

; 475  :     return (_addcarryx_u64(carry, u, v, w));

	adcx	rax, QWORD PTR [r8+48]
	mov	QWORD PTR [r9+48], rax
; File z:\sources\lunor\repos\rougemeilland\palmtree.math.core.implements\palmtree.math.core.implements\autogenerated_inline_func.h

; 307  :     c = _ADDX_UNIT(c, xp[7], yp[7], &zp[7]);

	mov	rax, QWORD PTR [rdx+56]
; File z:\sources\lunor\repos\rougemeilland\palmtree.math.core.implements\palmtree.math.core.implements\pmc_internal.h

; 475  :     return (_addcarryx_u64(carry, u, v, w));

	adcx	rax, QWORD PTR [r8+56]
	mov	QWORD PTR [r9+56], rax
; File z:\sources\lunor\repos\rougemeilland\palmtree.math.core.implements\palmtree.math.core.implements\autogenerated_inline_func.h

; 308  :     c = _ADDX_UNIT(c, xp[8], yp[8], &zp[8]);

	mov	rax, QWORD PTR [rdx+64]
; File z:\sources\lunor\repos\rougemeilland\palmtree.math.core.implements\palmtree.math.core.implements\pmc_internal.h

; 475  :     return (_addcarryx_u64(carry, u, v, w));

	adcx	rax, QWORD PTR [r8+64]
	mov	QWORD PTR [r9+64], rax
; File z:\sources\lunor\repos\rougemeilland\palmtree.math.core.implements\palmtree.math.core.implements\autogenerated_inline_func.h

; 309  :     c = _ADDX_UNIT(c, xp[9], yp[9], &zp[9]);

	mov	rax, QWORD PTR [rdx+72]
; File z:\sources\lunor\repos\rougemeilland\palmtree.math.core.implements\palmtree.math.core.implements\pmc_internal.h

; 475  :     return (_addcarryx_u64(carry, u, v, w));

	adcx	rax, QWORD PTR [r8+72]
	mov	QWORD PTR [r9+72], rax
; File z:\sources\lunor\repos\rougemeilland\palmtree.math.core.implements\palmtree.math.core.implements\autogenerated_inline_func.h

; 310  :     c = _ADDX_UNIT(c, xp[10], yp[10], &zp[10]);

	mov	rax, QWORD PTR [rdx+80]
; File z:\sources\lunor\repos\rougemeilland\palmtree.math.core.implements\palmtree.math.core.implements\pmc_internal.h

; 475  :     return (_addcarryx_u64(carry, u, v, w));

	adcx	rax, QWORD PTR [r8+80]
	mov	QWORD PTR [r9+80], rax
; File z:\sources\lunor\repos\rougemeilland\palmtree.math.core.implements\palmtree.math.core.implements\autogenerated_inline_func.h

; 311  :     c = _ADDX_UNIT(c, xp[11], yp[11], &zp[11]);

	mov	rax, QWORD PTR [rdx+88]
; File z:\sources\lunor\repos\rougemeilland\palmtree.math.core.implements\palmtree.math.core.implements\pmc_internal.h

; 475  :     return (_addcarryx_u64(carry, u, v, w));

	adcx	rax, QWORD PTR [r8+88]
	mov	QWORD PTR [r9+88], rax
; File z:\sources\lunor\repos\rougemeilland\palmtree.math.core.implements\palmtree.math.core.implements\autogenerated_inline_func.h

; 312  :     c = _ADDX_UNIT(c, xp[12], yp[12], &zp[12]);

	mov	rax, QWORD PTR [rdx+96]
; File z:\sources\lunor\repos\rougemeilland\palmtree.math.core.implements\palmtree.math.core.implements\pmc_internal.h

; 475  :     return (_addcarryx_u64(carry, u, v, w));

	adcx	rax, QWORD PTR [r8+96]
	mov	QWORD PTR [r9+96], rax
; File z:\sources\lunor\repos\rougemeilland\palmtree.math.core.implements\palmtree.math.core.implements\autogenerated_inline_func.h

; 313  :     c = _ADDX_UNIT(c, xp[13], yp[13], &zp[13]);

	mov	rax, QWORD PTR [rdx+104]
; File z:\sources\lunor\repos\rougemeilland\palmtree.math.core.implements\palmtree.math.core.implements\pmc_internal.h

; 475  :     return (_addcarryx_u64(carry, u, v, w));

	adcx	rax, QWORD PTR [r8+104]
	mov	QWORD PTR [r9+104], rax
; File z:\sources\lunor\repos\rougemeilland\palmtree.math.core.implements\palmtree.math.core.implements\autogenerated_inline_func.h

; 314  :     c = _ADDX_UNIT(c, xp[14], yp[14], &zp[14]);

	mov	rax, QWORD PTR [rdx+112]
; File z:\sources\lunor\repos\rougemeilland\palmtree.math.core.implements\palmtree.math.core.implements\pmc_internal.h

; 475  :     return (_addcarryx_u64(carry, u, v, w));

	adcx	rax, QWORD PTR [r8+112]
	mov	QWORD PTR [r9+112], rax
; File z:\sources\lunor\repos\rougemeilland\palmtree.math.core.implements\palmtree.math.core.implements\autogenerated_inline_func.h

; 315  :     c = _ADDX_UNIT(c, xp[15], yp[15], &zp[15]);

	mov	rax, QWORD PTR [rdx+120]
; File z:\sources\lunor\repos\rougemeilland\palmtree.math.core.implements\palmtree.math.core.implements\pmc_internal.h

; 475  :     return (_addcarryx_u64(carry, u, v, w));

	adcx	rax, QWORD PTR [r8+120]
	mov	QWORD PTR [r9+120], rax
; File z:\sources\lunor\repos\rougemeilland\palmtree.math.core.implements\palmtree.math.core.implements\autogenerated_inline_func.h

; 316  :     c = _ADDX_UNIT(c, xp[16], yp[16], &zp[16]);

	mov	rax, QWORD PTR [rdx+128]
; File z:\sources\lunor\repos\rougemeilland\palmtree.math.core.implements\palmtree.math.core.implements\pmc_internal.h

; 475  :     return (_addcarryx_u64(carry, u, v, w));

	adcx	rax, QWORD PTR [r8+128]
	mov	QWORD PTR [r9+128], rax
; File z:\sources\lunor\repos\rougemeilland\palmtree.math.core.implements\palmtree.math.core.implements\autogenerated_inline_func.h

; 317  :     c = _ADDX_UNIT(c, xp[17], yp[17], &zp[17]);

	mov	rax, QWORD PTR [rdx+136]
; File z:\sources\lunor\repos\rougemeilland\palmtree.math.core.implements\palmtree.math.core.implements\pmc_internal.h

; 475  :     return (_addcarryx_u64(carry, u, v, w));

	adcx	rax, QWORD PTR [r8+136]
	mov	QWORD PTR [r9+136], rax
; File z:\sources\lunor\repos\rougemeilland\palmtree.math.core.implements\palmtree.math.core.implements\autogenerated_inline_func.h

; 318  :     c = _ADDX_UNIT(c, xp[18], yp[18], &zp[18]);

	mov	rax, QWORD PTR [rdx+144]
; File z:\sources\lunor\repos\rougemeilland\palmtree.math.core.implements\palmtree.math.core.implements\pmc_internal.h

; 475  :     return (_addcarryx_u64(carry, u, v, w));

	adcx	rax, QWORD PTR [r8+144]
	mov	QWORD PTR [r9+144], rax
; File z:\sources\lunor\repos\rougemeilland\palmtree.math.core.implements\palmtree.math.core.implements\autogenerated_inline_func.h

; 319  :     c = _ADDX_UNIT(c, xp[19], yp[19], &zp[19]);

	mov	rax, QWORD PTR [rdx+152]
; File z:\sources\lunor\repos\rougemeilland\palmtree.math.core.implements\palmtree.math.core.implements\pmc_internal.h

; 475  :     return (_addcarryx_u64(carry, u, v, w));

	adcx	rax, QWORD PTR [r8+152]
	mov	QWORD PTR [r9+152], rax
; File z:\sources\lunor\repos\rougemeilland\palmtree.math.core.implements\palmtree.math.core.implements\autogenerated_inline_func.h

; 320  :     c = _ADDX_UNIT(c, xp[20], yp[20], &zp[20]);

	mov	rax, QWORD PTR [rdx+160]
; File z:\sources\lunor\repos\rougemeilland\palmtree.math.core.implements\palmtree.math.core.implements\pmc_internal.h

; 475  :     return (_addcarryx_u64(carry, u, v, w));

	adcx	rax, QWORD PTR [r8+160]
	mov	QWORD PTR [r9+160], rax
; File z:\sources\lunor\repos\rougemeilland\palmtree.math.core.implements\palmtree.math.core.implements\autogenerated_inline_func.h

; 321  :     c = _ADDX_UNIT(c, xp[21], yp[21], &zp[21]);

	mov	rax, QWORD PTR [rdx+168]
; File z:\sources\lunor\repos\rougemeilland\palmtree.math.core.implements\palmtree.math.core.implements\pmc_internal.h

; 475  :     return (_addcarryx_u64(carry, u, v, w));

	adcx	rax, QWORD PTR [r8+168]
	mov	QWORD PTR [r9+168], rax
; File z:\sources\lunor\repos\rougemeilland\palmtree.math.core.implements\palmtree.math.core.implements\autogenerated_inline_func.h

; 322  :     c = _ADDX_UNIT(c, xp[22], yp[22], &zp[22]);

	mov	rax, QWORD PTR [rdx+176]
; File z:\sources\lunor\repos\rougemeilland\palmtree.math.core.implements\palmtree.math.core.implements\pmc_internal.h

; 475  :     return (_addcarryx_u64(carry, u, v, w));

	adcx	rax, QWORD PTR [r8+176]
	mov	QWORD PTR [r9+176], rax
; File z:\sources\lunor\repos\rougemeilland\palmtree.math.core.implements\palmtree.math.core.implements\autogenerated_inline_func.h

; 323  :     c = _ADDX_UNIT(c, xp[23], yp[23], &zp[23]);

	mov	rax, QWORD PTR [rdx+184]
; File z:\sources\lunor\repos\rougemeilland\palmtree.math.core.implements\palmtree.math.core.implements\pmc_internal.h

; 475  :     return (_addcarryx_u64(carry, u, v, w));

	adcx	rax, QWORD PTR [r8+184]
	mov	QWORD PTR [r9+184], rax
; File z:\sources\lunor\repos\rougemeilland\palmtree.math.core.implements\palmtree.math.core.implements\autogenerated_inline_func.h

; 324  :     c = _ADDX_UNIT(c, xp[24], yp[24], &zp[24]);

	mov	rax, QWORD PTR [rdx+192]
; File z:\sources\lunor\repos\rougemeilland\palmtree.math.core.implements\palmtree.math.core.implements\pmc_internal.h

; 475  :     return (_addcarryx_u64(carry, u, v, w));

	adcx	rax, QWORD PTR [r8+192]
	mov	QWORD PTR [r9+192], rax
; File z:\sources\lunor\repos\rougemeilland\palmtree.math.core.implements\palmtree.math.core.implements\autogenerated_inline_func.h

; 325  :     c = _ADDX_UNIT(c, xp[25], yp[25], &zp[25]);

	mov	rax, QWORD PTR [rdx+200]
; File z:\sources\lunor\repos\rougemeilland\palmtree.math.core.implements\palmtree.math.core.implements\pmc_internal.h

; 475  :     return (_addcarryx_u64(carry, u, v, w));

	adcx	rax, QWORD PTR [r8+200]
	mov	QWORD PTR [r9+200], rax
; File z:\sources\lunor\repos\rougemeilland\palmtree.math.core.implements\palmtree.math.core.implements\autogenerated_inline_func.h

; 326  :     c = _ADDX_UNIT(c, xp[26], yp[26], &zp[26]);

	mov	rax, QWORD PTR [rdx+208]
; File z:\sources\lunor\repos\rougemeilland\palmtree.math.core.implements\palmtree.math.core.implements\pmc_internal.h

; 475  :     return (_addcarryx_u64(carry, u, v, w));

	adcx	rax, QWORD PTR [r8+208]
	mov	QWORD PTR [r9+208], rax
; File z:\sources\lunor\repos\rougemeilland\palmtree.math.core.implements\palmtree.math.core.implements\autogenerated_inline_func.h

; 327  :     c = _ADDX_UNIT(c, xp[27], yp[27], &zp[27]);

	mov	rax, QWORD PTR [rdx+216]
; File z:\sources\lunor\repos\rougemeilland\palmtree.math.core.implements\palmtree.math.core.implements\pmc_internal.h

; 475  :     return (_addcarryx_u64(carry, u, v, w));

	adcx	rax, QWORD PTR [r8+216]
	mov	QWORD PTR [r9+216], rax
; File z:\sources\lunor\repos\rougemeilland\palmtree.math.core.implements\palmtree.math.core.implements\autogenerated_inline_func.h

; 328  :     c = _ADDX_UNIT(c, xp[28], yp[28], &zp[28]);

	mov	rax, QWORD PTR [rdx+224]
; File z:\sources\lunor\repos\rougemeilland\palmtree.math.core.implements\palmtree.math.core.implements\pmc_internal.h

; 475  :     return (_addcarryx_u64(carry, u, v, w));

	adcx	rax, QWORD PTR [r8+224]
	mov	QWORD PTR [r9+224], rax
; File z:\sources\lunor\repos\rougemeilland\palmtree.math.core.implements\palmtree.math.core.implements\autogenerated_inline_func.h

; 329  :     c = _ADDX_UNIT(c, xp[29], yp[29], &zp[29]);

	mov	rax, QWORD PTR [rdx+232]
; File z:\sources\lunor\repos\rougemeilland\palmtree.math.core.implements\palmtree.math.core.implements\pmc_internal.h

; 475  :     return (_addcarryx_u64(carry, u, v, w));

	adcx	rax, QWORD PTR [r8+232]
	mov	QWORD PTR [r9+232], rax
; File z:\sources\lunor\repos\rougemeilland\palmtree.math.core.implements\palmtree.math.core.implements\autogenerated_inline_func.h

; 330  :     c = _ADDX_UNIT(c, xp[30], yp[30], &zp[30]);

	mov	rax, QWORD PTR [rdx+240]
; File z:\sources\lunor\repos\rougemeilland\palmtree.math.core.implements\palmtree.math.core.implements\pmc_internal.h

; 475  :     return (_addcarryx_u64(carry, u, v, w));

	adcx	rax, QWORD PTR [r8+240]
	mov	QWORD PTR [r9+240], rax
; File z:\sources\lunor\repos\rougemeilland\palmtree.math.core.implements\palmtree.math.core.implements\autogenerated_inline_func.h

; 331  :     c = _ADDX_UNIT(c, xp[31], yp[31], &zp[31]);

	mov	rcx, QWORD PTR [rdx+248]
; File z:\sources\lunor\repos\rougemeilland\palmtree.math.core.implements\palmtree.math.core.implements\pmc_internal.h

; 475  :     return (_addcarryx_u64(carry, u, v, w));

	adcx	rcx, QWORD PTR [r8+248]
	mov	QWORD PTR [r9+248], rcx
	setb	al
; File z:\sources\lunor\repos\rougemeilland\palmtree.math.core.implements\palmtree.math.core.implements\autogenerated_inline_func.h

; 548  : }

	ret	0
_ADD_32WORDS_ADCX ENDP
_TEXT	ENDS
; Function compile flags: /Ogtpy
; File z:\sources\lunor\repos\rougemeilland\palmtree.math.core.implements\palmtree.math.core.implements\autogenerated_inline_func.h
; File z:\sources\lunor\repos\rougemeilland\palmtree.math.core.implements\palmtree.math.core.implements\pmc_internal.h
; File z:\sources\lunor\repos\rougemeilland\palmtree.math.core.implements\palmtree.math.core.implements\autogenerated_inline_func.h
; File z:\sources\lunor\repos\rougemeilland\palmtree.math.core.implements\palmtree.math.core.implements\pmc_internal.h
; File z:\sources\lunor\repos\rougemeilland\palmtree.math.core.implements\palmtree.math.core.implements\autogenerated_inline_func.h
; File z:\sources\lunor\repos\rougemeilland\palmtree.math.core.implements\palmtree.math.core.implements\pmc_internal.h
; File z:\sources\lunor\repos\rougemeilland\palmtree.math.core.implements\palmtree.math.core.implements\autogenerated_inline_func.h
; File z:\sources\lunor\repos\rougemeilland\palmtree.math.core.implements\palmtree.math.core.implements\pmc_internal.h
; File z:\sources\lunor\repos\rougemeilland\palmtree.math.core.implements\palmtree.math.core.implements\autogenerated_inline_func.h
; File z:\sources\lunor\repos\rougemeilland\palmtree.math.core.implements\palmtree.math.core.implements\pmc_internal.h
; File z:\sources\lunor\repos\rougemeilland\palmtree.math.core.implements\palmtree.math.core.implements\autogenerated_inline_func.h
; File z:\sources\lunor\repos\rougemeilland\palmtree.math.core.implements\palmtree.math.core.implements\pmc_internal.h
; File z:\sources\lunor\repos\rougemeilland\palmtree.math.core.implements\palmtree.math.core.implements\autogenerated_inline_func.h
; File z:\sources\lunor\repos\rougemeilland\palmtree.math.core.implements\palmtree.math.core.implements\pmc_internal.h
; File z:\sources\lunor\repos\rougemeilland\palmtree.math.core.implements\palmtree.math.core.implements\autogenerated_inline_func.h
; File z:\sources\lunor\repos\rougemeilland\palmtree.math.core.implements\palmtree.math.core.implements\pmc_internal.h
; File z:\sources\lunor\repos\rougemeilland\palmtree.math.core.implements\palmtree.math.core.implements\autogenerated_inline_func.h
; File z:\sources\lunor\repos\rougemeilland\palmtree.math.core.implements\palmtree.math.core.implements\pmc_internal.h
; File z:\sources\lunor\repos\rougemeilland\palmtree.math.core.implements\palmtree.math.core.implements\autogenerated_inline_func.h
; File z:\sources\lunor\repos\rougemeilland\palmtree.math.core.implements\palmtree.math.core.implements\pmc_internal.h
; File z:\sources\lunor\repos\rougemeilland\palmtree.math.core.implements\palmtree.math.core.implements\autogenerated_inline_func.h
; File z:\sources\lunor\repos\rougemeilland\palmtree.math.core.implements\palmtree.math.core.implements\pmc_internal.h
; File z:\sources\lunor\repos\rougemeilland\palmtree.math.core.implements\palmtree.math.core.implements\autogenerated_inline_func.h
; File z:\sources\lunor\repos\rougemeilland\palmtree.math.core.implements\palmtree.math.core.implements\pmc_internal.h
; File z:\sources\lunor\repos\rougemeilland\palmtree.math.core.implements\palmtree.math.core.implements\autogenerated_inline_func.h
; File z:\sources\lunor\repos\rougemeilland\palmtree.math.core.implements\palmtree.math.core.implements\pmc_internal.h
; File z:\sources\lunor\repos\rougemeilland\palmtree.math.core.implements\palmtree.math.core.implements\autogenerated_inline_func.h
; File z:\sources\lunor\repos\rougemeilland\palmtree.math.core.implements\palmtree.math.core.implements\pmc_internal.h
; File z:\sources\lunor\repos\rougemeilland\palmtree.math.core.implements\palmtree.math.core.implements\autogenerated_inline_func.h
; File z:\sources\lunor\repos\rougemeilland\palmtree.math.core.implements\palmtree.math.core.implements\pmc_internal.h
; File z:\sources\lunor\repos\rougemeilland\palmtree.math.core.implements\palmtree.math.core.implements\autogenerated_inline_func.h
; File z:\sources\lunor\repos\rougemeilland\palmtree.math.core.implements\palmtree.math.core.implements\pmc_internal.h
; File z:\sources\lunor\repos\rougemeilland\palmtree.math.core.implements\palmtree.math.core.implements\autogenerated_inline_func.h
; File z:\sources\lunor\repos\rougemeilland\palmtree.math.core.implements\palmtree.math.core.implements\pmc_internal.h
; File z:\sources\lunor\repos\rougemeilland\palmtree.math.core.implements\palmtree.math.core.implements\autogenerated_inline_func.h
; File z:\sources\lunor\repos\rougemeilland\palmtree.math.core.implements\palmtree.math.core.implements\pmc_internal.h
; File z:\sources\lunor\repos\rougemeilland\palmtree.math.core.implements\palmtree.math.core.implements\autogenerated_inline_func.h
; File z:\sources\lunor\repos\rougemeilland\palmtree.math.core.implements\palmtree.math.core.implements\pmc_internal.h
; File z:\sources\lunor\repos\rougemeilland\palmtree.math.core.implements\palmtree.math.core.implements\autogenerated_inline_func.h
; File z:\sources\lunor\repos\rougemeilland\palmtree.math.core.implements\palmtree.math.core.implements\pmc_internal.h
; File z:\sources\lunor\repos\rougemeilland\palmtree.math.core.implements\palmtree.math.core.implements\autogenerated_inline_func.h
; File z:\sources\lunor\repos\rougemeilland\palmtree.math.core.implements\palmtree.math.core.implements\pmc_internal.h
; File z:\sources\lunor\repos\rougemeilland\palmtree.math.core.implements\palmtree.math.core.implements\autogenerated_inline_func.h
; File z:\sources\lunor\repos\rougemeilland\palmtree.math.core.implements\palmtree.math.core.implements\pmc_internal.h
; File z:\sources\lunor\repos\rougemeilland\palmtree.math.core.implements\palmtree.math.core.implements\autogenerated_inline_func.h
; File z:\sources\lunor\repos\rougemeilland\palmtree.math.core.implements\palmtree.math.core.implements\pmc_internal.h
; File z:\sources\lunor\repos\rougemeilland\palmtree.math.core.implements\palmtree.math.core.implements\autogenerated_inline_func.h
; File z:\sources\lunor\repos\rougemeilland\palmtree.math.core.implements\palmtree.math.core.implements\pmc_internal.h
; File z:\sources\lunor\repos\rougemeilland\palmtree.math.core.implements\palmtree.math.core.implements\autogenerated_inline_func.h
; File z:\sources\lunor\repos\rougemeilland\palmtree.math.core.implements\palmtree.math.core.implements\pmc_internal.h
; File z:\sources\lunor\repos\rougemeilland\palmtree.math.core.implements\palmtree.math.core.implements\autogenerated_inline_func.h
; File z:\sources\lunor\repos\rougemeilland\palmtree.math.core.implements\palmtree.math.core.implements\pmc_internal.h
; File z:\sources\lunor\repos\rougemeilland\palmtree.math.core.implements\palmtree.math.core.implements\autogenerated_inline_func.h
; File z:\sources\lunor\repos\rougemeilland\palmtree.math.core.implements\palmtree.math.core.implements\pmc_internal.h
; File z:\sources\lunor\repos\rougemeilland\palmtree.math.core.implements\palmtree.math.core.implements\autogenerated_inline_func.h
; File z:\sources\lunor\repos\rougemeilland\palmtree.math.core.implements\palmtree.math.core.implements\pmc_internal.h
; File z:\sources\lunor\repos\rougemeilland\palmtree.math.core.implements\palmtree.math.core.implements\autogenerated_inline_func.h
; File z:\sources\lunor\repos\rougemeilland\palmtree.math.core.implements\palmtree.math.core.implements\pmc_internal.h
; File z:\sources\lunor\repos\rougemeilland\palmtree.math.core.implements\palmtree.math.core.implements\autogenerated_inline_func.h
; File z:\sources\lunor\repos\rougemeilland\palmtree.math.core.implements\palmtree.math.core.implements\pmc_internal.h
; File z:\sources\lunor\repos\rougemeilland\palmtree.math.core.implements\palmtree.math.core.implements\autogenerated_inline_func.h
; File z:\sources\lunor\repos\rougemeilland\palmtree.math.core.implements\palmtree.math.core.implements\pmc_internal.h
; File z:\sources\lunor\repos\rougemeilland\palmtree.math.core.implements\palmtree.math.core.implements\autogenerated_inline_func.h
; File z:\sources\lunor\repos\rougemeilland\palmtree.math.core.implements\palmtree.math.core.implements\pmc_internal.h
; File z:\sources\lunor\repos\rougemeilland\palmtree.math.core.implements\palmtree.math.core.implements\autogenerated_inline_func.h
;	COMDAT _ADD_32WORDS_ADC
_TEXT	SEGMENT
c$ = 8
xp$ = 16
yp$ = 24
zp$ = 32
_ADD_32WORDS_ADC PROC					; COMDAT

; 46   : #ifdef _MSC_VER
; 47   :     c = _ADD_UNIT(c, xp[0], yp[0], &zp[0]);

	mov	rax, QWORD PTR [rdx]
; File z:\sources\lunor\repos\rougemeilland\palmtree.math.core.implements\palmtree.math.core.implements\pmc_internal.h

; 447  :     return (_addcarry_u64(carry, u, v, w));

	add	cl, -1
	adc	rax, QWORD PTR [r8]
	mov	QWORD PTR [r9], rax
; File z:\sources\lunor\repos\rougemeilland\palmtree.math.core.implements\palmtree.math.core.implements\autogenerated_inline_func.h

; 48   :     c = _ADD_UNIT(c, xp[1], yp[1], &zp[1]);

	mov	rax, QWORD PTR [rdx+8]
; File z:\sources\lunor\repos\rougemeilland\palmtree.math.core.implements\palmtree.math.core.implements\pmc_internal.h

; 447  :     return (_addcarry_u64(carry, u, v, w));

	adc	rax, QWORD PTR [r8+8]
	mov	QWORD PTR [r9+8], rax
; File z:\sources\lunor\repos\rougemeilland\palmtree.math.core.implements\palmtree.math.core.implements\autogenerated_inline_func.h

; 49   :     c = _ADD_UNIT(c, xp[2], yp[2], &zp[2]);

	mov	rax, QWORD PTR [rdx+16]
; File z:\sources\lunor\repos\rougemeilland\palmtree.math.core.implements\palmtree.math.core.implements\pmc_internal.h

; 447  :     return (_addcarry_u64(carry, u, v, w));

	adc	rax, QWORD PTR [r8+16]
	mov	QWORD PTR [r9+16], rax
; File z:\sources\lunor\repos\rougemeilland\palmtree.math.core.implements\palmtree.math.core.implements\autogenerated_inline_func.h

; 50   :     c = _ADD_UNIT(c, xp[3], yp[3], &zp[3]);

	mov	rax, QWORD PTR [rdx+24]
; File z:\sources\lunor\repos\rougemeilland\palmtree.math.core.implements\palmtree.math.core.implements\pmc_internal.h

; 447  :     return (_addcarry_u64(carry, u, v, w));

	adc	rax, QWORD PTR [r8+24]
	mov	QWORD PTR [r9+24], rax
; File z:\sources\lunor\repos\rougemeilland\palmtree.math.core.implements\palmtree.math.core.implements\autogenerated_inline_func.h

; 51   :     c = _ADD_UNIT(c, xp[4], yp[4], &zp[4]);

	mov	rax, QWORD PTR [rdx+32]
; File z:\sources\lunor\repos\rougemeilland\palmtree.math.core.implements\palmtree.math.core.implements\pmc_internal.h

; 447  :     return (_addcarry_u64(carry, u, v, w));

	adc	rax, QWORD PTR [r8+32]
	mov	QWORD PTR [r9+32], rax
; File z:\sources\lunor\repos\rougemeilland\palmtree.math.core.implements\palmtree.math.core.implements\autogenerated_inline_func.h

; 52   :     c = _ADD_UNIT(c, xp[5], yp[5], &zp[5]);

	mov	rax, QWORD PTR [rdx+40]
; File z:\sources\lunor\repos\rougemeilland\palmtree.math.core.implements\palmtree.math.core.implements\pmc_internal.h

; 447  :     return (_addcarry_u64(carry, u, v, w));

	adc	rax, QWORD PTR [r8+40]
	mov	QWORD PTR [r9+40], rax
; File z:\sources\lunor\repos\rougemeilland\palmtree.math.core.implements\palmtree.math.core.implements\autogenerated_inline_func.h

; 53   :     c = _ADD_UNIT(c, xp[6], yp[6], &zp[6]);

	mov	rax, QWORD PTR [rdx+48]
; File z:\sources\lunor\repos\rougemeilland\palmtree.math.core.implements\palmtree.math.core.implements\pmc_internal.h

; 447  :     return (_addcarry_u64(carry, u, v, w));

	adc	rax, QWORD PTR [r8+48]
	mov	QWORD PTR [r9+48], rax
; File z:\sources\lunor\repos\rougemeilland\palmtree.math.core.implements\palmtree.math.core.implements\autogenerated_inline_func.h

; 54   :     c = _ADD_UNIT(c, xp[7], yp[7], &zp[7]);

	mov	rax, QWORD PTR [rdx+56]
; File z:\sources\lunor\repos\rougemeilland\palmtree.math.core.implements\palmtree.math.core.implements\pmc_internal.h

; 447  :     return (_addcarry_u64(carry, u, v, w));

	adc	rax, QWORD PTR [r8+56]
	mov	QWORD PTR [r9+56], rax
; File z:\sources\lunor\repos\rougemeilland\palmtree.math.core.implements\palmtree.math.core.implements\autogenerated_inline_func.h

; 55   :     c = _ADD_UNIT(c, xp[8], yp[8], &zp[8]);

	mov	rax, QWORD PTR [rdx+64]
; File z:\sources\lunor\repos\rougemeilland\palmtree.math.core.implements\palmtree.math.core.implements\pmc_internal.h

; 447  :     return (_addcarry_u64(carry, u, v, w));

	adc	rax, QWORD PTR [r8+64]
	mov	QWORD PTR [r9+64], rax
; File z:\sources\lunor\repos\rougemeilland\palmtree.math.core.implements\palmtree.math.core.implements\autogenerated_inline_func.h

; 56   :     c = _ADD_UNIT(c, xp[9], yp[9], &zp[9]);

	mov	rax, QWORD PTR [rdx+72]
; File z:\sources\lunor\repos\rougemeilland\palmtree.math.core.implements\palmtree.math.core.implements\pmc_internal.h

; 447  :     return (_addcarry_u64(carry, u, v, w));

	adc	rax, QWORD PTR [r8+72]
	mov	QWORD PTR [r9+72], rax
; File z:\sources\lunor\repos\rougemeilland\palmtree.math.core.implements\palmtree.math.core.implements\autogenerated_inline_func.h

; 57   :     c = _ADD_UNIT(c, xp[10], yp[10], &zp[10]);

	mov	rax, QWORD PTR [rdx+80]
; File z:\sources\lunor\repos\rougemeilland\palmtree.math.core.implements\palmtree.math.core.implements\pmc_internal.h

; 447  :     return (_addcarry_u64(carry, u, v, w));

	adc	rax, QWORD PTR [r8+80]
	mov	QWORD PTR [r9+80], rax
; File z:\sources\lunor\repos\rougemeilland\palmtree.math.core.implements\palmtree.math.core.implements\autogenerated_inline_func.h

; 58   :     c = _ADD_UNIT(c, xp[11], yp[11], &zp[11]);

	mov	rax, QWORD PTR [rdx+88]
; File z:\sources\lunor\repos\rougemeilland\palmtree.math.core.implements\palmtree.math.core.implements\pmc_internal.h

; 447  :     return (_addcarry_u64(carry, u, v, w));

	adc	rax, QWORD PTR [r8+88]
	mov	QWORD PTR [r9+88], rax
; File z:\sources\lunor\repos\rougemeilland\palmtree.math.core.implements\palmtree.math.core.implements\autogenerated_inline_func.h

; 59   :     c = _ADD_UNIT(c, xp[12], yp[12], &zp[12]);

	mov	rax, QWORD PTR [rdx+96]
; File z:\sources\lunor\repos\rougemeilland\palmtree.math.core.implements\palmtree.math.core.implements\pmc_internal.h

; 447  :     return (_addcarry_u64(carry, u, v, w));

	adc	rax, QWORD PTR [r8+96]
	mov	QWORD PTR [r9+96], rax
; File z:\sources\lunor\repos\rougemeilland\palmtree.math.core.implements\palmtree.math.core.implements\autogenerated_inline_func.h

; 60   :     c = _ADD_UNIT(c, xp[13], yp[13], &zp[13]);

	mov	rax, QWORD PTR [rdx+104]
; File z:\sources\lunor\repos\rougemeilland\palmtree.math.core.implements\palmtree.math.core.implements\pmc_internal.h

; 447  :     return (_addcarry_u64(carry, u, v, w));

	adc	rax, QWORD PTR [r8+104]
	mov	QWORD PTR [r9+104], rax
; File z:\sources\lunor\repos\rougemeilland\palmtree.math.core.implements\palmtree.math.core.implements\autogenerated_inline_func.h

; 61   :     c = _ADD_UNIT(c, xp[14], yp[14], &zp[14]);

	mov	rax, QWORD PTR [rdx+112]
; File z:\sources\lunor\repos\rougemeilland\palmtree.math.core.implements\palmtree.math.core.implements\pmc_internal.h

; 447  :     return (_addcarry_u64(carry, u, v, w));

	adc	rax, QWORD PTR [r8+112]
	mov	QWORD PTR [r9+112], rax
; File z:\sources\lunor\repos\rougemeilland\palmtree.math.core.implements\palmtree.math.core.implements\autogenerated_inline_func.h

; 62   :     c = _ADD_UNIT(c, xp[15], yp[15], &zp[15]);

	mov	rax, QWORD PTR [rdx+120]
; File z:\sources\lunor\repos\rougemeilland\palmtree.math.core.implements\palmtree.math.core.implements\pmc_internal.h

; 447  :     return (_addcarry_u64(carry, u, v, w));

	adc	rax, QWORD PTR [r8+120]
	mov	QWORD PTR [r9+120], rax
; File z:\sources\lunor\repos\rougemeilland\palmtree.math.core.implements\palmtree.math.core.implements\autogenerated_inline_func.h

; 63   :     c = _ADD_UNIT(c, xp[16], yp[16], &zp[16]);

	mov	rax, QWORD PTR [rdx+128]
; File z:\sources\lunor\repos\rougemeilland\palmtree.math.core.implements\palmtree.math.core.implements\pmc_internal.h

; 447  :     return (_addcarry_u64(carry, u, v, w));

	adc	rax, QWORD PTR [r8+128]
	mov	QWORD PTR [r9+128], rax
; File z:\sources\lunor\repos\rougemeilland\palmtree.math.core.implements\palmtree.math.core.implements\autogenerated_inline_func.h

; 64   :     c = _ADD_UNIT(c, xp[17], yp[17], &zp[17]);

	mov	rax, QWORD PTR [rdx+136]
; File z:\sources\lunor\repos\rougemeilland\palmtree.math.core.implements\palmtree.math.core.implements\pmc_internal.h

; 447  :     return (_addcarry_u64(carry, u, v, w));

	adc	rax, QWORD PTR [r8+136]
	mov	QWORD PTR [r9+136], rax
; File z:\sources\lunor\repos\rougemeilland\palmtree.math.core.implements\palmtree.math.core.implements\autogenerated_inline_func.h

; 65   :     c = _ADD_UNIT(c, xp[18], yp[18], &zp[18]);

	mov	rax, QWORD PTR [rdx+144]
; File z:\sources\lunor\repos\rougemeilland\palmtree.math.core.implements\palmtree.math.core.implements\pmc_internal.h

; 447  :     return (_addcarry_u64(carry, u, v, w));

	adc	rax, QWORD PTR [r8+144]
	mov	QWORD PTR [r9+144], rax
; File z:\sources\lunor\repos\rougemeilland\palmtree.math.core.implements\palmtree.math.core.implements\autogenerated_inline_func.h

; 66   :     c = _ADD_UNIT(c, xp[19], yp[19], &zp[19]);

	mov	rax, QWORD PTR [rdx+152]
; File z:\sources\lunor\repos\rougemeilland\palmtree.math.core.implements\palmtree.math.core.implements\pmc_internal.h

; 447  :     return (_addcarry_u64(carry, u, v, w));

	adc	rax, QWORD PTR [r8+152]
	mov	QWORD PTR [r9+152], rax
; File z:\sources\lunor\repos\rougemeilland\palmtree.math.core.implements\palmtree.math.core.implements\autogenerated_inline_func.h

; 67   :     c = _ADD_UNIT(c, xp[20], yp[20], &zp[20]);

	mov	rax, QWORD PTR [rdx+160]
; File z:\sources\lunor\repos\rougemeilland\palmtree.math.core.implements\palmtree.math.core.implements\pmc_internal.h

; 447  :     return (_addcarry_u64(carry, u, v, w));

	adc	rax, QWORD PTR [r8+160]
	mov	QWORD PTR [r9+160], rax
; File z:\sources\lunor\repos\rougemeilland\palmtree.math.core.implements\palmtree.math.core.implements\autogenerated_inline_func.h

; 68   :     c = _ADD_UNIT(c, xp[21], yp[21], &zp[21]);

	mov	rax, QWORD PTR [rdx+168]
; File z:\sources\lunor\repos\rougemeilland\palmtree.math.core.implements\palmtree.math.core.implements\pmc_internal.h

; 447  :     return (_addcarry_u64(carry, u, v, w));

	adc	rax, QWORD PTR [r8+168]
	mov	QWORD PTR [r9+168], rax
; File z:\sources\lunor\repos\rougemeilland\palmtree.math.core.implements\palmtree.math.core.implements\autogenerated_inline_func.h

; 69   :     c = _ADD_UNIT(c, xp[22], yp[22], &zp[22]);

	mov	rax, QWORD PTR [rdx+176]
; File z:\sources\lunor\repos\rougemeilland\palmtree.math.core.implements\palmtree.math.core.implements\pmc_internal.h

; 447  :     return (_addcarry_u64(carry, u, v, w));

	adc	rax, QWORD PTR [r8+176]
	mov	QWORD PTR [r9+176], rax
; File z:\sources\lunor\repos\rougemeilland\palmtree.math.core.implements\palmtree.math.core.implements\autogenerated_inline_func.h

; 70   :     c = _ADD_UNIT(c, xp[23], yp[23], &zp[23]);

	mov	rax, QWORD PTR [rdx+184]
; File z:\sources\lunor\repos\rougemeilland\palmtree.math.core.implements\palmtree.math.core.implements\pmc_internal.h

; 447  :     return (_addcarry_u64(carry, u, v, w));

	adc	rax, QWORD PTR [r8+184]
	mov	QWORD PTR [r9+184], rax
; File z:\sources\lunor\repos\rougemeilland\palmtree.math.core.implements\palmtree.math.core.implements\autogenerated_inline_func.h

; 71   :     c = _ADD_UNIT(c, xp[24], yp[24], &zp[24]);

	mov	rax, QWORD PTR [rdx+192]
; File z:\sources\lunor\repos\rougemeilland\palmtree.math.core.implements\palmtree.math.core.implements\pmc_internal.h

; 447  :     return (_addcarry_u64(carry, u, v, w));

	adc	rax, QWORD PTR [r8+192]
	mov	QWORD PTR [r9+192], rax
; File z:\sources\lunor\repos\rougemeilland\palmtree.math.core.implements\palmtree.math.core.implements\autogenerated_inline_func.h

; 72   :     c = _ADD_UNIT(c, xp[25], yp[25], &zp[25]);

	mov	rax, QWORD PTR [rdx+200]
; File z:\sources\lunor\repos\rougemeilland\palmtree.math.core.implements\palmtree.math.core.implements\pmc_internal.h

; 447  :     return (_addcarry_u64(carry, u, v, w));

	adc	rax, QWORD PTR [r8+200]
	mov	QWORD PTR [r9+200], rax
; File z:\sources\lunor\repos\rougemeilland\palmtree.math.core.implements\palmtree.math.core.implements\autogenerated_inline_func.h

; 73   :     c = _ADD_UNIT(c, xp[26], yp[26], &zp[26]);

	mov	rax, QWORD PTR [rdx+208]
; File z:\sources\lunor\repos\rougemeilland\palmtree.math.core.implements\palmtree.math.core.implements\pmc_internal.h

; 447  :     return (_addcarry_u64(carry, u, v, w));

	adc	rax, QWORD PTR [r8+208]
	mov	QWORD PTR [r9+208], rax
; File z:\sources\lunor\repos\rougemeilland\palmtree.math.core.implements\palmtree.math.core.implements\autogenerated_inline_func.h

; 74   :     c = _ADD_UNIT(c, xp[27], yp[27], &zp[27]);

	mov	rax, QWORD PTR [rdx+216]
; File z:\sources\lunor\repos\rougemeilland\palmtree.math.core.implements\palmtree.math.core.implements\pmc_internal.h

; 447  :     return (_addcarry_u64(carry, u, v, w));

	adc	rax, QWORD PTR [r8+216]
	mov	QWORD PTR [r9+216], rax
; File z:\sources\lunor\repos\rougemeilland\palmtree.math.core.implements\palmtree.math.core.implements\autogenerated_inline_func.h

; 75   :     c = _ADD_UNIT(c, xp[28], yp[28], &zp[28]);

	mov	rax, QWORD PTR [rdx+224]
; File z:\sources\lunor\repos\rougemeilland\palmtree.math.core.implements\palmtree.math.core.implements\pmc_internal.h

; 447  :     return (_addcarry_u64(carry, u, v, w));

	adc	rax, QWORD PTR [r8+224]
	mov	QWORD PTR [r9+224], rax
; File z:\sources\lunor\repos\rougemeilland\palmtree.math.core.implements\palmtree.math.core.implements\autogenerated_inline_func.h

; 76   :     c = _ADD_UNIT(c, xp[29], yp[29], &zp[29]);

	mov	rax, QWORD PTR [rdx+232]
; File z:\sources\lunor\repos\rougemeilland\palmtree.math.core.implements\palmtree.math.core.implements\pmc_internal.h

; 447  :     return (_addcarry_u64(carry, u, v, w));

	adc	rax, QWORD PTR [r8+232]
	mov	QWORD PTR [r9+232], rax
; File z:\sources\lunor\repos\rougemeilland\palmtree.math.core.implements\palmtree.math.core.implements\autogenerated_inline_func.h

; 77   :     c = _ADD_UNIT(c, xp[30], yp[30], &zp[30]);

	mov	rax, QWORD PTR [rdx+240]
; File z:\sources\lunor\repos\rougemeilland\palmtree.math.core.implements\palmtree.math.core.implements\pmc_internal.h

; 447  :     return (_addcarry_u64(carry, u, v, w));

	adc	rax, QWORD PTR [r8+240]
	mov	QWORD PTR [r9+240], rax
; File z:\sources\lunor\repos\rougemeilland\palmtree.math.core.implements\palmtree.math.core.implements\autogenerated_inline_func.h

; 78   :     c = _ADD_UNIT(c, xp[31], yp[31], &zp[31]);

	mov	rcx, QWORD PTR [rdx+248]
; File z:\sources\lunor\repos\rougemeilland\palmtree.math.core.implements\palmtree.math.core.implements\pmc_internal.h

; 447  :     return (_addcarry_u64(carry, u, v, w));

	adc	rcx, QWORD PTR [r8+248]
	mov	QWORD PTR [r9+248], rcx
	setb	al
; File z:\sources\lunor\repos\rougemeilland\palmtree.math.core.implements\palmtree.math.core.implements\autogenerated_inline_func.h

; 295  : }

	ret	0
_ADD_32WORDS_ADC ENDP
_TEXT	ENDS
; Function compile flags: /Ogtpy
; File z:\sources\lunor\repos\rougemeilland\palmtree.math.core.implements\palmtree.math.core.implements\pmc_internal.h
;	COMDAT _LZCNT_ALT_UNIT
_TEXT	SEGMENT
x$ = 8
_LZCNT_ALT_UNIT PROC					; COMDAT

; 860  :     if (x == 0)

	test	rcx, rcx
	jne	SHORT $LN2@LZCNT_ALT_

; 861  :         return (sizeof(x) * 8);

	mov	eax, 64					; 00000040H

; 885  : }

	ret	0
$LN2@LZCNT_ALT_:

; 862  : #ifdef _M_IX86
; 863  :     _UINT32_T pos;
; 864  : #ifdef _MSC_VER
; 865  :     _BitScanReverse(&pos, x);
; 866  : #elif defined(__GNUC__)
; 867  :     __asm__("bsrl %1, %0" : "=r"(pos) : "rm"(x));
; 868  : #else
; 869  : #error unknown compiler
; 870  : #endif
; 871  : #elif defined(_M_X64)
; 872  : #ifdef _MSC_VER
; 873  :     _UINT32_T pos;
; 874  :     _BitScanReverse64(&pos, x);

	bsr	rcx, rcx

; 875  : #elif defined(__GNUC__)
; 876  :     _UINT64_T pos;
; 877  :     __asm__("bsrq %1, %0" : "=r"(pos) : "rm"(x));
; 878  : #else
; 879  : #error unknown compiler
; 880  : #endif
; 881  : #else
; 882  : #error unknown platform
; 883  : #endif
; 884  :     return (sizeof(x) * 8 - 1 - pos);

	mov	eax, 63					; 0000003fH
	sub	rax, rcx

; 885  : }

	ret	0
_LZCNT_ALT_UNIT ENDP
_TEXT	ENDS
; Function compile flags: /Ogtpy
; File z:\sources\lunor\repos\rougemeilland\palmtree.math.core.implements\palmtree.math.core.implements\pmc_internal.h
;	COMDAT _LZCNT_ALT_32
_TEXT	SEGMENT
x$ = 8
_LZCNT_ALT_32 PROC					; COMDAT

; 827  :     if (x == 0)

	test	ecx, ecx
	jne	SHORT $LN2@LZCNT_ALT_

; 828  :         return (sizeof(x) * 8);

	mov	eax, 32					; 00000020H

; 838  : }

	ret	0
$LN2@LZCNT_ALT_:

; 829  :     _UINT32_T pos;
; 830  : #ifdef _MSC_VER
; 831  :     _BitScanReverse(&pos, x);

	bsr	ecx, ecx

; 832  : #elif defined(__GNUC__)
; 833  :     __asm__( "bsrl %1, %0" : "=r"(pos) : "rm"(x) );
; 834  : #else
; 835  : #error unknown compiler
; 836  : #endif
; 837  :     return (sizeof(x) * 8 - 1 - pos);

	mov	eax, 31
	sub	eax, ecx

; 838  : }

	ret	0
_LZCNT_ALT_32 ENDP
_TEXT	ENDS
; Function compile flags: /Ogtpy
; File z:\sources\lunor\repos\rougemeilland\palmtree.math.core.implements\palmtree.math.core.implements\pmc_internal.h
;	COMDAT _ADDX_UNIT
_TEXT	SEGMENT
carry$ = 8
u$ = 16
v$ = 24
w$ = 32
_ADDX_UNIT PROC						; COMDAT

; 472  : #ifdef _M_IX86
; 473  :     return (_addcarryx_u32(carry, u, v, w));
; 474  : #elif defined(_M_X64)
; 475  :     return (_addcarryx_u64(carry, u, v, w));

	add	cl, -1
	adcx	rdx, r8
	mov	QWORD PTR [r9], rdx
	setb	al

; 476  : #else
; 477  : #error unknown platform
; 478  : #endif
; 479  : }

	ret	0
_ADDX_UNIT ENDP
_TEXT	ENDS
; Function compile flags: /Ogtpy
; File z:\sources\lunor\repos\rougemeilland\palmtree.math.core.implements\palmtree.math.core.implements\pmc_internal.h
;	COMDAT _ADD_UNIT
_TEXT	SEGMENT
carry$ = 8
u$ = 16
v$ = 24
w$ = 32
_ADD_UNIT PROC						; COMDAT

; 444  : #ifdef _M_IX86
; 445  :     return (_addcarry_u32(carry, u, v, w));
; 446  : #elif defined(_M_X64)
; 447  :     return (_addcarry_u64(carry, u, v, w));

	add	cl, -1
	adc	rdx, r8
	mov	QWORD PTR [r9], rdx
	setb	al

; 448  : #else
; 449  : #error unknown platform
; 450  : #endif
; 451  : }

	ret	0
_ADD_UNIT ENDP
_TEXT	ENDS
; Function compile flags: /Ogtpy
; File z:\sources\lunor\repos\rougemeilland\palmtree.math.core.implements\palmtree.math.core.implements\pmc_internal.h
;	COMDAT _MAXIMUM_UNIT
_TEXT	SEGMENT
x$ = 8
y$ = 16
_MAXIMUM_UNIT PROC					; COMDAT

; 434  :     return (x >= y ? x : y);

	cmp	rcx, rdx
	cmovae	rdx, rcx
	mov	rax, rdx

; 435  : }

	ret	0
_MAXIMUM_UNIT ENDP
_TEXT	ENDS
; Function compile flags: /Ogtpy
; File z:\sources\lunor\repos\rougemeilland\palmtree.math.core.implements\palmtree.math.core.implements\pmc_internal.h
;	COMDAT _FROMDWORDTOWORD
_TEXT	SEGMENT
value$ = 8
result_high$ = 16
_FROMDWORDTOWORD PROC					; COMDAT

; 413  :     *result_high = (_UINT32_T)(value >> 32);

	mov	rax, rcx
	shr	rax, 32					; 00000020H
	mov	DWORD PTR [rdx], eax

; 414  :     return ((_UINT32_T)value);

	mov	eax, ecx

; 415  : }

	ret	0
_FROMDWORDTOWORD ENDP
_TEXT	ENDS
; Function compile flags: /Ogtpy
; File z:\sources\lunor\repos\rougemeilland\palmtree.math.core.implements\palmtree.math.core.implements\pmc_add.c
; File z:\sources\lunor\repos\rougemeilland\palmtree.math.core.implements\palmtree.math.core.implements\pmc_internal.h
; File z:\sources\lunor\repos\rougemeilland\palmtree.math.core.implements\palmtree.math.core.implements\pmc_add.c
; File z:\sources\lunor\repos\rougemeilland\palmtree.math.core.implements\palmtree.math.core.implements\pmc_internal.h
; File z:\sources\lunor\repos\rougemeilland\palmtree.math.core.implements\palmtree.math.core.implements\pmc_add.c
;	COMDAT PMC_Add_X_X
_TEXT	SEGMENT
nz$ = 48
x$ = 48
y$ = 56
o$ = 64
nz_light_check_code$1 = 72
PMC_Add_X_X PROC					; COMDAT

; 515  : {

$LN26:
	mov	QWORD PTR [rsp+16], rbx
	mov	QWORD PTR [rsp+24], rsi
	push	rdi
	sub	rsp, 32					; 00000020H
	mov	rsi, r8
	mov	rbx, rdx
	mov	rdi, rcx

; 516  :     if (x == NULL)

	test	rcx, rcx
	je	$LN23@PMC_Add_X_

; 517  :         return (PMC_STATUS_ARGUMENT_ERROR);
; 518  :     if (y == NULL)

	test	rdx, rdx
	je	$LN23@PMC_Add_X_

; 519  :         return (PMC_STATUS_ARGUMENT_ERROR);
; 520  :     if (o == NULL)

	test	r8, r8
	je	$LN23@PMC_Add_X_

; 522  :     NUMBER_HEADER* nx = (NUMBER_HEADER*)x;
; 523  :     NUMBER_HEADER* ny = (NUMBER_HEADER*)y;
; 524  :     PMC_STATUS_CODE result;
; 525  :     if ((result = CheckNumber(nx)) != PMC_STATUS_OK)

	call	CheckNumber
	test	eax, eax
	jne	$LN1@PMC_Add_X_

; 526  :         return (result);
; 527  :     if ((result = CheckNumber(ny)) != PMC_STATUS_OK)

	mov	rcx, rbx
	call	CheckNumber
	test	eax, eax
	jne	$LN1@PMC_Add_X_

; 528  :         return (result);
; 529  :     NUMBER_HEADER* nz;
; 530  :     if (nx->IS_ZERO)

	mov	eax, DWORD PTR [rbx+32]
	and	eax, 2
	test	BYTE PTR [rdi+32], 2
	je	SHORT $LN7@PMC_Add_X_

; 531  :     {
; 532  :         if (ny->IS_ZERO)

	test	eax, eax
	je	SHORT $LN9@PMC_Add_X_

; 533  :             nz = &number_zero;

	lea	rax, OFFSET FLAT:number_zero

; 563  :         }
; 564  :     }
; 565  :     *o = nz;

	mov	QWORD PTR [rsi], rax

; 566  : #ifdef _DEBUG
; 567  :     if ((result = CheckNumber(*o)) != PMC_STATUS_OK)
; 568  :         return (result);
; 569  : #endif
; 570  :     return (PMC_STATUS_OK);

	xor	eax, eax

; 571  : }

	mov	rbx, QWORD PTR [rsp+56]
	mov	rsi, QWORD PTR [rsp+64]
	add	rsp, 32					; 00000020H
	pop	rdi
	ret	0
$LN9@PMC_Add_X_:

; 534  :         else
; 535  :         {
; 536  :             if ((result = DuplicateNumber(ny, &nz)) != PMC_STATUS_OK)

	lea	rdx, QWORD PTR nz$[rsp]
	mov	rcx, rbx
	call	DuplicateNumber
	test	eax, eax
	je	$LN24@PMC_Add_X_

; 571  : }

	mov	rbx, QWORD PTR [rsp+56]
	mov	rsi, QWORD PTR [rsp+64]
	add	rsp, 32					; 00000020H
	pop	rdi
	ret	0
$LN7@PMC_Add_X_:

; 537  :                 return (result);
; 538  :         }
; 539  :     }
; 540  :     else
; 541  :     {
; 542  :         if (ny->IS_ZERO)

	test	eax, eax
	je	SHORT $LN12@PMC_Add_X_

; 543  :         {
; 544  :             if ((result = DuplicateNumber(nx, &nz)) != PMC_STATUS_OK)

	lea	rdx, QWORD PTR nz$[rsp]
	mov	rcx, rdi
	call	DuplicateNumber
	test	eax, eax
	jne	$LN1@PMC_Add_X_

; 563  :         }
; 564  :     }
; 565  :     *o = nz;

	mov	rax, QWORD PTR nz$[rsp]
	mov	QWORD PTR [rsi], rax

; 566  : #ifdef _DEBUG
; 567  :     if ((result = CheckNumber(*o)) != PMC_STATUS_OK)
; 568  :         return (result);
; 569  : #endif
; 570  :     return (PMC_STATUS_OK);

	xor	eax, eax

; 571  : }

	mov	rbx, QWORD PTR [rsp+56]
	mov	rsi, QWORD PTR [rsp+64]
	add	rsp, 32					; 00000020H
	pop	rdi
	ret	0
$LN12@PMC_Add_X_:

; 545  :                 return (result);
; 546  :         }
; 547  :         else
; 548  :         {
; 549  :             __UNIT_TYPE x_bit_count = nx->UNIT_BIT_COUNT;
; 550  :             __UNIT_TYPE y_bit_count = ny->UNIT_BIT_COUNT;

	mov	rdx, QWORD PTR [rbx+8]

; 553  :             if ((result = AllocateNumber(&nz, z_bit_count, &nz_light_check_code)) != PMC_STATUS_OK)

	lea	r8, QWORD PTR nz_light_check_code$1[rsp]
; File z:\sources\lunor\repos\rougemeilland\palmtree.math.core.implements\palmtree.math.core.implements\pmc_internal.h

; 434  :     return (x >= y ? x : y);

	cmp	QWORD PTR [rdi+8], rdx
; File z:\sources\lunor\repos\rougemeilland\palmtree.math.core.implements\palmtree.math.core.implements\pmc_add.c

; 553  :             if ((result = AllocateNumber(&nz, z_bit_count, &nz_light_check_code)) != PMC_STATUS_OK)

	lea	rcx, QWORD PTR nz$[rsp]
; File z:\sources\lunor\repos\rougemeilland\palmtree.math.core.implements\palmtree.math.core.implements\pmc_internal.h

; 434  :     return (x >= y ? x : y);

	cmovae	rdx, QWORD PTR [rdi+8]
; File z:\sources\lunor\repos\rougemeilland\palmtree.math.core.implements\palmtree.math.core.implements\pmc_add.c

; 551  :             __UNIT_TYPE z_bit_count = _MAXIMUM_UNIT(x_bit_count, y_bit_count) + 1;

	inc	rdx

; 553  :             if ((result = AllocateNumber(&nz, z_bit_count, &nz_light_check_code)) != PMC_STATUS_OK)

	call	AllocateNumber
	test	eax, eax
	jne	SHORT $LN1@PMC_Add_X_

; 308  :     return ((*fp_Add_X_X_using_ADC)(x, y, z));

	mov	r8, QWORD PTR nz$[rsp]
	mov	rdx, rbx
	mov	rcx, rdi
	call	QWORD PTR fp_Add_X_X_using_ADC

; 554  :                 return (result);
; 555  :             if ((result = Add_X_X(nx, ny, nz)) != PMC_STATUS_OK)

	mov	rcx, QWORD PTR nz$[rsp]

; 308  :     return ((*fp_Add_X_X_using_ADC)(x, y, z));

	mov	ebx, eax

; 554  :                 return (result);
; 555  :             if ((result = Add_X_X(nx, ny, nz)) != PMC_STATUS_OK)

	test	eax, eax
	je	SHORT $LN16@PMC_Add_X_

; 556  :             {
; 557  :                 DeallocateNumber(nz);

	call	DeallocateNumber

; 558  :                 return (result);

	mov	eax, ebx

; 571  : }

	mov	rbx, QWORD PTR [rsp+56]
	mov	rsi, QWORD PTR [rsp+64]
	add	rsp, 32					; 00000020H
	pop	rdi
	ret	0
$LN16@PMC_Add_X_:

; 559  :             }
; 560  :             if ((result = CheckBlockLight(nz->BLOCK, nz_light_check_code)) != PMC_STATUS_OK)

	mov	rdx, QWORD PTR nz_light_check_code$1[rsp]
	mov	rcx, QWORD PTR [rcx+48]
	call	CheckBlockLight
	test	eax, eax
	jne	SHORT $LN1@PMC_Add_X_

; 561  :                 return (result);
; 562  :             CommitNumber(nz);

	mov	rcx, QWORD PTR nz$[rsp]
	call	CommitNumber
$LN24@PMC_Add_X_:

; 563  :         }
; 564  :     }
; 565  :     *o = nz;

	mov	rax, QWORD PTR nz$[rsp]
	mov	QWORD PTR [rsi], rax

; 566  : #ifdef _DEBUG
; 567  :     if ((result = CheckNumber(*o)) != PMC_STATUS_OK)
; 568  :         return (result);
; 569  : #endif
; 570  :     return (PMC_STATUS_OK);

	xor	eax, eax

; 571  : }

	mov	rbx, QWORD PTR [rsp+56]
	mov	rsi, QWORD PTR [rsp+64]
	add	rsp, 32					; 00000020H
	pop	rdi
	ret	0
$LN23@PMC_Add_X_:

; 521  :         return (PMC_STATUS_ARGUMENT_ERROR);

	mov	eax, -1
$LN1@PMC_Add_X_:

; 571  : }

	mov	rbx, QWORD PTR [rsp+56]
	mov	rsi, QWORD PTR [rsp+64]
	add	rsp, 32					; 00000020H
	pop	rdi
	ret	0
PMC_Add_X_X ENDP
_TEXT	ENDS
; Function compile flags: /Ogtpy
; File z:\sources\lunor\repos\rougemeilland\palmtree.math.core.implements\palmtree.math.core.implements\pmc_add.c
; File z:\sources\lunor\repos\rougemeilland\palmtree.math.core.implements\palmtree.math.core.implements\pmc_internal.h
; File z:\sources\lunor\repos\rougemeilland\palmtree.math.core.implements\palmtree.math.core.implements\pmc_add.c
; File z:\sources\lunor\repos\rougemeilland\palmtree.math.core.implements\palmtree.math.core.implements\pmc_internal.h
; File z:\sources\lunor\repos\rougemeilland\palmtree.math.core.implements\palmtree.math.core.implements\pmc_add.c
; File z:\sources\lunor\repos\rougemeilland\palmtree.math.core.implements\palmtree.math.core.implements\pmc_internal.h
; File z:\sources\lunor\repos\rougemeilland\palmtree.math.core.implements\palmtree.math.core.implements\pmc_add.c
;	COMDAT PMC_Add_X_L
_TEXT	SEGMENT
nz$ = 48
x$ = 48
y$ = 56
o$ = 64
nz_light_check_code$1 = 72
PMC_Add_X_L PROC					; COMDAT

; 390  : {

$LN61:
	mov	QWORD PTR [rsp+16], rbx
	mov	QWORD PTR [rsp+24], rsi
	push	rdi
	sub	rsp, 32					; 00000020H
	mov	rdi, r8
	mov	rsi, rdx
	mov	rbx, rcx

; 391  :     if (__UNIT_TYPE_BIT_COUNT * 2 < sizeof(y) * 8)
; 392  :     {
; 393  :         // _UINT64_T が 2 ワードで表現しきれない処理系には対応しない
; 394  :         return (PMC_STATUS_INTERNAL_ERROR);
; 395  :     }
; 396  :     if (x == NULL)

	test	rcx, rcx
	je	$LN58@PMC_Add_X_

; 397  :         return (PMC_STATUS_ARGUMENT_ERROR);
; 398  :     if (o == NULL)

	test	r8, r8
	je	$LN58@PMC_Add_X_

; 400  :     NUMBER_HEADER* nx = (NUMBER_HEADER*)x;
; 401  :     PMC_STATUS_CODE result;
; 402  :     if ((result = CheckNumber(nx)) != PMC_STATUS_OK)

	call	CheckNumber
	test	eax, eax
	jne	$LN1@PMC_Add_X_

; 403  :         return (result);
; 404  :     NUMBER_HEADER* nz;
; 405  :     if (nx->IS_ZERO)

	test	BYTE PTR [rbx+32], 2
	je	SHORT $LN6@PMC_Add_X_

; 406  :     {
; 407  :         // x が 0 である場合
; 408  : 
; 409  :         if (y == 0)

	test	rsi, rsi
	jne	SHORT $LN8@PMC_Add_X_

; 410  :         {
; 411  :             // y が 0 である場合
; 412  : 
; 413  :             // x と y がともに 0 であるので、加算結果の 0 を呼び出し元に返す。
; 414  :             *o = &number_zero;

	lea	rax, OFFSET FLAT:number_zero

; 502  :             }
; 503  : 
; 504  :         }
; 505  :         *o = nz;
; 506  :     }
; 507  : #ifdef _DEBUG
; 508  :     if ((result = CheckNumber(*o)) != PMC_STATUS_OK)
; 509  :         return (result);
; 510  : #endif
; 511  :     return (PMC_STATUS_OK);

	mov	QWORD PTR [rdi], rax
	xor	eax, eax

; 512  : }

	mov	rbx, QWORD PTR [rsp+56]
	mov	rsi, QWORD PTR [rsp+64]
	add	rsp, 32					; 00000020H
	pop	rdi
	ret	0
$LN8@PMC_Add_X_:

; 415  :         }
; 416  :         else
; 417  :         {
; 418  :             // y が 0 ではない場合
; 419  : 
; 420  :             // 加算結果となる y の値を持つ NUMBER_HEADER 構造体を獲得し、呼び出し元へ返す。
; 421  :             if ((result = From_L_Imp(y, &nz)) != PMC_STATUS_OK)

	lea	rdx, QWORD PTR nz$[rsp]
	mov	rcx, rsi
	call	From_L_Imp
	test	eax, eax
	jne	$LN1@PMC_Add_X_

; 502  :             }
; 503  : 
; 504  :         }
; 505  :         *o = nz;
; 506  :     }
; 507  : #ifdef _DEBUG
; 508  :     if ((result = CheckNumber(*o)) != PMC_STATUS_OK)
; 509  :         return (result);
; 510  : #endif
; 511  :     return (PMC_STATUS_OK);

	mov	rax, QWORD PTR nz$[rsp]
	mov	QWORD PTR [rdi], rax
	xor	eax, eax

; 512  : }

	mov	rbx, QWORD PTR [rsp+56]
	mov	rsi, QWORD PTR [rsp+64]
	add	rsp, 32					; 00000020H
	pop	rdi
	ret	0
$LN6@PMC_Add_X_:

; 422  :                 return (result);
; 423  :             *o = nz;
; 424  :         }
; 425  :     }
; 426  :     else
; 427  :     {
; 428  :         // x が 0 ではない場合
; 429  : 
; 430  :         if (y == 0)

	test	rsi, rsi
	jne	SHORT $LN11@PMC_Add_X_

; 431  :         {
; 432  :             // y が 0 である場合
; 433  : 
; 434  :             // 加算結果となる x の値を持つ NUMBER_HEADER 構造体を獲得し、呼び出し元へ返す。
; 435  :             if ((result = DuplicateNumber(nx, &nz)) != PMC_STATUS_OK)

	lea	rdx, QWORD PTR nz$[rsp]
	mov	rcx, rbx
	call	DuplicateNumber
	test	eax, eax
	je	$LN15@PMC_Add_X_

; 512  : }

	mov	rbx, QWORD PTR [rsp+56]
	mov	rsi, QWORD PTR [rsp+64]
	add	rsp, 32					; 00000020H
	pop	rdi
	ret	0
$LN11@PMC_Add_X_:
; File z:\sources\lunor\repos\rougemeilland\palmtree.math.core.implements\palmtree.math.core.implements\pmc_internal.h

; 874  :     _BitScanReverse64(&pos, x);

	bsr	rdx, rsi
; File z:\sources\lunor\repos\rougemeilland\palmtree.math.core.implements\palmtree.math.core.implements\pmc_add.c

; 492  :                 if ((result = AllocateNumber(&nz, z_bit_count, &nz_light_check_code)) != PMC_STATUS_OK)

	lea	r8, QWORD PTR nz_light_check_code$1[rsp]
; File z:\sources\lunor\repos\rougemeilland\palmtree.math.core.implements\palmtree.math.core.implements\pmc_internal.h

; 884  :     return (sizeof(x) * 8 - 1 - pos);

	inc	rdx
; File z:\sources\lunor\repos\rougemeilland\palmtree.math.core.implements\palmtree.math.core.implements\pmc_add.c

; 492  :                 if ((result = AllocateNumber(&nz, z_bit_count, &nz_light_check_code)) != PMC_STATUS_OK)

	lea	rcx, QWORD PTR nz$[rsp]
; File z:\sources\lunor\repos\rougemeilland\palmtree.math.core.implements\palmtree.math.core.implements\pmc_internal.h

; 434  :     return (x >= y ? x : y);

	cmp	QWORD PTR [rbx+8], rdx
	cmovae	rdx, QWORD PTR [rbx+8]
; File z:\sources\lunor\repos\rougemeilland\palmtree.math.core.implements\palmtree.math.core.implements\pmc_add.c

; 490  :                 __UNIT_TYPE z_bit_count = _MAXIMUM_UNIT(x_bit_count, y_bit_count) + 1;

	inc	rdx

; 492  :                 if ((result = AllocateNumber(&nz, z_bit_count, &nz_light_check_code)) != PMC_STATUS_OK)

	call	AllocateNumber
	test	eax, eax
	jne	SHORT $LN1@PMC_Add_X_

; 493  :                     return (result);
; 494  :                 if ((result = Add_X_1W(nx, (__UNIT_TYPE)y, nz)) != PMC_STATUS_OK)

	mov	r8, QWORD PTR nz$[rsp]
	mov	rdx, rsi
	mov	rcx, rbx
	call	Add_X_1W
	mov	rcx, QWORD PTR nz$[rsp]
	mov	ebx, eax
	test	eax, eax
	je	SHORT $LN25@PMC_Add_X_

; 495  :                 {
; 496  :                     DeallocateNumber(nz);

	call	DeallocateNumber

; 497  :                     return (result);

	mov	eax, ebx

; 512  : }

	mov	rbx, QWORD PTR [rsp+56]
	mov	rsi, QWORD PTR [rsp+64]
	add	rsp, 32					; 00000020H
	pop	rdi
	ret	0
$LN25@PMC_Add_X_:

; 498  :                 }
; 499  :                 if ((result = CheckBlockLight(nz->BLOCK, nz_light_check_code)) != PMC_STATUS_OK)

	mov	rdx, QWORD PTR nz_light_check_code$1[rsp]
	mov	rcx, QWORD PTR [rcx+48]
	call	CheckBlockLight
	test	eax, eax
	jne	SHORT $LN1@PMC_Add_X_

; 500  :                     return (result);
; 501  :                 CommitNumber(nz);

	mov	rcx, QWORD PTR nz$[rsp]
	call	CommitNumber
$LN15@PMC_Add_X_:

; 502  :             }
; 503  : 
; 504  :         }
; 505  :         *o = nz;
; 506  :     }
; 507  : #ifdef _DEBUG
; 508  :     if ((result = CheckNumber(*o)) != PMC_STATUS_OK)
; 509  :         return (result);
; 510  : #endif
; 511  :     return (PMC_STATUS_OK);

	mov	rax, QWORD PTR nz$[rsp]
	mov	QWORD PTR [rdi], rax
	xor	eax, eax

; 512  : }

	mov	rbx, QWORD PTR [rsp+56]
	mov	rsi, QWORD PTR [rsp+64]
	add	rsp, 32					; 00000020H
	pop	rdi
	ret	0
$LN58@PMC_Add_X_:

; 399  :         return (PMC_STATUS_ARGUMENT_ERROR);

	mov	eax, -1
$LN1@PMC_Add_X_:

; 512  : }

	mov	rbx, QWORD PTR [rsp+56]
	mov	rsi, QWORD PTR [rsp+64]
	add	rsp, 32					; 00000020H
	pop	rdi
	ret	0
PMC_Add_X_L ENDP
_TEXT	ENDS
; Function compile flags: /Ogtpy
; File z:\sources\lunor\repos\rougemeilland\palmtree.math.core.implements\palmtree.math.core.implements\pmc_add.c
; File z:\sources\lunor\repos\rougemeilland\palmtree.math.core.implements\palmtree.math.core.implements\pmc_internal.h
; File z:\sources\lunor\repos\rougemeilland\palmtree.math.core.implements\palmtree.math.core.implements\pmc_add.c
; File z:\sources\lunor\repos\rougemeilland\palmtree.math.core.implements\palmtree.math.core.implements\pmc_internal.h
; File z:\sources\lunor\repos\rougemeilland\palmtree.math.core.implements\palmtree.math.core.implements\pmc_add.c
; File z:\sources\lunor\repos\rougemeilland\palmtree.math.core.implements\palmtree.math.core.implements\pmc_internal.h
; File z:\sources\lunor\repos\rougemeilland\palmtree.math.core.implements\palmtree.math.core.implements\pmc_add.c
;	COMDAT PMC_Add_X_I
_TEXT	SEGMENT
nz$ = 48
x$ = 48
y$ = 56
o$ = 64
nz_check_code$1 = 72
PMC_Add_X_I PROC					; COMDAT

; 312  : {

$LN26:
	mov	QWORD PTR [rsp+16], rbx
	mov	QWORD PTR [rsp+24], rsi
	push	rdi
	sub	rsp, 32					; 00000020H
	mov	edi, edx
	mov	rsi, r8
	mov	rbx, rcx

; 313  :     if (__UNIT_TYPE_BIT_COUNT < sizeof(y) * 8)
; 314  :     {
; 315  :         // _UINT32_T が 1 ワードで表現しきれない処理系には対応しない
; 316  :         return (PMC_STATUS_INTERNAL_ERROR);
; 317  :     }
; 318  :     if (x == NULL)

	test	rcx, rcx
	je	$LN23@PMC_Add_X_

; 319  :         return (PMC_STATUS_ARGUMENT_ERROR);
; 320  :     if (o == NULL)

	test	r8, r8
	je	$LN23@PMC_Add_X_

; 322  :     NUMBER_HEADER* nx = (NUMBER_HEADER*)x;
; 323  :     PMC_STATUS_CODE result;
; 324  :     if ((result = CheckNumber(nx)) != PMC_STATUS_OK)

	call	CheckNumber
	test	eax, eax
	jne	$LN1@PMC_Add_X_

; 325  :         return (result);
; 326  :     NUMBER_HEADER* nz;
; 327  :     if (nx->IS_ZERO)

	test	BYTE PTR [rbx+32], 2
	je	SHORT $LN6@PMC_Add_X_

; 328  :     {
; 329  :         // x が 0 である場合
; 330  : 
; 331  :         if (y == 0)

	test	edi, edi
	jne	SHORT $LN8@PMC_Add_X_

; 332  :         {
; 333  :             // y が 0 である場合
; 334  : 
; 335  :             // x と y がともに 0 であるので、加算結果の 0 を呼び出し元に返す。
; 336  :             *o = &number_zero;

	lea	rax, OFFSET FLAT:number_zero

; 379  :         }
; 380  :         *o = nz;
; 381  :     }
; 382  : #ifdef _DEBUG
; 383  :     if ((result = CheckNumber(*o)) != PMC_STATUS_OK)
; 384  :         return (result);
; 385  : #endif
; 386  :     return (PMC_STATUS_OK);

	mov	QWORD PTR [rsi], rax
	xor	eax, eax

; 387  : }

	mov	rbx, QWORD PTR [rsp+56]
	mov	rsi, QWORD PTR [rsp+64]
	add	rsp, 32					; 00000020H
	pop	rdi
	ret	0
$LN8@PMC_Add_X_:

; 337  :         }
; 338  :         else
; 339  :         {
; 340  :             // y が 0 ではない場合
; 341  : 
; 342  :             // 加算結果となる y の値を持つ NUMBER_HEADER 構造体を獲得し、呼び出し元へ返す。
; 343  :             if ((result = From_I_Imp(y, &nz)) != PMC_STATUS_OK)

	lea	rdx, QWORD PTR nz$[rsp]
	mov	ecx, edi
	call	From_I_Imp
	test	eax, eax
	jne	$LN1@PMC_Add_X_

; 379  :         }
; 380  :         *o = nz;
; 381  :     }
; 382  : #ifdef _DEBUG
; 383  :     if ((result = CheckNumber(*o)) != PMC_STATUS_OK)
; 384  :         return (result);
; 385  : #endif
; 386  :     return (PMC_STATUS_OK);

	mov	rax, QWORD PTR nz$[rsp]
	mov	QWORD PTR [rsi], rax
	xor	eax, eax

; 387  : }

	mov	rbx, QWORD PTR [rsp+56]
	mov	rsi, QWORD PTR [rsp+64]
	add	rsp, 32					; 00000020H
	pop	rdi
	ret	0
$LN6@PMC_Add_X_:

; 344  :                 return (result);
; 345  :             *o = nz;
; 346  :         }
; 347  :     }
; 348  :     else
; 349  :     {
; 350  :         // x が 0 ではない場合
; 351  : 
; 352  :         if (y == 0)

	test	edi, edi
	jne	SHORT $LN11@PMC_Add_X_

; 353  :         {
; 354  :             // y が 0 である場合
; 355  : 
; 356  :             // 加算結果となる x の値を持つ NUMBER_HEADER 構造体を獲得し、呼び出し元へ返す。
; 357  :             if ((result = DuplicateNumber(nx, &nz)) != PMC_STATUS_OK)

	lea	rdx, QWORD PTR nz$[rsp]
	mov	rcx, rbx
	call	DuplicateNumber
	test	eax, eax
	je	$LN12@PMC_Add_X_

; 387  : }

	mov	rbx, QWORD PTR [rsp+56]
	mov	rsi, QWORD PTR [rsp+64]
	add	rsp, 32					; 00000020H
	pop	rdi
	ret	0
$LN11@PMC_Add_X_:
; File z:\sources\lunor\repos\rougemeilland\palmtree.math.core.implements\palmtree.math.core.implements\pmc_internal.h

; 831  :     _BitScanReverse(&pos, x);

	bsr	eax, edi

; 837  :     return (sizeof(x) * 8 - 1 - pos);

	mov	ecx, 31
; File z:\sources\lunor\repos\rougemeilland\palmtree.math.core.implements\palmtree.math.core.implements\pmc_add.c

; 369  :             if ((result = AllocateNumber(&nz, z_bit_count, &nz_check_code)) != PMC_STATUS_OK)

	lea	r8, QWORD PTR nz_check_code$1[rsp]
; File z:\sources\lunor\repos\rougemeilland\palmtree.math.core.implements\palmtree.math.core.implements\pmc_internal.h

; 837  :     return (sizeof(x) * 8 - 1 - pos);

	sub	ecx, eax
; File z:\sources\lunor\repos\rougemeilland\palmtree.math.core.implements\palmtree.math.core.implements\pmc_add.c

; 366  :             __UNIT_TYPE y_bit_count = sizeof(y) * 8 - _LZCNT_ALT_32(y);

	mov	edx, 32					; 00000020H
	mov	eax, ecx

; 369  :             if ((result = AllocateNumber(&nz, z_bit_count, &nz_check_code)) != PMC_STATUS_OK)

	lea	rcx, QWORD PTR nz$[rsp]
	sub	rdx, rax
; File z:\sources\lunor\repos\rougemeilland\palmtree.math.core.implements\palmtree.math.core.implements\pmc_internal.h

; 434  :     return (x >= y ? x : y);

	cmp	QWORD PTR [rbx+8], rdx
	cmovae	rdx, QWORD PTR [rbx+8]
; File z:\sources\lunor\repos\rougemeilland\palmtree.math.core.implements\palmtree.math.core.implements\pmc_add.c

; 367  :             __UNIT_TYPE z_bit_count = _MAXIMUM_UNIT(x_bit_count, y_bit_count) + 1;

	inc	rdx

; 369  :             if ((result = AllocateNumber(&nz, z_bit_count, &nz_check_code)) != PMC_STATUS_OK)

	call	AllocateNumber
	test	eax, eax
	jne	SHORT $LN1@PMC_Add_X_

; 370  :                 return (result);
; 371  :             if ((result = Add_X_1W(nx, y, nz)) != PMC_STATUS_OK)

	mov	r8, QWORD PTR nz$[rsp]
	mov	rdx, rdi
	mov	rcx, rbx
	call	Add_X_1W
	mov	rcx, QWORD PTR nz$[rsp]
	mov	ebx, eax
	test	eax, eax
	je	SHORT $LN15@PMC_Add_X_

; 372  :             {
; 373  :                 DeallocateNumber(nz);

	call	DeallocateNumber

; 374  :                 return (result);

	mov	eax, ebx

; 387  : }

	mov	rbx, QWORD PTR [rsp+56]
	mov	rsi, QWORD PTR [rsp+64]
	add	rsp, 32					; 00000020H
	pop	rdi
	ret	0
$LN15@PMC_Add_X_:

; 375  :             }
; 376  :             if ((result = CheckBlockLight(nz->BLOCK, nz_check_code)) != PMC_STATUS_OK)

	mov	rdx, QWORD PTR nz_check_code$1[rsp]
	mov	rcx, QWORD PTR [rcx+48]
	call	CheckBlockLight
	test	eax, eax
	jne	SHORT $LN1@PMC_Add_X_

; 377  :                 return (result);
; 378  :             CommitNumber(nz);

	mov	rcx, QWORD PTR nz$[rsp]
	call	CommitNumber
$LN12@PMC_Add_X_:

; 379  :         }
; 380  :         *o = nz;
; 381  :     }
; 382  : #ifdef _DEBUG
; 383  :     if ((result = CheckNumber(*o)) != PMC_STATUS_OK)
; 384  :         return (result);
; 385  : #endif
; 386  :     return (PMC_STATUS_OK);

	mov	rax, QWORD PTR nz$[rsp]
	mov	QWORD PTR [rsi], rax
	xor	eax, eax

; 387  : }

	mov	rbx, QWORD PTR [rsp+56]
	mov	rsi, QWORD PTR [rsp+64]
	add	rsp, 32					; 00000020H
	pop	rdi
	ret	0
$LN23@PMC_Add_X_:

; 321  :         return (PMC_STATUS_ARGUMENT_ERROR);

	mov	eax, -1
$LN1@PMC_Add_X_:

; 387  : }

	mov	rbx, QWORD PTR [rsp+56]
	mov	rsi, QWORD PTR [rsp+64]
	add	rsp, 32					; 00000020H
	pop	rdi
	ret	0
PMC_Add_X_I ENDP
_TEXT	ENDS
; Function compile flags: /Ogtpy
; File z:\sources\lunor\repos\rougemeilland\palmtree.math.core.implements\palmtree.math.core.implements\pmc_add.c
;	COMDAT Initialize_Add
_TEXT	SEGMENT
feature$ = 8
Initialize_Add PROC					; COMDAT

; 575  :     fp_Add_X_X_using_ADC = feature->PROCESSOR_FEATURE_ADX ? Add_X_X_using_ADCX : Add_X_X_using_ADC;

	test	BYTE PTR [rcx], 2
	lea	rax, OFFSET FLAT:Add_X_X_using_ADC
	lea	rcx, OFFSET FLAT:Add_X_X_using_ADCX
	cmovne	rax, rcx
	mov	QWORD PTR fp_Add_X_X_using_ADC, rax

; 576  :     return (PMC_STATUS_OK);

	xor	eax, eax

; 577  : }

	ret	0
Initialize_Add ENDP
_TEXT	ENDS
END
