; Listing generated by Microsoft (R) Optimizing Compiler Version 19.16.27026.1 

include listing.inc

INCLUDELIB MSVCRT
INCLUDELIB OLDNAMES

PUBLIC	Initialize_Subtruct
PUBLIC	PMC_Subtruct_X_I
PUBLIC	PMC_Subtruct_X_L
PUBLIC	PMC_Subtruct_X_X
EXTRN	CheckBlockLight:PROC
EXTRN	AllocateNumber:PROC
EXTRN	DeallocateNumber:PROC
EXTRN	CommitNumber:PROC
EXTRN	CheckNumber:PROC
EXTRN	DuplicateNumber:PROC
EXTRN	number_zero:BYTE
;	COMDAT pdata
pdata	SEGMENT
$pdata$PMC_Subtruct_X_I DD imagerel $LN27
	DD	imagerel $LN27+376
	DD	imagerel $unwind$PMC_Subtruct_X_I
pdata	ENDS
;	COMDAT pdata
pdata	SEGMENT
$pdata$PMC_Subtruct_X_L DD imagerel $LN69
	DD	imagerel $LN69+366
	DD	imagerel $unwind$PMC_Subtruct_X_L
pdata	ENDS
;	COMDAT pdata
pdata	SEGMENT
$pdata$PMC_Subtruct_X_X DD imagerel $LN23
	DD	imagerel $LN23+354
	DD	imagerel $unwind$PMC_Subtruct_X_X
pdata	ENDS
;	COMDAT pdata
pdata	SEGMENT
$pdata$Subtruct_X_2W DD imagerel Subtruct_X_2W
	DD	imagerel Subtruct_X_2W+169
	DD	imagerel $unwind$Subtruct_X_2W
pdata	ENDS
;	COMDAT pdata
pdata	SEGMENT
$pdata$Subtruct_X_X DD imagerel Subtruct_X_X
	DD	imagerel Subtruct_X_X+1006
	DD	imagerel $unwind$Subtruct_X_X
pdata	ENDS
;	COMDAT xdata
xdata	SEGMENT
$unwind$Subtruct_X_X DD 040a01H
	DD	06340aH
	DD	07006320aH
xdata	ENDS
;	COMDAT xdata
xdata	SEGMENT
$unwind$Subtruct_X_2W DD 020501H
	DD	013405H
xdata	ENDS
;	COMDAT xdata
xdata	SEGMENT
$unwind$PMC_Subtruct_X_X DD 060f01H
	DD	08640fH
	DD	07340fH
	DD	0700b320fH
xdata	ENDS
;	COMDAT xdata
xdata	SEGMENT
$unwind$PMC_Subtruct_X_L DD 060f01H
	DD	08640fH
	DD	07340fH
	DD	0700b320fH
xdata	ENDS
;	COMDAT xdata
xdata	SEGMENT
$unwind$PMC_Subtruct_X_I DD 060f01H
	DD	08640fH
	DD	07340fH
	DD	0700b320fH
xdata	ENDS
; Function compile flags: /Ogtpy
; File z:\sources\lunor\repos\rougemeilland\palmtree.math.core.implements\palmtree.math.core.implements\pmc_subtruct.c
; File z:\sources\lunor\repos\rougemeilland\palmtree.math.core.implements\palmtree.math.core.implements\autogenerated_inline_func.h
; File z:\sources\lunor\repos\rougemeilland\palmtree.math.core.implements\palmtree.math.core.implements\pmc_internal.h
; File z:\sources\lunor\repos\rougemeilland\palmtree.math.core.implements\palmtree.math.core.implements\autogenerated_inline_func.h
; File z:\sources\lunor\repos\rougemeilland\palmtree.math.core.implements\palmtree.math.core.implements\pmc_internal.h
; File z:\sources\lunor\repos\rougemeilland\palmtree.math.core.implements\palmtree.math.core.implements\autogenerated_inline_func.h
; File z:\sources\lunor\repos\rougemeilland\palmtree.math.core.implements\palmtree.math.core.implements\pmc_internal.h
; File z:\sources\lunor\repos\rougemeilland\palmtree.math.core.implements\palmtree.math.core.implements\autogenerated_inline_func.h
; File z:\sources\lunor\repos\rougemeilland\palmtree.math.core.implements\palmtree.math.core.implements\pmc_internal.h
; File z:\sources\lunor\repos\rougemeilland\palmtree.math.core.implements\palmtree.math.core.implements\autogenerated_inline_func.h
; File z:\sources\lunor\repos\rougemeilland\palmtree.math.core.implements\palmtree.math.core.implements\pmc_internal.h
; File z:\sources\lunor\repos\rougemeilland\palmtree.math.core.implements\palmtree.math.core.implements\autogenerated_inline_func.h
; File z:\sources\lunor\repos\rougemeilland\palmtree.math.core.implements\palmtree.math.core.implements\pmc_internal.h
; File z:\sources\lunor\repos\rougemeilland\palmtree.math.core.implements\palmtree.math.core.implements\autogenerated_inline_func.h
; File z:\sources\lunor\repos\rougemeilland\palmtree.math.core.implements\palmtree.math.core.implements\pmc_internal.h
; File z:\sources\lunor\repos\rougemeilland\palmtree.math.core.implements\palmtree.math.core.implements\autogenerated_inline_func.h
; File z:\sources\lunor\repos\rougemeilland\palmtree.math.core.implements\palmtree.math.core.implements\pmc_internal.h
; File z:\sources\lunor\repos\rougemeilland\palmtree.math.core.implements\palmtree.math.core.implements\autogenerated_inline_func.h
; File z:\sources\lunor\repos\rougemeilland\palmtree.math.core.implements\palmtree.math.core.implements\pmc_internal.h
; File z:\sources\lunor\repos\rougemeilland\palmtree.math.core.implements\palmtree.math.core.implements\autogenerated_inline_func.h
; File z:\sources\lunor\repos\rougemeilland\palmtree.math.core.implements\palmtree.math.core.implements\pmc_internal.h
; File z:\sources\lunor\repos\rougemeilland\palmtree.math.core.implements\palmtree.math.core.implements\autogenerated_inline_func.h
; File z:\sources\lunor\repos\rougemeilland\palmtree.math.core.implements\palmtree.math.core.implements\pmc_internal.h
; File z:\sources\lunor\repos\rougemeilland\palmtree.math.core.implements\palmtree.math.core.implements\autogenerated_inline_func.h
; File z:\sources\lunor\repos\rougemeilland\palmtree.math.core.implements\palmtree.math.core.implements\pmc_internal.h
; File z:\sources\lunor\repos\rougemeilland\palmtree.math.core.implements\palmtree.math.core.implements\autogenerated_inline_func.h
; File z:\sources\lunor\repos\rougemeilland\palmtree.math.core.implements\palmtree.math.core.implements\pmc_internal.h
; File z:\sources\lunor\repos\rougemeilland\palmtree.math.core.implements\palmtree.math.core.implements\autogenerated_inline_func.h
; File z:\sources\lunor\repos\rougemeilland\palmtree.math.core.implements\palmtree.math.core.implements\pmc_internal.h
; File z:\sources\lunor\repos\rougemeilland\palmtree.math.core.implements\palmtree.math.core.implements\autogenerated_inline_func.h
; File z:\sources\lunor\repos\rougemeilland\palmtree.math.core.implements\palmtree.math.core.implements\pmc_internal.h
; File z:\sources\lunor\repos\rougemeilland\palmtree.math.core.implements\palmtree.math.core.implements\autogenerated_inline_func.h
; File z:\sources\lunor\repos\rougemeilland\palmtree.math.core.implements\palmtree.math.core.implements\pmc_internal.h
; File z:\sources\lunor\repos\rougemeilland\palmtree.math.core.implements\palmtree.math.core.implements\autogenerated_inline_func.h
; File z:\sources\lunor\repos\rougemeilland\palmtree.math.core.implements\palmtree.math.core.implements\pmc_internal.h
; File z:\sources\lunor\repos\rougemeilland\palmtree.math.core.implements\palmtree.math.core.implements\autogenerated_inline_func.h
; File z:\sources\lunor\repos\rougemeilland\palmtree.math.core.implements\palmtree.math.core.implements\pmc_internal.h
; File z:\sources\lunor\repos\rougemeilland\palmtree.math.core.implements\palmtree.math.core.implements\autogenerated_inline_func.h
; File z:\sources\lunor\repos\rougemeilland\palmtree.math.core.implements\palmtree.math.core.implements\pmc_internal.h
; File z:\sources\lunor\repos\rougemeilland\palmtree.math.core.implements\palmtree.math.core.implements\autogenerated_inline_func.h
; File z:\sources\lunor\repos\rougemeilland\palmtree.math.core.implements\palmtree.math.core.implements\pmc_internal.h
; File z:\sources\lunor\repos\rougemeilland\palmtree.math.core.implements\palmtree.math.core.implements\autogenerated_inline_func.h
; File z:\sources\lunor\repos\rougemeilland\palmtree.math.core.implements\palmtree.math.core.implements\pmc_internal.h
; File z:\sources\lunor\repos\rougemeilland\palmtree.math.core.implements\palmtree.math.core.implements\autogenerated_inline_func.h
; File z:\sources\lunor\repos\rougemeilland\palmtree.math.core.implements\palmtree.math.core.implements\pmc_internal.h
; File z:\sources\lunor\repos\rougemeilland\palmtree.math.core.implements\palmtree.math.core.implements\autogenerated_inline_func.h
; File z:\sources\lunor\repos\rougemeilland\palmtree.math.core.implements\palmtree.math.core.implements\pmc_internal.h
; File z:\sources\lunor\repos\rougemeilland\palmtree.math.core.implements\palmtree.math.core.implements\autogenerated_inline_func.h
; File z:\sources\lunor\repos\rougemeilland\palmtree.math.core.implements\palmtree.math.core.implements\pmc_internal.h
; File z:\sources\lunor\repos\rougemeilland\palmtree.math.core.implements\palmtree.math.core.implements\autogenerated_inline_func.h
; File z:\sources\lunor\repos\rougemeilland\palmtree.math.core.implements\palmtree.math.core.implements\pmc_internal.h
; File z:\sources\lunor\repos\rougemeilland\palmtree.math.core.implements\palmtree.math.core.implements\autogenerated_inline_func.h
; File z:\sources\lunor\repos\rougemeilland\palmtree.math.core.implements\palmtree.math.core.implements\pmc_internal.h
; File z:\sources\lunor\repos\rougemeilland\palmtree.math.core.implements\palmtree.math.core.implements\autogenerated_inline_func.h
; File z:\sources\lunor\repos\rougemeilland\palmtree.math.core.implements\palmtree.math.core.implements\pmc_internal.h
; File z:\sources\lunor\repos\rougemeilland\palmtree.math.core.implements\palmtree.math.core.implements\autogenerated_inline_func.h
; File z:\sources\lunor\repos\rougemeilland\palmtree.math.core.implements\palmtree.math.core.implements\pmc_internal.h
; File z:\sources\lunor\repos\rougemeilland\palmtree.math.core.implements\palmtree.math.core.implements\autogenerated_inline_func.h
; File z:\sources\lunor\repos\rougemeilland\palmtree.math.core.implements\palmtree.math.core.implements\pmc_internal.h
; File z:\sources\lunor\repos\rougemeilland\palmtree.math.core.implements\palmtree.math.core.implements\autogenerated_inline_func.h
; File z:\sources\lunor\repos\rougemeilland\palmtree.math.core.implements\palmtree.math.core.implements\pmc_internal.h
; File z:\sources\lunor\repos\rougemeilland\palmtree.math.core.implements\palmtree.math.core.implements\autogenerated_inline_func.h
; File z:\sources\lunor\repos\rougemeilland\palmtree.math.core.implements\palmtree.math.core.implements\pmc_internal.h
; File z:\sources\lunor\repos\rougemeilland\palmtree.math.core.implements\palmtree.math.core.implements\autogenerated_inline_func.h
; File z:\sources\lunor\repos\rougemeilland\palmtree.math.core.implements\palmtree.math.core.implements\pmc_internal.h
; File z:\sources\lunor\repos\rougemeilland\palmtree.math.core.implements\palmtree.math.core.implements\pmc_subtruct.c
; File z:\sources\lunor\repos\rougemeilland\palmtree.math.core.implements\palmtree.math.core.implements\autogenerated_inline_func.h
; File z:\sources\lunor\repos\rougemeilland\palmtree.math.core.implements\palmtree.math.core.implements\pmc_internal.h
; File z:\sources\lunor\repos\rougemeilland\palmtree.math.core.implements\palmtree.math.core.implements\autogenerated_inline_func.h
; File z:\sources\lunor\repos\rougemeilland\palmtree.math.core.implements\palmtree.math.core.implements\pmc_internal.h
; File z:\sources\lunor\repos\rougemeilland\palmtree.math.core.implements\palmtree.math.core.implements\autogenerated_inline_func.h
; File z:\sources\lunor\repos\rougemeilland\palmtree.math.core.implements\palmtree.math.core.implements\pmc_internal.h
; File z:\sources\lunor\repos\rougemeilland\palmtree.math.core.implements\palmtree.math.core.implements\autogenerated_inline_func.h
; File z:\sources\lunor\repos\rougemeilland\palmtree.math.core.implements\palmtree.math.core.implements\pmc_internal.h
; File z:\sources\lunor\repos\rougemeilland\palmtree.math.core.implements\palmtree.math.core.implements\autogenerated_inline_func.h
; File z:\sources\lunor\repos\rougemeilland\palmtree.math.core.implements\palmtree.math.core.implements\pmc_internal.h
; File z:\sources\lunor\repos\rougemeilland\palmtree.math.core.implements\palmtree.math.core.implements\autogenerated_inline_func.h
; File z:\sources\lunor\repos\rougemeilland\palmtree.math.core.implements\palmtree.math.core.implements\pmc_internal.h
; File z:\sources\lunor\repos\rougemeilland\palmtree.math.core.implements\palmtree.math.core.implements\autogenerated_inline_func.h
; File z:\sources\lunor\repos\rougemeilland\palmtree.math.core.implements\palmtree.math.core.implements\pmc_internal.h
; File z:\sources\lunor\repos\rougemeilland\palmtree.math.core.implements\palmtree.math.core.implements\autogenerated_inline_func.h
; File z:\sources\lunor\repos\rougemeilland\palmtree.math.core.implements\palmtree.math.core.implements\pmc_internal.h
; File z:\sources\lunor\repos\rougemeilland\palmtree.math.core.implements\palmtree.math.core.implements\pmc_subtruct.c
; File z:\sources\lunor\repos\rougemeilland\palmtree.math.core.implements\palmtree.math.core.implements\autogenerated_inline_func.h
; File z:\sources\lunor\repos\rougemeilland\palmtree.math.core.implements\palmtree.math.core.implements\pmc_internal.h
; File z:\sources\lunor\repos\rougemeilland\palmtree.math.core.implements\palmtree.math.core.implements\autogenerated_inline_func.h
; File z:\sources\lunor\repos\rougemeilland\palmtree.math.core.implements\palmtree.math.core.implements\pmc_internal.h
; File z:\sources\lunor\repos\rougemeilland\palmtree.math.core.implements\palmtree.math.core.implements\autogenerated_inline_func.h
; File z:\sources\lunor\repos\rougemeilland\palmtree.math.core.implements\palmtree.math.core.implements\pmc_internal.h
; File z:\sources\lunor\repos\rougemeilland\palmtree.math.core.implements\palmtree.math.core.implements\autogenerated_inline_func.h
; File z:\sources\lunor\repos\rougemeilland\palmtree.math.core.implements\palmtree.math.core.implements\pmc_internal.h
; File z:\sources\lunor\repos\rougemeilland\palmtree.math.core.implements\palmtree.math.core.implements\pmc_subtruct.c
; File z:\sources\lunor\repos\rougemeilland\palmtree.math.core.implements\palmtree.math.core.implements\autogenerated_inline_func.h
; File z:\sources\lunor\repos\rougemeilland\palmtree.math.core.implements\palmtree.math.core.implements\pmc_internal.h
; File z:\sources\lunor\repos\rougemeilland\palmtree.math.core.implements\palmtree.math.core.implements\autogenerated_inline_func.h
; File z:\sources\lunor\repos\rougemeilland\palmtree.math.core.implements\palmtree.math.core.implements\pmc_internal.h
; File z:\sources\lunor\repos\rougemeilland\palmtree.math.core.implements\palmtree.math.core.implements\pmc_subtruct.c
; File z:\sources\lunor\repos\rougemeilland\palmtree.math.core.implements\palmtree.math.core.implements\pmc_internal.h
; File z:\sources\lunor\repos\rougemeilland\palmtree.math.core.implements\palmtree.math.core.implements\pmc_subtruct.c
; File z:\sources\lunor\repos\rougemeilland\palmtree.math.core.implements\palmtree.math.core.implements\pmc_internal.h
; File z:\sources\lunor\repos\rougemeilland\palmtree.math.core.implements\palmtree.math.core.implements\pmc_subtruct.c
;	COMDAT Subtruct_X_X
_TEXT	SEGMENT
x$ = 48
y$ = 56
z$ = 64
Subtruct_X_X PROC					; COMDAT

; 138  : {

	mov	QWORD PTR [rsp+8], rbx
	push	rdi
	sub	rsp, 32					; 00000020H

; 139  :     __UNIT_TYPE x_count = x->UNIT_WORD_COUNT;
; 140  :     __UNIT_TYPE y_count = y->UNIT_WORD_COUNT;

	mov	rdi, QWORD PTR [rdx]

; 141  :     __UNIT_TYPE z_count = z->BLOCK_COUNT;
; 142  :     __UNIT_TYPE* xp = &x->BLOCK[0];
; 143  :     __UNIT_TYPE* yp = &y->BLOCK[0];

	mov	r11, QWORD PTR [rdx+48]

; 144  :     __UNIT_TYPE* zp = &z->BLOCK[0];
; 145  :     char c = 0;
; 146  : 
; 147  :     // まず 32 ワードずつ減算をする。
; 148  :     __UNIT_TYPE count = y_count >> 5;

	mov	rdx, rdi
	mov	rbx, QWORD PTR [rcx]
	mov	r10, QWORD PTR [rcx+48]
	xor	cl, cl
	mov	r9, QWORD PTR [r8+48]
	shr	rdx, 5

; 149  :     while (count != 0)

	test	rdx, rdx
	je	$LN3@Subtruct_X
	npad	2
$LL2@Subtruct_X:
; File z:\sources\lunor\repos\rougemeilland\palmtree.math.core.implements\palmtree.math.core.implements\autogenerated_inline_func.h

; 806  :     c = _SUBTRUCT_UNIT(c, xp[0], yp[0], &zp[0]);

	mov	rax, QWORD PTR [r10]
; File z:\sources\lunor\repos\rougemeilland\palmtree.math.core.implements\palmtree.math.core.implements\pmc_internal.h

; 484  :     return (_subborrow_u64(borrow, u, v, w));

	add	cl, -1
	sbb	rax, QWORD PTR [r11]
	mov	QWORD PTR [r9], rax
; File z:\sources\lunor\repos\rougemeilland\palmtree.math.core.implements\palmtree.math.core.implements\autogenerated_inline_func.h

; 807  :     c = _SUBTRUCT_UNIT(c, xp[1], yp[1], &zp[1]);

	mov	rax, QWORD PTR [r10+8]
; File z:\sources\lunor\repos\rougemeilland\palmtree.math.core.implements\palmtree.math.core.implements\pmc_internal.h

; 484  :     return (_subborrow_u64(borrow, u, v, w));

	sbb	rax, QWORD PTR [r11+8]
	mov	QWORD PTR [r9+8], rax
; File z:\sources\lunor\repos\rougemeilland\palmtree.math.core.implements\palmtree.math.core.implements\autogenerated_inline_func.h

; 808  :     c = _SUBTRUCT_UNIT(c, xp[2], yp[2], &zp[2]);

	mov	rax, QWORD PTR [r10+16]
; File z:\sources\lunor\repos\rougemeilland\palmtree.math.core.implements\palmtree.math.core.implements\pmc_internal.h

; 484  :     return (_subborrow_u64(borrow, u, v, w));

	sbb	rax, QWORD PTR [r11+16]
	mov	QWORD PTR [r9+16], rax
; File z:\sources\lunor\repos\rougemeilland\palmtree.math.core.implements\palmtree.math.core.implements\autogenerated_inline_func.h

; 809  :     c = _SUBTRUCT_UNIT(c, xp[3], yp[3], &zp[3]);

	mov	rax, QWORD PTR [r10+24]
; File z:\sources\lunor\repos\rougemeilland\palmtree.math.core.implements\palmtree.math.core.implements\pmc_internal.h

; 484  :     return (_subborrow_u64(borrow, u, v, w));

	sbb	rax, QWORD PTR [r11+24]
	mov	QWORD PTR [r9+24], rax
; File z:\sources\lunor\repos\rougemeilland\palmtree.math.core.implements\palmtree.math.core.implements\autogenerated_inline_func.h

; 810  :     c = _SUBTRUCT_UNIT(c, xp[4], yp[4], &zp[4]);

	mov	rax, QWORD PTR [r10+32]
; File z:\sources\lunor\repos\rougemeilland\palmtree.math.core.implements\palmtree.math.core.implements\pmc_internal.h

; 484  :     return (_subborrow_u64(borrow, u, v, w));

	sbb	rax, QWORD PTR [r11+32]
	mov	QWORD PTR [r9+32], rax
; File z:\sources\lunor\repos\rougemeilland\palmtree.math.core.implements\palmtree.math.core.implements\autogenerated_inline_func.h

; 811  :     c = _SUBTRUCT_UNIT(c, xp[5], yp[5], &zp[5]);

	mov	rax, QWORD PTR [r10+40]
; File z:\sources\lunor\repos\rougemeilland\palmtree.math.core.implements\palmtree.math.core.implements\pmc_internal.h

; 484  :     return (_subborrow_u64(borrow, u, v, w));

	sbb	rax, QWORD PTR [r11+40]
	mov	QWORD PTR [r9+40], rax
; File z:\sources\lunor\repos\rougemeilland\palmtree.math.core.implements\palmtree.math.core.implements\autogenerated_inline_func.h

; 812  :     c = _SUBTRUCT_UNIT(c, xp[6], yp[6], &zp[6]);

	mov	rax, QWORD PTR [r10+48]
; File z:\sources\lunor\repos\rougemeilland\palmtree.math.core.implements\palmtree.math.core.implements\pmc_internal.h

; 484  :     return (_subborrow_u64(borrow, u, v, w));

	sbb	rax, QWORD PTR [r11+48]
	mov	QWORD PTR [r9+48], rax
; File z:\sources\lunor\repos\rougemeilland\palmtree.math.core.implements\palmtree.math.core.implements\autogenerated_inline_func.h

; 813  :     c = _SUBTRUCT_UNIT(c, xp[7], yp[7], &zp[7]);

	mov	rax, QWORD PTR [r10+56]
; File z:\sources\lunor\repos\rougemeilland\palmtree.math.core.implements\palmtree.math.core.implements\pmc_internal.h

; 484  :     return (_subborrow_u64(borrow, u, v, w));

	sbb	rax, QWORD PTR [r11+56]
	mov	QWORD PTR [r9+56], rax
; File z:\sources\lunor\repos\rougemeilland\palmtree.math.core.implements\palmtree.math.core.implements\autogenerated_inline_func.h

; 814  :     c = _SUBTRUCT_UNIT(c, xp[8], yp[8], &zp[8]);

	mov	rax, QWORD PTR [r10+64]
; File z:\sources\lunor\repos\rougemeilland\palmtree.math.core.implements\palmtree.math.core.implements\pmc_internal.h

; 484  :     return (_subborrow_u64(borrow, u, v, w));

	sbb	rax, QWORD PTR [r11+64]
	mov	QWORD PTR [r9+64], rax
; File z:\sources\lunor\repos\rougemeilland\palmtree.math.core.implements\palmtree.math.core.implements\autogenerated_inline_func.h

; 815  :     c = _SUBTRUCT_UNIT(c, xp[9], yp[9], &zp[9]);

	mov	rax, QWORD PTR [r10+72]
; File z:\sources\lunor\repos\rougemeilland\palmtree.math.core.implements\palmtree.math.core.implements\pmc_internal.h

; 484  :     return (_subborrow_u64(borrow, u, v, w));

	sbb	rax, QWORD PTR [r11+72]
	mov	QWORD PTR [r9+72], rax
; File z:\sources\lunor\repos\rougemeilland\palmtree.math.core.implements\palmtree.math.core.implements\autogenerated_inline_func.h

; 816  :     c = _SUBTRUCT_UNIT(c, xp[10], yp[10], &zp[10]);

	mov	rax, QWORD PTR [r10+80]
; File z:\sources\lunor\repos\rougemeilland\palmtree.math.core.implements\palmtree.math.core.implements\pmc_internal.h

; 484  :     return (_subborrow_u64(borrow, u, v, w));

	sbb	rax, QWORD PTR [r11+80]
	mov	QWORD PTR [r9+80], rax
; File z:\sources\lunor\repos\rougemeilland\palmtree.math.core.implements\palmtree.math.core.implements\autogenerated_inline_func.h

; 817  :     c = _SUBTRUCT_UNIT(c, xp[11], yp[11], &zp[11]);

	mov	rax, QWORD PTR [r10+88]
; File z:\sources\lunor\repos\rougemeilland\palmtree.math.core.implements\palmtree.math.core.implements\pmc_internal.h

; 484  :     return (_subborrow_u64(borrow, u, v, w));

	sbb	rax, QWORD PTR [r11+88]
	mov	QWORD PTR [r9+88], rax
; File z:\sources\lunor\repos\rougemeilland\palmtree.math.core.implements\palmtree.math.core.implements\autogenerated_inline_func.h

; 818  :     c = _SUBTRUCT_UNIT(c, xp[12], yp[12], &zp[12]);

	mov	rax, QWORD PTR [r10+96]
; File z:\sources\lunor\repos\rougemeilland\palmtree.math.core.implements\palmtree.math.core.implements\pmc_internal.h

; 484  :     return (_subborrow_u64(borrow, u, v, w));

	sbb	rax, QWORD PTR [r11+96]
	mov	QWORD PTR [r9+96], rax
; File z:\sources\lunor\repos\rougemeilland\palmtree.math.core.implements\palmtree.math.core.implements\autogenerated_inline_func.h

; 819  :     c = _SUBTRUCT_UNIT(c, xp[13], yp[13], &zp[13]);

	mov	rax, QWORD PTR [r10+104]
; File z:\sources\lunor\repos\rougemeilland\palmtree.math.core.implements\palmtree.math.core.implements\pmc_internal.h

; 484  :     return (_subborrow_u64(borrow, u, v, w));

	sbb	rax, QWORD PTR [r11+104]
	mov	QWORD PTR [r9+104], rax
; File z:\sources\lunor\repos\rougemeilland\palmtree.math.core.implements\palmtree.math.core.implements\autogenerated_inline_func.h

; 820  :     c = _SUBTRUCT_UNIT(c, xp[14], yp[14], &zp[14]);

	mov	rax, QWORD PTR [r10+112]
; File z:\sources\lunor\repos\rougemeilland\palmtree.math.core.implements\palmtree.math.core.implements\pmc_internal.h

; 484  :     return (_subborrow_u64(borrow, u, v, w));

	sbb	rax, QWORD PTR [r11+112]
	mov	QWORD PTR [r9+112], rax
; File z:\sources\lunor\repos\rougemeilland\palmtree.math.core.implements\palmtree.math.core.implements\autogenerated_inline_func.h

; 821  :     c = _SUBTRUCT_UNIT(c, xp[15], yp[15], &zp[15]);

	mov	rax, QWORD PTR [r10+120]
; File z:\sources\lunor\repos\rougemeilland\palmtree.math.core.implements\palmtree.math.core.implements\pmc_internal.h

; 484  :     return (_subborrow_u64(borrow, u, v, w));

	sbb	rax, QWORD PTR [r11+120]
	mov	QWORD PTR [r9+120], rax
; File z:\sources\lunor\repos\rougemeilland\palmtree.math.core.implements\palmtree.math.core.implements\autogenerated_inline_func.h

; 822  :     c = _SUBTRUCT_UNIT(c, xp[16], yp[16], &zp[16]);

	mov	rax, QWORD PTR [r10+128]
; File z:\sources\lunor\repos\rougemeilland\palmtree.math.core.implements\palmtree.math.core.implements\pmc_internal.h

; 484  :     return (_subborrow_u64(borrow, u, v, w));

	sbb	rax, QWORD PTR [r11+128]
	mov	QWORD PTR [r9+128], rax
; File z:\sources\lunor\repos\rougemeilland\palmtree.math.core.implements\palmtree.math.core.implements\autogenerated_inline_func.h

; 823  :     c = _SUBTRUCT_UNIT(c, xp[17], yp[17], &zp[17]);

	mov	rax, QWORD PTR [r10+136]
; File z:\sources\lunor\repos\rougemeilland\palmtree.math.core.implements\palmtree.math.core.implements\pmc_internal.h

; 484  :     return (_subborrow_u64(borrow, u, v, w));

	sbb	rax, QWORD PTR [r11+136]
	mov	QWORD PTR [r9+136], rax
; File z:\sources\lunor\repos\rougemeilland\palmtree.math.core.implements\palmtree.math.core.implements\autogenerated_inline_func.h

; 824  :     c = _SUBTRUCT_UNIT(c, xp[18], yp[18], &zp[18]);

	mov	rax, QWORD PTR [r10+144]
; File z:\sources\lunor\repos\rougemeilland\palmtree.math.core.implements\palmtree.math.core.implements\pmc_internal.h

; 484  :     return (_subborrow_u64(borrow, u, v, w));

	sbb	rax, QWORD PTR [r11+144]
	mov	QWORD PTR [r9+144], rax
; File z:\sources\lunor\repos\rougemeilland\palmtree.math.core.implements\palmtree.math.core.implements\autogenerated_inline_func.h

; 825  :     c = _SUBTRUCT_UNIT(c, xp[19], yp[19], &zp[19]);

	mov	rax, QWORD PTR [r10+152]
; File z:\sources\lunor\repos\rougemeilland\palmtree.math.core.implements\palmtree.math.core.implements\pmc_internal.h

; 484  :     return (_subborrow_u64(borrow, u, v, w));

	sbb	rax, QWORD PTR [r11+152]
	mov	QWORD PTR [r9+152], rax
; File z:\sources\lunor\repos\rougemeilland\palmtree.math.core.implements\palmtree.math.core.implements\autogenerated_inline_func.h

; 826  :     c = _SUBTRUCT_UNIT(c, xp[20], yp[20], &zp[20]);

	mov	rax, QWORD PTR [r10+160]
; File z:\sources\lunor\repos\rougemeilland\palmtree.math.core.implements\palmtree.math.core.implements\pmc_internal.h

; 484  :     return (_subborrow_u64(borrow, u, v, w));

	sbb	rax, QWORD PTR [r11+160]
	mov	QWORD PTR [r9+160], rax
; File z:\sources\lunor\repos\rougemeilland\palmtree.math.core.implements\palmtree.math.core.implements\autogenerated_inline_func.h

; 827  :     c = _SUBTRUCT_UNIT(c, xp[21], yp[21], &zp[21]);

	mov	rax, QWORD PTR [r10+168]
; File z:\sources\lunor\repos\rougemeilland\palmtree.math.core.implements\palmtree.math.core.implements\pmc_internal.h

; 484  :     return (_subborrow_u64(borrow, u, v, w));

	sbb	rax, QWORD PTR [r11+168]
	mov	QWORD PTR [r9+168], rax
; File z:\sources\lunor\repos\rougemeilland\palmtree.math.core.implements\palmtree.math.core.implements\autogenerated_inline_func.h

; 828  :     c = _SUBTRUCT_UNIT(c, xp[22], yp[22], &zp[22]);

	mov	rax, QWORD PTR [r10+176]
; File z:\sources\lunor\repos\rougemeilland\palmtree.math.core.implements\palmtree.math.core.implements\pmc_internal.h

; 484  :     return (_subborrow_u64(borrow, u, v, w));

	sbb	rax, QWORD PTR [r11+176]
	mov	QWORD PTR [r9+176], rax
; File z:\sources\lunor\repos\rougemeilland\palmtree.math.core.implements\palmtree.math.core.implements\autogenerated_inline_func.h

; 829  :     c = _SUBTRUCT_UNIT(c, xp[23], yp[23], &zp[23]);

	mov	rax, QWORD PTR [r10+184]
; File z:\sources\lunor\repos\rougemeilland\palmtree.math.core.implements\palmtree.math.core.implements\pmc_internal.h

; 484  :     return (_subborrow_u64(borrow, u, v, w));

	sbb	rax, QWORD PTR [r11+184]
	mov	QWORD PTR [r9+184], rax
; File z:\sources\lunor\repos\rougemeilland\palmtree.math.core.implements\palmtree.math.core.implements\autogenerated_inline_func.h

; 830  :     c = _SUBTRUCT_UNIT(c, xp[24], yp[24], &zp[24]);

	mov	rax, QWORD PTR [r10+192]
; File z:\sources\lunor\repos\rougemeilland\palmtree.math.core.implements\palmtree.math.core.implements\pmc_internal.h

; 484  :     return (_subborrow_u64(borrow, u, v, w));

	sbb	rax, QWORD PTR [r11+192]
	mov	QWORD PTR [r9+192], rax
; File z:\sources\lunor\repos\rougemeilland\palmtree.math.core.implements\palmtree.math.core.implements\autogenerated_inline_func.h

; 831  :     c = _SUBTRUCT_UNIT(c, xp[25], yp[25], &zp[25]);

	mov	rax, QWORD PTR [r10+200]
; File z:\sources\lunor\repos\rougemeilland\palmtree.math.core.implements\palmtree.math.core.implements\pmc_internal.h

; 484  :     return (_subborrow_u64(borrow, u, v, w));

	sbb	rax, QWORD PTR [r11+200]
	mov	QWORD PTR [r9+200], rax
; File z:\sources\lunor\repos\rougemeilland\palmtree.math.core.implements\palmtree.math.core.implements\autogenerated_inline_func.h

; 832  :     c = _SUBTRUCT_UNIT(c, xp[26], yp[26], &zp[26]);

	mov	rax, QWORD PTR [r10+208]
; File z:\sources\lunor\repos\rougemeilland\palmtree.math.core.implements\palmtree.math.core.implements\pmc_internal.h

; 484  :     return (_subborrow_u64(borrow, u, v, w));

	sbb	rax, QWORD PTR [r11+208]
	mov	QWORD PTR [r9+208], rax
; File z:\sources\lunor\repos\rougemeilland\palmtree.math.core.implements\palmtree.math.core.implements\autogenerated_inline_func.h

; 833  :     c = _SUBTRUCT_UNIT(c, xp[27], yp[27], &zp[27]);

	mov	rax, QWORD PTR [r10+216]
; File z:\sources\lunor\repos\rougemeilland\palmtree.math.core.implements\palmtree.math.core.implements\pmc_internal.h

; 484  :     return (_subborrow_u64(borrow, u, v, w));

	sbb	rax, QWORD PTR [r11+216]
	mov	QWORD PTR [r9+216], rax
; File z:\sources\lunor\repos\rougemeilland\palmtree.math.core.implements\palmtree.math.core.implements\autogenerated_inline_func.h

; 834  :     c = _SUBTRUCT_UNIT(c, xp[28], yp[28], &zp[28]);

	mov	rax, QWORD PTR [r10+224]
; File z:\sources\lunor\repos\rougemeilland\palmtree.math.core.implements\palmtree.math.core.implements\pmc_internal.h

; 484  :     return (_subborrow_u64(borrow, u, v, w));

	sbb	rax, QWORD PTR [r11+224]
	mov	QWORD PTR [r9+224], rax
; File z:\sources\lunor\repos\rougemeilland\palmtree.math.core.implements\palmtree.math.core.implements\autogenerated_inline_func.h

; 835  :     c = _SUBTRUCT_UNIT(c, xp[29], yp[29], &zp[29]);

	mov	rax, QWORD PTR [r10+232]
; File z:\sources\lunor\repos\rougemeilland\palmtree.math.core.implements\palmtree.math.core.implements\pmc_internal.h

; 484  :     return (_subborrow_u64(borrow, u, v, w));

	sbb	rax, QWORD PTR [r11+232]
	mov	QWORD PTR [r9+232], rax
; File z:\sources\lunor\repos\rougemeilland\palmtree.math.core.implements\palmtree.math.core.implements\autogenerated_inline_func.h

; 836  :     c = _SUBTRUCT_UNIT(c, xp[30], yp[30], &zp[30]);

	mov	rax, QWORD PTR [r10+240]
; File z:\sources\lunor\repos\rougemeilland\palmtree.math.core.implements\palmtree.math.core.implements\pmc_internal.h

; 484  :     return (_subborrow_u64(borrow, u, v, w));

	sbb	rax, QWORD PTR [r11+240]
	mov	QWORD PTR [r9+240], rax
; File z:\sources\lunor\repos\rougemeilland\palmtree.math.core.implements\palmtree.math.core.implements\autogenerated_inline_func.h

; 837  :     c = _SUBTRUCT_UNIT(c, xp[31], yp[31], &zp[31]);

	mov	rax, QWORD PTR [r10+248]
; File z:\sources\lunor\repos\rougemeilland\palmtree.math.core.implements\palmtree.math.core.implements\pmc_internal.h

; 484  :     return (_subborrow_u64(borrow, u, v, w));

	sbb	rax, QWORD PTR [r11+248]
	mov	QWORD PTR [r9+248], rax
	setb	cl
; File z:\sources\lunor\repos\rougemeilland\palmtree.math.core.implements\palmtree.math.core.implements\pmc_subtruct.c

; 152  :         xp += 32;

	add	r10, 256				; 00000100H

; 153  :         yp += 32;

	add	r11, 256				; 00000100H

; 154  :         zp += 32;

	add	r9, 256					; 00000100H

; 155  :         --count;

	sub	rdx, 1
	jne	$LL2@Subtruct_X
$LN3@Subtruct_X:

; 156  :     }
; 157  :     // この時点で未処理の桁は 32 ワード未満のはず
; 158  : 
; 159  :     // 未処理の桁が 16 ワード以上あるなら 16 ワード減算を行う。
; 160  :     if (y_count & 0x10)

	test	dil, 16
	je	SHORT $LN4@Subtruct_X

; 161  :     {
; 162  :         c = _SUBTRUCT_16WORDS_SBB(c, xp, yp, zp);

	mov	r8, r11
	mov	rdx, r10
	call	_SUBTRUCT_16WORDS_SBB

; 163  :         xp += 16;

	sub	r10, -128				; ffffffffffffff80H

; 164  :         yp += 16;

	sub	r11, -128				; ffffffffffffff80H

; 165  :         zp += 16;

	sub	r9, -128				; ffffffffffffff80H
	movzx	ecx, al
$LN4@Subtruct_X:

; 166  :     }
; 167  :     // この時点で未処理の桁は 16 ワード未満のはず
; 168  : 
; 169  :     // 未処理の桁が 8 ワード以上あるなら 8 ワード減算を行う。
; 170  :     if (y_count & 0x8)

	test	dil, 8
	je	SHORT $LN5@Subtruct_X
; File z:\sources\lunor\repos\rougemeilland\palmtree.math.core.implements\palmtree.math.core.implements\autogenerated_inline_func.h

; 3454 :     c = _SUBTRUCT_UNIT(c, xp[0], yp[0], &zp[0]);

	mov	rax, QWORD PTR [r10]
; File z:\sources\lunor\repos\rougemeilland\palmtree.math.core.implements\palmtree.math.core.implements\pmc_internal.h

; 484  :     return (_subborrow_u64(borrow, u, v, w));

	add	cl, -1
	sbb	rax, QWORD PTR [r11]
	mov	QWORD PTR [r9], rax
; File z:\sources\lunor\repos\rougemeilland\palmtree.math.core.implements\palmtree.math.core.implements\autogenerated_inline_func.h

; 3455 :     c = _SUBTRUCT_UNIT(c, xp[1], yp[1], &zp[1]);

	mov	rax, QWORD PTR [r10+8]
; File z:\sources\lunor\repos\rougemeilland\palmtree.math.core.implements\palmtree.math.core.implements\pmc_internal.h

; 484  :     return (_subborrow_u64(borrow, u, v, w));

	sbb	rax, QWORD PTR [r11+8]
	mov	QWORD PTR [r9+8], rax
; File z:\sources\lunor\repos\rougemeilland\palmtree.math.core.implements\palmtree.math.core.implements\autogenerated_inline_func.h

; 3456 :     c = _SUBTRUCT_UNIT(c, xp[2], yp[2], &zp[2]);

	mov	rax, QWORD PTR [r10+16]
; File z:\sources\lunor\repos\rougemeilland\palmtree.math.core.implements\palmtree.math.core.implements\pmc_internal.h

; 484  :     return (_subborrow_u64(borrow, u, v, w));

	sbb	rax, QWORD PTR [r11+16]
	mov	QWORD PTR [r9+16], rax
; File z:\sources\lunor\repos\rougemeilland\palmtree.math.core.implements\palmtree.math.core.implements\autogenerated_inline_func.h

; 3457 :     c = _SUBTRUCT_UNIT(c, xp[3], yp[3], &zp[3]);

	mov	rax, QWORD PTR [r10+24]
; File z:\sources\lunor\repos\rougemeilland\palmtree.math.core.implements\palmtree.math.core.implements\pmc_internal.h

; 484  :     return (_subborrow_u64(borrow, u, v, w));

	sbb	rax, QWORD PTR [r11+24]
	mov	QWORD PTR [r9+24], rax
; File z:\sources\lunor\repos\rougemeilland\palmtree.math.core.implements\palmtree.math.core.implements\autogenerated_inline_func.h

; 3458 :     c = _SUBTRUCT_UNIT(c, xp[4], yp[4], &zp[4]);

	mov	rax, QWORD PTR [r10+32]
; File z:\sources\lunor\repos\rougemeilland\palmtree.math.core.implements\palmtree.math.core.implements\pmc_internal.h

; 484  :     return (_subborrow_u64(borrow, u, v, w));

	sbb	rax, QWORD PTR [r11+32]
	mov	QWORD PTR [r9+32], rax
; File z:\sources\lunor\repos\rougemeilland\palmtree.math.core.implements\palmtree.math.core.implements\autogenerated_inline_func.h

; 3459 :     c = _SUBTRUCT_UNIT(c, xp[5], yp[5], &zp[5]);

	mov	rax, QWORD PTR [r10+40]
; File z:\sources\lunor\repos\rougemeilland\palmtree.math.core.implements\palmtree.math.core.implements\pmc_internal.h

; 484  :     return (_subborrow_u64(borrow, u, v, w));

	sbb	rax, QWORD PTR [r11+40]
	mov	QWORD PTR [r9+40], rax
; File z:\sources\lunor\repos\rougemeilland\palmtree.math.core.implements\palmtree.math.core.implements\autogenerated_inline_func.h

; 3460 :     c = _SUBTRUCT_UNIT(c, xp[6], yp[6], &zp[6]);

	mov	rax, QWORD PTR [r10+48]
; File z:\sources\lunor\repos\rougemeilland\palmtree.math.core.implements\palmtree.math.core.implements\pmc_internal.h

; 484  :     return (_subborrow_u64(borrow, u, v, w));

	sbb	rax, QWORD PTR [r11+48]
	mov	QWORD PTR [r9+48], rax
; File z:\sources\lunor\repos\rougemeilland\palmtree.math.core.implements\palmtree.math.core.implements\autogenerated_inline_func.h

; 3461 :     c = _SUBTRUCT_UNIT(c, xp[7], yp[7], &zp[7]);

	mov	rax, QWORD PTR [r10+56]
; File z:\sources\lunor\repos\rougemeilland\palmtree.math.core.implements\palmtree.math.core.implements\pmc_internal.h

; 484  :     return (_subborrow_u64(borrow, u, v, w));

	sbb	rax, QWORD PTR [r11+56]
	mov	QWORD PTR [r9+56], rax
	setb	cl
; File z:\sources\lunor\repos\rougemeilland\palmtree.math.core.implements\palmtree.math.core.implements\pmc_subtruct.c

; 173  :         xp += 8;

	add	r10, 64					; 00000040H

; 174  :         yp += 8;

	add	r11, 64					; 00000040H

; 175  :         zp += 8;

	add	r9, 64					; 00000040H
$LN5@Subtruct_X:

; 176  :     }
; 177  :     // この時点で未処理の桁は 8 ワード未満のはず
; 178  : 
; 179  :     // 未処理の桁が 4 ワード以上あるなら 4 ワード減算を行う。
; 180  :     if (y_count & 0x4)

	test	dil, 4
	je	SHORT $LN6@Subtruct_X
; File z:\sources\lunor\repos\rougemeilland\palmtree.math.core.implements\palmtree.math.core.implements\autogenerated_inline_func.h

; 4050 :     c = _SUBTRUCT_UNIT(c, xp[0], yp[0], &zp[0]);

	mov	rax, QWORD PTR [r10]
; File z:\sources\lunor\repos\rougemeilland\palmtree.math.core.implements\palmtree.math.core.implements\pmc_internal.h

; 484  :     return (_subborrow_u64(borrow, u, v, w));

	add	cl, -1
	sbb	rax, QWORD PTR [r11]
	mov	QWORD PTR [r9], rax
; File z:\sources\lunor\repos\rougemeilland\palmtree.math.core.implements\palmtree.math.core.implements\autogenerated_inline_func.h

; 4051 :     c = _SUBTRUCT_UNIT(c, xp[1], yp[1], &zp[1]);

	mov	rax, QWORD PTR [r10+8]
; File z:\sources\lunor\repos\rougemeilland\palmtree.math.core.implements\palmtree.math.core.implements\pmc_internal.h

; 484  :     return (_subborrow_u64(borrow, u, v, w));

	sbb	rax, QWORD PTR [r11+8]
	mov	QWORD PTR [r9+8], rax
; File z:\sources\lunor\repos\rougemeilland\palmtree.math.core.implements\palmtree.math.core.implements\autogenerated_inline_func.h

; 4052 :     c = _SUBTRUCT_UNIT(c, xp[2], yp[2], &zp[2]);

	mov	rax, QWORD PTR [r10+16]
; File z:\sources\lunor\repos\rougemeilland\palmtree.math.core.implements\palmtree.math.core.implements\pmc_internal.h

; 484  :     return (_subborrow_u64(borrow, u, v, w));

	sbb	rax, QWORD PTR [r11+16]
	mov	QWORD PTR [r9+16], rax
; File z:\sources\lunor\repos\rougemeilland\palmtree.math.core.implements\palmtree.math.core.implements\autogenerated_inline_func.h

; 4053 :     c = _SUBTRUCT_UNIT(c, xp[3], yp[3], &zp[3]);

	mov	rax, QWORD PTR [r10+24]
; File z:\sources\lunor\repos\rougemeilland\palmtree.math.core.implements\palmtree.math.core.implements\pmc_internal.h

; 484  :     return (_subborrow_u64(borrow, u, v, w));

	sbb	rax, QWORD PTR [r11+24]
	mov	QWORD PTR [r9+24], rax
	setb	cl
; File z:\sources\lunor\repos\rougemeilland\palmtree.math.core.implements\palmtree.math.core.implements\pmc_subtruct.c

; 183  :         xp += 4;

	add	r10, 32					; 00000020H

; 184  :         yp += 4;

	add	r11, 32					; 00000020H

; 185  :         zp += 4;

	add	r9, 32					; 00000020H
$LN6@Subtruct_X:

; 186  :     }
; 187  :     // この時点で未処理の桁は 4 ワード未満のはず
; 188  : 
; 189  :     // 未処理の桁が 2 ワード以上あるなら 2 ワード減算を行う。
; 190  :     if (y_count & 0x2)

	test	dil, 2
	je	SHORT $LN7@Subtruct_X
; File z:\sources\lunor\repos\rougemeilland\palmtree.math.core.implements\palmtree.math.core.implements\autogenerated_inline_func.h

; 4464 :     c = _SUBTRUCT_UNIT(c, xp[0], yp[0], &zp[0]);

	mov	rax, QWORD PTR [r10]
; File z:\sources\lunor\repos\rougemeilland\palmtree.math.core.implements\palmtree.math.core.implements\pmc_internal.h

; 484  :     return (_subborrow_u64(borrow, u, v, w));

	add	cl, -1
	sbb	rax, QWORD PTR [r11]
	mov	QWORD PTR [r9], rax
; File z:\sources\lunor\repos\rougemeilland\palmtree.math.core.implements\palmtree.math.core.implements\autogenerated_inline_func.h

; 4465 :     c = _SUBTRUCT_UNIT(c, xp[1], yp[1], &zp[1]);

	mov	rax, QWORD PTR [r10+8]
; File z:\sources\lunor\repos\rougemeilland\palmtree.math.core.implements\palmtree.math.core.implements\pmc_internal.h

; 484  :     return (_subborrow_u64(borrow, u, v, w));

	sbb	rax, QWORD PTR [r11+8]
	mov	QWORD PTR [r9+8], rax
	setb	cl
; File z:\sources\lunor\repos\rougemeilland\palmtree.math.core.implements\palmtree.math.core.implements\pmc_subtruct.c

; 193  :         xp += 2;

	add	r10, 16

; 194  :         yp += 2;

	add	r11, 16

; 195  :         zp += 2;

	add	r9, 16
$LN7@Subtruct_X:

; 196  :     }
; 197  :     // この時点で未処理の桁は 2 ワード未満のはず
; 198  : 
; 199  :     // 未処理の桁が 1 ワード以上あるなら 1 ワード減算を行う。
; 200  :     if (y_count & 1)

	test	dil, 1
	je	SHORT $LN8@Subtruct_X

; 201  :         c = _SUBTRUCT_UNIT(c, *xp++, *yp++, zp++);

	mov	rax, QWORD PTR [r10]
; File z:\sources\lunor\repos\rougemeilland\palmtree.math.core.implements\palmtree.math.core.implements\pmc_internal.h

; 484  :     return (_subborrow_u64(borrow, u, v, w));

	add	cl, -1
	sbb	rax, QWORD PTR [r11]
	mov	QWORD PTR [r9], rax
	setb	cl
; File z:\sources\lunor\repos\rougemeilland\palmtree.math.core.implements\palmtree.math.core.implements\pmc_subtruct.c

; 201  :         c = _SUBTRUCT_UNIT(c, *xp++, *yp++, zp++);

	add	r10, 8
	add	r9, 8
$LN8@Subtruct_X:

; 202  : 
; 203  :     // 残りの桁の繰り上がりを計算し、復帰する。
; 204  :     return (DoBorrow(c, xp, x_count - y_count, zp, z_count - y_count));

	sub	rbx, rdi

; 43   :         if (x_count <= 0)

	je	SHORT $LN129@Subtruct_X
	npad	5
$LL113@Subtruct_X:

; 48   :             {
; 49   :                 // かつそれでも桁借りを行う必要がある場合
; 50   : 
; 51   :                 // 減算結果が負になってしまったので呼び出し元に通知する。
; 52   :                 return (PMC_STATUS_INTERNAL_BORROW);
; 53   :             }
; 54   : 
; 55   :             // xの最上位に達してしまった場合はいずれにしろループを中断して正常復帰する。
; 56   : 
; 57   :             return (PMC_STATUS_OK);
; 58   :         }
; 59   :         else if (c)

	test	cl, cl
	je	SHORT $LN128@Subtruct_X

; 64   :             c = _SUBTRUCT_UNIT(c, *xp++, 0, op++);

	mov	rax, QWORD PTR [r10]
; File z:\sources\lunor\repos\rougemeilland\palmtree.math.core.implements\palmtree.math.core.implements\pmc_internal.h

; 484  :     return (_subborrow_u64(borrow, u, v, w));

	add	cl, -1
	sbb	rax, 0
	mov	QWORD PTR [r9], rax
	setb	cl
; File z:\sources\lunor\repos\rougemeilland\palmtree.math.core.implements\palmtree.math.core.implements\pmc_subtruct.c

; 64   :             c = _SUBTRUCT_UNIT(c, *xp++, 0, op++);

	add	r10, 8
	add	r9, 8

; 65   :             --x_count;

	sub	rbx, 1
	jne	SHORT $LL113@Subtruct_X
$LN129@Subtruct_X:

; 44   :         {
; 45   :             // x の最上位まで達してしまった場合
; 46   : 
; 47   :             if (c)

	neg	cl
	sbb	eax, eax
	and	eax, -258				; fffffffffffffefeH

; 205  : }

	mov	rbx, QWORD PTR [rsp+48]
	add	rsp, 32					; 00000020H
	pop	rdi
	ret	0
$LN128@Subtruct_X:

; 73   :             while (x_count > 0)

	test	rbx, rbx
	je	SHORT $LN117@Subtruct_X
	sub	r10, r9
	npad	2
$LL116@Subtruct_X:

; 74   :             {
; 75   :                 *op++ = *xp++;

	mov	rax, QWORD PTR [r10+r9]
	mov	QWORD PTR [r9], rax
	lea	r9, QWORD PTR [r9+8]

; 76   :                 --x_count;

	sub	rbx, 1
	jne	SHORT $LL116@Subtruct_X
$LN117@Subtruct_X:

; 205  : }

	mov	rbx, QWORD PTR [rsp+48]
	xor	eax, eax
	add	rsp, 32					; 00000020H
	pop	rdi
	ret	0
Subtruct_X_X ENDP
_TEXT	ENDS
; Function compile flags: /Ogtpy
; File z:\sources\lunor\repos\rougemeilland\palmtree.math.core.implements\palmtree.math.core.implements\pmc_subtruct.c
; File z:\sources\lunor\repos\rougemeilland\palmtree.math.core.implements\palmtree.math.core.implements\pmc_internal.h
; File z:\sources\lunor\repos\rougemeilland\palmtree.math.core.implements\palmtree.math.core.implements\pmc_subtruct.c
; File z:\sources\lunor\repos\rougemeilland\palmtree.math.core.implements\palmtree.math.core.implements\pmc_internal.h
; File z:\sources\lunor\repos\rougemeilland\palmtree.math.core.implements\palmtree.math.core.implements\pmc_subtruct.c
; File z:\sources\lunor\repos\rougemeilland\palmtree.math.core.implements\palmtree.math.core.implements\pmc_internal.h
; File z:\sources\lunor\repos\rougemeilland\palmtree.math.core.implements\palmtree.math.core.implements\pmc_subtruct.c
; File z:\sources\lunor\repos\rougemeilland\palmtree.math.core.implements\palmtree.math.core.implements\pmc_internal.h
; File z:\sources\lunor\repos\rougemeilland\palmtree.math.core.implements\palmtree.math.core.implements\pmc_subtruct.c
;	COMDAT Subtruct_X_2W
_TEXT	SEGMENT
x$ = 8
y_hi$ = 16
y_lo$ = 24
z$ = 32
Subtruct_X_2W PROC					; COMDAT

; 105  : {

	mov	QWORD PTR [rsp+8], rbx

; 106  :     __UNIT_TYPE x_count = x->UNIT_WORD_COUNT;
; 107  :     __UNIT_TYPE z_count = z->BLOCK_COUNT;
; 108  :     __UNIT_TYPE* xp = &x->BLOCK[0];

	mov	r10, QWORD PTR [rcx+48]
	mov	rbx, rdx
	mov	rdx, QWORD PTR [rcx]

; 109  :     __UNIT_TYPE* zp = &z->BLOCK[0];

	mov	r11, QWORD PTR [r9+48]

; 110  :     char c;
; 111  : 
; 112  :     if (x_count < 2)

	cmp	rdx, 2
	jae	SHORT $LN2@Subtruct_X

; 113  :     {
; 114  :         // x が 1 ワードしかなかった場合
; 115  : 
; 116  :         // 明らかに演算結果が負になるのでエラーを通知する。
; 117  :         return (PMC_STATUS_INTERNAL_BORROW);

	mov	eax, -258				; fffffffffffffefeH

; 129  :         z_count -= 2;
; 130  : 
; 131  :         // 残りの桁の繰り上がりを計算し、復帰する。
; 132  :         return (DoBorrow(c, xp, x_count, zp, z_count));
; 133  :     }
; 134  : }

	mov	rbx, QWORD PTR [rsp+8]
	ret	0
$LN2@Subtruct_X:

; 118  :     }
; 119  :     else
; 120  :     {
; 121  :         // x が 2 ワード以上あった場合
; 122  : 
; 123  :         // 最下位のワードの減算をする
; 124  :         c = _SUBTRUCT_UNIT(0, *xp++, y_lo, zp++);

	mov	rax, QWORD PTR [r10]

; 127  :         c = _SUBTRUCT_UNIT(c, *xp++, y_hi, zp++);

	lea	r9, QWORD PTR [r10+16]
; File z:\sources\lunor\repos\rougemeilland\palmtree.math.core.implements\palmtree.math.core.implements\pmc_internal.h

; 484  :     return (_subborrow_u64(borrow, u, v, w));

	sub	rax, r8
	mov	QWORD PTR [r11], rax
; File z:\sources\lunor\repos\rougemeilland\palmtree.math.core.implements\palmtree.math.core.implements\pmc_subtruct.c

; 127  :         c = _SUBTRUCT_UNIT(c, *xp++, y_hi, zp++);

	mov	rax, QWORD PTR [r10+8]
; File z:\sources\lunor\repos\rougemeilland\palmtree.math.core.implements\palmtree.math.core.implements\pmc_internal.h

; 484  :     return (_subborrow_u64(borrow, u, v, w));

	setb	cl
	add	cl, -1
	sbb	rax, rbx
	mov	QWORD PTR [r11+8], rax
; File z:\sources\lunor\repos\rougemeilland\palmtree.math.core.implements\palmtree.math.core.implements\pmc_subtruct.c

; 127  :         c = _SUBTRUCT_UNIT(c, *xp++, y_hi, zp++);

	lea	rax, QWORD PTR [r11+16]
; File z:\sources\lunor\repos\rougemeilland\palmtree.math.core.implements\palmtree.math.core.implements\pmc_internal.h

; 484  :     return (_subborrow_u64(borrow, u, v, w));

	setb	r8b
; File z:\sources\lunor\repos\rougemeilland\palmtree.math.core.implements\palmtree.math.core.implements\pmc_subtruct.c

; 128  :         x_count -= 2;

	add	rdx, -2

; 43   :         if (x_count <= 0)

	je	SHORT $LN25@Subtruct_X
$LL10@Subtruct_X:

; 48   :             {
; 49   :                 // かつそれでも桁借りを行う必要がある場合
; 50   : 
; 51   :                 // 減算結果が負になってしまったので呼び出し元に通知する。
; 52   :                 return (PMC_STATUS_INTERNAL_BORROW);
; 53   :             }
; 54   : 
; 55   :             // xの最上位に達してしまった場合はいずれにしろループを中断して正常復帰する。
; 56   : 
; 57   :             return (PMC_STATUS_OK);
; 58   :         }
; 59   :         else if (c)

	test	r8b, r8b
	je	SHORT $LN24@Subtruct_X

; 64   :             c = _SUBTRUCT_UNIT(c, *xp++, 0, op++);

	mov	rcx, QWORD PTR [r9]
; File z:\sources\lunor\repos\rougemeilland\palmtree.math.core.implements\palmtree.math.core.implements\pmc_internal.h

; 484  :     return (_subborrow_u64(borrow, u, v, w));

	add	r8b, -1
	sbb	rcx, 0
	mov	QWORD PTR [rax], rcx
	setb	r8b
; File z:\sources\lunor\repos\rougemeilland\palmtree.math.core.implements\palmtree.math.core.implements\pmc_subtruct.c

; 64   :             c = _SUBTRUCT_UNIT(c, *xp++, 0, op++);

	add	r9, 8
	add	rax, 8

; 65   :             --x_count;

	sub	rdx, 1
	jne	SHORT $LL10@Subtruct_X
$LN25@Subtruct_X:

; 44   :         {
; 45   :             // x の最上位まで達してしまった場合
; 46   : 
; 47   :             if (c)

	neg	r8b
	sbb	eax, eax
	and	eax, -258				; fffffffffffffefeH

; 129  :         z_count -= 2;
; 130  : 
; 131  :         // 残りの桁の繰り上がりを計算し、復帰する。
; 132  :         return (DoBorrow(c, xp, x_count, zp, z_count));
; 133  :     }
; 134  : }

	mov	rbx, QWORD PTR [rsp+8]
	ret	0
$LN24@Subtruct_X:

; 73   :             while (x_count > 0)

	test	rdx, rdx
	je	SHORT $LN14@Subtruct_X
	sub	r9, rax
	npad	3
$LL13@Subtruct_X:

; 74   :             {
; 75   :                 *op++ = *xp++;

	mov	rcx, QWORD PTR [r9+rax]
	mov	QWORD PTR [rax], rcx
	lea	rax, QWORD PTR [rax+8]

; 76   :                 --x_count;

	sub	rdx, 1
	jne	SHORT $LL13@Subtruct_X
$LN14@Subtruct_X:

; 129  :         z_count -= 2;
; 130  : 
; 131  :         // 残りの桁の繰り上がりを計算し、復帰する。
; 132  :         return (DoBorrow(c, xp, x_count, zp, z_count));
; 133  :     }
; 134  : }

	mov	rbx, QWORD PTR [rsp+8]

; 79   :             return (PMC_STATUS_OK);

	xor	eax, eax

; 129  :         z_count -= 2;
; 130  : 
; 131  :         // 残りの桁の繰り上がりを計算し、復帰する。
; 132  :         return (DoBorrow(c, xp, x_count, zp, z_count));
; 133  :     }
; 134  : }

	ret	0
Subtruct_X_2W ENDP
_TEXT	ENDS
; Function compile flags: /Ogtpy
; File z:\sources\lunor\repos\rougemeilland\palmtree.math.core.implements\palmtree.math.core.implements\pmc_subtruct.c
; File z:\sources\lunor\repos\rougemeilland\palmtree.math.core.implements\palmtree.math.core.implements\pmc_internal.h
; File z:\sources\lunor\repos\rougemeilland\palmtree.math.core.implements\palmtree.math.core.implements\pmc_subtruct.c
; File z:\sources\lunor\repos\rougemeilland\palmtree.math.core.implements\palmtree.math.core.implements\pmc_internal.h
; File z:\sources\lunor\repos\rougemeilland\palmtree.math.core.implements\palmtree.math.core.implements\pmc_subtruct.c
; File z:\sources\lunor\repos\rougemeilland\palmtree.math.core.implements\palmtree.math.core.implements\pmc_internal.h
; File z:\sources\lunor\repos\rougemeilland\palmtree.math.core.implements\palmtree.math.core.implements\pmc_subtruct.c
;	COMDAT Subtruct_X_1W
_TEXT	SEGMENT
x$ = 8
y$ = 16
z$ = 24
Subtruct_X_1W PROC					; COMDAT

; 86   :     __UNIT_TYPE x_count = x->UNIT_WORD_COUNT;
; 87   :     __UNIT_TYPE z_count = z->BLOCK_COUNT;
; 88   :     __UNIT_TYPE* xp = &x->BLOCK[0];

	mov	r10, QWORD PTR [rcx+48]
	mov	r9, QWORD PTR [rcx]

; 89   :     __UNIT_TYPE* zp = &z->BLOCK[0];

	mov	rcx, QWORD PTR [r8+48]

; 95   :     c = _SUBTRUCT_UNIT(0, *xp++, y, zp++);

	mov	rax, QWORD PTR [r10]
; File z:\sources\lunor\repos\rougemeilland\palmtree.math.core.implements\palmtree.math.core.implements\pmc_internal.h

; 484  :     return (_subborrow_u64(borrow, u, v, w));

	sub	rax, rdx
	mov	QWORD PTR [rcx], rax
; File z:\sources\lunor\repos\rougemeilland\palmtree.math.core.implements\palmtree.math.core.implements\pmc_subtruct.c

; 95   :     c = _SUBTRUCT_UNIT(0, *xp++, y, zp++);

	lea	rax, QWORD PTR [rcx+8]
; File z:\sources\lunor\repos\rougemeilland\palmtree.math.core.implements\palmtree.math.core.implements\pmc_internal.h

; 484  :     return (_subborrow_u64(borrow, u, v, w));

	setb	dl
; File z:\sources\lunor\repos\rougemeilland\palmtree.math.core.implements\palmtree.math.core.implements\pmc_subtruct.c

; 95   :     c = _SUBTRUCT_UNIT(0, *xp++, y, zp++);

	add	r10, 8

; 96   :     --x_count;

	sub	r9, 1

; 43   :         if (x_count <= 0)

	je	SHORT $LN21@Subtruct_X
$LL6@Subtruct_X:

; 48   :             {
; 49   :                 // かつそれでも桁借りを行う必要がある場合
; 50   : 
; 51   :                 // 減算結果が負になってしまったので呼び出し元に通知する。
; 52   :                 return (PMC_STATUS_INTERNAL_BORROW);
; 53   :             }
; 54   : 
; 55   :             // xの最上位に達してしまった場合はいずれにしろループを中断して正常復帰する。
; 56   : 
; 57   :             return (PMC_STATUS_OK);
; 58   :         }
; 59   :         else if (c)

	test	dl, dl
	je	SHORT $LN20@Subtruct_X

; 64   :             c = _SUBTRUCT_UNIT(c, *xp++, 0, op++);

	mov	rcx, QWORD PTR [r10]
; File z:\sources\lunor\repos\rougemeilland\palmtree.math.core.implements\palmtree.math.core.implements\pmc_internal.h

; 484  :     return (_subborrow_u64(borrow, u, v, w));

	add	dl, -1
	sbb	rcx, 0
	mov	QWORD PTR [rax], rcx
	setb	dl
; File z:\sources\lunor\repos\rougemeilland\palmtree.math.core.implements\palmtree.math.core.implements\pmc_subtruct.c

; 64   :             c = _SUBTRUCT_UNIT(c, *xp++, 0, op++);

	add	r10, 8
	add	rax, 8

; 65   :             --x_count;

	sub	r9, 1
	jne	SHORT $LL6@Subtruct_X
$LN21@Subtruct_X:

; 44   :         {
; 45   :             // x の最上位まで達してしまった場合
; 46   : 
; 47   :             if (c)

	neg	dl
	sbb	eax, eax
	and	eax, -258				; fffffffffffffefeH

; 101  : }

	ret	0
$LN20@Subtruct_X:

; 73   :             while (x_count > 0)

	test	r9, r9
	je	SHORT $LN10@Subtruct_X
	sub	r10, rax
	npad	7
$LL9@Subtruct_X:

; 74   :             {
; 75   :                 *op++ = *xp++;

	mov	rcx, QWORD PTR [r10+rax]
	mov	QWORD PTR [rax], rcx
	lea	rax, QWORD PTR [rax+8]

; 76   :                 --x_count;

	sub	r9, 1
	jne	SHORT $LL9@Subtruct_X
$LN10@Subtruct_X:

; 97   :     --z_count;
; 98   : 
; 99   :     // 残りの桁の繰上りを行い復帰する。
; 100  :     return (DoBorrow(c, xp, x_count, zp, z_count));

	xor	eax, eax

; 101  : }

	ret	0
Subtruct_X_1W ENDP
_TEXT	ENDS
; Function compile flags: /Ogtpy
; File z:\sources\lunor\repos\rougemeilland\palmtree.math.core.implements\palmtree.math.core.implements\pmc_subtruct.c
; File z:\sources\lunor\repos\rougemeilland\palmtree.math.core.implements\palmtree.math.core.implements\pmc_internal.h
; File z:\sources\lunor\repos\rougemeilland\palmtree.math.core.implements\palmtree.math.core.implements\pmc_subtruct.c
;	COMDAT DoBorrow
_TEXT	SEGMENT
c$ = 8
xp$ = 16
x_count$ = 24
op$ = 32
o_count$ = 40
DoBorrow PROC						; COMDAT

; 40   :     // 桁借りを続く限り行う
; 41   :     for (;;)
; 42   :     {
; 43   :         if (x_count <= 0)

	test	r8, r8
	je	SHORT $LN17@DoBorrow
$LL2@DoBorrow:

; 53   :             }
; 54   : 
; 55   :             // xの最上位に達してしまった場合はいずれにしろループを中断して正常復帰する。
; 56   : 
; 57   :             return (PMC_STATUS_OK);
; 58   :         }
; 59   :         else if (c)

	test	cl, cl
	je	SHORT $LN16@DoBorrow

; 64   :             c = _SUBTRUCT_UNIT(c, *xp++, 0, op++);

	mov	rax, QWORD PTR [rdx]
; File z:\sources\lunor\repos\rougemeilland\palmtree.math.core.implements\palmtree.math.core.implements\pmc_internal.h

; 484  :     return (_subborrow_u64(borrow, u, v, w));

	add	cl, -1
	sbb	rax, 0
	mov	QWORD PTR [r9], rax
	setb	cl
; File z:\sources\lunor\repos\rougemeilland\palmtree.math.core.implements\palmtree.math.core.implements\pmc_subtruct.c

; 64   :             c = _SUBTRUCT_UNIT(c, *xp++, 0, op++);

	add	rdx, 8
	add	r9, 8

; 65   :             --x_count;

	sub	r8, 1
	jne	SHORT $LL2@DoBorrow
$LN17@DoBorrow:

; 44   :         {
; 45   :             // x の最上位まで達してしまった場合
; 46   : 
; 47   :             if (c)

	test	cl, cl
	je	SHORT $LN6@DoBorrow

; 48   :             {
; 49   :                 // かつそれでも桁借りを行う必要がある場合
; 50   : 
; 51   :                 // 減算結果が負になってしまったので呼び出し元に通知する。
; 52   :                 return (PMC_STATUS_INTERNAL_BORROW);

	mov	eax, -258				; fffffffffffffefeH

; 80   :         }
; 81   :     }
; 82   : }

	ret	0
$LN16@DoBorrow:

; 66   :             --o_count;
; 67   :         }
; 68   :         else
; 69   :         {
; 70   :             // xの最上位に達しておらず、かつボローが立っていない場合
; 71   : 
; 72   :             // 桁借りを中断し、xの残りのデータをzにそのまま複写し、正常復帰する。
; 73   :             while (x_count > 0)

	test	r8, r8
	je	SHORT $LN6@DoBorrow
	sub	rdx, r9
	npad	7
$LL5@DoBorrow:

; 74   :             {
; 75   :                 *op++ = *xp++;

	mov	rax, QWORD PTR [rdx+r9]
	mov	QWORD PTR [r9], rax
	lea	r9, QWORD PTR [r9+8]

; 76   :                 --x_count;

	sub	r8, 1
	jne	SHORT $LL5@DoBorrow
$LN6@DoBorrow:

; 77   :                 --o_count;
; 78   :             }
; 79   :             return (PMC_STATUS_OK);

	xor	eax, eax

; 80   :         }
; 81   :     }
; 82   : }

	ret	0
DoBorrow ENDP
_TEXT	ENDS
; Function compile flags: /Ogtpy
; File z:\sources\lunor\repos\rougemeilland\palmtree.math.core.implements\palmtree.math.core.implements\autogenerated_inline_func.h
; File z:\sources\lunor\repos\rougemeilland\palmtree.math.core.implements\palmtree.math.core.implements\pmc_internal.h
; File z:\sources\lunor\repos\rougemeilland\palmtree.math.core.implements\palmtree.math.core.implements\autogenerated_inline_func.h
; File z:\sources\lunor\repos\rougemeilland\palmtree.math.core.implements\palmtree.math.core.implements\pmc_internal.h
; File z:\sources\lunor\repos\rougemeilland\palmtree.math.core.implements\palmtree.math.core.implements\autogenerated_inline_func.h
;	COMDAT _SUBTRUCT_2WORDS_SBB
_TEXT	SEGMENT
c$ = 8
xp$ = 16
yp$ = 24
zp$ = 32
_SUBTRUCT_2WORDS_SBB PROC				; COMDAT

; 4463 : #ifdef _MSC_VER
; 4464 :     c = _SUBTRUCT_UNIT(c, xp[0], yp[0], &zp[0]);

	mov	rax, QWORD PTR [rdx]
; File z:\sources\lunor\repos\rougemeilland\palmtree.math.core.implements\palmtree.math.core.implements\pmc_internal.h

; 484  :     return (_subborrow_u64(borrow, u, v, w));

	add	cl, -1
	sbb	rax, QWORD PTR [r8]
	mov	QWORD PTR [r9], rax
; File z:\sources\lunor\repos\rougemeilland\palmtree.math.core.implements\palmtree.math.core.implements\autogenerated_inline_func.h

; 4465 :     c = _SUBTRUCT_UNIT(c, xp[1], yp[1], &zp[1]);

	mov	rcx, QWORD PTR [rdx+8]
; File z:\sources\lunor\repos\rougemeilland\palmtree.math.core.implements\palmtree.math.core.implements\pmc_internal.h

; 484  :     return (_subborrow_u64(borrow, u, v, w));

	sbb	rcx, QWORD PTR [r8+8]
	mov	QWORD PTR [r9+8], rcx
	setb	al
; File z:\sources\lunor\repos\rougemeilland\palmtree.math.core.implements\palmtree.math.core.implements\autogenerated_inline_func.h

; 4502 : }

	ret	0
_SUBTRUCT_2WORDS_SBB ENDP
_TEXT	ENDS
; Function compile flags: /Ogtpy
; File z:\sources\lunor\repos\rougemeilland\palmtree.math.core.implements\palmtree.math.core.implements\autogenerated_inline_func.h
; File z:\sources\lunor\repos\rougemeilland\palmtree.math.core.implements\palmtree.math.core.implements\pmc_internal.h
; File z:\sources\lunor\repos\rougemeilland\palmtree.math.core.implements\palmtree.math.core.implements\autogenerated_inline_func.h
; File z:\sources\lunor\repos\rougemeilland\palmtree.math.core.implements\palmtree.math.core.implements\pmc_internal.h
; File z:\sources\lunor\repos\rougemeilland\palmtree.math.core.implements\palmtree.math.core.implements\autogenerated_inline_func.h
; File z:\sources\lunor\repos\rougemeilland\palmtree.math.core.implements\palmtree.math.core.implements\pmc_internal.h
; File z:\sources\lunor\repos\rougemeilland\palmtree.math.core.implements\palmtree.math.core.implements\autogenerated_inline_func.h
; File z:\sources\lunor\repos\rougemeilland\palmtree.math.core.implements\palmtree.math.core.implements\pmc_internal.h
; File z:\sources\lunor\repos\rougemeilland\palmtree.math.core.implements\palmtree.math.core.implements\autogenerated_inline_func.h
;	COMDAT _SUBTRUCT_4WORDS_SBB
_TEXT	SEGMENT
c$ = 8
xp$ = 16
yp$ = 24
zp$ = 32
_SUBTRUCT_4WORDS_SBB PROC				; COMDAT

; 4049 : #ifdef _MSC_VER
; 4050 :     c = _SUBTRUCT_UNIT(c, xp[0], yp[0], &zp[0]);

	mov	rax, QWORD PTR [rdx]
; File z:\sources\lunor\repos\rougemeilland\palmtree.math.core.implements\palmtree.math.core.implements\pmc_internal.h

; 484  :     return (_subborrow_u64(borrow, u, v, w));

	add	cl, -1
	sbb	rax, QWORD PTR [r8]
	mov	QWORD PTR [r9], rax
; File z:\sources\lunor\repos\rougemeilland\palmtree.math.core.implements\palmtree.math.core.implements\autogenerated_inline_func.h

; 4051 :     c = _SUBTRUCT_UNIT(c, xp[1], yp[1], &zp[1]);

	mov	rax, QWORD PTR [rdx+8]
; File z:\sources\lunor\repos\rougemeilland\palmtree.math.core.implements\palmtree.math.core.implements\pmc_internal.h

; 484  :     return (_subborrow_u64(borrow, u, v, w));

	sbb	rax, QWORD PTR [r8+8]
	mov	QWORD PTR [r9+8], rax
; File z:\sources\lunor\repos\rougemeilland\palmtree.math.core.implements\palmtree.math.core.implements\autogenerated_inline_func.h

; 4052 :     c = _SUBTRUCT_UNIT(c, xp[2], yp[2], &zp[2]);

	mov	rax, QWORD PTR [rdx+16]
; File z:\sources\lunor\repos\rougemeilland\palmtree.math.core.implements\palmtree.math.core.implements\pmc_internal.h

; 484  :     return (_subborrow_u64(borrow, u, v, w));

	sbb	rax, QWORD PTR [r8+16]
	mov	QWORD PTR [r9+16], rax
; File z:\sources\lunor\repos\rougemeilland\palmtree.math.core.implements\palmtree.math.core.implements\autogenerated_inline_func.h

; 4053 :     c = _SUBTRUCT_UNIT(c, xp[3], yp[3], &zp[3]);

	mov	rcx, QWORD PTR [rdx+24]
; File z:\sources\lunor\repos\rougemeilland\palmtree.math.core.implements\palmtree.math.core.implements\pmc_internal.h

; 484  :     return (_subborrow_u64(borrow, u, v, w));

	sbb	rcx, QWORD PTR [r8+24]
	mov	QWORD PTR [r9+24], rcx
	setb	al
; File z:\sources\lunor\repos\rougemeilland\palmtree.math.core.implements\palmtree.math.core.implements\autogenerated_inline_func.h

; 4102 : }

	ret	0
_SUBTRUCT_4WORDS_SBB ENDP
_TEXT	ENDS
; Function compile flags: /Ogtpy
; File z:\sources\lunor\repos\rougemeilland\palmtree.math.core.implements\palmtree.math.core.implements\autogenerated_inline_func.h
; File z:\sources\lunor\repos\rougemeilland\palmtree.math.core.implements\palmtree.math.core.implements\pmc_internal.h
; File z:\sources\lunor\repos\rougemeilland\palmtree.math.core.implements\palmtree.math.core.implements\autogenerated_inline_func.h
; File z:\sources\lunor\repos\rougemeilland\palmtree.math.core.implements\palmtree.math.core.implements\pmc_internal.h
; File z:\sources\lunor\repos\rougemeilland\palmtree.math.core.implements\palmtree.math.core.implements\autogenerated_inline_func.h
; File z:\sources\lunor\repos\rougemeilland\palmtree.math.core.implements\palmtree.math.core.implements\pmc_internal.h
; File z:\sources\lunor\repos\rougemeilland\palmtree.math.core.implements\palmtree.math.core.implements\autogenerated_inline_func.h
; File z:\sources\lunor\repos\rougemeilland\palmtree.math.core.implements\palmtree.math.core.implements\pmc_internal.h
; File z:\sources\lunor\repos\rougemeilland\palmtree.math.core.implements\palmtree.math.core.implements\autogenerated_inline_func.h
; File z:\sources\lunor\repos\rougemeilland\palmtree.math.core.implements\palmtree.math.core.implements\pmc_internal.h
; File z:\sources\lunor\repos\rougemeilland\palmtree.math.core.implements\palmtree.math.core.implements\autogenerated_inline_func.h
; File z:\sources\lunor\repos\rougemeilland\palmtree.math.core.implements\palmtree.math.core.implements\pmc_internal.h
; File z:\sources\lunor\repos\rougemeilland\palmtree.math.core.implements\palmtree.math.core.implements\autogenerated_inline_func.h
; File z:\sources\lunor\repos\rougemeilland\palmtree.math.core.implements\palmtree.math.core.implements\pmc_internal.h
; File z:\sources\lunor\repos\rougemeilland\palmtree.math.core.implements\palmtree.math.core.implements\autogenerated_inline_func.h
; File z:\sources\lunor\repos\rougemeilland\palmtree.math.core.implements\palmtree.math.core.implements\pmc_internal.h
; File z:\sources\lunor\repos\rougemeilland\palmtree.math.core.implements\palmtree.math.core.implements\autogenerated_inline_func.h
;	COMDAT _SUBTRUCT_8WORDS_SBB
_TEXT	SEGMENT
c$ = 8
xp$ = 16
yp$ = 24
zp$ = 32
_SUBTRUCT_8WORDS_SBB PROC				; COMDAT

; 3453 : #ifdef _MSC_VER
; 3454 :     c = _SUBTRUCT_UNIT(c, xp[0], yp[0], &zp[0]);

	mov	rax, QWORD PTR [rdx]
; File z:\sources\lunor\repos\rougemeilland\palmtree.math.core.implements\palmtree.math.core.implements\pmc_internal.h

; 484  :     return (_subborrow_u64(borrow, u, v, w));

	add	cl, -1
	sbb	rax, QWORD PTR [r8]
	mov	QWORD PTR [r9], rax
; File z:\sources\lunor\repos\rougemeilland\palmtree.math.core.implements\palmtree.math.core.implements\autogenerated_inline_func.h

; 3455 :     c = _SUBTRUCT_UNIT(c, xp[1], yp[1], &zp[1]);

	mov	rax, QWORD PTR [rdx+8]
; File z:\sources\lunor\repos\rougemeilland\palmtree.math.core.implements\palmtree.math.core.implements\pmc_internal.h

; 484  :     return (_subborrow_u64(borrow, u, v, w));

	sbb	rax, QWORD PTR [r8+8]
	mov	QWORD PTR [r9+8], rax
; File z:\sources\lunor\repos\rougemeilland\palmtree.math.core.implements\palmtree.math.core.implements\autogenerated_inline_func.h

; 3456 :     c = _SUBTRUCT_UNIT(c, xp[2], yp[2], &zp[2]);

	mov	rax, QWORD PTR [rdx+16]
; File z:\sources\lunor\repos\rougemeilland\palmtree.math.core.implements\palmtree.math.core.implements\pmc_internal.h

; 484  :     return (_subborrow_u64(borrow, u, v, w));

	sbb	rax, QWORD PTR [r8+16]
	mov	QWORD PTR [r9+16], rax
; File z:\sources\lunor\repos\rougemeilland\palmtree.math.core.implements\palmtree.math.core.implements\autogenerated_inline_func.h

; 3457 :     c = _SUBTRUCT_UNIT(c, xp[3], yp[3], &zp[3]);

	mov	rax, QWORD PTR [rdx+24]
; File z:\sources\lunor\repos\rougemeilland\palmtree.math.core.implements\palmtree.math.core.implements\pmc_internal.h

; 484  :     return (_subborrow_u64(borrow, u, v, w));

	sbb	rax, QWORD PTR [r8+24]
	mov	QWORD PTR [r9+24], rax
; File z:\sources\lunor\repos\rougemeilland\palmtree.math.core.implements\palmtree.math.core.implements\autogenerated_inline_func.h

; 3458 :     c = _SUBTRUCT_UNIT(c, xp[4], yp[4], &zp[4]);

	mov	rax, QWORD PTR [rdx+32]
; File z:\sources\lunor\repos\rougemeilland\palmtree.math.core.implements\palmtree.math.core.implements\pmc_internal.h

; 484  :     return (_subborrow_u64(borrow, u, v, w));

	sbb	rax, QWORD PTR [r8+32]
	mov	QWORD PTR [r9+32], rax
; File z:\sources\lunor\repos\rougemeilland\palmtree.math.core.implements\palmtree.math.core.implements\autogenerated_inline_func.h

; 3459 :     c = _SUBTRUCT_UNIT(c, xp[5], yp[5], &zp[5]);

	mov	rax, QWORD PTR [rdx+40]
; File z:\sources\lunor\repos\rougemeilland\palmtree.math.core.implements\palmtree.math.core.implements\pmc_internal.h

; 484  :     return (_subborrow_u64(borrow, u, v, w));

	sbb	rax, QWORD PTR [r8+40]
	mov	QWORD PTR [r9+40], rax
; File z:\sources\lunor\repos\rougemeilland\palmtree.math.core.implements\palmtree.math.core.implements\autogenerated_inline_func.h

; 3460 :     c = _SUBTRUCT_UNIT(c, xp[6], yp[6], &zp[6]);

	mov	rax, QWORD PTR [rdx+48]
; File z:\sources\lunor\repos\rougemeilland\palmtree.math.core.implements\palmtree.math.core.implements\pmc_internal.h

; 484  :     return (_subborrow_u64(borrow, u, v, w));

	sbb	rax, QWORD PTR [r8+48]
	mov	QWORD PTR [r9+48], rax
; File z:\sources\lunor\repos\rougemeilland\palmtree.math.core.implements\palmtree.math.core.implements\autogenerated_inline_func.h

; 3461 :     c = _SUBTRUCT_UNIT(c, xp[7], yp[7], &zp[7]);

	mov	rcx, QWORD PTR [rdx+56]
; File z:\sources\lunor\repos\rougemeilland\palmtree.math.core.implements\palmtree.math.core.implements\pmc_internal.h

; 484  :     return (_subborrow_u64(borrow, u, v, w));

	sbb	rcx, QWORD PTR [r8+56]
	mov	QWORD PTR [r9+56], rcx
	setb	al
; File z:\sources\lunor\repos\rougemeilland\palmtree.math.core.implements\palmtree.math.core.implements\autogenerated_inline_func.h

; 3534 : }

	ret	0
_SUBTRUCT_8WORDS_SBB ENDP
_TEXT	ENDS
; Function compile flags: /Ogtpy
; File z:\sources\lunor\repos\rougemeilland\palmtree.math.core.implements\palmtree.math.core.implements\autogenerated_inline_func.h
; File z:\sources\lunor\repos\rougemeilland\palmtree.math.core.implements\palmtree.math.core.implements\pmc_internal.h
; File z:\sources\lunor\repos\rougemeilland\palmtree.math.core.implements\palmtree.math.core.implements\autogenerated_inline_func.h
; File z:\sources\lunor\repos\rougemeilland\palmtree.math.core.implements\palmtree.math.core.implements\pmc_internal.h
; File z:\sources\lunor\repos\rougemeilland\palmtree.math.core.implements\palmtree.math.core.implements\autogenerated_inline_func.h
; File z:\sources\lunor\repos\rougemeilland\palmtree.math.core.implements\palmtree.math.core.implements\pmc_internal.h
; File z:\sources\lunor\repos\rougemeilland\palmtree.math.core.implements\palmtree.math.core.implements\autogenerated_inline_func.h
; File z:\sources\lunor\repos\rougemeilland\palmtree.math.core.implements\palmtree.math.core.implements\pmc_internal.h
; File z:\sources\lunor\repos\rougemeilland\palmtree.math.core.implements\palmtree.math.core.implements\autogenerated_inline_func.h
; File z:\sources\lunor\repos\rougemeilland\palmtree.math.core.implements\palmtree.math.core.implements\pmc_internal.h
; File z:\sources\lunor\repos\rougemeilland\palmtree.math.core.implements\palmtree.math.core.implements\autogenerated_inline_func.h
; File z:\sources\lunor\repos\rougemeilland\palmtree.math.core.implements\palmtree.math.core.implements\pmc_internal.h
; File z:\sources\lunor\repos\rougemeilland\palmtree.math.core.implements\palmtree.math.core.implements\autogenerated_inline_func.h
; File z:\sources\lunor\repos\rougemeilland\palmtree.math.core.implements\palmtree.math.core.implements\pmc_internal.h
; File z:\sources\lunor\repos\rougemeilland\palmtree.math.core.implements\palmtree.math.core.implements\autogenerated_inline_func.h
; File z:\sources\lunor\repos\rougemeilland\palmtree.math.core.implements\palmtree.math.core.implements\pmc_internal.h
; File z:\sources\lunor\repos\rougemeilland\palmtree.math.core.implements\palmtree.math.core.implements\autogenerated_inline_func.h
; File z:\sources\lunor\repos\rougemeilland\palmtree.math.core.implements\palmtree.math.core.implements\pmc_internal.h
; File z:\sources\lunor\repos\rougemeilland\palmtree.math.core.implements\palmtree.math.core.implements\autogenerated_inline_func.h
; File z:\sources\lunor\repos\rougemeilland\palmtree.math.core.implements\palmtree.math.core.implements\pmc_internal.h
; File z:\sources\lunor\repos\rougemeilland\palmtree.math.core.implements\palmtree.math.core.implements\autogenerated_inline_func.h
; File z:\sources\lunor\repos\rougemeilland\palmtree.math.core.implements\palmtree.math.core.implements\pmc_internal.h
; File z:\sources\lunor\repos\rougemeilland\palmtree.math.core.implements\palmtree.math.core.implements\autogenerated_inline_func.h
; File z:\sources\lunor\repos\rougemeilland\palmtree.math.core.implements\palmtree.math.core.implements\pmc_internal.h
; File z:\sources\lunor\repos\rougemeilland\palmtree.math.core.implements\palmtree.math.core.implements\autogenerated_inline_func.h
; File z:\sources\lunor\repos\rougemeilland\palmtree.math.core.implements\palmtree.math.core.implements\pmc_internal.h
; File z:\sources\lunor\repos\rougemeilland\palmtree.math.core.implements\palmtree.math.core.implements\autogenerated_inline_func.h
; File z:\sources\lunor\repos\rougemeilland\palmtree.math.core.implements\palmtree.math.core.implements\pmc_internal.h
; File z:\sources\lunor\repos\rougemeilland\palmtree.math.core.implements\palmtree.math.core.implements\autogenerated_inline_func.h
; File z:\sources\lunor\repos\rougemeilland\palmtree.math.core.implements\palmtree.math.core.implements\pmc_internal.h
; File z:\sources\lunor\repos\rougemeilland\palmtree.math.core.implements\palmtree.math.core.implements\autogenerated_inline_func.h
; File z:\sources\lunor\repos\rougemeilland\palmtree.math.core.implements\palmtree.math.core.implements\pmc_internal.h
; File z:\sources\lunor\repos\rougemeilland\palmtree.math.core.implements\palmtree.math.core.implements\autogenerated_inline_func.h
;	COMDAT _SUBTRUCT_16WORDS_SBB
_TEXT	SEGMENT
c$ = 8
xp$ = 16
yp$ = 24
zp$ = 32
_SUBTRUCT_16WORDS_SBB PROC				; COMDAT

; 2493 : #ifdef _MSC_VER
; 2494 :     c = _SUBTRUCT_UNIT(c, xp[0], yp[0], &zp[0]);

	mov	rax, QWORD PTR [rdx]
; File z:\sources\lunor\repos\rougemeilland\palmtree.math.core.implements\palmtree.math.core.implements\pmc_internal.h

; 484  :     return (_subborrow_u64(borrow, u, v, w));

	add	cl, -1
	sbb	rax, QWORD PTR [r8]
	mov	QWORD PTR [r9], rax
; File z:\sources\lunor\repos\rougemeilland\palmtree.math.core.implements\palmtree.math.core.implements\autogenerated_inline_func.h

; 2495 :     c = _SUBTRUCT_UNIT(c, xp[1], yp[1], &zp[1]);

	mov	rax, QWORD PTR [rdx+8]
; File z:\sources\lunor\repos\rougemeilland\palmtree.math.core.implements\palmtree.math.core.implements\pmc_internal.h

; 484  :     return (_subborrow_u64(borrow, u, v, w));

	sbb	rax, QWORD PTR [r8+8]
	mov	QWORD PTR [r9+8], rax
; File z:\sources\lunor\repos\rougemeilland\palmtree.math.core.implements\palmtree.math.core.implements\autogenerated_inline_func.h

; 2496 :     c = _SUBTRUCT_UNIT(c, xp[2], yp[2], &zp[2]);

	mov	rax, QWORD PTR [rdx+16]
; File z:\sources\lunor\repos\rougemeilland\palmtree.math.core.implements\palmtree.math.core.implements\pmc_internal.h

; 484  :     return (_subborrow_u64(borrow, u, v, w));

	sbb	rax, QWORD PTR [r8+16]
	mov	QWORD PTR [r9+16], rax
; File z:\sources\lunor\repos\rougemeilland\palmtree.math.core.implements\palmtree.math.core.implements\autogenerated_inline_func.h

; 2497 :     c = _SUBTRUCT_UNIT(c, xp[3], yp[3], &zp[3]);

	mov	rax, QWORD PTR [rdx+24]
; File z:\sources\lunor\repos\rougemeilland\palmtree.math.core.implements\palmtree.math.core.implements\pmc_internal.h

; 484  :     return (_subborrow_u64(borrow, u, v, w));

	sbb	rax, QWORD PTR [r8+24]
	mov	QWORD PTR [r9+24], rax
; File z:\sources\lunor\repos\rougemeilland\palmtree.math.core.implements\palmtree.math.core.implements\autogenerated_inline_func.h

; 2498 :     c = _SUBTRUCT_UNIT(c, xp[4], yp[4], &zp[4]);

	mov	rax, QWORD PTR [rdx+32]
; File z:\sources\lunor\repos\rougemeilland\palmtree.math.core.implements\palmtree.math.core.implements\pmc_internal.h

; 484  :     return (_subborrow_u64(borrow, u, v, w));

	sbb	rax, QWORD PTR [r8+32]
	mov	QWORD PTR [r9+32], rax
; File z:\sources\lunor\repos\rougemeilland\palmtree.math.core.implements\palmtree.math.core.implements\autogenerated_inline_func.h

; 2499 :     c = _SUBTRUCT_UNIT(c, xp[5], yp[5], &zp[5]);

	mov	rax, QWORD PTR [rdx+40]
; File z:\sources\lunor\repos\rougemeilland\palmtree.math.core.implements\palmtree.math.core.implements\pmc_internal.h

; 484  :     return (_subborrow_u64(borrow, u, v, w));

	sbb	rax, QWORD PTR [r8+40]
	mov	QWORD PTR [r9+40], rax
; File z:\sources\lunor\repos\rougemeilland\palmtree.math.core.implements\palmtree.math.core.implements\autogenerated_inline_func.h

; 2500 :     c = _SUBTRUCT_UNIT(c, xp[6], yp[6], &zp[6]);

	mov	rax, QWORD PTR [rdx+48]
; File z:\sources\lunor\repos\rougemeilland\palmtree.math.core.implements\palmtree.math.core.implements\pmc_internal.h

; 484  :     return (_subborrow_u64(borrow, u, v, w));

	sbb	rax, QWORD PTR [r8+48]
	mov	QWORD PTR [r9+48], rax
; File z:\sources\lunor\repos\rougemeilland\palmtree.math.core.implements\palmtree.math.core.implements\autogenerated_inline_func.h

; 2501 :     c = _SUBTRUCT_UNIT(c, xp[7], yp[7], &zp[7]);

	mov	rax, QWORD PTR [rdx+56]
; File z:\sources\lunor\repos\rougemeilland\palmtree.math.core.implements\palmtree.math.core.implements\pmc_internal.h

; 484  :     return (_subborrow_u64(borrow, u, v, w));

	sbb	rax, QWORD PTR [r8+56]
	mov	QWORD PTR [r9+56], rax
; File z:\sources\lunor\repos\rougemeilland\palmtree.math.core.implements\palmtree.math.core.implements\autogenerated_inline_func.h

; 2502 :     c = _SUBTRUCT_UNIT(c, xp[8], yp[8], &zp[8]);

	mov	rax, QWORD PTR [rdx+64]
; File z:\sources\lunor\repos\rougemeilland\palmtree.math.core.implements\palmtree.math.core.implements\pmc_internal.h

; 484  :     return (_subborrow_u64(borrow, u, v, w));

	sbb	rax, QWORD PTR [r8+64]
	mov	QWORD PTR [r9+64], rax
; File z:\sources\lunor\repos\rougemeilland\palmtree.math.core.implements\palmtree.math.core.implements\autogenerated_inline_func.h

; 2503 :     c = _SUBTRUCT_UNIT(c, xp[9], yp[9], &zp[9]);

	mov	rax, QWORD PTR [rdx+72]
; File z:\sources\lunor\repos\rougemeilland\palmtree.math.core.implements\palmtree.math.core.implements\pmc_internal.h

; 484  :     return (_subborrow_u64(borrow, u, v, w));

	sbb	rax, QWORD PTR [r8+72]
	mov	QWORD PTR [r9+72], rax
; File z:\sources\lunor\repos\rougemeilland\palmtree.math.core.implements\palmtree.math.core.implements\autogenerated_inline_func.h

; 2504 :     c = _SUBTRUCT_UNIT(c, xp[10], yp[10], &zp[10]);

	mov	rax, QWORD PTR [rdx+80]
; File z:\sources\lunor\repos\rougemeilland\palmtree.math.core.implements\palmtree.math.core.implements\pmc_internal.h

; 484  :     return (_subborrow_u64(borrow, u, v, w));

	sbb	rax, QWORD PTR [r8+80]
	mov	QWORD PTR [r9+80], rax
; File z:\sources\lunor\repos\rougemeilland\palmtree.math.core.implements\palmtree.math.core.implements\autogenerated_inline_func.h

; 2505 :     c = _SUBTRUCT_UNIT(c, xp[11], yp[11], &zp[11]);

	mov	rax, QWORD PTR [rdx+88]
; File z:\sources\lunor\repos\rougemeilland\palmtree.math.core.implements\palmtree.math.core.implements\pmc_internal.h

; 484  :     return (_subborrow_u64(borrow, u, v, w));

	sbb	rax, QWORD PTR [r8+88]
	mov	QWORD PTR [r9+88], rax
; File z:\sources\lunor\repos\rougemeilland\palmtree.math.core.implements\palmtree.math.core.implements\autogenerated_inline_func.h

; 2506 :     c = _SUBTRUCT_UNIT(c, xp[12], yp[12], &zp[12]);

	mov	rax, QWORD PTR [rdx+96]
; File z:\sources\lunor\repos\rougemeilland\palmtree.math.core.implements\palmtree.math.core.implements\pmc_internal.h

; 484  :     return (_subborrow_u64(borrow, u, v, w));

	sbb	rax, QWORD PTR [r8+96]
	mov	QWORD PTR [r9+96], rax
; File z:\sources\lunor\repos\rougemeilland\palmtree.math.core.implements\palmtree.math.core.implements\autogenerated_inline_func.h

; 2507 :     c = _SUBTRUCT_UNIT(c, xp[13], yp[13], &zp[13]);

	mov	rax, QWORD PTR [rdx+104]
; File z:\sources\lunor\repos\rougemeilland\palmtree.math.core.implements\palmtree.math.core.implements\pmc_internal.h

; 484  :     return (_subborrow_u64(borrow, u, v, w));

	sbb	rax, QWORD PTR [r8+104]
	mov	QWORD PTR [r9+104], rax
; File z:\sources\lunor\repos\rougemeilland\palmtree.math.core.implements\palmtree.math.core.implements\autogenerated_inline_func.h

; 2508 :     c = _SUBTRUCT_UNIT(c, xp[14], yp[14], &zp[14]);

	mov	rax, QWORD PTR [rdx+112]
; File z:\sources\lunor\repos\rougemeilland\palmtree.math.core.implements\palmtree.math.core.implements\pmc_internal.h

; 484  :     return (_subborrow_u64(borrow, u, v, w));

	sbb	rax, QWORD PTR [r8+112]
	mov	QWORD PTR [r9+112], rax
; File z:\sources\lunor\repos\rougemeilland\palmtree.math.core.implements\palmtree.math.core.implements\autogenerated_inline_func.h

; 2509 :     c = _SUBTRUCT_UNIT(c, xp[15], yp[15], &zp[15]);

	mov	rcx, QWORD PTR [rdx+120]
; File z:\sources\lunor\repos\rougemeilland\palmtree.math.core.implements\palmtree.math.core.implements\pmc_internal.h

; 484  :     return (_subborrow_u64(borrow, u, v, w));

	sbb	rcx, QWORD PTR [r8+120]
	mov	QWORD PTR [r9+120], rcx
	setb	al
; File z:\sources\lunor\repos\rougemeilland\palmtree.math.core.implements\palmtree.math.core.implements\autogenerated_inline_func.h

; 2630 : }

	ret	0
_SUBTRUCT_16WORDS_SBB ENDP
_TEXT	ENDS
; Function compile flags: /Ogtpy
; File z:\sources\lunor\repos\rougemeilland\palmtree.math.core.implements\palmtree.math.core.implements\autogenerated_inline_func.h
; File z:\sources\lunor\repos\rougemeilland\palmtree.math.core.implements\palmtree.math.core.implements\pmc_internal.h
; File z:\sources\lunor\repos\rougemeilland\palmtree.math.core.implements\palmtree.math.core.implements\autogenerated_inline_func.h
; File z:\sources\lunor\repos\rougemeilland\palmtree.math.core.implements\palmtree.math.core.implements\pmc_internal.h
; File z:\sources\lunor\repos\rougemeilland\palmtree.math.core.implements\palmtree.math.core.implements\autogenerated_inline_func.h
; File z:\sources\lunor\repos\rougemeilland\palmtree.math.core.implements\palmtree.math.core.implements\pmc_internal.h
; File z:\sources\lunor\repos\rougemeilland\palmtree.math.core.implements\palmtree.math.core.implements\autogenerated_inline_func.h
; File z:\sources\lunor\repos\rougemeilland\palmtree.math.core.implements\palmtree.math.core.implements\pmc_internal.h
; File z:\sources\lunor\repos\rougemeilland\palmtree.math.core.implements\palmtree.math.core.implements\autogenerated_inline_func.h
; File z:\sources\lunor\repos\rougemeilland\palmtree.math.core.implements\palmtree.math.core.implements\pmc_internal.h
; File z:\sources\lunor\repos\rougemeilland\palmtree.math.core.implements\palmtree.math.core.implements\autogenerated_inline_func.h
; File z:\sources\lunor\repos\rougemeilland\palmtree.math.core.implements\palmtree.math.core.implements\pmc_internal.h
; File z:\sources\lunor\repos\rougemeilland\palmtree.math.core.implements\palmtree.math.core.implements\autogenerated_inline_func.h
; File z:\sources\lunor\repos\rougemeilland\palmtree.math.core.implements\palmtree.math.core.implements\pmc_internal.h
; File z:\sources\lunor\repos\rougemeilland\palmtree.math.core.implements\palmtree.math.core.implements\autogenerated_inline_func.h
; File z:\sources\lunor\repos\rougemeilland\palmtree.math.core.implements\palmtree.math.core.implements\pmc_internal.h
; File z:\sources\lunor\repos\rougemeilland\palmtree.math.core.implements\palmtree.math.core.implements\autogenerated_inline_func.h
; File z:\sources\lunor\repos\rougemeilland\palmtree.math.core.implements\palmtree.math.core.implements\pmc_internal.h
; File z:\sources\lunor\repos\rougemeilland\palmtree.math.core.implements\palmtree.math.core.implements\autogenerated_inline_func.h
; File z:\sources\lunor\repos\rougemeilland\palmtree.math.core.implements\palmtree.math.core.implements\pmc_internal.h
; File z:\sources\lunor\repos\rougemeilland\palmtree.math.core.implements\palmtree.math.core.implements\autogenerated_inline_func.h
; File z:\sources\lunor\repos\rougemeilland\palmtree.math.core.implements\palmtree.math.core.implements\pmc_internal.h
; File z:\sources\lunor\repos\rougemeilland\palmtree.math.core.implements\palmtree.math.core.implements\autogenerated_inline_func.h
; File z:\sources\lunor\repos\rougemeilland\palmtree.math.core.implements\palmtree.math.core.implements\pmc_internal.h
; File z:\sources\lunor\repos\rougemeilland\palmtree.math.core.implements\palmtree.math.core.implements\autogenerated_inline_func.h
; File z:\sources\lunor\repos\rougemeilland\palmtree.math.core.implements\palmtree.math.core.implements\pmc_internal.h
; File z:\sources\lunor\repos\rougemeilland\palmtree.math.core.implements\palmtree.math.core.implements\autogenerated_inline_func.h
; File z:\sources\lunor\repos\rougemeilland\palmtree.math.core.implements\palmtree.math.core.implements\pmc_internal.h
; File z:\sources\lunor\repos\rougemeilland\palmtree.math.core.implements\palmtree.math.core.implements\autogenerated_inline_func.h
; File z:\sources\lunor\repos\rougemeilland\palmtree.math.core.implements\palmtree.math.core.implements\pmc_internal.h
; File z:\sources\lunor\repos\rougemeilland\palmtree.math.core.implements\palmtree.math.core.implements\autogenerated_inline_func.h
; File z:\sources\lunor\repos\rougemeilland\palmtree.math.core.implements\palmtree.math.core.implements\pmc_internal.h
; File z:\sources\lunor\repos\rougemeilland\palmtree.math.core.implements\palmtree.math.core.implements\autogenerated_inline_func.h
; File z:\sources\lunor\repos\rougemeilland\palmtree.math.core.implements\palmtree.math.core.implements\pmc_internal.h
; File z:\sources\lunor\repos\rougemeilland\palmtree.math.core.implements\palmtree.math.core.implements\autogenerated_inline_func.h
; File z:\sources\lunor\repos\rougemeilland\palmtree.math.core.implements\palmtree.math.core.implements\pmc_internal.h
; File z:\sources\lunor\repos\rougemeilland\palmtree.math.core.implements\palmtree.math.core.implements\autogenerated_inline_func.h
; File z:\sources\lunor\repos\rougemeilland\palmtree.math.core.implements\palmtree.math.core.implements\pmc_internal.h
; File z:\sources\lunor\repos\rougemeilland\palmtree.math.core.implements\palmtree.math.core.implements\autogenerated_inline_func.h
; File z:\sources\lunor\repos\rougemeilland\palmtree.math.core.implements\palmtree.math.core.implements\pmc_internal.h
; File z:\sources\lunor\repos\rougemeilland\palmtree.math.core.implements\palmtree.math.core.implements\autogenerated_inline_func.h
; File z:\sources\lunor\repos\rougemeilland\palmtree.math.core.implements\palmtree.math.core.implements\pmc_internal.h
; File z:\sources\lunor\repos\rougemeilland\palmtree.math.core.implements\palmtree.math.core.implements\autogenerated_inline_func.h
; File z:\sources\lunor\repos\rougemeilland\palmtree.math.core.implements\palmtree.math.core.implements\pmc_internal.h
; File z:\sources\lunor\repos\rougemeilland\palmtree.math.core.implements\palmtree.math.core.implements\autogenerated_inline_func.h
; File z:\sources\lunor\repos\rougemeilland\palmtree.math.core.implements\palmtree.math.core.implements\pmc_internal.h
; File z:\sources\lunor\repos\rougemeilland\palmtree.math.core.implements\palmtree.math.core.implements\autogenerated_inline_func.h
; File z:\sources\lunor\repos\rougemeilland\palmtree.math.core.implements\palmtree.math.core.implements\pmc_internal.h
; File z:\sources\lunor\repos\rougemeilland\palmtree.math.core.implements\palmtree.math.core.implements\autogenerated_inline_func.h
; File z:\sources\lunor\repos\rougemeilland\palmtree.math.core.implements\palmtree.math.core.implements\pmc_internal.h
; File z:\sources\lunor\repos\rougemeilland\palmtree.math.core.implements\palmtree.math.core.implements\autogenerated_inline_func.h
; File z:\sources\lunor\repos\rougemeilland\palmtree.math.core.implements\palmtree.math.core.implements\pmc_internal.h
; File z:\sources\lunor\repos\rougemeilland\palmtree.math.core.implements\palmtree.math.core.implements\autogenerated_inline_func.h
; File z:\sources\lunor\repos\rougemeilland\palmtree.math.core.implements\palmtree.math.core.implements\pmc_internal.h
; File z:\sources\lunor\repos\rougemeilland\palmtree.math.core.implements\palmtree.math.core.implements\autogenerated_inline_func.h
; File z:\sources\lunor\repos\rougemeilland\palmtree.math.core.implements\palmtree.math.core.implements\pmc_internal.h
; File z:\sources\lunor\repos\rougemeilland\palmtree.math.core.implements\palmtree.math.core.implements\autogenerated_inline_func.h
; File z:\sources\lunor\repos\rougemeilland\palmtree.math.core.implements\palmtree.math.core.implements\pmc_internal.h
; File z:\sources\lunor\repos\rougemeilland\palmtree.math.core.implements\palmtree.math.core.implements\autogenerated_inline_func.h
; File z:\sources\lunor\repos\rougemeilland\palmtree.math.core.implements\palmtree.math.core.implements\pmc_internal.h
; File z:\sources\lunor\repos\rougemeilland\palmtree.math.core.implements\palmtree.math.core.implements\autogenerated_inline_func.h
; File z:\sources\lunor\repos\rougemeilland\palmtree.math.core.implements\palmtree.math.core.implements\pmc_internal.h
; File z:\sources\lunor\repos\rougemeilland\palmtree.math.core.implements\palmtree.math.core.implements\autogenerated_inline_func.h
; File z:\sources\lunor\repos\rougemeilland\palmtree.math.core.implements\palmtree.math.core.implements\pmc_internal.h
; File z:\sources\lunor\repos\rougemeilland\palmtree.math.core.implements\palmtree.math.core.implements\autogenerated_inline_func.h
;	COMDAT _SUBTRUCT_32WORDS_SBB
_TEXT	SEGMENT
c$ = 8
xp$ = 16
yp$ = 24
zp$ = 32
_SUBTRUCT_32WORDS_SBB PROC				; COMDAT

; 805  : #ifdef _MSC_VER
; 806  :     c = _SUBTRUCT_UNIT(c, xp[0], yp[0], &zp[0]);

	mov	rax, QWORD PTR [rdx]
; File z:\sources\lunor\repos\rougemeilland\palmtree.math.core.implements\palmtree.math.core.implements\pmc_internal.h

; 484  :     return (_subborrow_u64(borrow, u, v, w));

	add	cl, -1
	sbb	rax, QWORD PTR [r8]
	mov	QWORD PTR [r9], rax
; File z:\sources\lunor\repos\rougemeilland\palmtree.math.core.implements\palmtree.math.core.implements\autogenerated_inline_func.h

; 807  :     c = _SUBTRUCT_UNIT(c, xp[1], yp[1], &zp[1]);

	mov	rax, QWORD PTR [rdx+8]
; File z:\sources\lunor\repos\rougemeilland\palmtree.math.core.implements\palmtree.math.core.implements\pmc_internal.h

; 484  :     return (_subborrow_u64(borrow, u, v, w));

	sbb	rax, QWORD PTR [r8+8]
	mov	QWORD PTR [r9+8], rax
; File z:\sources\lunor\repos\rougemeilland\palmtree.math.core.implements\palmtree.math.core.implements\autogenerated_inline_func.h

; 808  :     c = _SUBTRUCT_UNIT(c, xp[2], yp[2], &zp[2]);

	mov	rax, QWORD PTR [rdx+16]
; File z:\sources\lunor\repos\rougemeilland\palmtree.math.core.implements\palmtree.math.core.implements\pmc_internal.h

; 484  :     return (_subborrow_u64(borrow, u, v, w));

	sbb	rax, QWORD PTR [r8+16]
	mov	QWORD PTR [r9+16], rax
; File z:\sources\lunor\repos\rougemeilland\palmtree.math.core.implements\palmtree.math.core.implements\autogenerated_inline_func.h

; 809  :     c = _SUBTRUCT_UNIT(c, xp[3], yp[3], &zp[3]);

	mov	rax, QWORD PTR [rdx+24]
; File z:\sources\lunor\repos\rougemeilland\palmtree.math.core.implements\palmtree.math.core.implements\pmc_internal.h

; 484  :     return (_subborrow_u64(borrow, u, v, w));

	sbb	rax, QWORD PTR [r8+24]
	mov	QWORD PTR [r9+24], rax
; File z:\sources\lunor\repos\rougemeilland\palmtree.math.core.implements\palmtree.math.core.implements\autogenerated_inline_func.h

; 810  :     c = _SUBTRUCT_UNIT(c, xp[4], yp[4], &zp[4]);

	mov	rax, QWORD PTR [rdx+32]
; File z:\sources\lunor\repos\rougemeilland\palmtree.math.core.implements\palmtree.math.core.implements\pmc_internal.h

; 484  :     return (_subborrow_u64(borrow, u, v, w));

	sbb	rax, QWORD PTR [r8+32]
	mov	QWORD PTR [r9+32], rax
; File z:\sources\lunor\repos\rougemeilland\palmtree.math.core.implements\palmtree.math.core.implements\autogenerated_inline_func.h

; 811  :     c = _SUBTRUCT_UNIT(c, xp[5], yp[5], &zp[5]);

	mov	rax, QWORD PTR [rdx+40]
; File z:\sources\lunor\repos\rougemeilland\palmtree.math.core.implements\palmtree.math.core.implements\pmc_internal.h

; 484  :     return (_subborrow_u64(borrow, u, v, w));

	sbb	rax, QWORD PTR [r8+40]
	mov	QWORD PTR [r9+40], rax
; File z:\sources\lunor\repos\rougemeilland\palmtree.math.core.implements\palmtree.math.core.implements\autogenerated_inline_func.h

; 812  :     c = _SUBTRUCT_UNIT(c, xp[6], yp[6], &zp[6]);

	mov	rax, QWORD PTR [rdx+48]
; File z:\sources\lunor\repos\rougemeilland\palmtree.math.core.implements\palmtree.math.core.implements\pmc_internal.h

; 484  :     return (_subborrow_u64(borrow, u, v, w));

	sbb	rax, QWORD PTR [r8+48]
	mov	QWORD PTR [r9+48], rax
; File z:\sources\lunor\repos\rougemeilland\palmtree.math.core.implements\palmtree.math.core.implements\autogenerated_inline_func.h

; 813  :     c = _SUBTRUCT_UNIT(c, xp[7], yp[7], &zp[7]);

	mov	rax, QWORD PTR [rdx+56]
; File z:\sources\lunor\repos\rougemeilland\palmtree.math.core.implements\palmtree.math.core.implements\pmc_internal.h

; 484  :     return (_subborrow_u64(borrow, u, v, w));

	sbb	rax, QWORD PTR [r8+56]
	mov	QWORD PTR [r9+56], rax
; File z:\sources\lunor\repos\rougemeilland\palmtree.math.core.implements\palmtree.math.core.implements\autogenerated_inline_func.h

; 814  :     c = _SUBTRUCT_UNIT(c, xp[8], yp[8], &zp[8]);

	mov	rax, QWORD PTR [rdx+64]
; File z:\sources\lunor\repos\rougemeilland\palmtree.math.core.implements\palmtree.math.core.implements\pmc_internal.h

; 484  :     return (_subborrow_u64(borrow, u, v, w));

	sbb	rax, QWORD PTR [r8+64]
	mov	QWORD PTR [r9+64], rax
; File z:\sources\lunor\repos\rougemeilland\palmtree.math.core.implements\palmtree.math.core.implements\autogenerated_inline_func.h

; 815  :     c = _SUBTRUCT_UNIT(c, xp[9], yp[9], &zp[9]);

	mov	rax, QWORD PTR [rdx+72]
; File z:\sources\lunor\repos\rougemeilland\palmtree.math.core.implements\palmtree.math.core.implements\pmc_internal.h

; 484  :     return (_subborrow_u64(borrow, u, v, w));

	sbb	rax, QWORD PTR [r8+72]
	mov	QWORD PTR [r9+72], rax
; File z:\sources\lunor\repos\rougemeilland\palmtree.math.core.implements\palmtree.math.core.implements\autogenerated_inline_func.h

; 816  :     c = _SUBTRUCT_UNIT(c, xp[10], yp[10], &zp[10]);

	mov	rax, QWORD PTR [rdx+80]
; File z:\sources\lunor\repos\rougemeilland\palmtree.math.core.implements\palmtree.math.core.implements\pmc_internal.h

; 484  :     return (_subborrow_u64(borrow, u, v, w));

	sbb	rax, QWORD PTR [r8+80]
	mov	QWORD PTR [r9+80], rax
; File z:\sources\lunor\repos\rougemeilland\palmtree.math.core.implements\palmtree.math.core.implements\autogenerated_inline_func.h

; 817  :     c = _SUBTRUCT_UNIT(c, xp[11], yp[11], &zp[11]);

	mov	rax, QWORD PTR [rdx+88]
; File z:\sources\lunor\repos\rougemeilland\palmtree.math.core.implements\palmtree.math.core.implements\pmc_internal.h

; 484  :     return (_subborrow_u64(borrow, u, v, w));

	sbb	rax, QWORD PTR [r8+88]
	mov	QWORD PTR [r9+88], rax
; File z:\sources\lunor\repos\rougemeilland\palmtree.math.core.implements\palmtree.math.core.implements\autogenerated_inline_func.h

; 818  :     c = _SUBTRUCT_UNIT(c, xp[12], yp[12], &zp[12]);

	mov	rax, QWORD PTR [rdx+96]
; File z:\sources\lunor\repos\rougemeilland\palmtree.math.core.implements\palmtree.math.core.implements\pmc_internal.h

; 484  :     return (_subborrow_u64(borrow, u, v, w));

	sbb	rax, QWORD PTR [r8+96]
	mov	QWORD PTR [r9+96], rax
; File z:\sources\lunor\repos\rougemeilland\palmtree.math.core.implements\palmtree.math.core.implements\autogenerated_inline_func.h

; 819  :     c = _SUBTRUCT_UNIT(c, xp[13], yp[13], &zp[13]);

	mov	rax, QWORD PTR [rdx+104]
; File z:\sources\lunor\repos\rougemeilland\palmtree.math.core.implements\palmtree.math.core.implements\pmc_internal.h

; 484  :     return (_subborrow_u64(borrow, u, v, w));

	sbb	rax, QWORD PTR [r8+104]
	mov	QWORD PTR [r9+104], rax
; File z:\sources\lunor\repos\rougemeilland\palmtree.math.core.implements\palmtree.math.core.implements\autogenerated_inline_func.h

; 820  :     c = _SUBTRUCT_UNIT(c, xp[14], yp[14], &zp[14]);

	mov	rax, QWORD PTR [rdx+112]
; File z:\sources\lunor\repos\rougemeilland\palmtree.math.core.implements\palmtree.math.core.implements\pmc_internal.h

; 484  :     return (_subborrow_u64(borrow, u, v, w));

	sbb	rax, QWORD PTR [r8+112]
	mov	QWORD PTR [r9+112], rax
; File z:\sources\lunor\repos\rougemeilland\palmtree.math.core.implements\palmtree.math.core.implements\autogenerated_inline_func.h

; 821  :     c = _SUBTRUCT_UNIT(c, xp[15], yp[15], &zp[15]);

	mov	rax, QWORD PTR [rdx+120]
; File z:\sources\lunor\repos\rougemeilland\palmtree.math.core.implements\palmtree.math.core.implements\pmc_internal.h

; 484  :     return (_subborrow_u64(borrow, u, v, w));

	sbb	rax, QWORD PTR [r8+120]
	mov	QWORD PTR [r9+120], rax
; File z:\sources\lunor\repos\rougemeilland\palmtree.math.core.implements\palmtree.math.core.implements\autogenerated_inline_func.h

; 822  :     c = _SUBTRUCT_UNIT(c, xp[16], yp[16], &zp[16]);

	mov	rax, QWORD PTR [rdx+128]
; File z:\sources\lunor\repos\rougemeilland\palmtree.math.core.implements\palmtree.math.core.implements\pmc_internal.h

; 484  :     return (_subborrow_u64(borrow, u, v, w));

	sbb	rax, QWORD PTR [r8+128]
	mov	QWORD PTR [r9+128], rax
; File z:\sources\lunor\repos\rougemeilland\palmtree.math.core.implements\palmtree.math.core.implements\autogenerated_inline_func.h

; 823  :     c = _SUBTRUCT_UNIT(c, xp[17], yp[17], &zp[17]);

	mov	rax, QWORD PTR [rdx+136]
; File z:\sources\lunor\repos\rougemeilland\palmtree.math.core.implements\palmtree.math.core.implements\pmc_internal.h

; 484  :     return (_subborrow_u64(borrow, u, v, w));

	sbb	rax, QWORD PTR [r8+136]
	mov	QWORD PTR [r9+136], rax
; File z:\sources\lunor\repos\rougemeilland\palmtree.math.core.implements\palmtree.math.core.implements\autogenerated_inline_func.h

; 824  :     c = _SUBTRUCT_UNIT(c, xp[18], yp[18], &zp[18]);

	mov	rax, QWORD PTR [rdx+144]
; File z:\sources\lunor\repos\rougemeilland\palmtree.math.core.implements\palmtree.math.core.implements\pmc_internal.h

; 484  :     return (_subborrow_u64(borrow, u, v, w));

	sbb	rax, QWORD PTR [r8+144]
	mov	QWORD PTR [r9+144], rax
; File z:\sources\lunor\repos\rougemeilland\palmtree.math.core.implements\palmtree.math.core.implements\autogenerated_inline_func.h

; 825  :     c = _SUBTRUCT_UNIT(c, xp[19], yp[19], &zp[19]);

	mov	rax, QWORD PTR [rdx+152]
; File z:\sources\lunor\repos\rougemeilland\palmtree.math.core.implements\palmtree.math.core.implements\pmc_internal.h

; 484  :     return (_subborrow_u64(borrow, u, v, w));

	sbb	rax, QWORD PTR [r8+152]
	mov	QWORD PTR [r9+152], rax
; File z:\sources\lunor\repos\rougemeilland\palmtree.math.core.implements\palmtree.math.core.implements\autogenerated_inline_func.h

; 826  :     c = _SUBTRUCT_UNIT(c, xp[20], yp[20], &zp[20]);

	mov	rax, QWORD PTR [rdx+160]
; File z:\sources\lunor\repos\rougemeilland\palmtree.math.core.implements\palmtree.math.core.implements\pmc_internal.h

; 484  :     return (_subborrow_u64(borrow, u, v, w));

	sbb	rax, QWORD PTR [r8+160]
	mov	QWORD PTR [r9+160], rax
; File z:\sources\lunor\repos\rougemeilland\palmtree.math.core.implements\palmtree.math.core.implements\autogenerated_inline_func.h

; 827  :     c = _SUBTRUCT_UNIT(c, xp[21], yp[21], &zp[21]);

	mov	rax, QWORD PTR [rdx+168]
; File z:\sources\lunor\repos\rougemeilland\palmtree.math.core.implements\palmtree.math.core.implements\pmc_internal.h

; 484  :     return (_subborrow_u64(borrow, u, v, w));

	sbb	rax, QWORD PTR [r8+168]
	mov	QWORD PTR [r9+168], rax
; File z:\sources\lunor\repos\rougemeilland\palmtree.math.core.implements\palmtree.math.core.implements\autogenerated_inline_func.h

; 828  :     c = _SUBTRUCT_UNIT(c, xp[22], yp[22], &zp[22]);

	mov	rax, QWORD PTR [rdx+176]
; File z:\sources\lunor\repos\rougemeilland\palmtree.math.core.implements\palmtree.math.core.implements\pmc_internal.h

; 484  :     return (_subborrow_u64(borrow, u, v, w));

	sbb	rax, QWORD PTR [r8+176]
	mov	QWORD PTR [r9+176], rax
; File z:\sources\lunor\repos\rougemeilland\palmtree.math.core.implements\palmtree.math.core.implements\autogenerated_inline_func.h

; 829  :     c = _SUBTRUCT_UNIT(c, xp[23], yp[23], &zp[23]);

	mov	rax, QWORD PTR [rdx+184]
; File z:\sources\lunor\repos\rougemeilland\palmtree.math.core.implements\palmtree.math.core.implements\pmc_internal.h

; 484  :     return (_subborrow_u64(borrow, u, v, w));

	sbb	rax, QWORD PTR [r8+184]
	mov	QWORD PTR [r9+184], rax
; File z:\sources\lunor\repos\rougemeilland\palmtree.math.core.implements\palmtree.math.core.implements\autogenerated_inline_func.h

; 830  :     c = _SUBTRUCT_UNIT(c, xp[24], yp[24], &zp[24]);

	mov	rax, QWORD PTR [rdx+192]
; File z:\sources\lunor\repos\rougemeilland\palmtree.math.core.implements\palmtree.math.core.implements\pmc_internal.h

; 484  :     return (_subborrow_u64(borrow, u, v, w));

	sbb	rax, QWORD PTR [r8+192]
	mov	QWORD PTR [r9+192], rax
; File z:\sources\lunor\repos\rougemeilland\palmtree.math.core.implements\palmtree.math.core.implements\autogenerated_inline_func.h

; 831  :     c = _SUBTRUCT_UNIT(c, xp[25], yp[25], &zp[25]);

	mov	rax, QWORD PTR [rdx+200]
; File z:\sources\lunor\repos\rougemeilland\palmtree.math.core.implements\palmtree.math.core.implements\pmc_internal.h

; 484  :     return (_subborrow_u64(borrow, u, v, w));

	sbb	rax, QWORD PTR [r8+200]
	mov	QWORD PTR [r9+200], rax
; File z:\sources\lunor\repos\rougemeilland\palmtree.math.core.implements\palmtree.math.core.implements\autogenerated_inline_func.h

; 832  :     c = _SUBTRUCT_UNIT(c, xp[26], yp[26], &zp[26]);

	mov	rax, QWORD PTR [rdx+208]
; File z:\sources\lunor\repos\rougemeilland\palmtree.math.core.implements\palmtree.math.core.implements\pmc_internal.h

; 484  :     return (_subborrow_u64(borrow, u, v, w));

	sbb	rax, QWORD PTR [r8+208]
	mov	QWORD PTR [r9+208], rax
; File z:\sources\lunor\repos\rougemeilland\palmtree.math.core.implements\palmtree.math.core.implements\autogenerated_inline_func.h

; 833  :     c = _SUBTRUCT_UNIT(c, xp[27], yp[27], &zp[27]);

	mov	rax, QWORD PTR [rdx+216]
; File z:\sources\lunor\repos\rougemeilland\palmtree.math.core.implements\palmtree.math.core.implements\pmc_internal.h

; 484  :     return (_subborrow_u64(borrow, u, v, w));

	sbb	rax, QWORD PTR [r8+216]
	mov	QWORD PTR [r9+216], rax
; File z:\sources\lunor\repos\rougemeilland\palmtree.math.core.implements\palmtree.math.core.implements\autogenerated_inline_func.h

; 834  :     c = _SUBTRUCT_UNIT(c, xp[28], yp[28], &zp[28]);

	mov	rax, QWORD PTR [rdx+224]
; File z:\sources\lunor\repos\rougemeilland\palmtree.math.core.implements\palmtree.math.core.implements\pmc_internal.h

; 484  :     return (_subborrow_u64(borrow, u, v, w));

	sbb	rax, QWORD PTR [r8+224]
	mov	QWORD PTR [r9+224], rax
; File z:\sources\lunor\repos\rougemeilland\palmtree.math.core.implements\palmtree.math.core.implements\autogenerated_inline_func.h

; 835  :     c = _SUBTRUCT_UNIT(c, xp[29], yp[29], &zp[29]);

	mov	rax, QWORD PTR [rdx+232]
; File z:\sources\lunor\repos\rougemeilland\palmtree.math.core.implements\palmtree.math.core.implements\pmc_internal.h

; 484  :     return (_subborrow_u64(borrow, u, v, w));

	sbb	rax, QWORD PTR [r8+232]
	mov	QWORD PTR [r9+232], rax
; File z:\sources\lunor\repos\rougemeilland\palmtree.math.core.implements\palmtree.math.core.implements\autogenerated_inline_func.h

; 836  :     c = _SUBTRUCT_UNIT(c, xp[30], yp[30], &zp[30]);

	mov	rax, QWORD PTR [rdx+240]
; File z:\sources\lunor\repos\rougemeilland\palmtree.math.core.implements\palmtree.math.core.implements\pmc_internal.h

; 484  :     return (_subborrow_u64(borrow, u, v, w));

	sbb	rax, QWORD PTR [r8+240]
	mov	QWORD PTR [r9+240], rax
; File z:\sources\lunor\repos\rougemeilland\palmtree.math.core.implements\palmtree.math.core.implements\autogenerated_inline_func.h

; 837  :     c = _SUBTRUCT_UNIT(c, xp[31], yp[31], &zp[31]);

	mov	rcx, QWORD PTR [rdx+248]
; File z:\sources\lunor\repos\rougemeilland\palmtree.math.core.implements\palmtree.math.core.implements\pmc_internal.h

; 484  :     return (_subborrow_u64(borrow, u, v, w));

	sbb	rcx, QWORD PTR [r8+248]
	mov	QWORD PTR [r9+248], rcx
	setb	al
; File z:\sources\lunor\repos\rougemeilland\palmtree.math.core.implements\palmtree.math.core.implements\autogenerated_inline_func.h

; 1054 : }

	ret	0
_SUBTRUCT_32WORDS_SBB ENDP
_TEXT	ENDS
; Function compile flags: /Ogtpy
; File z:\sources\lunor\repos\rougemeilland\palmtree.math.core.implements\palmtree.math.core.implements\pmc_internal.h
;	COMDAT _LZCNT_ALT_UNIT
_TEXT	SEGMENT
x$ = 8
_LZCNT_ALT_UNIT PROC					; COMDAT

; 841  :     if (x == 0)

	test	rcx, rcx
	jne	SHORT $LN2@LZCNT_ALT_

; 842  :         return (sizeof(x) * 8);

	mov	eax, 64					; 00000040H

; 866  : }

	ret	0
$LN2@LZCNT_ALT_:

; 843  : #ifdef _M_IX86
; 844  :     _UINT32_T pos;
; 845  : #ifdef _MSC_VER
; 846  :     _BitScanReverse(&pos, x);
; 847  : #elif defined(__GNUC__)
; 848  :     __asm__("bsrl %1, %0" : "=r"(pos) : "rm"(x));
; 849  : #else
; 850  : #error unknown compiler
; 851  : #endif
; 852  : #elif defined(_M_X64)
; 853  : #ifdef _MSC_VER
; 854  :     _UINT32_T pos;
; 855  :     _BitScanReverse64(&pos, x);

	bsr	rcx, rcx

; 856  : #elif defined(__GNUC__)
; 857  :     _UINT64_T pos;
; 858  :     __asm__("bsrq %1, %0" : "=r"(pos) : "rm"(x));
; 859  : #else
; 860  : #error unknown compiler
; 861  : #endif
; 862  : #else
; 863  : #error unknown platform
; 864  : #endif
; 865  :     return (sizeof(x) * 8 - 1 - pos);

	mov	eax, 63					; 0000003fH
	sub	rax, rcx

; 866  : }

	ret	0
_LZCNT_ALT_UNIT ENDP
_TEXT	ENDS
; Function compile flags: /Ogtpy
; File z:\sources\lunor\repos\rougemeilland\palmtree.math.core.implements\palmtree.math.core.implements\pmc_internal.h
;	COMDAT _LZCNT_ALT_32
_TEXT	SEGMENT
x$ = 8
_LZCNT_ALT_32 PROC					; COMDAT

; 808  :     if (x == 0)

	test	ecx, ecx
	jne	SHORT $LN2@LZCNT_ALT_

; 809  :         return (sizeof(x) * 8);

	mov	eax, 32					; 00000020H

; 819  : }

	ret	0
$LN2@LZCNT_ALT_:

; 810  :     _UINT32_T pos;
; 811  : #ifdef _MSC_VER
; 812  :     _BitScanReverse(&pos, x);

	bsr	ecx, ecx

; 813  : #elif defined(__GNUC__)
; 814  :     __asm__( "bsrl %1, %0" : "=r"(pos) : "rm"(x) );
; 815  : #else
; 816  : #error unknown compiler
; 817  : #endif
; 818  :     return (sizeof(x) * 8 - 1 - pos);

	mov	eax, 31
	sub	eax, ecx

; 819  : }

	ret	0
_LZCNT_ALT_32 ENDP
_TEXT	ENDS
; Function compile flags: /Ogtpy
; File z:\sources\lunor\repos\rougemeilland\palmtree.math.core.implements\palmtree.math.core.implements\pmc_internal.h
;	COMDAT _SUBTRUCT_UNIT
_TEXT	SEGMENT
borrow$ = 8
u$ = 16
v$ = 24
w$ = 32
_SUBTRUCT_UNIT PROC					; COMDAT

; 481  : #ifdef _M_IX86
; 482  :     return (_subborrow_u32(borrow, u, v, w));
; 483  : #elif defined(_M_X64)
; 484  :     return (_subborrow_u64(borrow, u, v, w));

	add	cl, -1
	sbb	rdx, r8
	mov	QWORD PTR [r9], rdx
	setb	al

; 485  : #else
; 486  : #error unknown platform
; 487  : #endif
; 488  : }

	ret	0
_SUBTRUCT_UNIT ENDP
_TEXT	ENDS
; Function compile flags: /Ogtpy
; File z:\sources\lunor\repos\rougemeilland\palmtree.math.core.implements\palmtree.math.core.implements\pmc_internal.h
;	COMDAT _FROMDWORDTOWORD
_TEXT	SEGMENT
value$ = 8
result_high$ = 16
_FROMDWORDTOWORD PROC					; COMDAT

; 394  :     *result_high = (_UINT32_T)(value >> 32);

	mov	rax, rcx
	shr	rax, 32					; 00000020H
	mov	DWORD PTR [rdx], eax

; 395  :     return ((_UINT32_T)value);

	mov	eax, ecx

; 396  : }

	ret	0
_FROMDWORDTOWORD ENDP
_TEXT	ENDS
; Function compile flags: /Ogtpy
; File z:\sources\lunor\repos\rougemeilland\palmtree.math.core.implements\palmtree.math.core.implements\pmc_subtruct.c
;	COMDAT PMC_Subtruct_X_X
_TEXT	SEGMENT
nz$ = 48
x$ = 48
y$ = 56
o$ = 64
nz_light_check_code$1 = 72
PMC_Subtruct_X_X PROC					; COMDAT

; 435  : {

$LN23:
	mov	QWORD PTR [rsp+16], rbx
	mov	QWORD PTR [rsp+24], rsi
	push	rdi
	sub	rsp, 32					; 00000020H
	mov	rsi, r8
	mov	rdi, rdx
	mov	rbx, rcx

; 436  :     if (x == NULL)

	test	rcx, rcx
	je	$LN20@PMC_Subtru

; 437  :         return (PMC_STATUS_ARGUMENT_ERROR);
; 438  :     if (y == NULL)

	test	rdx, rdx
	je	$LN20@PMC_Subtru

; 439  :         return (PMC_STATUS_ARGUMENT_ERROR);
; 440  :     if (o == NULL)

	test	r8, r8
	je	$LN20@PMC_Subtru

; 442  :     NUMBER_HEADER* nx = (NUMBER_HEADER*)x;
; 443  :     NUMBER_HEADER* ny = (NUMBER_HEADER*)y;
; 444  :     PMC_STATUS_CODE result;
; 445  :     if ((result = CheckNumber(nx)) != PMC_STATUS_OK)

	call	CheckNumber
	test	eax, eax
	jne	$LN1@PMC_Subtru

; 446  :         return (result);
; 447  :     if ((result = CheckNumber(ny)) != PMC_STATUS_OK)

	mov	rcx, rdi
	call	CheckNumber
	test	eax, eax
	jne	$LN1@PMC_Subtru

; 448  :         return (result);
; 449  :     NUMBER_HEADER* nz;
; 450  :     if (nx->IS_ZERO)

	mov	eax, DWORD PTR [rdi+32]
	and	eax, 2
	test	BYTE PTR [rbx+32], 2
	je	SHORT $LN7@PMC_Subtru

; 451  :     {
; 452  :         if (ny->IS_ZERO)

	test	eax, eax
	je	SHORT $LN19@PMC_Subtru

; 453  :         {
; 454  :             // y が 0 である場合
; 455  : 
; 456  :             // x と y がともに 0 であるので、演算結果の 0 を呼び出し元に返す。
; 457  :             *o = &number_zero;

	lea	rax, OFFSET FLAT:number_zero

; 505  :     }
; 506  : #ifdef _DEBUG
; 507  :     if ((result = CheckNumber(*o)) != PMC_STATUS_OK)
; 508  :         return (result);
; 509  : #endif
; 510  :     return (PMC_STATUS_OK);

	mov	QWORD PTR [rsi], rax
	xor	eax, eax

; 511  : }

	mov	rbx, QWORD PTR [rsp+56]
	mov	rsi, QWORD PTR [rsp+64]
	add	rsp, 32					; 00000020H
	pop	rdi
	ret	0
$LN7@PMC_Subtru:

; 458  :         }
; 459  :         else
; 460  :         {
; 461  :             // y が 0 ではない場合
; 462  : 
; 463  :             // 演算結果は負となってしまうのでエラーを返す。
; 464  :             return (PMC_STATUS_OVERFLOW);
; 465  :         }
; 466  :     }
; 467  :     else
; 468  :     {
; 469  :         // x が 0 ではない場合
; 470  : 
; 471  :         if (ny->IS_ZERO)

	test	eax, eax
	je	SHORT $LN11@PMC_Subtru

; 472  :         {
; 473  :             // y が 0 である場合
; 474  : 
; 475  :             // 演算結果となる x の値を持つ NUMBER_HEADER 構造体を獲得し、呼び出し元へ返す。
; 476  :             if ((result = DuplicateNumber(nx, &nz)) != PMC_STATUS_OK)

	lea	rdx, QWORD PTR nz$[rsp]
	mov	rcx, rbx
	call	DuplicateNumber
	test	eax, eax
	je	$LN12@PMC_Subtru

; 511  : }

	mov	rbx, QWORD PTR [rsp+56]
	mov	rsi, QWORD PTR [rsp+64]
	add	rsp, 32					; 00000020H
	pop	rdi
	ret	0
$LN11@PMC_Subtru:

; 477  :                 return (result);
; 478  :         }
; 479  :         else
; 480  :         {
; 481  :             // x と y がともに 0 ではない場合
; 482  : 
; 483  :             // x と y の差を計算する
; 484  :             __UNIT_TYPE x_bit_count = nx->UNIT_BIT_COUNT;

	mov	rdx, QWORD PTR [rbx+8]

; 485  :             __UNIT_TYPE y_bit_count = ny->UNIT_BIT_COUNT;
; 486  :             if (x_bit_count < y_bit_count)

	cmp	rdx, QWORD PTR [rdi+8]
	jae	SHORT $LN14@PMC_Subtru
$LN19@PMC_Subtru:

; 487  :             {
; 488  :                 // 演算結果は負となってしまうのでエラーを返す。
; 489  :                 return (PMC_STATUS_OVERFLOW);

	mov	eax, -2

; 511  : }

	mov	rbx, QWORD PTR [rsp+56]
	mov	rsi, QWORD PTR [rsp+64]
	add	rsp, 32					; 00000020H
	pop	rdi
	ret	0
$LN14@PMC_Subtru:

; 490  :             }
; 491  :             __UNIT_TYPE z_bit_count = x_bit_count;
; 492  :             __UNIT_TYPE nz_light_check_code;
; 493  :             if ((result = AllocateNumber(&nz, z_bit_count, &nz_light_check_code)) != PMC_STATUS_OK)

	lea	r8, QWORD PTR nz_light_check_code$1[rsp]
	lea	rcx, QWORD PTR nz$[rsp]
	call	AllocateNumber
	test	eax, eax
	jne	SHORT $LN1@PMC_Subtru

; 494  :                 return (result);
; 495  :             if ((result = Subtruct_X_X(nx, ny, nz)) != PMC_STATUS_OK)

	mov	r8, QWORD PTR nz$[rsp]
	mov	rdx, rdi
	mov	rcx, rbx
	call	Subtruct_X_X
	mov	rcx, QWORD PTR nz$[rsp]
	mov	ebx, eax
	test	eax, eax
	je	SHORT $LN16@PMC_Subtru

; 496  :             {
; 497  :                 DeallocateNumber(nz);

	call	DeallocateNumber

; 498  :                 return (result == PMC_STATUS_INTERNAL_BORROW ? PMC_STATUS_OVERFLOW : result);

	mov	eax, -2
	cmp	ebx, -258				; fffffffffffffefeH
	cmove	ebx, eax
	mov	eax, ebx

; 511  : }

	mov	rbx, QWORD PTR [rsp+56]
	mov	rsi, QWORD PTR [rsp+64]
	add	rsp, 32					; 00000020H
	pop	rdi
	ret	0
$LN16@PMC_Subtru:

; 499  :             }
; 500  :             if ((result = CheckBlockLight(nz->BLOCK, nz_light_check_code)) != PMC_STATUS_OK)

	mov	rdx, QWORD PTR nz_light_check_code$1[rsp]
	mov	rcx, QWORD PTR [rcx+48]
	call	CheckBlockLight
	test	eax, eax
	jne	SHORT $LN1@PMC_Subtru

; 501  :                 return (result);
; 502  :             CommitNumber(nz);

	mov	rcx, QWORD PTR nz$[rsp]
	call	CommitNumber
$LN12@PMC_Subtru:

; 503  :         }
; 504  :         *o = nz;

	mov	rax, QWORD PTR nz$[rsp]

; 505  :     }
; 506  : #ifdef _DEBUG
; 507  :     if ((result = CheckNumber(*o)) != PMC_STATUS_OK)
; 508  :         return (result);
; 509  : #endif
; 510  :     return (PMC_STATUS_OK);

	mov	QWORD PTR [rsi], rax
	xor	eax, eax

; 511  : }

	mov	rbx, QWORD PTR [rsp+56]
	mov	rsi, QWORD PTR [rsp+64]
	add	rsp, 32					; 00000020H
	pop	rdi
	ret	0
$LN20@PMC_Subtru:

; 441  :         return (PMC_STATUS_ARGUMENT_ERROR);

	mov	eax, -1
$LN1@PMC_Subtru:

; 511  : }

	mov	rbx, QWORD PTR [rsp+56]
	mov	rsi, QWORD PTR [rsp+64]
	add	rsp, 32					; 00000020H
	pop	rdi
	ret	0
PMC_Subtruct_X_X ENDP
_TEXT	ENDS
; Function compile flags: /Ogtpy
; File z:\sources\lunor\repos\rougemeilland\palmtree.math.core.implements\palmtree.math.core.implements\pmc_subtruct.c
; File z:\sources\lunor\repos\rougemeilland\palmtree.math.core.implements\palmtree.math.core.implements\pmc_internal.h
; File z:\sources\lunor\repos\rougemeilland\palmtree.math.core.implements\palmtree.math.core.implements\pmc_subtruct.c
;	COMDAT PMC_Subtruct_X_L
_TEXT	SEGMENT
nz$ = 48
x$ = 48
y$ = 56
o$ = 64
nz_light_check_code$1 = 72
PMC_Subtruct_X_L PROC					; COMDAT

; 294  : {

$LN69:
	mov	QWORD PTR [rsp+16], rbx
	mov	QWORD PTR [rsp+24], rsi
	push	rdi
	sub	rsp, 32					; 00000020H
	mov	rsi, r8
	mov	rdi, rdx
	mov	rbx, rcx

; 295  :     if (__UNIT_TYPE_BIT_COUNT * 2 < sizeof(y) * 8)
; 296  :     {
; 297  :         // _UINT64_T が 2 ワードで表現しきれない処理系には対応しない
; 298  :         return (PMC_STATUS_INTERNAL_ERROR);
; 299  :     }
; 300  :     if (x == NULL)

	test	rcx, rcx
	je	$LN65@PMC_Subtru

; 301  :         return (PMC_STATUS_ARGUMENT_ERROR);
; 302  :     if (o == NULL)

	test	r8, r8
	je	$LN65@PMC_Subtru

; 304  :     NUMBER_HEADER* nx = (NUMBER_HEADER*)x;
; 305  :     PMC_STATUS_CODE result;
; 306  :     if ((result = CheckNumber(nx)) != PMC_STATUS_OK)

	call	CheckNumber
	test	eax, eax
	jne	$LN1@PMC_Subtru

; 307  :         return (result);
; 308  :     NUMBER_HEADER* nz;
; 309  :     if (nx->IS_ZERO)

	test	BYTE PTR [rbx+32], 2
	je	SHORT $LN6@PMC_Subtru

; 310  :     {
; 311  :         // x が 0 である場合
; 312  : 
; 313  :         if (y == 0)

	test	rdi, rdi
	jne	SHORT $LN64@PMC_Subtru

; 422  :                 nz = &number_zero;
; 423  :             }
; 424  :         }
; 425  :         *o = nz;
; 426  :     }
; 427  : #ifdef _DEBUG
; 428  :     if ((result = CheckNumber(*o)) != PMC_STATUS_OK)
; 429  :         return (result);
; 430  : #endif
; 431  :     return (PMC_STATUS_OK);

	lea	rax, OFFSET FLAT:number_zero
	mov	QWORD PTR [rsi], rax
	xor	eax, eax

; 432  : }

	mov	rbx, QWORD PTR [rsp+56]
	mov	rsi, QWORD PTR [rsp+64]
	add	rsp, 32					; 00000020H
	pop	rdi
	ret	0
$LN6@PMC_Subtru:

; 314  :         {
; 315  :             // y が 0 である場合
; 316  : 
; 317  :             // x と y がともに 0 であるので、演算結果の 0 を呼び出し元に返す。
; 318  :             *o = &number_zero;
; 319  :         }
; 320  :         else
; 321  :         {
; 322  :             // y が 0 ではない場合
; 323  : 
; 324  :             // 演算結果は負となってしまうのでエラーを返す。
; 325  :             return (PMC_STATUS_OVERFLOW);
; 326  :         }
; 327  :     }
; 328  :     else
; 329  :     {
; 330  :         // x が 0 ではない場合
; 331  : 
; 332  :         if (y == 0)

	test	rdi, rdi
	jne	SHORT $LN10@PMC_Subtru

; 333  :         {
; 334  :             // y が 0 である場合
; 335  : 
; 336  :             // 演算結果となる x の値を持つ NUMBER_HEADER 構造体を獲得し、呼び出し元へ返す。
; 337  :             if ((result = DuplicateNumber(nx, &nz)) != PMC_STATUS_OK)

	lea	rdx, QWORD PTR nz$[rsp]
	mov	rcx, rbx
	call	DuplicateNumber
	test	eax, eax
	jne	$LN1@PMC_Subtru
	mov	rax, QWORD PTR nz$[rsp]

; 422  :                 nz = &number_zero;
; 423  :             }
; 424  :         }
; 425  :         *o = nz;
; 426  :     }
; 427  : #ifdef _DEBUG
; 428  :     if ((result = CheckNumber(*o)) != PMC_STATUS_OK)
; 429  :         return (result);
; 430  : #endif
; 431  :     return (PMC_STATUS_OK);

	mov	QWORD PTR [rsi], rax
	xor	eax, eax

; 432  : }

	mov	rbx, QWORD PTR [rsp+56]
	mov	rsi, QWORD PTR [rsp+64]
	add	rsp, 32					; 00000020H
	pop	rdi
	ret	0
$LN10@PMC_Subtru:

; 338  :                 return (result);
; 339  :         }
; 340  :         else
; 341  :         {
; 342  :             // x と y がともに 0 ではない場合
; 343  : 
; 344  :             // x と y の差を計算する
; 345  :             if (__UNIT_TYPE_BIT_COUNT < sizeof(y) * 8)
; 346  :             {
; 347  :                 // _UINT64_T が 1 ワードで表現しきれない場合
; 348  : 
; 349  :                 __UNIT_TYPE x_bit_count = nx->UNIT_BIT_COUNT;
; 350  :                 _UINT32_T y_hi;
; 351  :                 _UINT32_T y_lo = _FROMDWORDTOWORD(y, &y_hi);
; 352  :                 if (y_hi == 0)
; 353  :                 {
; 354  :                     // y の値が 32bit で表現可能な場合
; 355  :                     __UNIT_TYPE y_bit_count = sizeof(y_lo) * 8 - _LZCNT_ALT_32(y_lo);
; 356  :                     if (x_bit_count < y_bit_count)
; 357  :                     {
; 358  :                         // 演算結果は負となってしまうのでエラーを返す。
; 359  :                         return (PMC_STATUS_OVERFLOW);
; 360  :                     }
; 361  :                     __UNIT_TYPE z_bit_count = x_bit_count;
; 362  :                     __UNIT_TYPE nz_light_check_code;
; 363  :                     if ((result = AllocateNumber(&nz, z_bit_count, &nz_light_check_code)) != PMC_STATUS_OK)
; 364  :                         return (result);
; 365  :                     if ((result = Subtruct_X_1W(nx, y_lo, nz)) != PMC_STATUS_OK)
; 366  :                     {
; 367  :                         DeallocateNumber(nz);
; 368  :                         return (result == PMC_STATUS_INTERNAL_BORROW ? PMC_STATUS_OVERFLOW : result);
; 369  :                     }
; 370  :                     if ((result = CheckBlockLight(nz->BLOCK, nz_light_check_code)) != PMC_STATUS_OK)
; 371  :                         return (result);
; 372  :                 }
; 373  :                 else
; 374  :                 {
; 375  :                     // y の値が 32bit では表現できない場合
; 376  :                     __UNIT_TYPE y_bit_count = sizeof(y) * 8 - _LZCNT_ALT_32(y_hi);
; 377  :                     if (x_bit_count < y_bit_count)
; 378  :                     {
; 379  :                         // 演算結果は負となってしまうのでエラーを返す。
; 380  :                         return (PMC_STATUS_OVERFLOW);
; 381  :                     }
; 382  :                     __UNIT_TYPE z_bit_count = x_bit_count;
; 383  :                     __UNIT_TYPE nz_light_check_code;
; 384  :                     if ((result = AllocateNumber(&nz, z_bit_count, &nz_light_check_code)) != PMC_STATUS_OK)
; 385  :                         return (result);
; 386  :                     if ((result = Subtruct_X_2W(nx, y_hi, y_lo, nz)) != PMC_STATUS_OK)
; 387  :                     {
; 388  :                         DeallocateNumber(nz);
; 389  :                         return (result == PMC_STATUS_INTERNAL_BORROW ? PMC_STATUS_OVERFLOW : result);
; 390  :                     }
; 391  :                     if ((result = CheckBlockLight(nz->BLOCK, nz_light_check_code)) != PMC_STATUS_OK)
; 392  :                         return (result);
; 393  :                 }
; 394  :             }
; 395  :             else
; 396  :             {
; 397  :                 // _UINT64_T が 1 ワードで表現できる場合
; 398  : 
; 399  :                 __UNIT_TYPE x_bit_count = nx->UNIT_BIT_COUNT;

	mov	rdx, QWORD PTR [rbx+8]
; File z:\sources\lunor\repos\rougemeilland\palmtree.math.core.implements\palmtree.math.core.implements\pmc_internal.h

; 855  :     _BitScanReverse64(&pos, x);

	bsr	rcx, rdi

; 856  : #elif defined(__GNUC__)
; 857  :     _UINT64_T pos;
; 858  :     __asm__("bsrq %1, %0" : "=r"(pos) : "rm"(x));
; 859  : #else
; 860  : #error unknown compiler
; 861  : #endif
; 862  : #else
; 863  : #error unknown platform
; 864  : #endif
; 865  :     return (sizeof(x) * 8 - 1 - pos);

	inc	rcx
; File z:\sources\lunor\repos\rougemeilland\palmtree.math.core.implements\palmtree.math.core.implements\pmc_subtruct.c

; 401  :                 if (x_bit_count < y_bit_count)

	cmp	rdx, rcx
	jae	SHORT $LN25@PMC_Subtru
$LN64@PMC_Subtru:

; 402  :                 {
; 403  :                     // 演算結果は負となってしまうのでエラーを返す。
; 404  :                     return (PMC_STATUS_OVERFLOW);

	mov	eax, -2

; 432  : }

	mov	rbx, QWORD PTR [rsp+56]
	mov	rsi, QWORD PTR [rsp+64]
	add	rsp, 32					; 00000020H
	pop	rdi
	ret	0
$LN25@PMC_Subtru:

; 405  :                 }
; 406  :                 __UNIT_TYPE z_bit_count = x_bit_count;
; 407  :                 __UNIT_TYPE nz_light_check_code;
; 408  :                 if ((result = AllocateNumber(&nz, z_bit_count, &nz_light_check_code)) != PMC_STATUS_OK)

	lea	r8, QWORD PTR nz_light_check_code$1[rsp]
	lea	rcx, QWORD PTR nz$[rsp]
	call	AllocateNumber
	test	eax, eax
	jne	$LN1@PMC_Subtru

; 409  :                     return (result);
; 410  :                 if ((result = Subtruct_X_1W(nx, (__UNIT_TYPE)y, nz)) != PMC_STATUS_OK)

	mov	r8, QWORD PTR nz$[rsp]
	mov	rdx, rdi
	mov	rcx, rbx
	call	Subtruct_X_1W
	mov	rcx, QWORD PTR nz$[rsp]
	mov	ebx, eax
	test	eax, eax
	je	SHORT $LN27@PMC_Subtru

; 411  :                 {
; 412  :                     DeallocateNumber(nz);

	call	DeallocateNumber

; 413  :                     return (result == PMC_STATUS_INTERNAL_BORROW ? PMC_STATUS_OVERFLOW : result);

	mov	eax, -2
	cmp	ebx, -258				; fffffffffffffefeH
	cmove	ebx, eax
	mov	eax, ebx

; 432  : }

	mov	rbx, QWORD PTR [rsp+56]
	mov	rsi, QWORD PTR [rsp+64]
	add	rsp, 32					; 00000020H
	pop	rdi
	ret	0
$LN27@PMC_Subtru:

; 414  :                 }
; 415  :                 if ((result = CheckBlockLight(nz->BLOCK, nz_light_check_code)) != PMC_STATUS_OK)

	mov	rdx, QWORD PTR nz_light_check_code$1[rsp]
	mov	rcx, QWORD PTR [rcx+48]
	call	CheckBlockLight
	test	eax, eax
	jne	SHORT $LN1@PMC_Subtru

; 416  :                     return (result);
; 417  :             }
; 418  :             CommitNumber(nz);

	mov	rcx, QWORD PTR nz$[rsp]
	call	CommitNumber

; 419  :             if (nz->IS_ZERO)

	mov	rax, QWORD PTR nz$[rsp]
	test	BYTE PTR [rax+32], 2
	je	SHORT $LN29@PMC_Subtru

; 420  :             {
; 421  :                 DeallocateNumber(nz);

	mov	rcx, rax
	call	DeallocateNumber

; 422  :                 nz = &number_zero;
; 423  :             }
; 424  :         }
; 425  :         *o = nz;
; 426  :     }
; 427  : #ifdef _DEBUG
; 428  :     if ((result = CheckNumber(*o)) != PMC_STATUS_OK)
; 429  :         return (result);
; 430  : #endif
; 431  :     return (PMC_STATUS_OK);

	lea	rax, OFFSET FLAT:number_zero
$LN29@PMC_Subtru:
	mov	QWORD PTR [rsi], rax
	xor	eax, eax

; 432  : }

	mov	rbx, QWORD PTR [rsp+56]
	mov	rsi, QWORD PTR [rsp+64]
	add	rsp, 32					; 00000020H
	pop	rdi
	ret	0
$LN65@PMC_Subtru:

; 303  :         return (PMC_STATUS_ARGUMENT_ERROR);

	mov	eax, -1
$LN1@PMC_Subtru:

; 432  : }

	mov	rbx, QWORD PTR [rsp+56]
	mov	rsi, QWORD PTR [rsp+64]
	add	rsp, 32					; 00000020H
	pop	rdi
	ret	0
PMC_Subtruct_X_L ENDP
_TEXT	ENDS
; Function compile flags: /Ogtpy
; File z:\sources\lunor\repos\rougemeilland\palmtree.math.core.implements\palmtree.math.core.implements\pmc_subtruct.c
; File z:\sources\lunor\repos\rougemeilland\palmtree.math.core.implements\palmtree.math.core.implements\pmc_internal.h
; File z:\sources\lunor\repos\rougemeilland\palmtree.math.core.implements\palmtree.math.core.implements\pmc_subtruct.c
;	COMDAT PMC_Subtruct_X_I
_TEXT	SEGMENT
nz$ = 48
x$ = 48
y$ = 56
o$ = 64
nz_light_check_code$1 = 72
PMC_Subtruct_X_I PROC					; COMDAT

; 208  : {

$LN27:
	mov	QWORD PTR [rsp+16], rbx
	mov	QWORD PTR [rsp+24], rsi
	push	rdi
	sub	rsp, 32					; 00000020H
	mov	edi, edx
	mov	rsi, r8
	mov	rbx, rcx

; 209  :     if (__UNIT_TYPE_BIT_COUNT < sizeof(y) * 8)
; 210  :     {
; 211  :         // _UINT32_T が 1 ワードで表現しきれない処理系には対応しない
; 212  :         return (PMC_STATUS_INTERNAL_ERROR);
; 213  :     }
; 214  :     if (x == NULL)

	test	rcx, rcx
	je	$LN23@PMC_Subtru

; 215  :         return (PMC_STATUS_ARGUMENT_ERROR);
; 216  :     if (o == NULL)

	test	r8, r8
	je	$LN23@PMC_Subtru

; 218  :     NUMBER_HEADER* nx = (NUMBER_HEADER*)x;
; 219  :     PMC_STATUS_CODE result;
; 220  :     if ((result = CheckNumber(nx)) != PMC_STATUS_OK)

	call	CheckNumber
	test	eax, eax
	jne	$LN1@PMC_Subtru

; 221  :         return (result);
; 222  :     NUMBER_HEADER* nz;
; 223  :     if (nx->IS_ZERO)

	test	BYTE PTR [rbx+32], 2
	je	SHORT $LN6@PMC_Subtru

; 224  :     {
; 225  :         // x が 0 である場合
; 226  : 
; 227  :         if (y == 0)

	test	edi, edi
	jne	SHORT $LN22@PMC_Subtru

; 281  :                 nz = &number_zero;
; 282  :             }
; 283  :         }
; 284  :         *o = nz;
; 285  :     }
; 286  : #ifdef _DEBUG
; 287  :     if ((result = CheckNumber(*o)) != PMC_STATUS_OK)
; 288  :         return (result);
; 289  : #endif
; 290  :     return (PMC_STATUS_OK);

	lea	rax, OFFSET FLAT:number_zero
	mov	QWORD PTR [rsi], rax
	xor	eax, eax

; 291  : }

	mov	rbx, QWORD PTR [rsp+56]
	mov	rsi, QWORD PTR [rsp+64]
	add	rsp, 32					; 00000020H
	pop	rdi
	ret	0
$LN6@PMC_Subtru:

; 228  :         {
; 229  :             // y が 0 である場合
; 230  : 
; 231  :             // x と y がともに 0 であるので、演算結果の 0 を呼び出し元に返す。
; 232  :             *o = &number_zero;
; 233  :         }
; 234  :         else
; 235  :         {
; 236  :             // y が 0 ではない場合
; 237  : 
; 238  :             // 演算結果は負となってしまうのでエラーを返す。
; 239  :             return (PMC_STATUS_OVERFLOW);
; 240  :         }
; 241  :     }
; 242  :     else
; 243  :     {
; 244  :         // x が 0 ではない場合
; 245  : 
; 246  :         if (y == 0)

	test	edi, edi
	jne	SHORT $LN10@PMC_Subtru

; 247  :         {
; 248  :             // y が 0 である場合
; 249  : 
; 250  :             // 演算結果となる x の値を持つ NUMBER_HEADER 構造体を獲得し、呼び出し元へ返す。
; 251  :             if ((result = DuplicateNumber(nx, &nz)) != PMC_STATUS_OK)

	lea	rdx, QWORD PTR nz$[rsp]
	mov	rcx, rbx
	call	DuplicateNumber
	test	eax, eax
	jne	$LN1@PMC_Subtru
	mov	rax, QWORD PTR nz$[rsp]

; 281  :                 nz = &number_zero;
; 282  :             }
; 283  :         }
; 284  :         *o = nz;
; 285  :     }
; 286  : #ifdef _DEBUG
; 287  :     if ((result = CheckNumber(*o)) != PMC_STATUS_OK)
; 288  :         return (result);
; 289  : #endif
; 290  :     return (PMC_STATUS_OK);

	mov	QWORD PTR [rsi], rax
	xor	eax, eax

; 291  : }

	mov	rbx, QWORD PTR [rsp+56]
	mov	rsi, QWORD PTR [rsp+64]
	add	rsp, 32					; 00000020H
	pop	rdi
	ret	0
$LN10@PMC_Subtru:

; 252  :                 return (result);
; 253  :         }
; 254  :         else
; 255  :         {
; 256  :             // x と y がともに 0 ではない場合
; 257  : 
; 258  :             // x と y の差を計算する
; 259  :             __UNIT_TYPE x_bit_count = nx->UNIT_BIT_COUNT;

	mov	rdx, QWORD PTR [rbx+8]
; File z:\sources\lunor\repos\rougemeilland\palmtree.math.core.implements\palmtree.math.core.implements\pmc_internal.h

; 818  :     return (sizeof(x) * 8 - 1 - pos);

	mov	ecx, 31
	bsr	eax, edi
	sub	ecx, eax
; File z:\sources\lunor\repos\rougemeilland\palmtree.math.core.implements\palmtree.math.core.implements\pmc_subtruct.c

; 260  :             __UNIT_TYPE y_bit_count = sizeof(y) * 8 - _LZCNT_ALT_32(y);

	mov	eax, ecx
	mov	ecx, 32					; 00000020H
	sub	rcx, rax

; 261  :             if (x_bit_count < y_bit_count)

	cmp	rdx, rcx
	jae	SHORT $LN13@PMC_Subtru
$LN22@PMC_Subtru:

; 262  :             {
; 263  :                 // 演算結果は負となってしまうのでエラーを返す。
; 264  :                 return (PMC_STATUS_OVERFLOW);

	mov	eax, -2

; 291  : }

	mov	rbx, QWORD PTR [rsp+56]
	mov	rsi, QWORD PTR [rsp+64]
	add	rsp, 32					; 00000020H
	pop	rdi
	ret	0
$LN13@PMC_Subtru:

; 265  :             }
; 266  :             __UNIT_TYPE z_bit_count = x_bit_count;
; 267  :             __UNIT_TYPE nz_light_check_code;
; 268  :             if ((result = AllocateNumber(&nz, z_bit_count, &nz_light_check_code)) != PMC_STATUS_OK)

	lea	r8, QWORD PTR nz_light_check_code$1[rsp]
	lea	rcx, QWORD PTR nz$[rsp]
	call	AllocateNumber
	test	eax, eax
	jne	$LN1@PMC_Subtru

; 269  :                 return (result);
; 270  :             if ((result = Subtruct_X_1W(nx, y, nz)) != PMC_STATUS_OK)

	mov	r8, QWORD PTR nz$[rsp]
	mov	rdx, rdi
	mov	rcx, rbx
	call	Subtruct_X_1W
	mov	rcx, QWORD PTR nz$[rsp]
	mov	ebx, eax
	test	eax, eax
	je	SHORT $LN15@PMC_Subtru

; 271  :             {
; 272  :                 DeallocateNumber(nz);

	call	DeallocateNumber

; 273  :                 return (result == PMC_STATUS_INTERNAL_BORROW ? PMC_STATUS_OVERFLOW : result);

	mov	eax, -2
	cmp	ebx, -258				; fffffffffffffefeH
	cmove	ebx, eax
	mov	eax, ebx

; 291  : }

	mov	rbx, QWORD PTR [rsp+56]
	mov	rsi, QWORD PTR [rsp+64]
	add	rsp, 32					; 00000020H
	pop	rdi
	ret	0
$LN15@PMC_Subtru:

; 274  :             }
; 275  :             if ((result = CheckBlockLight(nz->BLOCK, nz_light_check_code)) != PMC_STATUS_OK)

	mov	rdx, QWORD PTR nz_light_check_code$1[rsp]
	mov	rcx, QWORD PTR [rcx+48]
	call	CheckBlockLight
	test	eax, eax
	jne	SHORT $LN1@PMC_Subtru

; 276  :                 return (result);
; 277  :             CommitNumber(nz);

	mov	rcx, QWORD PTR nz$[rsp]
	call	CommitNumber

; 278  :             if (nz->IS_ZERO)

	mov	rax, QWORD PTR nz$[rsp]
	test	BYTE PTR [rax+32], 2
	je	SHORT $LN17@PMC_Subtru

; 279  :             {
; 280  :                 DeallocateNumber(nz);

	mov	rcx, rax
	call	DeallocateNumber

; 281  :                 nz = &number_zero;
; 282  :             }
; 283  :         }
; 284  :         *o = nz;
; 285  :     }
; 286  : #ifdef _DEBUG
; 287  :     if ((result = CheckNumber(*o)) != PMC_STATUS_OK)
; 288  :         return (result);
; 289  : #endif
; 290  :     return (PMC_STATUS_OK);

	lea	rax, OFFSET FLAT:number_zero
$LN17@PMC_Subtru:
	mov	QWORD PTR [rsi], rax
	xor	eax, eax

; 291  : }

	mov	rbx, QWORD PTR [rsp+56]
	mov	rsi, QWORD PTR [rsp+64]
	add	rsp, 32					; 00000020H
	pop	rdi
	ret	0
$LN23@PMC_Subtru:

; 217  :         return (PMC_STATUS_ARGUMENT_ERROR);

	mov	eax, -1
$LN1@PMC_Subtru:

; 291  : }

	mov	rbx, QWORD PTR [rsp+56]
	mov	rsi, QWORD PTR [rsp+64]
	add	rsp, 32					; 00000020H
	pop	rdi
	ret	0
PMC_Subtruct_X_I ENDP
_TEXT	ENDS
; Function compile flags: /Ogtpy
; File z:\sources\lunor\repos\rougemeilland\palmtree.math.core.implements\palmtree.math.core.implements\pmc_subtruct.c
;	COMDAT Initialize_Subtruct
_TEXT	SEGMENT
feature$ = 8
Initialize_Subtruct PROC				; COMDAT

; 515  :     return (PMC_STATUS_OK);

	xor	eax, eax

; 516  : }

	ret	0
Initialize_Subtruct ENDP
_TEXT	ENDS
END
