; Listing generated by Microsoft (R) Optimizing Compiler Version 19.16.27026.1 

include listing.inc

INCLUDELIB MSVCRT
INCLUDELIB OLDNAMES

PUBLIC	DivRem_X_1W
PUBLIC	DivRem_X_X
PUBLIC	Initialize_DivRem
PUBLIC	PMC_DivRem_I_X
PUBLIC	PMC_DivRem_L_X
PUBLIC	PMC_DivRem_X_I
PUBLIC	PMC_DivRem_X_L
PUBLIC	PMC_DivRem_X_X
EXTRN	AllocateBlock:PROC
EXTRN	DeallocateBlock:PROC
EXTRN	CheckBlockLight:PROC
EXTRN	AllocateNumber:PROC
EXTRN	DeallocateNumber:PROC
EXTRN	CommitNumber:PROC
EXTRN	CheckNumber:PROC
EXTRN	DuplicateNumber:PROC
EXTRN	RightShift_Imp_DIV:PROC
EXTRN	LeftShift_Imp_DIV:PROC
EXTRN	__GSHandlerCheck:PROC
EXTRN	__security_check_cookie:PROC
EXTRN	number_zero:BYTE
EXTRN	statistics_info:BYTE
EXTRN	__security_cookie:QWORD
_BSS	SEGMENT
fp_DivRem_X_X DQ 01H DUP (?)
_BSS	ENDS
;	COMDAT pdata
pdata	SEGMENT
$pdata$DivRem_X_X DD imagerel $LN29
	DD	imagerel $LN29+231
	DD	imagerel $unwind$DivRem_X_X
pdata	ENDS
;	COMDAT pdata
pdata	SEGMENT
$pdata$PMC_DivRem_I_X DD imagerel $LN34
	DD	imagerel $LN34+206
	DD	imagerel $unwind$PMC_DivRem_I_X
pdata	ENDS
;	COMDAT pdata
pdata	SEGMENT
$pdata$PMC_DivRem_L_X DD imagerel $LN72
	DD	imagerel $LN72+523
	DD	imagerel $unwind$PMC_DivRem_L_X
pdata	ENDS
;	COMDAT pdata
pdata	SEGMENT
$pdata$PMC_DivRem_X_I DD imagerel $LN25
	DD	imagerel $LN25+385
	DD	imagerel $unwind$PMC_DivRem_X_I
pdata	ENDS
;	COMDAT pdata
pdata	SEGMENT
$pdata$PMC_DivRem_X_L DD imagerel $LN62
	DD	imagerel $LN62+89
	DD	imagerel $unwind$PMC_DivRem_X_L
pdata	ENDS
;	COMDAT pdata
pdata	SEGMENT
$pdata$1$PMC_DivRem_X_L DD imagerel $LN62+89
	DD	imagerel $LN62+496
	DD	imagerel $chain$1$PMC_DivRem_X_L
pdata	ENDS
;	COMDAT pdata
pdata	SEGMENT
$pdata$2$PMC_DivRem_X_L DD imagerel $LN62+496
	DD	imagerel $LN62+507
	DD	imagerel $chain$2$PMC_DivRem_X_L
pdata	ENDS
;	COMDAT pdata
pdata	SEGMENT
$pdata$3$PMC_DivRem_X_L DD imagerel $LN62+507
	DD	imagerel $LN62+674
	DD	imagerel $chain$3$PMC_DivRem_X_L
pdata	ENDS
;	COMDAT pdata
pdata	SEGMENT
$pdata$4$PMC_DivRem_X_L DD imagerel $LN62+674
	DD	imagerel $LN62+690
	DD	imagerel $chain$4$PMC_DivRem_X_L
pdata	ENDS
;	COMDAT pdata
pdata	SEGMENT
$pdata$PMC_DivRem_X_X DD imagerel $LN44
	DD	imagerel $LN44+120
	DD	imagerel $unwind$PMC_DivRem_X_X
pdata	ENDS
;	COMDAT pdata
pdata	SEGMENT
$pdata$0$PMC_DivRem_X_X DD imagerel $LN44+120
	DD	imagerel $LN44+434
	DD	imagerel $chain$0$PMC_DivRem_X_X
pdata	ENDS
;	COMDAT pdata
pdata	SEGMENT
$pdata$1$PMC_DivRem_X_X DD imagerel $LN44+434
	DD	imagerel $LN44+456
	DD	imagerel $chain$1$PMC_DivRem_X_X
pdata	ENDS
;	COMDAT pdata
pdata	SEGMENT
$pdata$2$PMC_DivRem_X_X DD imagerel $LN44+456
	DD	imagerel $LN44+777
	DD	imagerel $chain$2$PMC_DivRem_X_X
pdata	ENDS
;	COMDAT pdata
pdata	SEGMENT
$pdata$3$PMC_DivRem_X_X DD imagerel $LN44+777
	DD	imagerel $LN44+787
	DD	imagerel $chain$3$PMC_DivRem_X_X
pdata	ENDS
;	COMDAT pdata
pdata	SEGMENT
$pdata$_COPY_MEMORY_UNIT DD imagerel _COPY_MEMORY_UNIT
	DD	imagerel _COPY_MEMORY_UNIT+33
	DD	imagerel $unwind$_COPY_MEMORY_UNIT
pdata	ENDS
;	COMDAT pdata
pdata	SEGMENT
$pdata$_COPY_MEMORY_UNIT_DIV DD imagerel _COPY_MEMORY_UNIT_DIV
	DD	imagerel _COPY_MEMORY_UNIT_DIV+32
	DD	imagerel $unwind$_COPY_MEMORY_UNIT_DIV
pdata	ENDS
;	COMDAT pdata
pdata	SEGMENT
$pdata$CalculateQ_ DD imagerel CalculateQ_
	DD	imagerel CalculateQ_+252
	DD	imagerel $unwind$CalculateQ_
pdata	ENDS
;	COMDAT pdata
pdata	SEGMENT
$pdata$CalculateQ_X DD imagerel CalculateQ_X
	DD	imagerel CalculateQ_X+252
	DD	imagerel $unwind$CalculateQ_X
pdata	ENDS
;	COMDAT pdata
pdata	SEGMENT
$pdata$_MULTIPLY_DIGIT_UNIT_DIV DD imagerel _MULTIPLY_DIGIT_UNIT_DIV
	DD	imagerel _MULTIPLY_DIGIT_UNIT_DIV+64
	DD	imagerel $unwind$_MULTIPLY_DIGIT_UNIT_DIV
pdata	ENDS
;	COMDAT pdata
pdata	SEGMENT
$pdata$_MULTIPLYX_DIGIT_UNIT_DIV DD imagerel _MULTIPLYX_DIGIT_UNIT_DIV
	DD	imagerel _MULTIPLYX_DIGIT_UNIT_DIV+71
	DD	imagerel $unwind$_MULTIPLYX_DIGIT_UNIT_DIV
pdata	ENDS
;	COMDAT pdata
pdata	SEGMENT
$pdata$SubtructOneLine DD imagerel SubtructOneLine
	DD	imagerel SubtructOneLine+3192
	DD	imagerel $unwind$SubtructOneLine
pdata	ENDS
;	COMDAT pdata
pdata	SEGMENT
$pdata$SubtructOneLineX DD imagerel SubtructOneLineX
	DD	imagerel SubtructOneLineX+3382
	DD	imagerel $unwind$SubtructOneLineX
pdata	ENDS
;	COMDAT pdata
pdata	SEGMENT
$pdata$AddOneLine DD imagerel AddOneLine
	DD	imagerel AddOneLine+855
	DD	imagerel $unwind$AddOneLine
pdata	ENDS
;	COMDAT pdata
pdata	SEGMENT
$pdata$AddOneLineX DD imagerel AddOneLineX
	DD	imagerel AddOneLineX+927
	DD	imagerel $unwind$AddOneLineX
pdata	ENDS
;	COMDAT pdata
pdata	SEGMENT
$pdata$DivRem_X_X_using_ADC_MUL DD imagerel DivRem_X_X_using_ADC_MUL
	DD	imagerel DivRem_X_X_using_ADC_MUL+734
	DD	imagerel $unwind$DivRem_X_X_using_ADC_MUL
pdata	ENDS
;	COMDAT pdata
pdata	SEGMENT
$pdata$DivRem_X_X_using_ADX_MULX DD imagerel DivRem_X_X_using_ADX_MULX
	DD	imagerel DivRem_X_X_using_ADX_MULX+734
	DD	imagerel $unwind$DivRem_X_X_using_ADX_MULX
pdata	ENDS
;	COMDAT xdata
xdata	SEGMENT
$unwind$DivRem_X_X_using_ADX_MULX DD 091101H
	DD	0f00da211H
	DD	0d009e00bH
	DD	07005c007H
	DD	050036004H
	DD	03002H
xdata	ENDS
;	COMDAT xdata
xdata	SEGMENT
$unwind$DivRem_X_X_using_ADC_MUL DD 091101H
	DD	0f00da211H
	DD	0d009e00bH
	DD	07005c007H
	DD	050036004H
	DD	03002H
xdata	ENDS
;	COMDAT xdata
xdata	SEGMENT
$unwind$AddOneLineX DD 040a01H
	DD	06340aH
	DD	07006320aH
xdata	ENDS
;	COMDAT xdata
xdata	SEGMENT
$unwind$AddOneLine DD 020501H
	DD	013405H
xdata	ENDS
;	COMDAT xdata
xdata	SEGMENT
$unwind$SubtructOneLineX DD 0a2001H
	DD	03f0120H
	DD	0e00ff011H
	DD	0c00bd00dH
	DD	060087009H
	DD	050063007H
xdata	ENDS
;	COMDAT xdata
xdata	SEGMENT
$unwind$SubtructOneLine DD 0a2001H
	DD	03f0120H
	DD	0e00ff011H
	DD	0c00bd00dH
	DD	060087009H
	DD	050063007H
xdata	ENDS
;	COMDAT xdata
xdata	SEGMENT
$unwind$_MULTIPLYX_DIGIT_UNIT_DIV DD 020501H
	DD	023405H
xdata	ENDS
;	COMDAT xdata
xdata	SEGMENT
$unwind$_MULTIPLY_DIGIT_UNIT_DIV DD 020501H
	DD	023405H
xdata	ENDS
;	COMDAT xdata
xdata	SEGMENT
$unwind$CalculateQ_X DD 050701H
	DD	07005e007H
	DD	050036004H
	DD	03002H
xdata	ENDS
;	COMDAT xdata
xdata	SEGMENT
$unwind$CalculateQ_ DD 050701H
	DD	07005e007H
	DD	050036004H
	DD	03002H
xdata	ENDS
;	COMDAT xdata
xdata	SEGMENT
$unwind$_COPY_MEMORY_UNIT_DIV DD 040a01H
	DD	02740aH
	DD	016405H
xdata	ENDS
;	COMDAT xdata
xdata	SEGMENT
$unwind$_COPY_MEMORY_UNIT DD 040a01H
	DD	02740aH
	DD	016405H
xdata	ENDS
;	COMDAT xdata
xdata	SEGMENT
$chain$3$PMC_DivRem_X_X DD 021H
	DD	imagerel $LN44
	DD	imagerel $LN44+120
	DD	imagerel $unwind$PMC_DivRem_X_X
xdata	ENDS
;	COMDAT xdata
xdata	SEGMENT
$chain$2$PMC_DivRem_X_X DD 020021H
	DD	0136400H
	DD	imagerel $LN44
	DD	imagerel $LN44+120
	DD	imagerel $unwind$PMC_DivRem_X_X
xdata	ENDS
;	COMDAT xdata
xdata	SEGMENT
$chain$1$PMC_DivRem_X_X DD 021H
	DD	imagerel $LN44
	DD	imagerel $LN44+120
	DD	imagerel $unwind$PMC_DivRem_X_X
xdata	ENDS
;	COMDAT xdata
xdata	SEGMENT
$chain$0$PMC_DivRem_X_X DD 020821H
	DD	0136408H
	DD	imagerel $LN44
	DD	imagerel $LN44+120
	DD	imagerel $unwind$PMC_DivRem_X_X
xdata	ENDS
;	COMDAT xdata
xdata	SEGMENT
$unwind$PMC_DivRem_X_X DD 081601H
	DD	0157416H
	DD	0143416H
	DD	0f00fd216H
	DD	0500be00dH
xdata	ENDS
;	COMDAT xdata
xdata	SEGMENT
$chain$4$PMC_DivRem_X_L DD 021H
	DD	imagerel $LN62
	DD	imagerel $LN62+89
	DD	imagerel $unwind$PMC_DivRem_X_L
xdata	ENDS
;	COMDAT xdata
xdata	SEGMENT
$chain$3$PMC_DivRem_X_L DD 040021H
	DD	016f400H
	DD	015e400H
	DD	imagerel $LN62
	DD	imagerel $LN62+89
	DD	imagerel $unwind$PMC_DivRem_X_L
xdata	ENDS
;	COMDAT xdata
xdata	SEGMENT
$chain$2$PMC_DivRem_X_L DD 021H
	DD	imagerel $LN62
	DD	imagerel $LN62+89
	DD	imagerel $unwind$PMC_DivRem_X_L
xdata	ENDS
;	COMDAT xdata
xdata	SEGMENT
$chain$1$PMC_DivRem_X_L DD 041021H
	DD	016f410H
	DD	015e408H
	DD	imagerel $LN62
	DD	imagerel $LN62+89
	DD	imagerel $unwind$PMC_DivRem_X_L
xdata	ENDS
;	COMDAT xdata
xdata	SEGMENT
$unwind$PMC_DivRem_X_L DD 060e01H
	DD	0c007d20eH
	DD	060047005H
	DD	050023003H
xdata	ENDS
;	COMDAT xdata
xdata	SEGMENT
$unwind$PMC_DivRem_X_I DD 081501H
	DD	0d7415H
	DD	0c6415H
	DD	0b3415H
	DD	0e0117215H
xdata	ENDS
;	COMDAT xdata
xdata	SEGMENT
$unwind$PMC_DivRem_L_X DD 072119H
	DD	0140113H
	DD	07005e007H
	DD	030036004H
	DD	05002H
	DD	imagerel __GSHandlerCheck
	DD	098H
xdata	ENDS
;	COMDAT xdata
xdata	SEGMENT
$unwind$PMC_DivRem_I_X DD 081401H
	DD	096414H
	DD	085414H
	DD	063414H
	DD	070103214H
xdata	ENDS
;	COMDAT xdata
xdata	SEGMENT
$unwind$DivRem_X_X DD 040a01H
	DD	0b640aH
	DD	07006720aH
xdata	ENDS
; Function compile flags: /Ogtpy
; File z:\sources\lunor\repos\rougemeilland\palmtree.math.core.implements\palmtree.math.core.implements\pmc_divrem.c
; File z:\sources\lunor\repos\rougemeilland\palmtree.math.core.implements\palmtree.math.core.implements\pmc_internal.h
; File z:\sources\lunor\repos\rougemeilland\palmtree.math.core.implements\palmtree.math.core.implements\pmc_divrem.c
; File z:\sources\lunor\repos\rougemeilland\palmtree.math.core.implements\palmtree.math.core.implements\pmc_internal.h
; File z:\sources\lunor\repos\rougemeilland\palmtree.math.core.implements\palmtree.math.core.implements\pmc_divrem.c
; File z:\sources\lunor\repos\rougemeilland\palmtree.math.core.implements\palmtree.math.core.implements\pmc_internal.h
; File z:\sources\lunor\repos\rougemeilland\palmtree.math.core.implements\palmtree.math.core.implements\pmc_divrem.c
; File z:\sources\lunor\repos\rougemeilland\palmtree.math.core.implements\palmtree.math.core.implements\pmc_internal.h
; File z:\sources\lunor\repos\rougemeilland\palmtree.math.core.implements\palmtree.math.core.implements\pmc_divrem.c
; File z:\sources\lunor\repos\rougemeilland\palmtree.math.core.implements\palmtree.math.core.implements\pmc_internal.h
; File z:\sources\lunor\repos\rougemeilland\palmtree.math.core.implements\palmtree.math.core.implements\pmc_divrem.c
;	COMDAT DivRem_X_X_using_ADX_MULX
_TEXT	SEGMENT
value$1$ = 48
tv960 = 56
tv965 = 64
tv964 = 72
$T1 = 160
u_buf$ = 160
rh_hi$2 = 168
u_buf_len$ = 168
rh_mi$3 = 176
v_buf$ = 176
pos$4 = 184
v_buf_len$ = 184
work_v_buf$ = 192
rh_mi$5 = 200
q_buf$ = 200
rh_hi$6 = 208
r_buf$ = 208
DivRem_X_X_using_ADX_MULX PROC				; COMDAT

; 974  : {

	push	rbx
	push	rbp
	push	rsi
	push	rdi
	push	r12
	push	r13
	push	r14
	push	r15
	sub	rsp, 88					; 00000058H

; 975  :     // u および v の最上位ワードは 0 でありうることに注意すること。
; 976  :     if (sizeof(__UNIT_TYPE) != sizeof(__UNIT_TYPE_DIV))
; 977  :     {
; 978  :         while (u_buf[u_buf_len - 1] == 0)

	lea	rax, QWORD PTR [rcx-4]
	mov	rbp, r9
	cmp	DWORD PTR [rax+rdx*4], 0
	lea	rax, QWORD PTR [rax+rdx*4]
	mov	r14, r8
	mov	rbx, rdx
	mov	rsi, rcx
	jne	SHORT $LN99@DivRem_X_X
	npad	5
$LL2@DivRem_X_X:

; 979  :             --u_buf_len;

	dec	rbx
	lea	rax, QWORD PTR [rax-4]
	cmp	DWORD PTR [rax], 0
	je	SHORT $LL2@DivRem_X_X
$LN99@DivRem_X_X:

; 980  :         while (v_buf[v_buf_len - 1] == 0)

	lea	rax, QWORD PTR [r9-1]
	cmp	DWORD PTR [r8+rax*4], 0
	lea	rax, QWORD PTR [r8+rax*4]
	jne	SHORT $LN5@DivRem_X_X
	npad	5
$LL4@DivRem_X_X:

; 981  :             --v_buf_len;

	dec	rbp
	lea	rax, QWORD PTR [rax-4]
	cmp	DWORD PTR [rax], 0
	je	SHORT $LL4@DivRem_X_X
$LN5@DivRem_X_X:

; 982  :     }
; 983  : 
; 984  : #ifdef _DEBUG
; 985  :     if (v_buf[v_buf_len - 1] == 0)
; 986  :     {
; 987  :         ; // このルートには到達しないはず。デバッグ用。
; 988  :     }
; 989  : #endif
; 990  : 
; 991  : #ifdef DO_TRACE
; 992  :     ReportLabel("uとvのシフト");
; 993  :     ReportDump("u", (__UNIT_TYPE*)u_buf, _DIVIDE_CEILING_UNIT(u_buf_len * sizeof(__UNIT_TYPE_DIV), sizeof(__UNIT_TYPE)));
; 994  :     ReportDump("v", (__UNIT_TYPE*)v_buf, _DIVIDE_CEILING_UNIT(v_buf_len * sizeof(__UNIT_TYPE_DIV), sizeof(__UNIT_TYPE)));
; 995  : #endif
; 996  : 
; 997  :     __UNIT_TYPE_DIV d_factor = _LZCNT_ALT_UNIT_DIV(v_buf[v_buf_len - 1]);

	mov	eax, DWORD PTR [r8+rbp*4-4]
; File z:\sources\lunor\repos\rougemeilland\palmtree.math.core.implements\palmtree.math.core.implements\pmc_internal.h

; 935  :     if (x == 0)

	test	eax, eax
	jne	$LN18@DivRem_X_X

; 936  :         return (sizeof(x) * 8);

	mov	ecx, 32					; 00000020H
	mov	DWORD PTR $T1[rsp], ecx
$LN10@DivRem_X_X:
; File z:\sources\lunor\repos\rougemeilland\palmtree.math.core.implements\palmtree.math.core.implements\pmc_divrem.c

; 1006 :         LeftShift_Imp_DIV(u_buf, u_buf_len, d_factor, r_buf, FALSE);

	mov	r15, QWORD PTR r_buf$[rsp]
	xor	r13d, r13d
	mov	edi, ecx
	mov	r9, r15
	mov	r8d, ecx
	mov	rdx, rbx
	mov	rcx, rsi
	mov	DWORD PTR [rsp+32], r13d
	call	LeftShift_Imp_DIV

; 1007 :         LeftShift_Imp_DIV(v_buf, v_buf_len, d_factor, work_v_buf, FALSE);

	mov	r12, QWORD PTR work_v_buf$[rsp]
	mov	r8d, edi
	mov	r9, r12
	mov	DWORD PTR [rsp+32], r13d
	mov	rdx, rbp
	mov	rcx, r14
	call	LeftShift_Imp_DIV
$LN11@DivRem_X_X:

; 1008 :     }
; 1009 : #ifdef DO_TRACE
; 1010 :     ReportDump("⇒u", (__UNIT_TYPE*)r_buf, _DIVIDE_CEILING_UNIT((u_buf_len + 1) * sizeof(__UNIT_TYPE_DIV), sizeof(__UNIT_TYPE)));
; 1011 :     ReportDump("⇒v", (__UNIT_TYPE*)work_v_buf, _DIVIDE_CEILING_UNIT(v_buf_len * sizeof(__UNIT_TYPE_DIV), sizeof(__UNIT_TYPE)));
; 1012 : #endif
; 1013 : 
; 1014 :     __UNIT_TYPE_DIV* work_u_buf = r_buf;
; 1015 :     __UNIT_TYPE q_index = u_buf_len - v_buf_len;

	mov	rax, QWORD PTR q_buf$[rsp]
	lea	rdx, QWORD PTR [rbp-1]
	mov	ecx, 2
	lea	rdi, QWORD PTR [rbp-2]
	sub	rcx, rbp
	lea	rdx, QWORD PTR [r12+rdx*4]
	shl	rcx, 2
	lea	rdi, QWORD PTR [r12+rdi*4]
	mov	r14, rbx
	mov	QWORD PTR tv965[rsp], rdx
	sub	rcx, r15
	mov	QWORD PTR tv964[rsp], rdi
	sub	r14, rbp
	lea	rsi, QWORD PTR [rbx-2]
	add	rax, rcx
	lea	rsi, QWORD PTR [r15+rsi*4]
	mov	QWORD PTR tv960[rsp], rax
	npad	3
$LL6@DivRem_X_X:

; 370  :     __UNIT_TYPE_DIV v1 = v_buf[v_buf_len - 1];

	mov	eax, DWORD PTR [rdx]
	mov	r8d, DWORD PTR [rsi+8]

; 371  :     __UNIT_TYPE_DIV v2 = v_buf[v_buf_len - 2];

	mov	r13d, eax
	mov	r10d, DWORD PTR [rsi+4]
	mov	r12d, DWORD PTR [rsi]
	mov	r9d, DWORD PTR [rdi]

; 249  :     if (uj == v1)

	cmp	r8d, eax
	jne	SHORT $LN29@DivRem_X_X

; 250  :         return (-1);

	mov	edi, -1					; ffffffffH
	jmp	SHORT $LN28@DivRem_X_X
$LN18@DivRem_X_X:
; File z:\sources\lunor\repos\rougemeilland\palmtree.math.core.implements\palmtree.math.core.implements\pmc_internal.h

; 949  :     _BitScanReverse(&pos, x);

	bsr	eax, eax

; 950  : #elif defined(__GNUC__)
; 951  :     _UINT64_T pos;
; 952  :     __asm__("bsrq %1, %0" : "=r"(pos) : "rm"(x));
; 953  : #else
; 954  : #error unknown compiler
; 955  : #endif
; 956  : #else
; 957  : #error unknown platform
; 958  : #endif
; 959  :     return (sizeof(x) * 8 - 1 - pos);

	mov	ecx, 31
	sub	ecx, eax
	mov	DWORD PTR pos$4[rsp], eax
	mov	DWORD PTR $T1[rsp], ecx
; File z:\sources\lunor\repos\rougemeilland\palmtree.math.core.implements\palmtree.math.core.implements\pmc_divrem.c

; 998  :     if (d_factor == 0)

	jne	$LN10@DivRem_X_X
; File z:\sources\lunor\repos\rougemeilland\palmtree.math.core.implements\palmtree.math.core.implements\pmc_internal.h

; 358  :     __movsd((unsigned long *)d, (unsigned long *)s, (unsigned long)count);

	mov	r15, QWORD PTR r_buf$[rsp]
	mov	r12, QWORD PTR work_v_buf$[rsp]
	mov	rdi, r15
	mov	ecx, ebx
	rep movsd
	mov	ecx, ebp
	mov	rdi, r12
	mov	rsi, r14
	rep movsd
; File z:\sources\lunor\repos\rougemeilland\palmtree.math.core.implements\palmtree.math.core.implements\pmc_divrem.c

; 1002 :         r_buf[u_buf_len] = 0;

	mov	DWORD PTR [r15+rbx*4], 0

; 1003 :     }

	jmp	$LN11@DivRem_X_X
$LN29@DivRem_X_X:
; File z:\sources\lunor\repos\rougemeilland\palmtree.math.core.implements\palmtree.math.core.implements\pmc_internal.h

; 1062 :     _InterlockedIncrement(&statistics_info.COUNT_DIV32);

	lock inc DWORD PTR statistics_info+12

; 454  :     return (((_UINT64_T)value_high << 32) | value_low);

	mov	rax, r8

; 667  :         return ((_UINT32_T)(t / v));

	xor	edx, edx

; 454  :     return (((_UINT64_T)value_high << 32) | value_low);

	shl	rax, 32					; 00000020H
	or	rax, r10

; 667  :         return ((_UINT32_T)(t / v));

	div	r13
	mov	rdi, rax
$LN28@DivRem_X_X:

; 640  :     return (_FROMDWORDTOWORD((_UINT64_T)u * v, w_hi));

	mov	rax, r9
	mov	edx, edi
	imul	rax, rdx
	imul	rdx, r13
	mov	QWORD PTR value$1$[rsp], rax
	mov	r11, r9

; 459  :     *result_high = (_UINT32_T)(value >> 32);

	mov	r9, rax

; 558  :     return (_subborrow_u32(borrow, u, v, w));

	mov	eax, r10d

; 459  :     *result_high = (_UINT32_T)(value >> 32);

	shr	r9, 32					; 00000020H

; 558  :     return (_subborrow_u32(borrow, u, v, w));

	sub	eax, edx
	mov	DWORD PTR rh_mi$5[rsp], eax
	mov	eax, r8d
	setb	cl

; 459  :     *result_high = (_UINT32_T)(value >> 32);

	shr	rdx, 32					; 00000020H

; 558  :     return (_subborrow_u32(borrow, u, v, w));

	add	cl, -1
	sbb	eax, edx
	mov	DWORD PTR rh_hi$6[rsp], eax

; 1097 :     _InterlockedExchangeAdd(&statistics_info.COUNT_MULTI32, value);

	mov	eax, 2
	lock xadd DWORD PTR statistics_info+4, eax
; File z:\sources\lunor\repos\rougemeilland\palmtree.math.core.implements\palmtree.math.core.implements\pmc_divrem.c

; 316  :     if (rh_hi > 0)

	cmp	DWORD PTR rh_hi$6[rsp], 0
	ja	SHORT $LN110@DivRem_X_X

; 317  :     {
; 318  : #ifdef DO_TRACE
; 319  :         ReportVar("result", 0);
; 320  : #endif
; 321  :         return (FALSE);
; 322  :     }
; 323  :     else if (lh_mi > rh_mi)

	cmp	r9d, DWORD PTR rh_mi$5[rsp]
	ja	SHORT $LN25@DivRem_X_X

; 324  :     {
; 325  : #ifdef DO_TRACE
; 326  :         ReportVar("result", 1);
; 327  : #endif
; 328  :         return (TRUE);
; 329  :     }
; 330  :     else if (lh_mi < rh_mi)

	jb	SHORT $LN110@DivRem_X_X

; 380  :     if (!CheckQ_X(q_, uj, uj_1, uj_2, v1, v2))

	cmp	DWORD PTR value$1$[rsp], r12d
	jbe	SHORT $LN110@DivRem_X_X
$LN25@DivRem_X_X:

; 381  :         return (q_);
; 382  :     --q_;

	dec	edi
; File z:\sources\lunor\repos\rougemeilland\palmtree.math.core.implements\palmtree.math.core.implements\pmc_internal.h

; 640  :     return (_FROMDWORDTOWORD((_UINT64_T)u * v, w_hi));

	mov	ecx, edi
	imul	r11, rcx
	imul	rcx, r13

; 459  :     *result_high = (_UINT32_T)(value >> 32);

	mov	rdx, r11
	shr	rdx, 32					; 00000020H

; 558  :     return (_subborrow_u32(borrow, u, v, w));

	sub	r10d, ecx
	mov	DWORD PTR rh_mi$3[rsp], r10d
	setb	al

; 459  :     *result_high = (_UINT32_T)(value >> 32);

	shr	rcx, 32					; 00000020H

; 558  :     return (_subborrow_u32(borrow, u, v, w));

	add	al, -1

; 1097 :     _InterlockedExchangeAdd(&statistics_info.COUNT_MULTI32, value);

	mov	eax, 2

; 558  :     return (_subborrow_u32(borrow, u, v, w));

	sbb	r8d, ecx
	mov	DWORD PTR rh_hi$2[rsp], r8d

; 1097 :     _InterlockedExchangeAdd(&statistics_info.COUNT_MULTI32, value);

	lock xadd DWORD PTR statistics_info+4, eax
; File z:\sources\lunor\repos\rougemeilland\palmtree.math.core.implements\palmtree.math.core.implements\pmc_divrem.c

; 316  :     if (rh_hi > 0)

	cmp	DWORD PTR rh_hi$2[rsp], 0
	ja	SHORT $LN110@DivRem_X_X

; 317  :     {
; 318  : #ifdef DO_TRACE
; 319  :         ReportVar("result", 0);
; 320  : #endif
; 321  :         return (FALSE);
; 322  :     }
; 323  :     else if (lh_mi > rh_mi)

	cmp	edx, DWORD PTR rh_mi$3[rsp]
	ja	SHORT $LN26@DivRem_X_X

; 324  :     {
; 325  : #ifdef DO_TRACE
; 326  :         ReportVar("result", 1);
; 327  : #endif
; 328  :         return (TRUE);
; 329  :     }
; 330  :     else if (lh_mi < rh_mi)

	jb	SHORT $LN110@DivRem_X_X

; 383  :     if (!CheckQ_X(q_, uj, uj_1, uj_2, v1, v2))

	cmp	r11d, r12d
	jbe	SHORT $LN110@DivRem_X_X
$LN26@DivRem_X_X:

; 384  :         return (q_);
; 385  :     --q_;

	dec	edi
$LN110@DivRem_X_X:

; 1016 : 
; 1017 :     for (;;)
; 1018 :     {
; 1019 :         __UNIT_TYPE_DIV q_ = CalculateQ_X(work_u_buf, work_v_buf, v_buf_len, q_index);
; 1020 : 
; 1021 : #ifdef DO_TRACE
; 1022 :         ReportLabel("uの減算");
; 1023 :         ReportDump("u", (__UNIT_TYPE*)work_u_buf, _DIVIDE_CEILING_UNIT(u_buf_len * sizeof(__UNIT_TYPE_DIV), sizeof(__UNIT_TYPE)));
; 1024 :         ReportDump("v", (__UNIT_TYPE*)work_v_buf, _DIVIDE_CEILING_UNIT(v_buf_len * sizeof(__UNIT_TYPE_DIV), sizeof(__UNIT_TYPE)));
; 1025 :         ReportVar("q_", q_);
; 1026 : #endif
; 1027 :         if (SubtructOneLineX(work_u_buf, u_buf_len, work_v_buf, v_buf_len, q_index, q_))

	mov	r12, QWORD PTR work_v_buf$[rsp]
	mov	r9, rbp
	mov	r8, r12
	mov	DWORD PTR [rsp+40], edi
	mov	rdx, rbx
	mov	QWORD PTR [rsp+32], r14
	mov	rcx, r15
	call	SubtructOneLineX
	test	eax, eax
	je	SHORT $LN12@DivRem_X_X

; 1028 :         {
; 1029 : #ifdef DO_TRACE
; 1030 :             ReportDump("⇒u", (__UNIT_TYPE*)work_u_buf, _DIVIDE_CEILING_UNIT(u_buf_len * sizeof(__UNIT_TYPE_DIV), sizeof(__UNIT_TYPE)));
; 1031 : #endif
; 1032 :             // 桁借りが発生した場合
; 1033 : 
; 1034 : #ifdef DO_TRACE
; 1035 :             ReportLabel("uの加え戻しとq_の更新");
; 1036 :             ReportDump("u", (__UNIT_TYPE*)work_u_buf, _DIVIDE_CEILING_UNIT(u_buf_len * sizeof(__UNIT_TYPE_DIV), sizeof(__UNIT_TYPE)));
; 1037 : #endif
; 1038 :             --q_;

	dec	edi

; 1039 :             AddOneLineX(work_u_buf, u_buf_len, work_v_buf, v_buf_len, q_index);

	mov	QWORD PTR [rsp+32], r14
	mov	r9, rbp
	mov	r8, r12
	mov	rdx, rbx
	mov	rcx, r15
	call	AddOneLineX
$LN12@DivRem_X_X:

; 1040 : #ifdef DO_TRACE
; 1041 :             ReportVar("q_", q_);
; 1042 :             ReportDump("⇒u", (__UNIT_TYPE*)work_u_buf, _DIVIDE_CEILING_UNIT(u_buf_len * sizeof(__UNIT_TYPE_DIV), sizeof(__UNIT_TYPE)));
; 1043 : #endif
; 1044 :         }
; 1045 :         else
; 1046 :         {
; 1047 : #ifdef DO_TRACE
; 1048 :             ReportDump("⇒u", (__UNIT_TYPE*)work_u_buf, _DIVIDE_CEILING_UNIT(u_buf_len * sizeof(__UNIT_TYPE_DIV), sizeof(__UNIT_TYPE)));
; 1049 : #endif
; 1050 :         }
; 1051 : 
; 1052 :         q_buf[q_index] = q_;

	mov	rax, QWORD PTR tv960[rsp]
	mov	DWORD PTR [rsi+rax], edi

; 1053 : 
; 1054 : #ifdef DO_TRACE
; 1055 :         ReportLabel("qの現在値");
; 1056 :         ReportDump("q", (__UNIT_TYPE*)q_buf, _DIVIDE_CEILING_UNIT((u_buf_len - v_buf_len) * sizeof(__UNIT_TYPE_DIV), sizeof(__UNIT_TYPE)));
; 1057 : #endif
; 1058 : 
; 1059 :         if (q_index == 0)

	test	r14, r14
	je	SHORT $LN101@DivRem_X_X

; 1060 :             break;
; 1061 :         --q_index;
; 1062 :     }

	mov	rdx, QWORD PTR tv965[rsp]
	dec	r14
	mov	rdi, QWORD PTR tv964[rsp]
	sub	rsi, 4
	jmp	$LL6@DivRem_X_X
$LN101@DivRem_X_X:

; 1063 : 
; 1064 :     if (d_factor > 0)

	mov	eax, DWORD PTR $T1[rsp]
	test	eax, eax
	je	SHORT $LN15@DivRem_X_X

; 1065 :         RightShift_Imp_DIV(work_u_buf, u_buf_len + 1, d_factor, work_u_buf, FALSE);

	mov	r8d, eax
	mov	DWORD PTR [rsp+32], 0
	lea	rdx, QWORD PTR [rbx+1]
	mov	r9, r15
	mov	rcx, r15
	call	RightShift_Imp_DIV
$LN15@DivRem_X_X:

; 1066 : 
; 1067 : #ifdef DO_TRACE
; 1068 :     ReportLabel("計算終了");
; 1069 :     ReportDump("q", (__UNIT_TYPE*)q_buf, _DIVIDE_CEILING_UNIT((u_buf_len - v_buf_len) * sizeof(__UNIT_TYPE_DIV), sizeof(__UNIT_TYPE)));
; 1070 :     ReportDump("r", (__UNIT_TYPE*)work_u_buf, _DIVIDE_CEILING_UNIT((u_buf_len + 1) * sizeof(__UNIT_TYPE_DIV), sizeof(__UNIT_TYPE)));
; 1071 : #endif
; 1072 : }

	add	rsp, 88					; 00000058H
	pop	r15
	pop	r14
	pop	r13
	pop	r12
	pop	rdi
	pop	rsi
	pop	rbp
	pop	rbx
	ret	0
DivRem_X_X_using_ADX_MULX ENDP
_TEXT	ENDS
; Function compile flags: /Ogtpy
; File z:\sources\lunor\repos\rougemeilland\palmtree.math.core.implements\palmtree.math.core.implements\pmc_divrem.c
; File z:\sources\lunor\repos\rougemeilland\palmtree.math.core.implements\palmtree.math.core.implements\pmc_internal.h
; File z:\sources\lunor\repos\rougemeilland\palmtree.math.core.implements\palmtree.math.core.implements\pmc_divrem.c
; File z:\sources\lunor\repos\rougemeilland\palmtree.math.core.implements\palmtree.math.core.implements\pmc_internal.h
; File z:\sources\lunor\repos\rougemeilland\palmtree.math.core.implements\palmtree.math.core.implements\pmc_divrem.c
; File z:\sources\lunor\repos\rougemeilland\palmtree.math.core.implements\palmtree.math.core.implements\pmc_internal.h
; File z:\sources\lunor\repos\rougemeilland\palmtree.math.core.implements\palmtree.math.core.implements\pmc_divrem.c
; File z:\sources\lunor\repos\rougemeilland\palmtree.math.core.implements\palmtree.math.core.implements\pmc_internal.h
; File z:\sources\lunor\repos\rougemeilland\palmtree.math.core.implements\palmtree.math.core.implements\pmc_divrem.c
; File z:\sources\lunor\repos\rougemeilland\palmtree.math.core.implements\palmtree.math.core.implements\pmc_internal.h
; File z:\sources\lunor\repos\rougemeilland\palmtree.math.core.implements\palmtree.math.core.implements\pmc_divrem.c
;	COMDAT DivRem_X_X_using_ADC_MUL
_TEXT	SEGMENT
value$1$ = 48
tv960 = 56
tv965 = 64
tv964 = 72
$T1 = 160
u_buf$ = 160
rh_hi$2 = 168
u_buf_len$ = 168
rh_mi$3 = 176
v_buf$ = 176
pos$4 = 184
v_buf_len$ = 184
work_v_buf$ = 192
rh_mi$5 = 200
q_buf$ = 200
rh_hi$6 = 208
r_buf$ = 208
DivRem_X_X_using_ADC_MUL PROC				; COMDAT

; 918  : {

	push	rbx
	push	rbp
	push	rsi
	push	rdi
	push	r12
	push	r13
	push	r14
	push	r15
	sub	rsp, 88					; 00000058H

; 919  :     // u および v の最上位ワードは 0 でありうることに注意すること。
; 920  :     if (sizeof(__UNIT_TYPE) != sizeof(__UNIT_TYPE_DIV))
; 921  :     {
; 922  :         while (u_buf[u_buf_len - 1] == 0)

	lea	rax, QWORD PTR [rcx-4]
	mov	rbp, r9
	cmp	DWORD PTR [rax+rdx*4], 0
	lea	rax, QWORD PTR [rax+rdx*4]
	mov	r14, r8
	mov	rbx, rdx
	mov	rsi, rcx
	jne	SHORT $LN98@DivRem_X_X
	npad	5
$LL2@DivRem_X_X:

; 923  :             --u_buf_len;

	dec	rbx
	lea	rax, QWORD PTR [rax-4]
	cmp	DWORD PTR [rax], 0
	je	SHORT $LL2@DivRem_X_X
$LN98@DivRem_X_X:

; 924  :         while (v_buf[v_buf_len - 1] == 0)

	lea	rax, QWORD PTR [r9-1]
	cmp	DWORD PTR [r8+rax*4], 0
	lea	rax, QWORD PTR [r8+rax*4]
	jne	SHORT $LN5@DivRem_X_X
	npad	5
$LL4@DivRem_X_X:

; 925  :             --v_buf_len;

	dec	rbp
	lea	rax, QWORD PTR [rax-4]
	cmp	DWORD PTR [rax], 0
	je	SHORT $LL4@DivRem_X_X
$LN5@DivRem_X_X:

; 926  :     }
; 927  : 
; 928  : #ifdef _DEBUG
; 929  :     if (v_buf[v_buf_len - 1] == 0)
; 930  :     {
; 931  :         ; // このルートには到達しないはず。デバッグ用。
; 932  :     }
; 933  : #endif
; 934  : 
; 935  :     __UNIT_TYPE_DIV d_factor = _LZCNT_ALT_UNIT_DIV(v_buf[v_buf_len - 1]);

	mov	eax, DWORD PTR [r8+rbp*4-4]
; File z:\sources\lunor\repos\rougemeilland\palmtree.math.core.implements\palmtree.math.core.implements\pmc_internal.h

; 935  :     if (x == 0)

	test	eax, eax
	jne	$LN17@DivRem_X_X

; 936  :         return (sizeof(x) * 8);

	mov	ecx, 32					; 00000020H
	mov	DWORD PTR $T1[rsp], ecx
$LN10@DivRem_X_X:
; File z:\sources\lunor\repos\rougemeilland\palmtree.math.core.implements\palmtree.math.core.implements\pmc_divrem.c

; 944  :         LeftShift_Imp_DIV(u_buf, u_buf_len, d_factor, r_buf, FALSE);

	mov	r15, QWORD PTR r_buf$[rsp]
	xor	r13d, r13d
	mov	edi, ecx
	mov	r9, r15
	mov	r8d, ecx
	mov	rdx, rbx
	mov	rcx, rsi
	mov	DWORD PTR [rsp+32], r13d
	call	LeftShift_Imp_DIV

; 945  :         LeftShift_Imp_DIV(v_buf, v_buf_len, d_factor, work_v_buf, FALSE);

	mov	r12, QWORD PTR work_v_buf$[rsp]
	mov	r8d, edi
	mov	r9, r12
	mov	DWORD PTR [rsp+32], r13d
	mov	rdx, rbp
	mov	rcx, r14
	call	LeftShift_Imp_DIV
$LN11@DivRem_X_X:

; 946  :     }
; 947  : 
; 948  :     __UNIT_TYPE_DIV* work_u_buf = r_buf;
; 949  :     __UNIT_TYPE q_index = u_buf_len - v_buf_len;

	mov	rax, QWORD PTR q_buf$[rsp]
	lea	rdx, QWORD PTR [rbp-1]
	mov	ecx, 2
	lea	rdi, QWORD PTR [rbp-2]
	sub	rcx, rbp
	lea	rdx, QWORD PTR [r12+rdx*4]
	shl	rcx, 2
	lea	rdi, QWORD PTR [r12+rdi*4]
	mov	r14, rbx
	mov	QWORD PTR tv965[rsp], rdx
	sub	rcx, r15
	mov	QWORD PTR tv964[rsp], rdi
	sub	r14, rbp
	lea	rsi, QWORD PTR [rbx-2]
	add	rax, rcx
	lea	rsi, QWORD PTR [r15+rsi*4]
	mov	QWORD PTR tv960[rsp], rax
	npad	3
$LL6@DivRem_X_X:

; 352  :     __UNIT_TYPE_DIV v1 = v_buf[v_buf_len - 1];

	mov	eax, DWORD PTR [rdx]
	mov	r8d, DWORD PTR [rsi+8]

; 353  :     __UNIT_TYPE_DIV v2 = v_buf[v_buf_len - 2];

	mov	r13d, eax
	mov	r10d, DWORD PTR [rsi+4]
	mov	r12d, DWORD PTR [rsi]
	mov	r9d, DWORD PTR [rdi]

; 249  :     if (uj == v1)

	cmp	r8d, eax
	jne	SHORT $LN28@DivRem_X_X

; 250  :         return (-1);

	mov	edi, -1					; ffffffffH
	jmp	SHORT $LN27@DivRem_X_X
$LN17@DivRem_X_X:
; File z:\sources\lunor\repos\rougemeilland\palmtree.math.core.implements\palmtree.math.core.implements\pmc_internal.h

; 949  :     _BitScanReverse(&pos, x);

	bsr	eax, eax

; 950  : #elif defined(__GNUC__)
; 951  :     _UINT64_T pos;
; 952  :     __asm__("bsrq %1, %0" : "=r"(pos) : "rm"(x));
; 953  : #else
; 954  : #error unknown compiler
; 955  : #endif
; 956  : #else
; 957  : #error unknown platform
; 958  : #endif
; 959  :     return (sizeof(x) * 8 - 1 - pos);

	mov	ecx, 31
	sub	ecx, eax
	mov	DWORD PTR pos$4[rsp], eax
	mov	DWORD PTR $T1[rsp], ecx
; File z:\sources\lunor\repos\rougemeilland\palmtree.math.core.implements\palmtree.math.core.implements\pmc_divrem.c

; 936  :     if (d_factor == 0)

	jne	$LN10@DivRem_X_X
; File z:\sources\lunor\repos\rougemeilland\palmtree.math.core.implements\palmtree.math.core.implements\pmc_internal.h

; 358  :     __movsd((unsigned long *)d, (unsigned long *)s, (unsigned long)count);

	mov	r15, QWORD PTR r_buf$[rsp]
	mov	r12, QWORD PTR work_v_buf$[rsp]
	mov	rdi, r15
	mov	ecx, ebx
	rep movsd
	mov	ecx, ebp
	mov	rdi, r12
	mov	rsi, r14
	rep movsd
; File z:\sources\lunor\repos\rougemeilland\palmtree.math.core.implements\palmtree.math.core.implements\pmc_divrem.c

; 940  :         r_buf[u_buf_len] = 0;

	mov	DWORD PTR [r15+rbx*4], 0

; 941  :     }

	jmp	$LN11@DivRem_X_X
$LN28@DivRem_X_X:
; File z:\sources\lunor\repos\rougemeilland\palmtree.math.core.implements\palmtree.math.core.implements\pmc_internal.h

; 1062 :     _InterlockedIncrement(&statistics_info.COUNT_DIV32);

	lock inc DWORD PTR statistics_info+12

; 454  :     return (((_UINT64_T)value_high << 32) | value_low);

	mov	rax, r8

; 667  :         return ((_UINT32_T)(t / v));

	xor	edx, edx

; 454  :     return (((_UINT64_T)value_high << 32) | value_low);

	shl	rax, 32					; 00000020H
	or	rax, r10

; 667  :         return ((_UINT32_T)(t / v));

	div	r13
	mov	rdi, rax
$LN27@DivRem_X_X:

; 594  :     return (_FROMDWORDTOWORD((_UINT64_T)u * v, w_hi));

	mov	rax, r9
	mov	edx, edi
	imul	rax, rdx
	imul	rdx, r13
	mov	QWORD PTR value$1$[rsp], rax
	mov	r11, r9

; 459  :     *result_high = (_UINT32_T)(value >> 32);

	mov	r9, rax

; 558  :     return (_subborrow_u32(borrow, u, v, w));

	mov	eax, r10d

; 459  :     *result_high = (_UINT32_T)(value >> 32);

	shr	r9, 32					; 00000020H

; 558  :     return (_subborrow_u32(borrow, u, v, w));

	sub	eax, edx
	mov	DWORD PTR rh_mi$5[rsp], eax
	mov	eax, r8d
	setb	cl

; 459  :     *result_high = (_UINT32_T)(value >> 32);

	shr	rdx, 32					; 00000020H

; 558  :     return (_subborrow_u32(borrow, u, v, w));

	add	cl, -1
	sbb	eax, edx
	mov	DWORD PTR rh_hi$6[rsp], eax

; 1097 :     _InterlockedExchangeAdd(&statistics_info.COUNT_MULTI32, value);

	mov	eax, 2
	lock xadd DWORD PTR statistics_info+4, eax
; File z:\sources\lunor\repos\rougemeilland\palmtree.math.core.implements\palmtree.math.core.implements\pmc_divrem.c

; 279  :     if (rh_hi > 0)

	cmp	DWORD PTR rh_hi$6[rsp], 0
	ja	SHORT $LN109@DivRem_X_X

; 280  :         return (FALSE);
; 281  :     else if (lh_mi > rh_mi)

	cmp	r9d, DWORD PTR rh_mi$5[rsp]
	ja	SHORT $LN24@DivRem_X_X

; 282  :         return (TRUE);
; 283  :     else if (lh_mi < rh_mi)

	jb	SHORT $LN109@DivRem_X_X

; 355  :     if (!CheckQ_(q_, uj, uj_1, uj_2, v1, v2))

	cmp	DWORD PTR value$1$[rsp], r12d
	jbe	SHORT $LN109@DivRem_X_X
$LN24@DivRem_X_X:

; 356  :         return (q_);
; 357  :     --q_;

	dec	edi
; File z:\sources\lunor\repos\rougemeilland\palmtree.math.core.implements\palmtree.math.core.implements\pmc_internal.h

; 594  :     return (_FROMDWORDTOWORD((_UINT64_T)u * v, w_hi));

	mov	ecx, edi
	imul	r11, rcx
	imul	rcx, r13

; 459  :     *result_high = (_UINT32_T)(value >> 32);

	mov	rdx, r11
	shr	rdx, 32					; 00000020H

; 558  :     return (_subborrow_u32(borrow, u, v, w));

	sub	r10d, ecx
	mov	DWORD PTR rh_mi$3[rsp], r10d
	setb	al

; 459  :     *result_high = (_UINT32_T)(value >> 32);

	shr	rcx, 32					; 00000020H

; 558  :     return (_subborrow_u32(borrow, u, v, w));

	add	al, -1

; 1097 :     _InterlockedExchangeAdd(&statistics_info.COUNT_MULTI32, value);

	mov	eax, 2

; 558  :     return (_subborrow_u32(borrow, u, v, w));

	sbb	r8d, ecx
	mov	DWORD PTR rh_hi$2[rsp], r8d

; 1097 :     _InterlockedExchangeAdd(&statistics_info.COUNT_MULTI32, value);

	lock xadd DWORD PTR statistics_info+4, eax
; File z:\sources\lunor\repos\rougemeilland\palmtree.math.core.implements\palmtree.math.core.implements\pmc_divrem.c

; 279  :     if (rh_hi > 0)

	cmp	DWORD PTR rh_hi$2[rsp], 0
	ja	SHORT $LN109@DivRem_X_X

; 280  :         return (FALSE);
; 281  :     else if (lh_mi > rh_mi)

	cmp	edx, DWORD PTR rh_mi$3[rsp]
	ja	SHORT $LN25@DivRem_X_X

; 282  :         return (TRUE);
; 283  :     else if (lh_mi < rh_mi)

	jb	SHORT $LN109@DivRem_X_X

; 358  :     if (!CheckQ_(q_, uj, uj_1, uj_2, v1, v2))

	cmp	r11d, r12d
	jbe	SHORT $LN109@DivRem_X_X
$LN25@DivRem_X_X:

; 359  :         return (q_);
; 360  :     --q_;

	dec	edi
$LN109@DivRem_X_X:

; 950  : 
; 951  :     for (;;)
; 952  :     {
; 953  :         __UNIT_TYPE_DIV q_ = CalculateQ_(work_u_buf, work_v_buf, v_buf_len, q_index);
; 954  : 
; 955  : 
; 956  :         if (SubtructOneLine(work_u_buf, u_buf_len, work_v_buf, v_buf_len, q_index, q_))

	mov	r12, QWORD PTR work_v_buf$[rsp]
	mov	r9, rbp
	mov	r8, r12
	mov	DWORD PTR [rsp+40], edi
	mov	rdx, rbx
	mov	QWORD PTR [rsp+32], r14
	mov	rcx, r15
	call	SubtructOneLine
	test	eax, eax
	je	SHORT $LN12@DivRem_X_X

; 957  :         {
; 958  :             // 桁借りが発生した場合
; 959  :             --q_;

	dec	edi

; 960  :             AddOneLine(work_u_buf, u_buf_len, work_v_buf, v_buf_len, q_index);

	mov	QWORD PTR [rsp+32], r14
	mov	r9, rbp
	mov	r8, r12
	mov	rdx, rbx
	mov	rcx, r15
	call	AddOneLine
$LN12@DivRem_X_X:

; 961  :         }
; 962  : 
; 963  :         q_buf[q_index] = q_;

	mov	rax, QWORD PTR tv960[rsp]
	mov	DWORD PTR [rsi+rax], edi

; 964  :         if (q_index == 0)

	test	r14, r14
	je	SHORT $LN100@DivRem_X_X

; 965  :             break;
; 966  :         --q_index;
; 967  :     }

	mov	rdx, QWORD PTR tv965[rsp]
	dec	r14
	mov	rdi, QWORD PTR tv964[rsp]
	sub	rsi, 4
	jmp	$LL6@DivRem_X_X
$LN100@DivRem_X_X:

; 968  : 
; 969  :     if (d_factor > 0)

	mov	eax, DWORD PTR $T1[rsp]
	test	eax, eax
	je	SHORT $LN14@DivRem_X_X

; 970  :         RightShift_Imp_DIV(work_u_buf, u_buf_len + 1, d_factor, work_u_buf, FALSE);

	mov	r8d, eax
	mov	DWORD PTR [rsp+32], 0
	lea	rdx, QWORD PTR [rbx+1]
	mov	r9, r15
	mov	rcx, r15
	call	RightShift_Imp_DIV
$LN14@DivRem_X_X:

; 971  : }

	add	rsp, 88					; 00000058H
	pop	r15
	pop	r14
	pop	r13
	pop	r12
	pop	rdi
	pop	rsi
	pop	rbp
	pop	rbx
	ret	0
DivRem_X_X_using_ADC_MUL ENDP
_TEXT	ENDS
; Function compile flags: /Ogtpy
; File z:\sources\lunor\repos\rougemeilland\palmtree.math.core.implements\palmtree.math.core.implements\pmc_divrem.c
; File z:\sources\lunor\repos\rougemeilland\palmtree.math.core.implements\palmtree.math.core.implements\autogenerated_inline_func.h
; File z:\sources\lunor\repos\rougemeilland\palmtree.math.core.implements\palmtree.math.core.implements\pmc_internal.h
; File z:\sources\lunor\repos\rougemeilland\palmtree.math.core.implements\palmtree.math.core.implements\autogenerated_inline_func.h
; File z:\sources\lunor\repos\rougemeilland\palmtree.math.core.implements\palmtree.math.core.implements\pmc_internal.h
; File z:\sources\lunor\repos\rougemeilland\palmtree.math.core.implements\palmtree.math.core.implements\autogenerated_inline_func.h
; File z:\sources\lunor\repos\rougemeilland\palmtree.math.core.implements\palmtree.math.core.implements\pmc_internal.h
; File z:\sources\lunor\repos\rougemeilland\palmtree.math.core.implements\palmtree.math.core.implements\autogenerated_inline_func.h
; File z:\sources\lunor\repos\rougemeilland\palmtree.math.core.implements\palmtree.math.core.implements\pmc_internal.h
; File z:\sources\lunor\repos\rougemeilland\palmtree.math.core.implements\palmtree.math.core.implements\autogenerated_inline_func.h
; File z:\sources\lunor\repos\rougemeilland\palmtree.math.core.implements\palmtree.math.core.implements\pmc_internal.h
; File z:\sources\lunor\repos\rougemeilland\palmtree.math.core.implements\palmtree.math.core.implements\autogenerated_inline_func.h
; File z:\sources\lunor\repos\rougemeilland\palmtree.math.core.implements\palmtree.math.core.implements\pmc_internal.h
; File z:\sources\lunor\repos\rougemeilland\palmtree.math.core.implements\palmtree.math.core.implements\autogenerated_inline_func.h
; File z:\sources\lunor\repos\rougemeilland\palmtree.math.core.implements\palmtree.math.core.implements\pmc_internal.h
; File z:\sources\lunor\repos\rougemeilland\palmtree.math.core.implements\palmtree.math.core.implements\autogenerated_inline_func.h
; File z:\sources\lunor\repos\rougemeilland\palmtree.math.core.implements\palmtree.math.core.implements\pmc_internal.h
; File z:\sources\lunor\repos\rougemeilland\palmtree.math.core.implements\palmtree.math.core.implements\autogenerated_inline_func.h
; File z:\sources\lunor\repos\rougemeilland\palmtree.math.core.implements\palmtree.math.core.implements\pmc_internal.h
; File z:\sources\lunor\repos\rougemeilland\palmtree.math.core.implements\palmtree.math.core.implements\autogenerated_inline_func.h
; File z:\sources\lunor\repos\rougemeilland\palmtree.math.core.implements\palmtree.math.core.implements\pmc_internal.h
; File z:\sources\lunor\repos\rougemeilland\palmtree.math.core.implements\palmtree.math.core.implements\autogenerated_inline_func.h
; File z:\sources\lunor\repos\rougemeilland\palmtree.math.core.implements\palmtree.math.core.implements\pmc_internal.h
; File z:\sources\lunor\repos\rougemeilland\palmtree.math.core.implements\palmtree.math.core.implements\autogenerated_inline_func.h
; File z:\sources\lunor\repos\rougemeilland\palmtree.math.core.implements\palmtree.math.core.implements\pmc_internal.h
; File z:\sources\lunor\repos\rougemeilland\palmtree.math.core.implements\palmtree.math.core.implements\autogenerated_inline_func.h
; File z:\sources\lunor\repos\rougemeilland\palmtree.math.core.implements\palmtree.math.core.implements\pmc_internal.h
; File z:\sources\lunor\repos\rougemeilland\palmtree.math.core.implements\palmtree.math.core.implements\autogenerated_inline_func.h
; File z:\sources\lunor\repos\rougemeilland\palmtree.math.core.implements\palmtree.math.core.implements\pmc_internal.h
; File z:\sources\lunor\repos\rougemeilland\palmtree.math.core.implements\palmtree.math.core.implements\autogenerated_inline_func.h
; File z:\sources\lunor\repos\rougemeilland\palmtree.math.core.implements\palmtree.math.core.implements\pmc_internal.h
; File z:\sources\lunor\repos\rougemeilland\palmtree.math.core.implements\palmtree.math.core.implements\autogenerated_inline_func.h
; File z:\sources\lunor\repos\rougemeilland\palmtree.math.core.implements\palmtree.math.core.implements\pmc_internal.h
; File z:\sources\lunor\repos\rougemeilland\palmtree.math.core.implements\palmtree.math.core.implements\autogenerated_inline_func.h
; File z:\sources\lunor\repos\rougemeilland\palmtree.math.core.implements\palmtree.math.core.implements\pmc_internal.h
; File z:\sources\lunor\repos\rougemeilland\palmtree.math.core.implements\palmtree.math.core.implements\autogenerated_inline_func.h
; File z:\sources\lunor\repos\rougemeilland\palmtree.math.core.implements\palmtree.math.core.implements\pmc_internal.h
; File z:\sources\lunor\repos\rougemeilland\palmtree.math.core.implements\palmtree.math.core.implements\autogenerated_inline_func.h
; File z:\sources\lunor\repos\rougemeilland\palmtree.math.core.implements\palmtree.math.core.implements\pmc_internal.h
; File z:\sources\lunor\repos\rougemeilland\palmtree.math.core.implements\palmtree.math.core.implements\autogenerated_inline_func.h
; File z:\sources\lunor\repos\rougemeilland\palmtree.math.core.implements\palmtree.math.core.implements\pmc_internal.h
; File z:\sources\lunor\repos\rougemeilland\palmtree.math.core.implements\palmtree.math.core.implements\autogenerated_inline_func.h
; File z:\sources\lunor\repos\rougemeilland\palmtree.math.core.implements\palmtree.math.core.implements\pmc_internal.h
; File z:\sources\lunor\repos\rougemeilland\palmtree.math.core.implements\palmtree.math.core.implements\autogenerated_inline_func.h
; File z:\sources\lunor\repos\rougemeilland\palmtree.math.core.implements\palmtree.math.core.implements\pmc_internal.h
; File z:\sources\lunor\repos\rougemeilland\palmtree.math.core.implements\palmtree.math.core.implements\autogenerated_inline_func.h
; File z:\sources\lunor\repos\rougemeilland\palmtree.math.core.implements\palmtree.math.core.implements\pmc_internal.h
; File z:\sources\lunor\repos\rougemeilland\palmtree.math.core.implements\palmtree.math.core.implements\autogenerated_inline_func.h
; File z:\sources\lunor\repos\rougemeilland\palmtree.math.core.implements\palmtree.math.core.implements\pmc_internal.h
; File z:\sources\lunor\repos\rougemeilland\palmtree.math.core.implements\palmtree.math.core.implements\autogenerated_inline_func.h
; File z:\sources\lunor\repos\rougemeilland\palmtree.math.core.implements\palmtree.math.core.implements\pmc_internal.h
; File z:\sources\lunor\repos\rougemeilland\palmtree.math.core.implements\palmtree.math.core.implements\autogenerated_inline_func.h
; File z:\sources\lunor\repos\rougemeilland\palmtree.math.core.implements\palmtree.math.core.implements\pmc_internal.h
; File z:\sources\lunor\repos\rougemeilland\palmtree.math.core.implements\palmtree.math.core.implements\autogenerated_inline_func.h
; File z:\sources\lunor\repos\rougemeilland\palmtree.math.core.implements\palmtree.math.core.implements\pmc_internal.h
; File z:\sources\lunor\repos\rougemeilland\palmtree.math.core.implements\palmtree.math.core.implements\autogenerated_inline_func.h
; File z:\sources\lunor\repos\rougemeilland\palmtree.math.core.implements\palmtree.math.core.implements\pmc_internal.h
; File z:\sources\lunor\repos\rougemeilland\palmtree.math.core.implements\palmtree.math.core.implements\autogenerated_inline_func.h
; File z:\sources\lunor\repos\rougemeilland\palmtree.math.core.implements\palmtree.math.core.implements\pmc_internal.h
; File z:\sources\lunor\repos\rougemeilland\palmtree.math.core.implements\palmtree.math.core.implements\autogenerated_inline_func.h
; File z:\sources\lunor\repos\rougemeilland\palmtree.math.core.implements\palmtree.math.core.implements\pmc_internal.h
; File z:\sources\lunor\repos\rougemeilland\palmtree.math.core.implements\palmtree.math.core.implements\autogenerated_inline_func.h
; File z:\sources\lunor\repos\rougemeilland\palmtree.math.core.implements\palmtree.math.core.implements\pmc_internal.h
; File z:\sources\lunor\repos\rougemeilland\palmtree.math.core.implements\palmtree.math.core.implements\autogenerated_inline_func.h
; File z:\sources\lunor\repos\rougemeilland\palmtree.math.core.implements\palmtree.math.core.implements\pmc_internal.h
; File z:\sources\lunor\repos\rougemeilland\palmtree.math.core.implements\palmtree.math.core.implements\pmc_divrem.c
; File z:\sources\lunor\repos\rougemeilland\palmtree.math.core.implements\palmtree.math.core.implements\autogenerated_inline_func.h
; File z:\sources\lunor\repos\rougemeilland\palmtree.math.core.implements\palmtree.math.core.implements\pmc_internal.h
; File z:\sources\lunor\repos\rougemeilland\palmtree.math.core.implements\palmtree.math.core.implements\autogenerated_inline_func.h
; File z:\sources\lunor\repos\rougemeilland\palmtree.math.core.implements\palmtree.math.core.implements\pmc_internal.h
; File z:\sources\lunor\repos\rougemeilland\palmtree.math.core.implements\palmtree.math.core.implements\autogenerated_inline_func.h
; File z:\sources\lunor\repos\rougemeilland\palmtree.math.core.implements\palmtree.math.core.implements\pmc_internal.h
; File z:\sources\lunor\repos\rougemeilland\palmtree.math.core.implements\palmtree.math.core.implements\autogenerated_inline_func.h
; File z:\sources\lunor\repos\rougemeilland\palmtree.math.core.implements\palmtree.math.core.implements\pmc_internal.h
; File z:\sources\lunor\repos\rougemeilland\palmtree.math.core.implements\palmtree.math.core.implements\autogenerated_inline_func.h
; File z:\sources\lunor\repos\rougemeilland\palmtree.math.core.implements\palmtree.math.core.implements\pmc_internal.h
; File z:\sources\lunor\repos\rougemeilland\palmtree.math.core.implements\palmtree.math.core.implements\autogenerated_inline_func.h
; File z:\sources\lunor\repos\rougemeilland\palmtree.math.core.implements\palmtree.math.core.implements\pmc_internal.h
; File z:\sources\lunor\repos\rougemeilland\palmtree.math.core.implements\palmtree.math.core.implements\autogenerated_inline_func.h
; File z:\sources\lunor\repos\rougemeilland\palmtree.math.core.implements\palmtree.math.core.implements\pmc_internal.h
; File z:\sources\lunor\repos\rougemeilland\palmtree.math.core.implements\palmtree.math.core.implements\autogenerated_inline_func.h
; File z:\sources\lunor\repos\rougemeilland\palmtree.math.core.implements\palmtree.math.core.implements\pmc_internal.h
; File z:\sources\lunor\repos\rougemeilland\palmtree.math.core.implements\palmtree.math.core.implements\pmc_divrem.c
; File z:\sources\lunor\repos\rougemeilland\palmtree.math.core.implements\palmtree.math.core.implements\autogenerated_inline_func.h
; File z:\sources\lunor\repos\rougemeilland\palmtree.math.core.implements\palmtree.math.core.implements\pmc_internal.h
; File z:\sources\lunor\repos\rougemeilland\palmtree.math.core.implements\palmtree.math.core.implements\autogenerated_inline_func.h
; File z:\sources\lunor\repos\rougemeilland\palmtree.math.core.implements\palmtree.math.core.implements\pmc_internal.h
; File z:\sources\lunor\repos\rougemeilland\palmtree.math.core.implements\palmtree.math.core.implements\autogenerated_inline_func.h
; File z:\sources\lunor\repos\rougemeilland\palmtree.math.core.implements\palmtree.math.core.implements\pmc_internal.h
; File z:\sources\lunor\repos\rougemeilland\palmtree.math.core.implements\palmtree.math.core.implements\autogenerated_inline_func.h
; File z:\sources\lunor\repos\rougemeilland\palmtree.math.core.implements\palmtree.math.core.implements\pmc_internal.h
; File z:\sources\lunor\repos\rougemeilland\palmtree.math.core.implements\palmtree.math.core.implements\pmc_divrem.c
; File z:\sources\lunor\repos\rougemeilland\palmtree.math.core.implements\palmtree.math.core.implements\autogenerated_inline_func.h
; File z:\sources\lunor\repos\rougemeilland\palmtree.math.core.implements\palmtree.math.core.implements\pmc_internal.h
; File z:\sources\lunor\repos\rougemeilland\palmtree.math.core.implements\palmtree.math.core.implements\autogenerated_inline_func.h
; File z:\sources\lunor\repos\rougemeilland\palmtree.math.core.implements\palmtree.math.core.implements\pmc_internal.h
; File z:\sources\lunor\repos\rougemeilland\palmtree.math.core.implements\palmtree.math.core.implements\pmc_divrem.c
; File z:\sources\lunor\repos\rougemeilland\palmtree.math.core.implements\palmtree.math.core.implements\pmc_internal.h
; File z:\sources\lunor\repos\rougemeilland\palmtree.math.core.implements\palmtree.math.core.implements\pmc_divrem.c
; File z:\sources\lunor\repos\rougemeilland\palmtree.math.core.implements\palmtree.math.core.implements\pmc_internal.h
; File z:\sources\lunor\repos\rougemeilland\palmtree.math.core.implements\palmtree.math.core.implements\pmc_divrem.c
;	COMDAT AddOneLineX
_TEXT	SEGMENT
u_buf$ = 48
u_buf_len$ = 56
v_buf$ = 64
v_buf_len$ = 72
q_index$ = 80
AddOneLineX PROC					; COMDAT

; 852  : {

	mov	QWORD PTR [rsp+8], rbx
	push	rdi
	sub	rsp, 32					; 00000020H

; 853  :     __UNIT_TYPE_DIV* u_ptr = &u_buf[q_index];

	mov	rax, QWORD PTR q_index$[rsp]
	mov	r10, r9

; 854  :     __UNIT_TYPE_DIV* v_ptr = &v_buf[0];
; 855  :     __UNIT_TYPE v_count = v_buf_len;
; 856  :     char c = 0;
; 857  : 
; 858  :     // まず 32 ワードずつ加算をする。
; 859  :     __UNIT_TYPE count = v_count >> 5;

	mov	r11, r10
	mov	rbx, rcx
	shr	r11, 5
	mov	rdi, rdx
	lea	r9, QWORD PTR [rcx+rax*4]
	xor	cl, cl

; 860  :     while (count != 0)

	test	r11, r11
	je	$LN3@AddOneLine
	npad	2
$LL2@AddOneLine:
; File z:\sources\lunor\repos\rougemeilland\palmtree.math.core.implements\palmtree.math.core.implements\autogenerated_inline_func.h

; 1312 :     c = _ADDX_UNIT_DIV(c, xp[0], yp[0], &zp[0]);

	mov	eax, DWORD PTR [r9]
; File z:\sources\lunor\repos\rougemeilland\palmtree.math.core.implements\palmtree.math.core.implements\pmc_internal.h

; 530  :     return (_addcarryx_u32(carry, u, v, w));

	add	cl, -1
	adcx	eax, DWORD PTR [r8]
	mov	DWORD PTR [r9], eax
; File z:\sources\lunor\repos\rougemeilland\palmtree.math.core.implements\palmtree.math.core.implements\autogenerated_inline_func.h

; 1313 :     c = _ADDX_UNIT_DIV(c, xp[1], yp[1], &zp[1]);

	mov	eax, DWORD PTR [r9+4]
; File z:\sources\lunor\repos\rougemeilland\palmtree.math.core.implements\palmtree.math.core.implements\pmc_internal.h

; 530  :     return (_addcarryx_u32(carry, u, v, w));

	adcx	eax, DWORD PTR [r8+4]
	mov	DWORD PTR [r9+4], eax
; File z:\sources\lunor\repos\rougemeilland\palmtree.math.core.implements\palmtree.math.core.implements\autogenerated_inline_func.h

; 1314 :     c = _ADDX_UNIT_DIV(c, xp[2], yp[2], &zp[2]);

	mov	eax, DWORD PTR [r9+8]
; File z:\sources\lunor\repos\rougemeilland\palmtree.math.core.implements\palmtree.math.core.implements\pmc_internal.h

; 530  :     return (_addcarryx_u32(carry, u, v, w));

	adcx	eax, DWORD PTR [r8+8]
	mov	DWORD PTR [r9+8], eax
; File z:\sources\lunor\repos\rougemeilland\palmtree.math.core.implements\palmtree.math.core.implements\autogenerated_inline_func.h

; 1315 :     c = _ADDX_UNIT_DIV(c, xp[3], yp[3], &zp[3]);

	mov	eax, DWORD PTR [r9+12]
; File z:\sources\lunor\repos\rougemeilland\palmtree.math.core.implements\palmtree.math.core.implements\pmc_internal.h

; 530  :     return (_addcarryx_u32(carry, u, v, w));

	adcx	eax, DWORD PTR [r8+12]
	mov	DWORD PTR [r9+12], eax
; File z:\sources\lunor\repos\rougemeilland\palmtree.math.core.implements\palmtree.math.core.implements\autogenerated_inline_func.h

; 1316 :     c = _ADDX_UNIT_DIV(c, xp[4], yp[4], &zp[4]);

	mov	eax, DWORD PTR [r9+16]
; File z:\sources\lunor\repos\rougemeilland\palmtree.math.core.implements\palmtree.math.core.implements\pmc_internal.h

; 530  :     return (_addcarryx_u32(carry, u, v, w));

	adcx	eax, DWORD PTR [r8+16]
	mov	DWORD PTR [r9+16], eax
; File z:\sources\lunor\repos\rougemeilland\palmtree.math.core.implements\palmtree.math.core.implements\autogenerated_inline_func.h

; 1317 :     c = _ADDX_UNIT_DIV(c, xp[5], yp[5], &zp[5]);

	mov	eax, DWORD PTR [r9+20]
; File z:\sources\lunor\repos\rougemeilland\palmtree.math.core.implements\palmtree.math.core.implements\pmc_internal.h

; 530  :     return (_addcarryx_u32(carry, u, v, w));

	adcx	eax, DWORD PTR [r8+20]
	mov	DWORD PTR [r9+20], eax
; File z:\sources\lunor\repos\rougemeilland\palmtree.math.core.implements\palmtree.math.core.implements\autogenerated_inline_func.h

; 1318 :     c = _ADDX_UNIT_DIV(c, xp[6], yp[6], &zp[6]);

	mov	eax, DWORD PTR [r9+24]
; File z:\sources\lunor\repos\rougemeilland\palmtree.math.core.implements\palmtree.math.core.implements\pmc_internal.h

; 530  :     return (_addcarryx_u32(carry, u, v, w));

	adcx	eax, DWORD PTR [r8+24]
	mov	DWORD PTR [r9+24], eax
; File z:\sources\lunor\repos\rougemeilland\palmtree.math.core.implements\palmtree.math.core.implements\autogenerated_inline_func.h

; 1319 :     c = _ADDX_UNIT_DIV(c, xp[7], yp[7], &zp[7]);

	mov	eax, DWORD PTR [r9+28]
; File z:\sources\lunor\repos\rougemeilland\palmtree.math.core.implements\palmtree.math.core.implements\pmc_internal.h

; 530  :     return (_addcarryx_u32(carry, u, v, w));

	adcx	eax, DWORD PTR [r8+28]
	mov	DWORD PTR [r9+28], eax
; File z:\sources\lunor\repos\rougemeilland\palmtree.math.core.implements\palmtree.math.core.implements\autogenerated_inline_func.h

; 1320 :     c = _ADDX_UNIT_DIV(c, xp[8], yp[8], &zp[8]);

	mov	eax, DWORD PTR [r9+32]
; File z:\sources\lunor\repos\rougemeilland\palmtree.math.core.implements\palmtree.math.core.implements\pmc_internal.h

; 530  :     return (_addcarryx_u32(carry, u, v, w));

	adcx	eax, DWORD PTR [r8+32]
	mov	DWORD PTR [r9+32], eax
; File z:\sources\lunor\repos\rougemeilland\palmtree.math.core.implements\palmtree.math.core.implements\autogenerated_inline_func.h

; 1321 :     c = _ADDX_UNIT_DIV(c, xp[9], yp[9], &zp[9]);

	mov	eax, DWORD PTR [r9+36]
; File z:\sources\lunor\repos\rougemeilland\palmtree.math.core.implements\palmtree.math.core.implements\pmc_internal.h

; 530  :     return (_addcarryx_u32(carry, u, v, w));

	adcx	eax, DWORD PTR [r8+36]
	mov	DWORD PTR [r9+36], eax
; File z:\sources\lunor\repos\rougemeilland\palmtree.math.core.implements\palmtree.math.core.implements\autogenerated_inline_func.h

; 1322 :     c = _ADDX_UNIT_DIV(c, xp[10], yp[10], &zp[10]);

	mov	eax, DWORD PTR [r9+40]
; File z:\sources\lunor\repos\rougemeilland\palmtree.math.core.implements\palmtree.math.core.implements\pmc_internal.h

; 530  :     return (_addcarryx_u32(carry, u, v, w));

	adcx	eax, DWORD PTR [r8+40]
	mov	DWORD PTR [r9+40], eax
; File z:\sources\lunor\repos\rougemeilland\palmtree.math.core.implements\palmtree.math.core.implements\autogenerated_inline_func.h

; 1323 :     c = _ADDX_UNIT_DIV(c, xp[11], yp[11], &zp[11]);

	mov	eax, DWORD PTR [r9+44]
; File z:\sources\lunor\repos\rougemeilland\palmtree.math.core.implements\palmtree.math.core.implements\pmc_internal.h

; 530  :     return (_addcarryx_u32(carry, u, v, w));

	adcx	eax, DWORD PTR [r8+44]
	mov	DWORD PTR [r9+44], eax
; File z:\sources\lunor\repos\rougemeilland\palmtree.math.core.implements\palmtree.math.core.implements\autogenerated_inline_func.h

; 1324 :     c = _ADDX_UNIT_DIV(c, xp[12], yp[12], &zp[12]);

	mov	eax, DWORD PTR [r9+48]
; File z:\sources\lunor\repos\rougemeilland\palmtree.math.core.implements\palmtree.math.core.implements\pmc_internal.h

; 530  :     return (_addcarryx_u32(carry, u, v, w));

	adcx	eax, DWORD PTR [r8+48]
	mov	DWORD PTR [r9+48], eax
; File z:\sources\lunor\repos\rougemeilland\palmtree.math.core.implements\palmtree.math.core.implements\autogenerated_inline_func.h

; 1325 :     c = _ADDX_UNIT_DIV(c, xp[13], yp[13], &zp[13]);

	mov	eax, DWORD PTR [r9+52]
; File z:\sources\lunor\repos\rougemeilland\palmtree.math.core.implements\palmtree.math.core.implements\pmc_internal.h

; 530  :     return (_addcarryx_u32(carry, u, v, w));

	adcx	eax, DWORD PTR [r8+52]
	mov	DWORD PTR [r9+52], eax
; File z:\sources\lunor\repos\rougemeilland\palmtree.math.core.implements\palmtree.math.core.implements\autogenerated_inline_func.h

; 1326 :     c = _ADDX_UNIT_DIV(c, xp[14], yp[14], &zp[14]);

	mov	eax, DWORD PTR [r9+56]
; File z:\sources\lunor\repos\rougemeilland\palmtree.math.core.implements\palmtree.math.core.implements\pmc_internal.h

; 530  :     return (_addcarryx_u32(carry, u, v, w));

	adcx	eax, DWORD PTR [r8+56]
	mov	DWORD PTR [r9+56], eax
; File z:\sources\lunor\repos\rougemeilland\palmtree.math.core.implements\palmtree.math.core.implements\autogenerated_inline_func.h

; 1327 :     c = _ADDX_UNIT_DIV(c, xp[15], yp[15], &zp[15]);

	mov	eax, DWORD PTR [r9+60]
; File z:\sources\lunor\repos\rougemeilland\palmtree.math.core.implements\palmtree.math.core.implements\pmc_internal.h

; 530  :     return (_addcarryx_u32(carry, u, v, w));

	adcx	eax, DWORD PTR [r8+60]
	mov	DWORD PTR [r9+60], eax
; File z:\sources\lunor\repos\rougemeilland\palmtree.math.core.implements\palmtree.math.core.implements\autogenerated_inline_func.h

; 1328 :     c = _ADDX_UNIT_DIV(c, xp[16], yp[16], &zp[16]);

	mov	eax, DWORD PTR [r9+64]
; File z:\sources\lunor\repos\rougemeilland\palmtree.math.core.implements\palmtree.math.core.implements\pmc_internal.h

; 530  :     return (_addcarryx_u32(carry, u, v, w));

	adcx	eax, DWORD PTR [r8+64]
	mov	DWORD PTR [r9+64], eax
; File z:\sources\lunor\repos\rougemeilland\palmtree.math.core.implements\palmtree.math.core.implements\autogenerated_inline_func.h

; 1329 :     c = _ADDX_UNIT_DIV(c, xp[17], yp[17], &zp[17]);

	mov	eax, DWORD PTR [r9+68]
; File z:\sources\lunor\repos\rougemeilland\palmtree.math.core.implements\palmtree.math.core.implements\pmc_internal.h

; 530  :     return (_addcarryx_u32(carry, u, v, w));

	adcx	eax, DWORD PTR [r8+68]
	mov	DWORD PTR [r9+68], eax
; File z:\sources\lunor\repos\rougemeilland\palmtree.math.core.implements\palmtree.math.core.implements\autogenerated_inline_func.h

; 1330 :     c = _ADDX_UNIT_DIV(c, xp[18], yp[18], &zp[18]);

	mov	eax, DWORD PTR [r9+72]
; File z:\sources\lunor\repos\rougemeilland\palmtree.math.core.implements\palmtree.math.core.implements\pmc_internal.h

; 530  :     return (_addcarryx_u32(carry, u, v, w));

	adcx	eax, DWORD PTR [r8+72]
	mov	DWORD PTR [r9+72], eax
; File z:\sources\lunor\repos\rougemeilland\palmtree.math.core.implements\palmtree.math.core.implements\autogenerated_inline_func.h

; 1331 :     c = _ADDX_UNIT_DIV(c, xp[19], yp[19], &zp[19]);

	mov	eax, DWORD PTR [r9+76]
; File z:\sources\lunor\repos\rougemeilland\palmtree.math.core.implements\palmtree.math.core.implements\pmc_internal.h

; 530  :     return (_addcarryx_u32(carry, u, v, w));

	adcx	eax, DWORD PTR [r8+76]
	mov	DWORD PTR [r9+76], eax
; File z:\sources\lunor\repos\rougemeilland\palmtree.math.core.implements\palmtree.math.core.implements\autogenerated_inline_func.h

; 1332 :     c = _ADDX_UNIT_DIV(c, xp[20], yp[20], &zp[20]);

	mov	eax, DWORD PTR [r9+80]
; File z:\sources\lunor\repos\rougemeilland\palmtree.math.core.implements\palmtree.math.core.implements\pmc_internal.h

; 530  :     return (_addcarryx_u32(carry, u, v, w));

	adcx	eax, DWORD PTR [r8+80]
	mov	DWORD PTR [r9+80], eax
; File z:\sources\lunor\repos\rougemeilland\palmtree.math.core.implements\palmtree.math.core.implements\autogenerated_inline_func.h

; 1333 :     c = _ADDX_UNIT_DIV(c, xp[21], yp[21], &zp[21]);

	mov	eax, DWORD PTR [r9+84]
; File z:\sources\lunor\repos\rougemeilland\palmtree.math.core.implements\palmtree.math.core.implements\pmc_internal.h

; 530  :     return (_addcarryx_u32(carry, u, v, w));

	adcx	eax, DWORD PTR [r8+84]
	mov	DWORD PTR [r9+84], eax
; File z:\sources\lunor\repos\rougemeilland\palmtree.math.core.implements\palmtree.math.core.implements\autogenerated_inline_func.h

; 1334 :     c = _ADDX_UNIT_DIV(c, xp[22], yp[22], &zp[22]);

	mov	eax, DWORD PTR [r9+88]
; File z:\sources\lunor\repos\rougemeilland\palmtree.math.core.implements\palmtree.math.core.implements\pmc_internal.h

; 530  :     return (_addcarryx_u32(carry, u, v, w));

	adcx	eax, DWORD PTR [r8+88]
	mov	DWORD PTR [r9+88], eax
; File z:\sources\lunor\repos\rougemeilland\palmtree.math.core.implements\palmtree.math.core.implements\autogenerated_inline_func.h

; 1335 :     c = _ADDX_UNIT_DIV(c, xp[23], yp[23], &zp[23]);

	mov	eax, DWORD PTR [r9+92]
; File z:\sources\lunor\repos\rougemeilland\palmtree.math.core.implements\palmtree.math.core.implements\pmc_internal.h

; 530  :     return (_addcarryx_u32(carry, u, v, w));

	adcx	eax, DWORD PTR [r8+92]
	mov	DWORD PTR [r9+92], eax
; File z:\sources\lunor\repos\rougemeilland\palmtree.math.core.implements\palmtree.math.core.implements\autogenerated_inline_func.h

; 1336 :     c = _ADDX_UNIT_DIV(c, xp[24], yp[24], &zp[24]);

	mov	eax, DWORD PTR [r9+96]
; File z:\sources\lunor\repos\rougemeilland\palmtree.math.core.implements\palmtree.math.core.implements\pmc_internal.h

; 530  :     return (_addcarryx_u32(carry, u, v, w));

	adcx	eax, DWORD PTR [r8+96]
	mov	DWORD PTR [r9+96], eax
; File z:\sources\lunor\repos\rougemeilland\palmtree.math.core.implements\palmtree.math.core.implements\autogenerated_inline_func.h

; 1337 :     c = _ADDX_UNIT_DIV(c, xp[25], yp[25], &zp[25]);

	mov	eax, DWORD PTR [r9+100]
; File z:\sources\lunor\repos\rougemeilland\palmtree.math.core.implements\palmtree.math.core.implements\pmc_internal.h

; 530  :     return (_addcarryx_u32(carry, u, v, w));

	adcx	eax, DWORD PTR [r8+100]
	mov	DWORD PTR [r9+100], eax
; File z:\sources\lunor\repos\rougemeilland\palmtree.math.core.implements\palmtree.math.core.implements\autogenerated_inline_func.h

; 1338 :     c = _ADDX_UNIT_DIV(c, xp[26], yp[26], &zp[26]);

	mov	eax, DWORD PTR [r9+104]
; File z:\sources\lunor\repos\rougemeilland\palmtree.math.core.implements\palmtree.math.core.implements\pmc_internal.h

; 530  :     return (_addcarryx_u32(carry, u, v, w));

	adcx	eax, DWORD PTR [r8+104]
	mov	DWORD PTR [r9+104], eax
; File z:\sources\lunor\repos\rougemeilland\palmtree.math.core.implements\palmtree.math.core.implements\autogenerated_inline_func.h

; 1339 :     c = _ADDX_UNIT_DIV(c, xp[27], yp[27], &zp[27]);

	mov	eax, DWORD PTR [r9+108]
; File z:\sources\lunor\repos\rougemeilland\palmtree.math.core.implements\palmtree.math.core.implements\pmc_internal.h

; 530  :     return (_addcarryx_u32(carry, u, v, w));

	adcx	eax, DWORD PTR [r8+108]
	mov	DWORD PTR [r9+108], eax
; File z:\sources\lunor\repos\rougemeilland\palmtree.math.core.implements\palmtree.math.core.implements\autogenerated_inline_func.h

; 1340 :     c = _ADDX_UNIT_DIV(c, xp[28], yp[28], &zp[28]);

	mov	eax, DWORD PTR [r9+112]
; File z:\sources\lunor\repos\rougemeilland\palmtree.math.core.implements\palmtree.math.core.implements\pmc_internal.h

; 530  :     return (_addcarryx_u32(carry, u, v, w));

	adcx	eax, DWORD PTR [r8+112]
	mov	DWORD PTR [r9+112], eax
; File z:\sources\lunor\repos\rougemeilland\palmtree.math.core.implements\palmtree.math.core.implements\autogenerated_inline_func.h

; 1341 :     c = _ADDX_UNIT_DIV(c, xp[29], yp[29], &zp[29]);

	mov	eax, DWORD PTR [r9+116]
; File z:\sources\lunor\repos\rougemeilland\palmtree.math.core.implements\palmtree.math.core.implements\pmc_internal.h

; 530  :     return (_addcarryx_u32(carry, u, v, w));

	adcx	eax, DWORD PTR [r8+116]
	mov	DWORD PTR [r9+116], eax
; File z:\sources\lunor\repos\rougemeilland\palmtree.math.core.implements\palmtree.math.core.implements\autogenerated_inline_func.h

; 1342 :     c = _ADDX_UNIT_DIV(c, xp[30], yp[30], &zp[30]);

	mov	eax, DWORD PTR [r9+120]
; File z:\sources\lunor\repos\rougemeilland\palmtree.math.core.implements\palmtree.math.core.implements\pmc_internal.h

; 530  :     return (_addcarryx_u32(carry, u, v, w));

	adcx	eax, DWORD PTR [r8+120]
	mov	DWORD PTR [r9+120], eax
; File z:\sources\lunor\repos\rougemeilland\palmtree.math.core.implements\palmtree.math.core.implements\autogenerated_inline_func.h

; 1343 :     c = _ADDX_UNIT_DIV(c, xp[31], yp[31], &zp[31]);

	mov	eax, DWORD PTR [r9+124]
; File z:\sources\lunor\repos\rougemeilland\palmtree.math.core.implements\palmtree.math.core.implements\pmc_internal.h

; 530  :     return (_addcarryx_u32(carry, u, v, w));

	adcx	eax, DWORD PTR [r8+124]
	mov	DWORD PTR [r9+124], eax
	setb	cl
; File z:\sources\lunor\repos\rougemeilland\palmtree.math.core.implements\palmtree.math.core.implements\pmc_divrem.c

; 863  :         u_ptr += 32;

	sub	r9, -128				; ffffffffffffff80H

; 864  :         v_ptr += 32;

	sub	r8, -128				; ffffffffffffff80H

; 865  :         --count;

	sub	r11, 1
	jne	$LL2@AddOneLine
$LN3@AddOneLine:

; 866  :     }
; 867  :     // この時点で未処理の桁は 32 ワード未満のはず
; 868  : 
; 869  :     // 未処理の桁が 16 ワード以上あるなら 16 ワード加算を行う。
; 870  :     if (v_count & 0x10)

	test	r10b, 16
	je	SHORT $LN4@AddOneLine

; 871  :     {
; 872  :         c = _ADD_16WORDS_ADCX_DIV(c, u_ptr, v_ptr, u_ptr);

	mov	rdx, r9
	call	_ADD_16WORDS_ADCX_DIV

; 873  :         u_ptr += 16;

	add	r9, 64					; 00000040H
	movzx	ecx, al

; 874  :         v_ptr += 16;

	add	r8, 64					; 00000040H
$LN4@AddOneLine:

; 875  :     }
; 876  :     // この時点で未処理の桁は 16 ワード未満のはず
; 877  : 
; 878  :     // 未処理の桁が 8 ワード以上あるなら 8 ワード加算を行う。
; 879  :     if (v_count & 0x8)

	test	r10b, 8
	je	$LN5@AddOneLine
; File z:\sources\lunor\repos\rougemeilland\palmtree.math.core.implements\palmtree.math.core.implements\autogenerated_inline_func.h

; 3624 :     c = _ADDX_UNIT_DIV(c, xp[0], yp[0], &zp[0]);

	mov	eax, DWORD PTR [r9]
; File z:\sources\lunor\repos\rougemeilland\palmtree.math.core.implements\palmtree.math.core.implements\pmc_internal.h

; 530  :     return (_addcarryx_u32(carry, u, v, w));

	add	cl, -1
	adcx	eax, DWORD PTR [r8]
	mov	DWORD PTR [r9], eax
; File z:\sources\lunor\repos\rougemeilland\palmtree.math.core.implements\palmtree.math.core.implements\autogenerated_inline_func.h

; 3625 :     c = _ADDX_UNIT_DIV(c, xp[1], yp[1], &zp[1]);

	mov	eax, DWORD PTR [r9+4]
; File z:\sources\lunor\repos\rougemeilland\palmtree.math.core.implements\palmtree.math.core.implements\pmc_internal.h

; 530  :     return (_addcarryx_u32(carry, u, v, w));

	adcx	eax, DWORD PTR [r8+4]
	mov	DWORD PTR [r9+4], eax
; File z:\sources\lunor\repos\rougemeilland\palmtree.math.core.implements\palmtree.math.core.implements\autogenerated_inline_func.h

; 3626 :     c = _ADDX_UNIT_DIV(c, xp[2], yp[2], &zp[2]);

	mov	eax, DWORD PTR [r9+8]
; File z:\sources\lunor\repos\rougemeilland\palmtree.math.core.implements\palmtree.math.core.implements\pmc_internal.h

; 530  :     return (_addcarryx_u32(carry, u, v, w));

	adcx	eax, DWORD PTR [r8+8]
	mov	DWORD PTR [r9+8], eax
; File z:\sources\lunor\repos\rougemeilland\palmtree.math.core.implements\palmtree.math.core.implements\autogenerated_inline_func.h

; 3627 :     c = _ADDX_UNIT_DIV(c, xp[3], yp[3], &zp[3]);

	mov	eax, DWORD PTR [r9+12]
; File z:\sources\lunor\repos\rougemeilland\palmtree.math.core.implements\palmtree.math.core.implements\pmc_internal.h

; 530  :     return (_addcarryx_u32(carry, u, v, w));

	adcx	eax, DWORD PTR [r8+12]
	mov	DWORD PTR [r9+12], eax
; File z:\sources\lunor\repos\rougemeilland\palmtree.math.core.implements\palmtree.math.core.implements\autogenerated_inline_func.h

; 3628 :     c = _ADDX_UNIT_DIV(c, xp[4], yp[4], &zp[4]);

	mov	eax, DWORD PTR [r9+16]
; File z:\sources\lunor\repos\rougemeilland\palmtree.math.core.implements\palmtree.math.core.implements\pmc_internal.h

; 530  :     return (_addcarryx_u32(carry, u, v, w));

	adcx	eax, DWORD PTR [r8+16]
	mov	DWORD PTR [r9+16], eax
; File z:\sources\lunor\repos\rougemeilland\palmtree.math.core.implements\palmtree.math.core.implements\autogenerated_inline_func.h

; 3629 :     c = _ADDX_UNIT_DIV(c, xp[5], yp[5], &zp[5]);

	mov	eax, DWORD PTR [r9+20]
; File z:\sources\lunor\repos\rougemeilland\palmtree.math.core.implements\palmtree.math.core.implements\pmc_internal.h

; 530  :     return (_addcarryx_u32(carry, u, v, w));

	adcx	eax, DWORD PTR [r8+20]
	mov	DWORD PTR [r9+20], eax
; File z:\sources\lunor\repos\rougemeilland\palmtree.math.core.implements\palmtree.math.core.implements\autogenerated_inline_func.h

; 3630 :     c = _ADDX_UNIT_DIV(c, xp[6], yp[6], &zp[6]);

	mov	eax, DWORD PTR [r9+24]
; File z:\sources\lunor\repos\rougemeilland\palmtree.math.core.implements\palmtree.math.core.implements\pmc_internal.h

; 530  :     return (_addcarryx_u32(carry, u, v, w));

	adcx	eax, DWORD PTR [r8+24]
	mov	DWORD PTR [r9+24], eax
; File z:\sources\lunor\repos\rougemeilland\palmtree.math.core.implements\palmtree.math.core.implements\autogenerated_inline_func.h

; 3631 :     c = _ADDX_UNIT_DIV(c, xp[7], yp[7], &zp[7]);

	mov	eax, DWORD PTR [r9+28]
; File z:\sources\lunor\repos\rougemeilland\palmtree.math.core.implements\palmtree.math.core.implements\pmc_internal.h

; 530  :     return (_addcarryx_u32(carry, u, v, w));

	adcx	eax, DWORD PTR [r8+28]
	mov	DWORD PTR [r9+28], eax
	setb	cl
; File z:\sources\lunor\repos\rougemeilland\palmtree.math.core.implements\palmtree.math.core.implements\pmc_divrem.c

; 882  :         u_ptr += 8;

	add	r9, 32					; 00000020H

; 883  :         v_ptr += 8;

	add	r8, 32					; 00000020H
$LN5@AddOneLine:

; 884  :     }
; 885  :     // この時点で未処理の桁は 8 ワード未満のはず
; 886  : 
; 887  :     // 未処理の桁が 4 ワード以上あるなら 4 ワード加算を行う。
; 888  :     if (v_count & 0x4)

	test	r10b, 4
	je	SHORT $LN6@AddOneLine
; File z:\sources\lunor\repos\rougemeilland\palmtree.math.core.implements\palmtree.math.core.implements\autogenerated_inline_func.h

; 4164 :     c = _ADDX_UNIT_DIV(c, xp[0], yp[0], &zp[0]);

	mov	eax, DWORD PTR [r9]
; File z:\sources\lunor\repos\rougemeilland\palmtree.math.core.implements\palmtree.math.core.implements\pmc_internal.h

; 530  :     return (_addcarryx_u32(carry, u, v, w));

	add	cl, -1
	adcx	eax, DWORD PTR [r8]
	mov	DWORD PTR [r9], eax
; File z:\sources\lunor\repos\rougemeilland\palmtree.math.core.implements\palmtree.math.core.implements\autogenerated_inline_func.h

; 4165 :     c = _ADDX_UNIT_DIV(c, xp[1], yp[1], &zp[1]);

	mov	eax, DWORD PTR [r9+4]
; File z:\sources\lunor\repos\rougemeilland\palmtree.math.core.implements\palmtree.math.core.implements\pmc_internal.h

; 530  :     return (_addcarryx_u32(carry, u, v, w));

	adcx	eax, DWORD PTR [r8+4]
	mov	DWORD PTR [r9+4], eax
; File z:\sources\lunor\repos\rougemeilland\palmtree.math.core.implements\palmtree.math.core.implements\autogenerated_inline_func.h

; 4166 :     c = _ADDX_UNIT_DIV(c, xp[2], yp[2], &zp[2]);

	mov	eax, DWORD PTR [r9+8]
; File z:\sources\lunor\repos\rougemeilland\palmtree.math.core.implements\palmtree.math.core.implements\pmc_internal.h

; 530  :     return (_addcarryx_u32(carry, u, v, w));

	adcx	eax, DWORD PTR [r8+8]
	mov	DWORD PTR [r9+8], eax
; File z:\sources\lunor\repos\rougemeilland\palmtree.math.core.implements\palmtree.math.core.implements\autogenerated_inline_func.h

; 4167 :     c = _ADDX_UNIT_DIV(c, xp[3], yp[3], &zp[3]);

	mov	eax, DWORD PTR [r9+12]
; File z:\sources\lunor\repos\rougemeilland\palmtree.math.core.implements\palmtree.math.core.implements\pmc_internal.h

; 530  :     return (_addcarryx_u32(carry, u, v, w));

	adcx	eax, DWORD PTR [r8+12]
	mov	DWORD PTR [r9+12], eax
	setb	cl
; File z:\sources\lunor\repos\rougemeilland\palmtree.math.core.implements\palmtree.math.core.implements\pmc_divrem.c

; 891  :         u_ptr += 4;

	add	r9, 16

; 892  :         v_ptr += 4;

	add	r8, 16
$LN6@AddOneLine:

; 893  :     }
; 894  :     // この時点で未処理の桁は 4 ワード未満のはず
; 895  : 
; 896  :     // 未処理の桁が 2 ワード以上あるなら 2 ワード加算を行う。
; 897  :     if (v_count & 0x2)

	test	r10b, 2
	je	SHORT $LN7@AddOneLine
; File z:\sources\lunor\repos\rougemeilland\palmtree.math.core.implements\palmtree.math.core.implements\autogenerated_inline_func.h

; 4550 :     c = _ADDX_UNIT_DIV(c, xp[0], yp[0], &zp[0]);

	mov	eax, DWORD PTR [r9]
; File z:\sources\lunor\repos\rougemeilland\palmtree.math.core.implements\palmtree.math.core.implements\pmc_internal.h

; 530  :     return (_addcarryx_u32(carry, u, v, w));

	add	cl, -1
	adcx	eax, DWORD PTR [r8]
	mov	DWORD PTR [r9], eax
; File z:\sources\lunor\repos\rougemeilland\palmtree.math.core.implements\palmtree.math.core.implements\autogenerated_inline_func.h

; 4551 :     c = _ADDX_UNIT_DIV(c, xp[1], yp[1], &zp[1]);

	mov	eax, DWORD PTR [r9+4]
; File z:\sources\lunor\repos\rougemeilland\palmtree.math.core.implements\palmtree.math.core.implements\pmc_internal.h

; 530  :     return (_addcarryx_u32(carry, u, v, w));

	adcx	eax, DWORD PTR [r8+4]
	mov	DWORD PTR [r9+4], eax
	setb	cl
; File z:\sources\lunor\repos\rougemeilland\palmtree.math.core.implements\palmtree.math.core.implements\pmc_divrem.c

; 900  :         u_ptr += 2;

	add	r9, 8

; 901  :         v_ptr += 2;

	add	r8, 8
$LN7@AddOneLine:

; 902  :     }
; 903  :     // この時点で未処理の桁は 2 ワード未満のはず
; 904  : 
; 905  :     // 未処理の桁が 1 ワード以上あるなら 1 ワード加算を行う。
; 906  :     if (v_count & 0x1)

	test	r10b, 1
	je	SHORT $LN8@AddOneLine

; 907  :     {
; 908  :         c = _ADD_UNIT_DIV(c, *u_ptr, *v_ptr, u_ptr);

	mov	eax, DWORD PTR [r9]
; File z:\sources\lunor\repos\rougemeilland\palmtree.math.core.implements\palmtree.math.core.implements\pmc_internal.h

; 502  :     return (_addcarry_u32(carry, u, v, w));

	add	cl, -1
	adc	eax, DWORD PTR [r8]
	mov	DWORD PTR [r9], eax
	setb	cl
; File z:\sources\lunor\repos\rougemeilland\palmtree.math.core.implements\palmtree.math.core.implements\pmc_divrem.c

; 909  :         ++u_ptr;

	add	r9, 4
$LN8@AddOneLine:

; 910  :         ++v_ptr;
; 911  :     }
; 912  : 
; 913  :     // 残りの桁の繰り上がりを計算する。
; 914  :     DoCarry(c, u_ptr, u_buf + u_buf_len + 1 - u_ptr);

	lea	rdx, QWORD PTR [rdi*4+4]
	sub	rdx, r9
	add	rdx, rbx
	sar	rdx, 2

; 761  :         if (u_count <= 0)

	test	rdx, rdx
	je	SHORT $LN131@AddOneLine
$LL113@AddOneLine:

; 762  :         {
; 763  :             // u の最上位まで達してしまった場合
; 764  :             return;
; 765  :         }
; 766  :         else if (c)

	test	cl, cl
	je	SHORT $LN131@AddOneLine

; 767  :         {
; 768  :             // u の最上位に達しておらず、かつキャリーが立っている場合
; 769  : 
; 770  :             // 繰り上がりを継続する
; 771  :             c = _ADD_UNIT_DIV(c, *u_ptr, 0, u_ptr);

	mov	eax, DWORD PTR [r9]
; File z:\sources\lunor\repos\rougemeilland\palmtree.math.core.implements\palmtree.math.core.implements\pmc_internal.h

; 502  :     return (_addcarry_u32(carry, u, v, w));

	add	cl, -1
	adc	eax, 0
	mov	DWORD PTR [r9], eax
	setb	cl
; File z:\sources\lunor\repos\rougemeilland\palmtree.math.core.implements\palmtree.math.core.implements\pmc_divrem.c

; 772  :             ++u_ptr;

	add	r9, 4

; 773  :             --u_count;

	sub	rdx, 1
	jne	SHORT $LL113@AddOneLine
$LN131@AddOneLine:

; 915  : }

	mov	rbx, QWORD PTR [rsp+48]
	add	rsp, 32					; 00000020H
	pop	rdi
	ret	0
AddOneLineX ENDP
_TEXT	ENDS
; Function compile flags: /Ogtpy
; File z:\sources\lunor\repos\rougemeilland\palmtree.math.core.implements\palmtree.math.core.implements\pmc_divrem.c
; File z:\sources\lunor\repos\rougemeilland\palmtree.math.core.implements\palmtree.math.core.implements\autogenerated_inline_func.h
; File z:\sources\lunor\repos\rougemeilland\palmtree.math.core.implements\palmtree.math.core.implements\pmc_internal.h
; File z:\sources\lunor\repos\rougemeilland\palmtree.math.core.implements\palmtree.math.core.implements\autogenerated_inline_func.h
; File z:\sources\lunor\repos\rougemeilland\palmtree.math.core.implements\palmtree.math.core.implements\pmc_internal.h
; File z:\sources\lunor\repos\rougemeilland\palmtree.math.core.implements\palmtree.math.core.implements\autogenerated_inline_func.h
; File z:\sources\lunor\repos\rougemeilland\palmtree.math.core.implements\palmtree.math.core.implements\pmc_internal.h
; File z:\sources\lunor\repos\rougemeilland\palmtree.math.core.implements\palmtree.math.core.implements\autogenerated_inline_func.h
; File z:\sources\lunor\repos\rougemeilland\palmtree.math.core.implements\palmtree.math.core.implements\pmc_internal.h
; File z:\sources\lunor\repos\rougemeilland\palmtree.math.core.implements\palmtree.math.core.implements\autogenerated_inline_func.h
; File z:\sources\lunor\repos\rougemeilland\palmtree.math.core.implements\palmtree.math.core.implements\pmc_internal.h
; File z:\sources\lunor\repos\rougemeilland\palmtree.math.core.implements\palmtree.math.core.implements\autogenerated_inline_func.h
; File z:\sources\lunor\repos\rougemeilland\palmtree.math.core.implements\palmtree.math.core.implements\pmc_internal.h
; File z:\sources\lunor\repos\rougemeilland\palmtree.math.core.implements\palmtree.math.core.implements\autogenerated_inline_func.h
; File z:\sources\lunor\repos\rougemeilland\palmtree.math.core.implements\palmtree.math.core.implements\pmc_internal.h
; File z:\sources\lunor\repos\rougemeilland\palmtree.math.core.implements\palmtree.math.core.implements\autogenerated_inline_func.h
; File z:\sources\lunor\repos\rougemeilland\palmtree.math.core.implements\palmtree.math.core.implements\pmc_internal.h
; File z:\sources\lunor\repos\rougemeilland\palmtree.math.core.implements\palmtree.math.core.implements\autogenerated_inline_func.h
; File z:\sources\lunor\repos\rougemeilland\palmtree.math.core.implements\palmtree.math.core.implements\pmc_internal.h
; File z:\sources\lunor\repos\rougemeilland\palmtree.math.core.implements\palmtree.math.core.implements\autogenerated_inline_func.h
; File z:\sources\lunor\repos\rougemeilland\palmtree.math.core.implements\palmtree.math.core.implements\pmc_internal.h
; File z:\sources\lunor\repos\rougemeilland\palmtree.math.core.implements\palmtree.math.core.implements\autogenerated_inline_func.h
; File z:\sources\lunor\repos\rougemeilland\palmtree.math.core.implements\palmtree.math.core.implements\pmc_internal.h
; File z:\sources\lunor\repos\rougemeilland\palmtree.math.core.implements\palmtree.math.core.implements\autogenerated_inline_func.h
; File z:\sources\lunor\repos\rougemeilland\palmtree.math.core.implements\palmtree.math.core.implements\pmc_internal.h
; File z:\sources\lunor\repos\rougemeilland\palmtree.math.core.implements\palmtree.math.core.implements\autogenerated_inline_func.h
; File z:\sources\lunor\repos\rougemeilland\palmtree.math.core.implements\palmtree.math.core.implements\pmc_internal.h
; File z:\sources\lunor\repos\rougemeilland\palmtree.math.core.implements\palmtree.math.core.implements\autogenerated_inline_func.h
; File z:\sources\lunor\repos\rougemeilland\palmtree.math.core.implements\palmtree.math.core.implements\pmc_internal.h
; File z:\sources\lunor\repos\rougemeilland\palmtree.math.core.implements\palmtree.math.core.implements\autogenerated_inline_func.h
; File z:\sources\lunor\repos\rougemeilland\palmtree.math.core.implements\palmtree.math.core.implements\pmc_internal.h
; File z:\sources\lunor\repos\rougemeilland\palmtree.math.core.implements\palmtree.math.core.implements\autogenerated_inline_func.h
; File z:\sources\lunor\repos\rougemeilland\palmtree.math.core.implements\palmtree.math.core.implements\pmc_internal.h
; File z:\sources\lunor\repos\rougemeilland\palmtree.math.core.implements\palmtree.math.core.implements\autogenerated_inline_func.h
; File z:\sources\lunor\repos\rougemeilland\palmtree.math.core.implements\palmtree.math.core.implements\pmc_internal.h
; File z:\sources\lunor\repos\rougemeilland\palmtree.math.core.implements\palmtree.math.core.implements\autogenerated_inline_func.h
; File z:\sources\lunor\repos\rougemeilland\palmtree.math.core.implements\palmtree.math.core.implements\pmc_internal.h
; File z:\sources\lunor\repos\rougemeilland\palmtree.math.core.implements\palmtree.math.core.implements\autogenerated_inline_func.h
; File z:\sources\lunor\repos\rougemeilland\palmtree.math.core.implements\palmtree.math.core.implements\pmc_internal.h
; File z:\sources\lunor\repos\rougemeilland\palmtree.math.core.implements\palmtree.math.core.implements\autogenerated_inline_func.h
; File z:\sources\lunor\repos\rougemeilland\palmtree.math.core.implements\palmtree.math.core.implements\pmc_internal.h
; File z:\sources\lunor\repos\rougemeilland\palmtree.math.core.implements\palmtree.math.core.implements\autogenerated_inline_func.h
; File z:\sources\lunor\repos\rougemeilland\palmtree.math.core.implements\palmtree.math.core.implements\pmc_internal.h
; File z:\sources\lunor\repos\rougemeilland\palmtree.math.core.implements\palmtree.math.core.implements\autogenerated_inline_func.h
; File z:\sources\lunor\repos\rougemeilland\palmtree.math.core.implements\palmtree.math.core.implements\pmc_internal.h
; File z:\sources\lunor\repos\rougemeilland\palmtree.math.core.implements\palmtree.math.core.implements\autogenerated_inline_func.h
; File z:\sources\lunor\repos\rougemeilland\palmtree.math.core.implements\palmtree.math.core.implements\pmc_internal.h
; File z:\sources\lunor\repos\rougemeilland\palmtree.math.core.implements\palmtree.math.core.implements\autogenerated_inline_func.h
; File z:\sources\lunor\repos\rougemeilland\palmtree.math.core.implements\palmtree.math.core.implements\pmc_internal.h
; File z:\sources\lunor\repos\rougemeilland\palmtree.math.core.implements\palmtree.math.core.implements\autogenerated_inline_func.h
; File z:\sources\lunor\repos\rougemeilland\palmtree.math.core.implements\palmtree.math.core.implements\pmc_internal.h
; File z:\sources\lunor\repos\rougemeilland\palmtree.math.core.implements\palmtree.math.core.implements\autogenerated_inline_func.h
; File z:\sources\lunor\repos\rougemeilland\palmtree.math.core.implements\palmtree.math.core.implements\pmc_internal.h
; File z:\sources\lunor\repos\rougemeilland\palmtree.math.core.implements\palmtree.math.core.implements\autogenerated_inline_func.h
; File z:\sources\lunor\repos\rougemeilland\palmtree.math.core.implements\palmtree.math.core.implements\pmc_internal.h
; File z:\sources\lunor\repos\rougemeilland\palmtree.math.core.implements\palmtree.math.core.implements\autogenerated_inline_func.h
; File z:\sources\lunor\repos\rougemeilland\palmtree.math.core.implements\palmtree.math.core.implements\pmc_internal.h
; File z:\sources\lunor\repos\rougemeilland\palmtree.math.core.implements\palmtree.math.core.implements\autogenerated_inline_func.h
; File z:\sources\lunor\repos\rougemeilland\palmtree.math.core.implements\palmtree.math.core.implements\pmc_internal.h
; File z:\sources\lunor\repos\rougemeilland\palmtree.math.core.implements\palmtree.math.core.implements\autogenerated_inline_func.h
; File z:\sources\lunor\repos\rougemeilland\palmtree.math.core.implements\palmtree.math.core.implements\pmc_internal.h
; File z:\sources\lunor\repos\rougemeilland\palmtree.math.core.implements\palmtree.math.core.implements\autogenerated_inline_func.h
; File z:\sources\lunor\repos\rougemeilland\palmtree.math.core.implements\palmtree.math.core.implements\pmc_internal.h
; File z:\sources\lunor\repos\rougemeilland\palmtree.math.core.implements\palmtree.math.core.implements\autogenerated_inline_func.h
; File z:\sources\lunor\repos\rougemeilland\palmtree.math.core.implements\palmtree.math.core.implements\pmc_internal.h
; File z:\sources\lunor\repos\rougemeilland\palmtree.math.core.implements\palmtree.math.core.implements\pmc_divrem.c
; File z:\sources\lunor\repos\rougemeilland\palmtree.math.core.implements\palmtree.math.core.implements\autogenerated_inline_func.h
; File z:\sources\lunor\repos\rougemeilland\palmtree.math.core.implements\palmtree.math.core.implements\pmc_internal.h
; File z:\sources\lunor\repos\rougemeilland\palmtree.math.core.implements\palmtree.math.core.implements\autogenerated_inline_func.h
; File z:\sources\lunor\repos\rougemeilland\palmtree.math.core.implements\palmtree.math.core.implements\pmc_internal.h
; File z:\sources\lunor\repos\rougemeilland\palmtree.math.core.implements\palmtree.math.core.implements\autogenerated_inline_func.h
; File z:\sources\lunor\repos\rougemeilland\palmtree.math.core.implements\palmtree.math.core.implements\pmc_internal.h
; File z:\sources\lunor\repos\rougemeilland\palmtree.math.core.implements\palmtree.math.core.implements\autogenerated_inline_func.h
; File z:\sources\lunor\repos\rougemeilland\palmtree.math.core.implements\palmtree.math.core.implements\pmc_internal.h
; File z:\sources\lunor\repos\rougemeilland\palmtree.math.core.implements\palmtree.math.core.implements\autogenerated_inline_func.h
; File z:\sources\lunor\repos\rougemeilland\palmtree.math.core.implements\palmtree.math.core.implements\pmc_internal.h
; File z:\sources\lunor\repos\rougemeilland\palmtree.math.core.implements\palmtree.math.core.implements\autogenerated_inline_func.h
; File z:\sources\lunor\repos\rougemeilland\palmtree.math.core.implements\palmtree.math.core.implements\pmc_internal.h
; File z:\sources\lunor\repos\rougemeilland\palmtree.math.core.implements\palmtree.math.core.implements\autogenerated_inline_func.h
; File z:\sources\lunor\repos\rougemeilland\palmtree.math.core.implements\palmtree.math.core.implements\pmc_internal.h
; File z:\sources\lunor\repos\rougemeilland\palmtree.math.core.implements\palmtree.math.core.implements\autogenerated_inline_func.h
; File z:\sources\lunor\repos\rougemeilland\palmtree.math.core.implements\palmtree.math.core.implements\pmc_internal.h
; File z:\sources\lunor\repos\rougemeilland\palmtree.math.core.implements\palmtree.math.core.implements\autogenerated_inline_func.h
; File z:\sources\lunor\repos\rougemeilland\palmtree.math.core.implements\palmtree.math.core.implements\pmc_internal.h
; File z:\sources\lunor\repos\rougemeilland\palmtree.math.core.implements\palmtree.math.core.implements\autogenerated_inline_func.h
; File z:\sources\lunor\repos\rougemeilland\palmtree.math.core.implements\palmtree.math.core.implements\pmc_internal.h
; File z:\sources\lunor\repos\rougemeilland\palmtree.math.core.implements\palmtree.math.core.implements\autogenerated_inline_func.h
; File z:\sources\lunor\repos\rougemeilland\palmtree.math.core.implements\palmtree.math.core.implements\pmc_internal.h
; File z:\sources\lunor\repos\rougemeilland\palmtree.math.core.implements\palmtree.math.core.implements\autogenerated_inline_func.h
; File z:\sources\lunor\repos\rougemeilland\palmtree.math.core.implements\palmtree.math.core.implements\pmc_internal.h
; File z:\sources\lunor\repos\rougemeilland\palmtree.math.core.implements\palmtree.math.core.implements\autogenerated_inline_func.h
; File z:\sources\lunor\repos\rougemeilland\palmtree.math.core.implements\palmtree.math.core.implements\pmc_internal.h
; File z:\sources\lunor\repos\rougemeilland\palmtree.math.core.implements\palmtree.math.core.implements\autogenerated_inline_func.h
; File z:\sources\lunor\repos\rougemeilland\palmtree.math.core.implements\palmtree.math.core.implements\pmc_internal.h
; File z:\sources\lunor\repos\rougemeilland\palmtree.math.core.implements\palmtree.math.core.implements\autogenerated_inline_func.h
; File z:\sources\lunor\repos\rougemeilland\palmtree.math.core.implements\palmtree.math.core.implements\pmc_internal.h
; File z:\sources\lunor\repos\rougemeilland\palmtree.math.core.implements\palmtree.math.core.implements\autogenerated_inline_func.h
; File z:\sources\lunor\repos\rougemeilland\palmtree.math.core.implements\palmtree.math.core.implements\pmc_internal.h
; File z:\sources\lunor\repos\rougemeilland\palmtree.math.core.implements\palmtree.math.core.implements\pmc_divrem.c
; File z:\sources\lunor\repos\rougemeilland\palmtree.math.core.implements\palmtree.math.core.implements\autogenerated_inline_func.h
; File z:\sources\lunor\repos\rougemeilland\palmtree.math.core.implements\palmtree.math.core.implements\pmc_internal.h
; File z:\sources\lunor\repos\rougemeilland\palmtree.math.core.implements\palmtree.math.core.implements\autogenerated_inline_func.h
; File z:\sources\lunor\repos\rougemeilland\palmtree.math.core.implements\palmtree.math.core.implements\pmc_internal.h
; File z:\sources\lunor\repos\rougemeilland\palmtree.math.core.implements\palmtree.math.core.implements\autogenerated_inline_func.h
; File z:\sources\lunor\repos\rougemeilland\palmtree.math.core.implements\palmtree.math.core.implements\pmc_internal.h
; File z:\sources\lunor\repos\rougemeilland\palmtree.math.core.implements\palmtree.math.core.implements\autogenerated_inline_func.h
; File z:\sources\lunor\repos\rougemeilland\palmtree.math.core.implements\palmtree.math.core.implements\pmc_internal.h
; File z:\sources\lunor\repos\rougemeilland\palmtree.math.core.implements\palmtree.math.core.implements\autogenerated_inline_func.h
; File z:\sources\lunor\repos\rougemeilland\palmtree.math.core.implements\palmtree.math.core.implements\pmc_internal.h
; File z:\sources\lunor\repos\rougemeilland\palmtree.math.core.implements\palmtree.math.core.implements\autogenerated_inline_func.h
; File z:\sources\lunor\repos\rougemeilland\palmtree.math.core.implements\palmtree.math.core.implements\pmc_internal.h
; File z:\sources\lunor\repos\rougemeilland\palmtree.math.core.implements\palmtree.math.core.implements\autogenerated_inline_func.h
; File z:\sources\lunor\repos\rougemeilland\palmtree.math.core.implements\palmtree.math.core.implements\pmc_internal.h
; File z:\sources\lunor\repos\rougemeilland\palmtree.math.core.implements\palmtree.math.core.implements\autogenerated_inline_func.h
; File z:\sources\lunor\repos\rougemeilland\palmtree.math.core.implements\palmtree.math.core.implements\pmc_internal.h
; File z:\sources\lunor\repos\rougemeilland\palmtree.math.core.implements\palmtree.math.core.implements\pmc_divrem.c
; File z:\sources\lunor\repos\rougemeilland\palmtree.math.core.implements\palmtree.math.core.implements\autogenerated_inline_func.h
; File z:\sources\lunor\repos\rougemeilland\palmtree.math.core.implements\palmtree.math.core.implements\pmc_internal.h
; File z:\sources\lunor\repos\rougemeilland\palmtree.math.core.implements\palmtree.math.core.implements\autogenerated_inline_func.h
; File z:\sources\lunor\repos\rougemeilland\palmtree.math.core.implements\palmtree.math.core.implements\pmc_internal.h
; File z:\sources\lunor\repos\rougemeilland\palmtree.math.core.implements\palmtree.math.core.implements\autogenerated_inline_func.h
; File z:\sources\lunor\repos\rougemeilland\palmtree.math.core.implements\palmtree.math.core.implements\pmc_internal.h
; File z:\sources\lunor\repos\rougemeilland\palmtree.math.core.implements\palmtree.math.core.implements\autogenerated_inline_func.h
; File z:\sources\lunor\repos\rougemeilland\palmtree.math.core.implements\palmtree.math.core.implements\pmc_internal.h
; File z:\sources\lunor\repos\rougemeilland\palmtree.math.core.implements\palmtree.math.core.implements\pmc_divrem.c
; File z:\sources\lunor\repos\rougemeilland\palmtree.math.core.implements\palmtree.math.core.implements\autogenerated_inline_func.h
; File z:\sources\lunor\repos\rougemeilland\palmtree.math.core.implements\palmtree.math.core.implements\pmc_internal.h
; File z:\sources\lunor\repos\rougemeilland\palmtree.math.core.implements\palmtree.math.core.implements\autogenerated_inline_func.h
; File z:\sources\lunor\repos\rougemeilland\palmtree.math.core.implements\palmtree.math.core.implements\pmc_internal.h
; File z:\sources\lunor\repos\rougemeilland\palmtree.math.core.implements\palmtree.math.core.implements\pmc_divrem.c
; File z:\sources\lunor\repos\rougemeilland\palmtree.math.core.implements\palmtree.math.core.implements\pmc_internal.h
; File z:\sources\lunor\repos\rougemeilland\palmtree.math.core.implements\palmtree.math.core.implements\pmc_divrem.c
; File z:\sources\lunor\repos\rougemeilland\palmtree.math.core.implements\palmtree.math.core.implements\pmc_internal.h
; File z:\sources\lunor\repos\rougemeilland\palmtree.math.core.implements\palmtree.math.core.implements\pmc_divrem.c
;	COMDAT AddOneLine
_TEXT	SEGMENT
u_buf$ = 8
u_buf_len$ = 16
v_buf$ = 24
v_buf_len$ = 32
q_index$ = 40
AddOneLine PROC						; COMDAT

; 786  : {

	mov	QWORD PTR [rsp+8], rbx

; 787  :     __UNIT_TYPE_DIV* u_ptr = &u_buf[q_index];

	mov	rax, QWORD PTR q_index$[rsp]

; 788  :     __UNIT_TYPE_DIV* v_ptr = &v_buf[0];
; 789  :     __UNIT_TYPE v_count = v_buf_len;
; 790  :     char c = 0;
; 791  : 
; 792  :     // まず 32 ワードずつ加算をする。
; 793  :     __UNIT_TYPE count = v_count >> 5;

	mov	r11, r9
	shr	r11, 5
	xor	r10b, r10b
	mov	rbx, rcx
	lea	rax, QWORD PTR [rcx+rax*4]

; 794  :     while (count != 0)

	test	r11, r11
	je	$LN3@AddOneLine
	npad	12
$LL2@AddOneLine:
; File z:\sources\lunor\repos\rougemeilland\palmtree.math.core.implements\palmtree.math.core.implements\autogenerated_inline_func.h

; 1059 :     c = _ADD_UNIT_DIV(c, xp[0], yp[0], &zp[0]);

	mov	ecx, DWORD PTR [rax]
; File z:\sources\lunor\repos\rougemeilland\palmtree.math.core.implements\palmtree.math.core.implements\pmc_internal.h

; 502  :     return (_addcarry_u32(carry, u, v, w));

	add	r10b, -1
	adc	ecx, DWORD PTR [r8]
	mov	DWORD PTR [rax], ecx
; File z:\sources\lunor\repos\rougemeilland\palmtree.math.core.implements\palmtree.math.core.implements\autogenerated_inline_func.h

; 1060 :     c = _ADD_UNIT_DIV(c, xp[1], yp[1], &zp[1]);

	mov	ecx, DWORD PTR [rax+4]
; File z:\sources\lunor\repos\rougemeilland\palmtree.math.core.implements\palmtree.math.core.implements\pmc_internal.h

; 502  :     return (_addcarry_u32(carry, u, v, w));

	adc	ecx, DWORD PTR [r8+4]
	mov	DWORD PTR [rax+4], ecx
; File z:\sources\lunor\repos\rougemeilland\palmtree.math.core.implements\palmtree.math.core.implements\autogenerated_inline_func.h

; 1061 :     c = _ADD_UNIT_DIV(c, xp[2], yp[2], &zp[2]);

	mov	ecx, DWORD PTR [rax+8]
; File z:\sources\lunor\repos\rougemeilland\palmtree.math.core.implements\palmtree.math.core.implements\pmc_internal.h

; 502  :     return (_addcarry_u32(carry, u, v, w));

	adc	ecx, DWORD PTR [r8+8]
	mov	DWORD PTR [rax+8], ecx
; File z:\sources\lunor\repos\rougemeilland\palmtree.math.core.implements\palmtree.math.core.implements\autogenerated_inline_func.h

; 1062 :     c = _ADD_UNIT_DIV(c, xp[3], yp[3], &zp[3]);

	mov	ecx, DWORD PTR [rax+12]
; File z:\sources\lunor\repos\rougemeilland\palmtree.math.core.implements\palmtree.math.core.implements\pmc_internal.h

; 502  :     return (_addcarry_u32(carry, u, v, w));

	adc	ecx, DWORD PTR [r8+12]
	mov	DWORD PTR [rax+12], ecx
; File z:\sources\lunor\repos\rougemeilland\palmtree.math.core.implements\palmtree.math.core.implements\autogenerated_inline_func.h

; 1063 :     c = _ADD_UNIT_DIV(c, xp[4], yp[4], &zp[4]);

	mov	ecx, DWORD PTR [rax+16]
; File z:\sources\lunor\repos\rougemeilland\palmtree.math.core.implements\palmtree.math.core.implements\pmc_internal.h

; 502  :     return (_addcarry_u32(carry, u, v, w));

	adc	ecx, DWORD PTR [r8+16]
	mov	DWORD PTR [rax+16], ecx
; File z:\sources\lunor\repos\rougemeilland\palmtree.math.core.implements\palmtree.math.core.implements\autogenerated_inline_func.h

; 1064 :     c = _ADD_UNIT_DIV(c, xp[5], yp[5], &zp[5]);

	mov	ecx, DWORD PTR [rax+20]
; File z:\sources\lunor\repos\rougemeilland\palmtree.math.core.implements\palmtree.math.core.implements\pmc_internal.h

; 502  :     return (_addcarry_u32(carry, u, v, w));

	adc	ecx, DWORD PTR [r8+20]
	mov	DWORD PTR [rax+20], ecx
; File z:\sources\lunor\repos\rougemeilland\palmtree.math.core.implements\palmtree.math.core.implements\autogenerated_inline_func.h

; 1065 :     c = _ADD_UNIT_DIV(c, xp[6], yp[6], &zp[6]);

	mov	ecx, DWORD PTR [rax+24]
; File z:\sources\lunor\repos\rougemeilland\palmtree.math.core.implements\palmtree.math.core.implements\pmc_internal.h

; 502  :     return (_addcarry_u32(carry, u, v, w));

	adc	ecx, DWORD PTR [r8+24]
	mov	DWORD PTR [rax+24], ecx
; File z:\sources\lunor\repos\rougemeilland\palmtree.math.core.implements\palmtree.math.core.implements\autogenerated_inline_func.h

; 1066 :     c = _ADD_UNIT_DIV(c, xp[7], yp[7], &zp[7]);

	mov	ecx, DWORD PTR [rax+28]
; File z:\sources\lunor\repos\rougemeilland\palmtree.math.core.implements\palmtree.math.core.implements\pmc_internal.h

; 502  :     return (_addcarry_u32(carry, u, v, w));

	adc	ecx, DWORD PTR [r8+28]
	mov	DWORD PTR [rax+28], ecx
; File z:\sources\lunor\repos\rougemeilland\palmtree.math.core.implements\palmtree.math.core.implements\autogenerated_inline_func.h

; 1067 :     c = _ADD_UNIT_DIV(c, xp[8], yp[8], &zp[8]);

	mov	ecx, DWORD PTR [rax+32]
; File z:\sources\lunor\repos\rougemeilland\palmtree.math.core.implements\palmtree.math.core.implements\pmc_internal.h

; 502  :     return (_addcarry_u32(carry, u, v, w));

	adc	ecx, DWORD PTR [r8+32]
	mov	DWORD PTR [rax+32], ecx
; File z:\sources\lunor\repos\rougemeilland\palmtree.math.core.implements\palmtree.math.core.implements\autogenerated_inline_func.h

; 1068 :     c = _ADD_UNIT_DIV(c, xp[9], yp[9], &zp[9]);

	mov	ecx, DWORD PTR [rax+36]
; File z:\sources\lunor\repos\rougemeilland\palmtree.math.core.implements\palmtree.math.core.implements\pmc_internal.h

; 502  :     return (_addcarry_u32(carry, u, v, w));

	adc	ecx, DWORD PTR [r8+36]
	mov	DWORD PTR [rax+36], ecx
; File z:\sources\lunor\repos\rougemeilland\palmtree.math.core.implements\palmtree.math.core.implements\autogenerated_inline_func.h

; 1069 :     c = _ADD_UNIT_DIV(c, xp[10], yp[10], &zp[10]);

	mov	ecx, DWORD PTR [rax+40]
; File z:\sources\lunor\repos\rougemeilland\palmtree.math.core.implements\palmtree.math.core.implements\pmc_internal.h

; 502  :     return (_addcarry_u32(carry, u, v, w));

	adc	ecx, DWORD PTR [r8+40]
	mov	DWORD PTR [rax+40], ecx
; File z:\sources\lunor\repos\rougemeilland\palmtree.math.core.implements\palmtree.math.core.implements\autogenerated_inline_func.h

; 1070 :     c = _ADD_UNIT_DIV(c, xp[11], yp[11], &zp[11]);

	mov	ecx, DWORD PTR [rax+44]
; File z:\sources\lunor\repos\rougemeilland\palmtree.math.core.implements\palmtree.math.core.implements\pmc_internal.h

; 502  :     return (_addcarry_u32(carry, u, v, w));

	adc	ecx, DWORD PTR [r8+44]
	mov	DWORD PTR [rax+44], ecx
; File z:\sources\lunor\repos\rougemeilland\palmtree.math.core.implements\palmtree.math.core.implements\autogenerated_inline_func.h

; 1071 :     c = _ADD_UNIT_DIV(c, xp[12], yp[12], &zp[12]);

	mov	ecx, DWORD PTR [rax+48]
; File z:\sources\lunor\repos\rougemeilland\palmtree.math.core.implements\palmtree.math.core.implements\pmc_internal.h

; 502  :     return (_addcarry_u32(carry, u, v, w));

	adc	ecx, DWORD PTR [r8+48]
	mov	DWORD PTR [rax+48], ecx
; File z:\sources\lunor\repos\rougemeilland\palmtree.math.core.implements\palmtree.math.core.implements\autogenerated_inline_func.h

; 1072 :     c = _ADD_UNIT_DIV(c, xp[13], yp[13], &zp[13]);

	mov	ecx, DWORD PTR [rax+52]
; File z:\sources\lunor\repos\rougemeilland\palmtree.math.core.implements\palmtree.math.core.implements\pmc_internal.h

; 502  :     return (_addcarry_u32(carry, u, v, w));

	adc	ecx, DWORD PTR [r8+52]
	mov	DWORD PTR [rax+52], ecx
; File z:\sources\lunor\repos\rougemeilland\palmtree.math.core.implements\palmtree.math.core.implements\autogenerated_inline_func.h

; 1073 :     c = _ADD_UNIT_DIV(c, xp[14], yp[14], &zp[14]);

	mov	ecx, DWORD PTR [rax+56]
; File z:\sources\lunor\repos\rougemeilland\palmtree.math.core.implements\palmtree.math.core.implements\pmc_internal.h

; 502  :     return (_addcarry_u32(carry, u, v, w));

	adc	ecx, DWORD PTR [r8+56]
	mov	DWORD PTR [rax+56], ecx
; File z:\sources\lunor\repos\rougemeilland\palmtree.math.core.implements\palmtree.math.core.implements\autogenerated_inline_func.h

; 1074 :     c = _ADD_UNIT_DIV(c, xp[15], yp[15], &zp[15]);

	mov	ecx, DWORD PTR [rax+60]
; File z:\sources\lunor\repos\rougemeilland\palmtree.math.core.implements\palmtree.math.core.implements\pmc_internal.h

; 502  :     return (_addcarry_u32(carry, u, v, w));

	adc	ecx, DWORD PTR [r8+60]
	mov	DWORD PTR [rax+60], ecx
; File z:\sources\lunor\repos\rougemeilland\palmtree.math.core.implements\palmtree.math.core.implements\autogenerated_inline_func.h

; 1075 :     c = _ADD_UNIT_DIV(c, xp[16], yp[16], &zp[16]);

	mov	ecx, DWORD PTR [rax+64]
; File z:\sources\lunor\repos\rougemeilland\palmtree.math.core.implements\palmtree.math.core.implements\pmc_internal.h

; 502  :     return (_addcarry_u32(carry, u, v, w));

	adc	ecx, DWORD PTR [r8+64]
	mov	DWORD PTR [rax+64], ecx
; File z:\sources\lunor\repos\rougemeilland\palmtree.math.core.implements\palmtree.math.core.implements\autogenerated_inline_func.h

; 1076 :     c = _ADD_UNIT_DIV(c, xp[17], yp[17], &zp[17]);

	mov	ecx, DWORD PTR [rax+68]
; File z:\sources\lunor\repos\rougemeilland\palmtree.math.core.implements\palmtree.math.core.implements\pmc_internal.h

; 502  :     return (_addcarry_u32(carry, u, v, w));

	adc	ecx, DWORD PTR [r8+68]
	mov	DWORD PTR [rax+68], ecx
; File z:\sources\lunor\repos\rougemeilland\palmtree.math.core.implements\palmtree.math.core.implements\autogenerated_inline_func.h

; 1077 :     c = _ADD_UNIT_DIV(c, xp[18], yp[18], &zp[18]);

	mov	ecx, DWORD PTR [rax+72]
; File z:\sources\lunor\repos\rougemeilland\palmtree.math.core.implements\palmtree.math.core.implements\pmc_internal.h

; 502  :     return (_addcarry_u32(carry, u, v, w));

	adc	ecx, DWORD PTR [r8+72]
	mov	DWORD PTR [rax+72], ecx
; File z:\sources\lunor\repos\rougemeilland\palmtree.math.core.implements\palmtree.math.core.implements\autogenerated_inline_func.h

; 1078 :     c = _ADD_UNIT_DIV(c, xp[19], yp[19], &zp[19]);

	mov	ecx, DWORD PTR [rax+76]
; File z:\sources\lunor\repos\rougemeilland\palmtree.math.core.implements\palmtree.math.core.implements\pmc_internal.h

; 502  :     return (_addcarry_u32(carry, u, v, w));

	adc	ecx, DWORD PTR [r8+76]
	mov	DWORD PTR [rax+76], ecx
; File z:\sources\lunor\repos\rougemeilland\palmtree.math.core.implements\palmtree.math.core.implements\autogenerated_inline_func.h

; 1079 :     c = _ADD_UNIT_DIV(c, xp[20], yp[20], &zp[20]);

	mov	ecx, DWORD PTR [rax+80]
; File z:\sources\lunor\repos\rougemeilland\palmtree.math.core.implements\palmtree.math.core.implements\pmc_internal.h

; 502  :     return (_addcarry_u32(carry, u, v, w));

	adc	ecx, DWORD PTR [r8+80]
	mov	DWORD PTR [rax+80], ecx
; File z:\sources\lunor\repos\rougemeilland\palmtree.math.core.implements\palmtree.math.core.implements\autogenerated_inline_func.h

; 1080 :     c = _ADD_UNIT_DIV(c, xp[21], yp[21], &zp[21]);

	mov	ecx, DWORD PTR [rax+84]
; File z:\sources\lunor\repos\rougemeilland\palmtree.math.core.implements\palmtree.math.core.implements\pmc_internal.h

; 502  :     return (_addcarry_u32(carry, u, v, w));

	adc	ecx, DWORD PTR [r8+84]
	mov	DWORD PTR [rax+84], ecx
; File z:\sources\lunor\repos\rougemeilland\palmtree.math.core.implements\palmtree.math.core.implements\autogenerated_inline_func.h

; 1081 :     c = _ADD_UNIT_DIV(c, xp[22], yp[22], &zp[22]);

	mov	ecx, DWORD PTR [rax+88]
; File z:\sources\lunor\repos\rougemeilland\palmtree.math.core.implements\palmtree.math.core.implements\pmc_internal.h

; 502  :     return (_addcarry_u32(carry, u, v, w));

	adc	ecx, DWORD PTR [r8+88]
	mov	DWORD PTR [rax+88], ecx
; File z:\sources\lunor\repos\rougemeilland\palmtree.math.core.implements\palmtree.math.core.implements\autogenerated_inline_func.h

; 1082 :     c = _ADD_UNIT_DIV(c, xp[23], yp[23], &zp[23]);

	mov	ecx, DWORD PTR [rax+92]
; File z:\sources\lunor\repos\rougemeilland\palmtree.math.core.implements\palmtree.math.core.implements\pmc_internal.h

; 502  :     return (_addcarry_u32(carry, u, v, w));

	adc	ecx, DWORD PTR [r8+92]
	mov	DWORD PTR [rax+92], ecx
; File z:\sources\lunor\repos\rougemeilland\palmtree.math.core.implements\palmtree.math.core.implements\autogenerated_inline_func.h

; 1083 :     c = _ADD_UNIT_DIV(c, xp[24], yp[24], &zp[24]);

	mov	ecx, DWORD PTR [rax+96]
; File z:\sources\lunor\repos\rougemeilland\palmtree.math.core.implements\palmtree.math.core.implements\pmc_internal.h

; 502  :     return (_addcarry_u32(carry, u, v, w));

	adc	ecx, DWORD PTR [r8+96]
	mov	DWORD PTR [rax+96], ecx
; File z:\sources\lunor\repos\rougemeilland\palmtree.math.core.implements\palmtree.math.core.implements\autogenerated_inline_func.h

; 1084 :     c = _ADD_UNIT_DIV(c, xp[25], yp[25], &zp[25]);

	mov	ecx, DWORD PTR [rax+100]
; File z:\sources\lunor\repos\rougemeilland\palmtree.math.core.implements\palmtree.math.core.implements\pmc_internal.h

; 502  :     return (_addcarry_u32(carry, u, v, w));

	adc	ecx, DWORD PTR [r8+100]
	mov	DWORD PTR [rax+100], ecx
; File z:\sources\lunor\repos\rougemeilland\palmtree.math.core.implements\palmtree.math.core.implements\autogenerated_inline_func.h

; 1085 :     c = _ADD_UNIT_DIV(c, xp[26], yp[26], &zp[26]);

	mov	ecx, DWORD PTR [rax+104]
; File z:\sources\lunor\repos\rougemeilland\palmtree.math.core.implements\palmtree.math.core.implements\pmc_internal.h

; 502  :     return (_addcarry_u32(carry, u, v, w));

	adc	ecx, DWORD PTR [r8+104]
	mov	DWORD PTR [rax+104], ecx
; File z:\sources\lunor\repos\rougemeilland\palmtree.math.core.implements\palmtree.math.core.implements\autogenerated_inline_func.h

; 1086 :     c = _ADD_UNIT_DIV(c, xp[27], yp[27], &zp[27]);

	mov	ecx, DWORD PTR [rax+108]
; File z:\sources\lunor\repos\rougemeilland\palmtree.math.core.implements\palmtree.math.core.implements\pmc_internal.h

; 502  :     return (_addcarry_u32(carry, u, v, w));

	adc	ecx, DWORD PTR [r8+108]
	mov	DWORD PTR [rax+108], ecx
; File z:\sources\lunor\repos\rougemeilland\palmtree.math.core.implements\palmtree.math.core.implements\autogenerated_inline_func.h

; 1087 :     c = _ADD_UNIT_DIV(c, xp[28], yp[28], &zp[28]);

	mov	ecx, DWORD PTR [rax+112]
; File z:\sources\lunor\repos\rougemeilland\palmtree.math.core.implements\palmtree.math.core.implements\pmc_internal.h

; 502  :     return (_addcarry_u32(carry, u, v, w));

	adc	ecx, DWORD PTR [r8+112]
	mov	DWORD PTR [rax+112], ecx
; File z:\sources\lunor\repos\rougemeilland\palmtree.math.core.implements\palmtree.math.core.implements\autogenerated_inline_func.h

; 1088 :     c = _ADD_UNIT_DIV(c, xp[29], yp[29], &zp[29]);

	mov	ecx, DWORD PTR [rax+116]
; File z:\sources\lunor\repos\rougemeilland\palmtree.math.core.implements\palmtree.math.core.implements\pmc_internal.h

; 502  :     return (_addcarry_u32(carry, u, v, w));

	adc	ecx, DWORD PTR [r8+116]
	mov	DWORD PTR [rax+116], ecx
; File z:\sources\lunor\repos\rougemeilland\palmtree.math.core.implements\palmtree.math.core.implements\autogenerated_inline_func.h

; 1089 :     c = _ADD_UNIT_DIV(c, xp[30], yp[30], &zp[30]);

	mov	ecx, DWORD PTR [rax+120]
; File z:\sources\lunor\repos\rougemeilland\palmtree.math.core.implements\palmtree.math.core.implements\pmc_internal.h

; 502  :     return (_addcarry_u32(carry, u, v, w));

	adc	ecx, DWORD PTR [r8+120]
	mov	DWORD PTR [rax+120], ecx
; File z:\sources\lunor\repos\rougemeilland\palmtree.math.core.implements\palmtree.math.core.implements\autogenerated_inline_func.h

; 1090 :     c = _ADD_UNIT_DIV(c, xp[31], yp[31], &zp[31]);

	mov	ecx, DWORD PTR [rax+124]
; File z:\sources\lunor\repos\rougemeilland\palmtree.math.core.implements\palmtree.math.core.implements\pmc_internal.h

; 502  :     return (_addcarry_u32(carry, u, v, w));

	adc	ecx, DWORD PTR [r8+124]
	mov	DWORD PTR [rax+124], ecx
	setb	r10b
; File z:\sources\lunor\repos\rougemeilland\palmtree.math.core.implements\palmtree.math.core.implements\pmc_divrem.c

; 797  :         u_ptr += 32;

	sub	rax, -128				; ffffffffffffff80H

; 798  :         v_ptr += 32;

	sub	r8, -128				; ffffffffffffff80H

; 799  :         --count;

	sub	r11, 1
	jne	$LL2@AddOneLine
$LN3@AddOneLine:

; 800  :     }
; 801  :     // この時点で未処理の桁は 32 ワード未満のはず
; 802  : 
; 803  :     // 未処理の桁が 16 ワード以上あるなら 16 ワード加算を行う。
; 804  :     if (v_count & 0x10)

	test	r9b, 16
	je	$LN4@AddOneLine
; File z:\sources\lunor\repos\rougemeilland\palmtree.math.core.implements\palmtree.math.core.implements\autogenerated_inline_func.h

; 2635 :     c = _ADD_UNIT_DIV(c, xp[0], yp[0], &zp[0]);

	mov	ecx, DWORD PTR [rax]
; File z:\sources\lunor\repos\rougemeilland\palmtree.math.core.implements\palmtree.math.core.implements\pmc_internal.h

; 502  :     return (_addcarry_u32(carry, u, v, w));

	add	r10b, -1
	adc	ecx, DWORD PTR [r8]
	mov	DWORD PTR [rax], ecx
; File z:\sources\lunor\repos\rougemeilland\palmtree.math.core.implements\palmtree.math.core.implements\autogenerated_inline_func.h

; 2636 :     c = _ADD_UNIT_DIV(c, xp[1], yp[1], &zp[1]);

	mov	ecx, DWORD PTR [rax+4]
; File z:\sources\lunor\repos\rougemeilland\palmtree.math.core.implements\palmtree.math.core.implements\pmc_internal.h

; 502  :     return (_addcarry_u32(carry, u, v, w));

	adc	ecx, DWORD PTR [r8+4]
	mov	DWORD PTR [rax+4], ecx
; File z:\sources\lunor\repos\rougemeilland\palmtree.math.core.implements\palmtree.math.core.implements\autogenerated_inline_func.h

; 2637 :     c = _ADD_UNIT_DIV(c, xp[2], yp[2], &zp[2]);

	mov	ecx, DWORD PTR [rax+8]
; File z:\sources\lunor\repos\rougemeilland\palmtree.math.core.implements\palmtree.math.core.implements\pmc_internal.h

; 502  :     return (_addcarry_u32(carry, u, v, w));

	adc	ecx, DWORD PTR [r8+8]
	mov	DWORD PTR [rax+8], ecx
; File z:\sources\lunor\repos\rougemeilland\palmtree.math.core.implements\palmtree.math.core.implements\autogenerated_inline_func.h

; 2638 :     c = _ADD_UNIT_DIV(c, xp[3], yp[3], &zp[3]);

	mov	ecx, DWORD PTR [rax+12]
; File z:\sources\lunor\repos\rougemeilland\palmtree.math.core.implements\palmtree.math.core.implements\pmc_internal.h

; 502  :     return (_addcarry_u32(carry, u, v, w));

	adc	ecx, DWORD PTR [r8+12]
	mov	DWORD PTR [rax+12], ecx
; File z:\sources\lunor\repos\rougemeilland\palmtree.math.core.implements\palmtree.math.core.implements\autogenerated_inline_func.h

; 2639 :     c = _ADD_UNIT_DIV(c, xp[4], yp[4], &zp[4]);

	mov	ecx, DWORD PTR [rax+16]
; File z:\sources\lunor\repos\rougemeilland\palmtree.math.core.implements\palmtree.math.core.implements\pmc_internal.h

; 502  :     return (_addcarry_u32(carry, u, v, w));

	adc	ecx, DWORD PTR [r8+16]
	mov	DWORD PTR [rax+16], ecx
; File z:\sources\lunor\repos\rougemeilland\palmtree.math.core.implements\palmtree.math.core.implements\autogenerated_inline_func.h

; 2640 :     c = _ADD_UNIT_DIV(c, xp[5], yp[5], &zp[5]);

	mov	ecx, DWORD PTR [rax+20]
; File z:\sources\lunor\repos\rougemeilland\palmtree.math.core.implements\palmtree.math.core.implements\pmc_internal.h

; 502  :     return (_addcarry_u32(carry, u, v, w));

	adc	ecx, DWORD PTR [r8+20]
	mov	DWORD PTR [rax+20], ecx
; File z:\sources\lunor\repos\rougemeilland\palmtree.math.core.implements\palmtree.math.core.implements\autogenerated_inline_func.h

; 2641 :     c = _ADD_UNIT_DIV(c, xp[6], yp[6], &zp[6]);

	mov	ecx, DWORD PTR [rax+24]
; File z:\sources\lunor\repos\rougemeilland\palmtree.math.core.implements\palmtree.math.core.implements\pmc_internal.h

; 502  :     return (_addcarry_u32(carry, u, v, w));

	adc	ecx, DWORD PTR [r8+24]
	mov	DWORD PTR [rax+24], ecx
; File z:\sources\lunor\repos\rougemeilland\palmtree.math.core.implements\palmtree.math.core.implements\autogenerated_inline_func.h

; 2642 :     c = _ADD_UNIT_DIV(c, xp[7], yp[7], &zp[7]);

	mov	ecx, DWORD PTR [rax+28]
; File z:\sources\lunor\repos\rougemeilland\palmtree.math.core.implements\palmtree.math.core.implements\pmc_internal.h

; 502  :     return (_addcarry_u32(carry, u, v, w));

	adc	ecx, DWORD PTR [r8+28]
	mov	DWORD PTR [rax+28], ecx
; File z:\sources\lunor\repos\rougemeilland\palmtree.math.core.implements\palmtree.math.core.implements\autogenerated_inline_func.h

; 2643 :     c = _ADD_UNIT_DIV(c, xp[8], yp[8], &zp[8]);

	mov	ecx, DWORD PTR [rax+32]
; File z:\sources\lunor\repos\rougemeilland\palmtree.math.core.implements\palmtree.math.core.implements\pmc_internal.h

; 502  :     return (_addcarry_u32(carry, u, v, w));

	adc	ecx, DWORD PTR [r8+32]
	mov	DWORD PTR [rax+32], ecx
; File z:\sources\lunor\repos\rougemeilland\palmtree.math.core.implements\palmtree.math.core.implements\autogenerated_inline_func.h

; 2644 :     c = _ADD_UNIT_DIV(c, xp[9], yp[9], &zp[9]);

	mov	ecx, DWORD PTR [rax+36]
; File z:\sources\lunor\repos\rougemeilland\palmtree.math.core.implements\palmtree.math.core.implements\pmc_internal.h

; 502  :     return (_addcarry_u32(carry, u, v, w));

	adc	ecx, DWORD PTR [r8+36]
	mov	DWORD PTR [rax+36], ecx
; File z:\sources\lunor\repos\rougemeilland\palmtree.math.core.implements\palmtree.math.core.implements\autogenerated_inline_func.h

; 2645 :     c = _ADD_UNIT_DIV(c, xp[10], yp[10], &zp[10]);

	mov	ecx, DWORD PTR [rax+40]
; File z:\sources\lunor\repos\rougemeilland\palmtree.math.core.implements\palmtree.math.core.implements\pmc_internal.h

; 502  :     return (_addcarry_u32(carry, u, v, w));

	adc	ecx, DWORD PTR [r8+40]
	mov	DWORD PTR [rax+40], ecx
; File z:\sources\lunor\repos\rougemeilland\palmtree.math.core.implements\palmtree.math.core.implements\autogenerated_inline_func.h

; 2646 :     c = _ADD_UNIT_DIV(c, xp[11], yp[11], &zp[11]);

	mov	ecx, DWORD PTR [rax+44]
; File z:\sources\lunor\repos\rougemeilland\palmtree.math.core.implements\palmtree.math.core.implements\pmc_internal.h

; 502  :     return (_addcarry_u32(carry, u, v, w));

	adc	ecx, DWORD PTR [r8+44]
	mov	DWORD PTR [rax+44], ecx
; File z:\sources\lunor\repos\rougemeilland\palmtree.math.core.implements\palmtree.math.core.implements\autogenerated_inline_func.h

; 2647 :     c = _ADD_UNIT_DIV(c, xp[12], yp[12], &zp[12]);

	mov	ecx, DWORD PTR [rax+48]
; File z:\sources\lunor\repos\rougemeilland\palmtree.math.core.implements\palmtree.math.core.implements\pmc_internal.h

; 502  :     return (_addcarry_u32(carry, u, v, w));

	adc	ecx, DWORD PTR [r8+48]
	mov	DWORD PTR [rax+48], ecx
; File z:\sources\lunor\repos\rougemeilland\palmtree.math.core.implements\palmtree.math.core.implements\autogenerated_inline_func.h

; 2648 :     c = _ADD_UNIT_DIV(c, xp[13], yp[13], &zp[13]);

	mov	ecx, DWORD PTR [rax+52]
; File z:\sources\lunor\repos\rougemeilland\palmtree.math.core.implements\palmtree.math.core.implements\pmc_internal.h

; 502  :     return (_addcarry_u32(carry, u, v, w));

	adc	ecx, DWORD PTR [r8+52]
	mov	DWORD PTR [rax+52], ecx
; File z:\sources\lunor\repos\rougemeilland\palmtree.math.core.implements\palmtree.math.core.implements\autogenerated_inline_func.h

; 2649 :     c = _ADD_UNIT_DIV(c, xp[14], yp[14], &zp[14]);

	mov	ecx, DWORD PTR [rax+56]
; File z:\sources\lunor\repos\rougemeilland\palmtree.math.core.implements\palmtree.math.core.implements\pmc_internal.h

; 502  :     return (_addcarry_u32(carry, u, v, w));

	adc	ecx, DWORD PTR [r8+56]
	mov	DWORD PTR [rax+56], ecx
; File z:\sources\lunor\repos\rougemeilland\palmtree.math.core.implements\palmtree.math.core.implements\autogenerated_inline_func.h

; 2650 :     c = _ADD_UNIT_DIV(c, xp[15], yp[15], &zp[15]);

	mov	ecx, DWORD PTR [rax+60]
; File z:\sources\lunor\repos\rougemeilland\palmtree.math.core.implements\palmtree.math.core.implements\pmc_internal.h

; 502  :     return (_addcarry_u32(carry, u, v, w));

	adc	ecx, DWORD PTR [r8+60]
	mov	DWORD PTR [rax+60], ecx
	setb	r10b
; File z:\sources\lunor\repos\rougemeilland\palmtree.math.core.implements\palmtree.math.core.implements\pmc_divrem.c

; 807  :         u_ptr += 16;

	add	rax, 64					; 00000040H

; 808  :         v_ptr += 16;

	add	r8, 64					; 00000040H
$LN4@AddOneLine:

; 809  :     }
; 810  :     // この時点で未処理の桁は 16 ワード未満のはず
; 811  : 
; 812  :     // 未処理の桁が 8 ワード以上あるなら 8 ワード加算を行う。
; 813  :     if (v_count & 0x8)

	test	r9b, 8
	je	SHORT $LN5@AddOneLine
; File z:\sources\lunor\repos\rougemeilland\palmtree.math.core.implements\palmtree.math.core.implements\autogenerated_inline_func.h

; 3539 :     c = _ADD_UNIT_DIV(c, xp[0], yp[0], &zp[0]);

	mov	ecx, DWORD PTR [rax]
; File z:\sources\lunor\repos\rougemeilland\palmtree.math.core.implements\palmtree.math.core.implements\pmc_internal.h

; 502  :     return (_addcarry_u32(carry, u, v, w));

	add	r10b, -1
	adc	ecx, DWORD PTR [r8]
	mov	DWORD PTR [rax], ecx
; File z:\sources\lunor\repos\rougemeilland\palmtree.math.core.implements\palmtree.math.core.implements\autogenerated_inline_func.h

; 3540 :     c = _ADD_UNIT_DIV(c, xp[1], yp[1], &zp[1]);

	mov	ecx, DWORD PTR [rax+4]
; File z:\sources\lunor\repos\rougemeilland\palmtree.math.core.implements\palmtree.math.core.implements\pmc_internal.h

; 502  :     return (_addcarry_u32(carry, u, v, w));

	adc	ecx, DWORD PTR [r8+4]
	mov	DWORD PTR [rax+4], ecx
; File z:\sources\lunor\repos\rougemeilland\palmtree.math.core.implements\palmtree.math.core.implements\autogenerated_inline_func.h

; 3541 :     c = _ADD_UNIT_DIV(c, xp[2], yp[2], &zp[2]);

	mov	ecx, DWORD PTR [rax+8]
; File z:\sources\lunor\repos\rougemeilland\palmtree.math.core.implements\palmtree.math.core.implements\pmc_internal.h

; 502  :     return (_addcarry_u32(carry, u, v, w));

	adc	ecx, DWORD PTR [r8+8]
	mov	DWORD PTR [rax+8], ecx
; File z:\sources\lunor\repos\rougemeilland\palmtree.math.core.implements\palmtree.math.core.implements\autogenerated_inline_func.h

; 3542 :     c = _ADD_UNIT_DIV(c, xp[3], yp[3], &zp[3]);

	mov	ecx, DWORD PTR [rax+12]
; File z:\sources\lunor\repos\rougemeilland\palmtree.math.core.implements\palmtree.math.core.implements\pmc_internal.h

; 502  :     return (_addcarry_u32(carry, u, v, w));

	adc	ecx, DWORD PTR [r8+12]
	mov	DWORD PTR [rax+12], ecx
; File z:\sources\lunor\repos\rougemeilland\palmtree.math.core.implements\palmtree.math.core.implements\autogenerated_inline_func.h

; 3543 :     c = _ADD_UNIT_DIV(c, xp[4], yp[4], &zp[4]);

	mov	ecx, DWORD PTR [rax+16]
; File z:\sources\lunor\repos\rougemeilland\palmtree.math.core.implements\palmtree.math.core.implements\pmc_internal.h

; 502  :     return (_addcarry_u32(carry, u, v, w));

	adc	ecx, DWORD PTR [r8+16]
	mov	DWORD PTR [rax+16], ecx
; File z:\sources\lunor\repos\rougemeilland\palmtree.math.core.implements\palmtree.math.core.implements\autogenerated_inline_func.h

; 3544 :     c = _ADD_UNIT_DIV(c, xp[5], yp[5], &zp[5]);

	mov	ecx, DWORD PTR [rax+20]
; File z:\sources\lunor\repos\rougemeilland\palmtree.math.core.implements\palmtree.math.core.implements\pmc_internal.h

; 502  :     return (_addcarry_u32(carry, u, v, w));

	adc	ecx, DWORD PTR [r8+20]
	mov	DWORD PTR [rax+20], ecx
; File z:\sources\lunor\repos\rougemeilland\palmtree.math.core.implements\palmtree.math.core.implements\autogenerated_inline_func.h

; 3545 :     c = _ADD_UNIT_DIV(c, xp[6], yp[6], &zp[6]);

	mov	ecx, DWORD PTR [rax+24]
; File z:\sources\lunor\repos\rougemeilland\palmtree.math.core.implements\palmtree.math.core.implements\pmc_internal.h

; 502  :     return (_addcarry_u32(carry, u, v, w));

	adc	ecx, DWORD PTR [r8+24]
	mov	DWORD PTR [rax+24], ecx
; File z:\sources\lunor\repos\rougemeilland\palmtree.math.core.implements\palmtree.math.core.implements\autogenerated_inline_func.h

; 3546 :     c = _ADD_UNIT_DIV(c, xp[7], yp[7], &zp[7]);

	mov	ecx, DWORD PTR [rax+28]
; File z:\sources\lunor\repos\rougemeilland\palmtree.math.core.implements\palmtree.math.core.implements\pmc_internal.h

; 502  :     return (_addcarry_u32(carry, u, v, w));

	adc	ecx, DWORD PTR [r8+28]
	mov	DWORD PTR [rax+28], ecx
	setb	r10b
; File z:\sources\lunor\repos\rougemeilland\palmtree.math.core.implements\palmtree.math.core.implements\pmc_divrem.c

; 816  :         u_ptr += 8;

	add	rax, 32					; 00000020H

; 817  :         v_ptr += 8;

	add	r8, 32					; 00000020H
$LN5@AddOneLine:

; 818  :     }
; 819  :     // この時点で未処理の桁は 8 ワード未満のはず
; 820  : 
; 821  :     // 未処理の桁が 4 ワード以上あるなら 4 ワード加算を行う。
; 822  :     if (v_count & 0x4)

	test	r9b, 4
	je	SHORT $LN6@AddOneLine
; File z:\sources\lunor\repos\rougemeilland\palmtree.math.core.implements\palmtree.math.core.implements\autogenerated_inline_func.h

; 4107 :     c = _ADD_UNIT_DIV(c, xp[0], yp[0], &zp[0]);

	mov	ecx, DWORD PTR [rax]
; File z:\sources\lunor\repos\rougemeilland\palmtree.math.core.implements\palmtree.math.core.implements\pmc_internal.h

; 502  :     return (_addcarry_u32(carry, u, v, w));

	add	r10b, -1
	adc	ecx, DWORD PTR [r8]
	mov	DWORD PTR [rax], ecx
; File z:\sources\lunor\repos\rougemeilland\palmtree.math.core.implements\palmtree.math.core.implements\autogenerated_inline_func.h

; 4108 :     c = _ADD_UNIT_DIV(c, xp[1], yp[1], &zp[1]);

	mov	ecx, DWORD PTR [rax+4]
; File z:\sources\lunor\repos\rougemeilland\palmtree.math.core.implements\palmtree.math.core.implements\pmc_internal.h

; 502  :     return (_addcarry_u32(carry, u, v, w));

	adc	ecx, DWORD PTR [r8+4]
	mov	DWORD PTR [rax+4], ecx
; File z:\sources\lunor\repos\rougemeilland\palmtree.math.core.implements\palmtree.math.core.implements\autogenerated_inline_func.h

; 4109 :     c = _ADD_UNIT_DIV(c, xp[2], yp[2], &zp[2]);

	mov	ecx, DWORD PTR [rax+8]
; File z:\sources\lunor\repos\rougemeilland\palmtree.math.core.implements\palmtree.math.core.implements\pmc_internal.h

; 502  :     return (_addcarry_u32(carry, u, v, w));

	adc	ecx, DWORD PTR [r8+8]
	mov	DWORD PTR [rax+8], ecx
; File z:\sources\lunor\repos\rougemeilland\palmtree.math.core.implements\palmtree.math.core.implements\autogenerated_inline_func.h

; 4110 :     c = _ADD_UNIT_DIV(c, xp[3], yp[3], &zp[3]);

	mov	ecx, DWORD PTR [rax+12]
; File z:\sources\lunor\repos\rougemeilland\palmtree.math.core.implements\palmtree.math.core.implements\pmc_internal.h

; 502  :     return (_addcarry_u32(carry, u, v, w));

	adc	ecx, DWORD PTR [r8+12]
	mov	DWORD PTR [rax+12], ecx
	setb	r10b
; File z:\sources\lunor\repos\rougemeilland\palmtree.math.core.implements\palmtree.math.core.implements\pmc_divrem.c

; 825  :         u_ptr += 4;

	add	rax, 16

; 826  :         v_ptr += 4;

	add	r8, 16
$LN6@AddOneLine:

; 827  :     }
; 828  :     // この時点で未処理の桁は 4 ワード未満のはず
; 829  : 
; 830  :     // 未処理の桁が 2 ワード以上あるなら 2 ワード加算を行う。
; 831  :     if (v_count & 0x2)

	test	r9b, 2
	je	SHORT $LN7@AddOneLine
; File z:\sources\lunor\repos\rougemeilland\palmtree.math.core.implements\palmtree.math.core.implements\autogenerated_inline_func.h

; 4507 :     c = _ADD_UNIT_DIV(c, xp[0], yp[0], &zp[0]);

	mov	ecx, DWORD PTR [rax]
; File z:\sources\lunor\repos\rougemeilland\palmtree.math.core.implements\palmtree.math.core.implements\pmc_internal.h

; 502  :     return (_addcarry_u32(carry, u, v, w));

	add	r10b, -1
	adc	ecx, DWORD PTR [r8]
	mov	DWORD PTR [rax], ecx
; File z:\sources\lunor\repos\rougemeilland\palmtree.math.core.implements\palmtree.math.core.implements\autogenerated_inline_func.h

; 4508 :     c = _ADD_UNIT_DIV(c, xp[1], yp[1], &zp[1]);

	mov	ecx, DWORD PTR [rax+4]
; File z:\sources\lunor\repos\rougemeilland\palmtree.math.core.implements\palmtree.math.core.implements\pmc_internal.h

; 502  :     return (_addcarry_u32(carry, u, v, w));

	adc	ecx, DWORD PTR [r8+4]
	mov	DWORD PTR [rax+4], ecx
	setb	r10b
; File z:\sources\lunor\repos\rougemeilland\palmtree.math.core.implements\palmtree.math.core.implements\pmc_divrem.c

; 834  :         u_ptr += 2;

	add	rax, 8

; 835  :         v_ptr += 2;

	add	r8, 8
$LN7@AddOneLine:

; 836  :     }
; 837  :     // この時点で未処理の桁は 2 ワード未満のはず
; 838  : 
; 839  :     // 未処理の桁が 1 ワード以上あるなら 1 ワード加算を行う。
; 840  :     if (v_count & 0x1)

	test	r9b, 1
	je	SHORT $LN8@AddOneLine

; 841  :     {
; 842  :         c = _ADD_UNIT_DIV(c, *u_ptr, *v_ptr, u_ptr);

	mov	ecx, DWORD PTR [rax]
; File z:\sources\lunor\repos\rougemeilland\palmtree.math.core.implements\palmtree.math.core.implements\pmc_internal.h

; 502  :     return (_addcarry_u32(carry, u, v, w));

	add	r10b, -1
	adc	ecx, DWORD PTR [r8]
	mov	DWORD PTR [rax], ecx
	setb	r10b
; File z:\sources\lunor\repos\rougemeilland\palmtree.math.core.implements\palmtree.math.core.implements\pmc_divrem.c

; 843  :         ++u_ptr;

	add	rax, 4
$LN8@AddOneLine:

; 844  :         ++v_ptr;
; 845  :     }
; 846  : 
; 847  :     // 残りの桁の繰り上がりを計算する。
; 848  :     DoCarry(c, u_ptr, u_buf + u_buf_len + 1 - u_ptr);

	lea	rdx, QWORD PTR [rdx*4+4]
	sub	rdx, rax
	add	rdx, rbx
	sar	rdx, 2

; 761  :         if (u_count <= 0)

	test	rdx, rdx
	je	SHORT $LN165@AddOneLine
$LL147@AddOneLine:

; 762  :         {
; 763  :             // u の最上位まで達してしまった場合
; 764  :             return;
; 765  :         }
; 766  :         else if (c)

	test	r10b, r10b
	je	SHORT $LN165@AddOneLine

; 767  :         {
; 768  :             // u の最上位に達しておらず、かつキャリーが立っている場合
; 769  : 
; 770  :             // 繰り上がりを継続する
; 771  :             c = _ADD_UNIT_DIV(c, *u_ptr, 0, u_ptr);

	mov	ecx, DWORD PTR [rax]
; File z:\sources\lunor\repos\rougemeilland\palmtree.math.core.implements\palmtree.math.core.implements\pmc_internal.h

; 502  :     return (_addcarry_u32(carry, u, v, w));

	add	r10b, -1
	adc	ecx, 0
	mov	DWORD PTR [rax], ecx
	setb	r10b
; File z:\sources\lunor\repos\rougemeilland\palmtree.math.core.implements\palmtree.math.core.implements\pmc_divrem.c

; 772  :             ++u_ptr;

	add	rax, 4

; 773  :             --u_count;

	sub	rdx, 1
	jne	SHORT $LL147@AddOneLine
$LN165@AddOneLine:

; 849  : }

	mov	rbx, QWORD PTR [rsp+8]
	ret	0
AddOneLine ENDP
_TEXT	ENDS
; Function compile flags: /Ogtpy
; File z:\sources\lunor\repos\rougemeilland\palmtree.math.core.implements\palmtree.math.core.implements\pmc_divrem.c
; File z:\sources\lunor\repos\rougemeilland\palmtree.math.core.implements\palmtree.math.core.implements\pmc_internal.h
; File z:\sources\lunor\repos\rougemeilland\palmtree.math.core.implements\palmtree.math.core.implements\pmc_divrem.c
;	COMDAT DoCarry
_TEXT	SEGMENT
c$ = 8
u_ptr$ = 16
u_count$ = 24
DoCarry	PROC						; COMDAT

; 758  :     // 繰り上がりを続く限り行う
; 759  :     for (;;)
; 760  :     {
; 761  :         if (u_count <= 0)

	test	r8, r8
	je	SHORT $LN13@DoCarry
$LL2@DoCarry:

; 762  :         {
; 763  :             // u の最上位まで達してしまった場合
; 764  :             return;
; 765  :         }
; 766  :         else if (c)

	test	cl, cl
	je	SHORT $LN13@DoCarry

; 767  :         {
; 768  :             // u の最上位に達しておらず、かつキャリーが立っている場合
; 769  : 
; 770  :             // 繰り上がりを継続する
; 771  :             c = _ADD_UNIT_DIV(c, *u_ptr, 0, u_ptr);

	mov	eax, DWORD PTR [rdx]
; File z:\sources\lunor\repos\rougemeilland\palmtree.math.core.implements\palmtree.math.core.implements\pmc_internal.h

; 502  :     return (_addcarry_u32(carry, u, v, w));

	add	cl, -1
	adc	eax, 0
	mov	DWORD PTR [rdx], eax
	setb	cl
; File z:\sources\lunor\repos\rougemeilland\palmtree.math.core.implements\palmtree.math.core.implements\pmc_divrem.c

; 772  :             ++u_ptr;

	add	rdx, 4

; 773  :             --u_count;

	sub	r8, 1
	jne	SHORT $LL2@DoCarry
$LN13@DoCarry:

; 774  :         }
; 775  :         else
; 776  :         {
; 777  :             // u の最上位に達しておらず、かつキャリーが立っていない場合
; 778  : 
; 779  :             // 繰り上がりを中断し、復帰する。
; 780  :             return;
; 781  :         }
; 782  :     }
; 783  : }

	ret	0
DoCarry	ENDP
_TEXT	ENDS
; Function compile flags: /Ogtpy
; File z:\sources\lunor\repos\rougemeilland\palmtree.math.core.implements\palmtree.math.core.implements\pmc_divrem.c
; File z:\sources\lunor\repos\rougemeilland\palmtree.math.core.implements\palmtree.math.core.implements\pmc_internal.h
; File z:\sources\lunor\repos\rougemeilland\palmtree.math.core.implements\palmtree.math.core.implements\pmc_divrem.c
; File z:\sources\lunor\repos\rougemeilland\palmtree.math.core.implements\palmtree.math.core.implements\pmc_internal.h
; File z:\sources\lunor\repos\rougemeilland\palmtree.math.core.implements\palmtree.math.core.implements\pmc_divrem.c
; File z:\sources\lunor\repos\rougemeilland\palmtree.math.core.implements\palmtree.math.core.implements\pmc_internal.h
; File z:\sources\lunor\repos\rougemeilland\palmtree.math.core.implements\palmtree.math.core.implements\pmc_divrem.c
; File z:\sources\lunor\repos\rougemeilland\palmtree.math.core.implements\palmtree.math.core.implements\pmc_internal.h
; File z:\sources\lunor\repos\rougemeilland\palmtree.math.core.implements\palmtree.math.core.implements\pmc_divrem.c
; File z:\sources\lunor\repos\rougemeilland\palmtree.math.core.implements\palmtree.math.core.implements\pmc_internal.h
; File z:\sources\lunor\repos\rougemeilland\palmtree.math.core.implements\palmtree.math.core.implements\pmc_divrem.c
; File z:\sources\lunor\repos\rougemeilland\palmtree.math.core.implements\palmtree.math.core.implements\pmc_internal.h
; File z:\sources\lunor\repos\rougemeilland\palmtree.math.core.implements\palmtree.math.core.implements\pmc_divrem.c
; File z:\sources\lunor\repos\rougemeilland\palmtree.math.core.implements\palmtree.math.core.implements\pmc_internal.h
; File z:\sources\lunor\repos\rougemeilland\palmtree.math.core.implements\palmtree.math.core.implements\pmc_divrem.c
; File z:\sources\lunor\repos\rougemeilland\palmtree.math.core.implements\palmtree.math.core.implements\pmc_internal.h
; File z:\sources\lunor\repos\rougemeilland\palmtree.math.core.implements\palmtree.math.core.implements\pmc_divrem.c
; File z:\sources\lunor\repos\rougemeilland\palmtree.math.core.implements\palmtree.math.core.implements\pmc_internal.h
; File z:\sources\lunor\repos\rougemeilland\palmtree.math.core.implements\palmtree.math.core.implements\pmc_divrem.c
; File z:\sources\lunor\repos\rougemeilland\palmtree.math.core.implements\palmtree.math.core.implements\pmc_internal.h
; File z:\sources\lunor\repos\rougemeilland\palmtree.math.core.implements\palmtree.math.core.implements\pmc_divrem.c
; File z:\sources\lunor\repos\rougemeilland\palmtree.math.core.implements\palmtree.math.core.implements\pmc_internal.h
; File z:\sources\lunor\repos\rougemeilland\palmtree.math.core.implements\palmtree.math.core.implements\pmc_divrem.c
; File z:\sources\lunor\repos\rougemeilland\palmtree.math.core.implements\palmtree.math.core.implements\pmc_internal.h
; File z:\sources\lunor\repos\rougemeilland\palmtree.math.core.implements\palmtree.math.core.implements\pmc_divrem.c
; File z:\sources\lunor\repos\rougemeilland\palmtree.math.core.implements\palmtree.math.core.implements\pmc_internal.h
; File z:\sources\lunor\repos\rougemeilland\palmtree.math.core.implements\palmtree.math.core.implements\pmc_divrem.c
; File z:\sources\lunor\repos\rougemeilland\palmtree.math.core.implements\palmtree.math.core.implements\pmc_internal.h
; File z:\sources\lunor\repos\rougemeilland\palmtree.math.core.implements\palmtree.math.core.implements\pmc_divrem.c
; File z:\sources\lunor\repos\rougemeilland\palmtree.math.core.implements\palmtree.math.core.implements\pmc_internal.h
; File z:\sources\lunor\repos\rougemeilland\palmtree.math.core.implements\palmtree.math.core.implements\pmc_divrem.c
; File z:\sources\lunor\repos\rougemeilland\palmtree.math.core.implements\palmtree.math.core.implements\pmc_internal.h
; File z:\sources\lunor\repos\rougemeilland\palmtree.math.core.implements\palmtree.math.core.implements\pmc_divrem.c
; File z:\sources\lunor\repos\rougemeilland\palmtree.math.core.implements\palmtree.math.core.implements\pmc_internal.h
; File z:\sources\lunor\repos\rougemeilland\palmtree.math.core.implements\palmtree.math.core.implements\pmc_divrem.c
; File z:\sources\lunor\repos\rougemeilland\palmtree.math.core.implements\palmtree.math.core.implements\pmc_internal.h
; File z:\sources\lunor\repos\rougemeilland\palmtree.math.core.implements\palmtree.math.core.implements\pmc_divrem.c
; File z:\sources\lunor\repos\rougemeilland\palmtree.math.core.implements\palmtree.math.core.implements\pmc_internal.h
; File z:\sources\lunor\repos\rougemeilland\palmtree.math.core.implements\palmtree.math.core.implements\pmc_divrem.c
; File z:\sources\lunor\repos\rougemeilland\palmtree.math.core.implements\palmtree.math.core.implements\pmc_internal.h
; File z:\sources\lunor\repos\rougemeilland\palmtree.math.core.implements\palmtree.math.core.implements\pmc_divrem.c
; File z:\sources\lunor\repos\rougemeilland\palmtree.math.core.implements\palmtree.math.core.implements\pmc_internal.h
; File z:\sources\lunor\repos\rougemeilland\palmtree.math.core.implements\palmtree.math.core.implements\pmc_divrem.c
; File z:\sources\lunor\repos\rougemeilland\palmtree.math.core.implements\palmtree.math.core.implements\pmc_internal.h
; File z:\sources\lunor\repos\rougemeilland\palmtree.math.core.implements\palmtree.math.core.implements\pmc_divrem.c
; File z:\sources\lunor\repos\rougemeilland\palmtree.math.core.implements\palmtree.math.core.implements\pmc_internal.h
; File z:\sources\lunor\repos\rougemeilland\palmtree.math.core.implements\palmtree.math.core.implements\pmc_divrem.c
; File z:\sources\lunor\repos\rougemeilland\palmtree.math.core.implements\palmtree.math.core.implements\pmc_internal.h
; File z:\sources\lunor\repos\rougemeilland\palmtree.math.core.implements\palmtree.math.core.implements\pmc_divrem.c
; File z:\sources\lunor\repos\rougemeilland\palmtree.math.core.implements\palmtree.math.core.implements\pmc_internal.h
; File z:\sources\lunor\repos\rougemeilland\palmtree.math.core.implements\palmtree.math.core.implements\pmc_divrem.c
; File z:\sources\lunor\repos\rougemeilland\palmtree.math.core.implements\palmtree.math.core.implements\pmc_internal.h
; File z:\sources\lunor\repos\rougemeilland\palmtree.math.core.implements\palmtree.math.core.implements\pmc_divrem.c
; File z:\sources\lunor\repos\rougemeilland\palmtree.math.core.implements\palmtree.math.core.implements\pmc_internal.h
; File z:\sources\lunor\repos\rougemeilland\palmtree.math.core.implements\palmtree.math.core.implements\pmc_divrem.c
; File z:\sources\lunor\repos\rougemeilland\palmtree.math.core.implements\palmtree.math.core.implements\pmc_internal.h
; File z:\sources\lunor\repos\rougemeilland\palmtree.math.core.implements\palmtree.math.core.implements\pmc_divrem.c
; File z:\sources\lunor\repos\rougemeilland\palmtree.math.core.implements\palmtree.math.core.implements\pmc_internal.h
; File z:\sources\lunor\repos\rougemeilland\palmtree.math.core.implements\palmtree.math.core.implements\pmc_divrem.c
; File z:\sources\lunor\repos\rougemeilland\palmtree.math.core.implements\palmtree.math.core.implements\pmc_internal.h
; File z:\sources\lunor\repos\rougemeilland\palmtree.math.core.implements\palmtree.math.core.implements\pmc_divrem.c
; File z:\sources\lunor\repos\rougemeilland\palmtree.math.core.implements\palmtree.math.core.implements\pmc_internal.h
; File z:\sources\lunor\repos\rougemeilland\palmtree.math.core.implements\palmtree.math.core.implements\pmc_divrem.c
; File z:\sources\lunor\repos\rougemeilland\palmtree.math.core.implements\palmtree.math.core.implements\pmc_internal.h
; File z:\sources\lunor\repos\rougemeilland\palmtree.math.core.implements\palmtree.math.core.implements\pmc_divrem.c
; File z:\sources\lunor\repos\rougemeilland\palmtree.math.core.implements\palmtree.math.core.implements\pmc_internal.h
; File z:\sources\lunor\repos\rougemeilland\palmtree.math.core.implements\palmtree.math.core.implements\pmc_divrem.c
; File z:\sources\lunor\repos\rougemeilland\palmtree.math.core.implements\palmtree.math.core.implements\pmc_internal.h
; File z:\sources\lunor\repos\rougemeilland\palmtree.math.core.implements\palmtree.math.core.implements\pmc_divrem.c
; File z:\sources\lunor\repos\rougemeilland\palmtree.math.core.implements\palmtree.math.core.implements\pmc_internal.h
; File z:\sources\lunor\repos\rougemeilland\palmtree.math.core.implements\palmtree.math.core.implements\pmc_divrem.c
; File z:\sources\lunor\repos\rougemeilland\palmtree.math.core.implements\palmtree.math.core.implements\pmc_internal.h
; File z:\sources\lunor\repos\rougemeilland\palmtree.math.core.implements\palmtree.math.core.implements\pmc_divrem.c
; File z:\sources\lunor\repos\rougemeilland\palmtree.math.core.implements\palmtree.math.core.implements\pmc_internal.h
; File z:\sources\lunor\repos\rougemeilland\palmtree.math.core.implements\palmtree.math.core.implements\pmc_divrem.c
; File z:\sources\lunor\repos\rougemeilland\palmtree.math.core.implements\palmtree.math.core.implements\pmc_internal.h
; File z:\sources\lunor\repos\rougemeilland\palmtree.math.core.implements\palmtree.math.core.implements\pmc_divrem.c
; File z:\sources\lunor\repos\rougemeilland\palmtree.math.core.implements\palmtree.math.core.implements\pmc_internal.h
; File z:\sources\lunor\repos\rougemeilland\palmtree.math.core.implements\palmtree.math.core.implements\pmc_divrem.c
; File z:\sources\lunor\repos\rougemeilland\palmtree.math.core.implements\palmtree.math.core.implements\pmc_internal.h
; File z:\sources\lunor\repos\rougemeilland\palmtree.math.core.implements\palmtree.math.core.implements\pmc_divrem.c
; File z:\sources\lunor\repos\rougemeilland\palmtree.math.core.implements\palmtree.math.core.implements\pmc_internal.h
; File z:\sources\lunor\repos\rougemeilland\palmtree.math.core.implements\palmtree.math.core.implements\pmc_divrem.c
; File z:\sources\lunor\repos\rougemeilland\palmtree.math.core.implements\palmtree.math.core.implements\pmc_internal.h
; File z:\sources\lunor\repos\rougemeilland\palmtree.math.core.implements\palmtree.math.core.implements\pmc_divrem.c
; File z:\sources\lunor\repos\rougemeilland\palmtree.math.core.implements\palmtree.math.core.implements\pmc_internal.h
; File z:\sources\lunor\repos\rougemeilland\palmtree.math.core.implements\palmtree.math.core.implements\pmc_divrem.c
; File z:\sources\lunor\repos\rougemeilland\palmtree.math.core.implements\palmtree.math.core.implements\pmc_internal.h
; File z:\sources\lunor\repos\rougemeilland\palmtree.math.core.implements\palmtree.math.core.implements\pmc_divrem.c
; File z:\sources\lunor\repos\rougemeilland\palmtree.math.core.implements\palmtree.math.core.implements\pmc_internal.h
; File z:\sources\lunor\repos\rougemeilland\palmtree.math.core.implements\palmtree.math.core.implements\pmc_divrem.c
; File z:\sources\lunor\repos\rougemeilland\palmtree.math.core.implements\palmtree.math.core.implements\pmc_internal.h
; File z:\sources\lunor\repos\rougemeilland\palmtree.math.core.implements\palmtree.math.core.implements\pmc_divrem.c
; File z:\sources\lunor\repos\rougemeilland\palmtree.math.core.implements\palmtree.math.core.implements\pmc_internal.h
; File z:\sources\lunor\repos\rougemeilland\palmtree.math.core.implements\palmtree.math.core.implements\pmc_divrem.c
; File z:\sources\lunor\repos\rougemeilland\palmtree.math.core.implements\palmtree.math.core.implements\pmc_internal.h
; File z:\sources\lunor\repos\rougemeilland\palmtree.math.core.implements\palmtree.math.core.implements\pmc_divrem.c
; File z:\sources\lunor\repos\rougemeilland\palmtree.math.core.implements\palmtree.math.core.implements\pmc_internal.h
; File z:\sources\lunor\repos\rougemeilland\palmtree.math.core.implements\palmtree.math.core.implements\pmc_divrem.c
; File z:\sources\lunor\repos\rougemeilland\palmtree.math.core.implements\palmtree.math.core.implements\pmc_internal.h
; File z:\sources\lunor\repos\rougemeilland\palmtree.math.core.implements\palmtree.math.core.implements\pmc_divrem.c
; File z:\sources\lunor\repos\rougemeilland\palmtree.math.core.implements\palmtree.math.core.implements\pmc_internal.h
; File z:\sources\lunor\repos\rougemeilland\palmtree.math.core.implements\palmtree.math.core.implements\pmc_divrem.c
; File z:\sources\lunor\repos\rougemeilland\palmtree.math.core.implements\palmtree.math.core.implements\pmc_internal.h
; File z:\sources\lunor\repos\rougemeilland\palmtree.math.core.implements\palmtree.math.core.implements\pmc_divrem.c
; File z:\sources\lunor\repos\rougemeilland\palmtree.math.core.implements\palmtree.math.core.implements\pmc_internal.h
; File z:\sources\lunor\repos\rougemeilland\palmtree.math.core.implements\palmtree.math.core.implements\pmc_divrem.c
; File z:\sources\lunor\repos\rougemeilland\palmtree.math.core.implements\palmtree.math.core.implements\pmc_internal.h
; File z:\sources\lunor\repos\rougemeilland\palmtree.math.core.implements\palmtree.math.core.implements\pmc_divrem.c
; File z:\sources\lunor\repos\rougemeilland\palmtree.math.core.implements\palmtree.math.core.implements\pmc_internal.h
; File z:\sources\lunor\repos\rougemeilland\palmtree.math.core.implements\palmtree.math.core.implements\pmc_divrem.c
; File z:\sources\lunor\repos\rougemeilland\palmtree.math.core.implements\palmtree.math.core.implements\pmc_internal.h
; File z:\sources\lunor\repos\rougemeilland\palmtree.math.core.implements\palmtree.math.core.implements\pmc_divrem.c
; File z:\sources\lunor\repos\rougemeilland\palmtree.math.core.implements\palmtree.math.core.implements\pmc_internal.h
; File z:\sources\lunor\repos\rougemeilland\palmtree.math.core.implements\palmtree.math.core.implements\pmc_divrem.c
; File z:\sources\lunor\repos\rougemeilland\palmtree.math.core.implements\palmtree.math.core.implements\pmc_internal.h
; File z:\sources\lunor\repos\rougemeilland\palmtree.math.core.implements\palmtree.math.core.implements\pmc_divrem.c
; File z:\sources\lunor\repos\rougemeilland\palmtree.math.core.implements\palmtree.math.core.implements\pmc_internal.h
; File z:\sources\lunor\repos\rougemeilland\palmtree.math.core.implements\palmtree.math.core.implements\pmc_divrem.c
; File z:\sources\lunor\repos\rougemeilland\palmtree.math.core.implements\palmtree.math.core.implements\pmc_internal.h
; File z:\sources\lunor\repos\rougemeilland\palmtree.math.core.implements\palmtree.math.core.implements\pmc_divrem.c
; File z:\sources\lunor\repos\rougemeilland\palmtree.math.core.implements\palmtree.math.core.implements\pmc_internal.h
; File z:\sources\lunor\repos\rougemeilland\palmtree.math.core.implements\palmtree.math.core.implements\pmc_divrem.c
; File z:\sources\lunor\repos\rougemeilland\palmtree.math.core.implements\palmtree.math.core.implements\pmc_internal.h
; File z:\sources\lunor\repos\rougemeilland\palmtree.math.core.implements\palmtree.math.core.implements\pmc_divrem.c
; File z:\sources\lunor\repos\rougemeilland\palmtree.math.core.implements\palmtree.math.core.implements\pmc_internal.h
; File z:\sources\lunor\repos\rougemeilland\palmtree.math.core.implements\palmtree.math.core.implements\pmc_divrem.c
; File z:\sources\lunor\repos\rougemeilland\palmtree.math.core.implements\palmtree.math.core.implements\pmc_internal.h
; File z:\sources\lunor\repos\rougemeilland\palmtree.math.core.implements\palmtree.math.core.implements\pmc_divrem.c
; File z:\sources\lunor\repos\rougemeilland\palmtree.math.core.implements\palmtree.math.core.implements\pmc_internal.h
; File z:\sources\lunor\repos\rougemeilland\palmtree.math.core.implements\palmtree.math.core.implements\pmc_divrem.c
; File z:\sources\lunor\repos\rougemeilland\palmtree.math.core.implements\palmtree.math.core.implements\pmc_internal.h
; File z:\sources\lunor\repos\rougemeilland\palmtree.math.core.implements\palmtree.math.core.implements\pmc_divrem.c
; File z:\sources\lunor\repos\rougemeilland\palmtree.math.core.implements\palmtree.math.core.implements\pmc_internal.h
; File z:\sources\lunor\repos\rougemeilland\palmtree.math.core.implements\palmtree.math.core.implements\pmc_divrem.c
; File z:\sources\lunor\repos\rougemeilland\palmtree.math.core.implements\palmtree.math.core.implements\pmc_internal.h
; File z:\sources\lunor\repos\rougemeilland\palmtree.math.core.implements\palmtree.math.core.implements\pmc_divrem.c
; File z:\sources\lunor\repos\rougemeilland\palmtree.math.core.implements\palmtree.math.core.implements\pmc_internal.h
; File z:\sources\lunor\repos\rougemeilland\palmtree.math.core.implements\palmtree.math.core.implements\pmc_divrem.c
; File z:\sources\lunor\repos\rougemeilland\palmtree.math.core.implements\palmtree.math.core.implements\pmc_internal.h
; File z:\sources\lunor\repos\rougemeilland\palmtree.math.core.implements\palmtree.math.core.implements\pmc_divrem.c
; File z:\sources\lunor\repos\rougemeilland\palmtree.math.core.implements\palmtree.math.core.implements\pmc_internal.h
; File z:\sources\lunor\repos\rougemeilland\palmtree.math.core.implements\palmtree.math.core.implements\pmc_divrem.c
; File z:\sources\lunor\repos\rougemeilland\palmtree.math.core.implements\palmtree.math.core.implements\pmc_internal.h
; File z:\sources\lunor\repos\rougemeilland\palmtree.math.core.implements\palmtree.math.core.implements\pmc_divrem.c
; File z:\sources\lunor\repos\rougemeilland\palmtree.math.core.implements\palmtree.math.core.implements\pmc_internal.h
; File z:\sources\lunor\repos\rougemeilland\palmtree.math.core.implements\palmtree.math.core.implements\pmc_divrem.c
; File z:\sources\lunor\repos\rougemeilland\palmtree.math.core.implements\palmtree.math.core.implements\pmc_internal.h
; File z:\sources\lunor\repos\rougemeilland\palmtree.math.core.implements\palmtree.math.core.implements\pmc_divrem.c
; File z:\sources\lunor\repos\rougemeilland\palmtree.math.core.implements\palmtree.math.core.implements\pmc_internal.h
; File z:\sources\lunor\repos\rougemeilland\palmtree.math.core.implements\palmtree.math.core.implements\pmc_divrem.c
; File z:\sources\lunor\repos\rougemeilland\palmtree.math.core.implements\palmtree.math.core.implements\pmc_internal.h
; File z:\sources\lunor\repos\rougemeilland\palmtree.math.core.implements\palmtree.math.core.implements\pmc_divrem.c
; File z:\sources\lunor\repos\rougemeilland\palmtree.math.core.implements\palmtree.math.core.implements\pmc_internal.h
; File z:\sources\lunor\repos\rougemeilland\palmtree.math.core.implements\palmtree.math.core.implements\pmc_divrem.c
; File z:\sources\lunor\repos\rougemeilland\palmtree.math.core.implements\palmtree.math.core.implements\pmc_internal.h
; File z:\sources\lunor\repos\rougemeilland\palmtree.math.core.implements\palmtree.math.core.implements\pmc_divrem.c
; File z:\sources\lunor\repos\rougemeilland\palmtree.math.core.implements\palmtree.math.core.implements\pmc_internal.h
; File z:\sources\lunor\repos\rougemeilland\palmtree.math.core.implements\palmtree.math.core.implements\pmc_divrem.c
; File z:\sources\lunor\repos\rougemeilland\palmtree.math.core.implements\palmtree.math.core.implements\pmc_internal.h
; File z:\sources\lunor\repos\rougemeilland\palmtree.math.core.implements\palmtree.math.core.implements\pmc_divrem.c
; File z:\sources\lunor\repos\rougemeilland\palmtree.math.core.implements\palmtree.math.core.implements\pmc_internal.h
; File z:\sources\lunor\repos\rougemeilland\palmtree.math.core.implements\palmtree.math.core.implements\pmc_divrem.c
; File z:\sources\lunor\repos\rougemeilland\palmtree.math.core.implements\palmtree.math.core.implements\pmc_internal.h
; File z:\sources\lunor\repos\rougemeilland\palmtree.math.core.implements\palmtree.math.core.implements\pmc_divrem.c
;	COMDAT SubtructOneLineX
_TEXT	SEGMENT
t_lo$1 = 0
t_lo$2 = 4
t_lo$3 = 8
t_lo$4 = 12
t_lo$5 = 16
t_lo$6 = 20
t_lo$7 = 24
t_lo$8 = 28
t_lo$9 = 32
t_lo$10 = 36
t_lo$11 = 40
t_lo$12 = 44
t_lo$13 = 48
t_lo$14 = 52
t_lo$15 = 56
t_lo$16 = 60
t_lo$17 = 64
t_lo$18 = 68
t_lo$19 = 72
t_lo$20 = 76
t_lo$21 = 80
t_lo$22 = 84
t_lo$23 = 88
t_lo$24 = 92
t_hi$25 = 96
t_hi$26 = 100
t_hi$27 = 104
t_hi$28 = 108
t_hi$29 = 112
t_hi$30 = 116
t_hi$31 = 120
t_lo$32 = 124
t_hi$33 = 128
t_lo$34 = 132
t_hi$35 = 136
t_lo$36 = 140
t_hi$37 = 144
t_lo$38 = 148
t_hi$39 = 152
t_lo$40 = 156
t_hi$41 = 160
t_lo$42 = 164
t_hi$43 = 168
t_lo$44 = 172
t_hi$45 = 176
t_lo$46 = 180
t_hi$47 = 184
t_lo$48 = 188
t_hi$49 = 192
t_lo$50 = 196
t_hi$51 = 200
t_lo$52 = 204
t_hi$53 = 208
t_lo$54 = 212
t_hi$55 = 216
t_lo$56 = 220
t_hi$57 = 224
t_lo$58 = 228
t_hi$59 = 232
t_lo$60 = 236
t_hi$61 = 240
t_lo$62 = 244
t_hi$63 = 248
t_lo$64 = 252
t_hi$65 = 256
t_lo$66 = 260
t_hi$67 = 264
t_lo$68 = 268
t_hi$69 = 272
t_lo$70 = 276
t_hi$71 = 280
t_lo$72 = 284
t_hi$73 = 288
t_lo$74 = 292
t_hi$75 = 296
t_lo$76 = 300
t_hi$77 = 304
t_lo$78 = 308
t_hi$79 = 312
t_lo$80 = 316
t_hi$81 = 320
t_hi$82 = 324
t_hi$83 = 328
t_hi$84 = 332
t_hi$85 = 336
t_hi$86 = 340
t_hi$87 = 344
t_hi$88 = 348
t_lo$89 = 352
t_hi$90 = 356
t_lo$91 = 360
t_hi$92 = 364
t_lo$93 = 368
t_hi$94 = 372
t_lo$95 = 376
t_hi$96 = 380
t_lo$97 = 384
t_hi$98 = 388
t_lo$99 = 392
t_hi$100 = 396
t_lo$101 = 400
t_hi$102 = 404
t_lo$103 = 408
t_hi$104 = 412
t_lo$105 = 416
t_hi$106 = 420
t_hi$107 = 424
t_hi$108 = 428
t_hi$109 = 432
t_hi$110 = 436
t_hi$111 = 440
t_hi$112 = 444
t_hi$113 = 448
t_lo$114 = 452
t_hi$115 = 456
t_hi$116 = 460
t_hi$117 = 464
t_hi$118 = 468
t_hi$119 = 472
t_hi$120 = 476
t_hi$121 = 480
t_hi$122 = 484
t_lo$123 = 576
u_buf$ = 576
u_buf_len$ = 584
t_lo$124 = 592
v_buf$ = 592
t_lo$125 = 600
v_buf_len$ = 600
t_lo$126 = 608
q_index$ = 608
q_$ = 616
SubtructOneLineX PROC					; COMDAT

; 605  : {

	mov	QWORD PTR [rsp+16], rdx
	push	rbp
	push	rbx
	push	rsi
	push	rdi
	push	r12
	push	r13
	push	r14
	push	r15
	lea	rbp, QWORD PTR [rsp-248]
	sub	rsp, 504				; 000001f8H

; 606  :     __UNIT_TYPE_DIV* u_ptr = &u_buf[q_index];

	mov	rax, QWORD PTR q_index$[rbp-256]

; 607  :     __UNIT_TYPE_DIV* v_ptr = &v_buf[0];
; 608  :     __UNIT_TYPE v_count = v_buf_len;
; 609  :     __UNIT_TYPE_DIV k = 0;

	xor	edi, edi
	mov	esi, DWORD PTR q_$[rbp-256]

; 610  :     char c = 0;
; 611  : 
; 612  :     __UNIT_TYPE count = v_count >> 5;

	mov	r12, r9
	xor	r11b, r11b
	shr	r12, 5
	mov	r15, r9
	mov	rbx, r8
	lea	rax, QWORD PTR [rax*4]
	mov	r13, rcx
	add	rax, rcx
	mov	r14d, edi

; 613  :     while (count != 0)

	test	r12, r12
	je	$LN821@SubtructOn
	npad	7
$LL2@SubtructOn:
; File z:\sources\lunor\repos\rougemeilland\palmtree.math.core.implements\palmtree.math.core.implements\pmc_internal.h

; 640  :     return (_FROMDWORDTOWORD((_UINT64_T)u * v, w_hi));

	mov	edx, DWORD PTR [rbx]
; File z:\sources\lunor\repos\rougemeilland\palmtree.math.core.implements\palmtree.math.core.implements\pmc_divrem.c

; 447  :     c = _SUBTRUCT_UNIT_DIV(c, *up, t_lo, up);

	mov	ecx, DWORD PTR [rax]
; File z:\sources\lunor\repos\rougemeilland\palmtree.math.core.implements\palmtree.math.core.implements\pmc_internal.h

; 640  :     return (_FROMDWORDTOWORD((_UINT64_T)u * v, w_hi));

	imul	rdx, rsi

; 459  :     *result_high = (_UINT32_T)(value >> 32);

	mov	r9, rdx
	shr	r9, 32					; 00000020H

; 530  :     return (_addcarryx_u32(carry, u, v, w));

	add	edx, r14d
	mov	DWORD PTR t_lo$126[rbp-256], edx
	adcx	r9d, edi

; 558  :     return (_subborrow_u32(borrow, u, v, w));

	add	r11b, -1

; 530  :     return (_addcarryx_u32(carry, u, v, w));

	mov	DWORD PTR t_hi$25[rsp], r9d

; 558  :     return (_subborrow_u32(borrow, u, v, w));

	sbb	ecx, edx
	mov	DWORD PTR [rax], ecx

; 640  :     return (_FROMDWORDTOWORD((_UINT64_T)u * v, w_hi));

	mov	edx, DWORD PTR [rbx+4]

; 558  :     return (_subborrow_u32(borrow, u, v, w));

	setb	r8b
; File z:\sources\lunor\repos\rougemeilland\palmtree.math.core.implements\palmtree.math.core.implements\pmc_divrem.c

; 447  :     c = _SUBTRUCT_UNIT_DIV(c, *up, t_lo, up);

	mov	ecx, DWORD PTR [rax+4]
; File z:\sources\lunor\repos\rougemeilland\palmtree.math.core.implements\palmtree.math.core.implements\pmc_internal.h

; 640  :     return (_FROMDWORDTOWORD((_UINT64_T)u * v, w_hi));

	imul	rdx, rsi

; 459  :     *result_high = (_UINT32_T)(value >> 32);

	mov	r10, rdx
	shr	r10, 32					; 00000020H

; 530  :     return (_addcarryx_u32(carry, u, v, w));

	add	edx, r9d
	mov	DWORD PTR t_lo$123[rbp-256], edx
	adcx	r10d, edi

; 558  :     return (_subborrow_u32(borrow, u, v, w));

	add	r8b, -1

; 530  :     return (_addcarryx_u32(carry, u, v, w));

	mov	DWORD PTR t_hi$26[rsp], r10d

; 558  :     return (_subborrow_u32(borrow, u, v, w));

	sbb	ecx, edx
	mov	DWORD PTR [rax+4], ecx

; 640  :     return (_FROMDWORDTOWORD((_UINT64_T)u * v, w_hi));

	mov	edx, DWORD PTR [rbx+8]

; 558  :     return (_subborrow_u32(borrow, u, v, w));

	setb	r8b
; File z:\sources\lunor\repos\rougemeilland\palmtree.math.core.implements\palmtree.math.core.implements\pmc_divrem.c

; 447  :     c = _SUBTRUCT_UNIT_DIV(c, *up, t_lo, up);

	mov	ecx, DWORD PTR [rax+8]
; File z:\sources\lunor\repos\rougemeilland\palmtree.math.core.implements\palmtree.math.core.implements\pmc_internal.h

; 640  :     return (_FROMDWORDTOWORD((_UINT64_T)u * v, w_hi));

	imul	rdx, rsi

; 459  :     *result_high = (_UINT32_T)(value >> 32);

	mov	r9, rdx
	shr	r9, 32					; 00000020H

; 530  :     return (_addcarryx_u32(carry, u, v, w));

	add	edx, r10d
	mov	DWORD PTR t_lo$124[rbp-256], edx
	adcx	r9d, edi

; 558  :     return (_subborrow_u32(borrow, u, v, w));

	add	r8b, -1

; 530  :     return (_addcarryx_u32(carry, u, v, w));

	mov	DWORD PTR t_hi$27[rsp], r9d

; 558  :     return (_subborrow_u32(borrow, u, v, w));

	sbb	ecx, edx
	mov	DWORD PTR [rax+8], ecx

; 640  :     return (_FROMDWORDTOWORD((_UINT64_T)u * v, w_hi));

	mov	edx, DWORD PTR [rbx+12]

; 558  :     return (_subborrow_u32(borrow, u, v, w));

	setb	r8b
; File z:\sources\lunor\repos\rougemeilland\palmtree.math.core.implements\palmtree.math.core.implements\pmc_divrem.c

; 447  :     c = _SUBTRUCT_UNIT_DIV(c, *up, t_lo, up);

	mov	ecx, DWORD PTR [rax+12]
; File z:\sources\lunor\repos\rougemeilland\palmtree.math.core.implements\palmtree.math.core.implements\pmc_internal.h

; 640  :     return (_FROMDWORDTOWORD((_UINT64_T)u * v, w_hi));

	imul	rdx, rsi

; 459  :     *result_high = (_UINT32_T)(value >> 32);

	mov	r10, rdx
	shr	r10, 32					; 00000020H

; 530  :     return (_addcarryx_u32(carry, u, v, w));

	add	edx, r9d
	mov	DWORD PTR t_lo$125[rbp-256], edx
	adcx	r10d, edi

; 558  :     return (_subborrow_u32(borrow, u, v, w));

	add	r8b, -1

; 530  :     return (_addcarryx_u32(carry, u, v, w));

	mov	DWORD PTR t_hi$28[rsp], r10d

; 558  :     return (_subborrow_u32(borrow, u, v, w));

	sbb	ecx, edx
	mov	DWORD PTR [rax+12], ecx

; 640  :     return (_FROMDWORDTOWORD((_UINT64_T)u * v, w_hi));

	mov	edx, DWORD PTR [rbx+16]

; 558  :     return (_subborrow_u32(borrow, u, v, w));

	setb	r8b
; File z:\sources\lunor\repos\rougemeilland\palmtree.math.core.implements\palmtree.math.core.implements\pmc_divrem.c

; 447  :     c = _SUBTRUCT_UNIT_DIV(c, *up, t_lo, up);

	mov	ecx, DWORD PTR [rax+16]
; File z:\sources\lunor\repos\rougemeilland\palmtree.math.core.implements\palmtree.math.core.implements\pmc_internal.h

; 640  :     return (_FROMDWORDTOWORD((_UINT64_T)u * v, w_hi));

	imul	rdx, rsi

; 459  :     *result_high = (_UINT32_T)(value >> 32);

	mov	r9, rdx
	shr	r9, 32					; 00000020H

; 530  :     return (_addcarryx_u32(carry, u, v, w));

	add	edx, r10d
	mov	DWORD PTR t_lo$1[rsp], edx
	adcx	r9d, edi

; 558  :     return (_subborrow_u32(borrow, u, v, w));

	add	r8b, -1

; 530  :     return (_addcarryx_u32(carry, u, v, w));

	mov	DWORD PTR t_hi$29[rsp], r9d

; 558  :     return (_subborrow_u32(borrow, u, v, w));

	sbb	ecx, edx
	mov	DWORD PTR [rax+16], ecx

; 640  :     return (_FROMDWORDTOWORD((_UINT64_T)u * v, w_hi));

	mov	edx, DWORD PTR [rbx+20]

; 558  :     return (_subborrow_u32(borrow, u, v, w));

	setb	r8b
; File z:\sources\lunor\repos\rougemeilland\palmtree.math.core.implements\palmtree.math.core.implements\pmc_divrem.c

; 447  :     c = _SUBTRUCT_UNIT_DIV(c, *up, t_lo, up);

	mov	ecx, DWORD PTR [rax+20]
; File z:\sources\lunor\repos\rougemeilland\palmtree.math.core.implements\palmtree.math.core.implements\pmc_internal.h

; 640  :     return (_FROMDWORDTOWORD((_UINT64_T)u * v, w_hi));

	imul	rdx, rsi

; 459  :     *result_high = (_UINT32_T)(value >> 32);

	mov	r11, rdx
	shr	r11, 32					; 00000020H

; 530  :     return (_addcarryx_u32(carry, u, v, w));

	add	edx, r9d
	mov	DWORD PTR t_lo$2[rsp], edx
	adcx	r11d, edi

; 558  :     return (_subborrow_u32(borrow, u, v, w));

	add	r8b, -1

; 530  :     return (_addcarryx_u32(carry, u, v, w));

	mov	DWORD PTR t_hi$30[rsp], r11d

; 558  :     return (_subborrow_u32(borrow, u, v, w));

	sbb	ecx, edx
	mov	DWORD PTR [rax+20], ecx

; 640  :     return (_FROMDWORDTOWORD((_UINT64_T)u * v, w_hi));

	mov	edx, DWORD PTR [rbx+24]

; 558  :     return (_subborrow_u32(borrow, u, v, w));

	setb	r8b

; 640  :     return (_FROMDWORDTOWORD((_UINT64_T)u * v, w_hi));

	imul	rdx, rsi

; 459  :     *result_high = (_UINT32_T)(value >> 32);

	mov	r10, rdx
; File z:\sources\lunor\repos\rougemeilland\palmtree.math.core.implements\palmtree.math.core.implements\pmc_divrem.c

; 447  :     c = _SUBTRUCT_UNIT_DIV(c, *up, t_lo, up);

	mov	ecx, DWORD PTR [rax+24]
; File z:\sources\lunor\repos\rougemeilland\palmtree.math.core.implements\palmtree.math.core.implements\pmc_internal.h

; 459  :     *result_high = (_UINT32_T)(value >> 32);

	shr	r10, 32					; 00000020H

; 530  :     return (_addcarryx_u32(carry, u, v, w));

	add	edx, r11d
	mov	DWORD PTR t_lo$3[rsp], edx
	adcx	r10d, edi

; 558  :     return (_subborrow_u32(borrow, u, v, w));

	add	r8b, -1

; 530  :     return (_addcarryx_u32(carry, u, v, w));

	mov	DWORD PTR t_hi$31[rsp], r10d

; 558  :     return (_subborrow_u32(borrow, u, v, w));

	sbb	ecx, edx
	mov	DWORD PTR [rax+24], ecx

; 640  :     return (_FROMDWORDTOWORD((_UINT64_T)u * v, w_hi));

	mov	edx, DWORD PTR [rbx+28]

; 558  :     return (_subborrow_u32(borrow, u, v, w));

	setb	r8b
; File z:\sources\lunor\repos\rougemeilland\palmtree.math.core.implements\palmtree.math.core.implements\pmc_divrem.c

; 447  :     c = _SUBTRUCT_UNIT_DIV(c, *up, t_lo, up);

	mov	ecx, DWORD PTR [rax+28]
; File z:\sources\lunor\repos\rougemeilland\palmtree.math.core.implements\palmtree.math.core.implements\pmc_internal.h

; 640  :     return (_FROMDWORDTOWORD((_UINT64_T)u * v, w_hi));

	imul	rdx, rsi

; 459  :     *result_high = (_UINT32_T)(value >> 32);

	mov	r9, rdx
	shr	r9, 32					; 00000020H

; 530  :     return (_addcarryx_u32(carry, u, v, w));

	add	edx, r10d
	mov	DWORD PTR t_lo$32[rsp], edx
	adcx	r9d, edi

; 558  :     return (_subborrow_u32(borrow, u, v, w));

	add	r8b, -1

; 530  :     return (_addcarryx_u32(carry, u, v, w));

	mov	DWORD PTR t_hi$33[rbp-256], r9d

; 558  :     return (_subborrow_u32(borrow, u, v, w));

	sbb	ecx, edx
	mov	DWORD PTR [rax+28], ecx

; 640  :     return (_FROMDWORDTOWORD((_UINT64_T)u * v, w_hi));

	mov	edx, DWORD PTR [rbx+32]

; 558  :     return (_subborrow_u32(borrow, u, v, w));

	setb	r8b
; File z:\sources\lunor\repos\rougemeilland\palmtree.math.core.implements\palmtree.math.core.implements\pmc_divrem.c

; 447  :     c = _SUBTRUCT_UNIT_DIV(c, *up, t_lo, up);

	mov	ecx, DWORD PTR [rax+32]
; File z:\sources\lunor\repos\rougemeilland\palmtree.math.core.implements\palmtree.math.core.implements\pmc_internal.h

; 640  :     return (_FROMDWORDTOWORD((_UINT64_T)u * v, w_hi));

	imul	rdx, rsi

; 459  :     *result_high = (_UINT32_T)(value >> 32);

	mov	r10, rdx
	shr	r10, 32					; 00000020H

; 530  :     return (_addcarryx_u32(carry, u, v, w));

	add	edx, r9d
	mov	DWORD PTR t_lo$34[rbp-256], edx
	adcx	r10d, edi

; 558  :     return (_subborrow_u32(borrow, u, v, w));

	add	r8b, -1

; 530  :     return (_addcarryx_u32(carry, u, v, w));

	mov	DWORD PTR t_hi$35[rbp-256], r10d

; 558  :     return (_subborrow_u32(borrow, u, v, w));

	sbb	ecx, edx
	mov	DWORD PTR [rax+32], ecx

; 640  :     return (_FROMDWORDTOWORD((_UINT64_T)u * v, w_hi));

	mov	edx, DWORD PTR [rbx+36]

; 558  :     return (_subborrow_u32(borrow, u, v, w));

	setb	r8b
; File z:\sources\lunor\repos\rougemeilland\palmtree.math.core.implements\palmtree.math.core.implements\pmc_divrem.c

; 447  :     c = _SUBTRUCT_UNIT_DIV(c, *up, t_lo, up);

	mov	ecx, DWORD PTR [rax+36]
; File z:\sources\lunor\repos\rougemeilland\palmtree.math.core.implements\palmtree.math.core.implements\pmc_internal.h

; 640  :     return (_FROMDWORDTOWORD((_UINT64_T)u * v, w_hi));

	imul	rdx, rsi

; 459  :     *result_high = (_UINT32_T)(value >> 32);

	mov	r9, rdx
	shr	r9, 32					; 00000020H

; 530  :     return (_addcarryx_u32(carry, u, v, w));

	add	edx, r10d
	mov	DWORD PTR t_lo$36[rbp-256], edx
	adcx	r9d, edi

; 558  :     return (_subborrow_u32(borrow, u, v, w));

	add	r8b, -1

; 530  :     return (_addcarryx_u32(carry, u, v, w));

	mov	DWORD PTR t_hi$37[rbp-256], r9d

; 558  :     return (_subborrow_u32(borrow, u, v, w));

	sbb	ecx, edx
	mov	DWORD PTR [rax+36], ecx

; 640  :     return (_FROMDWORDTOWORD((_UINT64_T)u * v, w_hi));

	mov	edx, DWORD PTR [rbx+40]

; 558  :     return (_subborrow_u32(borrow, u, v, w));

	setb	r8b
; File z:\sources\lunor\repos\rougemeilland\palmtree.math.core.implements\palmtree.math.core.implements\pmc_divrem.c

; 447  :     c = _SUBTRUCT_UNIT_DIV(c, *up, t_lo, up);

	mov	ecx, DWORD PTR [rax+40]
; File z:\sources\lunor\repos\rougemeilland\palmtree.math.core.implements\palmtree.math.core.implements\pmc_internal.h

; 640  :     return (_FROMDWORDTOWORD((_UINT64_T)u * v, w_hi));

	imul	rdx, rsi

; 459  :     *result_high = (_UINT32_T)(value >> 32);

	mov	r10, rdx
	shr	r10, 32					; 00000020H

; 530  :     return (_addcarryx_u32(carry, u, v, w));

	add	edx, r9d
	mov	DWORD PTR t_lo$38[rbp-256], edx
	adcx	r10d, edi

; 558  :     return (_subborrow_u32(borrow, u, v, w));

	add	r8b, -1

; 530  :     return (_addcarryx_u32(carry, u, v, w));

	mov	DWORD PTR t_hi$39[rbp-256], r10d

; 558  :     return (_subborrow_u32(borrow, u, v, w));

	sbb	ecx, edx
	mov	DWORD PTR [rax+40], ecx

; 640  :     return (_FROMDWORDTOWORD((_UINT64_T)u * v, w_hi));

	mov	edx, DWORD PTR [rbx+44]

; 558  :     return (_subborrow_u32(borrow, u, v, w));

	setb	r8b
; File z:\sources\lunor\repos\rougemeilland\palmtree.math.core.implements\palmtree.math.core.implements\pmc_divrem.c

; 447  :     c = _SUBTRUCT_UNIT_DIV(c, *up, t_lo, up);

	mov	ecx, DWORD PTR [rax+44]
; File z:\sources\lunor\repos\rougemeilland\palmtree.math.core.implements\palmtree.math.core.implements\pmc_internal.h

; 640  :     return (_FROMDWORDTOWORD((_UINT64_T)u * v, w_hi));

	imul	rdx, rsi

; 459  :     *result_high = (_UINT32_T)(value >> 32);

	mov	r9, rdx
	shr	r9, 32					; 00000020H

; 530  :     return (_addcarryx_u32(carry, u, v, w));

	add	edx, r10d
	mov	DWORD PTR t_lo$40[rbp-256], edx
	adcx	r9d, edi

; 558  :     return (_subborrow_u32(borrow, u, v, w));

	add	r8b, -1

; 530  :     return (_addcarryx_u32(carry, u, v, w));

	mov	DWORD PTR t_hi$41[rbp-256], r9d

; 558  :     return (_subborrow_u32(borrow, u, v, w));

	sbb	ecx, edx
	mov	DWORD PTR [rax+44], ecx

; 640  :     return (_FROMDWORDTOWORD((_UINT64_T)u * v, w_hi));

	mov	edx, DWORD PTR [rbx+48]

; 558  :     return (_subborrow_u32(borrow, u, v, w));

	setb	r8b

; 640  :     return (_FROMDWORDTOWORD((_UINT64_T)u * v, w_hi));

	imul	rdx, rsi

; 459  :     *result_high = (_UINT32_T)(value >> 32);

	mov	r10, rdx
	shr	r10, 32					; 00000020H

; 530  :     return (_addcarryx_u32(carry, u, v, w));

	add	edx, r9d
	mov	DWORD PTR t_lo$42[rbp-256], edx
	adcx	r10d, edi
; File z:\sources\lunor\repos\rougemeilland\palmtree.math.core.implements\palmtree.math.core.implements\pmc_divrem.c

; 447  :     c = _SUBTRUCT_UNIT_DIV(c, *up, t_lo, up);

	mov	ecx, DWORD PTR [rax+48]
; File z:\sources\lunor\repos\rougemeilland\palmtree.math.core.implements\palmtree.math.core.implements\pmc_internal.h

; 558  :     return (_subborrow_u32(borrow, u, v, w));

	add	r8b, -1

; 530  :     return (_addcarryx_u32(carry, u, v, w));

	mov	DWORD PTR t_hi$43[rbp-256], r10d

; 558  :     return (_subborrow_u32(borrow, u, v, w));

	sbb	ecx, edx
	mov	DWORD PTR [rax+48], ecx

; 640  :     return (_FROMDWORDTOWORD((_UINT64_T)u * v, w_hi));

	mov	edx, DWORD PTR [rbx+52]

; 558  :     return (_subborrow_u32(borrow, u, v, w));

	setb	r8b
; File z:\sources\lunor\repos\rougemeilland\palmtree.math.core.implements\palmtree.math.core.implements\pmc_divrem.c

; 447  :     c = _SUBTRUCT_UNIT_DIV(c, *up, t_lo, up);

	mov	ecx, DWORD PTR [rax+52]
; File z:\sources\lunor\repos\rougemeilland\palmtree.math.core.implements\palmtree.math.core.implements\pmc_internal.h

; 640  :     return (_FROMDWORDTOWORD((_UINT64_T)u * v, w_hi));

	imul	rdx, rsi

; 459  :     *result_high = (_UINT32_T)(value >> 32);

	mov	r9, rdx
	shr	r9, 32					; 00000020H

; 530  :     return (_addcarryx_u32(carry, u, v, w));

	add	edx, r10d
	mov	DWORD PTR t_lo$44[rbp-256], edx
	adcx	r9d, edi

; 558  :     return (_subborrow_u32(borrow, u, v, w));

	add	r8b, -1

; 530  :     return (_addcarryx_u32(carry, u, v, w));

	mov	DWORD PTR t_hi$45[rbp-256], r9d

; 558  :     return (_subborrow_u32(borrow, u, v, w));

	sbb	ecx, edx
	mov	DWORD PTR [rax+52], ecx

; 640  :     return (_FROMDWORDTOWORD((_UINT64_T)u * v, w_hi));

	mov	edx, DWORD PTR [rbx+56]

; 558  :     return (_subborrow_u32(borrow, u, v, w));

	setb	r8b
; File z:\sources\lunor\repos\rougemeilland\palmtree.math.core.implements\palmtree.math.core.implements\pmc_divrem.c

; 447  :     c = _SUBTRUCT_UNIT_DIV(c, *up, t_lo, up);

	mov	ecx, DWORD PTR [rax+56]
; File z:\sources\lunor\repos\rougemeilland\palmtree.math.core.implements\palmtree.math.core.implements\pmc_internal.h

; 640  :     return (_FROMDWORDTOWORD((_UINT64_T)u * v, w_hi));

	imul	rdx, rsi

; 459  :     *result_high = (_UINT32_T)(value >> 32);

	mov	r10, rdx
	shr	r10, 32					; 00000020H

; 530  :     return (_addcarryx_u32(carry, u, v, w));

	add	edx, r9d
	mov	DWORD PTR t_lo$46[rbp-256], edx
	adcx	r10d, edi

; 558  :     return (_subborrow_u32(borrow, u, v, w));

	add	r8b, -1

; 530  :     return (_addcarryx_u32(carry, u, v, w));

	mov	DWORD PTR t_hi$47[rbp-256], r10d

; 558  :     return (_subborrow_u32(borrow, u, v, w));

	sbb	ecx, edx
	mov	DWORD PTR [rax+56], ecx

; 640  :     return (_FROMDWORDTOWORD((_UINT64_T)u * v, w_hi));

	mov	edx, DWORD PTR [rbx+60]

; 558  :     return (_subborrow_u32(borrow, u, v, w));

	setb	r8b
; File z:\sources\lunor\repos\rougemeilland\palmtree.math.core.implements\palmtree.math.core.implements\pmc_divrem.c

; 447  :     c = _SUBTRUCT_UNIT_DIV(c, *up, t_lo, up);

	mov	ecx, DWORD PTR [rax+60]
; File z:\sources\lunor\repos\rougemeilland\palmtree.math.core.implements\palmtree.math.core.implements\pmc_internal.h

; 640  :     return (_FROMDWORDTOWORD((_UINT64_T)u * v, w_hi));

	imul	rdx, rsi

; 459  :     *result_high = (_UINT32_T)(value >> 32);

	mov	r9, rdx
	shr	r9, 32					; 00000020H

; 530  :     return (_addcarryx_u32(carry, u, v, w));

	add	edx, r10d
	mov	DWORD PTR t_lo$48[rbp-256], edx
	adcx	r9d, edi

; 558  :     return (_subborrow_u32(borrow, u, v, w));

	add	r8b, -1

; 530  :     return (_addcarryx_u32(carry, u, v, w));

	mov	DWORD PTR t_hi$49[rbp-256], r9d

; 558  :     return (_subborrow_u32(borrow, u, v, w));

	sbb	ecx, edx
	mov	DWORD PTR [rax+60], ecx

; 640  :     return (_FROMDWORDTOWORD((_UINT64_T)u * v, w_hi));

	mov	edx, DWORD PTR [rbx+64]

; 558  :     return (_subborrow_u32(borrow, u, v, w));

	setb	r8b
; File z:\sources\lunor\repos\rougemeilland\palmtree.math.core.implements\palmtree.math.core.implements\pmc_divrem.c

; 447  :     c = _SUBTRUCT_UNIT_DIV(c, *up, t_lo, up);

	mov	ecx, DWORD PTR [rax+64]
; File z:\sources\lunor\repos\rougemeilland\palmtree.math.core.implements\palmtree.math.core.implements\pmc_internal.h

; 640  :     return (_FROMDWORDTOWORD((_UINT64_T)u * v, w_hi));

	imul	rdx, rsi

; 459  :     *result_high = (_UINT32_T)(value >> 32);

	mov	r10, rdx
	shr	r10, 32					; 00000020H

; 530  :     return (_addcarryx_u32(carry, u, v, w));

	add	edx, r9d
	mov	DWORD PTR t_lo$50[rbp-256], edx
	adcx	r10d, edi

; 558  :     return (_subborrow_u32(borrow, u, v, w));

	add	r8b, -1

; 530  :     return (_addcarryx_u32(carry, u, v, w));

	mov	DWORD PTR t_hi$51[rbp-256], r10d

; 558  :     return (_subborrow_u32(borrow, u, v, w));

	sbb	ecx, edx
	mov	DWORD PTR [rax+64], ecx

; 640  :     return (_FROMDWORDTOWORD((_UINT64_T)u * v, w_hi));

	mov	edx, DWORD PTR [rbx+68]

; 558  :     return (_subborrow_u32(borrow, u, v, w));

	setb	r8b
; File z:\sources\lunor\repos\rougemeilland\palmtree.math.core.implements\palmtree.math.core.implements\pmc_divrem.c

; 447  :     c = _SUBTRUCT_UNIT_DIV(c, *up, t_lo, up);

	mov	ecx, DWORD PTR [rax+68]
; File z:\sources\lunor\repos\rougemeilland\palmtree.math.core.implements\palmtree.math.core.implements\pmc_internal.h

; 640  :     return (_FROMDWORDTOWORD((_UINT64_T)u * v, w_hi));

	imul	rdx, rsi

; 459  :     *result_high = (_UINT32_T)(value >> 32);

	mov	r9, rdx
	shr	r9, 32					; 00000020H

; 530  :     return (_addcarryx_u32(carry, u, v, w));

	add	edx, r10d
	mov	DWORD PTR t_lo$52[rbp-256], edx
	adcx	r9d, edi

; 558  :     return (_subborrow_u32(borrow, u, v, w));

	add	r8b, -1

; 530  :     return (_addcarryx_u32(carry, u, v, w));

	mov	DWORD PTR t_hi$53[rbp-256], r9d

; 558  :     return (_subborrow_u32(borrow, u, v, w));

	sbb	ecx, edx
	mov	DWORD PTR [rax+68], ecx

; 640  :     return (_FROMDWORDTOWORD((_UINT64_T)u * v, w_hi));

	mov	edx, DWORD PTR [rbx+72]

; 558  :     return (_subborrow_u32(borrow, u, v, w));

	setb	r8b
; File z:\sources\lunor\repos\rougemeilland\palmtree.math.core.implements\palmtree.math.core.implements\pmc_divrem.c

; 447  :     c = _SUBTRUCT_UNIT_DIV(c, *up, t_lo, up);

	mov	ecx, DWORD PTR [rax+72]
; File z:\sources\lunor\repos\rougemeilland\palmtree.math.core.implements\palmtree.math.core.implements\pmc_internal.h

; 640  :     return (_FROMDWORDTOWORD((_UINT64_T)u * v, w_hi));

	imul	rdx, rsi

; 459  :     *result_high = (_UINT32_T)(value >> 32);

	mov	r10, rdx
	shr	r10, 32					; 00000020H

; 530  :     return (_addcarryx_u32(carry, u, v, w));

	add	edx, r9d
	mov	DWORD PTR t_lo$54[rbp-256], edx
	adcx	r10d, edi
	mov	DWORD PTR t_hi$55[rbp-256], r10d

; 558  :     return (_subborrow_u32(borrow, u, v, w));

	add	r8b, -1
	sbb	ecx, edx
	mov	DWORD PTR [rax+72], ecx

; 640  :     return (_FROMDWORDTOWORD((_UINT64_T)u * v, w_hi));

	mov	edx, DWORD PTR [rbx+76]

; 558  :     return (_subborrow_u32(borrow, u, v, w));

	setb	r8b
; File z:\sources\lunor\repos\rougemeilland\palmtree.math.core.implements\palmtree.math.core.implements\pmc_divrem.c

; 447  :     c = _SUBTRUCT_UNIT_DIV(c, *up, t_lo, up);

	mov	ecx, DWORD PTR [rax+76]
; File z:\sources\lunor\repos\rougemeilland\palmtree.math.core.implements\palmtree.math.core.implements\pmc_internal.h

; 640  :     return (_FROMDWORDTOWORD((_UINT64_T)u * v, w_hi));

	imul	rdx, rsi

; 459  :     *result_high = (_UINT32_T)(value >> 32);

	mov	r9, rdx
	shr	r9, 32					; 00000020H

; 530  :     return (_addcarryx_u32(carry, u, v, w));

	add	edx, r10d
	mov	DWORD PTR t_lo$56[rbp-256], edx
	adcx	r9d, edi

; 558  :     return (_subborrow_u32(borrow, u, v, w));

	add	r8b, -1

; 530  :     return (_addcarryx_u32(carry, u, v, w));

	mov	DWORD PTR t_hi$57[rbp-256], r9d

; 558  :     return (_subborrow_u32(borrow, u, v, w));

	sbb	ecx, edx
	mov	DWORD PTR [rax+76], ecx

; 640  :     return (_FROMDWORDTOWORD((_UINT64_T)u * v, w_hi));

	mov	edx, DWORD PTR [rbx+80]

; 558  :     return (_subborrow_u32(borrow, u, v, w));

	setb	r8b
; File z:\sources\lunor\repos\rougemeilland\palmtree.math.core.implements\palmtree.math.core.implements\pmc_divrem.c

; 447  :     c = _SUBTRUCT_UNIT_DIV(c, *up, t_lo, up);

	mov	ecx, DWORD PTR [rax+80]
; File z:\sources\lunor\repos\rougemeilland\palmtree.math.core.implements\palmtree.math.core.implements\pmc_internal.h

; 640  :     return (_FROMDWORDTOWORD((_UINT64_T)u * v, w_hi));

	imul	rdx, rsi

; 459  :     *result_high = (_UINT32_T)(value >> 32);

	mov	r10, rdx
	shr	r10, 32					; 00000020H

; 530  :     return (_addcarryx_u32(carry, u, v, w));

	add	edx, r9d
	mov	DWORD PTR t_lo$58[rbp-256], edx
	adcx	r10d, edi

; 558  :     return (_subborrow_u32(borrow, u, v, w));

	add	r8b, -1

; 530  :     return (_addcarryx_u32(carry, u, v, w));

	mov	DWORD PTR t_hi$59[rbp-256], r10d

; 558  :     return (_subborrow_u32(borrow, u, v, w));

	sbb	ecx, edx
	mov	DWORD PTR [rax+80], ecx

; 640  :     return (_FROMDWORDTOWORD((_UINT64_T)u * v, w_hi));

	mov	edx, DWORD PTR [rbx+84]

; 558  :     return (_subborrow_u32(borrow, u, v, w));

	setb	r8b
; File z:\sources\lunor\repos\rougemeilland\palmtree.math.core.implements\palmtree.math.core.implements\pmc_divrem.c

; 447  :     c = _SUBTRUCT_UNIT_DIV(c, *up, t_lo, up);

	mov	ecx, DWORD PTR [rax+84]
; File z:\sources\lunor\repos\rougemeilland\palmtree.math.core.implements\palmtree.math.core.implements\pmc_internal.h

; 640  :     return (_FROMDWORDTOWORD((_UINT64_T)u * v, w_hi));

	imul	rdx, rsi

; 459  :     *result_high = (_UINT32_T)(value >> 32);

	mov	r9, rdx
	shr	r9, 32					; 00000020H

; 530  :     return (_addcarryx_u32(carry, u, v, w));

	add	edx, r10d
	mov	DWORD PTR t_lo$60[rbp-256], edx
	adcx	r9d, edi

; 558  :     return (_subborrow_u32(borrow, u, v, w));

	add	r8b, -1

; 530  :     return (_addcarryx_u32(carry, u, v, w));

	mov	DWORD PTR t_hi$61[rbp-256], r9d

; 558  :     return (_subborrow_u32(borrow, u, v, w));

	sbb	ecx, edx
	mov	DWORD PTR [rax+84], ecx

; 640  :     return (_FROMDWORDTOWORD((_UINT64_T)u * v, w_hi));

	mov	edx, DWORD PTR [rbx+88]

; 558  :     return (_subborrow_u32(borrow, u, v, w));

	setb	r8b
; File z:\sources\lunor\repos\rougemeilland\palmtree.math.core.implements\palmtree.math.core.implements\pmc_divrem.c

; 447  :     c = _SUBTRUCT_UNIT_DIV(c, *up, t_lo, up);

	mov	ecx, DWORD PTR [rax+88]
; File z:\sources\lunor\repos\rougemeilland\palmtree.math.core.implements\palmtree.math.core.implements\pmc_internal.h

; 640  :     return (_FROMDWORDTOWORD((_UINT64_T)u * v, w_hi));

	imul	rdx, rsi

; 459  :     *result_high = (_UINT32_T)(value >> 32);

	mov	r10, rdx
	shr	r10, 32					; 00000020H

; 530  :     return (_addcarryx_u32(carry, u, v, w));

	add	edx, r9d
	mov	DWORD PTR t_lo$62[rbp-256], edx
	adcx	r10d, edi

; 558  :     return (_subborrow_u32(borrow, u, v, w));

	add	r8b, -1

; 530  :     return (_addcarryx_u32(carry, u, v, w));

	mov	DWORD PTR t_hi$63[rbp-256], r10d

; 558  :     return (_subborrow_u32(borrow, u, v, w));

	sbb	ecx, edx
	mov	DWORD PTR [rax+88], ecx

; 640  :     return (_FROMDWORDTOWORD((_UINT64_T)u * v, w_hi));

	mov	edx, DWORD PTR [rbx+92]

; 558  :     return (_subborrow_u32(borrow, u, v, w));

	setb	r8b
; File z:\sources\lunor\repos\rougemeilland\palmtree.math.core.implements\palmtree.math.core.implements\pmc_divrem.c

; 447  :     c = _SUBTRUCT_UNIT_DIV(c, *up, t_lo, up);

	mov	ecx, DWORD PTR [rax+92]
; File z:\sources\lunor\repos\rougemeilland\palmtree.math.core.implements\palmtree.math.core.implements\pmc_internal.h

; 640  :     return (_FROMDWORDTOWORD((_UINT64_T)u * v, w_hi));

	imul	rdx, rsi

; 459  :     *result_high = (_UINT32_T)(value >> 32);

	mov	r9, rdx
	shr	r9, 32					; 00000020H

; 530  :     return (_addcarryx_u32(carry, u, v, w));

	add	edx, r10d
	mov	DWORD PTR t_lo$64[rbp-256], edx
	adcx	r9d, edi

; 558  :     return (_subborrow_u32(borrow, u, v, w));

	add	r8b, -1

; 530  :     return (_addcarryx_u32(carry, u, v, w));

	mov	DWORD PTR t_hi$65[rbp-256], r9d

; 558  :     return (_subborrow_u32(borrow, u, v, w));

	sbb	ecx, edx
	mov	DWORD PTR [rax+92], ecx

; 640  :     return (_FROMDWORDTOWORD((_UINT64_T)u * v, w_hi));

	mov	edx, DWORD PTR [rbx+96]

; 558  :     return (_subborrow_u32(borrow, u, v, w));

	setb	r8b
; File z:\sources\lunor\repos\rougemeilland\palmtree.math.core.implements\palmtree.math.core.implements\pmc_divrem.c

; 447  :     c = _SUBTRUCT_UNIT_DIV(c, *up, t_lo, up);

	mov	ecx, DWORD PTR [rax+96]
; File z:\sources\lunor\repos\rougemeilland\palmtree.math.core.implements\palmtree.math.core.implements\pmc_internal.h

; 640  :     return (_FROMDWORDTOWORD((_UINT64_T)u * v, w_hi));

	imul	rdx, rsi

; 459  :     *result_high = (_UINT32_T)(value >> 32);

	mov	r10, rdx
	shr	r10, 32					; 00000020H

; 530  :     return (_addcarryx_u32(carry, u, v, w));

	add	edx, r9d
	mov	DWORD PTR t_lo$66[rbp-256], edx
	adcx	r10d, edi

; 558  :     return (_subborrow_u32(borrow, u, v, w));

	add	r8b, -1

; 530  :     return (_addcarryx_u32(carry, u, v, w));

	mov	DWORD PTR t_hi$67[rbp-256], r10d

; 558  :     return (_subborrow_u32(borrow, u, v, w));

	sbb	ecx, edx
	setb	r8b
	mov	DWORD PTR [rax+96], ecx

; 640  :     return (_FROMDWORDTOWORD((_UINT64_T)u * v, w_hi));

	mov	edx, DWORD PTR [rbx+100]
; File z:\sources\lunor\repos\rougemeilland\palmtree.math.core.implements\palmtree.math.core.implements\pmc_divrem.c

; 447  :     c = _SUBTRUCT_UNIT_DIV(c, *up, t_lo, up);

	mov	ecx, DWORD PTR [rax+100]
; File z:\sources\lunor\repos\rougemeilland\palmtree.math.core.implements\palmtree.math.core.implements\pmc_internal.h

; 640  :     return (_FROMDWORDTOWORD((_UINT64_T)u * v, w_hi));

	imul	rdx, rsi

; 459  :     *result_high = (_UINT32_T)(value >> 32);

	mov	r9, rdx
	shr	r9, 32					; 00000020H

; 530  :     return (_addcarryx_u32(carry, u, v, w));

	add	edx, r10d
	mov	DWORD PTR t_lo$68[rbp-256], edx
	adcx	r9d, edi

; 558  :     return (_subborrow_u32(borrow, u, v, w));

	add	r8b, -1

; 530  :     return (_addcarryx_u32(carry, u, v, w));

	mov	DWORD PTR t_hi$69[rbp-256], r9d

; 558  :     return (_subborrow_u32(borrow, u, v, w));

	sbb	ecx, edx
	mov	DWORD PTR [rax+100], ecx

; 640  :     return (_FROMDWORDTOWORD((_UINT64_T)u * v, w_hi));

	mov	edx, DWORD PTR [rbx+104]

; 558  :     return (_subborrow_u32(borrow, u, v, w));

	setb	r8b
; File z:\sources\lunor\repos\rougemeilland\palmtree.math.core.implements\palmtree.math.core.implements\pmc_divrem.c

; 447  :     c = _SUBTRUCT_UNIT_DIV(c, *up, t_lo, up);

	mov	ecx, DWORD PTR [rax+104]
; File z:\sources\lunor\repos\rougemeilland\palmtree.math.core.implements\palmtree.math.core.implements\pmc_internal.h

; 640  :     return (_FROMDWORDTOWORD((_UINT64_T)u * v, w_hi));

	imul	rdx, rsi

; 459  :     *result_high = (_UINT32_T)(value >> 32);

	mov	r10, rdx
	shr	r10, 32					; 00000020H

; 530  :     return (_addcarryx_u32(carry, u, v, w));

	add	edx, r9d
	mov	DWORD PTR t_lo$70[rbp-256], edx
	adcx	r10d, edi

; 558  :     return (_subborrow_u32(borrow, u, v, w));

	add	r8b, -1

; 530  :     return (_addcarryx_u32(carry, u, v, w));

	mov	DWORD PTR t_hi$71[rbp-256], r10d

; 558  :     return (_subborrow_u32(borrow, u, v, w));

	sbb	ecx, edx
	mov	DWORD PTR [rax+104], ecx

; 640  :     return (_FROMDWORDTOWORD((_UINT64_T)u * v, w_hi));

	mov	edx, DWORD PTR [rbx+108]

; 558  :     return (_subborrow_u32(borrow, u, v, w));

	setb	r8b
; File z:\sources\lunor\repos\rougemeilland\palmtree.math.core.implements\palmtree.math.core.implements\pmc_divrem.c

; 447  :     c = _SUBTRUCT_UNIT_DIV(c, *up, t_lo, up);

	mov	ecx, DWORD PTR [rax+108]
; File z:\sources\lunor\repos\rougemeilland\palmtree.math.core.implements\palmtree.math.core.implements\pmc_internal.h

; 640  :     return (_FROMDWORDTOWORD((_UINT64_T)u * v, w_hi));

	imul	rdx, rsi

; 459  :     *result_high = (_UINT32_T)(value >> 32);

	mov	r9, rdx
	shr	r9, 32					; 00000020H

; 530  :     return (_addcarryx_u32(carry, u, v, w));

	add	edx, r10d
	mov	DWORD PTR t_lo$72[rbp-256], edx
	adcx	r9d, edi

; 558  :     return (_subborrow_u32(borrow, u, v, w));

	add	r8b, -1

; 530  :     return (_addcarryx_u32(carry, u, v, w));

	mov	DWORD PTR t_hi$73[rbp-256], r9d

; 558  :     return (_subborrow_u32(borrow, u, v, w));

	sbb	ecx, edx
	mov	DWORD PTR [rax+108], ecx

; 640  :     return (_FROMDWORDTOWORD((_UINT64_T)u * v, w_hi));

	mov	edx, DWORD PTR [rbx+112]

; 558  :     return (_subborrow_u32(borrow, u, v, w));

	setb	r8b
; File z:\sources\lunor\repos\rougemeilland\palmtree.math.core.implements\palmtree.math.core.implements\pmc_divrem.c

; 447  :     c = _SUBTRUCT_UNIT_DIV(c, *up, t_lo, up);

	mov	ecx, DWORD PTR [rax+112]
; File z:\sources\lunor\repos\rougemeilland\palmtree.math.core.implements\palmtree.math.core.implements\pmc_internal.h

; 640  :     return (_FROMDWORDTOWORD((_UINT64_T)u * v, w_hi));

	imul	rdx, rsi

; 459  :     *result_high = (_UINT32_T)(value >> 32);

	mov	r10, rdx
	shr	r10, 32					; 00000020H

; 530  :     return (_addcarryx_u32(carry, u, v, w));

	add	edx, r9d
	mov	DWORD PTR t_lo$74[rbp-256], edx
	adcx	r10d, edi

; 558  :     return (_subborrow_u32(borrow, u, v, w));

	add	r8b, -1

; 530  :     return (_addcarryx_u32(carry, u, v, w));

	mov	DWORD PTR t_hi$75[rbp-256], r10d

; 558  :     return (_subborrow_u32(borrow, u, v, w));

	sbb	ecx, edx
	mov	DWORD PTR [rax+112], ecx

; 640  :     return (_FROMDWORDTOWORD((_UINT64_T)u * v, w_hi));

	mov	edx, DWORD PTR [rbx+116]

; 558  :     return (_subborrow_u32(borrow, u, v, w));

	setb	r8b
; File z:\sources\lunor\repos\rougemeilland\palmtree.math.core.implements\palmtree.math.core.implements\pmc_divrem.c

; 447  :     c = _SUBTRUCT_UNIT_DIV(c, *up, t_lo, up);

	mov	ecx, DWORD PTR [rax+116]
; File z:\sources\lunor\repos\rougemeilland\palmtree.math.core.implements\palmtree.math.core.implements\pmc_internal.h

; 640  :     return (_FROMDWORDTOWORD((_UINT64_T)u * v, w_hi));

	imul	rdx, rsi

; 459  :     *result_high = (_UINT32_T)(value >> 32);

	mov	r9, rdx
	shr	r9, 32					; 00000020H

; 530  :     return (_addcarryx_u32(carry, u, v, w));

	add	edx, r10d
	mov	DWORD PTR t_lo$76[rbp-256], edx
	adcx	r9d, edi

; 558  :     return (_subborrow_u32(borrow, u, v, w));

	add	r8b, -1

; 530  :     return (_addcarryx_u32(carry, u, v, w));

	mov	DWORD PTR t_hi$77[rbp-256], r9d

; 558  :     return (_subborrow_u32(borrow, u, v, w));

	sbb	ecx, edx
	mov	DWORD PTR [rax+116], ecx

; 640  :     return (_FROMDWORDTOWORD((_UINT64_T)u * v, w_hi));

	mov	edx, DWORD PTR [rbx+120]

; 558  :     return (_subborrow_u32(borrow, u, v, w));

	setb	r8b
; File z:\sources\lunor\repos\rougemeilland\palmtree.math.core.implements\palmtree.math.core.implements\pmc_divrem.c

; 447  :     c = _SUBTRUCT_UNIT_DIV(c, *up, t_lo, up);

	mov	ecx, DWORD PTR [rax+120]
; File z:\sources\lunor\repos\rougemeilland\palmtree.math.core.implements\palmtree.math.core.implements\pmc_internal.h

; 640  :     return (_FROMDWORDTOWORD((_UINT64_T)u * v, w_hi));

	imul	rdx, rsi

; 459  :     *result_high = (_UINT32_T)(value >> 32);

	mov	r10, rdx
	shr	r10, 32					; 00000020H

; 530  :     return (_addcarryx_u32(carry, u, v, w));

	add	edx, r9d
	mov	DWORD PTR t_lo$78[rbp-256], edx
	adcx	r10d, edi

; 558  :     return (_subborrow_u32(borrow, u, v, w));

	add	r8b, -1

; 530  :     return (_addcarryx_u32(carry, u, v, w));

	mov	DWORD PTR t_hi$79[rbp-256], r10d

; 558  :     return (_subborrow_u32(borrow, u, v, w));

	sbb	ecx, edx
	mov	DWORD PTR [rax+120], ecx

; 640  :     return (_FROMDWORDTOWORD((_UINT64_T)u * v, w_hi));

	mov	edx, DWORD PTR [rbx+124]

; 558  :     return (_subborrow_u32(borrow, u, v, w));

	setb	r8b

; 640  :     return (_FROMDWORDTOWORD((_UINT64_T)u * v, w_hi));

	imul	rdx, rsi
; File z:\sources\lunor\repos\rougemeilland\palmtree.math.core.implements\palmtree.math.core.implements\pmc_divrem.c

; 447  :     c = _SUBTRUCT_UNIT_DIV(c, *up, t_lo, up);

	mov	ecx, DWORD PTR [rax+124]
; File z:\sources\lunor\repos\rougemeilland\palmtree.math.core.implements\palmtree.math.core.implements\pmc_internal.h

; 459  :     *result_high = (_UINT32_T)(value >> 32);

	mov	r14, rdx
	shr	r14, 32					; 00000020H

; 530  :     return (_addcarryx_u32(carry, u, v, w));

	add	edx, r10d
	mov	DWORD PTR t_lo$80[rbp-256], edx
	adcx	r14d, edi

; 558  :     return (_subborrow_u32(borrow, u, v, w));

	add	r8b, -1

; 530  :     return (_addcarryx_u32(carry, u, v, w));

	mov	DWORD PTR t_hi$81[rbp-256], r14d

; 558  :     return (_subborrow_u32(borrow, u, v, w));

	sbb	ecx, edx
	mov	DWORD PTR [rax+124], ecx

; 1097 :     _InterlockedExchangeAdd(&statistics_info.COUNT_MULTI32, value);

	mov	ecx, 32					; 00000020H

; 558  :     return (_subborrow_u32(borrow, u, v, w));

	setb	r11b
; File z:\sources\lunor\repos\rougemeilland\palmtree.math.core.implements\palmtree.math.core.implements\pmc_divrem.c

; 647  :         u_ptr += 32;

	sub	rax, -128				; ffffffffffffff80H

; 648  :         v_ptr += 32;

	sub	rbx, -128				; ffffffffffffff80H
; File z:\sources\lunor\repos\rougemeilland\palmtree.math.core.implements\palmtree.math.core.implements\pmc_internal.h

; 1097 :     _InterlockedExchangeAdd(&statistics_info.COUNT_MULTI32, value);

	lock xadd DWORD PTR statistics_info+4, ecx
; File z:\sources\lunor\repos\rougemeilland\palmtree.math.core.implements\palmtree.math.core.implements\pmc_divrem.c

; 613  :     while (count != 0)

	sub	r12, 1
	jne	$LL2@SubtructOn
$LN821@SubtructOn:

; 649  :         --count;
; 650  : #ifdef ENABLED_PERFORMANCE_COUNTER
; 651  :         if (sizeof(k) == sizeof(_UINT64_T))
; 652  :             AddToMULTI64Counter(32);
; 653  :         else
; 654  :             AddToMULTI32Counter(32);
; 655  : #endif
; 656  :     }
; 657  : 
; 658  :     if (v_count & 0x10)

	test	r15b, 16
	je	$LN604@SubtructOn
; File z:\sources\lunor\repos\rougemeilland\palmtree.math.core.implements\palmtree.math.core.implements\pmc_internal.h

; 640  :     return (_FROMDWORDTOWORD((_UINT64_T)u * v, w_hi));

	mov	edx, DWORD PTR [rbx]
; File z:\sources\lunor\repos\rougemeilland\palmtree.math.core.implements\palmtree.math.core.implements\pmc_divrem.c

; 447  :     c = _SUBTRUCT_UNIT_DIV(c, *up, t_lo, up);

	mov	ecx, DWORD PTR [rax]
; File z:\sources\lunor\repos\rougemeilland\palmtree.math.core.implements\palmtree.math.core.implements\pmc_internal.h

; 640  :     return (_FROMDWORDTOWORD((_UINT64_T)u * v, w_hi));

	imul	rdx, rsi

; 459  :     *result_high = (_UINT32_T)(value >> 32);

	mov	r9, rdx
	shr	r9, 32					; 00000020H

; 530  :     return (_addcarryx_u32(carry, u, v, w));

	add	edx, r14d
	mov	DWORD PTR t_lo$4[rsp], edx
	adcx	r9d, edi

; 558  :     return (_subborrow_u32(borrow, u, v, w));

	add	r11b, -1

; 530  :     return (_addcarryx_u32(carry, u, v, w));

	mov	DWORD PTR t_hi$82[rbp-256], r9d

; 558  :     return (_subborrow_u32(borrow, u, v, w));

	sbb	ecx, edx
	mov	DWORD PTR [rax], ecx

; 640  :     return (_FROMDWORDTOWORD((_UINT64_T)u * v, w_hi));

	mov	edx, DWORD PTR [rbx+4]

; 558  :     return (_subborrow_u32(borrow, u, v, w));

	setb	r8b
; File z:\sources\lunor\repos\rougemeilland\palmtree.math.core.implements\palmtree.math.core.implements\pmc_divrem.c

; 447  :     c = _SUBTRUCT_UNIT_DIV(c, *up, t_lo, up);

	mov	ecx, DWORD PTR [rax+4]
; File z:\sources\lunor\repos\rougemeilland\palmtree.math.core.implements\palmtree.math.core.implements\pmc_internal.h

; 640  :     return (_FROMDWORDTOWORD((_UINT64_T)u * v, w_hi));

	imul	rdx, rsi

; 459  :     *result_high = (_UINT32_T)(value >> 32);

	mov	r10, rdx
	shr	r10, 32					; 00000020H

; 530  :     return (_addcarryx_u32(carry, u, v, w));

	add	edx, r9d
	mov	DWORD PTR t_lo$5[rsp], edx
	adcx	r10d, edi

; 558  :     return (_subborrow_u32(borrow, u, v, w));

	add	r8b, -1

; 530  :     return (_addcarryx_u32(carry, u, v, w));

	mov	DWORD PTR t_hi$83[rbp-256], r10d

; 558  :     return (_subborrow_u32(borrow, u, v, w));

	sbb	ecx, edx
	mov	DWORD PTR [rax+4], ecx

; 640  :     return (_FROMDWORDTOWORD((_UINT64_T)u * v, w_hi));

	mov	edx, DWORD PTR [rbx+8]

; 558  :     return (_subborrow_u32(borrow, u, v, w));

	setb	r8b
; File z:\sources\lunor\repos\rougemeilland\palmtree.math.core.implements\palmtree.math.core.implements\pmc_divrem.c

; 447  :     c = _SUBTRUCT_UNIT_DIV(c, *up, t_lo, up);

	mov	ecx, DWORD PTR [rax+8]
; File z:\sources\lunor\repos\rougemeilland\palmtree.math.core.implements\palmtree.math.core.implements\pmc_internal.h

; 640  :     return (_FROMDWORDTOWORD((_UINT64_T)u * v, w_hi));

	imul	rdx, rsi

; 459  :     *result_high = (_UINT32_T)(value >> 32);

	mov	r9, rdx
	shr	r9, 32					; 00000020H

; 530  :     return (_addcarryx_u32(carry, u, v, w));

	add	edx, r10d
	mov	DWORD PTR t_lo$6[rsp], edx
	adcx	r9d, edi

; 558  :     return (_subborrow_u32(borrow, u, v, w));

	add	r8b, -1

; 530  :     return (_addcarryx_u32(carry, u, v, w));

	mov	DWORD PTR t_hi$84[rbp-256], r9d

; 558  :     return (_subborrow_u32(borrow, u, v, w));

	sbb	ecx, edx
	mov	DWORD PTR [rax+8], ecx

; 640  :     return (_FROMDWORDTOWORD((_UINT64_T)u * v, w_hi));

	mov	edx, DWORD PTR [rbx+12]

; 558  :     return (_subborrow_u32(borrow, u, v, w));

	setb	r8b
; File z:\sources\lunor\repos\rougemeilland\palmtree.math.core.implements\palmtree.math.core.implements\pmc_divrem.c

; 447  :     c = _SUBTRUCT_UNIT_DIV(c, *up, t_lo, up);

	mov	ecx, DWORD PTR [rax+12]
; File z:\sources\lunor\repos\rougemeilland\palmtree.math.core.implements\palmtree.math.core.implements\pmc_internal.h

; 640  :     return (_FROMDWORDTOWORD((_UINT64_T)u * v, w_hi));

	imul	rdx, rsi

; 459  :     *result_high = (_UINT32_T)(value >> 32);

	mov	r10, rdx
	shr	r10, 32					; 00000020H

; 530  :     return (_addcarryx_u32(carry, u, v, w));

	add	edx, r9d
	mov	DWORD PTR t_lo$7[rsp], edx
	adcx	r10d, edi

; 558  :     return (_subborrow_u32(borrow, u, v, w));

	add	r8b, -1

; 530  :     return (_addcarryx_u32(carry, u, v, w));

	mov	DWORD PTR t_hi$85[rbp-256], r10d

; 558  :     return (_subborrow_u32(borrow, u, v, w));

	sbb	ecx, edx
	mov	DWORD PTR [rax+12], ecx

; 640  :     return (_FROMDWORDTOWORD((_UINT64_T)u * v, w_hi));

	mov	edx, DWORD PTR [rbx+16]

; 558  :     return (_subborrow_u32(borrow, u, v, w));

	setb	r8b
; File z:\sources\lunor\repos\rougemeilland\palmtree.math.core.implements\palmtree.math.core.implements\pmc_divrem.c

; 447  :     c = _SUBTRUCT_UNIT_DIV(c, *up, t_lo, up);

	mov	ecx, DWORD PTR [rax+16]
; File z:\sources\lunor\repos\rougemeilland\palmtree.math.core.implements\palmtree.math.core.implements\pmc_internal.h

; 640  :     return (_FROMDWORDTOWORD((_UINT64_T)u * v, w_hi));

	imul	rdx, rsi

; 459  :     *result_high = (_UINT32_T)(value >> 32);

	mov	r9, rdx
	shr	r9, 32					; 00000020H

; 530  :     return (_addcarryx_u32(carry, u, v, w));

	add	edx, r10d
	mov	DWORD PTR t_lo$8[rsp], edx
	adcx	r9d, edi

; 558  :     return (_subborrow_u32(borrow, u, v, w));

	add	r8b, -1

; 530  :     return (_addcarryx_u32(carry, u, v, w));

	mov	DWORD PTR t_hi$86[rbp-256], r9d

; 558  :     return (_subborrow_u32(borrow, u, v, w));

	sbb	ecx, edx
	mov	DWORD PTR [rax+16], ecx

; 640  :     return (_FROMDWORDTOWORD((_UINT64_T)u * v, w_hi));

	mov	edx, DWORD PTR [rbx+20]

; 558  :     return (_subborrow_u32(borrow, u, v, w));

	setb	r8b
; File z:\sources\lunor\repos\rougemeilland\palmtree.math.core.implements\palmtree.math.core.implements\pmc_divrem.c

; 447  :     c = _SUBTRUCT_UNIT_DIV(c, *up, t_lo, up);

	mov	ecx, DWORD PTR [rax+20]
; File z:\sources\lunor\repos\rougemeilland\palmtree.math.core.implements\palmtree.math.core.implements\pmc_internal.h

; 640  :     return (_FROMDWORDTOWORD((_UINT64_T)u * v, w_hi));

	imul	rdx, rsi

; 459  :     *result_high = (_UINT32_T)(value >> 32);

	mov	r11, rdx
	shr	r11, 32					; 00000020H

; 530  :     return (_addcarryx_u32(carry, u, v, w));

	add	edx, r9d
	mov	DWORD PTR t_lo$9[rsp], edx
	adcx	r11d, edi

; 558  :     return (_subborrow_u32(borrow, u, v, w));

	add	r8b, -1

; 530  :     return (_addcarryx_u32(carry, u, v, w));

	mov	DWORD PTR t_hi$87[rbp-256], r11d

; 558  :     return (_subborrow_u32(borrow, u, v, w));

	sbb	ecx, edx
	mov	DWORD PTR [rax+20], ecx

; 640  :     return (_FROMDWORDTOWORD((_UINT64_T)u * v, w_hi));

	mov	edx, DWORD PTR [rbx+24]

; 558  :     return (_subborrow_u32(borrow, u, v, w));

	setb	r8b

; 640  :     return (_FROMDWORDTOWORD((_UINT64_T)u * v, w_hi));

	imul	rdx, rsi

; 459  :     *result_high = (_UINT32_T)(value >> 32);

	mov	r10, rdx
; File z:\sources\lunor\repos\rougemeilland\palmtree.math.core.implements\palmtree.math.core.implements\pmc_divrem.c

; 447  :     c = _SUBTRUCT_UNIT_DIV(c, *up, t_lo, up);

	mov	ecx, DWORD PTR [rax+24]
; File z:\sources\lunor\repos\rougemeilland\palmtree.math.core.implements\palmtree.math.core.implements\pmc_internal.h

; 459  :     *result_high = (_UINT32_T)(value >> 32);

	shr	r10, 32					; 00000020H

; 530  :     return (_addcarryx_u32(carry, u, v, w));

	add	edx, r11d
	mov	DWORD PTR t_lo$10[rsp], edx
	adcx	r10d, edi

; 558  :     return (_subborrow_u32(borrow, u, v, w));

	add	r8b, -1

; 530  :     return (_addcarryx_u32(carry, u, v, w));

	mov	DWORD PTR t_hi$88[rbp-256], r10d

; 558  :     return (_subborrow_u32(borrow, u, v, w));

	sbb	ecx, edx
	mov	DWORD PTR [rax+24], ecx

; 640  :     return (_FROMDWORDTOWORD((_UINT64_T)u * v, w_hi));

	mov	edx, DWORD PTR [rbx+28]

; 558  :     return (_subborrow_u32(borrow, u, v, w));

	setb	r8b
; File z:\sources\lunor\repos\rougemeilland\palmtree.math.core.implements\palmtree.math.core.implements\pmc_divrem.c

; 447  :     c = _SUBTRUCT_UNIT_DIV(c, *up, t_lo, up);

	mov	ecx, DWORD PTR [rax+28]
; File z:\sources\lunor\repos\rougemeilland\palmtree.math.core.implements\palmtree.math.core.implements\pmc_internal.h

; 640  :     return (_FROMDWORDTOWORD((_UINT64_T)u * v, w_hi));

	imul	rdx, rsi

; 459  :     *result_high = (_UINT32_T)(value >> 32);

	mov	r9, rdx
	shr	r9, 32					; 00000020H

; 530  :     return (_addcarryx_u32(carry, u, v, w));

	add	edx, r10d
	mov	DWORD PTR t_lo$89[rbp-256], edx
	adcx	r9d, edi

; 558  :     return (_subborrow_u32(borrow, u, v, w));

	add	r8b, -1

; 530  :     return (_addcarryx_u32(carry, u, v, w));

	mov	DWORD PTR t_hi$90[rbp-256], r9d

; 558  :     return (_subborrow_u32(borrow, u, v, w));

	sbb	ecx, edx
	mov	DWORD PTR [rax+28], ecx

; 640  :     return (_FROMDWORDTOWORD((_UINT64_T)u * v, w_hi));

	mov	edx, DWORD PTR [rbx+32]

; 558  :     return (_subborrow_u32(borrow, u, v, w));

	setb	r8b
; File z:\sources\lunor\repos\rougemeilland\palmtree.math.core.implements\palmtree.math.core.implements\pmc_divrem.c

; 447  :     c = _SUBTRUCT_UNIT_DIV(c, *up, t_lo, up);

	mov	ecx, DWORD PTR [rax+32]
; File z:\sources\lunor\repos\rougemeilland\palmtree.math.core.implements\palmtree.math.core.implements\pmc_internal.h

; 640  :     return (_FROMDWORDTOWORD((_UINT64_T)u * v, w_hi));

	imul	rdx, rsi

; 459  :     *result_high = (_UINT32_T)(value >> 32);

	mov	r10, rdx
	shr	r10, 32					; 00000020H

; 530  :     return (_addcarryx_u32(carry, u, v, w));

	add	edx, r9d
	mov	DWORD PTR t_lo$91[rbp-256], edx
	adcx	r10d, edi

; 558  :     return (_subborrow_u32(borrow, u, v, w));

	add	r8b, -1

; 530  :     return (_addcarryx_u32(carry, u, v, w));

	mov	DWORD PTR t_hi$92[rbp-256], r10d

; 558  :     return (_subborrow_u32(borrow, u, v, w));

	sbb	ecx, edx
	mov	DWORD PTR [rax+32], ecx

; 640  :     return (_FROMDWORDTOWORD((_UINT64_T)u * v, w_hi));

	mov	edx, DWORD PTR [rbx+36]

; 558  :     return (_subborrow_u32(borrow, u, v, w));

	setb	r8b
; File z:\sources\lunor\repos\rougemeilland\palmtree.math.core.implements\palmtree.math.core.implements\pmc_divrem.c

; 447  :     c = _SUBTRUCT_UNIT_DIV(c, *up, t_lo, up);

	mov	ecx, DWORD PTR [rax+36]
; File z:\sources\lunor\repos\rougemeilland\palmtree.math.core.implements\palmtree.math.core.implements\pmc_internal.h

; 640  :     return (_FROMDWORDTOWORD((_UINT64_T)u * v, w_hi));

	imul	rdx, rsi

; 459  :     *result_high = (_UINT32_T)(value >> 32);

	mov	r9, rdx
	shr	r9, 32					; 00000020H

; 530  :     return (_addcarryx_u32(carry, u, v, w));

	add	edx, r10d
	mov	DWORD PTR t_lo$93[rbp-256], edx
	adcx	r9d, edi

; 558  :     return (_subborrow_u32(borrow, u, v, w));

	add	r8b, -1

; 530  :     return (_addcarryx_u32(carry, u, v, w));

	mov	DWORD PTR t_hi$94[rbp-256], r9d

; 558  :     return (_subborrow_u32(borrow, u, v, w));

	sbb	ecx, edx
	mov	DWORD PTR [rax+36], ecx

; 640  :     return (_FROMDWORDTOWORD((_UINT64_T)u * v, w_hi));

	mov	edx, DWORD PTR [rbx+40]

; 558  :     return (_subborrow_u32(borrow, u, v, w));

	setb	r8b
; File z:\sources\lunor\repos\rougemeilland\palmtree.math.core.implements\palmtree.math.core.implements\pmc_divrem.c

; 447  :     c = _SUBTRUCT_UNIT_DIV(c, *up, t_lo, up);

	mov	ecx, DWORD PTR [rax+40]
; File z:\sources\lunor\repos\rougemeilland\palmtree.math.core.implements\palmtree.math.core.implements\pmc_internal.h

; 640  :     return (_FROMDWORDTOWORD((_UINT64_T)u * v, w_hi));

	imul	rdx, rsi

; 459  :     *result_high = (_UINT32_T)(value >> 32);

	mov	r10, rdx
	shr	r10, 32					; 00000020H

; 530  :     return (_addcarryx_u32(carry, u, v, w));

	add	edx, r9d
	mov	DWORD PTR t_lo$95[rbp-256], edx
	adcx	r10d, edi

; 558  :     return (_subborrow_u32(borrow, u, v, w));

	add	r8b, -1

; 530  :     return (_addcarryx_u32(carry, u, v, w));

	mov	DWORD PTR t_hi$96[rbp-256], r10d

; 558  :     return (_subborrow_u32(borrow, u, v, w));

	sbb	ecx, edx
	mov	DWORD PTR [rax+40], ecx

; 640  :     return (_FROMDWORDTOWORD((_UINT64_T)u * v, w_hi));

	mov	edx, DWORD PTR [rbx+44]

; 558  :     return (_subborrow_u32(borrow, u, v, w));

	setb	r8b
; File z:\sources\lunor\repos\rougemeilland\palmtree.math.core.implements\palmtree.math.core.implements\pmc_divrem.c

; 447  :     c = _SUBTRUCT_UNIT_DIV(c, *up, t_lo, up);

	mov	ecx, DWORD PTR [rax+44]
; File z:\sources\lunor\repos\rougemeilland\palmtree.math.core.implements\palmtree.math.core.implements\pmc_internal.h

; 640  :     return (_FROMDWORDTOWORD((_UINT64_T)u * v, w_hi));

	imul	rdx, rsi

; 459  :     *result_high = (_UINT32_T)(value >> 32);

	mov	r9, rdx
	shr	r9, 32					; 00000020H

; 530  :     return (_addcarryx_u32(carry, u, v, w));

	add	edx, r10d
	mov	DWORD PTR t_lo$97[rbp-256], edx
	adcx	r9d, edi

; 558  :     return (_subborrow_u32(borrow, u, v, w));

	add	r8b, -1

; 530  :     return (_addcarryx_u32(carry, u, v, w));

	mov	DWORD PTR t_hi$98[rbp-256], r9d

; 558  :     return (_subborrow_u32(borrow, u, v, w));

	sbb	ecx, edx
	mov	DWORD PTR [rax+44], ecx

; 640  :     return (_FROMDWORDTOWORD((_UINT64_T)u * v, w_hi));

	mov	edx, DWORD PTR [rbx+48]

; 558  :     return (_subborrow_u32(borrow, u, v, w));

	setb	r8b

; 640  :     return (_FROMDWORDTOWORD((_UINT64_T)u * v, w_hi));

	imul	rdx, rsi

; 459  :     *result_high = (_UINT32_T)(value >> 32);

	mov	r10, rdx
	shr	r10, 32					; 00000020H

; 530  :     return (_addcarryx_u32(carry, u, v, w));

	add	edx, r9d
	mov	DWORD PTR t_lo$99[rbp-256], edx
; File z:\sources\lunor\repos\rougemeilland\palmtree.math.core.implements\palmtree.math.core.implements\pmc_divrem.c

; 447  :     c = _SUBTRUCT_UNIT_DIV(c, *up, t_lo, up);

	mov	ecx, DWORD PTR [rax+48]
; File z:\sources\lunor\repos\rougemeilland\palmtree.math.core.implements\palmtree.math.core.implements\pmc_internal.h

; 530  :     return (_addcarryx_u32(carry, u, v, w));

	adcx	r10d, edi

; 558  :     return (_subborrow_u32(borrow, u, v, w));

	add	r8b, -1

; 530  :     return (_addcarryx_u32(carry, u, v, w));

	mov	DWORD PTR t_hi$100[rbp-256], r10d

; 558  :     return (_subborrow_u32(borrow, u, v, w));

	sbb	ecx, edx
	mov	DWORD PTR [rax+48], ecx

; 640  :     return (_FROMDWORDTOWORD((_UINT64_T)u * v, w_hi));

	mov	edx, DWORD PTR [rbx+52]

; 558  :     return (_subborrow_u32(borrow, u, v, w));

	setb	r8b
; File z:\sources\lunor\repos\rougemeilland\palmtree.math.core.implements\palmtree.math.core.implements\pmc_divrem.c

; 447  :     c = _SUBTRUCT_UNIT_DIV(c, *up, t_lo, up);

	mov	ecx, DWORD PTR [rax+52]
; File z:\sources\lunor\repos\rougemeilland\palmtree.math.core.implements\palmtree.math.core.implements\pmc_internal.h

; 640  :     return (_FROMDWORDTOWORD((_UINT64_T)u * v, w_hi));

	imul	rdx, rsi

; 459  :     *result_high = (_UINT32_T)(value >> 32);

	mov	r9, rdx
	shr	r9, 32					; 00000020H

; 530  :     return (_addcarryx_u32(carry, u, v, w));

	add	edx, r10d
	mov	DWORD PTR t_lo$101[rbp-256], edx
	adcx	r9d, edi

; 558  :     return (_subborrow_u32(borrow, u, v, w));

	add	r8b, -1

; 530  :     return (_addcarryx_u32(carry, u, v, w));

	mov	DWORD PTR t_hi$102[rbp-256], r9d

; 558  :     return (_subborrow_u32(borrow, u, v, w));

	sbb	ecx, edx
	mov	DWORD PTR [rax+52], ecx

; 640  :     return (_FROMDWORDTOWORD((_UINT64_T)u * v, w_hi));

	mov	edx, DWORD PTR [rbx+56]

; 558  :     return (_subborrow_u32(borrow, u, v, w));

	setb	r8b
; File z:\sources\lunor\repos\rougemeilland\palmtree.math.core.implements\palmtree.math.core.implements\pmc_divrem.c

; 447  :     c = _SUBTRUCT_UNIT_DIV(c, *up, t_lo, up);

	mov	ecx, DWORD PTR [rax+56]
; File z:\sources\lunor\repos\rougemeilland\palmtree.math.core.implements\palmtree.math.core.implements\pmc_internal.h

; 640  :     return (_FROMDWORDTOWORD((_UINT64_T)u * v, w_hi));

	imul	rdx, rsi

; 459  :     *result_high = (_UINT32_T)(value >> 32);

	mov	r10, rdx
	shr	r10, 32					; 00000020H

; 530  :     return (_addcarryx_u32(carry, u, v, w));

	add	edx, r9d
	mov	DWORD PTR t_lo$103[rbp-256], edx
	adcx	r10d, edi

; 558  :     return (_subborrow_u32(borrow, u, v, w));

	add	r8b, -1

; 530  :     return (_addcarryx_u32(carry, u, v, w));

	mov	DWORD PTR t_hi$104[rbp-256], r10d

; 558  :     return (_subborrow_u32(borrow, u, v, w));

	sbb	ecx, edx
	mov	DWORD PTR [rax+56], ecx

; 640  :     return (_FROMDWORDTOWORD((_UINT64_T)u * v, w_hi));

	mov	edx, DWORD PTR [rbx+60]

; 558  :     return (_subborrow_u32(borrow, u, v, w));

	setb	r9b
; File z:\sources\lunor\repos\rougemeilland\palmtree.math.core.implements\palmtree.math.core.implements\pmc_divrem.c

; 447  :     c = _SUBTRUCT_UNIT_DIV(c, *up, t_lo, up);

	mov	ecx, DWORD PTR [rax+60]
; File z:\sources\lunor\repos\rougemeilland\palmtree.math.core.implements\palmtree.math.core.implements\pmc_internal.h

; 640  :     return (_FROMDWORDTOWORD((_UINT64_T)u * v, w_hi));

	imul	rdx, rsi

; 459  :     *result_high = (_UINT32_T)(value >> 32);

	mov	r8, rdx
	shr	r8, 32					; 00000020H

; 530  :     return (_addcarryx_u32(carry, u, v, w));

	add	edx, r10d
	mov	DWORD PTR t_lo$105[rbp-256], edx
	adcx	r8d, edi

; 558  :     return (_subborrow_u32(borrow, u, v, w));

	add	r9b, -1

; 530  :     return (_addcarryx_u32(carry, u, v, w));

	mov	DWORD PTR t_hi$106[rbp-256], r8d
; File z:\sources\lunor\repos\rougemeilland\palmtree.math.core.implements\palmtree.math.core.implements\pmc_divrem.c

; 448  :     *k = t_hi;

	mov	r14d, r8d
; File z:\sources\lunor\repos\rougemeilland\palmtree.math.core.implements\palmtree.math.core.implements\pmc_internal.h

; 558  :     return (_subborrow_u32(borrow, u, v, w));

	sbb	ecx, edx
	mov	DWORD PTR [rax+60], ecx

; 1097 :     _InterlockedExchangeAdd(&statistics_info.COUNT_MULTI32, value);

	mov	ecx, 16

; 558  :     return (_subborrow_u32(borrow, u, v, w));

	setb	r11b
; File z:\sources\lunor\repos\rougemeilland\palmtree.math.core.implements\palmtree.math.core.implements\pmc_divrem.c

; 676  :         u_ptr += 16;

	add	rax, 64					; 00000040H

; 677  :         v_ptr += 16;

	add	rbx, 64					; 00000040H
; File z:\sources\lunor\repos\rougemeilland\palmtree.math.core.implements\palmtree.math.core.implements\pmc_internal.h

; 1097 :     _InterlockedExchangeAdd(&statistics_info.COUNT_MULTI32, value);

	lock xadd DWORD PTR statistics_info+4, ecx
$LN604@SubtructOn:
; File z:\sources\lunor\repos\rougemeilland\palmtree.math.core.implements\palmtree.math.core.implements\pmc_divrem.c

; 686  :     if (v_count & 0x8)

	test	r15b, 8
	je	$LN704@SubtructOn
; File z:\sources\lunor\repos\rougemeilland\palmtree.math.core.implements\palmtree.math.core.implements\pmc_internal.h

; 640  :     return (_FROMDWORDTOWORD((_UINT64_T)u * v, w_hi));

	mov	edx, DWORD PTR [rbx]
; File z:\sources\lunor\repos\rougemeilland\palmtree.math.core.implements\palmtree.math.core.implements\pmc_divrem.c

; 447  :     c = _SUBTRUCT_UNIT_DIV(c, *up, t_lo, up);

	mov	ecx, DWORD PTR [rax]
; File z:\sources\lunor\repos\rougemeilland\palmtree.math.core.implements\palmtree.math.core.implements\pmc_internal.h

; 640  :     return (_FROMDWORDTOWORD((_UINT64_T)u * v, w_hi));

	imul	rdx, rsi

; 459  :     *result_high = (_UINT32_T)(value >> 32);

	mov	r9, rdx
	shr	r9, 32					; 00000020H

; 530  :     return (_addcarryx_u32(carry, u, v, w));

	add	edx, r14d
	mov	DWORD PTR t_lo$11[rsp], edx
	adcx	r9d, edi

; 558  :     return (_subborrow_u32(borrow, u, v, w));

	add	r11b, -1

; 530  :     return (_addcarryx_u32(carry, u, v, w));

	mov	DWORD PTR t_hi$107[rbp-256], r9d

; 558  :     return (_subborrow_u32(borrow, u, v, w));

	sbb	ecx, edx
	mov	DWORD PTR [rax], ecx

; 640  :     return (_FROMDWORDTOWORD((_UINT64_T)u * v, w_hi));

	mov	edx, DWORD PTR [rbx+4]

; 558  :     return (_subborrow_u32(borrow, u, v, w));

	setb	r8b
; File z:\sources\lunor\repos\rougemeilland\palmtree.math.core.implements\palmtree.math.core.implements\pmc_divrem.c

; 447  :     c = _SUBTRUCT_UNIT_DIV(c, *up, t_lo, up);

	mov	ecx, DWORD PTR [rax+4]
; File z:\sources\lunor\repos\rougemeilland\palmtree.math.core.implements\palmtree.math.core.implements\pmc_internal.h

; 640  :     return (_FROMDWORDTOWORD((_UINT64_T)u * v, w_hi));

	imul	rdx, rsi

; 459  :     *result_high = (_UINT32_T)(value >> 32);

	mov	r10, rdx
	shr	r10, 32					; 00000020H

; 530  :     return (_addcarryx_u32(carry, u, v, w));

	add	edx, r9d
	mov	DWORD PTR t_lo$12[rsp], edx
	adcx	r10d, edi

; 558  :     return (_subborrow_u32(borrow, u, v, w));

	add	r8b, -1

; 530  :     return (_addcarryx_u32(carry, u, v, w));

	mov	DWORD PTR t_hi$108[rbp-256], r10d

; 558  :     return (_subborrow_u32(borrow, u, v, w));

	sbb	ecx, edx
	mov	DWORD PTR [rax+4], ecx

; 640  :     return (_FROMDWORDTOWORD((_UINT64_T)u * v, w_hi));

	mov	edx, DWORD PTR [rbx+8]

; 558  :     return (_subborrow_u32(borrow, u, v, w));

	setb	r8b
; File z:\sources\lunor\repos\rougemeilland\palmtree.math.core.implements\palmtree.math.core.implements\pmc_divrem.c

; 447  :     c = _SUBTRUCT_UNIT_DIV(c, *up, t_lo, up);

	mov	ecx, DWORD PTR [rax+8]
; File z:\sources\lunor\repos\rougemeilland\palmtree.math.core.implements\palmtree.math.core.implements\pmc_internal.h

; 640  :     return (_FROMDWORDTOWORD((_UINT64_T)u * v, w_hi));

	imul	rdx, rsi

; 459  :     *result_high = (_UINT32_T)(value >> 32);

	mov	r9, rdx
	shr	r9, 32					; 00000020H

; 530  :     return (_addcarryx_u32(carry, u, v, w));

	add	edx, r10d
	mov	DWORD PTR t_lo$13[rsp], edx
	adcx	r9d, edi

; 558  :     return (_subborrow_u32(borrow, u, v, w));

	add	r8b, -1

; 530  :     return (_addcarryx_u32(carry, u, v, w));

	mov	DWORD PTR t_hi$109[rbp-256], r9d

; 558  :     return (_subborrow_u32(borrow, u, v, w));

	sbb	ecx, edx
	mov	DWORD PTR [rax+8], ecx

; 640  :     return (_FROMDWORDTOWORD((_UINT64_T)u * v, w_hi));

	mov	edx, DWORD PTR [rbx+12]

; 558  :     return (_subborrow_u32(borrow, u, v, w));

	setb	r8b
; File z:\sources\lunor\repos\rougemeilland\palmtree.math.core.implements\palmtree.math.core.implements\pmc_divrem.c

; 447  :     c = _SUBTRUCT_UNIT_DIV(c, *up, t_lo, up);

	mov	ecx, DWORD PTR [rax+12]
; File z:\sources\lunor\repos\rougemeilland\palmtree.math.core.implements\palmtree.math.core.implements\pmc_internal.h

; 640  :     return (_FROMDWORDTOWORD((_UINT64_T)u * v, w_hi));

	imul	rdx, rsi

; 459  :     *result_high = (_UINT32_T)(value >> 32);

	mov	r10, rdx
	shr	r10, 32					; 00000020H

; 530  :     return (_addcarryx_u32(carry, u, v, w));

	add	edx, r9d
	mov	DWORD PTR t_lo$14[rsp], edx
	adcx	r10d, edi

; 558  :     return (_subborrow_u32(borrow, u, v, w));

	add	r8b, -1

; 530  :     return (_addcarryx_u32(carry, u, v, w));

	mov	DWORD PTR t_hi$110[rbp-256], r10d

; 558  :     return (_subborrow_u32(borrow, u, v, w));

	sbb	ecx, edx
	mov	DWORD PTR [rax+12], ecx

; 640  :     return (_FROMDWORDTOWORD((_UINT64_T)u * v, w_hi));

	mov	edx, DWORD PTR [rbx+16]

; 558  :     return (_subborrow_u32(borrow, u, v, w));

	setb	r8b
; File z:\sources\lunor\repos\rougemeilland\palmtree.math.core.implements\palmtree.math.core.implements\pmc_divrem.c

; 447  :     c = _SUBTRUCT_UNIT_DIV(c, *up, t_lo, up);

	mov	ecx, DWORD PTR [rax+16]
; File z:\sources\lunor\repos\rougemeilland\palmtree.math.core.implements\palmtree.math.core.implements\pmc_internal.h

; 640  :     return (_FROMDWORDTOWORD((_UINT64_T)u * v, w_hi));

	imul	rdx, rsi

; 459  :     *result_high = (_UINT32_T)(value >> 32);

	mov	r9, rdx
	shr	r9, 32					; 00000020H

; 530  :     return (_addcarryx_u32(carry, u, v, w));

	add	edx, r10d
	mov	DWORD PTR t_lo$15[rsp], edx
	adcx	r9d, edi

; 558  :     return (_subborrow_u32(borrow, u, v, w));

	add	r8b, -1

; 530  :     return (_addcarryx_u32(carry, u, v, w));

	mov	DWORD PTR t_hi$111[rbp-256], r9d

; 558  :     return (_subborrow_u32(borrow, u, v, w));

	sbb	ecx, edx
	mov	DWORD PTR [rax+16], ecx

; 640  :     return (_FROMDWORDTOWORD((_UINT64_T)u * v, w_hi));

	mov	edx, DWORD PTR [rbx+20]

; 558  :     return (_subborrow_u32(borrow, u, v, w));

	setb	r8b
; File z:\sources\lunor\repos\rougemeilland\palmtree.math.core.implements\palmtree.math.core.implements\pmc_divrem.c

; 447  :     c = _SUBTRUCT_UNIT_DIV(c, *up, t_lo, up);

	mov	ecx, DWORD PTR [rax+20]
; File z:\sources\lunor\repos\rougemeilland\palmtree.math.core.implements\palmtree.math.core.implements\pmc_internal.h

; 640  :     return (_FROMDWORDTOWORD((_UINT64_T)u * v, w_hi));

	imul	rdx, rsi

; 459  :     *result_high = (_UINT32_T)(value >> 32);

	mov	r11, rdx
	shr	r11, 32					; 00000020H

; 530  :     return (_addcarryx_u32(carry, u, v, w));

	add	edx, r9d
	mov	DWORD PTR t_lo$16[rsp], edx
	adcx	r11d, edi

; 558  :     return (_subborrow_u32(borrow, u, v, w));

	add	r8b, -1

; 530  :     return (_addcarryx_u32(carry, u, v, w));

	mov	DWORD PTR t_hi$112[rbp-256], r11d

; 558  :     return (_subborrow_u32(borrow, u, v, w));

	sbb	ecx, edx
	mov	DWORD PTR [rax+20], ecx

; 640  :     return (_FROMDWORDTOWORD((_UINT64_T)u * v, w_hi));

	mov	edx, DWORD PTR [rbx+24]

; 558  :     return (_subborrow_u32(borrow, u, v, w));

	setb	r8b

; 640  :     return (_FROMDWORDTOWORD((_UINT64_T)u * v, w_hi));

	imul	rdx, rsi

; 459  :     *result_high = (_UINT32_T)(value >> 32);

	mov	r10, rdx
; File z:\sources\lunor\repos\rougemeilland\palmtree.math.core.implements\palmtree.math.core.implements\pmc_divrem.c

; 447  :     c = _SUBTRUCT_UNIT_DIV(c, *up, t_lo, up);

	mov	ecx, DWORD PTR [rax+24]
; File z:\sources\lunor\repos\rougemeilland\palmtree.math.core.implements\palmtree.math.core.implements\pmc_internal.h

; 459  :     *result_high = (_UINT32_T)(value >> 32);

	shr	r10, 32					; 00000020H

; 530  :     return (_addcarryx_u32(carry, u, v, w));

	add	edx, r11d
	mov	DWORD PTR t_lo$17[rsp], edx
	adcx	r10d, edi

; 558  :     return (_subborrow_u32(borrow, u, v, w));

	add	r8b, -1

; 530  :     return (_addcarryx_u32(carry, u, v, w));

	mov	DWORD PTR t_hi$113[rbp-256], r10d

; 558  :     return (_subborrow_u32(borrow, u, v, w));

	sbb	ecx, edx
	mov	DWORD PTR [rax+24], ecx

; 640  :     return (_FROMDWORDTOWORD((_UINT64_T)u * v, w_hi));

	mov	edx, DWORD PTR [rbx+28]

; 558  :     return (_subborrow_u32(borrow, u, v, w));

	setb	r9b
; File z:\sources\lunor\repos\rougemeilland\palmtree.math.core.implements\palmtree.math.core.implements\pmc_divrem.c

; 447  :     c = _SUBTRUCT_UNIT_DIV(c, *up, t_lo, up);

	mov	ecx, DWORD PTR [rax+28]
; File z:\sources\lunor\repos\rougemeilland\palmtree.math.core.implements\palmtree.math.core.implements\pmc_internal.h

; 640  :     return (_FROMDWORDTOWORD((_UINT64_T)u * v, w_hi));

	imul	rdx, rsi

; 459  :     *result_high = (_UINT32_T)(value >> 32);

	mov	r8, rdx
	shr	r8, 32					; 00000020H

; 530  :     return (_addcarryx_u32(carry, u, v, w));

	add	edx, r10d
	mov	DWORD PTR t_lo$114[rbp-256], edx
	adcx	r8d, edi

; 558  :     return (_subborrow_u32(borrow, u, v, w));

	add	r9b, -1

; 530  :     return (_addcarryx_u32(carry, u, v, w));

	mov	DWORD PTR t_hi$115[rbp-256], r8d
; File z:\sources\lunor\repos\rougemeilland\palmtree.math.core.implements\palmtree.math.core.implements\pmc_divrem.c

; 448  :     *k = t_hi;

	mov	r14d, r8d
; File z:\sources\lunor\repos\rougemeilland\palmtree.math.core.implements\palmtree.math.core.implements\pmc_internal.h

; 558  :     return (_subborrow_u32(borrow, u, v, w));

	sbb	ecx, edx
	mov	DWORD PTR [rax+28], ecx

; 1097 :     _InterlockedExchangeAdd(&statistics_info.COUNT_MULTI32, value);

	mov	ecx, 8

; 558  :     return (_subborrow_u32(borrow, u, v, w));

	setb	r11b
; File z:\sources\lunor\repos\rougemeilland\palmtree.math.core.implements\palmtree.math.core.implements\pmc_divrem.c

; 696  :         u_ptr += 8;

	add	rax, 32					; 00000020H

; 697  :         v_ptr += 8;

	add	rbx, 32					; 00000020H
; File z:\sources\lunor\repos\rougemeilland\palmtree.math.core.implements\palmtree.math.core.implements\pmc_internal.h

; 1097 :     _InterlockedExchangeAdd(&statistics_info.COUNT_MULTI32, value);

	lock xadd DWORD PTR statistics_info+4, ecx
$LN704@SubtructOn:
; File z:\sources\lunor\repos\rougemeilland\palmtree.math.core.implements\palmtree.math.core.implements\pmc_divrem.c

; 706  :     if (v_count & 0x4)

	test	r15b, 4
	je	$LN756@SubtructOn
; File z:\sources\lunor\repos\rougemeilland\palmtree.math.core.implements\palmtree.math.core.implements\pmc_internal.h

; 640  :     return (_FROMDWORDTOWORD((_UINT64_T)u * v, w_hi));

	mov	edx, DWORD PTR [rbx]
; File z:\sources\lunor\repos\rougemeilland\palmtree.math.core.implements\palmtree.math.core.implements\pmc_divrem.c

; 447  :     c = _SUBTRUCT_UNIT_DIV(c, *up, t_lo, up);

	mov	ecx, DWORD PTR [rax]
; File z:\sources\lunor\repos\rougemeilland\palmtree.math.core.implements\palmtree.math.core.implements\pmc_internal.h

; 640  :     return (_FROMDWORDTOWORD((_UINT64_T)u * v, w_hi));

	imul	rdx, rsi

; 459  :     *result_high = (_UINT32_T)(value >> 32);

	mov	r9, rdx
	shr	r9, 32					; 00000020H

; 530  :     return (_addcarryx_u32(carry, u, v, w));

	add	edx, r14d
	mov	DWORD PTR t_lo$18[rsp], edx
	adcx	r9d, edi

; 558  :     return (_subborrow_u32(borrow, u, v, w));

	add	r11b, -1

; 530  :     return (_addcarryx_u32(carry, u, v, w));

	mov	DWORD PTR t_hi$116[rbp-256], r9d

; 558  :     return (_subborrow_u32(borrow, u, v, w));

	sbb	ecx, edx
	mov	DWORD PTR [rax], ecx

; 640  :     return (_FROMDWORDTOWORD((_UINT64_T)u * v, w_hi));

	mov	edx, DWORD PTR [rbx+4]

; 558  :     return (_subborrow_u32(borrow, u, v, w));

	setb	r8b
; File z:\sources\lunor\repos\rougemeilland\palmtree.math.core.implements\palmtree.math.core.implements\pmc_divrem.c

; 447  :     c = _SUBTRUCT_UNIT_DIV(c, *up, t_lo, up);

	mov	ecx, DWORD PTR [rax+4]
; File z:\sources\lunor\repos\rougemeilland\palmtree.math.core.implements\palmtree.math.core.implements\pmc_internal.h

; 640  :     return (_FROMDWORDTOWORD((_UINT64_T)u * v, w_hi));

	imul	rdx, rsi

; 459  :     *result_high = (_UINT32_T)(value >> 32);

	mov	r10, rdx
	shr	r10, 32					; 00000020H

; 530  :     return (_addcarryx_u32(carry, u, v, w));

	add	edx, r9d
	mov	DWORD PTR t_lo$19[rsp], edx
	adcx	r10d, edi

; 558  :     return (_subborrow_u32(borrow, u, v, w));

	add	r8b, -1

; 530  :     return (_addcarryx_u32(carry, u, v, w));

	mov	DWORD PTR t_hi$117[rbp-256], r10d

; 558  :     return (_subborrow_u32(borrow, u, v, w));

	sbb	ecx, edx
	mov	DWORD PTR [rax+4], ecx

; 640  :     return (_FROMDWORDTOWORD((_UINT64_T)u * v, w_hi));

	mov	edx, DWORD PTR [rbx+8]

; 558  :     return (_subborrow_u32(borrow, u, v, w));

	setb	r8b
; File z:\sources\lunor\repos\rougemeilland\palmtree.math.core.implements\palmtree.math.core.implements\pmc_divrem.c

; 447  :     c = _SUBTRUCT_UNIT_DIV(c, *up, t_lo, up);

	mov	ecx, DWORD PTR [rax+8]
; File z:\sources\lunor\repos\rougemeilland\palmtree.math.core.implements\palmtree.math.core.implements\pmc_internal.h

; 640  :     return (_FROMDWORDTOWORD((_UINT64_T)u * v, w_hi));

	imul	rdx, rsi

; 459  :     *result_high = (_UINT32_T)(value >> 32);

	mov	r11, rdx
	shr	r11, 32					; 00000020H

; 530  :     return (_addcarryx_u32(carry, u, v, w));

	add	edx, r10d
	mov	DWORD PTR t_lo$20[rsp], edx
	adcx	r11d, edi

; 558  :     return (_subborrow_u32(borrow, u, v, w));

	add	r8b, -1

; 530  :     return (_addcarryx_u32(carry, u, v, w));

	mov	DWORD PTR t_hi$118[rbp-256], r11d

; 558  :     return (_subborrow_u32(borrow, u, v, w));

	sbb	ecx, edx
	mov	DWORD PTR [rax+8], ecx

; 640  :     return (_FROMDWORDTOWORD((_UINT64_T)u * v, w_hi));

	mov	edx, DWORD PTR [rbx+12]

; 558  :     return (_subborrow_u32(borrow, u, v, w));

	setb	r9b
; File z:\sources\lunor\repos\rougemeilland\palmtree.math.core.implements\palmtree.math.core.implements\pmc_divrem.c

; 447  :     c = _SUBTRUCT_UNIT_DIV(c, *up, t_lo, up);

	mov	ecx, DWORD PTR [rax+12]
; File z:\sources\lunor\repos\rougemeilland\palmtree.math.core.implements\palmtree.math.core.implements\pmc_internal.h

; 640  :     return (_FROMDWORDTOWORD((_UINT64_T)u * v, w_hi));

	imul	rdx, rsi

; 459  :     *result_high = (_UINT32_T)(value >> 32);

	mov	r8, rdx
	shr	r8, 32					; 00000020H

; 530  :     return (_addcarryx_u32(carry, u, v, w));

	add	edx, r11d
	mov	DWORD PTR t_lo$21[rsp], edx
	adcx	r8d, edi

; 558  :     return (_subborrow_u32(borrow, u, v, w));

	add	r9b, -1

; 530  :     return (_addcarryx_u32(carry, u, v, w));

	mov	DWORD PTR t_hi$119[rbp-256], r8d
; File z:\sources\lunor\repos\rougemeilland\palmtree.math.core.implements\palmtree.math.core.implements\pmc_divrem.c

; 448  :     *k = t_hi;

	mov	r14d, r8d
; File z:\sources\lunor\repos\rougemeilland\palmtree.math.core.implements\palmtree.math.core.implements\pmc_internal.h

; 558  :     return (_subborrow_u32(borrow, u, v, w));

	sbb	ecx, edx
	mov	DWORD PTR [rax+12], ecx

; 1097 :     _InterlockedExchangeAdd(&statistics_info.COUNT_MULTI32, value);

	mov	ecx, 4

; 558  :     return (_subborrow_u32(borrow, u, v, w));

	setb	r11b
; File z:\sources\lunor\repos\rougemeilland\palmtree.math.core.implements\palmtree.math.core.implements\pmc_divrem.c

; 712  :         u_ptr += 4;

	add	rax, 16

; 713  :         v_ptr += 4;

	add	rbx, 16
; File z:\sources\lunor\repos\rougemeilland\palmtree.math.core.implements\palmtree.math.core.implements\pmc_internal.h

; 1097 :     _InterlockedExchangeAdd(&statistics_info.COUNT_MULTI32, value);

	lock xadd DWORD PTR statistics_info+4, ecx
$LN756@SubtructOn:
; File z:\sources\lunor\repos\rougemeilland\palmtree.math.core.implements\palmtree.math.core.implements\pmc_divrem.c

; 722  :     if (v_count & 0x2)

	test	r15b, 2
	je	SHORT $LN784@SubtructOn
; File z:\sources\lunor\repos\rougemeilland\palmtree.math.core.implements\palmtree.math.core.implements\pmc_internal.h

; 640  :     return (_FROMDWORDTOWORD((_UINT64_T)u * v, w_hi));

	mov	edx, DWORD PTR [rbx]
; File z:\sources\lunor\repos\rougemeilland\palmtree.math.core.implements\palmtree.math.core.implements\pmc_divrem.c

; 447  :     c = _SUBTRUCT_UNIT_DIV(c, *up, t_lo, up);

	mov	ecx, DWORD PTR [rax]
; File z:\sources\lunor\repos\rougemeilland\palmtree.math.core.implements\palmtree.math.core.implements\pmc_internal.h

; 640  :     return (_FROMDWORDTOWORD((_UINT64_T)u * v, w_hi));

	imul	rdx, rsi

; 459  :     *result_high = (_UINT32_T)(value >> 32);

	mov	r10, rdx
	shr	r10, 32					; 00000020H

; 530  :     return (_addcarryx_u32(carry, u, v, w));

	add	edx, r14d
	mov	DWORD PTR t_lo$22[rsp], edx
	adcx	r10d, edi

; 558  :     return (_subborrow_u32(borrow, u, v, w));

	add	r11b, -1

; 530  :     return (_addcarryx_u32(carry, u, v, w));

	mov	DWORD PTR t_hi$120[rbp-256], r10d

; 558  :     return (_subborrow_u32(borrow, u, v, w));

	sbb	ecx, edx
	mov	DWORD PTR [rax], ecx

; 640  :     return (_FROMDWORDTOWORD((_UINT64_T)u * v, w_hi));

	mov	edx, DWORD PTR [rbx+4]

; 558  :     return (_subborrow_u32(borrow, u, v, w));

	setb	r9b
; File z:\sources\lunor\repos\rougemeilland\palmtree.math.core.implements\palmtree.math.core.implements\pmc_divrem.c

; 447  :     c = _SUBTRUCT_UNIT_DIV(c, *up, t_lo, up);

	mov	ecx, DWORD PTR [rax+4]
; File z:\sources\lunor\repos\rougemeilland\palmtree.math.core.implements\palmtree.math.core.implements\pmc_internal.h

; 640  :     return (_FROMDWORDTOWORD((_UINT64_T)u * v, w_hi));

	imul	rdx, rsi

; 459  :     *result_high = (_UINT32_T)(value >> 32);

	mov	r8, rdx
	shr	r8, 32					; 00000020H

; 530  :     return (_addcarryx_u32(carry, u, v, w));

	add	edx, r10d
	mov	DWORD PTR t_lo$23[rsp], edx
	adcx	r8d, edi

; 558  :     return (_subborrow_u32(borrow, u, v, w));

	add	r9b, -1

; 530  :     return (_addcarryx_u32(carry, u, v, w));

	mov	DWORD PTR t_hi$121[rbp-256], r8d
; File z:\sources\lunor\repos\rougemeilland\palmtree.math.core.implements\palmtree.math.core.implements\pmc_divrem.c

; 448  :     *k = t_hi;

	mov	r14d, r8d
; File z:\sources\lunor\repos\rougemeilland\palmtree.math.core.implements\palmtree.math.core.implements\pmc_internal.h

; 558  :     return (_subborrow_u32(borrow, u, v, w));

	sbb	ecx, edx
	mov	DWORD PTR [rax+4], ecx

; 1097 :     _InterlockedExchangeAdd(&statistics_info.COUNT_MULTI32, value);

	mov	ecx, 2

; 558  :     return (_subborrow_u32(borrow, u, v, w));

	setb	r11b
; File z:\sources\lunor\repos\rougemeilland\palmtree.math.core.implements\palmtree.math.core.implements\pmc_divrem.c

; 726  :         u_ptr += 2;

	add	rax, 8

; 727  :         v_ptr += 2;

	add	rbx, 8
; File z:\sources\lunor\repos\rougemeilland\palmtree.math.core.implements\palmtree.math.core.implements\pmc_internal.h

; 1097 :     _InterlockedExchangeAdd(&statistics_info.COUNT_MULTI32, value);

	lock xadd DWORD PTR statistics_info+4, ecx
$LN784@SubtructOn:
; File z:\sources\lunor\repos\rougemeilland\palmtree.math.core.implements\palmtree.math.core.implements\pmc_divrem.c

; 736  :     if (v_count & 0x1)

	test	r15b, 1
	je	SHORT $LN800@SubtructOn

; 447  :     c = _SUBTRUCT_UNIT_DIV(c, *up, t_lo, up);

	mov	ecx, DWORD PTR [rax]
; File z:\sources\lunor\repos\rougemeilland\palmtree.math.core.implements\palmtree.math.core.implements\pmc_internal.h

; 640  :     return (_FROMDWORDTOWORD((_UINT64_T)u * v, w_hi));

	mov	edx, DWORD PTR [rbx]
	imul	rdx, rsi

; 459  :     *result_high = (_UINT32_T)(value >> 32);

	mov	r8, rdx
	shr	r8, 32					; 00000020H

; 530  :     return (_addcarryx_u32(carry, u, v, w));

	add	edx, r14d
	mov	DWORD PTR t_lo$24[rsp], edx
	adcx	r8d, edi

; 558  :     return (_subborrow_u32(borrow, u, v, w));

	add	r11b, -1

; 530  :     return (_addcarryx_u32(carry, u, v, w));

	mov	DWORD PTR t_hi$122[rbp-256], r8d
; File z:\sources\lunor\repos\rougemeilland\palmtree.math.core.implements\palmtree.math.core.implements\pmc_divrem.c

; 448  :     *k = t_hi;

	mov	r14d, r8d
; File z:\sources\lunor\repos\rougemeilland\palmtree.math.core.implements\palmtree.math.core.implements\pmc_internal.h

; 558  :     return (_subborrow_u32(borrow, u, v, w));

	sbb	ecx, edx
	mov	DWORD PTR [rax], ecx
	setb	r11b
; File z:\sources\lunor\repos\rougemeilland\palmtree.math.core.implements\palmtree.math.core.implements\pmc_divrem.c

; 739  :         u_ptr += 1;

	add	rax, 4
; File z:\sources\lunor\repos\rougemeilland\palmtree.math.core.implements\palmtree.math.core.implements\pmc_internal.h

; 1074 :     _InterlockedIncrement(&statistics_info.COUNT_MULTI32);

	lock inc DWORD PTR statistics_info+4
$LN800@SubtructOn:
; File z:\sources\lunor\repos\rougemeilland\palmtree.math.core.implements\palmtree.math.core.implements\pmc_divrem.c

; 749  :     c = _SUBTRUCT_UNIT_DIV(c, *u_ptr, k, u_ptr);

	mov	ecx, DWORD PTR [rax]
; File z:\sources\lunor\repos\rougemeilland\palmtree.math.core.implements\palmtree.math.core.implements\pmc_internal.h

; 558  :     return (_subborrow_u32(borrow, u, v, w));

	add	r11b, -1
; File z:\sources\lunor\repos\rougemeilland\palmtree.math.core.implements\palmtree.math.core.implements\pmc_divrem.c

; 753  :     return (DoBorrow(c, k, u_ptr, u_buf + u_buf_len + 1 - u_ptr));

	mov	r8, QWORD PTR u_buf_len$[rbp-256]
; File z:\sources\lunor\repos\rougemeilland\palmtree.math.core.implements\palmtree.math.core.implements\pmc_internal.h

; 558  :     return (_subborrow_u32(borrow, u, v, w));

	sbb	ecx, r14d
	mov	DWORD PTR [rax], ecx
	setb	dl
; File z:\sources\lunor\repos\rougemeilland\palmtree.math.core.implements\palmtree.math.core.implements\pmc_divrem.c

; 751  :     u_ptr += 1;

	add	rax, 4

; 753  :     return (DoBorrow(c, k, u_ptr, u_buf + u_buf_len + 1 - u_ptr));

	lea	r8, QWORD PTR [r8*4+4]
	sub	r8, rax
	add	r8, r13
	sar	r8, 2

; 394  :         if (u_count <= 0)

	test	r8, r8
	je	SHORT $LN818@SubtructOn
$LL805@SubtructOn:

; 399  :             {
; 400  :                 // かつそれでも桁借りを行う必要がある場合
; 401  : 
; 402  :                 // 減算結果が負になってしまったので呼び出し元に通知する。
; 403  :                 return (TRUE);
; 404  :             }
; 405  : 
; 406  :             // u の最上位に達してしまった場合はいずれにしろループを中断して正常復帰する。
; 407  : 
; 408  :             return (FALSE);
; 409  :         }
; 410  :         else if (c)

	test	dl, dl
	je	SHORT $LN811@SubtructOn

; 411  :         {
; 412  :             // u の最上位に達しておらず、かつボローが立っている場合
; 413  : 
; 414  :             // 桁借りを継続する
; 415  :             c = _SUBTRUCT_UNIT_DIV(c, *up, k, up);

	mov	ecx, DWORD PTR [rax]
; File z:\sources\lunor\repos\rougemeilland\palmtree.math.core.implements\palmtree.math.core.implements\pmc_internal.h

; 558  :     return (_subborrow_u32(borrow, u, v, w));

	add	dl, -1
	sbb	ecx, edi
	mov	DWORD PTR [rax], ecx
	setb	dl
; File z:\sources\lunor\repos\rougemeilland\palmtree.math.core.implements\palmtree.math.core.implements\pmc_divrem.c

; 417  :             ++up;

	add	rax, 4

; 418  :             --u_count;

	sub	r8, 1
	jne	SHORT $LL805@SubtructOn
$LN818@SubtructOn:

; 395  :         {
; 396  :             // u の最上位まで達してしまった場合
; 397  : 
; 398  :             if (c)

	test	dl, dl
	setne	dil
$LN811@SubtructOn:

; 754  : }

	mov	eax, edi
	add	rsp, 504				; 000001f8H
	pop	r15
	pop	r14
	pop	r13
	pop	r12
	pop	rdi
	pop	rsi
	pop	rbx
	pop	rbp
	ret	0
SubtructOneLineX ENDP
_TEXT	ENDS
; Function compile flags: /Ogtpy
; File z:\sources\lunor\repos\rougemeilland\palmtree.math.core.implements\palmtree.math.core.implements\pmc_divrem.c
; File z:\sources\lunor\repos\rougemeilland\palmtree.math.core.implements\palmtree.math.core.implements\pmc_internal.h
; File z:\sources\lunor\repos\rougemeilland\palmtree.math.core.implements\palmtree.math.core.implements\pmc_divrem.c
; File z:\sources\lunor\repos\rougemeilland\palmtree.math.core.implements\palmtree.math.core.implements\pmc_internal.h
; File z:\sources\lunor\repos\rougemeilland\palmtree.math.core.implements\palmtree.math.core.implements\pmc_divrem.c
; File z:\sources\lunor\repos\rougemeilland\palmtree.math.core.implements\palmtree.math.core.implements\pmc_internal.h
; File z:\sources\lunor\repos\rougemeilland\palmtree.math.core.implements\palmtree.math.core.implements\pmc_divrem.c
; File z:\sources\lunor\repos\rougemeilland\palmtree.math.core.implements\palmtree.math.core.implements\pmc_internal.h
; File z:\sources\lunor\repos\rougemeilland\palmtree.math.core.implements\palmtree.math.core.implements\pmc_divrem.c
; File z:\sources\lunor\repos\rougemeilland\palmtree.math.core.implements\palmtree.math.core.implements\pmc_internal.h
; File z:\sources\lunor\repos\rougemeilland\palmtree.math.core.implements\palmtree.math.core.implements\pmc_divrem.c
; File z:\sources\lunor\repos\rougemeilland\palmtree.math.core.implements\palmtree.math.core.implements\pmc_internal.h
; File z:\sources\lunor\repos\rougemeilland\palmtree.math.core.implements\palmtree.math.core.implements\pmc_divrem.c
; File z:\sources\lunor\repos\rougemeilland\palmtree.math.core.implements\palmtree.math.core.implements\pmc_internal.h
; File z:\sources\lunor\repos\rougemeilland\palmtree.math.core.implements\palmtree.math.core.implements\pmc_divrem.c
; File z:\sources\lunor\repos\rougemeilland\palmtree.math.core.implements\palmtree.math.core.implements\pmc_internal.h
; File z:\sources\lunor\repos\rougemeilland\palmtree.math.core.implements\palmtree.math.core.implements\pmc_divrem.c
; File z:\sources\lunor\repos\rougemeilland\palmtree.math.core.implements\palmtree.math.core.implements\pmc_internal.h
; File z:\sources\lunor\repos\rougemeilland\palmtree.math.core.implements\palmtree.math.core.implements\pmc_divrem.c
; File z:\sources\lunor\repos\rougemeilland\palmtree.math.core.implements\palmtree.math.core.implements\pmc_internal.h
; File z:\sources\lunor\repos\rougemeilland\palmtree.math.core.implements\palmtree.math.core.implements\pmc_divrem.c
; File z:\sources\lunor\repos\rougemeilland\palmtree.math.core.implements\palmtree.math.core.implements\pmc_internal.h
; File z:\sources\lunor\repos\rougemeilland\palmtree.math.core.implements\palmtree.math.core.implements\pmc_divrem.c
; File z:\sources\lunor\repos\rougemeilland\palmtree.math.core.implements\palmtree.math.core.implements\pmc_internal.h
; File z:\sources\lunor\repos\rougemeilland\palmtree.math.core.implements\palmtree.math.core.implements\pmc_divrem.c
; File z:\sources\lunor\repos\rougemeilland\palmtree.math.core.implements\palmtree.math.core.implements\pmc_internal.h
; File z:\sources\lunor\repos\rougemeilland\palmtree.math.core.implements\palmtree.math.core.implements\pmc_divrem.c
; File z:\sources\lunor\repos\rougemeilland\palmtree.math.core.implements\palmtree.math.core.implements\pmc_internal.h
; File z:\sources\lunor\repos\rougemeilland\palmtree.math.core.implements\palmtree.math.core.implements\pmc_divrem.c
; File z:\sources\lunor\repos\rougemeilland\palmtree.math.core.implements\palmtree.math.core.implements\pmc_internal.h
; File z:\sources\lunor\repos\rougemeilland\palmtree.math.core.implements\palmtree.math.core.implements\pmc_divrem.c
; File z:\sources\lunor\repos\rougemeilland\palmtree.math.core.implements\palmtree.math.core.implements\pmc_internal.h
; File z:\sources\lunor\repos\rougemeilland\palmtree.math.core.implements\palmtree.math.core.implements\pmc_divrem.c
; File z:\sources\lunor\repos\rougemeilland\palmtree.math.core.implements\palmtree.math.core.implements\pmc_internal.h
; File z:\sources\lunor\repos\rougemeilland\palmtree.math.core.implements\palmtree.math.core.implements\pmc_divrem.c
; File z:\sources\lunor\repos\rougemeilland\palmtree.math.core.implements\palmtree.math.core.implements\pmc_internal.h
; File z:\sources\lunor\repos\rougemeilland\palmtree.math.core.implements\palmtree.math.core.implements\pmc_divrem.c
; File z:\sources\lunor\repos\rougemeilland\palmtree.math.core.implements\palmtree.math.core.implements\pmc_internal.h
; File z:\sources\lunor\repos\rougemeilland\palmtree.math.core.implements\palmtree.math.core.implements\pmc_divrem.c
; File z:\sources\lunor\repos\rougemeilland\palmtree.math.core.implements\palmtree.math.core.implements\pmc_internal.h
; File z:\sources\lunor\repos\rougemeilland\palmtree.math.core.implements\palmtree.math.core.implements\pmc_divrem.c
; File z:\sources\lunor\repos\rougemeilland\palmtree.math.core.implements\palmtree.math.core.implements\pmc_internal.h
; File z:\sources\lunor\repos\rougemeilland\palmtree.math.core.implements\palmtree.math.core.implements\pmc_divrem.c
; File z:\sources\lunor\repos\rougemeilland\palmtree.math.core.implements\palmtree.math.core.implements\pmc_internal.h
; File z:\sources\lunor\repos\rougemeilland\palmtree.math.core.implements\palmtree.math.core.implements\pmc_divrem.c
; File z:\sources\lunor\repos\rougemeilland\palmtree.math.core.implements\palmtree.math.core.implements\pmc_internal.h
; File z:\sources\lunor\repos\rougemeilland\palmtree.math.core.implements\palmtree.math.core.implements\pmc_divrem.c
; File z:\sources\lunor\repos\rougemeilland\palmtree.math.core.implements\palmtree.math.core.implements\pmc_internal.h
; File z:\sources\lunor\repos\rougemeilland\palmtree.math.core.implements\palmtree.math.core.implements\pmc_divrem.c
; File z:\sources\lunor\repos\rougemeilland\palmtree.math.core.implements\palmtree.math.core.implements\pmc_internal.h
; File z:\sources\lunor\repos\rougemeilland\palmtree.math.core.implements\palmtree.math.core.implements\pmc_divrem.c
; File z:\sources\lunor\repos\rougemeilland\palmtree.math.core.implements\palmtree.math.core.implements\pmc_internal.h
; File z:\sources\lunor\repos\rougemeilland\palmtree.math.core.implements\palmtree.math.core.implements\pmc_divrem.c
; File z:\sources\lunor\repos\rougemeilland\palmtree.math.core.implements\palmtree.math.core.implements\pmc_internal.h
; File z:\sources\lunor\repos\rougemeilland\palmtree.math.core.implements\palmtree.math.core.implements\pmc_divrem.c
; File z:\sources\lunor\repos\rougemeilland\palmtree.math.core.implements\palmtree.math.core.implements\pmc_internal.h
; File z:\sources\lunor\repos\rougemeilland\palmtree.math.core.implements\palmtree.math.core.implements\pmc_divrem.c
; File z:\sources\lunor\repos\rougemeilland\palmtree.math.core.implements\palmtree.math.core.implements\pmc_internal.h
; File z:\sources\lunor\repos\rougemeilland\palmtree.math.core.implements\palmtree.math.core.implements\pmc_divrem.c
; File z:\sources\lunor\repos\rougemeilland\palmtree.math.core.implements\palmtree.math.core.implements\pmc_internal.h
; File z:\sources\lunor\repos\rougemeilland\palmtree.math.core.implements\palmtree.math.core.implements\pmc_divrem.c
; File z:\sources\lunor\repos\rougemeilland\palmtree.math.core.implements\palmtree.math.core.implements\pmc_internal.h
; File z:\sources\lunor\repos\rougemeilland\palmtree.math.core.implements\palmtree.math.core.implements\pmc_divrem.c
; File z:\sources\lunor\repos\rougemeilland\palmtree.math.core.implements\palmtree.math.core.implements\pmc_internal.h
; File z:\sources\lunor\repos\rougemeilland\palmtree.math.core.implements\palmtree.math.core.implements\pmc_divrem.c
; File z:\sources\lunor\repos\rougemeilland\palmtree.math.core.implements\palmtree.math.core.implements\pmc_internal.h
; File z:\sources\lunor\repos\rougemeilland\palmtree.math.core.implements\palmtree.math.core.implements\pmc_divrem.c
; File z:\sources\lunor\repos\rougemeilland\palmtree.math.core.implements\palmtree.math.core.implements\pmc_internal.h
; File z:\sources\lunor\repos\rougemeilland\palmtree.math.core.implements\palmtree.math.core.implements\pmc_divrem.c
; File z:\sources\lunor\repos\rougemeilland\palmtree.math.core.implements\palmtree.math.core.implements\pmc_internal.h
; File z:\sources\lunor\repos\rougemeilland\palmtree.math.core.implements\palmtree.math.core.implements\pmc_divrem.c
; File z:\sources\lunor\repos\rougemeilland\palmtree.math.core.implements\palmtree.math.core.implements\pmc_internal.h
; File z:\sources\lunor\repos\rougemeilland\palmtree.math.core.implements\palmtree.math.core.implements\pmc_divrem.c
; File z:\sources\lunor\repos\rougemeilland\palmtree.math.core.implements\palmtree.math.core.implements\pmc_internal.h
; File z:\sources\lunor\repos\rougemeilland\palmtree.math.core.implements\palmtree.math.core.implements\pmc_divrem.c
; File z:\sources\lunor\repos\rougemeilland\palmtree.math.core.implements\palmtree.math.core.implements\pmc_internal.h
; File z:\sources\lunor\repos\rougemeilland\palmtree.math.core.implements\palmtree.math.core.implements\pmc_divrem.c
; File z:\sources\lunor\repos\rougemeilland\palmtree.math.core.implements\palmtree.math.core.implements\pmc_internal.h
; File z:\sources\lunor\repos\rougemeilland\palmtree.math.core.implements\palmtree.math.core.implements\pmc_divrem.c
; File z:\sources\lunor\repos\rougemeilland\palmtree.math.core.implements\palmtree.math.core.implements\pmc_internal.h
; File z:\sources\lunor\repos\rougemeilland\palmtree.math.core.implements\palmtree.math.core.implements\pmc_divrem.c
; File z:\sources\lunor\repos\rougemeilland\palmtree.math.core.implements\palmtree.math.core.implements\pmc_internal.h
; File z:\sources\lunor\repos\rougemeilland\palmtree.math.core.implements\palmtree.math.core.implements\pmc_divrem.c
; File z:\sources\lunor\repos\rougemeilland\palmtree.math.core.implements\palmtree.math.core.implements\pmc_internal.h
; File z:\sources\lunor\repos\rougemeilland\palmtree.math.core.implements\palmtree.math.core.implements\pmc_divrem.c
; File z:\sources\lunor\repos\rougemeilland\palmtree.math.core.implements\palmtree.math.core.implements\pmc_internal.h
; File z:\sources\lunor\repos\rougemeilland\palmtree.math.core.implements\palmtree.math.core.implements\pmc_divrem.c
; File z:\sources\lunor\repos\rougemeilland\palmtree.math.core.implements\palmtree.math.core.implements\pmc_internal.h
; File z:\sources\lunor\repos\rougemeilland\palmtree.math.core.implements\palmtree.math.core.implements\pmc_divrem.c
; File z:\sources\lunor\repos\rougemeilland\palmtree.math.core.implements\palmtree.math.core.implements\pmc_internal.h
; File z:\sources\lunor\repos\rougemeilland\palmtree.math.core.implements\palmtree.math.core.implements\pmc_divrem.c
; File z:\sources\lunor\repos\rougemeilland\palmtree.math.core.implements\palmtree.math.core.implements\pmc_internal.h
; File z:\sources\lunor\repos\rougemeilland\palmtree.math.core.implements\palmtree.math.core.implements\pmc_divrem.c
; File z:\sources\lunor\repos\rougemeilland\palmtree.math.core.implements\palmtree.math.core.implements\pmc_internal.h
; File z:\sources\lunor\repos\rougemeilland\palmtree.math.core.implements\palmtree.math.core.implements\pmc_divrem.c
; File z:\sources\lunor\repos\rougemeilland\palmtree.math.core.implements\palmtree.math.core.implements\pmc_internal.h
; File z:\sources\lunor\repos\rougemeilland\palmtree.math.core.implements\palmtree.math.core.implements\pmc_divrem.c
; File z:\sources\lunor\repos\rougemeilland\palmtree.math.core.implements\palmtree.math.core.implements\pmc_internal.h
; File z:\sources\lunor\repos\rougemeilland\palmtree.math.core.implements\palmtree.math.core.implements\pmc_divrem.c
; File z:\sources\lunor\repos\rougemeilland\palmtree.math.core.implements\palmtree.math.core.implements\pmc_internal.h
; File z:\sources\lunor\repos\rougemeilland\palmtree.math.core.implements\palmtree.math.core.implements\pmc_divrem.c
; File z:\sources\lunor\repos\rougemeilland\palmtree.math.core.implements\palmtree.math.core.implements\pmc_internal.h
; File z:\sources\lunor\repos\rougemeilland\palmtree.math.core.implements\palmtree.math.core.implements\pmc_divrem.c
; File z:\sources\lunor\repos\rougemeilland\palmtree.math.core.implements\palmtree.math.core.implements\pmc_internal.h
; File z:\sources\lunor\repos\rougemeilland\palmtree.math.core.implements\palmtree.math.core.implements\pmc_divrem.c
; File z:\sources\lunor\repos\rougemeilland\palmtree.math.core.implements\palmtree.math.core.implements\pmc_internal.h
; File z:\sources\lunor\repos\rougemeilland\palmtree.math.core.implements\palmtree.math.core.implements\pmc_divrem.c
; File z:\sources\lunor\repos\rougemeilland\palmtree.math.core.implements\palmtree.math.core.implements\pmc_internal.h
; File z:\sources\lunor\repos\rougemeilland\palmtree.math.core.implements\palmtree.math.core.implements\pmc_divrem.c
; File z:\sources\lunor\repos\rougemeilland\palmtree.math.core.implements\palmtree.math.core.implements\pmc_internal.h
; File z:\sources\lunor\repos\rougemeilland\palmtree.math.core.implements\palmtree.math.core.implements\pmc_divrem.c
; File z:\sources\lunor\repos\rougemeilland\palmtree.math.core.implements\palmtree.math.core.implements\pmc_internal.h
; File z:\sources\lunor\repos\rougemeilland\palmtree.math.core.implements\palmtree.math.core.implements\pmc_divrem.c
; File z:\sources\lunor\repos\rougemeilland\palmtree.math.core.implements\palmtree.math.core.implements\pmc_internal.h
; File z:\sources\lunor\repos\rougemeilland\palmtree.math.core.implements\palmtree.math.core.implements\pmc_divrem.c
; File z:\sources\lunor\repos\rougemeilland\palmtree.math.core.implements\palmtree.math.core.implements\pmc_internal.h
; File z:\sources\lunor\repos\rougemeilland\palmtree.math.core.implements\palmtree.math.core.implements\pmc_divrem.c
; File z:\sources\lunor\repos\rougemeilland\palmtree.math.core.implements\palmtree.math.core.implements\pmc_internal.h
; File z:\sources\lunor\repos\rougemeilland\palmtree.math.core.implements\palmtree.math.core.implements\pmc_divrem.c
; File z:\sources\lunor\repos\rougemeilland\palmtree.math.core.implements\palmtree.math.core.implements\pmc_internal.h
; File z:\sources\lunor\repos\rougemeilland\palmtree.math.core.implements\palmtree.math.core.implements\pmc_divrem.c
; File z:\sources\lunor\repos\rougemeilland\palmtree.math.core.implements\palmtree.math.core.implements\pmc_internal.h
; File z:\sources\lunor\repos\rougemeilland\palmtree.math.core.implements\palmtree.math.core.implements\pmc_divrem.c
; File z:\sources\lunor\repos\rougemeilland\palmtree.math.core.implements\palmtree.math.core.implements\pmc_internal.h
; File z:\sources\lunor\repos\rougemeilland\palmtree.math.core.implements\palmtree.math.core.implements\pmc_divrem.c
; File z:\sources\lunor\repos\rougemeilland\palmtree.math.core.implements\palmtree.math.core.implements\pmc_internal.h
; File z:\sources\lunor\repos\rougemeilland\palmtree.math.core.implements\palmtree.math.core.implements\pmc_divrem.c
; File z:\sources\lunor\repos\rougemeilland\palmtree.math.core.implements\palmtree.math.core.implements\pmc_internal.h
; File z:\sources\lunor\repos\rougemeilland\palmtree.math.core.implements\palmtree.math.core.implements\pmc_divrem.c
; File z:\sources\lunor\repos\rougemeilland\palmtree.math.core.implements\palmtree.math.core.implements\pmc_internal.h
; File z:\sources\lunor\repos\rougemeilland\palmtree.math.core.implements\palmtree.math.core.implements\pmc_divrem.c
; File z:\sources\lunor\repos\rougemeilland\palmtree.math.core.implements\palmtree.math.core.implements\pmc_internal.h
; File z:\sources\lunor\repos\rougemeilland\palmtree.math.core.implements\palmtree.math.core.implements\pmc_divrem.c
; File z:\sources\lunor\repos\rougemeilland\palmtree.math.core.implements\palmtree.math.core.implements\pmc_internal.h
; File z:\sources\lunor\repos\rougemeilland\palmtree.math.core.implements\palmtree.math.core.implements\pmc_divrem.c
; File z:\sources\lunor\repos\rougemeilland\palmtree.math.core.implements\palmtree.math.core.implements\pmc_internal.h
; File z:\sources\lunor\repos\rougemeilland\palmtree.math.core.implements\palmtree.math.core.implements\pmc_divrem.c
; File z:\sources\lunor\repos\rougemeilland\palmtree.math.core.implements\palmtree.math.core.implements\pmc_internal.h
; File z:\sources\lunor\repos\rougemeilland\palmtree.math.core.implements\palmtree.math.core.implements\pmc_divrem.c
; File z:\sources\lunor\repos\rougemeilland\palmtree.math.core.implements\palmtree.math.core.implements\pmc_internal.h
; File z:\sources\lunor\repos\rougemeilland\palmtree.math.core.implements\palmtree.math.core.implements\pmc_divrem.c
; File z:\sources\lunor\repos\rougemeilland\palmtree.math.core.implements\palmtree.math.core.implements\pmc_internal.h
; File z:\sources\lunor\repos\rougemeilland\palmtree.math.core.implements\palmtree.math.core.implements\pmc_divrem.c
; File z:\sources\lunor\repos\rougemeilland\palmtree.math.core.implements\palmtree.math.core.implements\pmc_internal.h
; File z:\sources\lunor\repos\rougemeilland\palmtree.math.core.implements\palmtree.math.core.implements\pmc_divrem.c
; File z:\sources\lunor\repos\rougemeilland\palmtree.math.core.implements\palmtree.math.core.implements\pmc_internal.h
; File z:\sources\lunor\repos\rougemeilland\palmtree.math.core.implements\palmtree.math.core.implements\pmc_divrem.c
; File z:\sources\lunor\repos\rougemeilland\palmtree.math.core.implements\palmtree.math.core.implements\pmc_internal.h
; File z:\sources\lunor\repos\rougemeilland\palmtree.math.core.implements\palmtree.math.core.implements\pmc_divrem.c
; File z:\sources\lunor\repos\rougemeilland\palmtree.math.core.implements\palmtree.math.core.implements\pmc_internal.h
; File z:\sources\lunor\repos\rougemeilland\palmtree.math.core.implements\palmtree.math.core.implements\pmc_divrem.c
; File z:\sources\lunor\repos\rougemeilland\palmtree.math.core.implements\palmtree.math.core.implements\pmc_internal.h
; File z:\sources\lunor\repos\rougemeilland\palmtree.math.core.implements\palmtree.math.core.implements\pmc_divrem.c
; File z:\sources\lunor\repos\rougemeilland\palmtree.math.core.implements\palmtree.math.core.implements\pmc_internal.h
; File z:\sources\lunor\repos\rougemeilland\palmtree.math.core.implements\palmtree.math.core.implements\pmc_divrem.c
; File z:\sources\lunor\repos\rougemeilland\palmtree.math.core.implements\palmtree.math.core.implements\pmc_internal.h
; File z:\sources\lunor\repos\rougemeilland\palmtree.math.core.implements\palmtree.math.core.implements\pmc_divrem.c
; File z:\sources\lunor\repos\rougemeilland\palmtree.math.core.implements\palmtree.math.core.implements\pmc_internal.h
; File z:\sources\lunor\repos\rougemeilland\palmtree.math.core.implements\palmtree.math.core.implements\pmc_divrem.c
; File z:\sources\lunor\repos\rougemeilland\palmtree.math.core.implements\palmtree.math.core.implements\pmc_internal.h
; File z:\sources\lunor\repos\rougemeilland\palmtree.math.core.implements\palmtree.math.core.implements\pmc_divrem.c
; File z:\sources\lunor\repos\rougemeilland\palmtree.math.core.implements\palmtree.math.core.implements\pmc_internal.h
; File z:\sources\lunor\repos\rougemeilland\palmtree.math.core.implements\palmtree.math.core.implements\pmc_divrem.c
; File z:\sources\lunor\repos\rougemeilland\palmtree.math.core.implements\palmtree.math.core.implements\pmc_internal.h
; File z:\sources\lunor\repos\rougemeilland\palmtree.math.core.implements\palmtree.math.core.implements\pmc_divrem.c
;	COMDAT SubtructOneLine
_TEXT	SEGMENT
t_lo$1 = 0
t_lo$2 = 4
t_lo$3 = 8
t_lo$4 = 12
t_lo$5 = 16
t_lo$6 = 20
t_lo$7 = 24
t_lo$8 = 28
t_lo$9 = 32
t_lo$10 = 36
t_lo$11 = 40
t_lo$12 = 44
t_lo$13 = 48
t_lo$14 = 52
t_lo$15 = 56
t_lo$16 = 60
t_lo$17 = 64
t_lo$18 = 68
t_lo$19 = 72
t_lo$20 = 76
t_lo$21 = 80
t_lo$22 = 84
t_lo$23 = 88
t_lo$24 = 92
t_hi$25 = 96
t_hi$26 = 100
t_hi$27 = 104
t_hi$28 = 108
t_hi$29 = 112
t_hi$30 = 116
t_hi$31 = 120
t_lo$32 = 124
t_hi$33 = 128
t_lo$34 = 132
t_hi$35 = 136
t_lo$36 = 140
t_hi$37 = 144
t_lo$38 = 148
t_hi$39 = 152
t_lo$40 = 156
t_hi$41 = 160
t_lo$42 = 164
t_hi$43 = 168
t_lo$44 = 172
t_hi$45 = 176
t_lo$46 = 180
t_hi$47 = 184
t_lo$48 = 188
t_hi$49 = 192
t_lo$50 = 196
t_hi$51 = 200
t_lo$52 = 204
t_hi$53 = 208
t_lo$54 = 212
t_hi$55 = 216
t_lo$56 = 220
t_hi$57 = 224
t_lo$58 = 228
t_hi$59 = 232
t_lo$60 = 236
t_hi$61 = 240
t_lo$62 = 244
t_hi$63 = 248
t_lo$64 = 252
t_hi$65 = 256
t_lo$66 = 260
t_hi$67 = 264
t_lo$68 = 268
t_hi$69 = 272
t_lo$70 = 276
t_hi$71 = 280
t_lo$72 = 284
t_hi$73 = 288
t_lo$74 = 292
t_hi$75 = 296
t_lo$76 = 300
t_hi$77 = 304
t_lo$78 = 308
t_hi$79 = 312
t_lo$80 = 316
t_hi$81 = 320
t_hi$82 = 324
t_hi$83 = 328
t_hi$84 = 332
t_hi$85 = 336
t_hi$86 = 340
t_hi$87 = 344
t_hi$88 = 348
t_lo$89 = 352
t_hi$90 = 356
t_lo$91 = 360
t_hi$92 = 364
t_lo$93 = 368
t_hi$94 = 372
t_lo$95 = 376
t_hi$96 = 380
t_lo$97 = 384
t_hi$98 = 388
t_lo$99 = 392
t_hi$100 = 396
t_lo$101 = 400
t_hi$102 = 404
t_lo$103 = 408
t_hi$104 = 412
t_lo$105 = 416
t_hi$106 = 420
t_hi$107 = 424
t_hi$108 = 428
t_hi$109 = 432
t_hi$110 = 436
t_hi$111 = 440
t_hi$112 = 444
t_hi$113 = 448
t_lo$114 = 452
t_hi$115 = 456
t_hi$116 = 460
t_hi$117 = 464
t_hi$118 = 468
t_hi$119 = 472
t_hi$120 = 476
t_hi$121 = 480
t_hi$122 = 484
t_lo$123 = 576
u_buf$ = 576
u_buf_len$ = 584
t_lo$124 = 592
v_buf$ = 592
t_lo$125 = 600
v_buf_len$ = 600
t_lo$126 = 608
q_index$ = 608
q_$ = 616
SubtructOneLine PROC					; COMDAT

; 453  : {

	mov	QWORD PTR [rsp+16], rdx
	push	rbp
	push	rbx
	push	rsi
	push	rdi
	push	r12
	push	r13
	push	r14
	push	r15
	lea	rbp, QWORD PTR [rsp-248]
	sub	rsp, 504				; 000001f8H

; 454  :     __UNIT_TYPE_DIV* u_ptr = &u_buf[q_index];

	mov	rax, QWORD PTR q_index$[rbp-256]

; 455  :     __UNIT_TYPE_DIV* v_ptr = &v_buf[0];
; 456  :     __UNIT_TYPE v_count = v_buf_len;
; 457  :     __UNIT_TYPE_DIV k = 0;

	xor	r15d, r15d
	mov	edi, DWORD PTR q_$[rbp-256]

; 458  :     char c = 0;
; 459  : 
; 460  :     __UNIT_TYPE count = v_count >> 5;

	mov	r12, r9
	xor	r11b, r11b
	shr	r12, 5
	mov	r14, r9
	mov	rbx, r8
	lea	rax, QWORD PTR [rax*4]
	mov	r13, rcx
	add	rax, rcx
	mov	esi, r15d

; 461  :     while (count != 0)

	test	r12, r12
	je	$LN821@SubtructOn
	npad	6
$LL2@SubtructOn:
; File z:\sources\lunor\repos\rougemeilland\palmtree.math.core.implements\palmtree.math.core.implements\pmc_internal.h

; 594  :     return (_FROMDWORDTOWORD((_UINT64_T)u * v, w_hi));

	mov	edx, DWORD PTR [rbx]
; File z:\sources\lunor\repos\rougemeilland\palmtree.math.core.implements\palmtree.math.core.implements\pmc_divrem.c

; 436  :     c = _SUBTRUCT_UNIT_DIV(c, *up, t_lo, up);

	mov	ecx, DWORD PTR [rax]
; File z:\sources\lunor\repos\rougemeilland\palmtree.math.core.implements\palmtree.math.core.implements\pmc_internal.h

; 594  :     return (_FROMDWORDTOWORD((_UINT64_T)u * v, w_hi));

	imul	rdx, rdi

; 459  :     *result_high = (_UINT32_T)(value >> 32);

	mov	r9, rdx
	shr	r9, 32					; 00000020H

; 502  :     return (_addcarry_u32(carry, u, v, w));

	add	edx, esi
	mov	DWORD PTR t_lo$126[rbp-256], edx
	adc	r9d, r15d

; 558  :     return (_subborrow_u32(borrow, u, v, w));

	add	r11b, -1

; 502  :     return (_addcarry_u32(carry, u, v, w));

	mov	DWORD PTR t_hi$25[rsp], r9d

; 558  :     return (_subborrow_u32(borrow, u, v, w));

	sbb	ecx, edx
	mov	DWORD PTR [rax], ecx

; 594  :     return (_FROMDWORDTOWORD((_UINT64_T)u * v, w_hi));

	mov	edx, DWORD PTR [rbx+4]

; 558  :     return (_subborrow_u32(borrow, u, v, w));

	setb	r8b
; File z:\sources\lunor\repos\rougemeilland\palmtree.math.core.implements\palmtree.math.core.implements\pmc_divrem.c

; 436  :     c = _SUBTRUCT_UNIT_DIV(c, *up, t_lo, up);

	mov	ecx, DWORD PTR [rax+4]
; File z:\sources\lunor\repos\rougemeilland\palmtree.math.core.implements\palmtree.math.core.implements\pmc_internal.h

; 594  :     return (_FROMDWORDTOWORD((_UINT64_T)u * v, w_hi));

	imul	rdx, rdi

; 459  :     *result_high = (_UINT32_T)(value >> 32);

	mov	r10, rdx
	shr	r10, 32					; 00000020H

; 502  :     return (_addcarry_u32(carry, u, v, w));

	add	edx, r9d
	mov	DWORD PTR t_lo$123[rbp-256], edx
	adc	r10d, r15d

; 558  :     return (_subborrow_u32(borrow, u, v, w));

	add	r8b, -1

; 502  :     return (_addcarry_u32(carry, u, v, w));

	mov	DWORD PTR t_hi$26[rsp], r10d

; 558  :     return (_subborrow_u32(borrow, u, v, w));

	sbb	ecx, edx
	mov	DWORD PTR [rax+4], ecx

; 594  :     return (_FROMDWORDTOWORD((_UINT64_T)u * v, w_hi));

	mov	edx, DWORD PTR [rbx+8]

; 558  :     return (_subborrow_u32(borrow, u, v, w));

	setb	r8b
; File z:\sources\lunor\repos\rougemeilland\palmtree.math.core.implements\palmtree.math.core.implements\pmc_divrem.c

; 436  :     c = _SUBTRUCT_UNIT_DIV(c, *up, t_lo, up);

	mov	ecx, DWORD PTR [rax+8]
; File z:\sources\lunor\repos\rougemeilland\palmtree.math.core.implements\palmtree.math.core.implements\pmc_internal.h

; 594  :     return (_FROMDWORDTOWORD((_UINT64_T)u * v, w_hi));

	imul	rdx, rdi

; 459  :     *result_high = (_UINT32_T)(value >> 32);

	mov	r9, rdx
	shr	r9, 32					; 00000020H

; 502  :     return (_addcarry_u32(carry, u, v, w));

	add	edx, r10d
	mov	DWORD PTR t_lo$124[rbp-256], edx
	adc	r9d, r15d

; 558  :     return (_subborrow_u32(borrow, u, v, w));

	add	r8b, -1

; 502  :     return (_addcarry_u32(carry, u, v, w));

	mov	DWORD PTR t_hi$27[rsp], r9d

; 558  :     return (_subborrow_u32(borrow, u, v, w));

	sbb	ecx, edx
	mov	DWORD PTR [rax+8], ecx

; 594  :     return (_FROMDWORDTOWORD((_UINT64_T)u * v, w_hi));

	mov	edx, DWORD PTR [rbx+12]

; 558  :     return (_subborrow_u32(borrow, u, v, w));

	setb	r8b
; File z:\sources\lunor\repos\rougemeilland\palmtree.math.core.implements\palmtree.math.core.implements\pmc_divrem.c

; 436  :     c = _SUBTRUCT_UNIT_DIV(c, *up, t_lo, up);

	mov	ecx, DWORD PTR [rax+12]
; File z:\sources\lunor\repos\rougemeilland\palmtree.math.core.implements\palmtree.math.core.implements\pmc_internal.h

; 594  :     return (_FROMDWORDTOWORD((_UINT64_T)u * v, w_hi));

	imul	rdx, rdi

; 459  :     *result_high = (_UINT32_T)(value >> 32);

	mov	r10, rdx
	shr	r10, 32					; 00000020H

; 502  :     return (_addcarry_u32(carry, u, v, w));

	add	edx, r9d
	mov	DWORD PTR t_lo$125[rbp-256], edx
	adc	r10d, r15d

; 558  :     return (_subborrow_u32(borrow, u, v, w));

	add	r8b, -1

; 502  :     return (_addcarry_u32(carry, u, v, w));

	mov	DWORD PTR t_hi$28[rsp], r10d

; 558  :     return (_subborrow_u32(borrow, u, v, w));

	sbb	ecx, edx
	mov	DWORD PTR [rax+12], ecx

; 594  :     return (_FROMDWORDTOWORD((_UINT64_T)u * v, w_hi));

	mov	edx, DWORD PTR [rbx+16]

; 558  :     return (_subborrow_u32(borrow, u, v, w));

	setb	r8b
; File z:\sources\lunor\repos\rougemeilland\palmtree.math.core.implements\palmtree.math.core.implements\pmc_divrem.c

; 436  :     c = _SUBTRUCT_UNIT_DIV(c, *up, t_lo, up);

	mov	ecx, DWORD PTR [rax+16]
; File z:\sources\lunor\repos\rougemeilland\palmtree.math.core.implements\palmtree.math.core.implements\pmc_internal.h

; 594  :     return (_FROMDWORDTOWORD((_UINT64_T)u * v, w_hi));

	imul	rdx, rdi

; 459  :     *result_high = (_UINT32_T)(value >> 32);

	mov	r9, rdx
	shr	r9, 32					; 00000020H

; 502  :     return (_addcarry_u32(carry, u, v, w));

	add	edx, r10d
	mov	DWORD PTR t_lo$1[rsp], edx
	adc	r9d, r15d

; 558  :     return (_subborrow_u32(borrow, u, v, w));

	add	r8b, -1

; 502  :     return (_addcarry_u32(carry, u, v, w));

	mov	DWORD PTR t_hi$29[rsp], r9d

; 558  :     return (_subborrow_u32(borrow, u, v, w));

	sbb	ecx, edx
	mov	DWORD PTR [rax+16], ecx

; 594  :     return (_FROMDWORDTOWORD((_UINT64_T)u * v, w_hi));

	mov	edx, DWORD PTR [rbx+20]

; 558  :     return (_subborrow_u32(borrow, u, v, w));

	setb	r8b
; File z:\sources\lunor\repos\rougemeilland\palmtree.math.core.implements\palmtree.math.core.implements\pmc_divrem.c

; 436  :     c = _SUBTRUCT_UNIT_DIV(c, *up, t_lo, up);

	mov	ecx, DWORD PTR [rax+20]
; File z:\sources\lunor\repos\rougemeilland\palmtree.math.core.implements\palmtree.math.core.implements\pmc_internal.h

; 594  :     return (_FROMDWORDTOWORD((_UINT64_T)u * v, w_hi));

	imul	rdx, rdi

; 459  :     *result_high = (_UINT32_T)(value >> 32);

	mov	r11, rdx
	shr	r11, 32					; 00000020H

; 502  :     return (_addcarry_u32(carry, u, v, w));

	add	edx, r9d
	mov	DWORD PTR t_lo$2[rsp], edx
	adc	r11d, r15d

; 558  :     return (_subborrow_u32(borrow, u, v, w));

	add	r8b, -1

; 502  :     return (_addcarry_u32(carry, u, v, w));

	mov	DWORD PTR t_hi$30[rsp], r11d

; 558  :     return (_subborrow_u32(borrow, u, v, w));

	sbb	ecx, edx
	mov	DWORD PTR [rax+20], ecx

; 594  :     return (_FROMDWORDTOWORD((_UINT64_T)u * v, w_hi));

	mov	edx, DWORD PTR [rbx+24]

; 558  :     return (_subborrow_u32(borrow, u, v, w));

	setb	r8b

; 594  :     return (_FROMDWORDTOWORD((_UINT64_T)u * v, w_hi));

	imul	rdx, rdi

; 459  :     *result_high = (_UINT32_T)(value >> 32);

	mov	r10, rdx
