; Listing generated by Microsoft (R) Optimizing Compiler Version 19.16.27026.1 

include listing.inc

INCLUDELIB MSVCRT
INCLUDELIB OLDNAMES

PUBLIC	TEST_PMC_Add_X_I
PUBLIC	TEST_PMC_Add_X_L
PUBLIC	TEST_PMC_Add_X_X
PUBLIC	??_C@_0CN@LDAEIIBE@PMC_From_B?$IC?L?$JF?$JM?$ILA?$IDR?$IB?$FL?$IDh?$IC?$KK?$IK?z?$JB?R?$JC?J?$IC@ ; `string'
PUBLIC	??_C@_0BE@IHOPGPKG@PMC_Add_X_I?5?$CI?$CFd?4?$CFd?$CJ@ ; `string'
PUBLIC	??_C@_0CO@CCCFEOA@PMC_Add_X_I?$IC?L?$JF?$JM?$ILA?$IDR?$IB?$FL?$IDh?$IC?$KK?$IK?z?$JB?R?$JC?J@ ; `string'
PUBLIC	??_C@_0CN@JELPCGPD@PMC_To_X_B?$IC?L?$JF?$JM?$ILA?$IDR?$IB?$FL?$IDh?$IC?$KK?$IK?z?$JB?R?$JC?J?$IC@ ; `string'
PUBLIC	??_C@_0BJ@JGINKGIA@?$IDf?$IB?$FL?$ID?$FO?$IC?L?$JD?$OA?$JHe?$IC?$KK?$II?j?$JCv?$IC?$LF?$IC?H?$IC?$KC@ ; `string'
PUBLIC	??_C@_0BE@GBMGKEOC@PMC_Add_X_L?5?$CI?$CFd?4?$CFd?$CJ@ ; `string'
PUBLIC	??_C@_0CO@KPACNIOC@PMC_Add_X_L?$IC?L?$JF?$JM?$ILA?$IDR?$IB?$FL?$IDh?$IC?$KK?$IK?z?$JB?R?$JC?J@ ; `string'
PUBLIC	??_C@_0BE@EPIDIFHA@PMC_Add_X_X?5?$CI?$CFd?4?$CFd?$CJ@ ; `string'
PUBLIC	??_C@_0CO@HGBDOCCJ@PMC_Add_X_X?$IC?L?$JF?$JM?$ILA?$IDR?$IB?$FL?$IDh?$IC?$KK?$IK?z?$JB?R?$JC?J@ ; `string'
EXTRN	TEST_Assert:PROC
EXTRN	FormatTestLabel:PROC
EXTRN	FormatTestMesssage:PROC
EXTRN	__GSHandlerCheck:PROC
EXTRN	__security_check_cookie:PROC
EXTRN	__security_cookie:QWORD
;	COMDAT pdata
pdata	SEGMENT
$pdata$TEST_PMC_Add_X_I DD imagerel $LN17
	DD	imagerel $LN17+486
	DD	imagerel $unwind$TEST_PMC_Add_X_I
pdata	ENDS
;	COMDAT pdata
pdata	SEGMENT
$pdata$TEST_PMC_Add_X_L DD imagerel $LN17
	DD	imagerel $LN17+487
	DD	imagerel $unwind$TEST_PMC_Add_X_L
pdata	ENDS
;	COMDAT pdata
pdata	SEGMENT
$pdata$TEST_PMC_Add_X_X DD imagerel $LN18
	DD	imagerel $LN18+600
	DD	imagerel $unwind$TEST_PMC_Add_X_X
pdata	ENDS
;	COMDAT ??_C@_0CO@HGBDOCCJ@PMC_Add_X_X?$IC?L?$JF?$JM?$ILA?$IDR?$IB?$FL?$IDh?$IC?$KK?$IK?z?$JB?R?$JC?J@
CONST	SEGMENT
??_C@_0CO@HGBDOCCJ@PMC_Add_X_X?$IC?L?$JF?$JM?$ILA?$IDR?$IB?$FL?$IDh?$IC?$KK?$IK?z?$JB?R?$JC?J@ DB 'P'
	DB	'MC_Add_X_X', 082H, 0ccH, 095H, 09cH, 08bH, 'A', 083H, 'R', 081H
	DB	'[', 083H, 'h', 082H, 0aaH, 08aH, 0faH, 091H, 0d2H, 092H, 0caH
	DB	082H, 0e8H, 082H, 0c5H, 082H, 0cdH, 082H, 0c8H, 082H, 0a2H, '('
	DB	'%d)', 00H					; `string'
CONST	ENDS
;	COMDAT ??_C@_0BE@EPIDIFHA@PMC_Add_X_X?5?$CI?$CFd?4?$CFd?$CJ@
CONST	SEGMENT
??_C@_0BE@EPIDIFHA@PMC_Add_X_X?5?$CI?$CFd?4?$CFd?$CJ@ DB 'PMC_Add_X_X (%d'
	DB	'.%d)', 00H					; `string'
CONST	ENDS
;	COMDAT ??_C@_0CO@KPACNIOC@PMC_Add_X_L?$IC?L?$JF?$JM?$ILA?$IDR?$IB?$FL?$IDh?$IC?$KK?$IK?z?$JB?R?$JC?J@
CONST	SEGMENT
??_C@_0CO@KPACNIOC@PMC_Add_X_L?$IC?L?$JF?$JM?$ILA?$IDR?$IB?$FL?$IDh?$IC?$KK?$IK?z?$JB?R?$JC?J@ DB 'P'
	DB	'MC_Add_X_L', 082H, 0ccH, 095H, 09cH, 08bH, 'A', 083H, 'R', 081H
	DB	'[', 083H, 'h', 082H, 0aaH, 08aH, 0faH, 091H, 0d2H, 092H, 0caH
	DB	082H, 0e8H, 082H, 0c5H, 082H, 0cdH, 082H, 0c8H, 082H, 0a2H, '('
	DB	'%d)', 00H					; `string'
CONST	ENDS
;	COMDAT ??_C@_0BE@GBMGKEOC@PMC_Add_X_L?5?$CI?$CFd?4?$CFd?$CJ@
CONST	SEGMENT
??_C@_0BE@GBMGKEOC@PMC_Add_X_L?5?$CI?$CFd?4?$CFd?$CJ@ DB 'PMC_Add_X_L (%d'
	DB	'.%d)', 00H					; `string'
CONST	ENDS
;	COMDAT ??_C@_0BJ@JGINKGIA@?$IDf?$IB?$FL?$ID?$FO?$IC?L?$JD?$OA?$JHe?$IC?$KK?$II?j?$JCv?$IC?$LF?$IC?H?$IC?$KC@
CONST	SEGMENT
??_C@_0BJ@JGINKGIA@?$IDf?$IB?$FL?$ID?$FO?$IC?L?$JD?$OA?$JHe?$IC?$KK?$II?j?$JCv?$IC?$LF?$IC?H?$IC?$KC@ DB 083H
	DB	'f', 081H, '[', 083H, '^', 082H, 0ccH, 093H, 0e0H, 097H, 'e', 082H
	DB	0aaH, 088H, 0eaH, 092H, 'v', 082H, 0b5H, 082H, 0c8H, 082H, 0a2H
	DB	00H						; `string'
CONST	ENDS
;	COMDAT ??_C@_0CN@JELPCGPD@PMC_To_X_B?$IC?L?$JF?$JM?$ILA?$IDR?$IB?$FL?$IDh?$IC?$KK?$IK?z?$JB?R?$JC?J?$IC@
CONST	SEGMENT
??_C@_0CN@JELPCGPD@PMC_To_X_B?$IC?L?$JF?$JM?$ILA?$IDR?$IB?$FL?$IDh?$IC?$KK?$IK?z?$JB?R?$JC?J?$IC@ DB 'P'
	DB	'MC_To_X_B', 082H, 0ccH, 095H, 09cH, 08bH, 'A', 083H, 'R', 081H
	DB	'[', 083H, 'h', 082H, 0aaH, 08aH, 0faH, 091H, 0d2H, 092H, 0caH
	DB	082H, 0e8H, 082H, 0c5H, 082H, 0cdH, 082H, 0c8H, 082H, 0a2H, '('
	DB	'%d)', 00H					; `string'
CONST	ENDS
;	COMDAT ??_C@_0CO@CCCFEOA@PMC_Add_X_I?$IC?L?$JF?$JM?$ILA?$IDR?$IB?$FL?$IDh?$IC?$KK?$IK?z?$JB?R?$JC?J@
CONST	SEGMENT
??_C@_0CO@CCCFEOA@PMC_Add_X_I?$IC?L?$JF?$JM?$ILA?$IDR?$IB?$FL?$IDh?$IC?$KK?$IK?z?$JB?R?$JC?J@ DB 'P'
	DB	'MC_Add_X_I', 082H, 0ccH, 095H, 09cH, 08bH, 'A', 083H, 'R', 081H
	DB	'[', 083H, 'h', 082H, 0aaH, 08aH, 0faH, 091H, 0d2H, 092H, 0caH
	DB	082H, 0e8H, 082H, 0c5H, 082H, 0cdH, 082H, 0c8H, 082H, 0a2H, '('
	DB	'%d)', 00H					; `string'
CONST	ENDS
;	COMDAT ??_C@_0BE@IHOPGPKG@PMC_Add_X_I?5?$CI?$CFd?4?$CFd?$CJ@
CONST	SEGMENT
??_C@_0BE@IHOPGPKG@PMC_Add_X_I?5?$CI?$CFd?4?$CFd?$CJ@ DB 'PMC_Add_X_I (%d'
	DB	'.%d)', 00H					; `string'
CONST	ENDS
;	COMDAT ??_C@_0CN@LDAEIIBE@PMC_From_B?$IC?L?$JF?$JM?$ILA?$IDR?$IB?$FL?$IDh?$IC?$KK?$IK?z?$JB?R?$JC?J?$IC@
CONST	SEGMENT
??_C@_0CN@LDAEIIBE@PMC_From_B?$IC?L?$JF?$JM?$ILA?$IDR?$IB?$FL?$IDh?$IC?$KK?$IK?z?$JB?R?$JC?J?$IC@ DB 'P'
	DB	'MC_From_B', 082H, 0ccH, 095H, 09cH, 08bH, 'A', 083H, 'R', 081H
	DB	'[', 083H, 'h', 082H, 0aaH, 08aH, 0faH, 091H, 0d2H, 092H, 0caH
	DB	082H, 0e8H, 082H, 0c5H, 082H, 0cdH, 082H, 0c8H, 082H, 0a2H, '('
	DB	'%d)', 00H					; `string'
CONST	ENDS
;	COMDAT xdata
xdata	SEGMENT
$unwind$TEST_PMC_Add_X_X DD 0a2619H
	DD	02d0114H
	DD	0e00bf00dH
	DD	0c007d009H
	DD	060047005H
	DD	030025003H
	DD	imagerel __GSHandlerCheck
	DD	0150H
xdata	ENDS
;	COMDAT xdata
xdata	SEGMENT
$unwind$TEST_PMC_Add_X_L DD 0a2619H
	DD	02b0114H
	DD	0e00bf00dH
	DD	0c007d009H
	DD	060047005H
	DD	030025003H
	DD	imagerel __GSHandlerCheck
	DD	0140H
xdata	ENDS
;	COMDAT xdata
xdata	SEGMENT
$unwind$TEST_PMC_Add_X_I DD 0a2619H
	DD	02b0114H
	DD	0e00bf00dH
	DD	0c007d009H
	DD	060047005H
	DD	030025003H
	DD	imagerel __GSHandlerCheck
	DD	0140H
xdata	ENDS
; Function compile flags: /Ogtpy
; File z:\sources\lunor\repos\rougemeilland\palmtree.math.core.implements\palmtree.math.core.implements\pmc_debug.h
;	COMDAT _EQUALS_MEMORY
_TEXT	SEGMENT
buffer1$ = 8
count1$ = 16
buffer2$ = 24
count2$ = 32
_EQUALS_MEMORY PROC					; COMDAT

; 103  :     if (count1 != count2)

	cmp	rdx, r9
	jne	SHORT $LN8@EQUALS_MEM

; 104  :         return (-1);
; 105  :     while (count1 > 0)

	test	rdx, rdx
	je	SHORT $LN3@EQUALS_MEM
	sub	rcx, r8
	npad	3
$LL2@EQUALS_MEM:

; 106  :     {
; 107  :         if (*buffer1 != *buffer2)

	movzx	eax, BYTE PTR [r8]
	cmp	BYTE PTR [rcx+r8], al
	jne	SHORT $LN8@EQUALS_MEM

; 109  :         ++buffer1;
; 110  :         ++buffer2;

	inc	r8

; 111  :         --count1;

	sub	rdx, 1
	jne	SHORT $LL2@EQUALS_MEM
$LN3@EQUALS_MEM:

; 112  :     }
; 113  :     return (0);

	xor	eax, eax

; 114  : }

	ret	0
$LN8@EQUALS_MEM:

; 108  :             return (-1);

	mov	eax, -1

; 114  : }

	ret	0
_EQUALS_MEMORY ENDP
_TEXT	ENDS
; Function compile flags: /Ogtpy
; File z:\sources\lunor\repos\rougemeilland\palmtree.math.core.implements\palmtree.math.core.implements\test_op_add.c
; File z:\sources\lunor\repos\rougemeilland\palmtree.math.core.implements\palmtree.math.core.implements\pmc_debug.h
; File z:\sources\lunor\repos\rougemeilland\palmtree.math.core.implements\palmtree.math.core.implements\test_op_add.c
; File z:\sources\lunor\repos\rougemeilland\palmtree.math.core.implements\palmtree.math.core.implements\pmc_debug.h
; File z:\sources\lunor\repos\rougemeilland\palmtree.math.core.implements\palmtree.math.core.implements\test_op_add.c
;	COMDAT TEST_PMC_Add_X_X
_TEXT	SEGMENT
no$GSCopy$1$ = 32
z_result$1$ = 36
z$ = 40
y$ = 48
x$ = 56
actual_z_buf_size$ = 64
actual_z_buf$ = 80
__$ArrayPad$ = 336
env$ = 432
ep$ = 440
no$ = 448
x_buf$ = 456
x_buf_size$ = 464
y_buf$ = 472
y_buf_size$ = 480
desired_z_buf$ = 488
desired_z_buf_size$ = 496
TEST_PMC_Add_X_X PROC					; COMDAT

; 76   : {

$LN18:
	push	rbx
	push	rbp
	push	rsi
	push	rdi
	push	r12
	push	r13
	push	r14
	push	r15
	sub	rsp, 360				; 00000168H
	mov	rax, QWORD PTR __security_cookie
	xor	rax, rsp
	mov	QWORD PTR __$ArrayPad$[rsp], rax
	mov	rsi, QWORD PTR y_buf$[rsp]
	mov	rbp, rdx

; 77   :     HANDLE x;
; 78   :     HANDLE y;
; 79   :     HANDLE z;
; 80   :     unsigned char actual_z_buf[256];
; 81   :     size_t actual_z_buf_size;
; 82   :     PMC_STATUS_CODE result;
; 83   :     PMC_STATUS_CODE x_result;
; 84   :     PMC_STATUS_CODE y_result;
; 85   :     PMC_STATUS_CODE z_result;
; 86   :     TEST_Assert(env, FormatTestLabel("PMC_Add_X_X (%d.%d)", no, 1), (x_result = ep->PMC_From_B(x_buf, x_buf_size, &x)) == PMC_STATUS_OK, FormatTestMesssage("PMC_From_Bの復帰コードが期待通りではない(%d)", x_result));

	mov	rdx, QWORD PTR x_buf_size$[rsp]
	mov	r12d, r8d
	mov	DWORD PTR no$GSCopy$1$[rsp], r8d
	mov	r13, rcx
	lea	r8, QWORD PTR x$[rsp]
	mov	rcx, r9
	call	QWORD PTR [rbp+32]
	mov	edx, eax
	lea	rcx, OFFSET FLAT:??_C@_0CN@LDAEIIBE@PMC_From_B?$IC?L?$JF?$JM?$ILA?$IDR?$IB?$FL?$IDh?$IC?$KK?$IK?z?$JB?R?$JC?J?$IC@
	mov	r15d, eax
	call	FormatTestMesssage
	xor	r14d, r14d
	lea	rcx, OFFSET FLAT:??_C@_0BE@EPIDIFHA@PMC_Add_X_X?5?$CI?$CFd?4?$CFd?$CJ@
	test	r15d, r15d
	mov	ebx, r14d
	mov	edx, r12d
	mov	rdi, rax
	sete	bl
	lea	r8d, QWORD PTR [r14+1]
	call	FormatTestLabel
	mov	rdx, rax
	mov	r9, rdi
	mov	r8d, ebx
	mov	rcx, r13
	call	TEST_Assert

; 87   :     TEST_Assert(env, FormatTestLabel("PMC_Add_X_X (%d.%d)", no, 2), (y_result = ep->PMC_From_B(y_buf, y_buf_size, &y)) == PMC_STATUS_OK, FormatTestMesssage("PMC_From_Bの復帰コードが期待通りではない(%d)", y_result));

	mov	rdx, QWORD PTR y_buf_size$[rsp]
	lea	r8, QWORD PTR y$[rsp]
	mov	rcx, rsi
	call	QWORD PTR [rbp+32]
	mov	edx, eax
	lea	rcx, OFFSET FLAT:??_C@_0CN@LDAEIIBE@PMC_From_B?$IC?L?$JF?$JM?$ILA?$IDR?$IB?$FL?$IDh?$IC?$KK?$IK?z?$JB?R?$JC?J?$IC@
	mov	r12d, eax
	call	FormatTestMesssage
	mov	edx, DWORD PTR no$GSCopy$1$[rsp]
	lea	r8d, QWORD PTR [r14+2]
	test	r12d, r12d
	lea	rcx, OFFSET FLAT:??_C@_0BE@EPIDIFHA@PMC_Add_X_X?5?$CI?$CFd?4?$CFd?$CJ@
	mov	edi, r14d
	mov	rbx, rax
	sete	dil
	call	FormatTestLabel
	mov	rdx, rax
	mov	r9, rbx
	mov	r8d, edi
	mov	rcx, r13
	call	TEST_Assert

; 88   :     TEST_Assert(env, FormatTestLabel("PMC_Add_X_X (%d.%d)", no, 3), (z_result = ep->PMC_Add_X_X(x, y, &z)) == PMC_STATUS_OK, FormatTestMesssage("PMC_Add_X_Xの復帰コードが期待通りではない(%d)", z_result));

	mov	rdx, QWORD PTR y$[rsp]
	lea	r8, QWORD PTR z$[rsp]
	mov	rcx, QWORD PTR x$[rsp]
	call	QWORD PTR [rbp+88]
	mov	edx, eax
	mov	DWORD PTR z_result$1$[rsp], eax
	lea	rcx, OFFSET FLAT:??_C@_0CO@HGBDOCCJ@PMC_Add_X_X?$IC?L?$JF?$JM?$ILA?$IDR?$IB?$FL?$IDh?$IC?$KK?$IK?z?$JB?R?$JC?J@
	call	FormatTestMesssage
	cmp	DWORD PTR z_result$1$[rsp], r14d
	lea	r8d, QWORD PTR [r14+3]
	mov	edx, DWORD PTR no$GSCopy$1$[rsp]
	lea	rcx, OFFSET FLAT:??_C@_0BE@EPIDIFHA@PMC_Add_X_X?5?$CI?$CFd?4?$CFd?$CJ@
	mov	edi, r14d
	mov	rbx, rax
	sete	dil
	call	FormatTestLabel
	mov	rdx, rax
	mov	r9, rbx
	mov	r8d, edi
	mov	rcx, r13
	call	TEST_Assert

; 89   :     TEST_Assert(env, FormatTestLabel("PMC_Add_X_X (%d.%d)", no, 4), (result = ep->PMC_To_X_B(z, actual_z_buf, sizeof(actual_z_buf), &actual_z_buf_size)) == PMC_STATUS_OK, FormatTestMesssage("PMC_To_X_Bの復帰コードが期待通りではない(%d)", result));

	mov	rcx, QWORD PTR z$[rsp]
	lea	r9, QWORD PTR actual_z_buf_size$[rsp]
	mov	r8d, 256				; 00000100H
	lea	rdx, QWORD PTR actual_z_buf$[rsp]
	call	QWORD PTR [rbp+64]
	mov	edx, eax
	lea	rcx, OFFSET FLAT:??_C@_0CN@JELPCGPD@PMC_To_X_B?$IC?L?$JF?$JM?$ILA?$IDR?$IB?$FL?$IDh?$IC?$KK?$IK?z?$JB?R?$JC?J?$IC@
	mov	ebx, eax
	call	FormatTestMesssage
	mov	rdi, rax
	test	ebx, ebx
	mov	esi, r14d
	mov	ebx, DWORD PTR no$GSCopy$1$[rsp]
	lea	r8d, QWORD PTR [r14+4]
	mov	edx, ebx
	lea	rcx, OFFSET FLAT:??_C@_0BE@EPIDIFHA@PMC_Add_X_X?5?$CI?$CFd?4?$CFd?$CJ@
	sete	sil
	call	FormatTestLabel
	mov	rdx, rax
	mov	r9, rdi
	mov	r8d, esi
	mov	rcx, r13
	call	TEST_Assert

; 90   :     TEST_Assert(env, FormatTestLabel("PMC_Add_X_X (%d.%d)", no, 5), _EQUALS_MEMORY(actual_z_buf, actual_z_buf_size, desired_z_buf, desired_z_buf_size) == 0, "データの内容が一致しない");

	mov	rdx, QWORD PTR actual_z_buf_size$[rsp]
	mov	rax, QWORD PTR desired_z_buf$[rsp]
	cmp	rdx, QWORD PTR desired_z_buf_size$[rsp]
; File z:\sources\lunor\repos\rougemeilland\palmtree.math.core.implements\palmtree.math.core.implements\pmc_debug.h

; 103  :     if (count1 != count2)

	je	SHORT $LN12@TEST_PMC_A
$LN13@TEST_PMC_A:
; File z:\sources\lunor\repos\rougemeilland\palmtree.math.core.implements\palmtree.math.core.implements\test_op_add.c

; 90   :     TEST_Assert(env, FormatTestLabel("PMC_Add_X_X (%d.%d)", no, 5), _EQUALS_MEMORY(actual_z_buf, actual_z_buf_size, desired_z_buf, desired_z_buf_size) == 0, "データの内容が一致しない");

	mov	eax, -1
	jmp	SHORT $LN6@TEST_PMC_A
$LN12@TEST_PMC_A:
; File z:\sources\lunor\repos\rougemeilland\palmtree.math.core.implements\palmtree.math.core.implements\pmc_debug.h

; 105  :     while (count1 > 0)

	test	rdx, rdx
	je	SHORT $LN8@TEST_PMC_A
	lea	r8, QWORD PTR actual_z_buf$[rsp]
	sub	r8, rax
$LL7@TEST_PMC_A:

; 106  :     {
; 107  :         if (*buffer1 != *buffer2)

	movzx	ecx, BYTE PTR [rax]
	cmp	BYTE PTR [r8+rax], cl
	jne	SHORT $LN13@TEST_PMC_A

; 108  :             return (-1);
; 109  :         ++buffer1;
; 110  :         ++buffer2;

	inc	rax

; 111  :         --count1;

	sub	rdx, 1
	jne	SHORT $LL7@TEST_PMC_A
$LN8@TEST_PMC_A:

; 112  :     }
; 113  :     return (0);

	mov	eax, r14d
$LN6@TEST_PMC_A:
; File z:\sources\lunor\repos\rougemeilland\palmtree.math.core.implements\palmtree.math.core.implements\test_op_add.c

; 90   :     TEST_Assert(env, FormatTestLabel("PMC_Add_X_X (%d.%d)", no, 5), _EQUALS_MEMORY(actual_z_buf, actual_z_buf_size, desired_z_buf, desired_z_buf_size) == 0, "データの内容が一致しない");

	test	eax, eax
	lea	rcx, OFFSET FLAT:??_C@_0BE@EPIDIFHA@PMC_Add_X_X?5?$CI?$CFd?4?$CFd?$CJ@
	mov	r8d, 5
	mov	edx, ebx
	sete	r14b
	call	FormatTestLabel
	mov	rdx, rax
	lea	r9, OFFSET FLAT:??_C@_0BJ@JGINKGIA@?$IDf?$IB?$FL?$ID?$FO?$IC?L?$JD?$OA?$JHe?$IC?$KK?$II?j?$JCv?$IC?$LF?$IC?H?$IC?$KC@
	mov	r8d, r14d
	mov	rcx, r13
	call	TEST_Assert

; 91   :     if (z_result == PMC_STATUS_OK)

	cmp	DWORD PTR z_result$1$[rsp], 0
	jne	SHORT $LN2@TEST_PMC_A

; 92   :         ep->PMC_Dispose(z);

	mov	rcx, QWORD PTR z$[rsp]
	call	QWORD PTR [rbp+40]
$LN2@TEST_PMC_A:

; 93   :     if (y_result == PMC_STATUS_OK)

	test	r12d, r12d
	jne	SHORT $LN3@TEST_PMC_A

; 94   :         ep->PMC_Dispose(y);

	mov	rcx, QWORD PTR y$[rsp]
	call	QWORD PTR [rbp+40]
$LN3@TEST_PMC_A:

; 95   :     if (x_result == PMC_STATUS_OK)

	test	r15d, r15d
	jne	SHORT $LN4@TEST_PMC_A

; 96   :         ep->PMC_Dispose(x);

	mov	rcx, QWORD PTR x$[rsp]
	call	QWORD PTR [rbp+40]
$LN4@TEST_PMC_A:

; 97   : }

	mov	rcx, QWORD PTR __$ArrayPad$[rsp]
	xor	rcx, rsp
	call	__security_check_cookie
	add	rsp, 360				; 00000168H
	pop	r15
	pop	r14
	pop	r13
	pop	r12
	pop	rdi
	pop	rsi
	pop	rbp
	pop	rbx
	ret	0
TEST_PMC_Add_X_X ENDP
_TEXT	ENDS
; Function compile flags: /Ogtpy
; File z:\sources\lunor\repos\rougemeilland\palmtree.math.core.implements\palmtree.math.core.implements\test_op_add.c
; File z:\sources\lunor\repos\rougemeilland\palmtree.math.core.implements\palmtree.math.core.implements\pmc_debug.h
; File z:\sources\lunor\repos\rougemeilland\palmtree.math.core.implements\palmtree.math.core.implements\test_op_add.c
; File z:\sources\lunor\repos\rougemeilland\palmtree.math.core.implements\palmtree.math.core.implements\pmc_debug.h
; File z:\sources\lunor\repos\rougemeilland\palmtree.math.core.implements\palmtree.math.core.implements\test_op_add.c
;	COMDAT TEST_PMC_Add_X_L
_TEXT	SEGMENT
z_result$1$ = 32
z$ = 40
x$ = 48
actual_z_buf_size$ = 56
actual_z_buf$ = 64
__$ArrayPad$ = 320
env$ = 416
ep$ = 424
no$ = 432
x_buf$ = 440
x_buf_size$ = 448
y$ = 456
desired_z_buf$ = 464
desired_z_buf_size$ = 472
TEST_PMC_Add_X_L PROC					; COMDAT

; 57   : {

$LN17:
	push	rbx
	push	rbp
	push	rsi
	push	rdi
	push	r12
	push	r13
	push	r14
	push	r15
	sub	rsp, 344				; 00000158H
	mov	rax, QWORD PTR __security_cookie
	xor	rax, rsp
	mov	QWORD PTR __$ArrayPad$[rsp], rax
	mov	r14, rdx
	mov	r13d, r8d

; 58   :     HANDLE x;
; 59   :     HANDLE z;
; 60   :     unsigned char actual_z_buf[256];
; 61   :     size_t actual_z_buf_size;
; 62   :     PMC_STATUS_CODE result;
; 63   :     PMC_STATUS_CODE x_result;
; 64   :     PMC_STATUS_CODE z_result;
; 65   :     TEST_Assert(env, FormatTestLabel("PMC_Add_X_L (%d.%d)", no, 1), (x_result = ep->PMC_From_B(x_buf, x_buf_size, &x)) == PMC_STATUS_OK, FormatTestMesssage("PMC_From_Bの復帰コードが期待通りではない(%d)", x_result));

	mov	rdx, QWORD PTR x_buf_size$[rsp]
	lea	r8, QWORD PTR x$[rsp]
	mov	r12, rcx
	mov	rcx, r9
	call	QWORD PTR [r14+32]
	mov	edx, eax
	lea	rcx, OFFSET FLAT:??_C@_0CN@LDAEIIBE@PMC_From_B?$IC?L?$JF?$JM?$ILA?$IDR?$IB?$FL?$IDh?$IC?$KK?$IK?z?$JB?R?$JC?J?$IC@
	mov	r15d, eax
	call	FormatTestMesssage
	xor	ebp, ebp
	lea	rcx, OFFSET FLAT:??_C@_0BE@GBMGKEOC@PMC_Add_X_L?5?$CI?$CFd?4?$CFd?$CJ@
	test	r15d, r15d
	mov	ebx, ebp
	mov	edx, r13d
	mov	rdi, rax
	sete	bl
	lea	r8d, QWORD PTR [rbp+1]
	call	FormatTestLabel
	mov	rdx, rax
	mov	r9, rdi
	mov	r8d, ebx
	mov	rcx, r12
	call	TEST_Assert

; 66   :     TEST_Assert(env, FormatTestLabel("PMC_Add_X_L (%d.%d)", no, 2), (z_result = ep->PMC_Add_X_L(x, y, &z)) == PMC_STATUS_OK, FormatTestMesssage("PMC_Add_X_Lの復帰コードが期待通りではない(%d)", z_result));

	mov	rdx, QWORD PTR y$[rsp]
	lea	r8, QWORD PTR z$[rsp]
	mov	rcx, QWORD PTR x$[rsp]
	call	QWORD PTR [r14+80]
	mov	edx, eax
	mov	DWORD PTR z_result$1$[rsp], eax
	lea	rcx, OFFSET FLAT:??_C@_0CO@KPACNIOC@PMC_Add_X_L?$IC?L?$JF?$JM?$ILA?$IDR?$IB?$FL?$IDh?$IC?$KK?$IK?z?$JB?R?$JC?J@
	mov	esi, eax
	call	FormatTestMesssage
	test	esi, esi
	lea	r8d, QWORD PTR [rbp+2]
	mov	edi, ebp
	lea	rcx, OFFSET FLAT:??_C@_0BE@GBMGKEOC@PMC_Add_X_L?5?$CI?$CFd?4?$CFd?$CJ@
	mov	edx, r13d
	sete	dil
	mov	rbx, rax
	call	FormatTestLabel
	mov	rdx, rax
	mov	r9, rbx
	mov	r8d, edi
	mov	rcx, r12
	call	TEST_Assert

; 67   :     TEST_Assert(env, FormatTestLabel("PMC_Add_X_L (%d.%d)", no, 3), (result = ep->PMC_To_X_B(z, actual_z_buf, sizeof(actual_z_buf), &actual_z_buf_size)) == PMC_STATUS_OK, FormatTestMesssage("PMC_To_X_Bの復帰コードが期待通りではない(%d)", result));

	mov	rcx, QWORD PTR z$[rsp]
	lea	r9, QWORD PTR actual_z_buf_size$[rsp]
	mov	r8d, 256				; 00000100H
	lea	rdx, QWORD PTR actual_z_buf$[rsp]
	call	QWORD PTR [r14+64]
	mov	edx, eax
	lea	rcx, OFFSET FLAT:??_C@_0CN@JELPCGPD@PMC_To_X_B?$IC?L?$JF?$JM?$ILA?$IDR?$IB?$FL?$IDh?$IC?$KK?$IK?z?$JB?R?$JC?J?$IC@
	mov	ebx, eax
	call	FormatTestMesssage
	test	ebx, ebx
	lea	r8d, QWORD PTR [rbp+3]
	mov	esi, ebp
	lea	rcx, OFFSET FLAT:??_C@_0BE@GBMGKEOC@PMC_Add_X_L?5?$CI?$CFd?4?$CFd?$CJ@
	mov	edx, r13d
	sete	sil
	mov	rdi, rax
	call	FormatTestLabel
	mov	rdx, rax
	mov	r9, rdi
	mov	r8d, esi
	mov	rcx, r12
	call	TEST_Assert

; 68   :     TEST_Assert(env, FormatTestLabel("PMC_Add_X_L (%d.%d)", no, 4), _EQUALS_MEMORY(actual_z_buf, actual_z_buf_size, desired_z_buf, desired_z_buf_size) == 0, "データの内容が一致しない");

	mov	rdx, QWORD PTR actual_z_buf_size$[rsp]
	mov	rax, QWORD PTR desired_z_buf$[rsp]
	cmp	rdx, QWORD PTR desired_z_buf_size$[rsp]
; File z:\sources\lunor\repos\rougemeilland\palmtree.math.core.implements\palmtree.math.core.implements\pmc_debug.h

; 103  :     if (count1 != count2)

	je	SHORT $LN11@TEST_PMC_A
$LN12@TEST_PMC_A:
; File z:\sources\lunor\repos\rougemeilland\palmtree.math.core.implements\palmtree.math.core.implements\test_op_add.c

; 68   :     TEST_Assert(env, FormatTestLabel("PMC_Add_X_L (%d.%d)", no, 4), _EQUALS_MEMORY(actual_z_buf, actual_z_buf_size, desired_z_buf, desired_z_buf_size) == 0, "データの内容が一致しない");

	mov	eax, -1
	jmp	SHORT $LN5@TEST_PMC_A
$LN11@TEST_PMC_A:
; File z:\sources\lunor\repos\rougemeilland\palmtree.math.core.implements\palmtree.math.core.implements\pmc_debug.h

; 105  :     while (count1 > 0)

	test	rdx, rdx
	je	SHORT $LN7@TEST_PMC_A
	lea	r8, QWORD PTR actual_z_buf$[rsp]
	sub	r8, rax
$LL6@TEST_PMC_A:

; 106  :     {
; 107  :         if (*buffer1 != *buffer2)

	movzx	ecx, BYTE PTR [rax]
	cmp	BYTE PTR [r8+rax], cl
	jne	SHORT $LN12@TEST_PMC_A

; 108  :             return (-1);
; 109  :         ++buffer1;
; 110  :         ++buffer2;

	inc	rax

; 111  :         --count1;

	sub	rdx, 1
	jne	SHORT $LL6@TEST_PMC_A
$LN7@TEST_PMC_A:

; 112  :     }
; 113  :     return (0);

	mov	eax, ebp
$LN5@TEST_PMC_A:
; File z:\sources\lunor\repos\rougemeilland\palmtree.math.core.implements\palmtree.math.core.implements\test_op_add.c

; 68   :     TEST_Assert(env, FormatTestLabel("PMC_Add_X_L (%d.%d)", no, 4), _EQUALS_MEMORY(actual_z_buf, actual_z_buf_size, desired_z_buf, desired_z_buf_size) == 0, "データの内容が一致しない");

	test	eax, eax
	lea	rcx, OFFSET FLAT:??_C@_0BE@GBMGKEOC@PMC_Add_X_L?5?$CI?$CFd?4?$CFd?$CJ@
	mov	r8d, 4
	mov	edx, r13d
	sete	bpl
	call	FormatTestLabel
	mov	rdx, rax
	lea	r9, OFFSET FLAT:??_C@_0BJ@JGINKGIA@?$IDf?$IB?$FL?$ID?$FO?$IC?L?$JD?$OA?$JHe?$IC?$KK?$II?j?$JCv?$IC?$LF?$IC?H?$IC?$KC@
	mov	r8d, ebp
	mov	rcx, r12
	call	TEST_Assert

; 69   :     if (z_result == PMC_STATUS_OK)

	cmp	DWORD PTR z_result$1$[rsp], 0
	jne	SHORT $LN2@TEST_PMC_A

; 70   :         ep->PMC_Dispose(z);

	mov	rcx, QWORD PTR z$[rsp]
	call	QWORD PTR [r14+40]
$LN2@TEST_PMC_A:

; 71   :     if (x_result == PMC_STATUS_OK)

	test	r15d, r15d
	jne	SHORT $LN3@TEST_PMC_A

; 72   :         ep->PMC_Dispose(x);

	mov	rcx, QWORD PTR x$[rsp]
	call	QWORD PTR [r14+40]
$LN3@TEST_PMC_A:

; 73   : }

	mov	rcx, QWORD PTR __$ArrayPad$[rsp]
	xor	rcx, rsp
	call	__security_check_cookie
	add	rsp, 344				; 00000158H
	pop	r15
	pop	r14
	pop	r13
	pop	r12
	pop	rdi
	pop	rsi
	pop	rbp
	pop	rbx
	ret	0
TEST_PMC_Add_X_L ENDP
_TEXT	ENDS
; Function compile flags: /Ogtpy
; File z:\sources\lunor\repos\rougemeilland\palmtree.math.core.implements\palmtree.math.core.implements\test_op_add.c
; File z:\sources\lunor\repos\rougemeilland\palmtree.math.core.implements\palmtree.math.core.implements\pmc_debug.h
; File z:\sources\lunor\repos\rougemeilland\palmtree.math.core.implements\palmtree.math.core.implements\test_op_add.c
; File z:\sources\lunor\repos\rougemeilland\palmtree.math.core.implements\palmtree.math.core.implements\pmc_debug.h
; File z:\sources\lunor\repos\rougemeilland\palmtree.math.core.implements\palmtree.math.core.implements\test_op_add.c
;	COMDAT TEST_PMC_Add_X_I
_TEXT	SEGMENT
z_result$1$ = 32
z$ = 40
x$ = 48
actual_z_buf_size$ = 56
actual_z_buf$ = 64
__$ArrayPad$ = 320
env$ = 416
ep$ = 424
no$ = 432
x_buf$ = 440
x_buf_size$ = 448
y$ = 456
desired_z_buf$ = 464
desired_z_buf_size$ = 472
TEST_PMC_Add_X_I PROC					; COMDAT

; 38   : {

$LN17:
	push	rbx
	push	rbp
	push	rsi
	push	rdi
	push	r12
	push	r13
	push	r14
	push	r15
	sub	rsp, 344				; 00000158H
	mov	rax, QWORD PTR __security_cookie
	xor	rax, rsp
	mov	QWORD PTR __$ArrayPad$[rsp], rax
	mov	r14, rdx
	mov	r13d, r8d

; 39   :     HANDLE x;
; 40   :     HANDLE z;
; 41   :     unsigned char actual_z_buf[256];
; 42   :     size_t actual_z_buf_size;
; 43   :     PMC_STATUS_CODE result;
; 44   :     PMC_STATUS_CODE x_result;
; 45   :     PMC_STATUS_CODE z_result;
; 46   :     TEST_Assert(env, FormatTestLabel("PMC_Add_X_I (%d.%d)", no, 1), (x_result = ep->PMC_From_B(x_buf, x_buf_size, &x)) == PMC_STATUS_OK, FormatTestMesssage("PMC_From_Bの復帰コードが期待通りではない(%d)", x_result));

	mov	rdx, QWORD PTR x_buf_size$[rsp]
	lea	r8, QWORD PTR x$[rsp]
	mov	r12, rcx
	mov	rcx, r9
	call	QWORD PTR [r14+32]
	mov	edx, eax
	lea	rcx, OFFSET FLAT:??_C@_0CN@LDAEIIBE@PMC_From_B?$IC?L?$JF?$JM?$ILA?$IDR?$IB?$FL?$IDh?$IC?$KK?$IK?z?$JB?R?$JC?J?$IC@
	mov	r15d, eax
	call	FormatTestMesssage
	xor	ebp, ebp
	lea	rcx, OFFSET FLAT:??_C@_0BE@IHOPGPKG@PMC_Add_X_I?5?$CI?$CFd?4?$CFd?$CJ@
	test	r15d, r15d
	mov	ebx, ebp
	mov	edx, r13d
	mov	rdi, rax
	sete	bl
	lea	r8d, QWORD PTR [rbp+1]
	call	FormatTestLabel
	mov	rdx, rax
	mov	r9, rdi
	mov	r8d, ebx
	mov	rcx, r12
	call	TEST_Assert

; 47   :     TEST_Assert(env, FormatTestLabel("PMC_Add_X_I (%d.%d)", no, 2), (z_result = ep->PMC_Add_X_I(x, y, &z)) == PMC_STATUS_OK, FormatTestMesssage("PMC_Add_X_Iの復帰コードが期待通りではない(%d)", z_result));

	mov	edx, DWORD PTR y$[rsp]
	lea	r8, QWORD PTR z$[rsp]
	mov	rcx, QWORD PTR x$[rsp]
	call	QWORD PTR [r14+72]
	mov	edx, eax
	mov	DWORD PTR z_result$1$[rsp], eax
	lea	rcx, OFFSET FLAT:??_C@_0CO@CCCFEOA@PMC_Add_X_I?$IC?L?$JF?$JM?$ILA?$IDR?$IB?$FL?$IDh?$IC?$KK?$IK?z?$JB?R?$JC?J@
	mov	esi, eax
	call	FormatTestMesssage
	test	esi, esi
	lea	r8d, QWORD PTR [rbp+2]
	mov	edi, ebp
	lea	rcx, OFFSET FLAT:??_C@_0BE@IHOPGPKG@PMC_Add_X_I?5?$CI?$CFd?4?$CFd?$CJ@
	mov	edx, r13d
	sete	dil
	mov	rbx, rax
	call	FormatTestLabel
	mov	rdx, rax
	mov	r9, rbx
	mov	r8d, edi
	mov	rcx, r12
	call	TEST_Assert

; 48   :     TEST_Assert(env, FormatTestLabel("PMC_Add_X_I (%d.%d)", no, 3), (result = ep->PMC_To_X_B(z, actual_z_buf, sizeof(actual_z_buf), &actual_z_buf_size)) == PMC_STATUS_OK, FormatTestMesssage("PMC_To_X_Bの復帰コードが期待通りではない(%d)", result));

	mov	rcx, QWORD PTR z$[rsp]
	lea	r9, QWORD PTR actual_z_buf_size$[rsp]
	mov	r8d, 256				; 00000100H
	lea	rdx, QWORD PTR actual_z_buf$[rsp]
	call	QWORD PTR [r14+64]
	mov	edx, eax
	lea	rcx, OFFSET FLAT:??_C@_0CN@JELPCGPD@PMC_To_X_B?$IC?L?$JF?$JM?$ILA?$IDR?$IB?$FL?$IDh?$IC?$KK?$IK?z?$JB?R?$JC?J?$IC@
	mov	ebx, eax
	call	FormatTestMesssage
	test	ebx, ebx
	lea	r8d, QWORD PTR [rbp+3]
	mov	esi, ebp
	lea	rcx, OFFSET FLAT:??_C@_0BE@IHOPGPKG@PMC_Add_X_I?5?$CI?$CFd?4?$CFd?$CJ@
	mov	edx, r13d
	sete	sil
	mov	rdi, rax
	call	FormatTestLabel
	mov	rdx, rax
	mov	r9, rdi
	mov	r8d, esi
	mov	rcx, r12
	call	TEST_Assert

; 49   :     TEST_Assert(env, FormatTestLabel("PMC_Add_X_I (%d.%d)", no, 4), _EQUALS_MEMORY(actual_z_buf, actual_z_buf_size, desired_z_buf, desired_z_buf_size) == 0, "データの内容が一致しない");

	mov	rdx, QWORD PTR actual_z_buf_size$[rsp]
	mov	rax, QWORD PTR desired_z_buf$[rsp]
	cmp	rdx, QWORD PTR desired_z_buf_size$[rsp]
; File z:\sources\lunor\repos\rougemeilland\palmtree.math.core.implements\palmtree.math.core.implements\pmc_debug.h

; 103  :     if (count1 != count2)

	je	SHORT $LN11@TEST_PMC_A
$LN12@TEST_PMC_A:
; File z:\sources\lunor\repos\rougemeilland\palmtree.math.core.implements\palmtree.math.core.implements\test_op_add.c

; 49   :     TEST_Assert(env, FormatTestLabel("PMC_Add_X_I (%d.%d)", no, 4), _EQUALS_MEMORY(actual_z_buf, actual_z_buf_size, desired_z_buf, desired_z_buf_size) == 0, "データの内容が一致しない");

	mov	eax, -1
	jmp	SHORT $LN5@TEST_PMC_A
$LN11@TEST_PMC_A:
; File z:\sources\lunor\repos\rougemeilland\palmtree.math.core.implements\palmtree.math.core.implements\pmc_debug.h

; 105  :     while (count1 > 0)

	test	rdx, rdx
	je	SHORT $LN7@TEST_PMC_A
	lea	r8, QWORD PTR actual_z_buf$[rsp]
	sub	r8, rax
$LL6@TEST_PMC_A:

; 106  :     {
; 107  :         if (*buffer1 != *buffer2)

	movzx	ecx, BYTE PTR [rax]
	cmp	BYTE PTR [r8+rax], cl
	jne	SHORT $LN12@TEST_PMC_A

; 108  :             return (-1);
; 109  :         ++buffer1;
; 110  :         ++buffer2;

	inc	rax

; 111  :         --count1;

	sub	rdx, 1
	jne	SHORT $LL6@TEST_PMC_A
$LN7@TEST_PMC_A:

; 112  :     }
; 113  :     return (0);

	mov	eax, ebp
$LN5@TEST_PMC_A:
; File z:\sources\lunor\repos\rougemeilland\palmtree.math.core.implements\palmtree.math.core.implements\test_op_add.c

; 49   :     TEST_Assert(env, FormatTestLabel("PMC_Add_X_I (%d.%d)", no, 4), _EQUALS_MEMORY(actual_z_buf, actual_z_buf_size, desired_z_buf, desired_z_buf_size) == 0, "データの内容が一致しない");

	test	eax, eax
	lea	rcx, OFFSET FLAT:??_C@_0BE@IHOPGPKG@PMC_Add_X_I?5?$CI?$CFd?4?$CFd?$CJ@
	mov	r8d, 4
	mov	edx, r13d
	sete	bpl
	call	FormatTestLabel
	mov	rdx, rax
	lea	r9, OFFSET FLAT:??_C@_0BJ@JGINKGIA@?$IDf?$IB?$FL?$ID?$FO?$IC?L?$JD?$OA?$JHe?$IC?$KK?$II?j?$JCv?$IC?$LF?$IC?H?$IC?$KC@
	mov	r8d, ebp
	mov	rcx, r12
	call	TEST_Assert

; 50   :     if (z_result == PMC_STATUS_OK)

	cmp	DWORD PTR z_result$1$[rsp], 0
	jne	SHORT $LN2@TEST_PMC_A

; 51   :         ep->PMC_Dispose(z);

	mov	rcx, QWORD PTR z$[rsp]
	call	QWORD PTR [r14+40]
$LN2@TEST_PMC_A:

; 52   :     if (x_result == PMC_STATUS_OK)

	test	r15d, r15d
	jne	SHORT $LN3@TEST_PMC_A

; 53   :         ep->PMC_Dispose(x);

	mov	rcx, QWORD PTR x$[rsp]
	call	QWORD PTR [r14+40]
$LN3@TEST_PMC_A:

; 54   : }

	mov	rcx, QWORD PTR __$ArrayPad$[rsp]
	xor	rcx, rsp
	call	__security_check_cookie
	add	rsp, 344				; 00000158H
	pop	r15
	pop	r14
	pop	r13
	pop	r12
	pop	rdi
	pop	rsi
	pop	rbp
	pop	rbx
	ret	0
TEST_PMC_Add_X_I ENDP
_TEXT	ENDS
END
