; Listing generated by Microsoft (R) Optimizing Compiler Version 19.16.27026.1 

	TITLE	Z:\Sources\Lunor\Repos\rougemeilland\Palmtree.Math.Core.Implements\Palmtree.Math.Core.Implements\pmc_exclusiveor.c
	.686P
	.XMM
	include listing.inc
	.model	flat

INCLUDELIB MSVCRT
INCLUDELIB OLDNAMES

PUBLIC	_Initialize_ExclusiveOr
PUBLIC	_PMC_ExclusiveOr_I_X@12
PUBLIC	_PMC_ExclusiveOr_L_X@16
PUBLIC	_PMC_ExclusiveOr_X_I@12
PUBLIC	_PMC_ExclusiveOr_X_L@16
PUBLIC	_PMC_ExclusiveOr_X_X@12
EXTRN	_CheckBlockLight:PROC
EXTRN	_AllocateNumber:PROC
EXTRN	_DeallocateNumber:PROC
EXTRN	_CommitNumber:PROC
EXTRN	_CheckNumber:PROC
EXTRN	_DuplicateNumber:PROC
EXTRN	_From_I_Imp:PROC
EXTRN	_From_L_Imp:PROC
EXTRN	_number_zero:BYTE
; Function compile flags: /Ogtp
; File z:\sources\lunor\repos\rougemeilland\palmtree.math.core.implements\palmtree.math.core.implements\pmc_exclusiveor.c
; File z:\sources\lunor\repos\rougemeilland\palmtree.math.core.implements\palmtree.math.core.implements\pmc_internal.h
; File z:\sources\lunor\repos\rougemeilland\palmtree.math.core.implements\palmtree.math.core.implements\pmc_exclusiveor.c
; File z:\sources\lunor\repos\rougemeilland\palmtree.math.core.implements\palmtree.math.core.implements\pmc_internal.h
; File z:\sources\lunor\repos\rougemeilland\palmtree.math.core.implements\palmtree.math.core.implements\pmc_exclusiveor.c
; File z:\sources\lunor\repos\rougemeilland\palmtree.math.core.implements\palmtree.math.core.implements\pmc_internal.h
; File z:\sources\lunor\repos\rougemeilland\palmtree.math.core.implements\palmtree.math.core.implements\pmc_exclusiveor.c
; File z:\sources\lunor\repos\rougemeilland\palmtree.math.core.implements\palmtree.math.core.implements\pmc_internal.h
; File z:\sources\lunor\repos\rougemeilland\palmtree.math.core.implements\palmtree.math.core.implements\pmc_exclusiveor.c
; File z:\sources\lunor\repos\rougemeilland\palmtree.math.core.implements\palmtree.math.core.implements\pmc_internal.h
; File z:\sources\lunor\repos\rougemeilland\palmtree.math.core.implements\palmtree.math.core.implements\pmc_exclusiveor.c
; File z:\sources\lunor\repos\rougemeilland\palmtree.math.core.implements\palmtree.math.core.implements\pmc_internal.h
; File z:\sources\lunor\repos\rougemeilland\palmtree.math.core.implements\palmtree.math.core.implements\pmc_exclusiveor.c
; File z:\sources\lunor\repos\rougemeilland\palmtree.math.core.implements\palmtree.math.core.implements\pmc_internal.h
; File z:\sources\lunor\repos\rougemeilland\palmtree.math.core.implements\palmtree.math.core.implements\pmc_exclusiveor.c
; File z:\sources\lunor\repos\rougemeilland\palmtree.math.core.implements\palmtree.math.core.implements\pmc_internal.h
; File z:\sources\lunor\repos\rougemeilland\palmtree.math.core.implements\palmtree.math.core.implements\pmc_exclusiveor.c
;	COMDAT _PMC_ExclusiveOr_X_L_Imp
_TEXT	SEGMENT
_nw_light_check_code$1 = -4				; size = 4
_nw_light_check_code$2 = 8				; size = 4
_u$ = 8							; size = 4
_v$ = 12						; size = 8
_w$ = 20						; size = 4
_PMC_ExclusiveOr_X_L_Imp PROC				; COMDAT

; 281  : {

	push	ebp
	mov	ebp, esp
	push	ecx
	push	ebx
	push	esi

; 282  :     PMC_STATUS_CODE result;
; 283  :     if (u->IS_ZERO)

	mov	esi, DWORD PTR _u$[ebp]
	push	edi
	test	BYTE PTR [esi+16], 2
	je	SHORT $LN2@PMC_Exclus

; 284  :     {
; 285  :         // x が 0 である場合
; 286  :         if (v == 0)

	mov	ecx, DWORD PTR _v$[ebp]
	mov	eax, ecx
	mov	edx, DWORD PTR _v$[ebp+4]
	or	eax, edx
	jne	SHORT $LN4@PMC_Exclus

; 287  :         {
; 288  :             // v が 0 である場合
; 289  :             *w = &number_zero;

	mov	eax, DWORD PTR _w$[ebp]
	pop	edi

; 360  : }

	pop	esi
	pop	ebx
	mov	DWORD PTR [eax], OFFSET _number_zero
	xor	eax, eax
	mov	esp, ebp
	pop	ebp
	ret	0
$LN4@PMC_Exclus:

; 290  :         }
; 291  :         else
; 292  :         {
; 293  :             // v が 0 でない場合
; 294  :             if ((result = From_L_Imp(v, w)) != PMC_STATUS_OK)

	push	DWORD PTR _w$[ebp]
	push	edx
	push	ecx
	call	_From_L_Imp
	add	esp, 12					; 0000000cH
	test	eax, eax
	je	$LN20@PMC_Exclus

; 360  : }

	pop	edi
	pop	esi
	pop	ebx
	mov	esp, ebp
	pop	ebp
	ret	0
$LN2@PMC_Exclus:

; 295  :                 return (result);
; 296  :         }
; 297  :     }
; 298  :     else if (v == 0)

	mov	edi, DWORD PTR _v$[ebp]
	mov	eax, edi
	mov	ecx, DWORD PTR _v$[ebp+4]
	or	eax, ecx
	jne	SHORT $LN7@PMC_Exclus

; 299  :     {
; 300  :         // y が 0 である場合
; 301  :         if ((result = DuplicateNumber(u, w)) != PMC_STATUS_OK)

	push	DWORD PTR _w$[ebp]
	push	esi
	call	_DuplicateNumber
	add	esp, 8
	test	eax, eax
	je	$LN20@PMC_Exclus

; 360  : }

	pop	edi
	pop	esi
	pop	ebx
	mov	esp, ebp
	pop	ebp
	ret	0
$LN7@PMC_Exclus:

; 302  :             return (result);
; 303  :     }
; 304  :     else
; 305  :     {
; 306  :         // u と v がともに 0 ではない場合
; 307  :         if (__UNIT_TYPE_BIT_COUNT < sizeof(v) * 8)
; 308  :         {
; 309  :             // _UINT64_T が 1 ワードで表現しきれない場合
; 310  :             __UNIT_TYPE u_bit_count = u->UNIT_BIT_COUNT;

	mov	edx, DWORD PTR [esi+4]

; 311  :             _UINT32_T v_hi;
; 312  :             _UINT32_T v_lo = _FROMDWORDTOWORD(v, &v_hi);
; 313  :             if (v_hi == 0)

	test	ecx, ecx
	jne	SHORT $LN12@PMC_Exclus
; File z:\sources\lunor\repos\rougemeilland\palmtree.math.core.implements\palmtree.math.core.implements\pmc_internal.h

; 856  :     if (x == 0)

	test	edi, edi
	jne	SHORT $LN25@PMC_Exclus

; 857  :         return (sizeof(x) * 8);

	lea	ecx, DWORD PTR [edi+32]
	jmp	SHORT $LN24@PMC_Exclus
$LN25@PMC_Exclus:

; 860  :     _BitScanReverse(&pos, x);

	bsr	eax, edi

; 866  :     return (sizeof(x) * 8 - 1 - pos);

	mov	ecx, 31					; 0000001fH
	sub	ecx, eax
$LN24@PMC_Exclus:
; File z:\sources\lunor\repos\rougemeilland\palmtree.math.core.implements\palmtree.math.core.implements\pmc_exclusiveor.c

; 319  :                 if ((result = AllocateNumber(w, w_bit_count, &nw_light_check_code)) != PMC_STATUS_OK)

	mov	ebx, DWORD PTR _w$[ebp]
	mov	eax, 32					; 00000020H
	sub	eax, ecx
	lea	ecx, DWORD PTR _nw_light_check_code$2[ebp]
; File z:\sources\lunor\repos\rougemeilland\palmtree.math.core.implements\palmtree.math.core.implements\pmc_internal.h

; 463  :     return (x >= y ? x : y);

	cmp	edx, eax
; File z:\sources\lunor\repos\rougemeilland\palmtree.math.core.implements\palmtree.math.core.implements\pmc_exclusiveor.c

; 319  :                 if ((result = AllocateNumber(w, w_bit_count, &nw_light_check_code)) != PMC_STATUS_OK)

	push	ecx
; File z:\sources\lunor\repos\rougemeilland\palmtree.math.core.implements\palmtree.math.core.implements\pmc_internal.h

; 463  :     return (x >= y ? x : y);

	cmovae	eax, edx
; File z:\sources\lunor\repos\rougemeilland\palmtree.math.core.implements\palmtree.math.core.implements\pmc_exclusiveor.c

; 319  :                 if ((result = AllocateNumber(w, w_bit_count, &nw_light_check_code)) != PMC_STATUS_OK)

	push	eax
	push	ebx
	call	_AllocateNumber
	add	esp, 12					; 0000000cH
	test	eax, eax
	jne	$LN1@PMC_Exclus

; 320  :                     return (result);
; 321  :                 ExclusiveOr_X_1W(u->BLOCK, u->UNIT_WORD_COUNT, v_lo, (*w)->BLOCK);

	mov	eax, DWORD PTR [ebx]
	push	DWORD PTR [eax+24]
	push	edi
	push	DWORD PTR [esi]
	push	DWORD PTR [esi+24]
	call	_ExclusiveOr_X_1W

; 322  :                 if ((result = CheckBlockLight((*w)->BLOCK, nw_light_check_code)) != PMC_STATUS_OK)

	mov	eax, DWORD PTR [ebx]
	push	DWORD PTR _nw_light_check_code$2[ebp]
	push	DWORD PTR [eax+24]
	call	_CheckBlockLight
	add	esp, 24					; 00000018H
	test	eax, eax
	je	SHORT $LN17@PMC_Exclus

; 360  : }

	pop	edi
	pop	esi
	pop	ebx
	mov	esp, ebp
	pop	ebp
	ret	0
$LN12@PMC_Exclus:
; File z:\sources\lunor\repos\rougemeilland\palmtree.math.core.implements\palmtree.math.core.implements\pmc_internal.h

; 860  :     _BitScanReverse(&pos, x);

	bsr	eax, ecx
; File z:\sources\lunor\repos\rougemeilland\palmtree.math.core.implements\palmtree.math.core.implements\pmc_exclusiveor.c

; 331  :                 if ((result = AllocateNumber(w, w_bit_count, &nw_light_check_code)) != PMC_STATUS_OK)

	mov	ebx, DWORD PTR _w$[ebp]
; File z:\sources\lunor\repos\rougemeilland\palmtree.math.core.implements\palmtree.math.core.implements\pmc_internal.h

; 866  :     return (sizeof(x) * 8 - 1 - pos);

	mov	ecx, 31					; 0000001fH
	sub	ecx, eax
; File z:\sources\lunor\repos\rougemeilland\palmtree.math.core.implements\palmtree.math.core.implements\pmc_exclusiveor.c

; 328  :                 __UNIT_TYPE v_bit_count = sizeof(v) * 8 - _LZCNT_ALT_32(v_hi);

	mov	eax, 64					; 00000040H
	sub	eax, ecx

; 331  :                 if ((result = AllocateNumber(w, w_bit_count, &nw_light_check_code)) != PMC_STATUS_OK)

	lea	ecx, DWORD PTR _nw_light_check_code$1[ebp]
; File z:\sources\lunor\repos\rougemeilland\palmtree.math.core.implements\palmtree.math.core.implements\pmc_internal.h

; 463  :     return (x >= y ? x : y);

	cmp	edx, eax
; File z:\sources\lunor\repos\rougemeilland\palmtree.math.core.implements\palmtree.math.core.implements\pmc_exclusiveor.c

; 331  :                 if ((result = AllocateNumber(w, w_bit_count, &nw_light_check_code)) != PMC_STATUS_OK)

	push	ecx
; File z:\sources\lunor\repos\rougemeilland\palmtree.math.core.implements\palmtree.math.core.implements\pmc_internal.h

; 463  :     return (x >= y ? x : y);

	cmovae	eax, edx
; File z:\sources\lunor\repos\rougemeilland\palmtree.math.core.implements\palmtree.math.core.implements\pmc_exclusiveor.c

; 331  :                 if ((result = AllocateNumber(w, w_bit_count, &nw_light_check_code)) != PMC_STATUS_OK)

	push	eax
	push	ebx
	call	_AllocateNumber
	add	esp, 12					; 0000000cH
	test	eax, eax
	jne	SHORT $LN1@PMC_Exclus

; 332  :                     return (result);
; 333  :                 ExclusiveOr_X_2W(u->BLOCK, u->UNIT_WORD_COUNT, v_hi, v_lo, (*w)->BLOCK);

	mov	eax, DWORD PTR [ebx]
	mov	ecx, DWORD PTR [esi]
	mov	esi, DWORD PTR [esi+24]
	mov	edx, DWORD PTR [eax+24]
	mov	eax, DWORD PTR [esi]
	xor	eax, edi

; 52   :     if (u_count == 1)

	mov	DWORD PTR [edx], eax
	cmp	ecx, 1
	jne	SHORT $LN35@PMC_Exclus

; 53   :     {
; 54   :         w[0] = u[0] ^ v_lo;
; 55   :         w[1] = v_hi;

	mov	ecx, DWORD PTR _v$[ebp+4]
	mov	DWORD PTR [edx+4], ecx

; 56   :     }

	jmp	SHORT $LN40@PMC_Exclus
$LN35@PMC_Exclus:

; 57   :     else if (u_count == 2)

	mov	eax, DWORD PTR [esi+4]
	xor	eax, DWORD PTR _v$[ebp+4]
	mov	DWORD PTR [edx+4], eax
	cmp	ecx, 2
	je	SHORT $LN40@PMC_Exclus

; 58   :     {
; 59   :         w[0] = u[0] ^ v_lo;
; 60   :         w[1] = u[1] ^ v_hi;
; 61   :     }
; 62   :     else
; 63   :     {
; 64   :         w[0] = u[0] ^ v_lo;
; 65   :         w[1] = u[1] ^ v_hi;
; 66   :         _COPY_MEMORY_UNIT(w + 2, u + 2, u_count - 2);

	add	ecx, -2					; fffffffeH
	lea	edi, DWORD PTR [edx+8]
	add	esi, 8
; File z:\sources\lunor\repos\rougemeilland\palmtree.math.core.implements\palmtree.math.core.implements\pmc_internal.h

; 327  :     __movsd((unsigned long *)d, (unsigned long *)s, (unsigned long)count);

	rep movsd
$LN40@PMC_Exclus:
; File z:\sources\lunor\repos\rougemeilland\palmtree.math.core.implements\palmtree.math.core.implements\pmc_exclusiveor.c

; 334  :                 if ((result = CheckBlockLight((*w)->BLOCK, nw_light_check_code)) != PMC_STATUS_OK)

	mov	eax, DWORD PTR [ebx]
	push	DWORD PTR _nw_light_check_code$1[ebp]
	push	DWORD PTR [eax+24]
	call	_CheckBlockLight
	add	esp, 8
	test	eax, eax
	jne	SHORT $LN1@PMC_Exclus
$LN17@PMC_Exclus:

; 335  :                     return (result);
; 336  :             }
; 337  :         }
; 338  :         else
; 339  :         {
; 340  :             // _UINT64_T が 1 ワードで表現できる場合
; 341  : 
; 342  :             __UNIT_TYPE u_bit_count = u->UNIT_BIT_COUNT;
; 343  :             __UNIT_TYPE v_bit_count = sizeof(v) * 8 - _LZCNT_ALT_UNIT((__UNIT_TYPE)v);
; 344  :             __UNIT_TYPE w_bit_count = _MAXIMUM_UNIT(u_bit_count, v_bit_count) + 1;
; 345  :             __UNIT_TYPE nw_light_check_code;
; 346  :             if ((result = AllocateNumber(w, w_bit_count, &nw_light_check_code)) != PMC_STATUS_OK)
; 347  :                 return (result);
; 348  :             ExclusiveOr_X_1W(u->BLOCK, u->UNIT_WORD_COUNT, (__UNIT_TYPE)v, (*w)->BLOCK);
; 349  :             if ((result = CheckBlockLight((*w)->BLOCK, nw_light_check_code)) != PMC_STATUS_OK)
; 350  :                 return (result);
; 351  :         }
; 352  :         CommitNumber(*w);

	push	DWORD PTR [ebx]
	call	_CommitNumber

; 353  :         if ((*w)->IS_ZERO)

	mov	eax, DWORD PTR [ebx]
	add	esp, 4
	test	BYTE PTR [eax+16], 2
	je	SHORT $LN20@PMC_Exclus

; 354  :         {
; 355  :             DeallocateNumber(*w);

	push	eax
	call	_DeallocateNumber
	add	esp, 4

; 356  :             *w = &number_zero;

	mov	DWORD PTR [ebx], OFFSET _number_zero
$LN20@PMC_Exclus:

; 357  :         }
; 358  :     }
; 359  :     return (PMC_STATUS_OK);

	xor	eax, eax
$LN1@PMC_Exclus:
	pop	edi

; 360  : }

	pop	esi
	pop	ebx
	mov	esp, ebp
	pop	ebp
	ret	0
_PMC_ExclusiveOr_X_L_Imp ENDP
_TEXT	ENDS
; Function compile flags: /Ogtp
; File z:\sources\lunor\repos\rougemeilland\palmtree.math.core.implements\palmtree.math.core.implements\pmc_exclusiveor.c
; File z:\sources\lunor\repos\rougemeilland\palmtree.math.core.implements\palmtree.math.core.implements\pmc_internal.h
; File z:\sources\lunor\repos\rougemeilland\palmtree.math.core.implements\palmtree.math.core.implements\pmc_exclusiveor.c
; File z:\sources\lunor\repos\rougemeilland\palmtree.math.core.implements\palmtree.math.core.implements\pmc_internal.h
; File z:\sources\lunor\repos\rougemeilland\palmtree.math.core.implements\palmtree.math.core.implements\pmc_exclusiveor.c
; File z:\sources\lunor\repos\rougemeilland\palmtree.math.core.implements\palmtree.math.core.implements\pmc_internal.h
; File z:\sources\lunor\repos\rougemeilland\palmtree.math.core.implements\palmtree.math.core.implements\pmc_exclusiveor.c
; File z:\sources\lunor\repos\rougemeilland\palmtree.math.core.implements\palmtree.math.core.implements\pmc_internal.h
; File z:\sources\lunor\repos\rougemeilland\palmtree.math.core.implements\palmtree.math.core.implements\pmc_exclusiveor.c
; File z:\sources\lunor\repos\rougemeilland\palmtree.math.core.implements\palmtree.math.core.implements\pmc_internal.h
; File z:\sources\lunor\repos\rougemeilland\palmtree.math.core.implements\palmtree.math.core.implements\pmc_exclusiveor.c
;	COMDAT _PMC_ExclusiveOr_X_I_Imp
_TEXT	SEGMENT
_nz_check_code$1 = 8					; size = 4
_u$ = 8							; size = 4
_v$ = 12						; size = 4
_w$ = 16						; size = 4
_PMC_ExclusiveOr_X_I_Imp PROC				; COMDAT

; 187  : {

	push	ebp
	mov	ebp, esp
	push	ebx
	push	esi
	mov	esi, DWORD PTR _v$[ebp]
	push	edi

; 188  :     PMC_STATUS_CODE result;
; 189  :     if (u->IS_ZERO)

	mov	edi, DWORD PTR _u$[ebp]
	test	BYTE PTR [edi+16], 2
	je	SHORT $LN2@PMC_Exclus

; 190  :     {
; 191  :         // u が 0 である場合
; 192  :         if (v == 0)

	test	esi, esi
	jne	SHORT $LN4@PMC_Exclus

; 193  :         {
; 194  :             // v が 0 である場合
; 195  :             *w = &number_zero;

	mov	eax, DWORD PTR _w$[ebp]
	pop	edi

; 230  : }

	pop	esi
	pop	ebx
	mov	DWORD PTR [eax], OFFSET _number_zero
	xor	eax, eax
	pop	ebp
	ret	0
$LN4@PMC_Exclus:

; 196  :         }
; 197  :         else
; 198  :         {
; 199  :             // v が 0 でない場合
; 200  :             if ((result = From_I_Imp(v, w)) != PMC_STATUS_OK)

	push	DWORD PTR _w$[ebp]
	push	esi
	call	_From_I_Imp
	add	esp, 8
	test	eax, eax
	je	$LN12@PMC_Exclus

; 230  : }

	pop	edi
	pop	esi
	pop	ebx
	pop	ebp
	ret	0
$LN2@PMC_Exclus:

; 201  :                 return (result);
; 202  :         }
; 203  :     }
; 204  :     else if (v == 0)

	test	esi, esi
	jne	SHORT $LN7@PMC_Exclus

; 205  :     {
; 206  :         // v が 0 である場合
; 207  :         if ((result = DuplicateNumber(u, w)) != PMC_STATUS_OK)

	push	DWORD PTR _w$[ebp]
	push	edi
	call	_DuplicateNumber
	add	esp, 8
	test	eax, eax
	je	$LN12@PMC_Exclus

; 230  : }

	pop	edi
	pop	esi
	pop	ebx
	pop	ebp
	ret	0
$LN7@PMC_Exclus:
; File z:\sources\lunor\repos\rougemeilland\palmtree.math.core.implements\palmtree.math.core.implements\pmc_internal.h

; 860  :     _BitScanReverse(&pos, x);

	bsr	eax, esi
; File z:\sources\lunor\repos\rougemeilland\palmtree.math.core.implements\palmtree.math.core.implements\pmc_exclusiveor.c

; 217  :         if ((result = AllocateNumber(w, w_bit_count, &nz_check_code)) != PMC_STATUS_OK)

	mov	ebx, DWORD PTR _w$[ebp]
; File z:\sources\lunor\repos\rougemeilland\palmtree.math.core.implements\palmtree.math.core.implements\pmc_internal.h

; 866  :     return (sizeof(x) * 8 - 1 - pos);

	mov	ecx, 31					; 0000001fH
	sub	ecx, eax
; File z:\sources\lunor\repos\rougemeilland\palmtree.math.core.implements\palmtree.math.core.implements\pmc_exclusiveor.c

; 214  :         __UNIT_TYPE v_bit_count = sizeof(v) * 8 - _LZCNT_ALT_32(v);

	mov	eax, 32					; 00000020H
	sub	eax, ecx

; 217  :         if ((result = AllocateNumber(w, w_bit_count, &nz_check_code)) != PMC_STATUS_OK)

	lea	ecx, DWORD PTR _nz_check_code$1[ebp]
; File z:\sources\lunor\repos\rougemeilland\palmtree.math.core.implements\palmtree.math.core.implements\pmc_internal.h

; 463  :     return (x >= y ? x : y);

	cmp	DWORD PTR [edi+4], eax
; File z:\sources\lunor\repos\rougemeilland\palmtree.math.core.implements\palmtree.math.core.implements\pmc_exclusiveor.c

; 217  :         if ((result = AllocateNumber(w, w_bit_count, &nz_check_code)) != PMC_STATUS_OK)

	push	ecx
; File z:\sources\lunor\repos\rougemeilland\palmtree.math.core.implements\palmtree.math.core.implements\pmc_internal.h

; 463  :     return (x >= y ? x : y);

	cmovae	eax, DWORD PTR [edi+4]
; File z:\sources\lunor\repos\rougemeilland\palmtree.math.core.implements\palmtree.math.core.implements\pmc_exclusiveor.c

; 215  :         __UNIT_TYPE w_bit_count = _MAXIMUM_UNIT(u_bit_count, v_bit_count) + 1;

	inc	eax

; 217  :         if ((result = AllocateNumber(w, w_bit_count, &nz_check_code)) != PMC_STATUS_OK)

	push	eax
	push	ebx
	call	_AllocateNumber
	add	esp, 12					; 0000000cH
	test	eax, eax
	jne	SHORT $LN1@PMC_Exclus

; 218  :             return (result);
; 219  :         ExclusiveOr_X_1W(u->BLOCK, u->UNIT_WORD_COUNT, v, (*w)->BLOCK);

	mov	eax, DWORD PTR [ebx]
	mov	ecx, DWORD PTR [edi]
	mov	edi, DWORD PTR [edi+24]
	mov	edx, DWORD PTR [eax+24]
	mov	eax, DWORD PTR [edi]
	xor	eax, esi
	mov	DWORD PTR [edx], eax

; 40   :     if (u_count == 1)

	cmp	ecx, 1
	je	SHORT $LN23@PMC_Exclus

; 41   :         w[0] = u[0] ^ v;
; 42   :     else
; 43   :     {
; 44   :         w[0] = u[0] ^ v;
; 45   :         _COPY_MEMORY_UNIT(w + 1, u + 1, u_count - 1);

	lea	esi, DWORD PTR [edi+4]
	dec	ecx
	lea	edi, DWORD PTR [edx+4]
; File z:\sources\lunor\repos\rougemeilland\palmtree.math.core.implements\palmtree.math.core.implements\pmc_internal.h

; 327  :     __movsd((unsigned long *)d, (unsigned long *)s, (unsigned long)count);

	rep movsd
$LN23@PMC_Exclus:
; File z:\sources\lunor\repos\rougemeilland\palmtree.math.core.implements\palmtree.math.core.implements\pmc_exclusiveor.c

; 220  :         if ((result = CheckBlockLight((*w)->BLOCK, nz_check_code)) != PMC_STATUS_OK)

	mov	eax, DWORD PTR [ebx]
	push	DWORD PTR _nz_check_code$1[ebp]
	push	DWORD PTR [eax+24]
	call	_CheckBlockLight
	add	esp, 8
	test	eax, eax
	jne	SHORT $LN1@PMC_Exclus

; 221  :             return (result);
; 222  :         CommitNumber(*w);

	push	DWORD PTR [ebx]
	call	_CommitNumber

; 223  :         if ((*w)->IS_ZERO)

	mov	eax, DWORD PTR [ebx]
	add	esp, 4
	test	BYTE PTR [eax+16], 2
	je	SHORT $LN12@PMC_Exclus

; 224  :         {
; 225  :             DeallocateNumber(*w);

	push	eax
	call	_DeallocateNumber
	add	esp, 4

; 226  :             *w = &number_zero;

	mov	DWORD PTR [ebx], OFFSET _number_zero
$LN12@PMC_Exclus:

; 227  :         }
; 228  :     }
; 229  :     return (PMC_STATUS_OK);

	xor	eax, eax
$LN1@PMC_Exclus:
	pop	edi

; 230  : }

	pop	esi
	pop	ebx
	pop	ebp
	ret	0
_PMC_ExclusiveOr_X_I_Imp ENDP
_TEXT	ENDS
; Function compile flags: /Ogtp
; File z:\sources\lunor\repos\rougemeilland\palmtree.math.core.implements\palmtree.math.core.implements\pmc_exclusiveor.c
; File z:\sources\lunor\repos\rougemeilland\palmtree.math.core.implements\palmtree.math.core.implements\pmc_internal.h
; File z:\sources\lunor\repos\rougemeilland\palmtree.math.core.implements\palmtree.math.core.implements\pmc_exclusiveor.c
;	COMDAT _ExclusiveOr_X_X
_TEXT	SEGMENT
tv2458 = -32						; size = 4
tv2453 = -32						; size = 4
tv2455 = -28						; size = 4
tv2454 = -28						; size = 4
tv2456 = -24						; size = 4
tv2459 = -20						; size = 4
_count$1$ = -16						; size = 4
_v$1$ = -12						; size = 4
tv2460 = -8						; size = 4
tv2457 = -8						; size = 4
_w$1$ = -8						; size = 4
_u$1$ = -4						; size = 4
_u$ = 8							; size = 4
_u_count$ = 12						; size = 4
_v$ = 16						; size = 4
_v_count$ = 20						; size = 4
_w$ = 24						; size = 4
_ExclusiveOr_X_X PROC					; COMDAT

; 72   : {

	push	ebp
	mov	ebp, esp
	sub	esp, 32					; 00000020H

; 73   :     __UNIT_TYPE or_count = v_count;
; 74   :     __UNIT_TYPE cp_count = u_count - v_count;
; 75   : 
; 76   :     __UNIT_TYPE count = or_count >> 5;
; 77   :     while (count > 0)

	mov	edx, DWORD PTR _v$[ebp]
	push	ebx
	mov	ebx, DWORD PTR _v_count$[ebp]
	mov	eax, ebx
	sub	DWORD PTR _u_count$[ebp], ebx
	push	esi
	mov	esi, DWORD PTR _u$[ebp]
	shr	eax, 5
	mov	DWORD PTR _count$1$[ebp], eax
	mov	DWORD PTR _u$1$[ebp], esi
	push	edi
	mov	edi, DWORD PTR _w$[ebp]
	mov	DWORD PTR _w$1$[ebp], edi
	test	eax, eax
	je	$LN3@ExclusiveO
	mov	DWORD PTR _v$1$[ebp], edx
$LL2@ExclusiveO:

; 78   :     {
; 79   :         w[0] = u[0] ^ v[0];

	lea	ecx, DWORD PTR [edx+16]
	xor	ebx, ebx
	lea	eax, DWORD PTR [ecx+108]
	cmp	edi, eax
	ja	SHORT $LN29@ExclusiveO
	lea	eax, DWORD PTR [edi+124]
	cmp	eax, edx
	jae	SHORT $LN69@ExclusiveO
$LN29@ExclusiveO:
	lea	eax, DWORD PTR [esi+48]
	mov	DWORD PTR tv2453[ebp], eax
	add	eax, 76					; 0000004cH
	cmp	edi, eax
	ja	SHORT $LN30@ExclusiveO
	lea	eax, DWORD PTR [edi+124]
	cmp	eax, esi
	jb	SHORT $LN30@ExclusiveO
$LN69@ExclusiveO:
	mov	DWORD PTR tv2460[ebp], esi
	mov	ecx, edi
	sub	esi, edx
	mov	eax, edx
	sub	ecx, edx
	mov	ebx, 32					; 00000020H
	mov	DWORD PTR tv2457[ebp], ecx
	mov	edx, ecx
	npad	3
$LL67@ExclusiveO:
	mov	ecx, DWORD PTR [eax+esi]
	lea	eax, DWORD PTR [eax+4]
	xor	ecx, DWORD PTR [eax-4]
	mov	DWORD PTR [eax+edx-4], ecx
	sub	ebx, 1
	jne	SHORT $LL67@ExclusiveO
	mov	esi, DWORD PTR _u$1$[ebp]
	jmp	$LN73@ExclusiveO
$LN30@ExclusiveO:
	lea	eax, DWORD PTR [edi+32]
	mov	edi, esi
	mov	esi, DWORD PTR _w$1$[ebp]
	sub	edi, edx
	sub	esi, edx
	mov	DWORD PTR tv2459[ebp], edi
	mov	DWORD PTR tv2456[ebp], esi
	mov	esi, DWORD PTR _u$1$[ebp]
	mov	edx, esi
	sub	edx, DWORD PTR _w$1$[ebp]
	mov	DWORD PTR tv2454[ebp], edx
	mov	edx, edi
	mov	edi, DWORD PTR tv2456[ebp]
	npad	4
$LL14@ExclusiveO:
	movups	xmm1, XMMWORD PTR [esi+ebx*4]
	mov	esi, DWORD PTR tv2454[ebp]
	lea	ecx, DWORD PTR [ecx+64]
	movups	xmm0, XMMWORD PTR [ecx-80]
	lea	eax, DWORD PTR [eax+64]
	pxor	xmm1, xmm0
	movups	xmm0, XMMWORD PTR [ecx-64]
	movups	XMMWORD PTR [eax-96], xmm1
	movups	xmm1, XMMWORD PTR [edx+ecx-64]
	pxor	xmm1, xmm0
	movups	xmm0, XMMWORD PTR [ecx-48]
	movups	XMMWORD PTR [edi+ecx-64], xmm1
	movups	xmm1, XMMWORD PTR [esi+eax-64]
	mov	esi, DWORD PTR tv2453[ebp]
	pxor	xmm1, xmm0
	movups	xmm0, XMMWORD PTR [ecx-32]
	movups	XMMWORD PTR [eax-64], xmm1
	movups	xmm1, XMMWORD PTR [esi+ebx*4]
	mov	esi, DWORD PTR _u$1$[ebp]
	add	ebx, 16					; 00000010H
	pxor	xmm1, xmm0
	movups	XMMWORD PTR [eax-48], xmm1
	cmp	ebx, 32					; 00000020H
	jl	SHORT $LL14@ExclusiveO
	mov	edi, DWORD PTR _w$1$[ebp]
$LN73@ExclusiveO:

; 80   :         w[1] = u[1] ^ v[1];
; 81   :         w[2] = u[2] ^ v[2];
; 82   :         w[3] = u[3] ^ v[3];
; 83   :         w[4] = u[4] ^ v[4];
; 84   :         w[5] = u[5] ^ v[5];
; 85   :         w[6] = u[6] ^ v[6];
; 86   :         w[7] = u[7] ^ v[7];
; 87   :         w[8] = u[8] ^ v[8];
; 88   :         w[9] = u[9] ^ v[9];
; 89   :         w[10] = u[10] ^ v[10];
; 90   :         w[11] = u[11] ^ v[11];
; 91   :         w[12] = u[12] ^ v[12];
; 92   :         w[13] = u[13] ^ v[13];
; 93   :         w[14] = u[14] ^ v[14];
; 94   :         w[15] = u[15] ^ v[15];
; 95   :         w[16] = u[16] ^ v[16];
; 96   :         w[17] = u[17] ^ v[17];
; 97   :         w[18] = u[18] ^ v[18];
; 98   :         w[19] = u[19] ^ v[19];
; 99   :         w[20] = u[20] ^ v[20];
; 100  :         w[21] = u[21] ^ v[21];
; 101  :         w[22] = u[22] ^ v[22];
; 102  :         w[23] = u[23] ^ v[23];
; 103  :         w[24] = u[24] ^ v[24];
; 104  :         w[25] = u[25] ^ v[25];
; 105  :         w[26] = u[26] ^ v[26];
; 106  :         w[27] = u[27] ^ v[27];
; 107  :         w[28] = u[28] ^ v[28];
; 108  :         w[29] = u[29] ^ v[29];
; 109  :         w[30] = u[30] ^ v[30];
; 110  :         w[31] = u[31] ^ v[31];
; 111  :         u += 32;

	mov	edx, DWORD PTR _v$1$[ebp]
	sub	esi, -128				; ffffff80H

; 112  :         v += 32;

	sub	edx, -128				; ffffff80H
	mov	DWORD PTR _u$1$[ebp], esi

; 113  :         w += 32;

	sub	edi, -128				; ffffff80H
	mov	DWORD PTR _v$1$[ebp], edx

; 114  :         --count;

	sub	DWORD PTR _count$1$[ebp], 1
	mov	DWORD PTR _w$1$[ebp], edi
	jne	$LL2@ExclusiveO

; 73   :     __UNIT_TYPE or_count = v_count;
; 74   :     __UNIT_TYPE cp_count = u_count - v_count;
; 75   : 
; 76   :     __UNIT_TYPE count = or_count >> 5;
; 77   :     while (count > 0)

	mov	ebx, DWORD PTR _v_count$[ebp]
$LN3@ExclusiveO:

; 115  :     }
; 116  : 
; 117  :     if (or_count & 0x10)

	test	bl, 16					; 00000010H
	je	$LN4@ExclusiveO

; 118  :     {
; 119  :         w[0] = u[0] ^ v[0];

	lea	eax, DWORD PTR [edx+60]
	lea	ecx, DWORD PTR [edi+60]
	cmp	edi, eax
	ja	SHORT $LN33@ExclusiveO
	cmp	ecx, edx
	jae	SHORT $LN71@ExclusiveO
$LN33@ExclusiveO:
	lea	eax, DWORD PTR [esi+60]
	cmp	edi, eax
	ja	SHORT $LN34@ExclusiveO
	cmp	ecx, esi
	jb	SHORT $LN34@ExclusiveO
$LN71@ExclusiveO:
	mov	eax, esi
	mov	ecx, edx
	sub	eax, edx
	mov	ebx, 16					; 00000010H
	mov	DWORD PTR tv2458[ebp], eax
	mov	eax, edi
	mov	edi, DWORD PTR tv2458[ebp]
	sub	eax, edx
	mov	DWORD PTR tv2455[ebp], eax
	mov	esi, eax
	npad	5
$LL68@ExclusiveO:
	mov	eax, DWORD PTR [edi+ecx]
	lea	ecx, DWORD PTR [ecx+4]
	xor	eax, DWORD PTR [ecx-4]
	mov	DWORD PTR [esi+ecx-4], eax
	sub	ebx, 1
	jne	SHORT $LL68@ExclusiveO
	mov	edi, DWORD PTR _w$1$[ebp]
	mov	esi, DWORD PTR _u$1$[ebp]
	mov	ebx, DWORD PTR _v_count$[ebp]
	jmp	SHORT $LN17@ExclusiveO
$LN34@ExclusiveO:
	movups	xmm0, XMMWORD PTR [edx]
	movups	xmm1, XMMWORD PTR [esi]
	pxor	xmm1, xmm0
	movups	xmm0, XMMWORD PTR [edx+16]
	movups	XMMWORD PTR [edi], xmm1
	movups	xmm1, XMMWORD PTR [esi+16]
	pxor	xmm1, xmm0
	movups	xmm0, XMMWORD PTR [edx+32]
	movups	XMMWORD PTR [edi+16], xmm1
	movups	xmm1, XMMWORD PTR [esi+32]
	pxor	xmm1, xmm0
	movups	xmm0, XMMWORD PTR [edx+48]
	movups	XMMWORD PTR [edi+32], xmm1
	movups	xmm1, XMMWORD PTR [esi+48]
	pxor	xmm1, xmm0
	movups	XMMWORD PTR [edi+48], xmm1
$LN17@ExclusiveO:

; 120  :         w[1] = u[1] ^ v[1];
; 121  :         w[2] = u[2] ^ v[2];
; 122  :         w[3] = u[3] ^ v[3];
; 123  :         w[4] = u[4] ^ v[4];
; 124  :         w[5] = u[5] ^ v[5];
; 125  :         w[6] = u[6] ^ v[6];
; 126  :         w[7] = u[7] ^ v[7];
; 127  :         w[8] = u[8] ^ v[8];
; 128  :         w[9] = u[9] ^ v[9];
; 129  :         w[10] = u[10] ^ v[10];
; 130  :         w[11] = u[11] ^ v[11];
; 131  :         w[12] = u[12] ^ v[12];
; 132  :         w[13] = u[13] ^ v[13];
; 133  :         w[14] = u[14] ^ v[14];
; 134  :         w[15] = u[15] ^ v[15];
; 135  :         u += 16;

	add	esi, 64					; 00000040H

; 136  :         v += 16;

	add	edx, 64					; 00000040H

; 137  :         w += 16;

	add	edi, 64					; 00000040H
$LN4@ExclusiveO:

; 138  :     }
; 139  : 
; 140  :     if (or_count & 0x8)

	test	bl, 8
	je	SHORT $LN5@ExclusiveO

; 141  :     {
; 142  :         w[0] = u[0] ^ v[0];

	mov	eax, DWORD PTR [esi]
	xor	eax, DWORD PTR [edx]
	mov	DWORD PTR [edi], eax
	mov	eax, DWORD PTR [esi+4]
	xor	eax, DWORD PTR [edx+4]
	mov	DWORD PTR [edi+4], eax
	mov	eax, DWORD PTR [esi+8]
	xor	eax, DWORD PTR [edx+8]
	mov	DWORD PTR [edi+8], eax
	mov	eax, DWORD PTR [esi+12]
	xor	eax, DWORD PTR [edx+12]
	mov	DWORD PTR [edi+12], eax
	mov	eax, DWORD PTR [esi+16]
	xor	eax, DWORD PTR [edx+16]
	mov	DWORD PTR [edi+16], eax
	mov	eax, DWORD PTR [esi+20]
	xor	eax, DWORD PTR [edx+20]
	mov	DWORD PTR [edi+20], eax
	mov	eax, DWORD PTR [esi+24]
	xor	eax, DWORD PTR [edx+24]
	mov	DWORD PTR [edi+24], eax
	mov	eax, DWORD PTR [esi+28]

; 143  :         w[1] = u[1] ^ v[1];
; 144  :         w[2] = u[2] ^ v[2];
; 145  :         w[3] = u[3] ^ v[3];
; 146  :         w[4] = u[4] ^ v[4];
; 147  :         w[5] = u[5] ^ v[5];
; 148  :         w[6] = u[6] ^ v[6];
; 149  :         w[7] = u[7] ^ v[7];
; 150  :         u += 8;

	add	esi, 32					; 00000020H
	xor	eax, DWORD PTR [edx+28]

; 151  :         v += 8;

	add	edx, 32					; 00000020H
	mov	DWORD PTR [edi+28], eax

; 152  :         w += 8;

	add	edi, 32					; 00000020H
$LN5@ExclusiveO:

; 153  :     }
; 154  : 
; 155  :     if (or_count & 0x4)

	test	bl, 4
	je	SHORT $LN6@ExclusiveO

; 156  :     {
; 157  :         w[0] = u[0] ^ v[0];

	mov	eax, DWORD PTR [esi]
	xor	eax, DWORD PTR [edx]
	mov	DWORD PTR [edi], eax
	mov	eax, DWORD PTR [esi+4]
	xor	eax, DWORD PTR [edx+4]
	mov	DWORD PTR [edi+4], eax
	mov	eax, DWORD PTR [esi+8]
	xor	eax, DWORD PTR [edx+8]
	mov	DWORD PTR [edi+8], eax
	mov	eax, DWORD PTR [esi+12]

; 158  :         w[1] = u[1] ^ v[1];
; 159  :         w[2] = u[2] ^ v[2];
; 160  :         w[3] = u[3] ^ v[3];
; 161  :         u += 4;

	add	esi, 16					; 00000010H
	xor	eax, DWORD PTR [edx+12]

; 162  :         v += 4;

	add	edx, 16					; 00000010H
	mov	DWORD PTR [edi+12], eax

; 163  :         w += 4;

	add	edi, 16					; 00000010H
$LN6@ExclusiveO:

; 164  :     }
; 165  : 
; 166  :     if (or_count & 0x2)

	test	bl, 2
	je	SHORT $LN7@ExclusiveO

; 167  :     {
; 168  :         w[0] = u[0] ^ v[0];

	mov	eax, DWORD PTR [esi]
	xor	eax, DWORD PTR [edx]
	mov	DWORD PTR [edi], eax

; 169  :         w[1] = u[1] ^ v[1];

	mov	eax, DWORD PTR [esi+4]

; 170  :         u += 2;

	add	esi, 8
	xor	eax, DWORD PTR [edx+4]

; 171  :         v += 2;

	add	edx, 8
	mov	DWORD PTR [edi+4], eax

; 172  :         w += 2;

	add	edi, 8
$LN7@ExclusiveO:

; 173  :     }
; 174  : 
; 175  :     if (or_count & 0x1)

	test	bl, 1
	je	SHORT $LN8@ExclusiveO

; 176  :     {
; 177  :         w[0] = u[0] ^ v[0];

	mov	eax, DWORD PTR [esi]

; 178  :         u += 1;

	add	esi, 4
	xor	eax, DWORD PTR [edx]
	mov	DWORD PTR [edi], eax

; 179  :         v += 1;
; 180  :         w += 1;

	add	edi, 4
$LN8@ExclusiveO:
; File z:\sources\lunor\repos\rougemeilland\palmtree.math.core.implements\palmtree.math.core.implements\pmc_internal.h

; 327  :     __movsd((unsigned long *)d, (unsigned long *)s, (unsigned long)count);

	mov	ecx, DWORD PTR _u_count$[ebp]
	rep movsd
	pop	edi
	pop	esi
	pop	ebx
; File z:\sources\lunor\repos\rougemeilland\palmtree.math.core.implements\palmtree.math.core.implements\pmc_exclusiveor.c

; 184  : }

	mov	esp, ebp
	pop	ebp
	ret	0
_ExclusiveOr_X_X ENDP
_TEXT	ENDS
; Function compile flags: /Ogtp
; File z:\sources\lunor\repos\rougemeilland\palmtree.math.core.implements\palmtree.math.core.implements\pmc_exclusiveor.c
; File z:\sources\lunor\repos\rougemeilland\palmtree.math.core.implements\palmtree.math.core.implements\pmc_internal.h
; File z:\sources\lunor\repos\rougemeilland\palmtree.math.core.implements\palmtree.math.core.implements\pmc_exclusiveor.c
;	COMDAT _ExclusiveOr_X_2W
_TEXT	SEGMENT
_u$ = 8							; size = 4
_u_count$ = 12						; size = 4
_v_hi$ = 16						; size = 4
_v_lo$ = 20						; size = 4
_w$ = 24						; size = 4
_ExclusiveOr_X_2W PROC					; COMDAT

; 51   : {

	push	ebp
	mov	ebp, esp

; 52   :     if (u_count == 1)

	mov	edx, DWORD PTR _u_count$[ebp]
	mov	ecx, DWORD PTR _v_hi$[ebp]
	push	esi
	mov	esi, DWORD PTR _u$[ebp]
	push	edi
	mov	edi, DWORD PTR _w$[ebp]
	mov	eax, DWORD PTR [esi]
	xor	eax, DWORD PTR _v_lo$[ebp]
	mov	DWORD PTR [edi], eax
	cmp	edx, 1
	jne	SHORT $LN2@ExclusiveO

; 53   :     {
; 54   :         w[0] = u[0] ^ v_lo;
; 55   :         w[1] = v_hi;

	mov	DWORD PTR [edi+4], ecx
	pop	edi

; 68   : }

	pop	esi
	pop	ebp
	ret	0
$LN2@ExclusiveO:

; 56   :     }
; 57   :     else if (u_count == 2)

	mov	eax, DWORD PTR [esi+4]
	xor	eax, ecx
	mov	DWORD PTR [edi+4], eax
	cmp	edx, 2
	je	SHORT $LN7@ExclusiveO

; 58   :     {
; 59   :         w[0] = u[0] ^ v_lo;
; 60   :         w[1] = u[1] ^ v_hi;
; 61   :     }
; 62   :     else
; 63   :     {
; 64   :         w[0] = u[0] ^ v_lo;
; 65   :         w[1] = u[1] ^ v_hi;
; 66   :         _COPY_MEMORY_UNIT(w + 2, u + 2, u_count - 2);

	add	esi, 8
	lea	ecx, DWORD PTR [edx-2]
	add	edi, 8
; File z:\sources\lunor\repos\rougemeilland\palmtree.math.core.implements\palmtree.math.core.implements\pmc_internal.h

; 327  :     __movsd((unsigned long *)d, (unsigned long *)s, (unsigned long)count);

	rep movsd
$LN7@ExclusiveO:
	pop	edi
; File z:\sources\lunor\repos\rougemeilland\palmtree.math.core.implements\palmtree.math.core.implements\pmc_exclusiveor.c

; 68   : }

	pop	esi
	pop	ebp
	ret	0
_ExclusiveOr_X_2W ENDP
_TEXT	ENDS
; Function compile flags: /Ogtp
; File z:\sources\lunor\repos\rougemeilland\palmtree.math.core.implements\palmtree.math.core.implements\pmc_exclusiveor.c
; File z:\sources\lunor\repos\rougemeilland\palmtree.math.core.implements\palmtree.math.core.implements\pmc_internal.h
; File z:\sources\lunor\repos\rougemeilland\palmtree.math.core.implements\palmtree.math.core.implements\pmc_exclusiveor.c
;	COMDAT _ExclusiveOr_X_1W
_TEXT	SEGMENT
_u$ = 8							; size = 4
_u_count$ = 12						; size = 4
_v$ = 16						; size = 4
_w$ = 20						; size = 4
_ExclusiveOr_X_1W PROC					; COMDAT

; 39   : {

	push	ebp
	mov	ebp, esp

; 40   :     if (u_count == 1)

	mov	ecx, DWORD PTR _u_count$[ebp]
	push	esi
	mov	esi, DWORD PTR _u$[ebp]
	push	edi
	mov	edi, DWORD PTR _w$[ebp]
	mov	eax, DWORD PTR [esi]
	xor	eax, DWORD PTR _v$[ebp]
	mov	DWORD PTR [edi], eax
	cmp	ecx, 1
	je	SHORT $LN5@ExclusiveO

; 41   :         w[0] = u[0] ^ v;
; 42   :     else
; 43   :     {
; 44   :         w[0] = u[0] ^ v;
; 45   :         _COPY_MEMORY_UNIT(w + 1, u + 1, u_count - 1);

	dec	ecx
	add	esi, 4
	add	edi, 4
; File z:\sources\lunor\repos\rougemeilland\palmtree.math.core.implements\palmtree.math.core.implements\pmc_internal.h

; 327  :     __movsd((unsigned long *)d, (unsigned long *)s, (unsigned long)count);

	rep movsd
$LN5@ExclusiveO:
	pop	edi
; File z:\sources\lunor\repos\rougemeilland\palmtree.math.core.implements\palmtree.math.core.implements\pmc_exclusiveor.c

; 47   : }

	pop	esi
	pop	ebp
	ret	0
_ExclusiveOr_X_1W ENDP
_TEXT	ENDS
; Function compile flags: /Ogtp
; File z:\sources\lunor\repos\rougemeilland\palmtree.math.core.implements\palmtree.math.core.implements\pmc_internal.h
;	COMDAT __LZCNT_ALT_UNIT
_TEXT	SEGMENT
_x$ = 8							; size = 4
__LZCNT_ALT_UNIT PROC					; COMDAT

; 888  : {

	push	ebp
	mov	ebp, esp

; 889  :     if (x == 0)

	mov	eax, DWORD PTR _x$[ebp]
	test	eax, eax
	jne	SHORT $LN2@LZCNT_ALT_

; 890  :         return (sizeof(x) * 8);

	mov	eax, 32					; 00000020H

; 914  : }

	pop	ebp
	ret	0
$LN2@LZCNT_ALT_:

; 891  : #ifdef _M_IX86
; 892  :     _UINT32_T pos;
; 893  : #ifdef _MSC_VER
; 894  :     _BitScanReverse(&pos, x);

	bsr	ecx, eax

; 895  : #elif defined(__GNUC__)
; 896  :     __asm__("bsrl %1, %0" : "=r"(pos) : "rm"(x));
; 897  : #else
; 898  : #error unknown compiler
; 899  : #endif
; 900  : #elif defined(_M_X64)
; 901  : #ifdef _MSC_VER
; 902  :     _UINT32_T pos;
; 903  :     _BitScanReverse64(&pos, x);
; 904  : #elif defined(__GNUC__)
; 905  :     _UINT64_T pos;
; 906  :     __asm__("bsrq %1, %0" : "=r"(pos) : "rm"(x));
; 907  : #else
; 908  : #error unknown compiler
; 909  : #endif
; 910  : #else
; 911  : #error unknown platform
; 912  : #endif
; 913  :     return (sizeof(x) * 8 - 1 - pos);

	mov	eax, 31					; 0000001fH
	sub	eax, ecx

; 914  : }

	pop	ebp
	ret	0
__LZCNT_ALT_UNIT ENDP
_TEXT	ENDS
; Function compile flags: /Ogtp
; File z:\sources\lunor\repos\rougemeilland\palmtree.math.core.implements\palmtree.math.core.implements\pmc_internal.h
;	COMDAT __LZCNT_ALT_32
_TEXT	SEGMENT
_x$ = 8							; size = 4
__LZCNT_ALT_32 PROC					; COMDAT

; 855  : {

	push	ebp
	mov	ebp, esp

; 856  :     if (x == 0)

	mov	eax, DWORD PTR _x$[ebp]
	test	eax, eax
	jne	SHORT $LN2@LZCNT_ALT_

; 857  :         return (sizeof(x) * 8);

	mov	eax, 32					; 00000020H

; 867  : }

	pop	ebp
	ret	0
$LN2@LZCNT_ALT_:

; 858  :     _UINT32_T pos;
; 859  : #ifdef _MSC_VER
; 860  :     _BitScanReverse(&pos, x);

	bsr	ecx, eax

; 861  : #elif defined(__GNUC__)
; 862  :     __asm__( "bsrl %1, %0" : "=r"(pos) : "rm"(x) );
; 863  : #else
; 864  : #error unknown compiler
; 865  : #endif
; 866  :     return (sizeof(x) * 8 - 1 - pos);

	mov	eax, 31					; 0000001fH
	sub	eax, ecx

; 867  : }

	pop	ebp
	ret	0
__LZCNT_ALT_32 ENDP
_TEXT	ENDS
; Function compile flags: /Ogtp
; File z:\sources\lunor\repos\rougemeilland\palmtree.math.core.implements\palmtree.math.core.implements\pmc_internal.h
;	COMDAT __MAXIMUM_UNIT
_TEXT	SEGMENT
_x$ = 8							; size = 4
_y$ = 12						; size = 4
__MAXIMUM_UNIT PROC					; COMDAT

; 462  : {

	push	ebp
	mov	ebp, esp

; 463  :     return (x >= y ? x : y);

	mov	eax, DWORD PTR _y$[ebp]
	cmp	DWORD PTR _x$[ebp], eax
	cmovae	eax, DWORD PTR _x$[ebp]

; 464  : }

	pop	ebp
	ret	0
__MAXIMUM_UNIT ENDP
_TEXT	ENDS
; Function compile flags: /Ogtp
; File z:\sources\lunor\repos\rougemeilland\palmtree.math.core.implements\palmtree.math.core.implements\pmc_internal.h
;	COMDAT __FROMDWORDTOWORD
_TEXT	SEGMENT
_value$ = 8						; size = 8
_result_high$ = 16					; size = 4
__FROMDWORDTOWORD PROC					; COMDAT

; 441  : {

	push	ebp
	mov	ebp, esp

; 442  :     *result_high = (_UINT32_T)(value >> 32);

	mov	eax, DWORD PTR _result_high$[ebp]
	mov	ecx, DWORD PTR _value$[ebp+4]
	mov	DWORD PTR [eax], ecx

; 443  :     return ((_UINT32_T)value);

	mov	eax, DWORD PTR _value$[ebp]

; 444  : }

	pop	ebp
	ret	0
__FROMDWORDTOWORD ENDP
_TEXT	ENDS
; Function compile flags: /Ogtp
; File z:\sources\lunor\repos\rougemeilland\palmtree.math.core.implements\palmtree.math.core.implements\pmc_internal.h
;	COMDAT __COPY_MEMORY_UNIT
_TEXT	SEGMENT
_d$ = 8							; size = 4
_s$ = 12						; size = 4
_count$ = 16						; size = 4
__COPY_MEMORY_UNIT PROC					; COMDAT

; 325  : {

	push	ebp
	mov	ebp, esp

; 326  : #ifdef _M_IX86
; 327  :     __movsd((unsigned long *)d, (unsigned long *)s, (unsigned long)count);

	mov	ecx, DWORD PTR _count$[ebp]
	push	esi
	mov	esi, DWORD PTR _s$[ebp]
	push	edi
	mov	edi, DWORD PTR _d$[ebp]
	rep movsd
	pop	edi
	pop	esi

; 328  : #elif defined(_M_X64)
; 329  :     __movsq(d, s, count);
; 330  : #else
; 331  : #error unknown platform
; 332  : #endif
; 333  : }

	pop	ebp
	ret	0
__COPY_MEMORY_UNIT ENDP
_TEXT	ENDS
; Function compile flags: /Ogtp
; File z:\sources\lunor\repos\rougemeilland\palmtree.math.core.implements\palmtree.math.core.implements\pmc_exclusiveor.c
; File z:\sources\lunor\repos\rougemeilland\palmtree.math.core.implements\palmtree.math.core.implements\pmc_internal.h
; File z:\sources\lunor\repos\rougemeilland\palmtree.math.core.implements\palmtree.math.core.implements\pmc_exclusiveor.c
; File z:\sources\lunor\repos\rougemeilland\palmtree.math.core.implements\palmtree.math.core.implements\pmc_internal.h
; File z:\sources\lunor\repos\rougemeilland\palmtree.math.core.implements\palmtree.math.core.implements\pmc_exclusiveor.c
;	COMDAT _PMC_ExclusiveOr_X_X@12
_TEXT	SEGMENT
tv301 = 8						; size = 4
_u$ = 8							; size = 4
_nw$ = 12						; size = 4
_v$ = 12						; size = 4
_nw_light_check_code$1 = 16				; size = 4
_w$ = 16						; size = 4
_PMC_ExclusiveOr_X_X@12 PROC				; COMDAT

; 411  : {

	push	ebp
	mov	ebp, esp
	push	ebx
	push	esi
	mov	esi, DWORD PTR _v$[ebp]
	push	edi
	mov	edi, DWORD PTR _u$[ebp]

; 412  :     if (u == NULL)

	test	edi, edi
	je	$LN20@PMC_Exclus

; 413  :         return (PMC_STATUS_ARGUMENT_ERROR);
; 414  :     if (v == NULL)

	test	esi, esi
	je	$LN20@PMC_Exclus

; 415  :         return (PMC_STATUS_ARGUMENT_ERROR);
; 416  :     if (w == NULL)

	mov	ebx, DWORD PTR _w$[ebp]
	test	ebx, ebx
	je	$LN20@PMC_Exclus

; 418  :     NUMBER_HEADER* nu = (NUMBER_HEADER*)u;
; 419  :     NUMBER_HEADER* nv = (NUMBER_HEADER*)v;
; 420  :     PMC_STATUS_CODE result;
; 421  :     if ((result = CheckNumber(nu)) != PMC_STATUS_OK)

	push	edi
	call	_CheckNumber
	add	esp, 4
	test	eax, eax
	jne	$LN1@PMC_Exclus

; 422  :         return (result);
; 423  :     if ((result = CheckNumber(nv)) != PMC_STATUS_OK)

	push	esi
	call	_CheckNumber
	add	esp, 4
	test	eax, eax
	jne	$LN1@PMC_Exclus

; 424  :         return (result);
; 425  :     NUMBER_HEADER* nw;
; 426  :     if (nu->IS_ZERO)

	test	BYTE PTR [edi+16], 2
	lea	eax, DWORD PTR _nw$[ebp]
	je	SHORT $LN7@PMC_Exclus

; 427  :     {
; 428  :         if ((result = DuplicateNumber(nv, &nw)) != PMC_STATUS_OK)

	push	eax
	push	esi
	call	_DuplicateNumber
	add	esp, 8
	test	eax, eax
	je	SHORT $LN21@PMC_Exclus

; 466  : }

	pop	edi
	pop	esi
	pop	ebx
	pop	ebp
	ret	12					; 0000000cH
$LN7@PMC_Exclus:

; 429  :             return (result);
; 430  :     }
; 431  :     else if (nv->IS_ZERO)

	test	BYTE PTR [esi+16], 2
	je	SHORT $LN10@PMC_Exclus

; 432  :     {
; 433  :         if ((result = DuplicateNumber(nu, &nw)) != PMC_STATUS_OK)

	push	eax
	push	edi
	call	_DuplicateNumber
	add	esp, 8
	test	eax, eax
	jne	$LN1@PMC_Exclus
$LN21@PMC_Exclus:

; 427  :     {
; 428  :         if ((result = DuplicateNumber(nv, &nw)) != PMC_STATUS_OK)

	mov	eax, DWORD PTR _nw$[ebp]
	pop	edi

; 458  :         }
; 459  :     }
; 460  :     *w = nw;

	mov	DWORD PTR [ebx], eax

; 461  : #ifdef _DEBUG
; 462  :     if ((result = CheckNumber(*w)) != PMC_STATUS_OK)
; 463  :         return (result);
; 464  : #endif
; 465  :     return (PMC_STATUS_OK);

	xor	eax, eax

; 466  : }

	pop	esi
	pop	ebx
	pop	ebp
	ret	12					; 0000000cH
$LN10@PMC_Exclus:

; 434  :             return (result);
; 435  :     }
; 436  :     else
; 437  :     {
; 438  :         if (nu->UNIT_WORD_COUNT < nv->UNIT_WORD_COUNT)

	mov	ecx, DWORD PTR [edi]

; 439  :         {
; 440  :             NUMBER_HEADER* t = nu;
; 441  :             nu = nv;
; 442  :             nv = t;
; 443  :         }
; 444  :         __UNIT_TYPE u_bit_count = nu->UNIT_BIT_COUNT;

	mov	edx, edi
	cmp	ecx, DWORD PTR [esi]
	cmovae	edx, esi
	cmovae	esi, edi
	mov	DWORD PTR tv301[ebp], edx

; 445  :         __UNIT_TYPE v_bit_count = nv->UNIT_BIT_COUNT;

	mov	ecx, DWORD PTR [edx+4]

; 448  :         if ((result = AllocateNumber(&nw, w_bit_count, &nw_light_check_code)) != PMC_STATUS_OK)

	lea	edx, DWORD PTR _nw_light_check_code$1[ebp]
; File z:\sources\lunor\repos\rougemeilland\palmtree.math.core.implements\palmtree.math.core.implements\pmc_internal.h

; 463  :     return (x >= y ? x : y);

	cmp	DWORD PTR [esi+4], ecx
; File z:\sources\lunor\repos\rougemeilland\palmtree.math.core.implements\palmtree.math.core.implements\pmc_exclusiveor.c

; 448  :         if ((result = AllocateNumber(&nw, w_bit_count, &nw_light_check_code)) != PMC_STATUS_OK)

	push	edx
; File z:\sources\lunor\repos\rougemeilland\palmtree.math.core.implements\palmtree.math.core.implements\pmc_internal.h

; 463  :     return (x >= y ? x : y);

	cmovae	ecx, DWORD PTR [esi+4]
; File z:\sources\lunor\repos\rougemeilland\palmtree.math.core.implements\palmtree.math.core.implements\pmc_exclusiveor.c

; 448  :         if ((result = AllocateNumber(&nw, w_bit_count, &nw_light_check_code)) != PMC_STATUS_OK)

	push	ecx
	push	eax
	call	_AllocateNumber
	add	esp, 12					; 0000000cH
	test	eax, eax
	jne	SHORT $LN1@PMC_Exclus

; 449  :             return (result);
; 450  :         ExclusiveOr_X_X(nu->BLOCK, nu->UNIT_WORD_COUNT, nv->BLOCK, nv->UNIT_WORD_COUNT, nw->BLOCK);

	mov	eax, DWORD PTR _nw$[ebp]
	push	DWORD PTR [eax+24]
	mov	eax, DWORD PTR tv301[ebp]
	push	DWORD PTR [eax]
	push	DWORD PTR [eax+24]
	push	DWORD PTR [esi]
	push	DWORD PTR [esi+24]
	call	_ExclusiveOr_X_X

; 451  :         if ((result = CheckBlockLight(nw->BLOCK, nw_light_check_code)) != PMC_STATUS_OK)

	mov	eax, DWORD PTR _nw$[ebp]
	push	DWORD PTR _nw_light_check_code$1[ebp]
	push	DWORD PTR [eax+24]
	call	_CheckBlockLight
	add	esp, 28					; 0000001cH
	test	eax, eax
	jne	SHORT $LN1@PMC_Exclus

; 452  :             return (result);
; 453  :         CommitNumber(nw);

	push	DWORD PTR _nw$[ebp]
	call	_CommitNumber

; 454  :         if (nw->IS_ZERO)

	mov	eax, DWORD PTR _nw$[ebp]
	add	esp, 4
	test	BYTE PTR [eax+16], 2
	je	SHORT $LN16@PMC_Exclus

; 455  :         {
; 456  :             DeallocateNumber(nw);

	push	eax
	call	_DeallocateNumber
	add	esp, 4

; 457  :             nw = &number_zero;

	mov	eax, OFFSET _number_zero
$LN16@PMC_Exclus:

; 458  :         }
; 459  :     }
; 460  :     *w = nw;

	pop	edi
	mov	DWORD PTR [ebx], eax

; 461  : #ifdef _DEBUG
; 462  :     if ((result = CheckNumber(*w)) != PMC_STATUS_OK)
; 463  :         return (result);
; 464  : #endif
; 465  :     return (PMC_STATUS_OK);

	xor	eax, eax

; 466  : }

	pop	esi
	pop	ebx
	pop	ebp
	ret	12					; 0000000cH
$LN20@PMC_Exclus:

; 417  :         return (PMC_STATUS_ARGUMENT_ERROR);

	or	eax, -1
$LN1@PMC_Exclus:
	pop	edi

; 466  : }

	pop	esi
	pop	ebx
	pop	ebp
	ret	12					; 0000000cH
_PMC_ExclusiveOr_X_X@12 ENDP
_TEXT	ENDS
; Function compile flags: /Ogtp
; File z:\sources\lunor\repos\rougemeilland\palmtree.math.core.implements\palmtree.math.core.implements\pmc_exclusiveor.c
;	COMDAT _PMC_ExclusiveOr_X_L@16
_TEXT	SEGMENT
_u$ = 8							; size = 4
_v$ = 12						; size = 8
_w$ = 20						; size = 4
_PMC_ExclusiveOr_X_L@16 PROC				; COMDAT

; 387  : {

	push	ebp
	mov	ebp, esp
	push	esi

; 388  :     if (__UNIT_TYPE_BIT_COUNT * 2 < sizeof(v) * 8)
; 389  :     {
; 390  :         // _UINT64_T が 2 ワードで表現しきれない処理系には対応しない
; 391  :         return (PMC_STATUS_INTERNAL_ERROR);
; 392  :     }
; 393  :     if (u == NULL)

	mov	esi, DWORD PTR _u$[ebp]
	test	esi, esi
	je	SHORT $LN8@PMC_Exclus

; 394  :         return (PMC_STATUS_ARGUMENT_ERROR);
; 395  :     if (w == NULL)

	cmp	DWORD PTR _w$[ebp], 0
	je	SHORT $LN8@PMC_Exclus

; 397  :     NUMBER_HEADER* nu = (NUMBER_HEADER*)u;
; 398  :     PMC_STATUS_CODE result;
; 399  :     if ((result = CheckNumber(nu)) != PMC_STATUS_OK)

	push	esi
	call	_CheckNumber
	add	esp, 4
	test	eax, eax
	jne	SHORT $LN6@PMC_Exclus

; 400  :         return (result);
; 401  :     if ((result = PMC_ExclusiveOr_X_L_Imp((NUMBER_HEADER*)u, v, (NUMBER_HEADER**)w)) != PMC_STATUS_OK)

	push	DWORD PTR _w$[ebp]
	push	DWORD PTR _v$[ebp+4]
	push	DWORD PTR _v$[ebp]
	push	esi
	call	_PMC_ExclusiveOr_X_L_Imp
	add	esp, 16					; 00000010H
	pop	esi

; 402  :         return (result);
; 403  : #ifdef _DEBUG
; 404  :     if ((result = CheckNumber(*w)) != PMC_STATUS_OK)
; 405  :         return (result);
; 406  : #endif
; 407  :     return (PMC_STATUS_OK);
; 408  : }

	pop	ebp
	ret	16					; 00000010H
$LN8@PMC_Exclus:

; 396  :         return (PMC_STATUS_ARGUMENT_ERROR);

	or	eax, -1
$LN6@PMC_Exclus:
	pop	esi

; 402  :         return (result);
; 403  : #ifdef _DEBUG
; 404  :     if ((result = CheckNumber(*w)) != PMC_STATUS_OK)
; 405  :         return (result);
; 406  : #endif
; 407  :     return (PMC_STATUS_OK);
; 408  : }

	pop	ebp
	ret	16					; 00000010H
_PMC_ExclusiveOr_X_L@16 ENDP
_TEXT	ENDS
; Function compile flags: /Ogtp
; File z:\sources\lunor\repos\rougemeilland\palmtree.math.core.implements\palmtree.math.core.implements\pmc_exclusiveor.c
;	COMDAT _PMC_ExclusiveOr_X_I@12
_TEXT	SEGMENT
_u$ = 8							; size = 4
_v$ = 12						; size = 4
_w$ = 16						; size = 4
_PMC_ExclusiveOr_X_I@12 PROC				; COMDAT

; 257  : {

	push	ebp
	mov	ebp, esp
	push	esi

; 258  :     if (__UNIT_TYPE_BIT_COUNT < sizeof(v) * 8)
; 259  :     {
; 260  :         // _UINT32_T が 1 ワードで表現しきれない処理系には対応しない
; 261  :         return (PMC_STATUS_INTERNAL_ERROR);
; 262  :     }
; 263  :     if (u == NULL)

	mov	esi, DWORD PTR _u$[ebp]
	test	esi, esi
	je	SHORT $LN8@PMC_Exclus

; 264  :         return (PMC_STATUS_ARGUMENT_ERROR);
; 265  :     if (w == NULL)

	cmp	DWORD PTR _w$[ebp], 0
	je	SHORT $LN8@PMC_Exclus

; 267  :     NUMBER_HEADER* nu = (NUMBER_HEADER*)u;
; 268  :     PMC_STATUS_CODE result;
; 269  :     if ((result = CheckNumber(nu)) != PMC_STATUS_OK)

	push	esi
	call	_CheckNumber
	add	esp, 4
	test	eax, eax
	jne	SHORT $LN6@PMC_Exclus

; 270  :         return (result);
; 271  :     if ((result = PMC_ExclusiveOr_X_I_Imp((NUMBER_HEADER*)u, v, (NUMBER_HEADER**)w)) != PMC_STATUS_OK)

	push	DWORD PTR _w$[ebp]
	push	DWORD PTR _v$[ebp]
	push	esi
	call	_PMC_ExclusiveOr_X_I_Imp
	add	esp, 12					; 0000000cH
	pop	esi

; 272  :         return (result);
; 273  : #ifdef _DEBUG
; 274  :     if ((result = CheckNumber(*w)) != PMC_STATUS_OK)
; 275  :         return (result);
; 276  : #endif
; 277  :     return (PMC_STATUS_OK);
; 278  : }

	pop	ebp
	ret	12					; 0000000cH
$LN8@PMC_Exclus:

; 266  :         return (PMC_STATUS_ARGUMENT_ERROR);

	or	eax, -1
$LN6@PMC_Exclus:
	pop	esi

; 272  :         return (result);
; 273  : #ifdef _DEBUG
; 274  :     if ((result = CheckNumber(*w)) != PMC_STATUS_OK)
; 275  :         return (result);
; 276  : #endif
; 277  :     return (PMC_STATUS_OK);
; 278  : }

	pop	ebp
	ret	12					; 0000000cH
_PMC_ExclusiveOr_X_I@12 ENDP
_TEXT	ENDS
; Function compile flags: /Ogtp
; File z:\sources\lunor\repos\rougemeilland\palmtree.math.core.implements\palmtree.math.core.implements\pmc_exclusiveor.c
;	COMDAT _PMC_ExclusiveOr_L_X@16
_TEXT	SEGMENT
_u$ = 8							; size = 8
_v$ = 16						; size = 4
_w$ = 20						; size = 4
_PMC_ExclusiveOr_L_X@16 PROC				; COMDAT

; 363  : {

	push	ebp
	mov	ebp, esp
	push	esi

; 364  :     if (__UNIT_TYPE_BIT_COUNT * 2 < sizeof(u) * 8)
; 365  :     {
; 366  :         // _UINT64_T が 2 ワードで表現しきれない処理系には対応しない
; 367  :         return (PMC_STATUS_INTERNAL_ERROR);
; 368  :     }
; 369  :     if (v == NULL)

	mov	esi, DWORD PTR _v$[ebp]
	test	esi, esi
	je	SHORT $LN8@PMC_Exclus

; 370  :         return (PMC_STATUS_ARGUMENT_ERROR);
; 371  :     if (w == NULL)

	cmp	DWORD PTR _w$[ebp], 0
	je	SHORT $LN8@PMC_Exclus

; 373  :     NUMBER_HEADER* nu = (NUMBER_HEADER*)v;
; 374  :     PMC_STATUS_CODE result;
; 375  :     if ((result = CheckNumber(nu)) != PMC_STATUS_OK)

	push	esi
	call	_CheckNumber
	add	esp, 4
	test	eax, eax
	jne	SHORT $LN6@PMC_Exclus

; 376  :         return (result);
; 377  :     if ((result = PMC_ExclusiveOr_X_L_Imp((NUMBER_HEADER*)v, u, (NUMBER_HEADER**)w)) != PMC_STATUS_OK)

	push	DWORD PTR _w$[ebp]
	push	DWORD PTR _u$[ebp+4]
	push	DWORD PTR _u$[ebp]
	push	esi
	call	_PMC_ExclusiveOr_X_L_Imp
	add	esp, 16					; 00000010H
	pop	esi

; 378  :         return (result);
; 379  : #ifdef _DEBUG
; 380  :     if ((result = CheckNumber(*w)) != PMC_STATUS_OK)
; 381  :         return (result);
; 382  : #endif
; 383  :     return (PMC_STATUS_OK);
; 384  : }

	pop	ebp
	ret	16					; 00000010H
$LN8@PMC_Exclus:

; 372  :         return (PMC_STATUS_ARGUMENT_ERROR);

	or	eax, -1
$LN6@PMC_Exclus:
	pop	esi

; 378  :         return (result);
; 379  : #ifdef _DEBUG
; 380  :     if ((result = CheckNumber(*w)) != PMC_STATUS_OK)
; 381  :         return (result);
; 382  : #endif
; 383  :     return (PMC_STATUS_OK);
; 384  : }

	pop	ebp
	ret	16					; 00000010H
_PMC_ExclusiveOr_L_X@16 ENDP
_TEXT	ENDS
; Function compile flags: /Ogtp
; File z:\sources\lunor\repos\rougemeilland\palmtree.math.core.implements\palmtree.math.core.implements\pmc_exclusiveor.c
;	COMDAT _PMC_ExclusiveOr_I_X@12
_TEXT	SEGMENT
_u$ = 8							; size = 4
_v$ = 12						; size = 4
_w$ = 16						; size = 4
_PMC_ExclusiveOr_I_X@12 PROC				; COMDAT

; 233  : {

	push	ebp
	mov	ebp, esp
	push	esi

; 234  :     if (__UNIT_TYPE_BIT_COUNT < sizeof(u) * 8)
; 235  :     {
; 236  :         // _UINT32_T が 1 ワードで表現しきれない処理系には対応しない
; 237  :         return (PMC_STATUS_INTERNAL_ERROR);
; 238  :     }
; 239  :     if (v == NULL)

	mov	esi, DWORD PTR _v$[ebp]
	test	esi, esi
	je	SHORT $LN8@PMC_Exclus

; 240  :         return (PMC_STATUS_ARGUMENT_ERROR);
; 241  :     if (w == NULL)

	cmp	DWORD PTR _w$[ebp], 0
	je	SHORT $LN8@PMC_Exclus

; 243  :     NUMBER_HEADER* nu = (NUMBER_HEADER*)v;
; 244  :     PMC_STATUS_CODE result;
; 245  :     if ((result = CheckNumber(nu)) != PMC_STATUS_OK)

	push	esi
	call	_CheckNumber
	add	esp, 4
	test	eax, eax
	jne	SHORT $LN6@PMC_Exclus

; 246  :         return (result);
; 247  :     if ((result = PMC_ExclusiveOr_X_I_Imp((NUMBER_HEADER*)v, u, (NUMBER_HEADER**)w)) != PMC_STATUS_OK)

	push	DWORD PTR _w$[ebp]
	push	DWORD PTR _u$[ebp]
	push	esi
	call	_PMC_ExclusiveOr_X_I_Imp
	add	esp, 12					; 0000000cH
	pop	esi

; 248  :         return (result);
; 249  : #ifdef _DEBUG
; 250  :     if ((result = CheckNumber(*w)) != PMC_STATUS_OK)
; 251  :         return (result);
; 252  : #endif
; 253  :     return (PMC_STATUS_OK);
; 254  : }

	pop	ebp
	ret	12					; 0000000cH
$LN8@PMC_Exclus:

; 242  :         return (PMC_STATUS_ARGUMENT_ERROR);

	or	eax, -1
$LN6@PMC_Exclus:
	pop	esi

; 248  :         return (result);
; 249  : #ifdef _DEBUG
; 250  :     if ((result = CheckNumber(*w)) != PMC_STATUS_OK)
; 251  :         return (result);
; 252  : #endif
; 253  :     return (PMC_STATUS_OK);
; 254  : }

	pop	ebp
	ret	12					; 0000000cH
_PMC_ExclusiveOr_I_X@12 ENDP
_TEXT	ENDS
; Function compile flags: /Ogtp
; File z:\sources\lunor\repos\rougemeilland\palmtree.math.core.implements\palmtree.math.core.implements\pmc_exclusiveor.c
;	COMDAT _Initialize_ExclusiveOr
_TEXT	SEGMENT
_feature$ = 8						; size = 4
_Initialize_ExclusiveOr PROC				; COMDAT

; 470  :     return (PMC_STATUS_OK);

	xor	eax, eax

; 471  : }

	ret	0
_Initialize_ExclusiveOr ENDP
_TEXT	ENDS
END
