; Listing generated by Microsoft (R) Optimizing Compiler Version 19.16.27026.1 

	TITLE	Z:\Sources\Lunor\Repos\rougemeilland\Palmtree.Math.Core.Implements\Palmtree.Math.Core.Implements\pmc_bitwiseand.c
	.686P
	.XMM
	include listing.inc
	.model	flat

INCLUDELIB MSVCRT
INCLUDELIB OLDNAMES

PUBLIC	_Initialize_BitwiseAnd
PUBLIC	_PMC_BitwiseAnd_I_X@12
PUBLIC	_PMC_BitwiseAnd_L_X@16
PUBLIC	_PMC_BitwiseAnd_X_I@12
PUBLIC	_PMC_BitwiseAnd_X_L@16
PUBLIC	_PMC_BitwiseAnd_X_X@12
EXTRN	_CheckBlockLight:PROC
EXTRN	_AllocateNumber:PROC
EXTRN	_DeallocateNumber:PROC
EXTRN	_CommitNumber:PROC
EXTRN	_CheckNumber:PROC
EXTRN	_number_zero:BYTE
; Function compile flags: /Ogtp
; File z:\sources\lunor\repos\rougemeilland\palmtree.math.core.implements\palmtree.math.core.implements\pmc_bitwiseand.c
;	COMDAT _BitwiseAnd_X_X
_TEXT	SEGMENT
tv2428 = -32						; size = 4
tv2423 = -32						; size = 4
tv2425 = -28						; size = 4
tv2424 = -28						; size = 4
tv2426 = -24						; size = 4
tv2429 = -20						; size = 4
_count$1$ = -16						; size = 4
_v$1$ = -12						; size = 4
tv2430 = -8						; size = 4
tv2427 = -8						; size = 4
_w$1$ = -8						; size = 4
_u$1$ = -4						; size = 4
_u$ = 8							; size = 4
_v$ = 12						; size = 4
_w$ = 16						; size = 4
_w_count$ = 20						; size = 4
_BitwiseAnd_X_X PROC					; COMDAT

; 38   : {

	push	ebp
	mov	ebp, esp
	sub	esp, 32					; 00000020H

; 39   :     __UNIT_TYPE count = w_count >> 5;
; 40   :     while (count != 0)

	mov	edx, DWORD PTR _w$[ebp]
	push	ebx
	mov	ebx, DWORD PTR _w_count$[ebp]
	mov	eax, ebx
	push	esi
	mov	esi, DWORD PTR _v$[ebp]
	shr	eax, 5
	mov	DWORD PTR _count$1$[ebp], eax
	mov	DWORD PTR _w$1$[ebp], edx
	push	edi
	mov	edi, DWORD PTR _u$[ebp]
	mov	DWORD PTR _u$1$[ebp], edi
	test	eax, eax
	je	$LN3@BitwiseAnd
	mov	DWORD PTR _v$1$[ebp], esi
	npad	2
$LL2@BitwiseAnd:

; 41   :     {
; 42   :         w[0] = u[0] & v[0];

	lea	ecx, DWORD PTR [esi+16]
	xor	ebx, ebx
	lea	eax, DWORD PTR [ecx+108]
	cmp	edx, eax
	ja	SHORT $LN27@BitwiseAnd
	lea	eax, DWORD PTR [edx+124]
	cmp	eax, esi
	jae	SHORT $LN67@BitwiseAnd
$LN27@BitwiseAnd:
	lea	eax, DWORD PTR [edi+48]
	mov	DWORD PTR tv2423[ebp], eax
	add	eax, 76					; 0000004cH
	cmp	edx, eax
	ja	SHORT $LN28@BitwiseAnd
	lea	eax, DWORD PTR [edx+124]
	cmp	eax, edi
	jb	SHORT $LN28@BitwiseAnd
$LN67@BitwiseAnd:
	mov	DWORD PTR tv2430[ebp], edi
	mov	ecx, edx
	sub	edi, esi
	mov	eax, esi
	sub	ecx, esi
	mov	ebx, 32					; 00000020H
	mov	DWORD PTR tv2427[ebp], ecx
	mov	esi, ecx
	npad	4
$LL65@BitwiseAnd:
	mov	ecx, DWORD PTR [eax+edi]
	lea	eax, DWORD PTR [eax+4]
	and	ecx, DWORD PTR [eax-4]
	mov	DWORD PTR [eax+esi-4], ecx
	sub	ebx, 1
	jne	SHORT $LL65@BitwiseAnd
	mov	edi, DWORD PTR _u$1$[ebp]
	jmp	$LN71@BitwiseAnd
$LN28@BitwiseAnd:
	lea	eax, DWORD PTR [edx+32]
	mov	edx, edi
	mov	edi, DWORD PTR _w$1$[ebp]
	sub	edx, esi
	sub	edi, esi
	mov	DWORD PTR tv2429[ebp], edx
	mov	DWORD PTR tv2426[ebp], edi
	mov	edi, DWORD PTR _u$1$[ebp]
	mov	esi, edi
	sub	esi, DWORD PTR _w$1$[ebp]
	mov	DWORD PTR tv2424[ebp], esi
	mov	esi, edx
	mov	edx, DWORD PTR tv2426[ebp]
	npad	4
$LL12@BitwiseAnd:
	movups	xmm1, XMMWORD PTR [edi+ebx*4]
	mov	edi, DWORD PTR tv2424[ebp]
	lea	ecx, DWORD PTR [ecx+64]
	movups	xmm0, XMMWORD PTR [ecx-80]
	lea	eax, DWORD PTR [eax+64]
	pand	xmm1, xmm0
	movups	xmm0, XMMWORD PTR [ecx-64]
	movups	XMMWORD PTR [eax-96], xmm1
	movups	xmm1, XMMWORD PTR [esi+ecx-64]
	pand	xmm1, xmm0
	movups	xmm0, XMMWORD PTR [ecx-48]
	movups	XMMWORD PTR [edx+ecx-64], xmm1
	movups	xmm1, XMMWORD PTR [edi+eax-64]
	mov	edi, DWORD PTR tv2423[ebp]
	pand	xmm1, xmm0
	movups	xmm0, XMMWORD PTR [ecx-32]
	movups	XMMWORD PTR [eax-64], xmm1
	movups	xmm1, XMMWORD PTR [edi+ebx*4]
	mov	edi, DWORD PTR _u$1$[ebp]
	add	ebx, 16					; 00000010H
	pand	xmm1, xmm0
	movups	XMMWORD PTR [eax-48], xmm1
	cmp	ebx, 32					; 00000020H
	jl	SHORT $LL12@BitwiseAnd
	mov	edx, DWORD PTR _w$1$[ebp]
$LN71@BitwiseAnd:

; 43   :         w[1] = u[1] & v[1];
; 44   :         w[2] = u[2] & v[2];
; 45   :         w[3] = u[3] & v[3];
; 46   :         w[4] = u[4] & v[4];
; 47   :         w[5] = u[5] & v[5];
; 48   :         w[6] = u[6] & v[6];
; 49   :         w[7] = u[7] & v[7];
; 50   :         w[8] = u[8] & v[8];
; 51   :         w[9] = u[9] & v[9];
; 52   :         w[10] = u[10] & v[10];
; 53   :         w[11] = u[11] & v[11];
; 54   :         w[12] = u[12] & v[12];
; 55   :         w[13] = u[13] & v[13];
; 56   :         w[14] = u[14] & v[14];
; 57   :         w[15] = u[15] & v[15];
; 58   :         w[16] = u[16] & v[16];
; 59   :         w[17] = u[17] & v[17];
; 60   :         w[18] = u[18] & v[18];
; 61   :         w[19] = u[19] & v[19];
; 62   :         w[20] = u[20] & v[20];
; 63   :         w[21] = u[21] & v[21];
; 64   :         w[22] = u[22] & v[22];
; 65   :         w[23] = u[23] & v[23];
; 66   :         w[24] = u[24] & v[24];
; 67   :         w[25] = u[25] & v[25];
; 68   :         w[26] = u[26] & v[26];
; 69   :         w[27] = u[27] & v[27];
; 70   :         w[28] = u[28] & v[28];
; 71   :         w[29] = u[29] & v[29];
; 72   :         w[30] = u[30] & v[30];
; 73   :         w[31] = u[31] & v[31];
; 74   :         u += 32;

	mov	esi, DWORD PTR _v$1$[ebp]
	sub	edi, -128				; ffffff80H

; 75   :         v += 32;

	sub	esi, -128				; ffffff80H
	mov	DWORD PTR _u$1$[ebp], edi

; 76   :         w += 32;

	sub	edx, -128				; ffffff80H
	mov	DWORD PTR _v$1$[ebp], esi

; 77   :         --count;

	sub	DWORD PTR _count$1$[ebp], 1
	mov	DWORD PTR _w$1$[ebp], edx
	jne	$LL2@BitwiseAnd

; 39   :     __UNIT_TYPE count = w_count >> 5;
; 40   :     while (count != 0)

	mov	ebx, DWORD PTR _w_count$[ebp]
$LN3@BitwiseAnd:

; 78   :     }
; 79   : 
; 80   :     if (w_count & 0x10)

	test	bl, 16					; 00000010H
	je	$LN4@BitwiseAnd

; 81   :     {
; 82   :         w[0] = u[0] & v[0];

	lea	eax, DWORD PTR [esi+60]
	lea	ecx, DWORD PTR [edx+60]
	cmp	edx, eax
	ja	SHORT $LN31@BitwiseAnd
	cmp	ecx, esi
	jae	SHORT $LN69@BitwiseAnd
$LN31@BitwiseAnd:
	lea	eax, DWORD PTR [edi+60]
	cmp	edx, eax
	ja	SHORT $LN32@BitwiseAnd
	cmp	ecx, edi
	jb	SHORT $LN32@BitwiseAnd
$LN69@BitwiseAnd:
	mov	eax, edi
	mov	ecx, esi
	sub	eax, esi
	mov	ebx, 16					; 00000010H
	mov	DWORD PTR tv2428[ebp], eax
	mov	eax, edx
	mov	edx, DWORD PTR tv2428[ebp]
	sub	eax, esi
	mov	DWORD PTR tv2425[ebp], eax
	mov	edi, eax
	npad	5
$LL66@BitwiseAnd:
	mov	eax, DWORD PTR [edx+ecx]
	lea	ecx, DWORD PTR [ecx+4]
	and	eax, DWORD PTR [ecx-4]
	mov	DWORD PTR [edi+ecx-4], eax
	sub	ebx, 1
	jne	SHORT $LL66@BitwiseAnd
	mov	edx, DWORD PTR _w$1$[ebp]
	mov	edi, DWORD PTR _u$1$[ebp]
	mov	ebx, DWORD PTR _w_count$[ebp]
	jmp	SHORT $LN15@BitwiseAnd
$LN32@BitwiseAnd:
	movups	xmm0, XMMWORD PTR [esi]
	movups	xmm1, XMMWORD PTR [edi]
	pand	xmm1, xmm0
	movups	xmm0, XMMWORD PTR [esi+16]
	movups	XMMWORD PTR [edx], xmm1
	movups	xmm1, XMMWORD PTR [edi+16]
	pand	xmm1, xmm0
	movups	xmm0, XMMWORD PTR [esi+32]
	movups	XMMWORD PTR [edx+16], xmm1
	movups	xmm1, XMMWORD PTR [edi+32]
	pand	xmm1, xmm0
	movups	xmm0, XMMWORD PTR [esi+48]
	movups	XMMWORD PTR [edx+32], xmm1
	movups	xmm1, XMMWORD PTR [edi+48]
	pand	xmm1, xmm0
	movups	XMMWORD PTR [edx+48], xmm1
$LN15@BitwiseAnd:

; 83   :         w[1] = u[1] & v[1];
; 84   :         w[2] = u[2] & v[2];
; 85   :         w[3] = u[3] & v[3];
; 86   :         w[4] = u[4] & v[4];
; 87   :         w[5] = u[5] & v[5];
; 88   :         w[6] = u[6] & v[6];
; 89   :         w[7] = u[7] & v[7];
; 90   :         w[8] = u[8] & v[8];
; 91   :         w[9] = u[9] & v[9];
; 92   :         w[10] = u[10] & v[10];
; 93   :         w[11] = u[11] & v[11];
; 94   :         w[12] = u[12] & v[12];
; 95   :         w[13] = u[13] & v[13];
; 96   :         w[14] = u[14] & v[14];
; 97   :         w[15] = u[15] & v[15];
; 98   :         u += 16;

	add	edi, 64					; 00000040H

; 99   :         v += 16;

	add	esi, 64					; 00000040H

; 100  :         w += 16;

	add	edx, 64					; 00000040H
$LN4@BitwiseAnd:

; 101  :     }
; 102  : 
; 103  :     if (w_count & 0x8)

	test	bl, 8
	je	SHORT $LN5@BitwiseAnd

; 104  :     {
; 105  :         w[0] = u[0] & v[0];

	mov	eax, DWORD PTR [edi]
	and	eax, DWORD PTR [esi]
	mov	DWORD PTR [edx], eax
	mov	eax, DWORD PTR [edi+4]
	and	eax, DWORD PTR [esi+4]
	mov	DWORD PTR [edx+4], eax
	mov	eax, DWORD PTR [edi+8]
	and	eax, DWORD PTR [esi+8]
	mov	DWORD PTR [edx+8], eax
	mov	eax, DWORD PTR [edi+12]
	and	eax, DWORD PTR [esi+12]
	mov	DWORD PTR [edx+12], eax
	mov	eax, DWORD PTR [edi+16]
	and	eax, DWORD PTR [esi+16]
	mov	DWORD PTR [edx+16], eax
	mov	eax, DWORD PTR [edi+20]
	and	eax, DWORD PTR [esi+20]
	mov	DWORD PTR [edx+20], eax
	mov	eax, DWORD PTR [edi+24]
	and	eax, DWORD PTR [esi+24]
	mov	DWORD PTR [edx+24], eax
	mov	eax, DWORD PTR [edi+28]

; 106  :         w[1] = u[1] & v[1];
; 107  :         w[2] = u[2] & v[2];
; 108  :         w[3] = u[3] & v[3];
; 109  :         w[4] = u[4] & v[4];
; 110  :         w[5] = u[5] & v[5];
; 111  :         w[6] = u[6] & v[6];
; 112  :         w[7] = u[7] & v[7];
; 113  :         u += 8;

	add	edi, 32					; 00000020H
	and	eax, DWORD PTR [esi+28]

; 114  :         v += 8;

	add	esi, 32					; 00000020H
	mov	DWORD PTR [edx+28], eax

; 115  :         w += 8;

	add	edx, 32					; 00000020H
$LN5@BitwiseAnd:

; 116  :     }
; 117  : 
; 118  :     if (w_count & 0x4)

	test	bl, 4
	je	SHORT $LN6@BitwiseAnd

; 119  :     {
; 120  :         w[0] = u[0] & v[0];

	mov	eax, DWORD PTR [edi]
	and	eax, DWORD PTR [esi]
	mov	DWORD PTR [edx], eax
	mov	eax, DWORD PTR [edi+4]
	and	eax, DWORD PTR [esi+4]
	mov	DWORD PTR [edx+4], eax
	mov	eax, DWORD PTR [edi+8]
	and	eax, DWORD PTR [esi+8]
	mov	DWORD PTR [edx+8], eax
	mov	eax, DWORD PTR [edi+12]

; 121  :         w[1] = u[1] & v[1];
; 122  :         w[2] = u[2] & v[2];
; 123  :         w[3] = u[3] & v[3];
; 124  :         u += 4;

	add	edi, 16					; 00000010H
	and	eax, DWORD PTR [esi+12]

; 125  :         v += 4;

	add	esi, 16					; 00000010H
	mov	DWORD PTR [edx+12], eax

; 126  :         w += 4;

	add	edx, 16					; 00000010H
$LN6@BitwiseAnd:

; 127  :     }
; 128  : 
; 129  :     if (w_count & 0x2)

	test	bl, 2
	je	SHORT $LN7@BitwiseAnd

; 130  :     {
; 131  :         w[0] = u[0] & v[0];

	mov	eax, DWORD PTR [edi]
	and	eax, DWORD PTR [esi]
	mov	DWORD PTR [edx], eax

; 132  :         w[1] = u[1] & v[1];

	mov	eax, DWORD PTR [edi+4]

; 133  :         u += 2;

	add	edi, 8
	and	eax, DWORD PTR [esi+4]

; 134  :         v += 2;

	add	esi, 8
	mov	DWORD PTR [edx+4], eax

; 135  :         w += 2;

	add	edx, 8
$LN7@BitwiseAnd:

; 136  :     }
; 137  : 
; 138  :     if (w_count & 0x1)

	test	bl, 1
	je	SHORT $LN8@BitwiseAnd

; 139  :     {
; 140  :         w[0] = u[0] & v[0];

	mov	eax, DWORD PTR [edi]
	and	eax, DWORD PTR [esi]
	mov	DWORD PTR [edx], eax
$LN8@BitwiseAnd:

; 141  :         u += 1;
; 142  :         v += 1;
; 143  :         w += 1;
; 144  :     }
; 145  : }

	pop	edi
	pop	esi
	pop	ebx
	mov	esp, ebp
	pop	ebp
	ret	0
_BitwiseAnd_X_X ENDP
_TEXT	ENDS
; Function compile flags: /Ogtp
; File z:\sources\lunor\repos\rougemeilland\palmtree.math.core.implements\palmtree.math.core.implements\pmc_internal.h
;	COMDAT __MINIMUM_UNIT
_TEXT	SEGMENT
_x$ = 8							; size = 4
_y$ = 12						; size = 4
__MINIMUM_UNIT PROC					; COMDAT

; 458  : {

	push	ebp
	mov	ebp, esp

; 459  :     return (x <= y ? x : y);

	mov	eax, DWORD PTR _y$[ebp]
	cmp	DWORD PTR _x$[ebp], eax
	cmovbe	eax, DWORD PTR _x$[ebp]

; 460  : }

	pop	ebp
	ret	0
__MINIMUM_UNIT ENDP
_TEXT	ENDS
; Function compile flags: /Ogtp
; File z:\sources\lunor\repos\rougemeilland\palmtree.math.core.implements\palmtree.math.core.implements\pmc_internal.h
;	COMDAT __DIVIDE_CEILING_UNIT
_TEXT	SEGMENT
_u$ = 8							; size = 4
_v$ = 12						; size = 4
__DIVIDE_CEILING_UNIT PROC				; COMDAT

; 443  : {

	push	ebp
	mov	ebp, esp

; 444  :     return ((u + v - 1) / v);

	mov	eax, DWORD PTR _u$[ebp]
	xor	edx, edx
	dec	eax
	add	eax, DWORD PTR _v$[ebp]
	div	DWORD PTR _v$[ebp]

; 445  : }

	pop	ebp
	ret	0
__DIVIDE_CEILING_UNIT ENDP
_TEXT	ENDS
; Function compile flags: /Ogtp
; File z:\sources\lunor\repos\rougemeilland\palmtree.math.core.implements\palmtree.math.core.implements\pmc_internal.h
;	COMDAT __FROMDWORDTOWORD
_TEXT	SEGMENT
_value$ = 8						; size = 8
_result_high$ = 16					; size = 4
__FROMDWORDTOWORD PROC					; COMDAT

; 432  : {

	push	ebp
	mov	ebp, esp

; 433  :     *result_high = (_UINT32_T)(value >> 32);

	mov	eax, DWORD PTR _result_high$[ebp]
	mov	ecx, DWORD PTR _value$[ebp+4]
	mov	DWORD PTR [eax], ecx

; 434  :     return ((_UINT32_T)value);

	mov	eax, DWORD PTR _value$[ebp]

; 435  : }

	pop	ebp
	ret	0
__FROMDWORDTOWORD ENDP
_TEXT	ENDS
; Function compile flags: /Ogtp
; File z:\sources\lunor\repos\rougemeilland\palmtree.math.core.implements\palmtree.math.core.implements\pmc_internal.h
;	COMDAT __FROMWORDTODWORD
_TEXT	SEGMENT
_value_high$ = 8					; size = 4
_value_low$ = 12					; size = 4
__FROMWORDTODWORD PROC					; COMDAT

; 427  : {

	push	ebp
	mov	ebp, esp

; 428  :     return (((_UINT64_T)value_high << 32) | value_low);

	mov	edx, DWORD PTR _value_high$[ebp]
	xor	eax, eax
	or	eax, DWORD PTR _value_low$[ebp]

; 429  : }

	pop	ebp
	ret	0
__FROMWORDTODWORD ENDP
_TEXT	ENDS
; Function compile flags: /Ogtp
; File z:\sources\lunor\repos\rougemeilland\palmtree.math.core.implements\palmtree.math.core.implements\pmc_bitwiseand.c
; File z:\sources\lunor\repos\rougemeilland\palmtree.math.core.implements\palmtree.math.core.implements\pmc_internal.h
; File z:\sources\lunor\repos\rougemeilland\palmtree.math.core.implements\palmtree.math.core.implements\pmc_bitwiseand.c
; File z:\sources\lunor\repos\rougemeilland\palmtree.math.core.implements\palmtree.math.core.implements\pmc_internal.h
; File z:\sources\lunor\repos\rougemeilland\palmtree.math.core.implements\palmtree.math.core.implements\pmc_bitwiseand.c
; File z:\sources\lunor\repos\rougemeilland\palmtree.math.core.implements\palmtree.math.core.implements\pmc_internal.h
; File z:\sources\lunor\repos\rougemeilland\palmtree.math.core.implements\palmtree.math.core.implements\pmc_bitwiseand.c
; File z:\sources\lunor\repos\rougemeilland\palmtree.math.core.implements\palmtree.math.core.implements\pmc_internal.h
; File z:\sources\lunor\repos\rougemeilland\palmtree.math.core.implements\palmtree.math.core.implements\pmc_bitwiseand.c
;	COMDAT _PMC_BitwiseAnd_X_X@12
_TEXT	SEGMENT
_nw$ = 8						; size = 4
_u$ = 8							; size = 4
_w_bit_count$1$ = 12					; size = 4
_v$ = 12						; size = 4
_nw_light_check_code$1 = 16				; size = 4
_w$ = 16						; size = 4
_PMC_BitwiseAnd_X_X@12 PROC				; COMDAT

; 316  : {

	push	ebp
	mov	ebp, esp
	push	ebx
	push	esi

; 317  :     if (u == NULL)

	mov	esi, DWORD PTR _u$[ebp]
	push	edi
	test	esi, esi
	je	$LN20@PMC_Bitwis

; 318  :         return (PMC_STATUS_ARGUMENT_ERROR);
; 319  :     if (v == NULL)

	mov	edi, DWORD PTR _v$[ebp]
	test	edi, edi
	je	$LN20@PMC_Bitwis

; 320  :         return (PMC_STATUS_ARGUMENT_ERROR);
; 321  :     if (w == NULL)

	mov	ebx, DWORD PTR _w$[ebp]
	test	ebx, ebx
	je	$LN20@PMC_Bitwis

; 323  :     NUMBER_HEADER* nu = (NUMBER_HEADER*)u;
; 324  :     NUMBER_HEADER* nv = (NUMBER_HEADER*)v;
; 325  :     PMC_STATUS_CODE result;
; 326  :     if ((result = CheckNumber(nu)) != PMC_STATUS_OK)

	push	esi
	call	_CheckNumber
	add	esp, 4
	test	eax, eax
	jne	$LN1@PMC_Bitwis

; 327  :         return (result);
; 328  :     if ((result = CheckNumber(nv)) != PMC_STATUS_OK)

	push	edi
	call	_CheckNumber
	add	esp, 4
	test	eax, eax
	jne	$LN1@PMC_Bitwis

; 329  :         return (result);
; 330  :     NUMBER_HEADER* nw;
; 331  :     if (nu->IS_ZERO)

	test	BYTE PTR [esi+16], 2
	jne	$LN19@PMC_Bitwis

; 332  :         *w = &number_zero;
; 333  :     else if (nv->IS_ZERO)

	test	BYTE PTR [edi+16], 2
	jne	SHORT $LN19@PMC_Bitwis

; 334  :         *w = &number_zero;
; 335  :     else
; 336  :     {
; 337  :         __UNIT_TYPE u_bit_count = nu->UNIT_BIT_COUNT;
; 338  :         __UNIT_TYPE v_bit_count = nv->UNIT_BIT_COUNT;

	mov	ecx, DWORD PTR [edi+4]

; 341  :         if ((result = AllocateNumber(&nw, w_bit_count, &nw_light_check_code)) != PMC_STATUS_OK)

	lea	eax, DWORD PTR _nw_light_check_code$1[ebp]
; File z:\sources\lunor\repos\rougemeilland\palmtree.math.core.implements\palmtree.math.core.implements\pmc_internal.h

; 459  :     return (x <= y ? x : y);

	cmp	DWORD PTR [esi+4], ecx
; File z:\sources\lunor\repos\rougemeilland\palmtree.math.core.implements\palmtree.math.core.implements\pmc_bitwiseand.c

; 341  :         if ((result = AllocateNumber(&nw, w_bit_count, &nw_light_check_code)) != PMC_STATUS_OK)

	push	eax
; File z:\sources\lunor\repos\rougemeilland\palmtree.math.core.implements\palmtree.math.core.implements\pmc_internal.h

; 459  :     return (x <= y ? x : y);

	cmovbe	ecx, DWORD PTR [esi+4]
; File z:\sources\lunor\repos\rougemeilland\palmtree.math.core.implements\palmtree.math.core.implements\pmc_bitwiseand.c

; 341  :         if ((result = AllocateNumber(&nw, w_bit_count, &nw_light_check_code)) != PMC_STATUS_OK)

	lea	eax, DWORD PTR _nw$[ebp]
	push	ecx
	push	eax
; File z:\sources\lunor\repos\rougemeilland\palmtree.math.core.implements\palmtree.math.core.implements\pmc_internal.h

; 459  :     return (x <= y ? x : y);

	mov	DWORD PTR _w_bit_count$1$[ebp], ecx
; File z:\sources\lunor\repos\rougemeilland\palmtree.math.core.implements\palmtree.math.core.implements\pmc_bitwiseand.c

; 341  :         if ((result = AllocateNumber(&nw, w_bit_count, &nw_light_check_code)) != PMC_STATUS_OK)

	call	_AllocateNumber
	add	esp, 12					; 0000000cH
	test	eax, eax
	jne	SHORT $LN1@PMC_Bitwis
; File z:\sources\lunor\repos\rougemeilland\palmtree.math.core.implements\palmtree.math.core.implements\pmc_internal.h

; 444  :     return ((u + v - 1) / v);

	mov	eax, DWORD PTR _w_bit_count$1$[ebp]
	add	eax, 31					; 0000001fH
	shr	eax, 5
; File z:\sources\lunor\repos\rougemeilland\palmtree.math.core.implements\palmtree.math.core.implements\pmc_bitwiseand.c

; 344  :         BitwiseAnd_X_X(nu->BLOCK, nv->BLOCK, nw->BLOCK, w_word_count);

	push	eax
	mov	eax, DWORD PTR _nw$[ebp]
	push	DWORD PTR [eax+24]
	push	DWORD PTR [edi+24]
	push	DWORD PTR [esi+24]
	call	_BitwiseAnd_X_X

; 345  :         if ((result = CheckBlockLight(nw->BLOCK, nw_light_check_code)) != PMC_STATUS_OK)

	mov	eax, DWORD PTR _nw$[ebp]
	push	DWORD PTR _nw_light_check_code$1[ebp]
	push	DWORD PTR [eax+24]
	call	_CheckBlockLight
	add	esp, 24					; 00000018H
	test	eax, eax
	jne	SHORT $LN1@PMC_Bitwis

; 346  :             return (result);
; 347  :         CommitNumber(nw);

	push	DWORD PTR _nw$[ebp]
	call	_CommitNumber

; 348  :         if (nw->IS_ZERO)

	mov	eax, DWORD PTR _nw$[ebp]
	add	esp, 4
	test	BYTE PTR [eax+16], 2
	je	SHORT $LN13@PMC_Bitwis

; 349  :         {
; 350  :             DeallocateNumber(nw);

	push	eax
	call	_DeallocateNumber
	add	esp, 4

; 351  :             nw = &number_zero;

	mov	eax, OFFSET _number_zero
$LN13@PMC_Bitwis:

; 352  :         }
; 353  :         *w = nw;

	pop	edi
	mov	DWORD PTR [ebx], eax

; 354  :     }
; 355  : #ifdef _DEBUG
; 356  :     if ((result = CheckNumber(*w)) != PMC_STATUS_OK)
; 357  :         return (result);
; 358  : #endif
; 359  :     return (PMC_STATUS_OK);

	xor	eax, eax

; 360  : }

	pop	esi
	pop	ebx
	pop	ebp
	ret	12					; 0000000cH
$LN19@PMC_Bitwis:
	pop	edi
	pop	esi
	mov	DWORD PTR [ebx], OFFSET _number_zero
	xor	eax, eax
	pop	ebx
	pop	ebp
	ret	12					; 0000000cH
$LN20@PMC_Bitwis:

; 322  :         return (PMC_STATUS_ARGUMENT_ERROR);

	or	eax, -1
$LN1@PMC_Bitwis:
	pop	edi

; 360  : }

	pop	esi
	pop	ebx
	pop	ebp
	ret	12					; 0000000cH
_PMC_BitwiseAnd_X_X@12 ENDP
_TEXT	ENDS
; Function compile flags: /Ogtp
; File z:\sources\lunor\repos\rougemeilland\palmtree.math.core.implements\palmtree.math.core.implements\pmc_bitwiseand.c
; File z:\sources\lunor\repos\rougemeilland\palmtree.math.core.implements\palmtree.math.core.implements\pmc_internal.h
; File z:\sources\lunor\repos\rougemeilland\palmtree.math.core.implements\palmtree.math.core.implements\pmc_bitwiseand.c
; File z:\sources\lunor\repos\rougemeilland\palmtree.math.core.implements\palmtree.math.core.implements\pmc_internal.h
; File z:\sources\lunor\repos\rougemeilland\palmtree.math.core.implements\palmtree.math.core.implements\pmc_bitwiseand.c
; File z:\sources\lunor\repos\rougemeilland\palmtree.math.core.implements\palmtree.math.core.implements\pmc_internal.h
; File z:\sources\lunor\repos\rougemeilland\palmtree.math.core.implements\palmtree.math.core.implements\pmc_bitwiseand.c
;	COMDAT _PMC_BitwiseAnd_X_L@16
_TEXT	SEGMENT
_u$ = 8							; size = 4
$T1 = 12						; size = 8
_v$ = 12						; size = 8
_w$ = 20						; size = 4
_PMC_BitwiseAnd_X_L@16 PROC				; COMDAT

; 267  : {

	push	ebp
	mov	ebp, esp
	push	esi
	mov	esi, DWORD PTR _u$[ebp]
	push	edi

; 268  :     if (__UNIT_TYPE_BIT_COUNT * 2 < sizeof(v) * 8)
; 269  :     {
; 270  :         // _UINT64_T が 2 ワードで表現しきれない処理系には対応しない
; 271  :         return (PMC_STATUS_INTERNAL_ERROR);
; 272  :     }
; 273  :     if (u == NULL)

	test	esi, esi
	je	SHORT $LN19@PMC_Bitwis

; 274  :         return (PMC_STATUS_ARGUMENT_ERROR);
; 275  :     if (w == NULL)

	mov	edi, DWORD PTR _w$[ebp]
	test	edi, edi
	je	SHORT $LN19@PMC_Bitwis

; 277  :     NUMBER_HEADER* nu = (NUMBER_HEADER*)u;
; 278  :     PMC_STATUS_CODE result;
; 279  :     if ((result = CheckNumber(nu)) != PMC_STATUS_OK)

	push	esi
	call	_CheckNumber
	add	esp, 4
	test	eax, eax
	jne	SHORT $LN1@PMC_Bitwis

; 280  :         return (result);
; 281  :     if (nu->IS_ZERO)

	test	BYTE PTR [esi+16], 2
	jne	SHORT $LN20@PMC_Bitwis

; 282  :     {
; 283  :         // u が 0 である場合
; 284  :         *w = 0;
; 285  :     }
; 286  :     else if (v == 0)

	mov	ecx, DWORD PTR _v$[ebp]
	mov	eax, ecx
	mov	edx, DWORD PTR _v$[ebp+4]
	or	eax, edx
	jne	SHORT $LN8@PMC_Bitwis
$LN20@PMC_Bitwis:

; 312  :     return (PMC_STATUS_OK);

	xorps	xmm0, xmm0
	movlpd	QWORD PTR $T1[ebp], xmm0
	mov	eax, DWORD PTR $T1[ebp+4]
	mov	ecx, DWORD PTR $T1[ebp]
	mov	DWORD PTR [edi], ecx
	mov	DWORD PTR [edi+4], eax
	xor	eax, eax
	pop	edi

; 313  : }

	pop	esi
	pop	ebp
	ret	16					; 00000010H
$LN8@PMC_Bitwis:

; 287  :     {
; 288  :         // v が 0 である場合
; 289  :         *w = 0;
; 290  :     }
; 291  :     else
; 292  :     {
; 293  :         // u と v がともに 0 ではない場合
; 294  : 
; 295  :         // x と y の和を計算する
; 296  :         if (__UNIT_TYPE_BIT_COUNT < sizeof(v) * 8)
; 297  :         {
; 298  :             // _UINT64_T が 1 ワードで表現しきれない場合
; 299  : 
; 300  :             _UINT32_T v_hi;
; 301  :             _UINT32_T v_lo = _FROMDWORDTOWORD(v, &v_hi);
; 302  :             _UINT32_T w_hi = nu->UNIT_WORD_COUNT > 1 ? nu->BLOCK[1] & v_hi : 0;

	cmp	DWORD PTR [esi], 1
	mov	eax, DWORD PTR [esi+24]
	jbe	SHORT $LN13@PMC_Bitwis
	and	edx, DWORD PTR [eax+4]

; 303  :             _UINT32_T w_lo = nu->BLOCK[0] & v_lo;

	and	ecx, DWORD PTR [eax]
; File z:\sources\lunor\repos\rougemeilland\palmtree.math.core.implements\palmtree.math.core.implements\pmc_internal.h

; 428  :     return (((_UINT64_T)value_high << 32) | value_low);

	xor	eax, eax
	or	eax, edx
; File z:\sources\lunor\repos\rougemeilland\palmtree.math.core.implements\palmtree.math.core.implements\pmc_bitwiseand.c

; 312  :     return (PMC_STATUS_OK);

	mov	DWORD PTR [edi], ecx
	mov	DWORD PTR [edi+4], eax
	xor	eax, eax
	pop	edi

; 313  : }

	pop	esi
	pop	ebp
	ret	16					; 00000010H
$LN13@PMC_Bitwis:

; 303  :             _UINT32_T w_lo = nu->BLOCK[0] & v_lo;

	and	ecx, DWORD PTR [eax]
	xor	edx, edx
; File z:\sources\lunor\repos\rougemeilland\palmtree.math.core.implements\palmtree.math.core.implements\pmc_internal.h

; 428  :     return (((_UINT64_T)value_high << 32) | value_low);

	xor	eax, eax
; File z:\sources\lunor\repos\rougemeilland\palmtree.math.core.implements\palmtree.math.core.implements\pmc_bitwiseand.c

; 312  :     return (PMC_STATUS_OK);

	mov	DWORD PTR [edi], ecx
; File z:\sources\lunor\repos\rougemeilland\palmtree.math.core.implements\palmtree.math.core.implements\pmc_internal.h

; 428  :     return (((_UINT64_T)value_high << 32) | value_low);

	or	eax, edx
; File z:\sources\lunor\repos\rougemeilland\palmtree.math.core.implements\palmtree.math.core.implements\pmc_bitwiseand.c

; 312  :     return (PMC_STATUS_OK);

	mov	DWORD PTR [edi+4], eax
	xor	eax, eax
	pop	edi

; 313  : }

	pop	esi
	pop	ebp
	ret	16					; 00000010H
$LN19@PMC_Bitwis:

; 276  :         return (PMC_STATUS_ARGUMENT_ERROR);

	or	eax, -1
$LN1@PMC_Bitwis:
	pop	edi

; 313  : }

	pop	esi
	pop	ebp
	ret	16					; 00000010H
_PMC_BitwiseAnd_X_L@16 ENDP
_TEXT	ENDS
; Function compile flags: /Ogtp
; File z:\sources\lunor\repos\rougemeilland\palmtree.math.core.implements\palmtree.math.core.implements\pmc_bitwiseand.c
;	COMDAT _PMC_BitwiseAnd_X_I@12
_TEXT	SEGMENT
_u$ = 8							; size = 4
_v$ = 12						; size = 4
_w$ = 16						; size = 4
_PMC_BitwiseAnd_X_I@12 PROC				; COMDAT

; 183  : {

	push	ebp
	mov	ebp, esp
	push	esi

; 184  :     if (__UNIT_TYPE_BIT_COUNT < sizeof(v) * 8)
; 185  :     {
; 186  :         // _UINT32_T が 1 ワードで表現しきれない処理系には対応しない
; 187  :         return (PMC_STATUS_INTERNAL_ERROR);
; 188  :     }
; 189  :     if (u == NULL)

	mov	esi, DWORD PTR _u$[ebp]
	push	edi
	test	esi, esi
	je	SHORT $LN11@PMC_Bitwis

; 190  :         return (PMC_STATUS_ARGUMENT_ERROR);
; 191  :     if (w == NULL)

	mov	edi, DWORD PTR _w$[ebp]
	test	edi, edi
	je	SHORT $LN11@PMC_Bitwis

; 193  :     NUMBER_HEADER* nu = (NUMBER_HEADER*)u;
; 194  :     PMC_STATUS_CODE result;
; 195  :     if ((result = CheckNumber(nu)) != PMC_STATUS_OK)

	push	esi
	call	_CheckNumber
	add	esp, 4
	test	eax, eax
	jne	SHORT $LN1@PMC_Bitwis

; 196  :         return (result);
; 197  :     if (nu->IS_ZERO)

	test	BYTE PTR [esi+16], 2
	jne	SHORT $LN12@PMC_Bitwis

; 198  :     {
; 199  :         // u が 0 である場合
; 200  :         *w = 0;
; 201  :     }
; 202  :     else  if (v == 0)

	mov	ecx, DWORD PTR _v$[ebp]
	test	ecx, ecx
	jne	SHORT $LN8@PMC_Bitwis
$LN12@PMC_Bitwis:

; 213  :     }
; 214  :     return (PMC_STATUS_OK);

	xor	eax, eax
	mov	DWORD PTR [edi], eax
	pop	edi

; 215  : }

	pop	esi
	pop	ebp
	ret	12					; 0000000cH
$LN8@PMC_Bitwis:

; 203  :     {
; 204  :         // v が 0 である場合
; 205  :         *w = 0;
; 206  :     }
; 207  :     else
; 208  :     {
; 209  :         // u と v がともに 0 ではない場合
; 210  : 
; 211  :         // u と v の bit AND を計算する
; 212  :         *w = nu->BLOCK[0] & v;

	mov	eax, DWORD PTR [esi+24]
	mov	eax, DWORD PTR [eax]
	and	eax, ecx

; 213  :     }
; 214  :     return (PMC_STATUS_OK);

	mov	DWORD PTR [edi], eax
	xor	eax, eax
	pop	edi

; 215  : }

	pop	esi
	pop	ebp
	ret	12					; 0000000cH
$LN11@PMC_Bitwis:

; 192  :         return (PMC_STATUS_ARGUMENT_ERROR);

	or	eax, -1
$LN1@PMC_Bitwis:
	pop	edi

; 215  : }

	pop	esi
	pop	ebp
	ret	12					; 0000000cH
_PMC_BitwiseAnd_X_I@12 ENDP
_TEXT	ENDS
; Function compile flags: /Ogtp
; File z:\sources\lunor\repos\rougemeilland\palmtree.math.core.implements\palmtree.math.core.implements\pmc_bitwiseand.c
; File z:\sources\lunor\repos\rougemeilland\palmtree.math.core.implements\palmtree.math.core.implements\pmc_internal.h
; File z:\sources\lunor\repos\rougemeilland\palmtree.math.core.implements\palmtree.math.core.implements\pmc_bitwiseand.c
; File z:\sources\lunor\repos\rougemeilland\palmtree.math.core.implements\palmtree.math.core.implements\pmc_internal.h
; File z:\sources\lunor\repos\rougemeilland\palmtree.math.core.implements\palmtree.math.core.implements\pmc_bitwiseand.c
; File z:\sources\lunor\repos\rougemeilland\palmtree.math.core.implements\palmtree.math.core.implements\pmc_internal.h
; File z:\sources\lunor\repos\rougemeilland\palmtree.math.core.implements\palmtree.math.core.implements\pmc_bitwiseand.c
;	COMDAT _PMC_BitwiseAnd_L_X@16
_TEXT	SEGMENT
$T1 = 8							; size = 8
_u$ = 8							; size = 8
_v$ = 16						; size = 4
_w$ = 20						; size = 4
_PMC_BitwiseAnd_L_X@16 PROC				; COMDAT

; 218  : {

	push	ebp
	mov	ebp, esp
	push	esi
	mov	esi, DWORD PTR _v$[ebp]
	push	edi

; 219  :     if (__UNIT_TYPE_BIT_COUNT * 2 < sizeof(u) * 8)
; 220  :     {
; 221  :         // _UINT64_T が 2 ワードで表現しきれない処理系には対応しない
; 222  :         return (PMC_STATUS_INTERNAL_ERROR);
; 223  :     }
; 224  :     if (v == NULL)

	test	esi, esi
	je	SHORT $LN19@PMC_Bitwis

; 225  :         return (PMC_STATUS_ARGUMENT_ERROR);
; 226  :     if (w == NULL)

	mov	edi, DWORD PTR _w$[ebp]
	test	edi, edi
	je	SHORT $LN19@PMC_Bitwis

; 228  :     NUMBER_HEADER* nv = (NUMBER_HEADER*)v;
; 229  :     PMC_STATUS_CODE result;
; 230  :     if ((result = CheckNumber(nv)) != PMC_STATUS_OK)

	push	esi
	call	_CheckNumber
	add	esp, 4
	test	eax, eax
	jne	SHORT $LN1@PMC_Bitwis

; 231  :         return (result);
; 232  :     if (nv->IS_ZERO)

	test	BYTE PTR [esi+16], 2
	jne	SHORT $LN20@PMC_Bitwis

; 233  :     {
; 234  :         // v が 0 である場合
; 235  :         *w = 0;
; 236  :     }
; 237  :     else if (u == 0)

	mov	ecx, DWORD PTR _u$[ebp]
	mov	eax, ecx
	mov	edx, DWORD PTR _u$[ebp+4]
	or	eax, edx
	jne	SHORT $LN8@PMC_Bitwis
$LN20@PMC_Bitwis:

; 263  :     return (PMC_STATUS_OK);

	xorps	xmm0, xmm0
	movlpd	QWORD PTR $T1[ebp], xmm0
	mov	eax, DWORD PTR $T1[ebp+4]
	mov	ecx, DWORD PTR $T1[ebp]
	mov	DWORD PTR [edi], ecx
	mov	DWORD PTR [edi+4], eax
	xor	eax, eax
	pop	edi

; 264  : }

	pop	esi
	pop	ebp
	ret	16					; 00000010H
$LN8@PMC_Bitwis:

; 238  :     {
; 239  :         // u が 0 である場合
; 240  :         *w = 0;
; 241  :     }
; 242  :     else
; 243  :     {
; 244  :         // u と v がともに 0 ではない場合
; 245  : 
; 246  :         // x と y の和を計算する
; 247  :         if (__UNIT_TYPE_BIT_COUNT < sizeof(u) * 8)
; 248  :         {
; 249  :             // _UINT64_T が 1 ワードで表現しきれない場合
; 250  : 
; 251  :             _UINT32_T u_hi;
; 252  :             _UINT32_T u_lo = _FROMDWORDTOWORD(u, &u_hi);
; 253  :             _UINT32_T w_hi = nv->UNIT_WORD_COUNT > 1 ? nv->BLOCK[1] & u_hi : 0;

	cmp	DWORD PTR [esi], 1
	mov	eax, DWORD PTR [esi+24]
	jbe	SHORT $LN13@PMC_Bitwis
	and	edx, DWORD PTR [eax+4]

; 254  :             _UINT32_T w_lo = nv->BLOCK[0] & u_lo;

	and	ecx, DWORD PTR [eax]
; File z:\sources\lunor\repos\rougemeilland\palmtree.math.core.implements\palmtree.math.core.implements\pmc_internal.h

; 428  :     return (((_UINT64_T)value_high << 32) | value_low);

	xor	eax, eax
	or	eax, edx
; File z:\sources\lunor\repos\rougemeilland\palmtree.math.core.implements\palmtree.math.core.implements\pmc_bitwiseand.c

; 263  :     return (PMC_STATUS_OK);

	mov	DWORD PTR [edi], ecx
	mov	DWORD PTR [edi+4], eax
	xor	eax, eax
	pop	edi

; 264  : }

	pop	esi
	pop	ebp
	ret	16					; 00000010H
$LN13@PMC_Bitwis:

; 254  :             _UINT32_T w_lo = nv->BLOCK[0] & u_lo;

	and	ecx, DWORD PTR [eax]
	xor	edx, edx
; File z:\sources\lunor\repos\rougemeilland\palmtree.math.core.implements\palmtree.math.core.implements\pmc_internal.h

; 428  :     return (((_UINT64_T)value_high << 32) | value_low);

	xor	eax, eax
; File z:\sources\lunor\repos\rougemeilland\palmtree.math.core.implements\palmtree.math.core.implements\pmc_bitwiseand.c

; 263  :     return (PMC_STATUS_OK);

	mov	DWORD PTR [edi], ecx
; File z:\sources\lunor\repos\rougemeilland\palmtree.math.core.implements\palmtree.math.core.implements\pmc_internal.h

; 428  :     return (((_UINT64_T)value_high << 32) | value_low);

	or	eax, edx
; File z:\sources\lunor\repos\rougemeilland\palmtree.math.core.implements\palmtree.math.core.implements\pmc_bitwiseand.c

; 263  :     return (PMC_STATUS_OK);

	mov	DWORD PTR [edi+4], eax
	xor	eax, eax
	pop	edi

; 264  : }

	pop	esi
	pop	ebp
	ret	16					; 00000010H
$LN19@PMC_Bitwis:

; 227  :         return (PMC_STATUS_ARGUMENT_ERROR);

	or	eax, -1
$LN1@PMC_Bitwis:
	pop	edi

; 264  : }

	pop	esi
	pop	ebp
	ret	16					; 00000010H
_PMC_BitwiseAnd_L_X@16 ENDP
_TEXT	ENDS
; Function compile flags: /Ogtp
; File z:\sources\lunor\repos\rougemeilland\palmtree.math.core.implements\palmtree.math.core.implements\pmc_bitwiseand.c
;	COMDAT _PMC_BitwiseAnd_I_X@12
_TEXT	SEGMENT
_u$ = 8							; size = 4
_v$ = 12						; size = 4
_w$ = 16						; size = 4
_PMC_BitwiseAnd_I_X@12 PROC				; COMDAT

; 148  : {

	push	ebp
	mov	ebp, esp
	push	esi

; 149  :     if (__UNIT_TYPE_BIT_COUNT < sizeof(u) * 8)
; 150  :     {
; 151  :         // _UINT32_T が 1 ワードで表現しきれない処理系には対応しない
; 152  :         return (PMC_STATUS_INTERNAL_ERROR);
; 153  :     }
; 154  :     if (v == NULL)

	mov	esi, DWORD PTR _v$[ebp]
	push	edi
	test	esi, esi
	je	SHORT $LN11@PMC_Bitwis

; 155  :         return (PMC_STATUS_ARGUMENT_ERROR);
; 156  :     if (w == NULL)

	mov	edi, DWORD PTR _w$[ebp]
	test	edi, edi
	je	SHORT $LN11@PMC_Bitwis

; 158  :     NUMBER_HEADER* nv = (NUMBER_HEADER*)v;
; 159  :     PMC_STATUS_CODE result;
; 160  :     if ((result = CheckNumber(nv)) != PMC_STATUS_OK)

	push	esi
	call	_CheckNumber
	add	esp, 4
	test	eax, eax
	jne	SHORT $LN1@PMC_Bitwis

; 161  :         return (result);
; 162  :     if (nv->IS_ZERO)

	test	BYTE PTR [esi+16], 2
	jne	SHORT $LN12@PMC_Bitwis

; 163  :     {
; 164  :         // v が 0 である場合
; 165  :         *w = 0;
; 166  :     }
; 167  :     else  if (u == 0)

	mov	ecx, DWORD PTR _u$[ebp]
	test	ecx, ecx
	jne	SHORT $LN8@PMC_Bitwis
$LN12@PMC_Bitwis:

; 178  :     }
; 179  :     return (PMC_STATUS_OK);

	xor	eax, eax
	mov	DWORD PTR [edi], eax
	pop	edi

; 180  : }

	pop	esi
	pop	ebp
	ret	12					; 0000000cH
$LN8@PMC_Bitwis:

; 168  :     {
; 169  :         // u が 0 である場合
; 170  :         *w = 0;
; 171  :     }
; 172  :     else
; 173  :     {
; 174  :         // u と v がともに 0 ではない場合
; 175  : 
; 176  :         // u と v の bit AND を計算する
; 177  :         *w = nv->BLOCK[0] & u;

	mov	eax, DWORD PTR [esi+24]
	mov	eax, DWORD PTR [eax]
	and	eax, ecx

; 178  :     }
; 179  :     return (PMC_STATUS_OK);

	mov	DWORD PTR [edi], eax
	xor	eax, eax
	pop	edi

; 180  : }

	pop	esi
	pop	ebp
	ret	12					; 0000000cH
$LN11@PMC_Bitwis:

; 157  :         return (PMC_STATUS_ARGUMENT_ERROR);

	or	eax, -1
$LN1@PMC_Bitwis:
	pop	edi

; 180  : }

	pop	esi
	pop	ebp
	ret	12					; 0000000cH
_PMC_BitwiseAnd_I_X@12 ENDP
_TEXT	ENDS
; Function compile flags: /Ogtp
; File z:\sources\lunor\repos\rougemeilland\palmtree.math.core.implements\palmtree.math.core.implements\pmc_bitwiseand.c
;	COMDAT _Initialize_BitwiseAnd
_TEXT	SEGMENT
_feature$ = 8						; size = 4
_Initialize_BitwiseAnd PROC				; COMDAT

; 365  :     return (PMC_STATUS_OK);

	xor	eax, eax

; 366  : }

	ret	0
_Initialize_BitwiseAnd ENDP
_TEXT	ENDS
END
