; Listing generated by Microsoft (R) Optimizing Compiler Version 19.16.27026.1 

	TITLE	Z:\Sources\Lunor\Repos\rougemeilland\Palmtree.Math.Core.Implements\Palmtree.Math.Core.Implements\pmc_shift.c
	.686P
	.XMM
	include listing.inc
	.model	flat

INCLUDELIB MSVCRT
INCLUDELIB OLDNAMES

PUBLIC	_RightShift_Imp_DIV
PUBLIC	_RightShift_Imp
PUBLIC	_LeftShift_Imp_DIV
PUBLIC	_LeftShift_Imp
PUBLIC	_Initialize_Shift
PUBLIC	_PMC_RightShift_X_I@12
PUBLIC	_PMC_RightShift_X_L@16
PUBLIC	_PMC_LeftShift_X_I@12
PUBLIC	_PMC_LeftShift_X_L@16
EXTRN	_CheckBlockLight:PROC
EXTRN	_AllocateNumber:PROC
EXTRN	_CommitNumber:PROC
EXTRN	_CheckNumber:PROC
EXTRN	_DuplicateNumber:PROC
EXTRN	_number_zero:BYTE
; Function compile flags: /Ogtp
; File z:\sources\lunor\repos\rougemeilland\palmtree.math.core.implements\palmtree.math.core.implements\pmc_internal.h
;	COMDAT __ZERO_MEMORY_UNIT_DIV
_TEXT	SEGMENT
_d$ = 8							; size = 4
_count$ = 12						; size = 4
__ZERO_MEMORY_UNIT_DIV PROC				; COMDAT

; 377  : {

	push	ebp
	mov	ebp, esp

; 378  : #ifdef _M_IX86
; 379  :     __stosd((unsigned long*)d, 0, (unsigned long)count);

	mov	ecx, DWORD PTR _count$[ebp]
	xor	eax, eax
	push	edi
	mov	edi, DWORD PTR _d$[ebp]
	rep stosd
	pop	edi

; 380  : #elif defined(_M_X64)
; 381  : #ifdef _MSC_VER
; 382  :     __stosd((unsigned long*)d, 0, (unsigned long)count);
; 383  : #elif defined(__GNUC__)
; 384  :     __stosq(d, 0, count);
; 385  : #else
; 386  : #error unknown compiler
; 387  : #endif
; 388  : #else
; 389  : #error unknown platform
; 390  : #endif
; 391  : }

	pop	ebp
	ret	0
__ZERO_MEMORY_UNIT_DIV ENDP
_TEXT	ENDS
; Function compile flags: /Ogtp
; File z:\sources\lunor\repos\rougemeilland\palmtree.math.core.implements\palmtree.math.core.implements\pmc_internal.h
;	COMDAT __ZERO_MEMORY_UNIT
_TEXT	SEGMENT
_d$ = 8							; size = 4
_count$ = 12						; size = 4
__ZERO_MEMORY_UNIT PROC					; COMDAT

; 366  : {

	push	ebp
	mov	ebp, esp

; 367  : #ifdef _M_IX86
; 368  :     __stosd((unsigned long*)d, 0, (unsigned long)count);

	mov	ecx, DWORD PTR _count$[ebp]
	xor	eax, eax
	push	edi
	mov	edi, DWORD PTR _d$[ebp]
	rep stosd
	pop	edi

; 369  : #elif defined(_M_X64)
; 370  :     __stosq(d, 0, count);
; 371  : #else
; 372  : #error unknown platform
; 373  : #endif
; 374  : }

	pop	ebp
	ret	0
__ZERO_MEMORY_UNIT ENDP
_TEXT	ENDS
; Function compile flags: /Ogtp
; File z:\sources\lunor\repos\rougemeilland\palmtree.math.core.implements\palmtree.math.core.implements\pmc_internal.h
;	COMDAT __COPY_MEMORY_UNIT_DIV
_TEXT	SEGMENT
_d$ = 8							; size = 4
_s$ = 12						; size = 4
_count$ = 16						; size = 4
__COPY_MEMORY_UNIT_DIV PROC				; COMDAT

; 327  : {

	push	ebp
	mov	ebp, esp

; 328  : #ifdef _M_IX86
; 329  :     __movsd((unsigned long *)d, (unsigned long *)s, (unsigned long)count);

	mov	ecx, DWORD PTR _count$[ebp]
	push	esi
	mov	esi, DWORD PTR _s$[ebp]
	push	edi
	mov	edi, DWORD PTR _d$[ebp]
	rep movsd
	pop	edi
	pop	esi

; 330  : #elif defined(_M_X64)
; 331  : #ifdef _MSC_VER
; 332  :     __movsd((unsigned long *)d, (unsigned long *)s, (unsigned long)count);
; 333  : #elif defined(__GNUC__)
; 334  :     __movsq(d, s, count);
; 335  : #else
; 336  : #error unknown compiler
; 337  : #endif
; 338  : #else
; 339  : #error unknown platform
; 340  : #endif
; 341  : }

	pop	ebp
	ret	0
__COPY_MEMORY_UNIT_DIV ENDP
_TEXT	ENDS
; Function compile flags: /Ogtp
; File z:\sources\lunor\repos\rougemeilland\palmtree.math.core.implements\palmtree.math.core.implements\pmc_internal.h
;	COMDAT __COPY_MEMORY_UNIT
_TEXT	SEGMENT
_d$ = 8							; size = 4
_s$ = 12						; size = 4
_count$ = 16						; size = 4
__COPY_MEMORY_UNIT PROC					; COMDAT

; 316  : {

	push	ebp
	mov	ebp, esp

; 317  : #ifdef _M_IX86
; 318  :     __movsd((unsigned long *)d, (unsigned long *)s, (unsigned long)count);

	mov	ecx, DWORD PTR _count$[ebp]
	push	esi
	mov	esi, DWORD PTR _s$[ebp]
	push	edi
	mov	edi, DWORD PTR _d$[ebp]
	rep movsd
	pop	edi
	pop	esi

; 319  : #elif defined(_M_X64)
; 320  :     __movsq(d, s, count);
; 321  : #else
; 322  : #error unknown platform
; 323  : #endif
; 324  : }

	pop	ebp
	ret	0
__COPY_MEMORY_UNIT ENDP
_TEXT	ENDS
; Function compile flags: /Ogtp
; File z:\sources\lunor\repos\rougemeilland\palmtree.math.core.implements\palmtree.math.core.implements\pmc_shift.c
;	COMDAT _PMC_LeftShift_X_L@16
_TEXT	SEGMENT
_p$ = 8							; size = 4
_n$ = 12						; size = 8
_o$ = 20						; size = 4
_PMC_LeftShift_X_L@16 PROC				; COMDAT

; 721  :     if (__UNIT_TYPE_BIT_COUNT < sizeof(n) * 8)
; 722  :     {
; 723  :         // _UINT64_T が 1 ワードで表現しきれない処理系には対応しない
; 724  :         return (PMC_STATUS_NOT_SUPPORTED);

	mov	eax, -6					; fffffffaH

; 725  :     }
; 726  :     if (p == NULL)
; 727  :         return (PMC_STATUS_ARGUMENT_ERROR);
; 728  :     if (o == NULL)
; 729  :         return (PMC_STATUS_ARGUMENT_ERROR);
; 730  :     NUMBER_HEADER* np = (NUMBER_HEADER*)p;
; 731  :     NUMBER_HEADER* no;
; 732  :     PMC_STATUS_CODE result;
; 733  :     if ((result = CheckNumber(np)) != PMC_STATUS_OK)
; 734  :         return (result);
; 735  :     if (np->IS_ZERO)
; 736  :         *o = &number_zero;
; 737  :     else if (n == 0)
; 738  :     {
; 739  :         if ((result = DuplicateNumber(np, &no)) != PMC_STATUS_OK)
; 740  :             return (result);
; 741  :         *o = no;
; 742  :     }
; 743  :     else
; 744  :     {
; 745  :         __UNIT_TYPE p_bit_count = np->UNIT_BIT_COUNT;
; 746  :         __UNIT_TYPE o_bit_count = p_bit_count + (__UNIT_TYPE)n;
; 747  :         __UNIT_TYPE no_light_check_code;
; 748  :         if ((result = AllocateNumber(&no, o_bit_count, &no_light_check_code)) != PMC_STATUS_OK)
; 749  :             return (result);
; 750  :         LeftShift_Imp(np->BLOCK, np->UNIT_WORD_COUNT, (__UNIT_TYPE)n, no->BLOCK, FALSE);
; 751  :         if ((result = CheckBlockLight(no->BLOCK, no_light_check_code)) != PMC_STATUS_OK)
; 752  :             return (result);
; 753  :         CommitNumber(no);
; 754  :         *o = no;
; 755  :     }
; 756  : #ifdef _DEBUG
; 757  :     if ((result = CheckNumber(*o)) != PMC_STATUS_OK)
; 758  :         return (result);
; 759  : #endif
; 760  :     return (PMC_STATUS_OK);
; 761  : }

	ret	16					; 00000010H
_PMC_LeftShift_X_L@16 ENDP
_TEXT	ENDS
; Function compile flags: /Ogtp
; File z:\sources\lunor\repos\rougemeilland\palmtree.math.core.implements\palmtree.math.core.implements\pmc_shift.c
;	COMDAT _PMC_LeftShift_X_I@12
_TEXT	SEGMENT
_no$ = 8						; size = 4
_p$ = 8							; size = 4
_n$ = 12						; size = 4
_no_light_check_code$1 = 16				; size = 4
_o$ = 16						; size = 4
_PMC_LeftShift_X_I@12 PROC				; COMDAT

; 676  : {

	push	ebp
	mov	ebp, esp
	push	esi

; 677  :     if (__UNIT_TYPE_BIT_COUNT < sizeof(n) * 8)
; 678  :     {
; 679  :         // _UINT32_T が 1 ワードで表現しきれない処理系には対応しない
; 680  :         return (PMC_STATUS_NOT_SUPPORTED);
; 681  :     }
; 682  :     if (p == NULL)

	mov	esi, DWORD PTR _p$[ebp]
	push	edi
	test	esi, esi
	je	$LN14@PMC_LeftSh

; 683  :         return (PMC_STATUS_ARGUMENT_ERROR);
; 684  :     if (o == NULL)

	mov	edi, DWORD PTR _o$[ebp]
	test	edi, edi
	je	$LN14@PMC_LeftSh

; 686  :     NUMBER_HEADER* np = (NUMBER_HEADER*)p;
; 687  :     NUMBER_HEADER* no;
; 688  :     PMC_STATUS_CODE result;
; 689  :     if ((result = CheckNumber(np)) != PMC_STATUS_OK)

	push	esi
	call	_CheckNumber
	add	esp, 4
	test	eax, eax
	jne	SHORT $LN1@PMC_LeftSh

; 690  :         return (result);
; 691  :     if (np->IS_ZERO)

	test	BYTE PTR [esi+16], 2
	push	ebx
	je	SHORT $LN6@PMC_LeftSh

; 692  :         *o = &number_zero;

	pop	ebx
	mov	DWORD PTR [edi], OFFSET _number_zero
	pop	edi

; 717  : }

	pop	esi
	pop	ebp
	ret	12					; 0000000cH
$LN6@PMC_LeftSh:

; 693  :     else if (n == 0)

	mov	ebx, DWORD PTR _n$[ebp]
	test	ebx, ebx
	jne	SHORT $LN8@PMC_LeftSh

; 694  :     {
; 695  :         if ((result = DuplicateNumber(np, &no)) != PMC_STATUS_OK)

	lea	eax, DWORD PTR _no$[ebp]
	push	eax
	push	esi
	call	_DuplicateNumber
	add	esp, 8
	test	eax, eax
	je	SHORT $LN16@PMC_LeftSh
$LN15@PMC_LeftSh:
	pop	ebx
$LN1@PMC_LeftSh:
	pop	edi

; 717  : }

	pop	esi
	pop	ebp
	ret	12					; 0000000cH
$LN8@PMC_LeftSh:

; 696  :             return (result);
; 697  :         *o = no;
; 698  :     }
; 699  :     else
; 700  :     {
; 701  :         __UNIT_TYPE p_bit_count = np->UNIT_BIT_COUNT;
; 702  :         __UNIT_TYPE o_bit_count = p_bit_count + n;

	mov	eax, DWORD PTR [esi+4]

; 703  :         __UNIT_TYPE no_light_check_code;
; 704  :         if ((result = AllocateNumber(&no, o_bit_count, &no_light_check_code)) != PMC_STATUS_OK)

	lea	ecx, DWORD PTR _no_light_check_code$1[ebp]
	add	eax, ebx
	push	ecx
	push	eax
	lea	eax, DWORD PTR _no$[ebp]
	push	eax
	call	_AllocateNumber
	add	esp, 12					; 0000000cH
	test	eax, eax
	jne	SHORT $LN15@PMC_LeftSh

; 705  :             return (result);
; 706  :         LeftShift_Imp(np->BLOCK, np->UNIT_WORD_COUNT, n, no->BLOCK, FALSE);

	push	eax
	mov	eax, DWORD PTR _no$[ebp]
	push	DWORD PTR [eax+24]
	push	ebx
	push	DWORD PTR [esi]
	push	DWORD PTR [esi+24]
	call	_LeftShift_Imp

; 707  :         if ((result = CheckBlockLight(no->BLOCK, no_light_check_code)) != PMC_STATUS_OK)

	mov	eax, DWORD PTR _no$[ebp]
	push	DWORD PTR _no_light_check_code$1[ebp]
	push	DWORD PTR [eax+24]
	call	_CheckBlockLight
	add	esp, 28					; 0000001cH
	test	eax, eax
	jne	SHORT $LN15@PMC_LeftSh

; 708  :             return (result);
; 709  :         CommitNumber(no);

	push	DWORD PTR _no$[ebp]
	call	_CommitNumber
	add	esp, 4
$LN16@PMC_LeftSh:

; 710  :         *o = no;
; 711  :     }
; 712  : #ifdef _DEBUG
; 713  :     if ((result = CheckNumber(*o)) != PMC_STATUS_OK)
; 714  :         return (result);
; 715  : #endif
; 716  :     return (PMC_STATUS_OK);

	mov	eax, DWORD PTR _no$[ebp]
	pop	ebx
	mov	DWORD PTR [edi], eax
	xor	eax, eax
	pop	edi

; 717  : }

	pop	esi
	pop	ebp
	ret	12					; 0000000cH
$LN14@PMC_LeftSh:
	pop	edi

; 685  :         return (PMC_STATUS_ARGUMENT_ERROR);

	or	eax, -1

; 717  : }

	pop	esi
	pop	ebp
	ret	12					; 0000000cH
_PMC_LeftShift_X_I@12 ENDP
_TEXT	ENDS
; Function compile flags: /Ogtp
; File z:\sources\lunor\repos\rougemeilland\palmtree.math.core.implements\palmtree.math.core.implements\pmc_shift.c
;	COMDAT _PMC_RightShift_X_L@16
_TEXT	SEGMENT
_p$ = 8							; size = 4
_n$ = 12						; size = 8
_o$ = 20						; size = 4
_PMC_RightShift_X_L@16 PROC				; COMDAT

; 628  :     if (__UNIT_TYPE_BIT_COUNT < sizeof(n) * 8)
; 629  :     {
; 630  :         // _UINT64_T が 1 ワードで表現しきれない処理系には対応しない
; 631  :         return (PMC_STATUS_NOT_SUPPORTED);

	mov	eax, -6					; fffffffaH

; 632  :     }
; 633  :     if (p == NULL)
; 634  :         return (PMC_STATUS_ARGUMENT_ERROR);
; 635  :     if (o == NULL)
; 636  :         return (PMC_STATUS_ARGUMENT_ERROR);
; 637  :     NUMBER_HEADER* np = (NUMBER_HEADER*)p;
; 638  :     NUMBER_HEADER* no;
; 639  :     PMC_STATUS_CODE result;
; 640  :     if ((result = CheckNumber(np)) != PMC_STATUS_OK)
; 641  :         return (result);
; 642  :     if (np->IS_ZERO)
; 643  :         *o = &number_zero;
; 644  :     else if (n == 0)
; 645  :     {
; 646  :         if ((result = DuplicateNumber(np, &no)) != PMC_STATUS_OK)
; 647  :             return (result);
; 648  :         *o = no;
; 649  :     }
; 650  :     else
; 651  :     {
; 652  :         __UNIT_TYPE p_bit_count = np->UNIT_BIT_COUNT;
; 653  :         if (p_bit_count <= n)
; 654  :             *o = &number_zero;
; 655  :         else
; 656  :         {
; 657  :             __UNIT_TYPE o_bit_count = p_bit_count - (__UNIT_TYPE)n;
; 658  :             __UNIT_TYPE no_light_check_code;
; 659  :             if ((result = AllocateNumber(&no, o_bit_count, &no_light_check_code)) != PMC_STATUS_OK)
; 660  :                 return (result);
; 661  :             RightShift_Imp(np->BLOCK, np->UNIT_WORD_COUNT, (__UNIT_TYPE)n, no->BLOCK, FALSE);
; 662  :             if ((result = CheckBlockLight(no->BLOCK, no_light_check_code)) != PMC_STATUS_OK)
; 663  :                 return (result);
; 664  :             CommitNumber(no);
; 665  :             *o = no;
; 666  :         }
; 667  :     }
; 668  : #ifdef _DEBUG
; 669  :     if ((result = CheckNumber(*o)) != PMC_STATUS_OK)
; 670  :         return (result);
; 671  : #endif
; 672  :     return (PMC_STATUS_OK);
; 673  : }

	ret	16					; 00000010H
_PMC_RightShift_X_L@16 ENDP
_TEXT	ENDS
; Function compile flags: /Ogtp
; File z:\sources\lunor\repos\rougemeilland\palmtree.math.core.implements\palmtree.math.core.implements\pmc_shift.c
;	COMDAT _PMC_RightShift_X_I@12
_TEXT	SEGMENT
_no$ = 8						; size = 4
_p$ = 8							; size = 4
_n$ = 12						; size = 4
_no_light_check_code$1 = 16				; size = 4
_o$ = 16						; size = 4
_PMC_RightShift_X_I@12 PROC				; COMDAT

; 578  : {

	push	ebp
	mov	ebp, esp
	push	esi

; 579  :     if (__UNIT_TYPE_BIT_COUNT < sizeof(n) * 8)
; 580  :     {
; 581  :         // _UINT32_T が 1 ワードで表現しきれない処理系には対応しない
; 582  :         return (PMC_STATUS_NOT_SUPPORTED);
; 583  :     }
; 584  :     if (p == NULL)

	mov	esi, DWORD PTR _p$[ebp]
	push	edi
	test	esi, esi
	je	$LN17@PMC_RightS

; 585  :         return (PMC_STATUS_ARGUMENT_ERROR);
; 586  :     if (o == NULL)

	mov	edi, DWORD PTR _o$[ebp]
	test	edi, edi
	je	$LN17@PMC_RightS

; 588  :     NUMBER_HEADER* np = (NUMBER_HEADER*)p;
; 589  :     NUMBER_HEADER* no;
; 590  :     PMC_STATUS_CODE result;
; 591  :     if ((result = CheckNumber(np)) != PMC_STATUS_OK)

	push	esi
	call	_CheckNumber
	add	esp, 4
	test	eax, eax
	jne	$LN1@PMC_RightS

; 592  :         return (result);
; 593  :     if (np->IS_ZERO)

	test	BYTE PTR [esi+16], 2
	push	ebx
	jne	$LN16@PMC_RightS

; 594  :         *o = &number_zero;
; 595  :     else if (n == 0)

	mov	ebx, DWORD PTR _n$[ebp]
	test	ebx, ebx
	jne	SHORT $LN8@PMC_RightS

; 596  :     {
; 597  :         if ((result = DuplicateNumber(np, &no)) != PMC_STATUS_OK)

	lea	eax, DWORD PTR _no$[ebp]
	push	eax
	push	esi
	call	_DuplicateNumber
	add	esp, 8
	test	eax, eax
	jne	SHORT $LN18@PMC_RightS

; 598  :             return (result);
; 599  :         *o = no;

	mov	eax, DWORD PTR _no$[ebp]
	pop	ebx
	mov	DWORD PTR [edi], eax

; 617  :         }
; 618  :     }
; 619  : #ifdef _DEBUG
; 620  :     if ((result = CheckNumber(*o)) != PMC_STATUS_OK)
; 621  :         return (result);
; 622  : #endif
; 623  :     return (PMC_STATUS_OK);

	xor	eax, eax
	pop	edi

; 624  : }

	pop	esi
	pop	ebp
	ret	12					; 0000000cH
$LN8@PMC_RightS:

; 600  :     }
; 601  :     else
; 602  :     {
; 603  :         __UNIT_TYPE p_bit_count = np->UNIT_BIT_COUNT;

	mov	eax, DWORD PTR [esi+4]

; 604  :         if (p_bit_count <= n)

	cmp	eax, ebx
	jbe	SHORT $LN16@PMC_RightS

; 606  :         else
; 607  :         {
; 608  :             __UNIT_TYPE o_bit_count = p_bit_count - n;
; 609  :             __UNIT_TYPE no_light_check_code;
; 610  :             if ((result = AllocateNumber(&no, o_bit_count, &no_light_check_code)) != PMC_STATUS_OK)

	lea	ecx, DWORD PTR _no_light_check_code$1[ebp]
	sub	eax, ebx
	push	ecx
	push	eax
	lea	eax, DWORD PTR _no$[ebp]
	push	eax
	call	_AllocateNumber
	add	esp, 12					; 0000000cH
	test	eax, eax
	jne	SHORT $LN18@PMC_RightS

; 611  :                 return (result);
; 612  :             RightShift_Imp(np->BLOCK, np->UNIT_WORD_COUNT, n, no->BLOCK, FALSE);

	push	eax
	mov	eax, DWORD PTR _no$[ebp]
	push	DWORD PTR [eax+24]
	push	ebx
	push	DWORD PTR [esi]
	push	DWORD PTR [esi+24]
	call	_RightShift_Imp

; 613  :             if ((result = CheckBlockLight(no->BLOCK, no_light_check_code)) != PMC_STATUS_OK)

	mov	eax, DWORD PTR _no$[ebp]
	push	DWORD PTR _no_light_check_code$1[ebp]
	push	DWORD PTR [eax+24]
	call	_CheckBlockLight
	add	esp, 28					; 0000001cH
	test	eax, eax
	jne	SHORT $LN18@PMC_RightS

; 614  :                 return (result);
; 615  :             CommitNumber(no);

	push	DWORD PTR _no$[ebp]
	call	_CommitNumber

; 616  :             *o = no;

	mov	eax, DWORD PTR _no$[ebp]
	add	esp, 4
	mov	DWORD PTR [edi], eax

; 617  :         }
; 618  :     }
; 619  : #ifdef _DEBUG
; 620  :     if ((result = CheckNumber(*o)) != PMC_STATUS_OK)
; 621  :         return (result);
; 622  : #endif
; 623  :     return (PMC_STATUS_OK);

	xor	eax, eax
	pop	ebx
	pop	edi

; 624  : }

	pop	esi
	pop	ebp
	ret	12					; 0000000cH
$LN16@PMC_RightS:

; 605  :             *o = &number_zero;

	mov	DWORD PTR [edi], OFFSET _number_zero

; 617  :         }
; 618  :     }
; 619  : #ifdef _DEBUG
; 620  :     if ((result = CheckNumber(*o)) != PMC_STATUS_OK)
; 621  :         return (result);
; 622  : #endif
; 623  :     return (PMC_STATUS_OK);

	xor	eax, eax
$LN18@PMC_RightS:
	pop	ebx
$LN1@PMC_RightS:
	pop	edi

; 624  : }

	pop	esi
	pop	ebp
	ret	12					; 0000000cH
$LN17@PMC_RightS:
	pop	edi

; 587  :         return (PMC_STATUS_ARGUMENT_ERROR);

	or	eax, -1

; 624  : }

	pop	esi
	pop	ebp
	ret	12					; 0000000cH
_PMC_RightShift_X_I@12 ENDP
_TEXT	ENDS
; Function compile flags: /Ogtp
; File z:\sources\lunor\repos\rougemeilland\palmtree.math.core.implements\palmtree.math.core.implements\pmc_shift.c
;	COMDAT _Initialize_Shift
_TEXT	SEGMENT
_feature$ = 8						; size = 4
_Initialize_Shift PROC					; COMDAT

; 765  :     return (PMC_STATUS_OK);

	xor	eax, eax

; 766  : }

	ret	0
_Initialize_Shift ENDP
_TEXT	ENDS
; Function compile flags: /Ogtp
; File z:\sources\lunor\repos\rougemeilland\palmtree.math.core.implements\palmtree.math.core.implements\pmc_shift.c
; File z:\sources\lunor\repos\rougemeilland\palmtree.math.core.implements\palmtree.math.core.implements\pmc_internal.h
; File z:\sources\lunor\repos\rougemeilland\palmtree.math.core.implements\palmtree.math.core.implements\pmc_shift.c
; File z:\sources\lunor\repos\rougemeilland\palmtree.math.core.implements\palmtree.math.core.implements\pmc_internal.h
; File z:\sources\lunor\repos\rougemeilland\palmtree.math.core.implements\palmtree.math.core.implements\pmc_shift.c
; File z:\sources\lunor\repos\rougemeilland\palmtree.math.core.implements\palmtree.math.core.implements\pmc_internal.h
; File z:\sources\lunor\repos\rougemeilland\palmtree.math.core.implements\palmtree.math.core.implements\pmc_shift.c
; File z:\sources\lunor\repos\rougemeilland\palmtree.math.core.implements\palmtree.math.core.implements\pmc_internal.h
; File z:\sources\lunor\repos\rougemeilland\palmtree.math.core.implements\palmtree.math.core.implements\pmc_shift.c
; File z:\sources\lunor\repos\rougemeilland\palmtree.math.core.implements\palmtree.math.core.implements\pmc_internal.h
; File z:\sources\lunor\repos\rougemeilland\palmtree.math.core.implements\palmtree.math.core.implements\pmc_shift.c
;	COMDAT _LeftShift_Imp
_TEXT	SEGMENT
_n_word_count$1$ = -12					; size = 4
_count$1$ = -8						; size = 4
_n_rshift_bit_count$1$ = -4				; size = 4
_p_count$1$ = 8						; size = 4
_p$ = 8							; size = 4
_work$62$ = 12						; size = 4
_p_word_count$ = 12					; size = 4
_n$ = 16						; size = 4
_o$ = 20						; size = 4
_padding_zero$ = 24					; size = 4
_LeftShift_Imp PROC					; COMDAT

; 308  : {

	push	ebp
	mov	ebp, esp
	sub	esp, 12					; 0000000cH

; 309  :     __UNIT_TYPE* pp = p;
; 310  :     __UNIT_TYPE p_count = p_word_count;
; 311  :     __UNIT_TYPE* op = o;
; 312  :     __UNIT_TYPE n_word_count = n / __UNIT_TYPE_BIT_COUNT;
; 313  :     __UNIT_TYPE n_lshift_bit_count = n % __UNIT_TYPE_BIT_COUNT;
; 314  :     if (n_lshift_bit_count == 0)

	mov	ecx, DWORD PTR _p_word_count$[ebp]
	push	esi
	push	edi
	mov	edi, DWORD PTR _n$[ebp]
	mov	edx, edi
	shr	edx, 5
	and	edi, 31					; 0000001fH
	mov	DWORD PTR _n_word_count$1$[ebp], edx
	mov	DWORD PTR _n$[ebp], edi
	jne	SHORT $LN4@LeftShift_

; 318  :         if (padding_zero)

	cmp	DWORD PTR _padding_zero$[ebp], 0
	mov	eax, DWORD PTR _o$[ebp]
; File z:\sources\lunor\repos\rougemeilland\palmtree.math.core.implements\palmtree.math.core.implements\pmc_internal.h

; 318  :     __movsd((unsigned long *)d, (unsigned long *)s, (unsigned long)count);

	mov	esi, DWORD PTR _p$[ebp]
; File z:\sources\lunor\repos\rougemeilland\palmtree.math.core.implements\palmtree.math.core.implements\pmc_shift.c

; 317  :         _COPY_MEMORY_UNIT(op + n_word_count, pp, p_count);

	lea	edi, DWORD PTR [eax+edx*4]
; File z:\sources\lunor\repos\rougemeilland\palmtree.math.core.implements\palmtree.math.core.implements\pmc_internal.h

; 318  :     __movsd((unsigned long *)d, (unsigned long *)s, (unsigned long)count);

	rep movsd
; File z:\sources\lunor\repos\rougemeilland\palmtree.math.core.implements\palmtree.math.core.implements\pmc_shift.c

; 318  :         if (padding_zero)

	je	$LN19@LeftShift_
; File z:\sources\lunor\repos\rougemeilland\palmtree.math.core.implements\palmtree.math.core.implements\pmc_internal.h

; 368  :     __stosd((unsigned long*)d, 0, (unsigned long)count);

	mov	edi, eax
	mov	ecx, edx
; File z:\sources\lunor\repos\rougemeilland\palmtree.math.core.implements\palmtree.math.core.implements\pmc_shift.c

; 440  : }

	xor	eax, eax
	rep stosd
	pop	edi
	pop	esi
	mov	esp, ebp
	pop	ebp
	ret	0
$LN4@LeftShift_:

; 319  :             _ZERO_MEMORY_UNIT(op, n_word_count);
; 320  :     }
; 321  :     else
; 322  :     {
; 323  :         __UNIT_TYPE n_rshift_bit_count = __UNIT_TYPE_BIT_COUNT - n_lshift_bit_count;
; 324  :         pp += p_count - 1;

	mov	eax, DWORD PTR _p$[ebp]
	mov	edx, 32					; 00000020H

; 325  :         op += p_count + n_word_count;

	mov	esi, DWORD PTR _o$[ebp]
	sub	edx, edi
	push	ebx
	lea	ebx, DWORD PTR [eax+ecx*4]
	mov	DWORD PTR _n_rshift_bit_count$1$[ebp], edx
	mov	eax, DWORD PTR _n_word_count$1$[ebp]
	add	eax, ecx

; 326  :         p_count -= 1;

	dec	ecx
	mov	DWORD PTR _p_count$1$[ebp], ecx

; 327  :         __UNIT_TYPE temp = *pp;
; 328  :         __UNIT_TYPE work = temp >> n_rshift_bit_count;

	mov	ecx, edx
	lea	eax, DWORD PTR [esi+eax*4]
	mov	esi, DWORD PTR [ebx-4]
	mov	edx, esi
	mov	DWORD PTR _work$62$[ebp], esi
	shr	edx, cl

; 329  :         if (work != 0)

	test	edx, edx
	je	SHORT $LN7@LeftShift_

; 330  :             *op = work;

	mov	DWORD PTR [eax], edx
$LN7@LeftShift_:

; 331  :         --pp;
; 332  :         --op;
; 333  : 
; 334  :         __UNIT_TYPE count = p_count >> 5;

	mov	ecx, DWORD PTR _p_count$1$[ebp]
	sub	ebx, 8
	mov	edx, ecx
	sub	eax, 4
	shr	edx, 5
	mov	DWORD PTR _count$1$[ebp], edx

; 335  :         while (count != 0)

	test	edx, edx
	je	$LN3@LeftShift_
	npad	4
$LL2@LeftShift_:

; 336  :         {
; 337  :             work = temp << n_lshift_bit_count; temp = pp[-0]; work |= temp >> n_rshift_bit_count; op[-0] = work;

	mov	ecx, edi
	shl	esi, cl
	mov	ecx, DWORD PTR _n_rshift_bit_count$1$[ebp]
	mov	DWORD PTR _work$62$[ebp], esi
	mov	esi, DWORD PTR [ebx]
	mov	edx, esi
	shr	edx, cl

; 338  :             work = temp << n_lshift_bit_count; temp = pp[-1]; work |= temp >> n_rshift_bit_count; op[-1] = work;

	mov	ecx, edi
	or	edx, DWORD PTR _work$62$[ebp]
	mov	DWORD PTR [eax], edx
	mov	edi, DWORD PTR [ebx-4]
	mov	edx, edi
	shl	esi, cl
	mov	ecx, DWORD PTR _n_rshift_bit_count$1$[ebp]
	shr	edx, cl
	or	edx, esi

; 339  :             work = temp << n_lshift_bit_count; temp = pp[-2]; work |= temp >> n_rshift_bit_count; op[-2] = work;

	mov	ecx, DWORD PTR _n$[ebp]
	mov	DWORD PTR [eax-4], edx
	mov	esi, DWORD PTR [ebx-8]
	mov	edx, esi
	shl	edi, cl
	mov	ecx, DWORD PTR _n_rshift_bit_count$1$[ebp]
	shr	edx, cl

; 340  :             work = temp << n_lshift_bit_count; temp = pp[-3]; work |= temp >> n_rshift_bit_count; op[-3] = work;

	mov	ecx, DWORD PTR _n$[ebp]
	or	edx, edi
	mov	DWORD PTR [eax-8], edx
	mov	edi, DWORD PTR [ebx-12]
	mov	edx, edi
	shl	esi, cl
	mov	ecx, DWORD PTR _n_rshift_bit_count$1$[ebp]
	shr	edx, cl

; 341  :             work = temp << n_lshift_bit_count; temp = pp[-4]; work |= temp >> n_rshift_bit_count; op[-4] = work;

	mov	ecx, DWORD PTR _n$[ebp]
	or	edx, esi
	mov	DWORD PTR [eax-12], edx
	mov	esi, DWORD PTR [ebx-16]
	mov	edx, esi
	shl	edi, cl
	mov	ecx, DWORD PTR _n_rshift_bit_count$1$[ebp]
	shr	edx, cl

; 342  :             work = temp << n_lshift_bit_count; temp = pp[-5]; work |= temp >> n_rshift_bit_count; op[-5] = work;

	mov	ecx, DWORD PTR _n$[ebp]
	or	edx, edi
	mov	DWORD PTR [eax-16], edx
	mov	edi, DWORD PTR [ebx-20]
	mov	edx, edi
	shl	esi, cl
	mov	ecx, DWORD PTR _n_rshift_bit_count$1$[ebp]
	shr	edx, cl

; 343  :             work = temp << n_lshift_bit_count; temp = pp[-6]; work |= temp >> n_rshift_bit_count; op[-6] = work;

	mov	ecx, DWORD PTR _n$[ebp]
	or	edx, esi
	mov	DWORD PTR [eax-20], edx
	mov	esi, DWORD PTR [ebx-24]
	mov	edx, esi
	shl	edi, cl
	mov	ecx, DWORD PTR _n_rshift_bit_count$1$[ebp]
	shr	edx, cl

; 344  :             work = temp << n_lshift_bit_count; temp = pp[-7]; work |= temp >> n_rshift_bit_count; op[-7] = work;

	mov	ecx, DWORD PTR _n$[ebp]
	or	edx, edi
	mov	DWORD PTR [eax-24], edx
	mov	edi, DWORD PTR [ebx-28]
	mov	edx, edi
	shl	esi, cl
	mov	ecx, DWORD PTR _n_rshift_bit_count$1$[ebp]
	shr	edx, cl

; 345  :             work = temp << n_lshift_bit_count; temp = pp[-8]; work |= temp >> n_rshift_bit_count; op[-8] = work;

	mov	ecx, DWORD PTR _n$[ebp]
	or	edx, esi
	mov	DWORD PTR [eax-28], edx
	mov	esi, DWORD PTR [ebx-32]
	mov	edx, esi
	shl	edi, cl
	mov	ecx, DWORD PTR _n_rshift_bit_count$1$[ebp]
	shr	edx, cl

; 346  :             work = temp << n_lshift_bit_count; temp = pp[-9]; work |= temp >> n_rshift_bit_count; op[-9] = work;

	mov	ecx, DWORD PTR _n$[ebp]
	or	edx, edi
	mov	DWORD PTR [eax-32], edx
	mov	edi, DWORD PTR [ebx-36]
	mov	edx, edi
	shl	esi, cl
	mov	ecx, DWORD PTR _n_rshift_bit_count$1$[ebp]
	shr	edx, cl
	or	edx, esi
	mov	DWORD PTR [eax-36], edx

; 347  :             work = temp << n_lshift_bit_count; temp = pp[-10]; work |= temp >> n_rshift_bit_count; op[-10] = work;

	mov	esi, DWORD PTR [ebx-40]
	mov	edx, esi
	mov	ecx, DWORD PTR _n$[ebp]
	shl	edi, cl
	mov	ecx, DWORD PTR _n_rshift_bit_count$1$[ebp]
	shr	edx, cl
	or	edx, edi

; 348  :             work = temp << n_lshift_bit_count; temp = pp[-11]; work |= temp >> n_rshift_bit_count; op[-11] = work;

	mov	ecx, DWORD PTR _n$[ebp]
	mov	DWORD PTR [eax-40], edx
	mov	edi, DWORD PTR [ebx-44]
	mov	edx, edi
	shl	esi, cl
	mov	ecx, DWORD PTR _n_rshift_bit_count$1$[ebp]
	shr	edx, cl
	or	edx, esi

; 349  :             work = temp << n_lshift_bit_count; temp = pp[-12]; work |= temp >> n_rshift_bit_count; op[-12] = work;

	mov	ecx, DWORD PTR _n$[ebp]
	mov	DWORD PTR [eax-44], edx
	mov	esi, DWORD PTR [ebx-48]
	mov	edx, esi
	shl	edi, cl
	mov	ecx, DWORD PTR _n_rshift_bit_count$1$[ebp]
	shr	edx, cl

; 350  :             work = temp << n_lshift_bit_count; temp = pp[-13]; work |= temp >> n_rshift_bit_count; op[-13] = work;

	mov	ecx, DWORD PTR _n$[ebp]
	or	edx, edi
	mov	DWORD PTR [eax-48], edx
	mov	edi, DWORD PTR [ebx-52]
	mov	edx, edi
	shl	esi, cl
	mov	ecx, DWORD PTR _n_rshift_bit_count$1$[ebp]
	shr	edx, cl

; 351  :             work = temp << n_lshift_bit_count; temp = pp[-14]; work |= temp >> n_rshift_bit_count; op[-14] = work;

	mov	ecx, DWORD PTR _n$[ebp]
	or	edx, esi
	mov	DWORD PTR [eax-52], edx
	mov	esi, DWORD PTR [ebx-56]
	mov	edx, esi
	shl	edi, cl
	mov	ecx, DWORD PTR _n_rshift_bit_count$1$[ebp]
	shr	edx, cl

; 352  :             work = temp << n_lshift_bit_count; temp = pp[-15]; work |= temp >> n_rshift_bit_count; op[-15] = work;

	mov	ecx, DWORD PTR _n$[ebp]
	or	edx, edi
	mov	DWORD PTR [eax-56], edx
	mov	edi, DWORD PTR [ebx-60]
	mov	edx, edi
	shl	esi, cl
	mov	ecx, DWORD PTR _n_rshift_bit_count$1$[ebp]
	shr	edx, cl

; 353  :             work = temp << n_lshift_bit_count; temp = pp[-16]; work |= temp >> n_rshift_bit_count; op[-16] = work;

	mov	ecx, DWORD PTR _n$[ebp]
	or	edx, esi
	mov	DWORD PTR [eax-60], edx
	mov	esi, DWORD PTR [ebx-64]
	mov	edx, esi
	shl	edi, cl
	mov	ecx, DWORD PTR _n_rshift_bit_count$1$[ebp]
	shr	edx, cl

; 354  :             work = temp << n_lshift_bit_count; temp = pp[-17]; work |= temp >> n_rshift_bit_count; op[-17] = work;

	mov	ecx, DWORD PTR _n$[ebp]
	or	edx, edi
	mov	DWORD PTR [eax-64], edx
	mov	edi, DWORD PTR [ebx-68]
	mov	edx, edi
	shl	esi, cl
	mov	ecx, DWORD PTR _n_rshift_bit_count$1$[ebp]
	shr	edx, cl

; 355  :             work = temp << n_lshift_bit_count; temp = pp[-18]; work |= temp >> n_rshift_bit_count; op[-18] = work;

	mov	ecx, DWORD PTR _n$[ebp]
	or	edx, esi
	mov	DWORD PTR [eax-68], edx
	mov	esi, DWORD PTR [ebx-72]
	mov	edx, esi
	shl	edi, cl
	mov	ecx, DWORD PTR _n_rshift_bit_count$1$[ebp]
	shr	edx, cl

; 356  :             work = temp << n_lshift_bit_count; temp = pp[-19]; work |= temp >> n_rshift_bit_count; op[-19] = work;

	mov	ecx, DWORD PTR _n$[ebp]
	or	edx, edi
	mov	DWORD PTR [eax-72], edx
	mov	edi, DWORD PTR [ebx-76]
	mov	edx, edi
	shl	esi, cl
	mov	ecx, DWORD PTR _n_rshift_bit_count$1$[ebp]
	shr	edx, cl

; 357  :             work = temp << n_lshift_bit_count; temp = pp[-20]; work |= temp >> n_rshift_bit_count; op[-20] = work;

	mov	ecx, DWORD PTR _n$[ebp]
	or	edx, esi
	mov	DWORD PTR [eax-76], edx
	mov	esi, DWORD PTR [ebx-80]
	mov	edx, esi
	shl	edi, cl
	mov	ecx, DWORD PTR _n_rshift_bit_count$1$[ebp]
	shr	edx, cl
	or	edx, edi

; 358  :             work = temp << n_lshift_bit_count; temp = pp[-21]; work |= temp >> n_rshift_bit_count; op[-21] = work;

	mov	ecx, DWORD PTR _n$[ebp]
	mov	DWORD PTR [eax-80], edx
	mov	edi, DWORD PTR [ebx-84]
	mov	edx, edi
	shl	esi, cl
	mov	ecx, DWORD PTR _n_rshift_bit_count$1$[ebp]
	shr	edx, cl
	or	edx, esi

; 359  :             work = temp << n_lshift_bit_count; temp = pp[-22]; work |= temp >> n_rshift_bit_count; op[-22] = work;

	mov	ecx, DWORD PTR _n$[ebp]
	mov	DWORD PTR [eax-84], edx
	mov	esi, DWORD PTR [ebx-88]
	mov	edx, esi
	shl	edi, cl
	mov	ecx, DWORD PTR _n_rshift_bit_count$1$[ebp]
	shr	edx, cl

; 360  :             work = temp << n_lshift_bit_count; temp = pp[-23]; work |= temp >> n_rshift_bit_count; op[-23] = work;

	mov	ecx, DWORD PTR _n$[ebp]
	or	edx, edi
	mov	DWORD PTR [eax-88], edx
	mov	edi, DWORD PTR [ebx-92]
	mov	edx, edi
	shl	esi, cl
	mov	ecx, DWORD PTR _n_rshift_bit_count$1$[ebp]
	shr	edx, cl

; 361  :             work = temp << n_lshift_bit_count; temp = pp[-24]; work |= temp >> n_rshift_bit_count; op[-24] = work;

	mov	ecx, DWORD PTR _n$[ebp]
	or	edx, esi
	mov	DWORD PTR [eax-92], edx
	mov	esi, DWORD PTR [ebx-96]
	mov	edx, esi
	shl	edi, cl
	mov	ecx, DWORD PTR _n_rshift_bit_count$1$[ebp]
	shr	edx, cl

; 362  :             work = temp << n_lshift_bit_count; temp = pp[-25]; work |= temp >> n_rshift_bit_count; op[-25] = work;

	mov	ecx, DWORD PTR _n$[ebp]
	or	edx, edi
	mov	DWORD PTR [eax-96], edx
	mov	edi, DWORD PTR [ebx-100]
	mov	edx, edi
	shl	esi, cl
	mov	ecx, DWORD PTR _n_rshift_bit_count$1$[ebp]
	shr	edx, cl

; 363  :             work = temp << n_lshift_bit_count; temp = pp[-26]; work |= temp >> n_rshift_bit_count; op[-26] = work;

	mov	ecx, DWORD PTR _n$[ebp]
	or	edx, esi
	mov	DWORD PTR [eax-100], edx
	mov	esi, DWORD PTR [ebx-104]
	mov	edx, esi
	shl	edi, cl
	mov	ecx, DWORD PTR _n_rshift_bit_count$1$[ebp]
	shr	edx, cl

; 364  :             work = temp << n_lshift_bit_count; temp = pp[-27]; work |= temp >> n_rshift_bit_count; op[-27] = work;

	mov	ecx, DWORD PTR _n$[ebp]
	or	edx, edi
	mov	DWORD PTR [eax-104], edx
	mov	edi, DWORD PTR [ebx-108]
	mov	edx, edi
	shl	esi, cl
	mov	ecx, DWORD PTR _n_rshift_bit_count$1$[ebp]
	shr	edx, cl

; 365  :             work = temp << n_lshift_bit_count; temp = pp[-28]; work |= temp >> n_rshift_bit_count; op[-28] = work;

	mov	ecx, DWORD PTR _n$[ebp]
	or	edx, esi
	mov	DWORD PTR [eax-108], edx
	mov	esi, DWORD PTR [ebx-112]
	mov	edx, esi
	shl	edi, cl
	mov	ecx, DWORD PTR _n_rshift_bit_count$1$[ebp]
	shr	edx, cl

; 366  :             work = temp << n_lshift_bit_count; temp = pp[-29]; work |= temp >> n_rshift_bit_count; op[-29] = work;

	mov	ecx, DWORD PTR _n$[ebp]
	or	edx, edi
	mov	DWORD PTR [eax-112], edx
	mov	edi, DWORD PTR [ebx-116]
	mov	edx, edi
	shl	esi, cl
	mov	ecx, DWORD PTR _n_rshift_bit_count$1$[ebp]
	shr	edx, cl

; 367  :             work = temp << n_lshift_bit_count; temp = pp[-30]; work |= temp >> n_rshift_bit_count; op[-30] = work;

	mov	ecx, DWORD PTR _n$[ebp]
	or	edx, esi
	mov	DWORD PTR [eax-116], edx
	shl	edi, cl
	mov	esi, DWORD PTR [ebx-120]
	mov	edx, esi
	mov	ecx, DWORD PTR _n_rshift_bit_count$1$[ebp]
	shr	edx, cl
	or	edx, edi

; 368  :             work = temp << n_lshift_bit_count; temp = pp[-31]; work |= temp >> n_rshift_bit_count; op[-31] = work;

	mov	edi, DWORD PTR _n$[ebp]
	mov	DWORD PTR [eax-120], edx
	mov	ecx, edi
	shl	esi, cl
	mov	ecx, DWORD PTR [ebx-124]
	mov	edx, ecx
	mov	DWORD PTR _work$62$[ebp], ecx

; 369  :             pp -= 32;

	add	ebx, -128				; ffffff80H
	mov	ecx, DWORD PTR _n_rshift_bit_count$1$[ebp]
	shr	edx, cl
	or	edx, esi
	mov	esi, DWORD PTR _work$62$[ebp]
	mov	DWORD PTR [eax-124], edx

; 370  :             op -= 32;

	add	eax, -128				; ffffff80H

; 371  :             --count;

	sub	DWORD PTR _count$1$[ebp], 1
	jne	$LL2@LeftShift_
	mov	ecx, DWORD PTR _p_count$1$[ebp]
$LN3@LeftShift_:

; 372  :         }
; 373  : 
; 374  :         if (p_count & 0x10)

	test	cl, 16					; 00000010H
	je	$LN8@LeftShift_

; 375  :         {
; 376  :             work = temp << n_lshift_bit_count; temp = pp[-0]; work |= temp >> n_rshift_bit_count; op[-0] = work;

	mov	ecx, edi
	shl	esi, cl
	mov	ecx, DWORD PTR _n_rshift_bit_count$1$[ebp]
	mov	DWORD PTR _work$62$[ebp], esi
	mov	esi, DWORD PTR [ebx]
	mov	edx, esi
	shr	edx, cl

; 377  :             work = temp << n_lshift_bit_count; temp = pp[-1]; work |= temp >> n_rshift_bit_count; op[-1] = work;

	mov	ecx, edi
	or	edx, DWORD PTR _work$62$[ebp]
	mov	DWORD PTR [eax], edx
	mov	edi, DWORD PTR [ebx-4]
	mov	edx, edi
	shl	esi, cl
	mov	ecx, DWORD PTR _n_rshift_bit_count$1$[ebp]
	shr	edx, cl
	or	edx, esi

; 378  :             work = temp << n_lshift_bit_count; temp = pp[-2]; work |= temp >> n_rshift_bit_count; op[-2] = work;

	mov	ecx, DWORD PTR _n$[ebp]
	mov	DWORD PTR [eax-4], edx
	mov	esi, DWORD PTR [ebx-8]
	mov	edx, esi
	shl	edi, cl
	mov	ecx, DWORD PTR _n_rshift_bit_count$1$[ebp]
	shr	edx, cl

; 379  :             work = temp << n_lshift_bit_count; temp = pp[-3]; work |= temp >> n_rshift_bit_count; op[-3] = work;

	mov	ecx, DWORD PTR _n$[ebp]
	or	edx, edi
	mov	DWORD PTR [eax-8], edx
	mov	edi, DWORD PTR [ebx-12]
	mov	edx, edi
	shl	esi, cl
	mov	ecx, DWORD PTR _n_rshift_bit_count$1$[ebp]
	shr	edx, cl

; 380  :             work = temp << n_lshift_bit_count; temp = pp[-4]; work |= temp >> n_rshift_bit_count; op[-4] = work;

	mov	ecx, DWORD PTR _n$[ebp]
	or	edx, esi
	mov	DWORD PTR [eax-12], edx
	mov	esi, DWORD PTR [ebx-16]
	mov	edx, esi
	shl	edi, cl
	mov	ecx, DWORD PTR _n_rshift_bit_count$1$[ebp]
	shr	edx, cl

; 381  :             work = temp << n_lshift_bit_count; temp = pp[-5]; work |= temp >> n_rshift_bit_count; op[-5] = work;

	mov	ecx, DWORD PTR _n$[ebp]
	or	edx, edi
	mov	DWORD PTR [eax-16], edx
	mov	edi, DWORD PTR [ebx-20]
	mov	edx, edi
	shl	esi, cl
	mov	ecx, DWORD PTR _n_rshift_bit_count$1$[ebp]
	shr	edx, cl

; 382  :             work = temp << n_lshift_bit_count; temp = pp[-6]; work |= temp >> n_rshift_bit_count; op[-6] = work;

	mov	ecx, DWORD PTR _n$[ebp]
	or	edx, esi
	mov	DWORD PTR [eax-20], edx
	mov	esi, DWORD PTR [ebx-24]
	mov	edx, esi
	shl	edi, cl
	mov	ecx, DWORD PTR _n_rshift_bit_count$1$[ebp]
	shr	edx, cl

; 383  :             work = temp << n_lshift_bit_count; temp = pp[-7]; work |= temp >> n_rshift_bit_count; op[-7] = work;

	mov	ecx, DWORD PTR _n$[ebp]
	or	edx, edi
	mov	DWORD PTR [eax-24], edx
	mov	edi, DWORD PTR [ebx-28]
	mov	edx, edi
	shl	esi, cl
	mov	ecx, DWORD PTR _n_rshift_bit_count$1$[ebp]
	shr	edx, cl

; 384  :             work = temp << n_lshift_bit_count; temp = pp[-8]; work |= temp >> n_rshift_bit_count; op[-8] = work;

	mov	ecx, DWORD PTR _n$[ebp]
	or	edx, esi
	mov	DWORD PTR [eax-28], edx
	mov	esi, DWORD PTR [ebx-32]
	mov	edx, esi
	shl	edi, cl
	mov	ecx, DWORD PTR _n_rshift_bit_count$1$[ebp]
	shr	edx, cl

; 385  :             work = temp << n_lshift_bit_count; temp = pp[-9]; work |= temp >> n_rshift_bit_count; op[-9] = work;

	mov	ecx, DWORD PTR _n$[ebp]
	or	edx, edi
	mov	DWORD PTR [eax-32], edx
	mov	edi, DWORD PTR [ebx-36]
	mov	edx, edi
	shl	esi, cl
	mov	ecx, DWORD PTR _n_rshift_bit_count$1$[ebp]
	shr	edx, cl
	or	edx, esi
	mov	DWORD PTR [eax-36], edx

; 386  :             work = temp << n_lshift_bit_count; temp = pp[-10]; work |= temp >> n_rshift_bit_count; op[-10] = work;

	mov	esi, DWORD PTR [ebx-40]
	mov	edx, esi
	mov	ecx, DWORD PTR _n$[ebp]
	shl	edi, cl
	mov	ecx, DWORD PTR _n_rshift_bit_count$1$[ebp]
	shr	edx, cl

; 387  :             work = temp << n_lshift_bit_count; temp = pp[-11]; work |= temp >> n_rshift_bit_count; op[-11] = work;

	mov	ecx, DWORD PTR _n$[ebp]
	or	edx, edi
	mov	DWORD PTR [eax-40], edx
	mov	edi, DWORD PTR [ebx-44]
	mov	edx, edi
	shl	esi, cl
	mov	ecx, DWORD PTR _n_rshift_bit_count$1$[ebp]
	shr	edx, cl

; 388  :             work = temp << n_lshift_bit_count; temp = pp[-12]; work |= temp >> n_rshift_bit_count; op[-12] = work;

	mov	ecx, DWORD PTR _n$[ebp]
	or	edx, esi
	mov	DWORD PTR [eax-44], edx
	mov	esi, DWORD PTR [ebx-48]
	mov	edx, esi
	shl	edi, cl
	mov	ecx, DWORD PTR _n_rshift_bit_count$1$[ebp]
	shr	edx, cl

; 389  :             work = temp << n_lshift_bit_count; temp = pp[-13]; work |= temp >> n_rshift_bit_count; op[-13] = work;

	mov	ecx, DWORD PTR _n$[ebp]
	or	edx, edi
	mov	DWORD PTR [eax-48], edx
	mov	edi, DWORD PTR [ebx-52]
	mov	edx, edi
	shl	esi, cl
	mov	ecx, DWORD PTR _n_rshift_bit_count$1$[ebp]
	shr	edx, cl

; 390  :             work = temp << n_lshift_bit_count; temp = pp[-14]; work |= temp >> n_rshift_bit_count; op[-14] = work;

	mov	ecx, DWORD PTR _n$[ebp]
	or	edx, esi
	mov	DWORD PTR [eax-52], edx
	mov	esi, DWORD PTR [ebx-56]
	mov	edx, esi
	shl	edi, cl
	mov	ecx, DWORD PTR _n_rshift_bit_count$1$[ebp]
	shr	edx, cl
	or	edx, edi

; 391  :             work = temp << n_lshift_bit_count; temp = pp[-15]; work |= temp >> n_rshift_bit_count; op[-15] = work;

	mov	edi, DWORD PTR _n$[ebp]
	mov	DWORD PTR [eax-56], edx
	mov	ecx, edi
	shl	esi, cl
	mov	ecx, DWORD PTR [ebx-60]
	mov	edx, ecx
	mov	DWORD PTR _work$62$[ebp], ecx

; 392  :             pp -= 16;

	sub	ebx, 64					; 00000040H
	mov	ecx, DWORD PTR _n_rshift_bit_count$1$[ebp]
	shr	edx, cl
	mov	ecx, DWORD PTR _p_count$1$[ebp]
	or	edx, esi
	mov	DWORD PTR [eax-60], edx

; 393  :             op -= 16;

	sub	eax, 64					; 00000040H
$LN8@LeftShift_:

; 394  :         }
; 395  : 
; 396  :         if (p_count & 0x8)

	test	cl, 8
	je	$LN9@LeftShift_

; 397  :         {
; 398  :             work = temp << n_lshift_bit_count; temp = pp[-0]; work |= temp >> n_rshift_bit_count; op[-0] = work;

	mov	esi, DWORD PTR [ebx]
	mov	ecx, edi
	shl	DWORD PTR _work$62$[ebp], cl
	mov	edx, esi
	mov	ecx, DWORD PTR _n_rshift_bit_count$1$[ebp]
	shr	edx, cl

; 399  :             work = temp << n_lshift_bit_count; temp = pp[-1]; work |= temp >> n_rshift_bit_count; op[-1] = work;

	mov	ecx, edi
	or	edx, DWORD PTR _work$62$[ebp]
	mov	DWORD PTR [eax], edx
	mov	edi, DWORD PTR [ebx-4]
	mov	edx, edi
	shl	esi, cl
	mov	ecx, DWORD PTR _n_rshift_bit_count$1$[ebp]
	shr	edx, cl

; 400  :             work = temp << n_lshift_bit_count; temp = pp[-2]; work |= temp >> n_rshift_bit_count; op[-2] = work;

	mov	ecx, DWORD PTR _n$[ebp]
	or	edx, esi
	mov	DWORD PTR [eax-4], edx
	mov	esi, DWORD PTR [ebx-8]
	mov	edx, esi
	shl	edi, cl
	mov	ecx, DWORD PTR _n_rshift_bit_count$1$[ebp]
	shr	edx, cl

; 401  :             work = temp << n_lshift_bit_count; temp = pp[-3]; work |= temp >> n_rshift_bit_count; op[-3] = work;

	mov	ecx, DWORD PTR _n$[ebp]
	or	edx, edi
	mov	DWORD PTR [eax-8], edx
	mov	edi, DWORD PTR [ebx-12]
	mov	edx, edi
	shl	esi, cl
	mov	ecx, DWORD PTR _n_rshift_bit_count$1$[ebp]
	shr	edx, cl

; 402  :             work = temp << n_lshift_bit_count; temp = pp[-4]; work |= temp >> n_rshift_bit_count; op[-4] = work;

	mov	ecx, DWORD PTR _n$[ebp]
	or	edx, esi
	mov	DWORD PTR [eax-12], edx
	mov	esi, DWORD PTR [ebx-16]
	mov	edx, esi
	shl	edi, cl
	mov	ecx, DWORD PTR _n_rshift_bit_count$1$[ebp]
	shr	edx, cl

; 403  :             work = temp << n_lshift_bit_count; temp = pp[-5]; work |= temp >> n_rshift_bit_count; op[-5] = work;

	mov	ecx, DWORD PTR _n$[ebp]
	or	edx, edi
	mov	DWORD PTR [eax-16], edx
	mov	edi, DWORD PTR [ebx-20]
	mov	edx, edi
	shl	esi, cl
	mov	ecx, DWORD PTR _n_rshift_bit_count$1$[ebp]
	shr	edx, cl

; 404  :             work = temp << n_lshift_bit_count; temp = pp[-6]; work |= temp >> n_rshift_bit_count; op[-6] = work;

	mov	ecx, DWORD PTR _n$[ebp]
	or	edx, esi
	mov	DWORD PTR [eax-20], edx
	mov	esi, DWORD PTR [ebx-24]
	mov	edx, esi
	shl	edi, cl
	mov	ecx, DWORD PTR _n_rshift_bit_count$1$[ebp]
	shr	edx, cl
	or	edx, edi

; 405  :             work = temp << n_lshift_bit_count; temp = pp[-7]; work |= temp >> n_rshift_bit_count; op[-7] = work;

	mov	edi, DWORD PTR _n$[ebp]
	mov	DWORD PTR [eax-24], edx
	mov	ecx, edi
	shl	esi, cl
	mov	ecx, DWORD PTR [ebx-28]
	mov	edx, ecx
	mov	DWORD PTR _work$62$[ebp], ecx

; 406  :             pp -= 8;

	sub	ebx, 32					; 00000020H
	mov	ecx, DWORD PTR _n_rshift_bit_count$1$[ebp]
	shr	edx, cl
	mov	ecx, DWORD PTR _p_count$1$[ebp]
	or	edx, esi
	mov	DWORD PTR [eax-28], edx

; 407  :             op -= 8;

	sub	eax, 32					; 00000020H
$LN9@LeftShift_:

; 408  :         }
; 409  : 
; 410  :         if (p_count & 0x4)

	test	cl, 4
	je	SHORT $LN10@LeftShift_

; 411  :         {
; 412  :             work = temp << n_lshift_bit_count; temp = pp[-0]; work |= temp >> n_rshift_bit_count; op[-0] = work;

	mov	esi, DWORD PTR [ebx]
	mov	ecx, edi
	shl	DWORD PTR _work$62$[ebp], cl
	mov	edx, esi
	mov	ecx, DWORD PTR _n_rshift_bit_count$1$[ebp]
	shr	edx, cl

; 413  :             work = temp << n_lshift_bit_count; temp = pp[-1]; work |= temp >> n_rshift_bit_count; op[-1] = work;

	mov	ecx, edi
	or	edx, DWORD PTR _work$62$[ebp]
	mov	DWORD PTR [eax], edx
	mov	edi, DWORD PTR [ebx-4]
	mov	edx, edi
	shl	esi, cl
	mov	ecx, DWORD PTR _n_rshift_bit_count$1$[ebp]
	shr	edx, cl

; 414  :             work = temp << n_lshift_bit_count; temp = pp[-2]; work |= temp >> n_rshift_bit_count; op[-2] = work;

	mov	ecx, DWORD PTR _n$[ebp]
	or	edx, esi
	mov	DWORD PTR [eax-4], edx
	mov	esi, DWORD PTR [ebx-8]
	mov	edx, esi
	shl	edi, cl
	mov	ecx, DWORD PTR _n_rshift_bit_count$1$[ebp]
	shr	edx, cl
	or	edx, edi

; 415  :             work = temp << n_lshift_bit_count; temp = pp[-3]; work |= temp >> n_rshift_bit_count; op[-3] = work;

	mov	edi, DWORD PTR _n$[ebp]
	mov	DWORD PTR [eax-8], edx
	mov	ecx, edi
	shl	esi, cl
	mov	ecx, DWORD PTR [ebx-12]
	mov	edx, ecx
	mov	DWORD PTR _work$62$[ebp], ecx

; 416  :             pp -= 4;

	sub	ebx, 16					; 00000010H
	mov	ecx, DWORD PTR _n_rshift_bit_count$1$[ebp]
	shr	edx, cl
	mov	ecx, DWORD PTR _p_count$1$[ebp]
	or	edx, esi
	mov	DWORD PTR [eax-12], edx

; 417  :             op -= 4;

	sub	eax, 16					; 00000010H
$LN10@LeftShift_:

; 418  :         }
; 419  : 
; 420  :         if (p_count & 0x2)

	test	cl, 2
	je	SHORT $LN11@LeftShift_

; 421  :         {
; 422  :             work = temp << n_lshift_bit_count; temp = pp[-0]; work |= temp >> n_rshift_bit_count; op[-0] = work;

	mov	esi, DWORD PTR [ebx]
	mov	ecx, edi
	shl	DWORD PTR _work$62$[ebp], cl
	mov	edx, esi
	mov	ecx, DWORD PTR _n_rshift_bit_count$1$[ebp]
	shr	edx, cl

; 423  :             work = temp << n_lshift_bit_count; temp = pp[-1]; work |= temp >> n_rshift_bit_count; op[-1] = work;

	mov	ecx, edi
	or	edx, DWORD PTR _work$62$[ebp]
	mov	DWORD PTR [eax], edx
	shl	esi, cl
	mov	ecx, DWORD PTR [ebx-4]
	mov	edx, ecx
	mov	DWORD PTR _work$62$[ebp], ecx

; 424  :             pp -= 2;

	sub	ebx, 8
	mov	ecx, DWORD PTR _n_rshift_bit_count$1$[ebp]
	shr	edx, cl
	mov	ecx, DWORD PTR _p_count$1$[ebp]
	or	edx, esi
	mov	DWORD PTR [eax-4], edx

; 425  :             op -= 2;

	sub	eax, 8
$LN11@LeftShift_:

; 426  :         }
; 427  : 
; 428  :         if (p_count & 0x1)

	test	cl, 1
	je	SHORT $LN12@LeftShift_

; 429  :         {
; 430  :             work = temp << n_lshift_bit_count; temp = pp[-0]; work |= temp >> n_rshift_bit_count; op[-0] = work;

	mov	esi, DWORD PTR _work$62$[ebp]
	mov	ecx, edi
	mov	edx, DWORD PTR [ebx]
	shl	esi, cl
	mov	ecx, DWORD PTR _n_rshift_bit_count$1$[ebp]
	mov	DWORD PTR _work$62$[ebp], edx
	shr	edx, cl
	or	edx, esi
	mov	DWORD PTR [eax], edx

; 431  :             pp -= 1;
; 432  :             op -= 1;

	sub	eax, 4
$LN12@LeftShift_:

; 433  :         }
; 434  :         work = temp << n_lshift_bit_count;

	mov	edx, DWORD PTR _work$62$[ebp]
	mov	ecx, edi
	shl	edx, cl

; 435  :         *op = work;
; 436  : 
; 437  :         if (padding_zero)

	cmp	DWORD PTR _padding_zero$[ebp], 0
	mov	DWORD PTR [eax], edx
	pop	ebx
	je	SHORT $LN19@LeftShift_
; File z:\sources\lunor\repos\rougemeilland\palmtree.math.core.implements\palmtree.math.core.implements\pmc_internal.h

; 368  :     __stosd((unsigned long*)d, 0, (unsigned long)count);

	mov	edi, DWORD PTR _o$[ebp]
; File z:\sources\lunor\repos\rougemeilland\palmtree.math.core.implements\palmtree.math.core.implements\pmc_shift.c

; 440  : }

	xor	eax, eax
; File z:\sources\lunor\repos\rougemeilland\palmtree.math.core.implements\palmtree.math.core.implements\pmc_internal.h

; 368  :     __stosd((unsigned long*)d, 0, (unsigned long)count);

	mov	ecx, DWORD PTR _n_word_count$1$[ebp]
; File z:\sources\lunor\repos\rougemeilland\palmtree.math.core.implements\palmtree.math.core.implements\pmc_shift.c

; 440  : }

	rep stosd
$LN19@LeftShift_:
	pop	edi
	pop	esi
	mov	esp, ebp
	pop	ebp
	ret	0
_LeftShift_Imp ENDP
_TEXT	ENDS
; Function compile flags: /Ogtp
; File z:\sources\lunor\repos\rougemeilland\palmtree.math.core.implements\palmtree.math.core.implements\pmc_shift.c
; File z:\sources\lunor\repos\rougemeilland\palmtree.math.core.implements\palmtree.math.core.implements\pmc_internal.h
; File z:\sources\lunor\repos\rougemeilland\palmtree.math.core.implements\palmtree.math.core.implements\pmc_shift.c
; File z:\sources\lunor\repos\rougemeilland\palmtree.math.core.implements\palmtree.math.core.implements\pmc_internal.h
; File z:\sources\lunor\repos\rougemeilland\palmtree.math.core.implements\palmtree.math.core.implements\pmc_shift.c
; File z:\sources\lunor\repos\rougemeilland\palmtree.math.core.implements\palmtree.math.core.implements\pmc_internal.h
; File z:\sources\lunor\repos\rougemeilland\palmtree.math.core.implements\palmtree.math.core.implements\pmc_shift.c
; File z:\sources\lunor\repos\rougemeilland\palmtree.math.core.implements\palmtree.math.core.implements\pmc_internal.h
; File z:\sources\lunor\repos\rougemeilland\palmtree.math.core.implements\palmtree.math.core.implements\pmc_shift.c
; File z:\sources\lunor\repos\rougemeilland\palmtree.math.core.implements\palmtree.math.core.implements\pmc_internal.h
; File z:\sources\lunor\repos\rougemeilland\palmtree.math.core.implements\palmtree.math.core.implements\pmc_shift.c
;	COMDAT _LeftShift_Imp_DIV
_TEXT	SEGMENT
_n_word_count$1$ = -12					; size = 4
_count$1$ = -8						; size = 4
_n_rshift_bit_count$1$ = -4				; size = 4
_p_count$1$ = 8						; size = 4
_p$ = 8							; size = 4
_work$62$ = 12						; size = 4
_p_word_count$ = 12					; size = 4
_n$ = 16						; size = 4
_o$ = 20						; size = 4
_padding_zero$ = 24					; size = 4
_LeftShift_Imp_DIV PROC					; COMDAT

; 443  : {

	push	ebp
	mov	ebp, esp
	sub	esp, 12					; 0000000cH

; 444  :     __UNIT_TYPE_DIV* pp = p;
; 445  :     __UNIT_TYPE p_count = p_word_count;
; 446  :     __UNIT_TYPE_DIV* op = o;
; 447  :     __UNIT_TYPE n_word_count = n / __UNIT_TYPE_BIT_COUNT;
; 448  :     __UNIT_TYPE n_lshift_bit_count = n % __UNIT_TYPE_BIT_COUNT;
; 449  :     if (n_lshift_bit_count == 0)

	mov	ecx, DWORD PTR _p_word_count$[ebp]
	push	esi
	push	edi
	mov	edi, DWORD PTR _n$[ebp]
	mov	edx, edi
	shr	edx, 5
	and	edi, 31					; 0000001fH
	mov	DWORD PTR _n_word_count$1$[ebp], edx
	mov	DWORD PTR _n$[ebp], edi
	jne	SHORT $LN4@LeftShift_

; 453  :         if (padding_zero)

	cmp	DWORD PTR _padding_zero$[ebp], 0
	mov	eax, DWORD PTR _o$[ebp]
; File z:\sources\lunor\repos\rougemeilland\palmtree.math.core.implements\palmtree.math.core.implements\pmc_internal.h

; 329  :     __movsd((unsigned long *)d, (unsigned long *)s, (unsigned long)count);

	mov	esi, DWORD PTR _p$[ebp]
; File z:\sources\lunor\repos\rougemeilland\palmtree.math.core.implements\palmtree.math.core.implements\pmc_shift.c

; 452  :         _COPY_MEMORY_UNIT_DIV(op + n_word_count, pp, p_count);

	lea	edi, DWORD PTR [eax+edx*4]
; File z:\sources\lunor\repos\rougemeilland\palmtree.math.core.implements\palmtree.math.core.implements\pmc_internal.h

; 329  :     __movsd((unsigned long *)d, (unsigned long *)s, (unsigned long)count);

	rep movsd
; File z:\sources\lunor\repos\rougemeilland\palmtree.math.core.implements\palmtree.math.core.implements\pmc_shift.c

; 453  :         if (padding_zero)

	je	$LN19@LeftShift_
; File z:\sources\lunor\repos\rougemeilland\palmtree.math.core.implements\palmtree.math.core.implements\pmc_internal.h

; 379  :     __stosd((unsigned long*)d, 0, (unsigned long)count);

	mov	edi, eax
	mov	ecx, edx
; File z:\sources\lunor\repos\rougemeilland\palmtree.math.core.implements\palmtree.math.core.implements\pmc_shift.c

; 575  : }

	xor	eax, eax
	rep stosd
	pop	edi
	pop	esi
	mov	esp, ebp
	pop	ebp
	ret	0
$LN4@LeftShift_:

; 454  :             _ZERO_MEMORY_UNIT_DIV(op, n_word_count);
; 455  :     }
; 456  :     else
; 457  :     {
; 458  :         __UNIT_TYPE n_rshift_bit_count = __UNIT_TYPE_BIT_COUNT - n_lshift_bit_count;
; 459  :         pp += p_count - 1;

	mov	eax, DWORD PTR _p$[ebp]
	mov	edx, 32					; 00000020H

; 460  :         op += p_count + n_word_count;

	mov	esi, DWORD PTR _o$[ebp]
	sub	edx, edi
	push	ebx
	lea	ebx, DWORD PTR [eax+ecx*4]
	mov	DWORD PTR _n_rshift_bit_count$1$[ebp], edx
	mov	eax, DWORD PTR _n_word_count$1$[ebp]
	add	eax, ecx

; 461  :         p_count -= 1;

	dec	ecx
	mov	DWORD PTR _p_count$1$[ebp], ecx

; 462  :         __UNIT_TYPE_DIV temp = *pp;
; 463  :         __UNIT_TYPE_DIV work = temp >> n_rshift_bit_count;

	mov	ecx, edx
	lea	eax, DWORD PTR [esi+eax*4]
	mov	esi, DWORD PTR [ebx-4]
	mov	edx, esi
	mov	DWORD PTR _work$62$[ebp], esi
	shr	edx, cl

; 464  :         if (work != 0)

	test	edx, edx
	je	SHORT $LN7@LeftShift_

; 465  :             *op = work;

	mov	DWORD PTR [eax], edx
$LN7@LeftShift_:

; 466  :         --pp;
; 467  :         --op;
; 468  : 
; 469  :         __UNIT_TYPE count = p_count >> 5;

	mov	ecx, DWORD PTR _p_count$1$[ebp]
	sub	ebx, 8
	mov	edx, ecx
	sub	eax, 4
	shr	edx, 5
	mov	DWORD PTR _count$1$[ebp], edx

; 470  :         while (count != 0)

	test	edx, edx
	je	$LN3@LeftShift_
	npad	4
$LL2@LeftShift_:

; 471  :         {
; 472  :             work = temp << n_lshift_bit_count; temp = pp[-0]; work |= temp >> n_rshift_bit_count; op[-0] = work;

	mov	ecx, edi
	shl	esi, cl
	mov	ecx, DWORD PTR _n_rshift_bit_count$1$[ebp]
	mov	DWORD PTR _work$62$[ebp], esi
	mov	esi, DWORD PTR [ebx]
	mov	edx, esi
	shr	edx, cl

; 473  :             work = temp << n_lshift_bit_count; temp = pp[-1]; work |= temp >> n_rshift_bit_count; op[-1] = work;

	mov	ecx, edi
	or	edx, DWORD PTR _work$62$[ebp]
	mov	DWORD PTR [eax], edx
	mov	edi, DWORD PTR [ebx-4]
	mov	edx, edi
	shl	esi, cl
	mov	ecx, DWORD PTR _n_rshift_bit_count$1$[ebp]
	shr	edx, cl
	or	edx, esi

; 474  :             work = temp << n_lshift_bit_count; temp = pp[-2]; work |= temp >> n_rshift_bit_count; op[-2] = work;

	mov	ecx, DWORD PTR _n$[ebp]
	mov	DWORD PTR [eax-4], edx
	mov	esi, DWORD PTR [ebx-8]
	mov	edx, esi
	shl	edi, cl
	mov	ecx, DWORD PTR _n_rshift_bit_count$1$[ebp]
	shr	edx, cl

; 475  :             work = temp << n_lshift_bit_count; temp = pp[-3]; work |= temp >> n_rshift_bit_count; op[-3] = work;

	mov	ecx, DWORD PTR _n$[ebp]
	or	edx, edi
	mov	DWORD PTR [eax-8], edx
	mov	edi, DWORD PTR [ebx-12]
	mov	edx, edi
	shl	esi, cl
	mov	ecx, DWORD PTR _n_rshift_bit_count$1$[ebp]
	shr	edx, cl

; 476  :             work = temp << n_lshift_bit_count; temp = pp[-4]; work |= temp >> n_rshift_bit_count; op[-4] = work;

	mov	ecx, DWORD PTR _n$[ebp]
	or	edx, esi
	mov	DWORD PTR [eax-12], edx
	mov	esi, DWORD PTR [ebx-16]
	mov	edx, esi
	shl	edi, cl
	mov	ecx, DWORD PTR _n_rshift_bit_count$1$[ebp]
	shr	edx, cl

; 477  :             work = temp << n_lshift_bit_count; temp = pp[-5]; work |= temp >> n_rshift_bit_count; op[-5] = work;

	mov	ecx, DWORD PTR _n$[ebp]
	or	edx, edi
	mov	DWORD PTR [eax-16], edx
	mov	edi, DWORD PTR [ebx-20]
	mov	edx, edi
	shl	esi, cl
	mov	ecx, DWORD PTR _n_rshift_bit_count$1$[ebp]
	shr	edx, cl

; 478  :             work = temp << n_lshift_bit_count; temp = pp[-6]; work |= temp >> n_rshift_bit_count; op[-6] = work;

	mov	ecx, DWORD PTR _n$[ebp]
	or	edx, esi
	mov	DWORD PTR [eax-20], edx
	mov	esi, DWORD PTR [ebx-24]
	mov	edx, esi
	shl	edi, cl
	mov	ecx, DWORD PTR _n_rshift_bit_count$1$[ebp]
	shr	edx, cl

; 479  :             work = temp << n_lshift_bit_count; temp = pp[-7]; work |= temp >> n_rshift_bit_count; op[-7] = work;

	mov	ecx, DWORD PTR _n$[ebp]
	or	edx, edi
	mov	DWORD PTR [eax-24], edx
	mov	edi, DWORD PTR [ebx-28]
	mov	edx, edi
	shl	esi, cl
	mov	ecx, DWORD PTR _n_rshift_bit_count$1$[ebp]
	shr	edx, cl

; 480  :             work = temp << n_lshift_bit_count; temp = pp[-8]; work |= temp >> n_rshift_bit_count; op[-8] = work;

	mov	ecx, DWORD PTR _n$[ebp]
	or	edx, esi
	mov	DWORD PTR [eax-28], edx
	mov	esi, DWORD PTR [ebx-32]
	mov	edx, esi
	shl	edi, cl
	mov	ecx, DWORD PTR _n_rshift_bit_count$1$[ebp]
	shr	edx, cl

; 481  :             work = temp << n_lshift_bit_count; temp = pp[-9]; work |= temp >> n_rshift_bit_count; op[-9] = work;

	mov	ecx, DWORD PTR _n$[ebp]
	or	edx, edi
	mov	DWORD PTR [eax-32], edx
	mov	edi, DWORD PTR [ebx-36]
	mov	edx, edi
	shl	esi, cl
	mov	ecx, DWORD PTR _n_rshift_bit_count$1$[ebp]
	shr	edx, cl
	or	edx, esi
	mov	DWORD PTR [eax-36], edx

; 482  :             work = temp << n_lshift_bit_count; temp = pp[-10]; work |= temp >> n_rshift_bit_count; op[-10] = work;

	mov	esi, DWORD PTR [ebx-40]
	mov	edx, esi
	mov	ecx, DWORD PTR _n$[ebp]
	shl	edi, cl
	mov	ecx, DWORD PTR _n_rshift_bit_count$1$[ebp]
	shr	edx, cl
	or	edx, edi

; 483  :             work = temp << n_lshift_bit_count; temp = pp[-11]; work |= temp >> n_rshift_bit_count; op[-11] = work;

	mov	ecx, DWORD PTR _n$[ebp]
	mov	DWORD PTR [eax-40], edx
	mov	edi, DWORD PTR [ebx-44]
	mov	edx, edi
	shl	esi, cl
	mov	ecx, DWORD PTR _n_rshift_bit_count$1$[ebp]
	shr	edx, cl
	or	edx, esi

; 484  :             work = temp << n_lshift_bit_count; temp = pp[-12]; work |= temp >> n_rshift_bit_count; op[-12] = work;

	mov	ecx, DWORD PTR _n$[ebp]
	mov	DWORD PTR [eax-44], edx
	mov	esi, DWORD PTR [ebx-48]
	mov	edx, esi
	shl	edi, cl
	mov	ecx, DWORD PTR _n_rshift_bit_count$1$[ebp]
	shr	edx, cl

; 485  :             work = temp << n_lshift_bit_count; temp = pp[-13]; work |= temp >> n_rshift_bit_count; op[-13] = work;

	mov	ecx, DWORD PTR _n$[ebp]
	or	edx, edi
	mov	DWORD PTR [eax-48], edx
	mov	edi, DWORD PTR [ebx-52]
	mov	edx, edi
	shl	esi, cl
	mov	ecx, DWORD PTR _n_rshift_bit_count$1$[ebp]
	shr	edx, cl

; 486  :             work = temp << n_lshift_bit_count; temp = pp[-14]; work |= temp >> n_rshift_bit_count; op[-14] = work;

	mov	ecx, DWORD PTR _n$[ebp]
	or	edx, esi
	mov	DWORD PTR [eax-52], edx
	mov	esi, DWORD PTR [ebx-56]
	mov	edx, esi
	shl	edi, cl
	mov	ecx, DWORD PTR _n_rshift_bit_count$1$[ebp]
	shr	edx, cl

; 487  :             work = temp << n_lshift_bit_count; temp = pp[-15]; work |= temp >> n_rshift_bit_count; op[-15] = work;

	mov	ecx, DWORD PTR _n$[ebp]
	or	edx, edi
	mov	DWORD PTR [eax-56], edx
	mov	edi, DWORD PTR [ebx-60]
	mov	edx, edi
	shl	esi, cl
	mov	ecx, DWORD PTR _n_rshift_bit_count$1$[ebp]
	shr	edx, cl

; 488  :             work = temp << n_lshift_bit_count; temp = pp[-16]; work |= temp >> n_rshift_bit_count; op[-16] = work;

	mov	ecx, DWORD PTR _n$[ebp]
	or	edx, esi
	mov	DWORD PTR [eax-60], edx
	mov	esi, DWORD PTR [ebx-64]
	mov	edx, esi
	shl	edi, cl
	mov	ecx, DWORD PTR _n_rshift_bit_count$1$[ebp]
	shr	edx, cl

; 489  :             work = temp << n_lshift_bit_count; temp = pp[-17]; work |= temp >> n_rshift_bit_count; op[-17] = work;

	mov	ecx, DWORD PTR _n$[ebp]
	or	edx, edi
	mov	DWORD PTR [eax-64], edx
	mov	edi, DWORD PTR [ebx-68]
	mov	edx, edi
	shl	esi, cl
	mov	ecx, DWORD PTR _n_rshift_bit_count$1$[ebp]
	shr	edx, cl

; 490  :             work = temp << n_lshift_bit_count; temp = pp[-18]; work |= temp >> n_rshift_bit_count; op[-18] = work;

	mov	ecx, DWORD PTR _n$[ebp]
	or	edx, esi
	mov	DWORD PTR [eax-68], edx
	mov	esi, DWORD PTR [ebx-72]
	mov	edx, esi
	shl	edi, cl
	mov	ecx, DWORD PTR _n_rshift_bit_count$1$[ebp]
	shr	edx, cl

; 491  :             work = temp << n_lshift_bit_count; temp = pp[-19]; work |= temp >> n_rshift_bit_count; op[-19] = work;

	mov	ecx, DWORD PTR _n$[ebp]
	or	edx, edi
	mov	DWORD PTR [eax-72], edx
	mov	edi, DWORD PTR [ebx-76]
	mov	edx, edi
	shl	esi, cl
	mov	ecx, DWORD PTR _n_rshift_bit_count$1$[ebp]
	shr	edx, cl

; 492  :             work = temp << n_lshift_bit_count; temp = pp[-20]; work |= temp >> n_rshift_bit_count; op[-20] = work;

	mov	ecx, DWORD PTR _n$[ebp]
	or	edx, esi
	mov	DWORD PTR [eax-76], edx
	mov	esi, DWORD PTR [ebx-80]
	mov	edx, esi
	shl	edi, cl
	mov	ecx, DWORD PTR _n_rshift_bit_count$1$[ebp]
	shr	edx, cl
	or	edx, edi

; 493  :             work = temp << n_lshift_bit_count; temp = pp[-21]; work |= temp >> n_rshift_bit_count; op[-21] = work;

	mov	ecx, DWORD PTR _n$[ebp]
	mov	DWORD PTR [eax-80], edx
	mov	edi, DWORD PTR [ebx-84]
	mov	edx, edi
	shl	esi, cl
	mov	ecx, DWORD PTR _n_rshift_bit_count$1$[ebp]
	shr	edx, cl
	or	edx, esi

; 494  :             work = temp << n_lshift_bit_count; temp = pp[-22]; work |= temp >> n_rshift_bit_count; op[-22] = work;

	mov	ecx, DWORD PTR _n$[ebp]
	mov	DWORD PTR [eax-84], edx
	mov	esi, DWORD PTR [ebx-88]
	mov	edx, esi
	shl	edi, cl
	mov	ecx, DWORD PTR _n_rshift_bit_count$1$[ebp]
	shr	edx, cl

; 495  :             work = temp << n_lshift_bit_count; temp = pp[-23]; work |= temp >> n_rshift_bit_count; op[-23] = work;

	mov	ecx, DWORD PTR _n$[ebp]
	or	edx, edi
	mov	DWORD PTR [eax-88], edx
	mov	edi, DWORD PTR [ebx-92]
	mov	edx, edi
	shl	esi, cl
	mov	ecx, DWORD PTR _n_rshift_bit_count$1$[ebp]
	shr	edx, cl

; 496  :             work = temp << n_lshift_bit_count; temp = pp[-24]; work |= temp >> n_rshift_bit_count; op[-24] = work;

	mov	ecx, DWORD PTR _n$[ebp]
	or	edx, esi
	mov	DWORD PTR [eax-92], edx
	mov	esi, DWORD PTR [ebx-96]
	mov	edx, esi
	shl	edi, cl
	mov	ecx, DWORD PTR _n_rshift_bit_count$1$[ebp]
	shr	edx, cl

; 497  :             work = temp << n_lshift_bit_count; temp = pp[-25]; work |= temp >> n_rshift_bit_count; op[-25] = work;

	mov	ecx, DWORD PTR _n$[ebp]
	or	edx, edi
	mov	DWORD PTR [eax-96], edx
	mov	edi, DWORD PTR [ebx-100]
	mov	edx, edi
	shl	esi, cl
	mov	ecx, DWORD PTR _n_rshift_bit_count$1$[ebp]
	shr	edx, cl

; 498  :             work = temp << n_lshift_bit_count; temp = pp[-26]; work |= temp >> n_rshift_bit_count; op[-26] = work;

	mov	ecx, DWORD PTR _n$[ebp]
	or	edx, esi
	mov	DWORD PTR [eax-100], edx
	mov	esi, DWORD PTR [ebx-104]
	mov	edx, esi
	shl	edi, cl
	mov	ecx, DWORD PTR _n_rshift_bit_count$1$[ebp]
	shr	edx, cl

; 499  :             work = temp << n_lshift_bit_count; temp = pp[-27]; work |= temp >> n_rshift_bit_count; op[-27] = work;

	mov	ecx, DWORD PTR _n$[ebp]
	or	edx, edi
	mov	DWORD PTR [eax-104], edx
	mov	edi, DWORD PTR [ebx-108]
	mov	edx, edi
	shl	esi, cl
	mov	ecx, DWORD PTR _n_rshift_bit_count$1$[ebp]
	shr	edx, cl

; 500  :             work = temp << n_lshift_bit_count; temp = pp[-28]; work |= temp >> n_rshift_bit_count; op[-28] = work;

	mov	ecx, DWORD PTR _n$[ebp]
	or	edx, esi
	mov	DWORD PTR [eax-108], edx
	mov	esi, DWORD PTR [ebx-112]
	mov	edx, esi
	shl	edi, cl
	mov	ecx, DWORD PTR _n_rshift_bit_count$1$[ebp]
	shr	edx, cl

; 501  :             work = temp << n_lshift_bit_count; temp = pp[-29]; work |= temp >> n_rshift_bit_count; op[-29] = work;

	mov	ecx, DWORD PTR _n$[ebp]
	or	edx, edi
	mov	DWORD PTR [eax-112], edx
	mov	edi, DWORD PTR [ebx-116]
	mov	edx, edi
	shl	esi, cl
	mov	ecx, DWORD PTR _n_rshift_bit_count$1$[ebp]
	shr	edx, cl

; 502  :             work = temp << n_lshift_bit_count; temp = pp[-30]; work |= temp >> n_rshift_bit_count; op[-30] = work;

	mov	ecx, DWORD PTR _n$[ebp]
	or	edx, esi
	mov	DWORD PTR [eax-116], edx
	shl	edi, cl
	mov	esi, DWORD PTR [ebx-120]
	mov	edx, esi
	mov	ecx, DWORD PTR _n_rshift_bit_count$1$[ebp]
	shr	edx, cl
	or	edx, edi

; 503  :             work = temp << n_lshift_bit_count; temp = pp[-31]; work |= temp >> n_rshift_bit_count; op[-31] = work;

	mov	edi, DWORD PTR _n$[ebp]
	mov	DWORD PTR [eax-120], edx
	mov	ecx, edi
	shl	esi, cl
	mov	ecx, DWORD PTR [ebx-124]
	mov	edx, ecx
	mov	DWORD PTR _work$62$[ebp], ecx

; 504  :             pp -= 32;

	add	ebx, -128				; ffffff80H
	mov	ecx, DWORD PTR _n_rshift_bit_count$1$[ebp]
	shr	edx, cl
	or	edx, esi
	mov	esi, DWORD PTR _work$62$[ebp]
	mov	DWORD PTR [eax-124], edx

; 505  :             op -= 32;

	add	eax, -128				; ffffff80H

; 506  :             --count;

	sub	DWORD PTR _count$1$[ebp], 1
	jne	$LL2@LeftShift_
	mov	ecx, DWORD PTR _p_count$1$[ebp]
$LN3@LeftShift_:

; 507  :         }
; 508  : 
; 509  :         if (p_count & 0x10)

	test	cl, 16					; 00000010H
	je	$LN8@LeftShift_

; 510  :         {
; 511  :             work = temp << n_lshift_bit_count; temp = pp[-0]; work |= temp >> n_rshift_bit_count; op[-0] = work;

	mov	ecx, edi
	shl	esi, cl
	mov	ecx, DWORD PTR _n_rshift_bit_count$1$[ebp]
	mov	DWORD PTR _work$62$[ebp], esi
	mov	esi, DWORD PTR [ebx]
	mov	edx, esi
	shr	edx, cl

; 512  :             work = temp << n_lshift_bit_count; temp = pp[-1]; work |= temp >> n_rshift_bit_count; op[-1] = work;

	mov	ecx, edi
	or	edx, DWORD PTR _work$62$[ebp]
	mov	DWORD PTR [eax], edx
	mov	edi, DWORD PTR [ebx-4]
	mov	edx, edi
	shl	esi, cl
	mov	ecx, DWORD PTR _n_rshift_bit_count$1$[ebp]
	shr	edx, cl
	or	edx, esi

; 513  :             work = temp << n_lshift_bit_count; temp = pp[-2]; work |= temp >> n_rshift_bit_count; op[-2] = work;

	mov	ecx, DWORD PTR _n$[ebp]
	mov	DWORD PTR [eax-4], edx
	mov	esi, DWORD PTR [ebx-8]
	mov	edx, esi
	shl	edi, cl
	mov	ecx, DWORD PTR _n_rshift_bit_count$1$[ebp]
	shr	edx, cl

; 514  :             work = temp << n_lshift_bit_count; temp = pp[-3]; work |= temp >> n_rshift_bit_count; op[-3] = work;

	mov	ecx, DWORD PTR _n$[ebp]
	or	edx, edi
	mov	DWORD PTR [eax-8], edx
	mov	edi, DWORD PTR [ebx-12]
	mov	edx, edi
	shl	esi, cl
	mov	ecx, DWORD PTR _n_rshift_bit_count$1$[ebp]
	shr	edx, cl

; 515  :             work = temp << n_lshift_bit_count; temp = pp[-4]; work |= temp >> n_rshift_bit_count; op[-4] = work;

	mov	ecx, DWORD PTR _n$[ebp]
	or	edx, esi
	mov	DWORD PTR [eax-12], edx
	mov	esi, DWORD PTR [ebx-16]
	mov	edx, esi
	shl	edi, cl
	mov	ecx, DWORD PTR _n_rshift_bit_count$1$[ebp]
	shr	edx, cl

; 516  :             work = temp << n_lshift_bit_count; temp = pp[-5]; work |= temp >> n_rshift_bit_count; op[-5] = work;

	mov	ecx, DWORD PTR _n$[ebp]
	or	edx, edi
	mov	DWORD PTR [eax-16], edx
	mov	edi, DWORD PTR [ebx-20]
	mov	edx, edi
	shl	esi, cl
	mov	ecx, DWORD PTR _n_rshift_bit_count$1$[ebp]
	shr	edx, cl

; 517  :             work = temp << n_lshift_bit_count; temp = pp[-6]; work |= temp >> n_rshift_bit_count; op[-6] = work;

	mov	ecx, DWORD PTR _n$[ebp]
	or	edx, esi
	mov	DWORD PTR [eax-20], edx
	mov	esi, DWORD PTR [ebx-24]
	mov	edx, esi
	shl	edi, cl
	mov	ecx, DWORD PTR _n_rshift_bit_count$1$[ebp]
	shr	edx, cl

; 518  :             work = temp << n_lshift_bit_count; temp = pp[-7]; work |= temp >> n_rshift_bit_count; op[-7] = work;

	mov	ecx, DWORD PTR _n$[ebp]
	or	edx, edi
	mov	DWORD PTR [eax-24], edx
	mov	edi, DWORD PTR [ebx-28]
	mov	edx, edi
	shl	esi, cl
	mov	ecx, DWORD PTR _n_rshift_bit_count$1$[ebp]
	shr	edx, cl

; 519  :             work = temp << n_lshift_bit_count; temp = pp[-8]; work |= temp >> n_rshift_bit_count; op[-8] = work;

	mov	ecx, DWORD PTR _n$[ebp]
	or	edx, esi
	mov	DWORD PTR [eax-28], edx
	mov	esi, DWORD PTR [ebx-32]
	mov	edx, esi
	shl	edi, cl
	mov	ecx, DWORD PTR _n_rshift_bit_count$1$[ebp]
	shr	edx, cl

; 520  :             work = temp << n_lshift_bit_count; temp = pp[-9]; work |= temp >> n_rshift_bit_count; op[-9] = work;

	mov	ecx, DWORD PTR _n$[ebp]
	or	edx, edi
	mov	DWORD PTR [eax-32], edx
	mov	edi, DWORD PTR [ebx-36]
	mov	edx, edi
	shl	esi, cl
	mov	ecx, DWORD PTR _n_rshift_bit_count$1$[ebp]
	shr	edx, cl
	or	edx, esi
	mov	DWORD PTR [eax-36], edx

; 521  :             work = temp << n_lshift_bit_count; temp = pp[-10]; work |= temp >> n_rshift_bit_count; op[-10] = work;

	mov	esi, DWORD PTR [ebx-40]
	mov	edx, esi
	mov	ecx, DWORD PTR _n$[ebp]
	shl	edi, cl
	mov	ecx, DWORD PTR _n_rshift_bit_count$1$[ebp]
	shr	edx, cl

; 522  :             work = temp << n_lshift_bit_count; temp = pp[-11]; work |= temp >> n_rshift_bit_count; op[-11] = work;

	mov	ecx, DWORD PTR _n$[ebp]
	or	edx, edi
	mov	DWORD PTR [eax-40], edx
	mov	edi, DWORD PTR [ebx-44]
	mov	edx, edi
	shl	esi, cl
	mov	ecx, DWORD PTR _n_rshift_bit_count$1$[ebp]
	shr	edx, cl

; 523  :             work = temp << n_lshift_bit_count; temp = pp[-12]; work |= temp >> n_rshift_bit_count; op[-12] = work;

	mov	ecx, DWORD PTR _n$[ebp]
	or	edx, esi
	mov	DWORD PTR [eax-44], edx
	mov	esi, DWORD PTR [ebx-48]
	mov	edx, esi
	shl	edi, cl
	mov	ecx, DWORD PTR _n_rshift_bit_count$1$[ebp]
	shr	edx, cl

; 524  :             work = temp << n_lshift_bit_count; temp = pp[-13]; work |= temp >> n_rshift_bit_count; op[-13] = work;

	mov	ecx, DWORD PTR _n$[ebp]
	or	edx, edi
	mov	DWORD PTR [eax-48], edx
	mov	edi, DWORD PTR [ebx-52]
	mov	edx, edi
	shl	esi, cl
	mov	ecx, DWORD PTR _n_rshift_bit_count$1$[ebp]
	shr	edx, cl

; 525  :             work = temp << n_lshift_bit_count; temp = pp[-14]; work |= temp >> n_rshift_bit_count; op[-14] = work;

	mov	ecx, DWORD PTR _n$[ebp]
	or	edx, esi
	mov	DWORD PTR [eax-52], edx
	mov	esi, DWORD PTR [ebx-56]
	mov	edx, esi
	shl	edi, cl
	mov	ecx, DWORD PTR _n_rshift_bit_count$1$[ebp]
	shr	edx, cl
	or	edx, edi

; 526  :             work = temp << n_lshift_bit_count; temp = pp[-15]; work |= temp >> n_rshift_bit_count; op[-15] = work;

	mov	edi, DWORD PTR _n$[ebp]
	mov	DWORD PTR [eax-56], edx
	mov	ecx, edi
	shl	esi, cl
	mov	ecx, DWORD PTR [ebx-60]
	mov	edx, ecx
	mov	DWORD PTR _work$62$[ebp], ecx

; 527  :             pp -= 16;

	sub	ebx, 64					; 00000040H
	mov	ecx, DWORD PTR _n_rshift_bit_count$1$[ebp]
	shr	edx, cl
	mov	ecx, DWORD PTR _p_count$1$[ebp]
	or	edx, esi
	mov	DWORD PTR [eax-60], edx

; 528  :             op -= 16;

	sub	eax, 64					; 00000040H
$LN8@LeftShift_:

; 529  :         }
; 530  : 
; 531  :         if (p_count & 0x8)

	test	cl, 8
	je	$LN9@LeftShift_

; 532  :         {
; 533  :             work = temp << n_lshift_bit_count; temp = pp[-0]; work |= temp >> n_rshift_bit_count; op[-0] = work;

	mov	esi, DWORD PTR [ebx]
	mov	ecx, edi
	shl	DWORD PTR _work$62$[ebp], cl
	mov	edx, esi
	mov	ecx, DWORD PTR _n_rshift_bit_count$1$[ebp]
	shr	edx, cl

; 534  :             work = temp << n_lshift_bit_count; temp = pp[-1]; work |= temp >> n_rshift_bit_count; op[-1] = work;

	mov	ecx, edi
	or	edx, DWORD PTR _work$62$[ebp]
	mov	DWORD PTR [eax], edx
	mov	edi, DWORD PTR [ebx-4]
	mov	edx, edi
	shl	esi, cl
	mov	ecx, DWORD PTR _n_rshift_bit_count$1$[ebp]
	shr	edx, cl

; 535  :             work = temp << n_lshift_bit_count; temp = pp[-2]; work |= temp >> n_rshift_bit_count; op[-2] = work;

	mov	ecx, DWORD PTR _n$[ebp]
	or	edx, esi
	mov	DWORD PTR [eax-4], edx
	mov	esi, DWORD PTR [ebx-8]
	mov	edx, esi
	shl	edi, cl
	mov	ecx, DWORD PTR _n_rshift_bit_count$1$[ebp]
	shr	edx, cl

; 536  :             work = temp << n_lshift_bit_count; temp = pp[-3]; work |= temp >> n_rshift_bit_count; op[-3] = work;

	mov	ecx, DWORD PTR _n$[ebp]
	or	edx, edi
	mov	DWORD PTR [eax-8], edx
	mov	edi, DWORD PTR [ebx-12]
	mov	edx, edi
	shl	esi, cl
	mov	ecx, DWORD PTR _n_rshift_bit_count$1$[ebp]
	shr	edx, cl

; 537  :             work = temp << n_lshift_bit_count; temp = pp[-4]; work |= temp >> n_rshift_bit_count; op[-4] = work;

	mov	ecx, DWORD PTR _n$[ebp]
	or	edx, esi
	mov	DWORD PTR [eax-12], edx
	mov	esi, DWORD PTR [ebx-16]
	mov	edx, esi
	shl	edi, cl
	mov	ecx, DWORD PTR _n_rshift_bit_count$1$[ebp]
	shr	edx, cl

; 538  :             work = temp << n_lshift_bit_count; temp = pp[-5]; work |= temp >> n_rshift_bit_count; op[-5] = work;

	mov	ecx, DWORD PTR _n$[ebp]
	or	edx, edi
	mov	DWORD PTR [eax-16], edx
	mov	edi, DWORD PTR [ebx-20]
	mov	edx, edi
	shl	esi, cl
	mov	ecx, DWORD PTR _n_rshift_bit_count$1$[ebp]
	shr	edx, cl

; 539  :             work = temp << n_lshift_bit_count; temp = pp[-6]; work |= temp >> n_rshift_bit_count; op[-6] = work;

	mov	ecx, DWORD PTR _n$[ebp]
	or	edx, esi
	mov	DWORD PTR [eax-20], edx
	mov	esi, DWORD PTR [ebx-24]
	mov	edx, esi
	shl	edi, cl
	mov	ecx, DWORD PTR _n_rshift_bit_count$1$[ebp]
	shr	edx, cl
	or	edx, edi

; 540  :             work = temp << n_lshift_bit_count; temp = pp[-7]; work |= temp >> n_rshift_bit_count; op[-7] = work;

	mov	edi, DWORD PTR _n$[ebp]
	mov	DWORD PTR [eax-24], edx
	mov	ecx, edi
	shl	esi, cl
	mov	ecx, DWORD PTR [ebx-28]
	mov	edx, ecx
	mov	DWORD PTR _work$62$[ebp], ecx

; 541  :             pp -= 8;

	sub	ebx, 32					; 00000020H
	mov	ecx, DWORD PTR _n_rshift_bit_count$1$[ebp]
	shr	edx, cl
	mov	ecx, DWORD PTR _p_count$1$[ebp]
	or	edx, esi
	mov	DWORD PTR [eax-28], edx

; 542  :             op -= 8;

	sub	eax, 32					; 00000020H
$LN9@LeftShift_:

; 543  :         }
; 544  : 
; 545  :         if (p_count & 0x4)

	test	cl, 4
	je	SHORT $LN10@LeftShift_

; 546  :         {
; 547  :             work = temp << n_lshift_bit_count; temp = pp[-0]; work |= temp >> n_rshift_bit_count; op[-0] = work;

	mov	esi, DWORD PTR [ebx]
	mov	ecx, edi
	shl	DWORD PTR _work$62$[ebp], cl
	mov	edx, esi
	mov	ecx, DWORD PTR _n_rshift_bit_count$1$[ebp]
	shr	edx, cl

; 548  :             work = temp << n_lshift_bit_count; temp = pp[-1]; work |= temp >> n_rshift_bit_count; op[-1] = work;

	mov	ecx, edi
	or	edx, DWORD PTR _work$62$[ebp]
	mov	DWORD PTR [eax], edx
	mov	edi, DWORD PTR [ebx-4]
	mov	edx, edi
	shl	esi, cl
	mov	ecx, DWORD PTR _n_rshift_bit_count$1$[ebp]
	shr	edx, cl

; 549  :             work = temp << n_lshift_bit_count; temp = pp[-2]; work |= temp >> n_rshift_bit_count; op[-2] = work;

	mov	ecx, DWORD PTR _n$[ebp]
	or	edx, esi
	mov	DWORD PTR [eax-4], edx
	mov	esi, DWORD PTR [ebx-8]
	mov	edx, esi
	shl	edi, cl
	mov	ecx, DWORD PTR _n_rshift_bit_count$1$[ebp]
	shr	edx, cl
	or	edx, edi

; 550  :             work = temp << n_lshift_bit_count; temp = pp[-3]; work |= temp >> n_rshift_bit_count; op[-3] = work;

	mov	edi, DWORD PTR _n$[ebp]
	mov	DWORD PTR [eax-8], edx
	mov	ecx, edi
	shl	esi, cl
	mov	ecx, DWORD PTR [ebx-12]
	mov	edx, ecx
	mov	DWORD PTR _work$62$[ebp], ecx

; 551  :             pp -= 4;

	sub	ebx, 16					; 00000010H
	mov	ecx, DWORD PTR _n_rshift_bit_count$1$[ebp]
	shr	edx, cl
	mov	ecx, DWORD PTR _p_count$1$[ebp]
	or	edx, esi
	mov	DWORD PTR [eax-12], edx

; 552  :             op -= 4;

	sub	eax, 16					; 00000010H
$LN10@LeftShift_:

; 553  :         }
; 554  : 
; 555  :         if (p_count & 0x2)

	test	cl, 2
	je	SHORT $LN11@LeftShift_

; 556  :         {
; 557  :             work = temp << n_lshift_bit_count; temp = pp[-0]; work |= temp >> n_rshift_bit_count; op[-0] = work;

	mov	esi, DWORD PTR [ebx]
	mov	ecx, edi
	shl	DWORD PTR _work$62$[ebp], cl
	mov	edx, esi
	mov	ecx, DWORD PTR _n_rshift_bit_count$1$[ebp]
	shr	edx, cl

; 558  :             work = temp << n_lshift_bit_count; temp = pp[-1]; work |= temp >> n_rshift_bit_count; op[-1] = work;

	mov	ecx, edi
	or	edx, DWORD PTR _work$62$[ebp]
	mov	DWORD PTR [eax], edx
	shl	esi, cl
	mov	ecx, DWORD PTR [ebx-4]
	mov	edx, ecx
	mov	DWORD PTR _work$62$[ebp], ecx

; 559  :             pp -= 2;

	sub	ebx, 8
	mov	ecx, DWORD PTR _n_rshift_bit_count$1$[ebp]
	shr	edx, cl
	mov	ecx, DWORD PTR _p_count$1$[ebp]
	or	edx, esi
	mov	DWORD PTR [eax-4], edx

; 560  :             op -= 2;

	sub	eax, 8
$LN11@LeftShift_:

; 561  :         }
; 562  : 
; 563  :         if (p_count & 0x1)

	test	cl, 1
	je	SHORT $LN12@LeftShift_

; 564  :         {
; 565  :             work = temp << n_lshift_bit_count; temp = pp[-0]; work |= temp >> n_rshift_bit_count; op[-0] = work;

	mov	esi, DWORD PTR _work$62$[ebp]
	mov	ecx, edi
	mov	edx, DWORD PTR [ebx]
	shl	esi, cl
	mov	ecx, DWORD PTR _n_rshift_bit_count$1$[ebp]
	mov	DWORD PTR _work$62$[ebp], edx
	shr	edx, cl
	or	edx, esi
	mov	DWORD PTR [eax], edx

; 566  :             pp -= 1;
; 567  :             op -= 1;

	sub	eax, 4
$LN12@LeftShift_:

; 568  :         }
; 569  :         work = temp << n_lshift_bit_count;

	mov	edx, DWORD PTR _work$62$[ebp]
	mov	ecx, edi
	shl	edx, cl

; 570  :         *op = work;
; 571  : 
; 572  :         if (padding_zero)

	cmp	DWORD PTR _padding_zero$[ebp], 0
	mov	DWORD PTR [eax], edx
	pop	ebx
	je	SHORT $LN19@LeftShift_
; File z:\sources\lunor\repos\rougemeilland\palmtree.math.core.implements\palmtree.math.core.implements\pmc_internal.h

; 379  :     __stosd((unsigned long*)d, 0, (unsigned long)count);

	mov	edi, DWORD PTR _o$[ebp]
; File z:\sources\lunor\repos\rougemeilland\palmtree.math.core.implements\palmtree.math.core.implements\pmc_shift.c

; 575  : }

	xor	eax, eax
; File z:\sources\lunor\repos\rougemeilland\palmtree.math.core.implements\palmtree.math.core.implements\pmc_internal.h

; 379  :     __stosd((unsigned long*)d, 0, (unsigned long)count);

	mov	ecx, DWORD PTR _n_word_count$1$[ebp]
; File z:\sources\lunor\repos\rougemeilland\palmtree.math.core.implements\palmtree.math.core.implements\pmc_shift.c

; 575  : }

	rep stosd
$LN19@LeftShift_:
	pop	edi
	pop	esi
	mov	esp, ebp
	pop	ebp
	ret	0
_LeftShift_Imp_DIV ENDP
_TEXT	ENDS
; Function compile flags: /Ogtp
; File z:\sources\lunor\repos\rougemeilland\palmtree.math.core.implements\palmtree.math.core.implements\pmc_shift.c
; File z:\sources\lunor\repos\rougemeilland\palmtree.math.core.implements\palmtree.math.core.implements\pmc_internal.h
; File z:\sources\lunor\repos\rougemeilland\palmtree.math.core.implements\palmtree.math.core.implements\pmc_shift.c
;	COMDAT _RightShift_Imp
_TEXT	SEGMENT
tv1058 = -28						; size = 4
tv1059 = -24						; size = 4
tv1057 = -24						; size = 4
_n_word_count$1$ = -20					; size = 4
_count$1$ = -16						; size = 4
tv1064 = -16						; size = 4
_op$1$ = -12						; size = 4
_t_count$1$ = -8					; size = 4
_n_lshift_bit_count$1$ = -4				; size = 4
_pp$1$ = 8						; size = 4
_p$ = 8							; size = 4
_p_word_count$ = 12					; size = 4
_n$ = 16						; size = 4
_o$ = 20						; size = 4
_padding_zero$ = 24					; size = 4
_RightShift_Imp PROC					; COMDAT

; 38   : {

	push	ebp
	mov	ebp, esp
	sub	esp, 28					; 0000001cH

; 39   :     __UNIT_TYPE* pp = p;
; 40   :     __UNIT_TYPE p_count = p_word_count;
; 41   :     __UNIT_TYPE* op = o;
; 42   :     // n_word_count ワード右に移動し、更に n_bit_count ビット右に移動する。
; 43   :     __UNIT_TYPE n_word_count = n / __UNIT_TYPE_BIT_COUNT;

	mov	ecx, DWORD PTR _n$[ebp]

; 44   :     __UNIT_TYPE n_rshift_bit_count = n % __UNIT_TYPE_BIT_COUNT;

	mov	eax, DWORD PTR _p$[ebp]
	push	ebx
	mov	ebx, DWORD PTR _o$[ebp]
	push	esi
	mov	esi, ecx
	mov	DWORD PTR _op$1$[ebp], ebx
	shr	esi, 5
	and	ecx, 31					; 0000001fH
	push	edi
	mov	DWORD PTR _n_word_count$1$[ebp], esi
	mov	DWORD PTR _n$[ebp], ecx
	lea	edx, DWORD PTR [eax+esi*4]
	mov	eax, DWORD PTR _p_word_count$[ebp]
	sub	eax, esi
	mov	DWORD PTR _p_word_count$[ebp], eax

; 45   :     if (n_rshift_bit_count == 0)

	test	ecx, ecx
	jne	SHORT $LN4@RightShift

; 49   :         if (padding_zero)

	cmp	DWORD PTR _padding_zero$[ebp], 0
; File z:\sources\lunor\repos\rougemeilland\palmtree.math.core.implements\palmtree.math.core.implements\pmc_internal.h

; 318  :     __movsd((unsigned long *)d, (unsigned long *)s, (unsigned long)count);

	mov	edi, ebx
	mov	esi, edx
	mov	ecx, eax
	rep movsd
; File z:\sources\lunor\repos\rougemeilland\palmtree.math.core.implements\palmtree.math.core.implements\pmc_shift.c

; 49   :         if (padding_zero)

	je	$LN20@RightShift

; 169  :     }
; 170  : }

	mov	ecx, DWORD PTR _n_word_count$1$[ebp]
	lea	edi, DWORD PTR [ebx+eax*4]
	xor	eax, eax
	rep stosd
	pop	edi
	pop	esi
	pop	ebx
	mov	esp, ebp
	pop	ebp
	ret	0
$LN4@RightShift:

; 50   :             _ZERO_MEMORY_UNIT(op + p_count - n_word_count, n_word_count);
; 51   :     }
; 52   :     else
; 53   :     {
; 54   :         pp += n_word_count;
; 55   :         __UNIT_TYPE n_lshift_bit_count = __UNIT_TYPE_BIT_COUNT - n_rshift_bit_count;
; 56   :         // p_count - n_word_count 回繰り返し
; 57   : 
; 58   :         __UNIT_TYPE temp = *pp++;

	mov	eax, DWORD PTR [edx]
	mov	edi, 32					; 00000020H
	sub	edi, ecx
	add	edx, 4

; 59   :         __UNIT_TYPE work;
; 60   :         __UNIT_TYPE t_count = p_count - n_word_count - 1;

	mov	ecx, DWORD PTR _p_word_count$[ebp]
	dec	ecx
	mov	DWORD PTR _n_lshift_bit_count$1$[ebp], edi

; 61   : 
; 62   :         __UNIT_TYPE count = t_count >> 5;

	mov	esi, ecx
	mov	DWORD PTR _t_count$1$[ebp], ecx

; 63   :         while ( count > 0)

	mov	ecx, DWORD PTR _n$[ebp]
	shr	esi, 5
	mov	DWORD PTR _pp$1$[ebp], edx
	mov	DWORD PTR _count$1$[ebp], esi
	test	esi, esi
	je	SHORT $LN3@RightShift
	npad	3
$LL2@RightShift:

; 64   :         {
; 65   :             work = temp >> n_rshift_bit_count; temp = pp[0]; work |= temp << n_lshift_bit_count; op[0] = work;

	sub	edx, ebx
	mov	edi, ebx
	mov	DWORD PTR tv1059[ebp], edx
	mov	ebx, 32					; 00000020H
	npad	4
$LL37@RightShift:
	shr	eax, cl
	lea	edi, DWORD PTR [edi+4]
	mov	ecx, DWORD PTR _n_lshift_bit_count$1$[ebp]
	mov	esi, eax
	mov	eax, DWORD PTR [edx+edi-4]
	mov	edx, eax
	shl	edx, cl
	mov	ecx, DWORD PTR _n$[ebp]
	or	edx, esi
	mov	DWORD PTR [edi-4], edx
	mov	edx, DWORD PTR tv1059[ebp]
	sub	ebx, 1
	jne	SHORT $LL37@RightShift

; 66   :             work = temp >> n_rshift_bit_count; temp = pp[1]; work |= temp << n_lshift_bit_count; op[1] = work;
; 67   :             work = temp >> n_rshift_bit_count; temp = pp[2]; work |= temp << n_lshift_bit_count; op[2] = work;
; 68   :             work = temp >> n_rshift_bit_count; temp = pp[3]; work |= temp << n_lshift_bit_count; op[3] = work;
; 69   :             work = temp >> n_rshift_bit_count; temp = pp[4]; work |= temp << n_lshift_bit_count; op[4] = work;
; 70   :             work = temp >> n_rshift_bit_count; temp = pp[5]; work |= temp << n_lshift_bit_count; op[5] = work;
; 71   :             work = temp >> n_rshift_bit_count; temp = pp[6]; work |= temp << n_lshift_bit_count; op[6] = work;
; 72   :             work = temp >> n_rshift_bit_count; temp = pp[7]; work |= temp << n_lshift_bit_count; op[7] = work;
; 73   :             work = temp >> n_rshift_bit_count; temp = pp[8]; work |= temp << n_lshift_bit_count; op[8] = work;
; 74   :             work = temp >> n_rshift_bit_count; temp = pp[9]; work |= temp << n_lshift_bit_count; op[9] = work;
; 75   :             work = temp >> n_rshift_bit_count; temp = pp[10]; work |= temp << n_lshift_bit_count; op[10] = work;
; 76   :             work = temp >> n_rshift_bit_count; temp = pp[11]; work |= temp << n_lshift_bit_count; op[11] = work;
; 77   :             work = temp >> n_rshift_bit_count; temp = pp[12]; work |= temp << n_lshift_bit_count; op[12] = work;
; 78   :             work = temp >> n_rshift_bit_count; temp = pp[13]; work |= temp << n_lshift_bit_count; op[13] = work;
; 79   :             work = temp >> n_rshift_bit_count; temp = pp[14]; work |= temp << n_lshift_bit_count; op[14] = work;
; 80   :             work = temp >> n_rshift_bit_count; temp = pp[15]; work |= temp << n_lshift_bit_count; op[15] = work;
; 81   :             work = temp >> n_rshift_bit_count; temp = pp[16]; work |= temp << n_lshift_bit_count; op[16] = work;
; 82   :             work = temp >> n_rshift_bit_count; temp = pp[17]; work |= temp << n_lshift_bit_count; op[17] = work;
; 83   :             work = temp >> n_rshift_bit_count; temp = pp[18]; work |= temp << n_lshift_bit_count; op[18] = work;
; 84   :             work = temp >> n_rshift_bit_count; temp = pp[19]; work |= temp << n_lshift_bit_count; op[19] = work;
; 85   :             work = temp >> n_rshift_bit_count; temp = pp[20]; work |= temp << n_lshift_bit_count; op[20] = work;
; 86   :             work = temp >> n_rshift_bit_count; temp = pp[21]; work |= temp << n_lshift_bit_count; op[21] = work;
; 87   :             work = temp >> n_rshift_bit_count; temp = pp[22]; work |= temp << n_lshift_bit_count; op[22] = work;
; 88   :             work = temp >> n_rshift_bit_count; temp = pp[23]; work |= temp << n_lshift_bit_count; op[23] = work;
; 89   :             work = temp >> n_rshift_bit_count; temp = pp[24]; work |= temp << n_lshift_bit_count; op[24] = work;
; 90   :             work = temp >> n_rshift_bit_count; temp = pp[25]; work |= temp << n_lshift_bit_count; op[25] = work;
; 91   :             work = temp >> n_rshift_bit_count; temp = pp[26]; work |= temp << n_lshift_bit_count; op[26] = work;
; 92   :             work = temp >> n_rshift_bit_count; temp = pp[27]; work |= temp << n_lshift_bit_count; op[27] = work;
; 93   :             work = temp >> n_rshift_bit_count; temp = pp[28]; work |= temp << n_lshift_bit_count; op[28] = work;
; 94   :             work = temp >> n_rshift_bit_count; temp = pp[29]; work |= temp << n_lshift_bit_count; op[29] = work;
; 95   :             work = temp >> n_rshift_bit_count; temp = pp[30]; work |= temp << n_lshift_bit_count; op[30] = work;
; 96   :             work = temp >> n_rshift_bit_count; temp = pp[31]; work |= temp << n_lshift_bit_count; op[31] = work;
; 97   :             --count;

	mov	esi, DWORD PTR _count$1$[ebp]

; 98   :             pp += 32;

	mov	edx, DWORD PTR _pp$1$[ebp]
	dec	esi

; 99   :             op += 32;

	mov	ebx, DWORD PTR _op$1$[ebp]
	sub	edx, -128				; ffffff80H
	sub	ebx, -128				; ffffff80H
	mov	DWORD PTR _count$1$[ebp], esi
	mov	DWORD PTR _pp$1$[ebp], edx
	mov	DWORD PTR _op$1$[ebp], ebx
	test	esi, esi
	jne	SHORT $LL2@RightShift
	mov	edi, DWORD PTR _n_lshift_bit_count$1$[ebp]
$LN3@RightShift:

; 100  :         }
; 101  : 
; 102  :         if (t_count & 0x10)

	test	BYTE PTR _t_count$1$[ebp], 16		; 00000010H
	je	SHORT $LN7@RightShift

; 103  :         {
; 104  :             work = temp >> n_rshift_bit_count; temp = pp[0]; work |= temp << n_lshift_bit_count; op[0] = work;

	sub	edx, ebx
	mov	DWORD PTR tv1057[ebp], ebx
	mov	DWORD PTR tv1058[ebp], edx
	mov	DWORD PTR tv1064[ebp], 16		; 00000010H
$LL39@RightShift:
	shr	eax, cl
	lea	ebx, DWORD PTR [ebx+4]
	mov	esi, eax
	mov	ecx, edi
	mov	eax, DWORD PTR [ebx+edx-4]
	mov	edx, eax
	shl	edx, cl
	mov	ecx, DWORD PTR _n$[ebp]
	or	edx, esi
	sub	DWORD PTR tv1064[ebp], 1
	mov	DWORD PTR [ebx-4], edx
	mov	edx, DWORD PTR tv1058[ebp]
	jne	SHORT $LL39@RightShift

; 105  :             work = temp >> n_rshift_bit_count; temp = pp[1]; work |= temp << n_lshift_bit_count; op[1] = work;
; 106  :             work = temp >> n_rshift_bit_count; temp = pp[2]; work |= temp << n_lshift_bit_count; op[2] = work;
; 107  :             work = temp >> n_rshift_bit_count; temp = pp[3]; work |= temp << n_lshift_bit_count; op[3] = work;
; 108  :             work = temp >> n_rshift_bit_count; temp = pp[4]; work |= temp << n_lshift_bit_count; op[4] = work;
; 109  :             work = temp >> n_rshift_bit_count; temp = pp[5]; work |= temp << n_lshift_bit_count; op[5] = work;
; 110  :             work = temp >> n_rshift_bit_count; temp = pp[6]; work |= temp << n_lshift_bit_count; op[6] = work;
; 111  :             work = temp >> n_rshift_bit_count; temp = pp[7]; work |= temp << n_lshift_bit_count; op[7] = work;
; 112  :             work = temp >> n_rshift_bit_count; temp = pp[8]; work |= temp << n_lshift_bit_count; op[8] = work;
; 113  :             work = temp >> n_rshift_bit_count; temp = pp[9]; work |= temp << n_lshift_bit_count; op[9] = work;
; 114  :             work = temp >> n_rshift_bit_count; temp = pp[10]; work |= temp << n_lshift_bit_count; op[10] = work;
; 115  :             work = temp >> n_rshift_bit_count; temp = pp[11]; work |= temp << n_lshift_bit_count; op[11] = work;
; 116  :             work = temp >> n_rshift_bit_count; temp = pp[12]; work |= temp << n_lshift_bit_count; op[12] = work;
; 117  :             work = temp >> n_rshift_bit_count; temp = pp[13]; work |= temp << n_lshift_bit_count; op[13] = work;
; 118  :             work = temp >> n_rshift_bit_count; temp = pp[14]; work |= temp << n_lshift_bit_count; op[14] = work;
; 119  :             work = temp >> n_rshift_bit_count; temp = pp[15]; work |= temp << n_lshift_bit_count; op[15] = work;
; 120  :             pp += 16;

	mov	edx, DWORD PTR _pp$1$[ebp]

; 121  :             op += 16;

	mov	ebx, DWORD PTR _op$1$[ebp]
	add	edx, 64					; 00000040H
	mov	DWORD PTR _pp$1$[ebp], edx
	add	ebx, 64					; 00000040H
$LN7@RightShift:

; 122  :         }
; 123  : 
; 124  :         if (t_count & 0x8)

	mov	ecx, DWORD PTR _t_count$1$[ebp]
	mov	edi, DWORD PTR _n$[ebp]
	test	cl, 8
	je	$LN8@RightShift

; 125  :         {
; 126  :             work = temp >> n_rshift_bit_count; temp = pp[0]; work |= temp << n_lshift_bit_count; op[0] = work;

	mov	esi, DWORD PTR [edx]
	mov	ecx, edi
	shr	eax, cl
	mov	edx, esi
	mov	ecx, DWORD PTR _n_lshift_bit_count$1$[ebp]
	shl	edx, cl
	mov	ecx, edi
	or	edx, eax
	shr	esi, cl
	mov	ecx, DWORD PTR _n_lshift_bit_count$1$[ebp]
	mov	DWORD PTR [ebx], edx
	mov	edx, DWORD PTR _pp$1$[ebp]
	mov	edx, DWORD PTR [edx+4]
	mov	eax, edx
	shl	eax, cl
	mov	ecx, edi
	or	eax, esi
	shr	edx, cl
	mov	DWORD PTR [ebx+4], eax
	mov	eax, DWORD PTR _pp$1$[ebp]
	mov	ecx, DWORD PTR _n_lshift_bit_count$1$[ebp]
	mov	esi, DWORD PTR [eax+8]
	mov	eax, esi
	shl	eax, cl
	mov	ecx, edi
	or	eax, edx
	shr	esi, cl
	mov	DWORD PTR [ebx+8], eax
	mov	eax, DWORD PTR _pp$1$[ebp]
	mov	ecx, DWORD PTR _n_lshift_bit_count$1$[ebp]
	mov	edx, DWORD PTR [eax+12]
	mov	eax, edx
	shl	eax, cl
	mov	ecx, edi
	or	eax, esi
	shr	edx, cl
	mov	ecx, DWORD PTR _n_lshift_bit_count$1$[ebp]
	mov	DWORD PTR [ebx+12], eax
	mov	eax, DWORD PTR _pp$1$[ebp]
	mov	esi, DWORD PTR [eax+16]
	mov	eax, esi
	shl	eax, cl
	mov	ecx, edi
	or	eax, edx
	shr	esi, cl
	mov	ecx, DWORD PTR _n_lshift_bit_count$1$[ebp]
	mov	DWORD PTR [ebx+16], eax
	mov	eax, DWORD PTR _pp$1$[ebp]
	mov	edx, DWORD PTR [eax+20]
	mov	eax, edx
	shl	eax, cl
	mov	ecx, edi
	or	eax, esi
	shr	edx, cl
	mov	ecx, DWORD PTR _n_lshift_bit_count$1$[ebp]
	mov	DWORD PTR [ebx+20], eax
	mov	eax, DWORD PTR _pp$1$[ebp]
	mov	esi, DWORD PTR [eax+24]
	mov	eax, esi
	shl	eax, cl
	mov	ecx, edi
	or	eax, edx
	shr	esi, cl
	mov	ecx, DWORD PTR _n_lshift_bit_count$1$[ebp]
	mov	DWORD PTR [ebx+24], eax
	mov	eax, DWORD PTR _pp$1$[ebp]
	mov	eax, DWORD PTR [eax+28]
	mov	edx, eax
	shl	edx, cl
	mov	ecx, DWORD PTR _t_count$1$[ebp]
	or	edx, esi
	mov	DWORD PTR [ebx+28], edx

; 127  :             work = temp >> n_rshift_bit_count; temp = pp[1]; work |= temp << n_lshift_bit_count; op[1] = work;
; 128  :             work = temp >> n_rshift_bit_count; temp = pp[2]; work |= temp << n_lshift_bit_count; op[2] = work;
; 129  :             work = temp >> n_rshift_bit_count; temp = pp[3]; work |= temp << n_lshift_bit_count; op[3] = work;
; 130  :             work = temp >> n_rshift_bit_count; temp = pp[4]; work |= temp << n_lshift_bit_count; op[4] = work;
; 131  :             work = temp >> n_rshift_bit_count; temp = pp[5]; work |= temp << n_lshift_bit_count; op[5] = work;
; 132  :             work = temp >> n_rshift_bit_count; temp = pp[6]; work |= temp << n_lshift_bit_count; op[6] = work;
; 133  :             work = temp >> n_rshift_bit_count; temp = pp[7]; work |= temp << n_lshift_bit_count; op[7] = work;
; 134  :             pp += 8;

	mov	edx, DWORD PTR _pp$1$[ebp]
	add	edx, 32					; 00000020H

; 135  :             op += 8;

	add	ebx, 32					; 00000020H
	mov	DWORD PTR _pp$1$[ebp], edx
$LN8@RightShift:

; 136  :         }
; 137  : 
; 138  :         if (t_count & 0x4)

	test	cl, 4
	je	SHORT $LN9@RightShift

; 139  :         {
; 140  :             work = temp >> n_rshift_bit_count; temp = pp[0]; work |= temp << n_lshift_bit_count; op[0] = work;

	mov	esi, DWORD PTR [edx]
	mov	ecx, edi
	shr	eax, cl
	mov	edx, esi
	mov	ecx, DWORD PTR _n_lshift_bit_count$1$[ebp]
	shl	edx, cl
	mov	ecx, edi
	or	edx, eax
	shr	esi, cl
	mov	eax, DWORD PTR _pp$1$[ebp]
	mov	ecx, DWORD PTR _n_lshift_bit_count$1$[ebp]
	mov	DWORD PTR [ebx], edx
	mov	edx, DWORD PTR [eax+4]
	mov	eax, edx
	shl	eax, cl
	mov	ecx, edi
	or	eax, esi
	shr	edx, cl
	mov	ecx, DWORD PTR _n_lshift_bit_count$1$[ebp]
	mov	DWORD PTR [ebx+4], eax
	mov	eax, DWORD PTR _pp$1$[ebp]
	mov	esi, DWORD PTR [eax+8]
	mov	eax, esi
	shl	eax, cl
	mov	ecx, edi
	or	eax, edx
	shr	esi, cl
	mov	ecx, DWORD PTR _n_lshift_bit_count$1$[ebp]
	mov	DWORD PTR [ebx+8], eax
	mov	eax, DWORD PTR _pp$1$[ebp]
	mov	eax, DWORD PTR [eax+12]
	mov	edx, eax
	shl	edx, cl
	mov	ecx, DWORD PTR _t_count$1$[ebp]
	or	edx, esi
	mov	DWORD PTR [ebx+12], edx

; 141  :             work = temp >> n_rshift_bit_count; temp = pp[1]; work |= temp << n_lshift_bit_count; op[1] = work;
; 142  :             work = temp >> n_rshift_bit_count; temp = pp[2]; work |= temp << n_lshift_bit_count; op[2] = work;
; 143  :             work = temp >> n_rshift_bit_count; temp = pp[3]; work |= temp << n_lshift_bit_count; op[3] = work;
; 144  :             pp += 4;

	mov	edx, DWORD PTR _pp$1$[ebp]
	add	edx, 16					; 00000010H

; 145  :             op += 4;

	add	ebx, 16					; 00000010H
	mov	DWORD PTR _pp$1$[ebp], edx
$LN9@RightShift:

; 146  :         }
; 147  : 
; 148  :         if (t_count & 0x2)

	test	cl, 2
	je	SHORT $LN10@RightShift

; 149  :         {
; 150  :             work = temp >> n_rshift_bit_count; temp = pp[0]; work |= temp << n_lshift_bit_count; op[0] = work;

	mov	esi, DWORD PTR [edx]
	mov	ecx, edi
	shr	eax, cl
	mov	edx, esi
	mov	ecx, DWORD PTR _n_lshift_bit_count$1$[ebp]
	shl	edx, cl

; 151  :             work = temp >> n_rshift_bit_count; temp = pp[1]; work |= temp << n_lshift_bit_count; op[1] = work;

	mov	ecx, edi
	or	edx, eax
	shr	esi, cl
	mov	eax, DWORD PTR _pp$1$[ebp]
	mov	ecx, DWORD PTR _n_lshift_bit_count$1$[ebp]
	mov	DWORD PTR [ebx], edx
	mov	eax, DWORD PTR [eax+4]
	mov	edx, eax
	shl	edx, cl
	mov	ecx, DWORD PTR _t_count$1$[ebp]
	or	edx, esi
	mov	DWORD PTR [ebx+4], edx

; 152  :             pp += 2;

	mov	edx, DWORD PTR _pp$1$[ebp]
	add	edx, 8

; 153  :             op += 2;

	add	ebx, 8
$LN10@RightShift:

; 154  :         }
; 155  : 
; 156  :         if (t_count & 0x1)

	test	cl, 1
	je	SHORT $LN11@RightShift

; 157  :         {
; 158  :             work = temp >> n_rshift_bit_count; temp = pp[0]; work |= temp << n_lshift_bit_count; op[0] = work;

	mov	ecx, edi
	shr	eax, cl
	mov	ecx, DWORD PTR _n_lshift_bit_count$1$[ebp]
	mov	esi, eax
	mov	eax, DWORD PTR [edx]
	mov	edx, eax
	shl	edx, cl
	or	edx, esi
	mov	DWORD PTR [ebx], edx

; 159  :             pp += 1;
; 160  :             op += 1;

	add	ebx, 4
$LN11@RightShift:

; 161  :         }
; 162  : 
; 163  :         work = temp >> n_rshift_bit_count;

	mov	ecx, edi
	shr	eax, cl

; 164  :         if (work != 0 || padding_zero)

	mov	ecx, DWORD PTR _padding_zero$[ebp]
	test	eax, eax
	jne	SHORT $LN13@RightShift
	test	ecx, ecx
	je	SHORT $LN20@RightShift
$LN13@RightShift:

; 165  :             *op = work;

	mov	DWORD PTR [ebx], eax

; 166  : 
; 167  :         if (padding_zero)

	test	ecx, ecx
	je	SHORT $LN20@RightShift

; 168  :             _ZERO_MEMORY_UNIT(o + p_word_count - n_word_count, n_word_count);

	mov	eax, DWORD PTR _p_word_count$[ebp]
	mov	ecx, DWORD PTR _o$[ebp]
	lea	edi, DWORD PTR [ecx+eax*4]

; 169  :     }
; 170  : }

	mov	ecx, DWORD PTR _n_word_count$1$[ebp]
	xor	eax, eax
	rep stosd
$LN20@RightShift:
	pop	edi
	pop	esi
	pop	ebx
	mov	esp, ebp
	pop	ebp
	ret	0
_RightShift_Imp ENDP
_TEXT	ENDS
; Function compile flags: /Ogtp
; File z:\sources\lunor\repos\rougemeilland\palmtree.math.core.implements\palmtree.math.core.implements\pmc_shift.c
; File z:\sources\lunor\repos\rougemeilland\palmtree.math.core.implements\palmtree.math.core.implements\pmc_internal.h
; File z:\sources\lunor\repos\rougemeilland\palmtree.math.core.implements\palmtree.math.core.implements\pmc_shift.c
;	COMDAT _RightShift_Imp_DIV
_TEXT	SEGMENT
tv1058 = -28						; size = 4
tv1059 = -24						; size = 4
tv1057 = -24						; size = 4
_n_word_count$1$ = -20					; size = 4
_count$1$ = -16						; size = 4
tv1064 = -16						; size = 4
_op$1$ = -12						; size = 4
_t_count$1$ = -8					; size = 4
_n_lshift_bit_count$1$ = -4				; size = 4
_pp$1$ = 8						; size = 4
_p$ = 8							; size = 4
_p_word_count$ = 12					; size = 4
_n$ = 16						; size = 4
_o$ = 20						; size = 4
_padding_zero$ = 24					; size = 4
_RightShift_Imp_DIV PROC				; COMDAT

; 173  : {

	push	ebp
	mov	ebp, esp
	sub	esp, 28					; 0000001cH

; 174  :     __UNIT_TYPE_DIV* pp = p;
; 175  :     __UNIT_TYPE p_count = p_word_count;
; 176  :     __UNIT_TYPE_DIV* op = o;
; 177  :     // n_word_count ワード右に移動し、更に n_bit_count ビット右に移動する。
; 178  :     __UNIT_TYPE n_word_count = n / __UNIT_TYPE_BIT_COUNT;

	mov	ecx, DWORD PTR _n$[ebp]

; 179  :     __UNIT_TYPE n_rshift_bit_count = n % __UNIT_TYPE_BIT_COUNT;

	mov	eax, DWORD PTR _p$[ebp]
	push	ebx
	mov	ebx, DWORD PTR _o$[ebp]
	push	esi
	mov	esi, ecx
	mov	DWORD PTR _op$1$[ebp], ebx
	shr	esi, 5
	and	ecx, 31					; 0000001fH
	push	edi
	mov	DWORD PTR _n_word_count$1$[ebp], esi
	mov	DWORD PTR _n$[ebp], ecx
	lea	edx, DWORD PTR [eax+esi*4]
	mov	eax, DWORD PTR _p_word_count$[ebp]
	sub	eax, esi
	mov	DWORD PTR _p_word_count$[ebp], eax

; 180  :     if (n_rshift_bit_count == 0)

	test	ecx, ecx
	jne	SHORT $LN4@RightShift

; 184  :         if (padding_zero)

	cmp	DWORD PTR _padding_zero$[ebp], 0
; File z:\sources\lunor\repos\rougemeilland\palmtree.math.core.implements\palmtree.math.core.implements\pmc_internal.h

; 329  :     __movsd((unsigned long *)d, (unsigned long *)s, (unsigned long)count);

	mov	edi, ebx
	mov	esi, edx
	mov	ecx, eax
	rep movsd
; File z:\sources\lunor\repos\rougemeilland\palmtree.math.core.implements\palmtree.math.core.implements\pmc_shift.c

; 184  :         if (padding_zero)

	je	$LN20@RightShift

; 304  :     }
; 305  : }

	mov	ecx, DWORD PTR _n_word_count$1$[ebp]
	lea	edi, DWORD PTR [ebx+eax*4]
	xor	eax, eax
	rep stosd
	pop	edi
	pop	esi
	pop	ebx
	mov	esp, ebp
	pop	ebp
	ret	0
$LN4@RightShift:

; 185  :             _ZERO_MEMORY_UNIT_DIV(op + p_count - n_word_count, n_word_count);
; 186  :     }
; 187  :     else
; 188  :     {
; 189  :         pp += n_word_count;
; 190  :         __UNIT_TYPE n_lshift_bit_count = __UNIT_TYPE_BIT_COUNT - n_rshift_bit_count;
; 191  :         // p_count - n_word_count 回繰り返し
; 192  : 
; 193  :         __UNIT_TYPE_DIV temp = *pp++;

	mov	eax, DWORD PTR [edx]
	mov	edi, 32					; 00000020H
	sub	edi, ecx
	add	edx, 4

; 194  :         __UNIT_TYPE_DIV work;
; 195  :         __UNIT_TYPE t_count = p_count - n_word_count - 1;

	mov	ecx, DWORD PTR _p_word_count$[ebp]
	dec	ecx
	mov	DWORD PTR _n_lshift_bit_count$1$[ebp], edi

; 196  : 
; 197  :         __UNIT_TYPE count = t_count >> 5;

	mov	esi, ecx
	mov	DWORD PTR _t_count$1$[ebp], ecx

; 198  :         while (count > 0)

	mov	ecx, DWORD PTR _n$[ebp]
	shr	esi, 5
	mov	DWORD PTR _pp$1$[ebp], edx
	mov	DWORD PTR _count$1$[ebp], esi
	test	esi, esi
	je	SHORT $LN3@RightShift
	npad	3
$LL2@RightShift:

; 199  :         {
; 200  :             work = temp >> n_rshift_bit_count; temp = pp[0]; work |= temp << n_lshift_bit_count; op[0] = work;

	sub	edx, ebx
	mov	edi, ebx
	mov	DWORD PTR tv1059[ebp], edx
	mov	ebx, 32					; 00000020H
	npad	4
$LL37@RightShift:
	shr	eax, cl
	lea	edi, DWORD PTR [edi+4]
	mov	ecx, DWORD PTR _n_lshift_bit_count$1$[ebp]
	mov	esi, eax
	mov	eax, DWORD PTR [edx+edi-4]
	mov	edx, eax
	shl	edx, cl
	mov	ecx, DWORD PTR _n$[ebp]
	or	edx, esi
	mov	DWORD PTR [edi-4], edx
	mov	edx, DWORD PTR tv1059[ebp]
	sub	ebx, 1
	jne	SHORT $LL37@RightShift

; 201  :             work = temp >> n_rshift_bit_count; temp = pp[1]; work |= temp << n_lshift_bit_count; op[1] = work;
; 202  :             work = temp >> n_rshift_bit_count; temp = pp[2]; work |= temp << n_lshift_bit_count; op[2] = work;
; 203  :             work = temp >> n_rshift_bit_count; temp = pp[3]; work |= temp << n_lshift_bit_count; op[3] = work;
; 204  :             work = temp >> n_rshift_bit_count; temp = pp[4]; work |= temp << n_lshift_bit_count; op[4] = work;
; 205  :             work = temp >> n_rshift_bit_count; temp = pp[5]; work |= temp << n_lshift_bit_count; op[5] = work;
; 206  :             work = temp >> n_rshift_bit_count; temp = pp[6]; work |= temp << n_lshift_bit_count; op[6] = work;
; 207  :             work = temp >> n_rshift_bit_count; temp = pp[7]; work |= temp << n_lshift_bit_count; op[7] = work;
; 208  :             work = temp >> n_rshift_bit_count; temp = pp[8]; work |= temp << n_lshift_bit_count; op[8] = work;
; 209  :             work = temp >> n_rshift_bit_count; temp = pp[9]; work |= temp << n_lshift_bit_count; op[9] = work;
; 210  :             work = temp >> n_rshift_bit_count; temp = pp[10]; work |= temp << n_lshift_bit_count; op[10] = work;
; 211  :             work = temp >> n_rshift_bit_count; temp = pp[11]; work |= temp << n_lshift_bit_count; op[11] = work;
; 212  :             work = temp >> n_rshift_bit_count; temp = pp[12]; work |= temp << n_lshift_bit_count; op[12] = work;
; 213  :             work = temp >> n_rshift_bit_count; temp = pp[13]; work |= temp << n_lshift_bit_count; op[13] = work;
; 214  :             work = temp >> n_rshift_bit_count; temp = pp[14]; work |= temp << n_lshift_bit_count; op[14] = work;
; 215  :             work = temp >> n_rshift_bit_count; temp = pp[15]; work |= temp << n_lshift_bit_count; op[15] = work;
; 216  :             work = temp >> n_rshift_bit_count; temp = pp[16]; work |= temp << n_lshift_bit_count; op[16] = work;
; 217  :             work = temp >> n_rshift_bit_count; temp = pp[17]; work |= temp << n_lshift_bit_count; op[17] = work;
; 218  :             work = temp >> n_rshift_bit_count; temp = pp[18]; work |= temp << n_lshift_bit_count; op[18] = work;
; 219  :             work = temp >> n_rshift_bit_count; temp = pp[19]; work |= temp << n_lshift_bit_count; op[19] = work;
; 220  :             work = temp >> n_rshift_bit_count; temp = pp[20]; work |= temp << n_lshift_bit_count; op[20] = work;
; 221  :             work = temp >> n_rshift_bit_count; temp = pp[21]; work |= temp << n_lshift_bit_count; op[21] = work;
; 222  :             work = temp >> n_rshift_bit_count; temp = pp[22]; work |= temp << n_lshift_bit_count; op[22] = work;
; 223  :             work = temp >> n_rshift_bit_count; temp = pp[23]; work |= temp << n_lshift_bit_count; op[23] = work;
; 224  :             work = temp >> n_rshift_bit_count; temp = pp[24]; work |= temp << n_lshift_bit_count; op[24] = work;
; 225  :             work = temp >> n_rshift_bit_count; temp = pp[25]; work |= temp << n_lshift_bit_count; op[25] = work;
; 226  :             work = temp >> n_rshift_bit_count; temp = pp[26]; work |= temp << n_lshift_bit_count; op[26] = work;
; 227  :             work = temp >> n_rshift_bit_count; temp = pp[27]; work |= temp << n_lshift_bit_count; op[27] = work;
; 228  :             work = temp >> n_rshift_bit_count; temp = pp[28]; work |= temp << n_lshift_bit_count; op[28] = work;
; 229  :             work = temp >> n_rshift_bit_count; temp = pp[29]; work |= temp << n_lshift_bit_count; op[29] = work;
; 230  :             work = temp >> n_rshift_bit_count; temp = pp[30]; work |= temp << n_lshift_bit_count; op[30] = work;
; 231  :             work = temp >> n_rshift_bit_count; temp = pp[31]; work |= temp << n_lshift_bit_count; op[31] = work;
; 232  :             --count;

	mov	esi, DWORD PTR _count$1$[ebp]

; 233  :             pp += 32;

	mov	edx, DWORD PTR _pp$1$[ebp]
	dec	esi

; 234  :             op += 32;

	mov	ebx, DWORD PTR _op$1$[ebp]
	sub	edx, -128				; ffffff80H
	sub	ebx, -128				; ffffff80H
	mov	DWORD PTR _count$1$[ebp], esi
	mov	DWORD PTR _pp$1$[ebp], edx
	mov	DWORD PTR _op$1$[ebp], ebx
	test	esi, esi
	jne	SHORT $LL2@RightShift
	mov	edi, DWORD PTR _n_lshift_bit_count$1$[ebp]
$LN3@RightShift:

; 235  :         }
; 236  : 
; 237  :         if (t_count & 0x10)

	test	BYTE PTR _t_count$1$[ebp], 16		; 00000010H
	je	SHORT $LN7@RightShift

; 238  :         {
; 239  :             work = temp >> n_rshift_bit_count; temp = pp[0]; work |= temp << n_lshift_bit_count; op[0] = work;

	sub	edx, ebx
	mov	DWORD PTR tv1057[ebp], ebx
	mov	DWORD PTR tv1058[ebp], edx
	mov	DWORD PTR tv1064[ebp], 16		; 00000010H
$LL39@RightShift:
	shr	eax, cl
	lea	ebx, DWORD PTR [ebx+4]
	mov	esi, eax
	mov	ecx, edi
	mov	eax, DWORD PTR [ebx+edx-4]
	mov	edx, eax
	shl	edx, cl
	mov	ecx, DWORD PTR _n$[ebp]
	or	edx, esi
	sub	DWORD PTR tv1064[ebp], 1
	mov	DWORD PTR [ebx-4], edx
	mov	edx, DWORD PTR tv1058[ebp]
	jne	SHORT $LL39@RightShift

; 240  :             work = temp >> n_rshift_bit_count; temp = pp[1]; work |= temp << n_lshift_bit_count; op[1] = work;
; 241  :             work = temp >> n_rshift_bit_count; temp = pp[2]; work |= temp << n_lshift_bit_count; op[2] = work;
; 242  :             work = temp >> n_rshift_bit_count; temp = pp[3]; work |= temp << n_lshift_bit_count; op[3] = work;
; 243  :             work = temp >> n_rshift_bit_count; temp = pp[4]; work |= temp << n_lshift_bit_count; op[4] = work;
; 244  :             work = temp >> n_rshift_bit_count; temp = pp[5]; work |= temp << n_lshift_bit_count; op[5] = work;
; 245  :             work = temp >> n_rshift_bit_count; temp = pp[6]; work |= temp << n_lshift_bit_count; op[6] = work;
; 246  :             work = temp >> n_rshift_bit_count; temp = pp[7]; work |= temp << n_lshift_bit_count; op[7] = work;
; 247  :             work = temp >> n_rshift_bit_count; temp = pp[8]; work |= temp << n_lshift_bit_count; op[8] = work;
; 248  :             work = temp >> n_rshift_bit_count; temp = pp[9]; work |= temp << n_lshift_bit_count; op[9] = work;
; 249  :             work = temp >> n_rshift_bit_count; temp = pp[10]; work |= temp << n_lshift_bit_count; op[10] = work;
; 250  :             work = temp >> n_rshift_bit_count; temp = pp[11]; work |= temp << n_lshift_bit_count; op[11] = work;
; 251  :             work = temp >> n_rshift_bit_count; temp = pp[12]; work |= temp << n_lshift_bit_count; op[12] = work;
; 252  :             work = temp >> n_rshift_bit_count; temp = pp[13]; work |= temp << n_lshift_bit_count; op[13] = work;
; 253  :             work = temp >> n_rshift_bit_count; temp = pp[14]; work |= temp << n_lshift_bit_count; op[14] = work;
; 254  :             work = temp >> n_rshift_bit_count; temp = pp[15]; work |= temp << n_lshift_bit_count; op[15] = work;
; 255  :             pp += 16;

	mov	edx, DWORD PTR _pp$1$[ebp]

; 256  :             op += 16;

	mov	ebx, DWORD PTR _op$1$[ebp]
	add	edx, 64					; 00000040H
	mov	DWORD PTR _pp$1$[ebp], edx
	add	ebx, 64					; 00000040H
$LN7@RightShift:

; 257  :         }
; 258  : 
; 259  :         if (t_count & 0x8)

	mov	ecx, DWORD PTR _t_count$1$[ebp]
	mov	edi, DWORD PTR _n$[ebp]
	test	cl, 8
	je	$LN8@RightShift

; 260  :         {
; 261  :             work = temp >> n_rshift_bit_count; temp = pp[0]; work |= temp << n_lshift_bit_count; op[0] = work;

	mov	esi, DWORD PTR [edx]
	mov	ecx, edi
	shr	eax, cl
	mov	edx, esi
	mov	ecx, DWORD PTR _n_lshift_bit_count$1$[ebp]
	shl	edx, cl
	mov	ecx, edi
	or	edx, eax
	shr	esi, cl
	mov	ecx, DWORD PTR _n_lshift_bit_count$1$[ebp]
	mov	DWORD PTR [ebx], edx
	mov	edx, DWORD PTR _pp$1$[ebp]
	mov	edx, DWORD PTR [edx+4]
	mov	eax, edx
	shl	eax, cl
	mov	ecx, edi
	or	eax, esi
	shr	edx, cl
	mov	DWORD PTR [ebx+4], eax
	mov	eax, DWORD PTR _pp$1$[ebp]
	mov	ecx, DWORD PTR _n_lshift_bit_count$1$[ebp]
	mov	esi, DWORD PTR [eax+8]
	mov	eax, esi
	shl	eax, cl
	mov	ecx, edi
	or	eax, edx
	shr	esi, cl
	mov	DWORD PTR [ebx+8], eax
	mov	eax, DWORD PTR _pp$1$[ebp]
	mov	ecx, DWORD PTR _n_lshift_bit_count$1$[ebp]
	mov	edx, DWORD PTR [eax+12]
	mov	eax, edx
	shl	eax, cl
	mov	ecx, edi
	or	eax, esi
	shr	edx, cl
	mov	ecx, DWORD PTR _n_lshift_bit_count$1$[ebp]
	mov	DWORD PTR [ebx+12], eax
	mov	eax, DWORD PTR _pp$1$[ebp]
	mov	esi, DWORD PTR [eax+16]
	mov	eax, esi
	shl	eax, cl
	mov	ecx, edi
	or	eax, edx
	shr	esi, cl
	mov	ecx, DWORD PTR _n_lshift_bit_count$1$[ebp]
	mov	DWORD PTR [ebx+16], eax
	mov	eax, DWORD PTR _pp$1$[ebp]
	mov	edx, DWORD PTR [eax+20]
	mov	eax, edx
	shl	eax, cl
	mov	ecx, edi
	or	eax, esi
	shr	edx, cl
	mov	ecx, DWORD PTR _n_lshift_bit_count$1$[ebp]
	mov	DWORD PTR [ebx+20], eax
	mov	eax, DWORD PTR _pp$1$[ebp]
	mov	esi, DWORD PTR [eax+24]
	mov	eax, esi
	shl	eax, cl
	mov	ecx, edi
	or	eax, edx
	shr	esi, cl
	mov	ecx, DWORD PTR _n_lshift_bit_count$1$[ebp]
	mov	DWORD PTR [ebx+24], eax
	mov	eax, DWORD PTR _pp$1$[ebp]
	mov	eax, DWORD PTR [eax+28]
	mov	edx, eax
	shl	edx, cl
	mov	ecx, DWORD PTR _t_count$1$[ebp]
	or	edx, esi
	mov	DWORD PTR [ebx+28], edx

; 262  :             work = temp >> n_rshift_bit_count; temp = pp[1]; work |= temp << n_lshift_bit_count; op[1] = work;
; 263  :             work = temp >> n_rshift_bit_count; temp = pp[2]; work |= temp << n_lshift_bit_count; op[2] = work;
; 264  :             work = temp >> n_rshift_bit_count; temp = pp[3]; work |= temp << n_lshift_bit_count; op[3] = work;
; 265  :             work = temp >> n_rshift_bit_count; temp = pp[4]; work |= temp << n_lshift_bit_count; op[4] = work;
; 266  :             work = temp >> n_rshift_bit_count; temp = pp[5]; work |= temp << n_lshift_bit_count; op[5] = work;
; 267  :             work = temp >> n_rshift_bit_count; temp = pp[6]; work |= temp << n_lshift_bit_count; op[6] = work;
; 268  :             work = temp >> n_rshift_bit_count; temp = pp[7]; work |= temp << n_lshift_bit_count; op[7] = work;
; 269  :             pp += 8;

	mov	edx, DWORD PTR _pp$1$[ebp]
	add	edx, 32					; 00000020H

; 270  :             op += 8;

	add	ebx, 32					; 00000020H
	mov	DWORD PTR _pp$1$[ebp], edx
$LN8@RightShift:

; 271  :         }
; 272  : 
; 273  :         if (t_count & 0x4)

	test	cl, 4
	je	SHORT $LN9@RightShift

; 274  :         {
; 275  :             work = temp >> n_rshift_bit_count; temp = pp[0]; work |= temp << n_lshift_bit_count; op[0] = work;

	mov	esi, DWORD PTR [edx]
	mov	ecx, edi
	shr	eax, cl
	mov	edx, esi
	mov	ecx, DWORD PTR _n_lshift_bit_count$1$[ebp]
	shl	edx, cl
	mov	ecx, edi
	or	edx, eax
	shr	esi, cl
	mov	eax, DWORD PTR _pp$1$[ebp]
	mov	ecx, DWORD PTR _n_lshift_bit_count$1$[ebp]
	mov	DWORD PTR [ebx], edx
	mov	edx, DWORD PTR [eax+4]
	mov	eax, edx
	shl	eax, cl
	mov	ecx, edi
	or	eax, esi
	shr	edx, cl
	mov	ecx, DWORD PTR _n_lshift_bit_count$1$[ebp]
	mov	DWORD PTR [ebx+4], eax
	mov	eax, DWORD PTR _pp$1$[ebp]
	mov	esi, DWORD PTR [eax+8]
	mov	eax, esi
	shl	eax, cl
	mov	ecx, edi
	or	eax, edx
	shr	esi, cl
	mov	ecx, DWORD PTR _n_lshift_bit_count$1$[ebp]
	mov	DWORD PTR [ebx+8], eax
	mov	eax, DWORD PTR _pp$1$[ebp]
	mov	eax, DWORD PTR [eax+12]
	mov	edx, eax
	shl	edx, cl
	mov	ecx, DWORD PTR _t_count$1$[ebp]
	or	edx, esi
	mov	DWORD PTR [ebx+12], edx

; 276  :             work = temp >> n_rshift_bit_count; temp = pp[1]; work |= temp << n_lshift_bit_count; op[1] = work;
; 277  :             work = temp >> n_rshift_bit_count; temp = pp[2]; work |= temp << n_lshift_bit_count; op[2] = work;
; 278  :             work = temp >> n_rshift_bit_count; temp = pp[3]; work |= temp << n_lshift_bit_count; op[3] = work;
; 279  :             pp += 4;

	mov	edx, DWORD PTR _pp$1$[ebp]
	add	edx, 16					; 00000010H

; 280  :             op += 4;

	add	ebx, 16					; 00000010H
	mov	DWORD PTR _pp$1$[ebp], edx
$LN9@RightShift:

; 281  :         }
; 282  : 
; 283  :         if (t_count & 0x2)

	test	cl, 2
	je	SHORT $LN10@RightShift

; 284  :         {
; 285  :             work = temp >> n_rshift_bit_count; temp = pp[0]; work |= temp << n_lshift_bit_count; op[0] = work;

	mov	esi, DWORD PTR [edx]
	mov	ecx, edi
	shr	eax, cl
	mov	edx, esi
	mov	ecx, DWORD PTR _n_lshift_bit_count$1$[ebp]
	shl	edx, cl

; 286  :             work = temp >> n_rshift_bit_count; temp = pp[1]; work |= temp << n_lshift_bit_count; op[1] = work;

	mov	ecx, edi
	or	edx, eax
	shr	esi, cl
	mov	eax, DWORD PTR _pp$1$[ebp]
	mov	ecx, DWORD PTR _n_lshift_bit_count$1$[ebp]
	mov	DWORD PTR [ebx], edx
	mov	eax, DWORD PTR [eax+4]
	mov	edx, eax
	shl	edx, cl
	mov	ecx, DWORD PTR _t_count$1$[ebp]
	or	edx, esi
	mov	DWORD PTR [ebx+4], edx

; 287  :             pp += 2;

	mov	edx, DWORD PTR _pp$1$[ebp]
	add	edx, 8

; 288  :             op += 2;

	add	ebx, 8
$LN10@RightShift:

; 289  :         }
; 290  : 
; 291  :         if (t_count & 0x1)

	test	cl, 1
	je	SHORT $LN11@RightShift

; 292  :         {
; 293  :             work = temp >> n_rshift_bit_count; temp = pp[0]; work |= temp << n_lshift_bit_count; op[0] = work;

	mov	ecx, edi
	shr	eax, cl
	mov	ecx, DWORD PTR _n_lshift_bit_count$1$[ebp]
	mov	esi, eax
	mov	eax, DWORD PTR [edx]
	mov	edx, eax
	shl	edx, cl
	or	edx, esi
	mov	DWORD PTR [ebx], edx

; 294  :             pp += 1;
; 295  :             op += 1;

	add	ebx, 4
$LN11@RightShift:

; 296  :         }
; 297  : 
; 298  :         work = temp >> n_rshift_bit_count;

	mov	ecx, edi
	shr	eax, cl

; 299  :         if (work != 0 || padding_zero)

	mov	ecx, DWORD PTR _padding_zero$[ebp]
	test	eax, eax
	jne	SHORT $LN13@RightShift
	test	ecx, ecx
	je	SHORT $LN20@RightShift
$LN13@RightShift:

; 300  :             *op = work;

	mov	DWORD PTR [ebx], eax

; 301  : 
; 302  :         if (padding_zero)

	test	ecx, ecx
	je	SHORT $LN20@RightShift

; 303  :             _ZERO_MEMORY_UNIT_DIV(o + p_word_count - n_word_count, n_word_count);

	mov	eax, DWORD PTR _p_word_count$[ebp]
	mov	ecx, DWORD PTR _o$[ebp]
	lea	edi, DWORD PTR [ecx+eax*4]

; 304  :     }
; 305  : }

	mov	ecx, DWORD PTR _n_word_count$1$[ebp]
	xor	eax, eax
	rep stosd
$LN20@RightShift:
	pop	edi
	pop	esi
	pop	ebx
	mov	esp, ebp
	pop	ebp
	ret	0
_RightShift_Imp_DIV ENDP
_TEXT	ENDS
END
