; Listing generated by Microsoft (R) Optimizing Compiler Version 19.16.27026.1 

	TITLE	Z:\Sources\Lunor\Repos\rougemeilland\Palmtree.Math.Core.Implements\Palmtree.Math.Core.Implements\pmc_subtruct.c
	.686P
	.XMM
	include listing.inc
	.model	flat

INCLUDELIB MSVCRT
INCLUDELIB OLDNAMES

PUBLIC	_Initialize_Subtruct
PUBLIC	_PMC_Subtruct_X_I@12
PUBLIC	_PMC_Subtruct_X_L@16
PUBLIC	_PMC_Subtruct_X_X@12
EXTRN	_CheckBlockLight:PROC
EXTRN	_AllocateNumber:PROC
EXTRN	_DeallocateNumber:PROC
EXTRN	_CommitNumber:PROC
EXTRN	_CheckNumber:PROC
EXTRN	_DuplicateNumber:PROC
EXTRN	_number_zero:BYTE
; Function compile flags: /Ogtp
; File z:\sources\lunor\repos\rougemeilland\palmtree.math.core.implements\palmtree.math.core.implements\pmc_subtruct.c
; File z:\sources\lunor\repos\rougemeilland\palmtree.math.core.implements\palmtree.math.core.implements\autogenerated_inline_func.h
; File z:\sources\lunor\repos\rougemeilland\palmtree.math.core.implements\palmtree.math.core.implements\pmc_internal.h
; File z:\sources\lunor\repos\rougemeilland\palmtree.math.core.implements\palmtree.math.core.implements\autogenerated_inline_func.h
; File z:\sources\lunor\repos\rougemeilland\palmtree.math.core.implements\palmtree.math.core.implements\pmc_internal.h
; File z:\sources\lunor\repos\rougemeilland\palmtree.math.core.implements\palmtree.math.core.implements\autogenerated_inline_func.h
; File z:\sources\lunor\repos\rougemeilland\palmtree.math.core.implements\palmtree.math.core.implements\pmc_internal.h
; File z:\sources\lunor\repos\rougemeilland\palmtree.math.core.implements\palmtree.math.core.implements\autogenerated_inline_func.h
; File z:\sources\lunor\repos\rougemeilland\palmtree.math.core.implements\palmtree.math.core.implements\pmc_internal.h
; File z:\sources\lunor\repos\rougemeilland\palmtree.math.core.implements\palmtree.math.core.implements\autogenerated_inline_func.h
; File z:\sources\lunor\repos\rougemeilland\palmtree.math.core.implements\palmtree.math.core.implements\pmc_internal.h
; File z:\sources\lunor\repos\rougemeilland\palmtree.math.core.implements\palmtree.math.core.implements\autogenerated_inline_func.h
; File z:\sources\lunor\repos\rougemeilland\palmtree.math.core.implements\palmtree.math.core.implements\pmc_internal.h
; File z:\sources\lunor\repos\rougemeilland\palmtree.math.core.implements\palmtree.math.core.implements\autogenerated_inline_func.h
; File z:\sources\lunor\repos\rougemeilland\palmtree.math.core.implements\palmtree.math.core.implements\pmc_internal.h
; File z:\sources\lunor\repos\rougemeilland\palmtree.math.core.implements\palmtree.math.core.implements\autogenerated_inline_func.h
; File z:\sources\lunor\repos\rougemeilland\palmtree.math.core.implements\palmtree.math.core.implements\pmc_internal.h
; File z:\sources\lunor\repos\rougemeilland\palmtree.math.core.implements\palmtree.math.core.implements\autogenerated_inline_func.h
; File z:\sources\lunor\repos\rougemeilland\palmtree.math.core.implements\palmtree.math.core.implements\pmc_internal.h
; File z:\sources\lunor\repos\rougemeilland\palmtree.math.core.implements\palmtree.math.core.implements\autogenerated_inline_func.h
; File z:\sources\lunor\repos\rougemeilland\palmtree.math.core.implements\palmtree.math.core.implements\pmc_internal.h
; File z:\sources\lunor\repos\rougemeilland\palmtree.math.core.implements\palmtree.math.core.implements\autogenerated_inline_func.h
; File z:\sources\lunor\repos\rougemeilland\palmtree.math.core.implements\palmtree.math.core.implements\pmc_internal.h
; File z:\sources\lunor\repos\rougemeilland\palmtree.math.core.implements\palmtree.math.core.implements\autogenerated_inline_func.h
; File z:\sources\lunor\repos\rougemeilland\palmtree.math.core.implements\palmtree.math.core.implements\pmc_internal.h
; File z:\sources\lunor\repos\rougemeilland\palmtree.math.core.implements\palmtree.math.core.implements\autogenerated_inline_func.h
; File z:\sources\lunor\repos\rougemeilland\palmtree.math.core.implements\palmtree.math.core.implements\pmc_internal.h
; File z:\sources\lunor\repos\rougemeilland\palmtree.math.core.implements\palmtree.math.core.implements\autogenerated_inline_func.h
; File z:\sources\lunor\repos\rougemeilland\palmtree.math.core.implements\palmtree.math.core.implements\pmc_internal.h
; File z:\sources\lunor\repos\rougemeilland\palmtree.math.core.implements\palmtree.math.core.implements\autogenerated_inline_func.h
; File z:\sources\lunor\repos\rougemeilland\palmtree.math.core.implements\palmtree.math.core.implements\pmc_internal.h
; File z:\sources\lunor\repos\rougemeilland\palmtree.math.core.implements\palmtree.math.core.implements\autogenerated_inline_func.h
; File z:\sources\lunor\repos\rougemeilland\palmtree.math.core.implements\palmtree.math.core.implements\pmc_internal.h
; File z:\sources\lunor\repos\rougemeilland\palmtree.math.core.implements\palmtree.math.core.implements\autogenerated_inline_func.h
; File z:\sources\lunor\repos\rougemeilland\palmtree.math.core.implements\palmtree.math.core.implements\pmc_internal.h
; File z:\sources\lunor\repos\rougemeilland\palmtree.math.core.implements\palmtree.math.core.implements\autogenerated_inline_func.h
; File z:\sources\lunor\repos\rougemeilland\palmtree.math.core.implements\palmtree.math.core.implements\pmc_internal.h
; File z:\sources\lunor\repos\rougemeilland\palmtree.math.core.implements\palmtree.math.core.implements\autogenerated_inline_func.h
; File z:\sources\lunor\repos\rougemeilland\palmtree.math.core.implements\palmtree.math.core.implements\pmc_internal.h
; File z:\sources\lunor\repos\rougemeilland\palmtree.math.core.implements\palmtree.math.core.implements\autogenerated_inline_func.h
; File z:\sources\lunor\repos\rougemeilland\palmtree.math.core.implements\palmtree.math.core.implements\pmc_internal.h
; File z:\sources\lunor\repos\rougemeilland\palmtree.math.core.implements\palmtree.math.core.implements\autogenerated_inline_func.h
; File z:\sources\lunor\repos\rougemeilland\palmtree.math.core.implements\palmtree.math.core.implements\pmc_internal.h
; File z:\sources\lunor\repos\rougemeilland\palmtree.math.core.implements\palmtree.math.core.implements\autogenerated_inline_func.h
; File z:\sources\lunor\repos\rougemeilland\palmtree.math.core.implements\palmtree.math.core.implements\pmc_internal.h
; File z:\sources\lunor\repos\rougemeilland\palmtree.math.core.implements\palmtree.math.core.implements\autogenerated_inline_func.h
; File z:\sources\lunor\repos\rougemeilland\palmtree.math.core.implements\palmtree.math.core.implements\pmc_internal.h
; File z:\sources\lunor\repos\rougemeilland\palmtree.math.core.implements\palmtree.math.core.implements\autogenerated_inline_func.h
; File z:\sources\lunor\repos\rougemeilland\palmtree.math.core.implements\palmtree.math.core.implements\pmc_internal.h
; File z:\sources\lunor\repos\rougemeilland\palmtree.math.core.implements\palmtree.math.core.implements\autogenerated_inline_func.h
; File z:\sources\lunor\repos\rougemeilland\palmtree.math.core.implements\palmtree.math.core.implements\pmc_internal.h
; File z:\sources\lunor\repos\rougemeilland\palmtree.math.core.implements\palmtree.math.core.implements\autogenerated_inline_func.h
; File z:\sources\lunor\repos\rougemeilland\palmtree.math.core.implements\palmtree.math.core.implements\pmc_internal.h
; File z:\sources\lunor\repos\rougemeilland\palmtree.math.core.implements\palmtree.math.core.implements\autogenerated_inline_func.h
; File z:\sources\lunor\repos\rougemeilland\palmtree.math.core.implements\palmtree.math.core.implements\pmc_internal.h
; File z:\sources\lunor\repos\rougemeilland\palmtree.math.core.implements\palmtree.math.core.implements\autogenerated_inline_func.h
; File z:\sources\lunor\repos\rougemeilland\palmtree.math.core.implements\palmtree.math.core.implements\pmc_internal.h
; File z:\sources\lunor\repos\rougemeilland\palmtree.math.core.implements\palmtree.math.core.implements\autogenerated_inline_func.h
; File z:\sources\lunor\repos\rougemeilland\palmtree.math.core.implements\palmtree.math.core.implements\pmc_internal.h
; File z:\sources\lunor\repos\rougemeilland\palmtree.math.core.implements\palmtree.math.core.implements\autogenerated_inline_func.h
; File z:\sources\lunor\repos\rougemeilland\palmtree.math.core.implements\palmtree.math.core.implements\pmc_internal.h
; File z:\sources\lunor\repos\rougemeilland\palmtree.math.core.implements\palmtree.math.core.implements\autogenerated_inline_func.h
; File z:\sources\lunor\repos\rougemeilland\palmtree.math.core.implements\palmtree.math.core.implements\pmc_internal.h
; File z:\sources\lunor\repos\rougemeilland\palmtree.math.core.implements\palmtree.math.core.implements\autogenerated_inline_func.h
; File z:\sources\lunor\repos\rougemeilland\palmtree.math.core.implements\palmtree.math.core.implements\pmc_internal.h
; File z:\sources\lunor\repos\rougemeilland\palmtree.math.core.implements\palmtree.math.core.implements\pmc_subtruct.c
; File z:\sources\lunor\repos\rougemeilland\palmtree.math.core.implements\palmtree.math.core.implements\autogenerated_inline_func.h
; File z:\sources\lunor\repos\rougemeilland\palmtree.math.core.implements\palmtree.math.core.implements\pmc_internal.h
; File z:\sources\lunor\repos\rougemeilland\palmtree.math.core.implements\palmtree.math.core.implements\autogenerated_inline_func.h
; File z:\sources\lunor\repos\rougemeilland\palmtree.math.core.implements\palmtree.math.core.implements\pmc_internal.h
; File z:\sources\lunor\repos\rougemeilland\palmtree.math.core.implements\palmtree.math.core.implements\autogenerated_inline_func.h
; File z:\sources\lunor\repos\rougemeilland\palmtree.math.core.implements\palmtree.math.core.implements\pmc_internal.h
; File z:\sources\lunor\repos\rougemeilland\palmtree.math.core.implements\palmtree.math.core.implements\autogenerated_inline_func.h
; File z:\sources\lunor\repos\rougemeilland\palmtree.math.core.implements\palmtree.math.core.implements\pmc_internal.h
; File z:\sources\lunor\repos\rougemeilland\palmtree.math.core.implements\palmtree.math.core.implements\autogenerated_inline_func.h
; File z:\sources\lunor\repos\rougemeilland\palmtree.math.core.implements\palmtree.math.core.implements\pmc_internal.h
; File z:\sources\lunor\repos\rougemeilland\palmtree.math.core.implements\palmtree.math.core.implements\autogenerated_inline_func.h
; File z:\sources\lunor\repos\rougemeilland\palmtree.math.core.implements\palmtree.math.core.implements\pmc_internal.h
; File z:\sources\lunor\repos\rougemeilland\palmtree.math.core.implements\palmtree.math.core.implements\autogenerated_inline_func.h
; File z:\sources\lunor\repos\rougemeilland\palmtree.math.core.implements\palmtree.math.core.implements\pmc_internal.h
; File z:\sources\lunor\repos\rougemeilland\palmtree.math.core.implements\palmtree.math.core.implements\autogenerated_inline_func.h
; File z:\sources\lunor\repos\rougemeilland\palmtree.math.core.implements\palmtree.math.core.implements\pmc_internal.h
; File z:\sources\lunor\repos\rougemeilland\palmtree.math.core.implements\palmtree.math.core.implements\pmc_subtruct.c
; File z:\sources\lunor\repos\rougemeilland\palmtree.math.core.implements\palmtree.math.core.implements\autogenerated_inline_func.h
; File z:\sources\lunor\repos\rougemeilland\palmtree.math.core.implements\palmtree.math.core.implements\pmc_internal.h
; File z:\sources\lunor\repos\rougemeilland\palmtree.math.core.implements\palmtree.math.core.implements\autogenerated_inline_func.h
; File z:\sources\lunor\repos\rougemeilland\palmtree.math.core.implements\palmtree.math.core.implements\pmc_internal.h
; File z:\sources\lunor\repos\rougemeilland\palmtree.math.core.implements\palmtree.math.core.implements\autogenerated_inline_func.h
; File z:\sources\lunor\repos\rougemeilland\palmtree.math.core.implements\palmtree.math.core.implements\pmc_internal.h
; File z:\sources\lunor\repos\rougemeilland\palmtree.math.core.implements\palmtree.math.core.implements\autogenerated_inline_func.h
; File z:\sources\lunor\repos\rougemeilland\palmtree.math.core.implements\palmtree.math.core.implements\pmc_internal.h
; File z:\sources\lunor\repos\rougemeilland\palmtree.math.core.implements\palmtree.math.core.implements\pmc_subtruct.c
; File z:\sources\lunor\repos\rougemeilland\palmtree.math.core.implements\palmtree.math.core.implements\autogenerated_inline_func.h
; File z:\sources\lunor\repos\rougemeilland\palmtree.math.core.implements\palmtree.math.core.implements\pmc_internal.h
; File z:\sources\lunor\repos\rougemeilland\palmtree.math.core.implements\palmtree.math.core.implements\autogenerated_inline_func.h
; File z:\sources\lunor\repos\rougemeilland\palmtree.math.core.implements\palmtree.math.core.implements\pmc_internal.h
; File z:\sources\lunor\repos\rougemeilland\palmtree.math.core.implements\palmtree.math.core.implements\pmc_subtruct.c
; File z:\sources\lunor\repos\rougemeilland\palmtree.math.core.implements\palmtree.math.core.implements\pmc_internal.h
; File z:\sources\lunor\repos\rougemeilland\palmtree.math.core.implements\palmtree.math.core.implements\pmc_subtruct.c
;	COMDAT _Subtruct_X_X
_TEXT	SEGMENT
_x_count$1$ = -8					; size = 4
_z_count$1$ = -4					; size = 4
_c$ = 8							; size = 1
_x$ = 8							; size = 4
_y_count$1$ = 12					; size = 4
_y$ = 12						; size = 4
_z$ = 16						; size = 4
_Subtruct_X_X PROC					; COMDAT

; 138  : {

	push	ebp
	mov	ebp, esp
	sub	esp, 8

; 139  :     __UNIT_TYPE x_count = x->UNIT_WORD_COUNT;

	mov	ecx, DWORD PTR _x$[ebp]
	push	ebx
	push	esi

; 140  :     __UNIT_TYPE y_count = y->UNIT_WORD_COUNT;
; 141  :     __UNIT_TYPE z_count = z->BLOCK_COUNT;

	mov	esi, DWORD PTR _z$[ebp]
	mov	eax, DWORD PTR [ecx]
	mov	DWORD PTR _x_count$1$[ebp], eax
	mov	eax, DWORD PTR _y$[ebp]
	push	edi

; 142  :     __UNIT_TYPE* xp = &x->BLOCK[0];

	mov	edi, DWORD PTR [ecx+24]
	mov	edx, DWORD PTR [eax]

; 143  :     __UNIT_TYPE* yp = &y->BLOCK[0];

	mov	ebx, DWORD PTR [eax+24]
	mov	DWORD PTR _y_count$1$[ebp], edx
	mov	edx, DWORD PTR [esi+20]

; 144  :     __UNIT_TYPE* zp = &z->BLOCK[0];
; 145  :     char c = 0;
; 146  : 
; 147  :     // まず 32 ワードずつ減算をする。
; 148  :     __UNIT_TYPE count = y_count >> 5;

	mov	ecx, DWORD PTR _y_count$1$[ebp]
	mov	eax, ecx
	mov	esi, DWORD PTR [esi+24]
	mov	DWORD PTR _z_count$1$[ebp], edx
	xor	dl, dl
	shr	eax, 5
	mov	BYTE PTR _c$[ebp], dl

; 149  :     while (count != 0)

	test	eax, eax
	je	$LN3@Subtruct_X
	mov	ecx, eax
$LL2@Subtruct_X:
; File z:\sources\lunor\repos\rougemeilland\palmtree.math.core.implements\palmtree.math.core.implements\autogenerated_inline_func.h

; 806  :     c = _SUBTRUCT_UNIT(c, xp[0], yp[0], &zp[0]);

	mov	eax, DWORD PTR [edi]
; File z:\sources\lunor\repos\rougemeilland\palmtree.math.core.implements\palmtree.math.core.implements\pmc_internal.h

; 482  :     return (_subborrow_u32(borrow, u, v, w));

	add	dl, 255					; 000000ffH
	sbb	eax, DWORD PTR [ebx]
	mov	DWORD PTR [esi], eax
; File z:\sources\lunor\repos\rougemeilland\palmtree.math.core.implements\palmtree.math.core.implements\autogenerated_inline_func.h

; 807  :     c = _SUBTRUCT_UNIT(c, xp[1], yp[1], &zp[1]);

	mov	eax, DWORD PTR [edi+4]
; File z:\sources\lunor\repos\rougemeilland\palmtree.math.core.implements\palmtree.math.core.implements\pmc_internal.h

; 482  :     return (_subborrow_u32(borrow, u, v, w));

	sbb	eax, DWORD PTR [ebx+4]
	mov	DWORD PTR [esi+4], eax
; File z:\sources\lunor\repos\rougemeilland\palmtree.math.core.implements\palmtree.math.core.implements\autogenerated_inline_func.h

; 808  :     c = _SUBTRUCT_UNIT(c, xp[2], yp[2], &zp[2]);

	mov	eax, DWORD PTR [edi+8]
; File z:\sources\lunor\repos\rougemeilland\palmtree.math.core.implements\palmtree.math.core.implements\pmc_internal.h

; 482  :     return (_subborrow_u32(borrow, u, v, w));

	sbb	eax, DWORD PTR [ebx+8]
	mov	DWORD PTR [esi+8], eax
; File z:\sources\lunor\repos\rougemeilland\palmtree.math.core.implements\palmtree.math.core.implements\autogenerated_inline_func.h

; 809  :     c = _SUBTRUCT_UNIT(c, xp[3], yp[3], &zp[3]);

	mov	eax, DWORD PTR [edi+12]
; File z:\sources\lunor\repos\rougemeilland\palmtree.math.core.implements\palmtree.math.core.implements\pmc_internal.h

; 482  :     return (_subborrow_u32(borrow, u, v, w));

	sbb	eax, DWORD PTR [ebx+12]
	mov	DWORD PTR [esi+12], eax
; File z:\sources\lunor\repos\rougemeilland\palmtree.math.core.implements\palmtree.math.core.implements\autogenerated_inline_func.h

; 810  :     c = _SUBTRUCT_UNIT(c, xp[4], yp[4], &zp[4]);

	mov	eax, DWORD PTR [edi+16]
; File z:\sources\lunor\repos\rougemeilland\palmtree.math.core.implements\palmtree.math.core.implements\pmc_internal.h

; 482  :     return (_subborrow_u32(borrow, u, v, w));

	sbb	eax, DWORD PTR [ebx+16]
	mov	DWORD PTR [esi+16], eax
; File z:\sources\lunor\repos\rougemeilland\palmtree.math.core.implements\palmtree.math.core.implements\autogenerated_inline_func.h

; 811  :     c = _SUBTRUCT_UNIT(c, xp[5], yp[5], &zp[5]);

	mov	eax, DWORD PTR [edi+20]
; File z:\sources\lunor\repos\rougemeilland\palmtree.math.core.implements\palmtree.math.core.implements\pmc_internal.h

; 482  :     return (_subborrow_u32(borrow, u, v, w));

	sbb	eax, DWORD PTR [ebx+20]
	mov	DWORD PTR [esi+20], eax
; File z:\sources\lunor\repos\rougemeilland\palmtree.math.core.implements\palmtree.math.core.implements\autogenerated_inline_func.h

; 812  :     c = _SUBTRUCT_UNIT(c, xp[6], yp[6], &zp[6]);

	mov	eax, DWORD PTR [edi+24]
; File z:\sources\lunor\repos\rougemeilland\palmtree.math.core.implements\palmtree.math.core.implements\pmc_internal.h

; 482  :     return (_subborrow_u32(borrow, u, v, w));

	sbb	eax, DWORD PTR [ebx+24]
	mov	DWORD PTR [esi+24], eax
; File z:\sources\lunor\repos\rougemeilland\palmtree.math.core.implements\palmtree.math.core.implements\autogenerated_inline_func.h

; 813  :     c = _SUBTRUCT_UNIT(c, xp[7], yp[7], &zp[7]);

	mov	eax, DWORD PTR [edi+28]
; File z:\sources\lunor\repos\rougemeilland\palmtree.math.core.implements\palmtree.math.core.implements\pmc_internal.h

; 482  :     return (_subborrow_u32(borrow, u, v, w));

	sbb	eax, DWORD PTR [ebx+28]
	mov	DWORD PTR [esi+28], eax
; File z:\sources\lunor\repos\rougemeilland\palmtree.math.core.implements\palmtree.math.core.implements\autogenerated_inline_func.h

; 814  :     c = _SUBTRUCT_UNIT(c, xp[8], yp[8], &zp[8]);

	mov	eax, DWORD PTR [edi+32]
; File z:\sources\lunor\repos\rougemeilland\palmtree.math.core.implements\palmtree.math.core.implements\pmc_internal.h

; 482  :     return (_subborrow_u32(borrow, u, v, w));

	sbb	eax, DWORD PTR [ebx+32]
	mov	DWORD PTR [esi+32], eax
; File z:\sources\lunor\repos\rougemeilland\palmtree.math.core.implements\palmtree.math.core.implements\autogenerated_inline_func.h

; 815  :     c = _SUBTRUCT_UNIT(c, xp[9], yp[9], &zp[9]);

	mov	eax, DWORD PTR [edi+36]
; File z:\sources\lunor\repos\rougemeilland\palmtree.math.core.implements\palmtree.math.core.implements\pmc_internal.h

; 482  :     return (_subborrow_u32(borrow, u, v, w));

	sbb	eax, DWORD PTR [ebx+36]
	mov	DWORD PTR [esi+36], eax
; File z:\sources\lunor\repos\rougemeilland\palmtree.math.core.implements\palmtree.math.core.implements\autogenerated_inline_func.h

; 816  :     c = _SUBTRUCT_UNIT(c, xp[10], yp[10], &zp[10]);

	mov	eax, DWORD PTR [edi+40]
; File z:\sources\lunor\repos\rougemeilland\palmtree.math.core.implements\palmtree.math.core.implements\pmc_internal.h

; 482  :     return (_subborrow_u32(borrow, u, v, w));

	sbb	eax, DWORD PTR [ebx+40]
	mov	DWORD PTR [esi+40], eax
; File z:\sources\lunor\repos\rougemeilland\palmtree.math.core.implements\palmtree.math.core.implements\autogenerated_inline_func.h

; 817  :     c = _SUBTRUCT_UNIT(c, xp[11], yp[11], &zp[11]);

	mov	eax, DWORD PTR [edi+44]
; File z:\sources\lunor\repos\rougemeilland\palmtree.math.core.implements\palmtree.math.core.implements\pmc_internal.h

; 482  :     return (_subborrow_u32(borrow, u, v, w));

	sbb	eax, DWORD PTR [ebx+44]
	mov	DWORD PTR [esi+44], eax
; File z:\sources\lunor\repos\rougemeilland\palmtree.math.core.implements\palmtree.math.core.implements\autogenerated_inline_func.h

; 818  :     c = _SUBTRUCT_UNIT(c, xp[12], yp[12], &zp[12]);

	mov	eax, DWORD PTR [edi+48]
; File z:\sources\lunor\repos\rougemeilland\palmtree.math.core.implements\palmtree.math.core.implements\pmc_internal.h

; 482  :     return (_subborrow_u32(borrow, u, v, w));

	sbb	eax, DWORD PTR [ebx+48]
	mov	DWORD PTR [esi+48], eax
; File z:\sources\lunor\repos\rougemeilland\palmtree.math.core.implements\palmtree.math.core.implements\autogenerated_inline_func.h

; 819  :     c = _SUBTRUCT_UNIT(c, xp[13], yp[13], &zp[13]);

	mov	eax, DWORD PTR [edi+52]
; File z:\sources\lunor\repos\rougemeilland\palmtree.math.core.implements\palmtree.math.core.implements\pmc_internal.h

; 482  :     return (_subborrow_u32(borrow, u, v, w));

	sbb	eax, DWORD PTR [ebx+52]
	mov	DWORD PTR [esi+52], eax
; File z:\sources\lunor\repos\rougemeilland\palmtree.math.core.implements\palmtree.math.core.implements\autogenerated_inline_func.h

; 820  :     c = _SUBTRUCT_UNIT(c, xp[14], yp[14], &zp[14]);

	mov	eax, DWORD PTR [edi+56]
; File z:\sources\lunor\repos\rougemeilland\palmtree.math.core.implements\palmtree.math.core.implements\pmc_internal.h

; 482  :     return (_subborrow_u32(borrow, u, v, w));

	sbb	eax, DWORD PTR [ebx+56]
	mov	DWORD PTR [esi+56], eax
; File z:\sources\lunor\repos\rougemeilland\palmtree.math.core.implements\palmtree.math.core.implements\autogenerated_inline_func.h

; 821  :     c = _SUBTRUCT_UNIT(c, xp[15], yp[15], &zp[15]);

	mov	eax, DWORD PTR [edi+60]
; File z:\sources\lunor\repos\rougemeilland\palmtree.math.core.implements\palmtree.math.core.implements\pmc_internal.h

; 482  :     return (_subborrow_u32(borrow, u, v, w));

	sbb	eax, DWORD PTR [ebx+60]
	mov	DWORD PTR [esi+60], eax
; File z:\sources\lunor\repos\rougemeilland\palmtree.math.core.implements\palmtree.math.core.implements\autogenerated_inline_func.h

; 822  :     c = _SUBTRUCT_UNIT(c, xp[16], yp[16], &zp[16]);

	mov	eax, DWORD PTR [edi+64]
; File z:\sources\lunor\repos\rougemeilland\palmtree.math.core.implements\palmtree.math.core.implements\pmc_internal.h

; 482  :     return (_subborrow_u32(borrow, u, v, w));

	sbb	eax, DWORD PTR [ebx+64]
	mov	DWORD PTR [esi+64], eax
; File z:\sources\lunor\repos\rougemeilland\palmtree.math.core.implements\palmtree.math.core.implements\autogenerated_inline_func.h

; 823  :     c = _SUBTRUCT_UNIT(c, xp[17], yp[17], &zp[17]);

	mov	eax, DWORD PTR [edi+68]
; File z:\sources\lunor\repos\rougemeilland\palmtree.math.core.implements\palmtree.math.core.implements\pmc_internal.h

; 482  :     return (_subborrow_u32(borrow, u, v, w));

	sbb	eax, DWORD PTR [ebx+68]
	mov	DWORD PTR [esi+68], eax
; File z:\sources\lunor\repos\rougemeilland\palmtree.math.core.implements\palmtree.math.core.implements\autogenerated_inline_func.h

; 824  :     c = _SUBTRUCT_UNIT(c, xp[18], yp[18], &zp[18]);

	mov	eax, DWORD PTR [edi+72]
; File z:\sources\lunor\repos\rougemeilland\palmtree.math.core.implements\palmtree.math.core.implements\pmc_internal.h

; 482  :     return (_subborrow_u32(borrow, u, v, w));

	sbb	eax, DWORD PTR [ebx+72]
	mov	DWORD PTR [esi+72], eax
; File z:\sources\lunor\repos\rougemeilland\palmtree.math.core.implements\palmtree.math.core.implements\autogenerated_inline_func.h

; 825  :     c = _SUBTRUCT_UNIT(c, xp[19], yp[19], &zp[19]);

	mov	eax, DWORD PTR [edi+76]
; File z:\sources\lunor\repos\rougemeilland\palmtree.math.core.implements\palmtree.math.core.implements\pmc_internal.h

; 482  :     return (_subborrow_u32(borrow, u, v, w));

	sbb	eax, DWORD PTR [ebx+76]
	mov	DWORD PTR [esi+76], eax
; File z:\sources\lunor\repos\rougemeilland\palmtree.math.core.implements\palmtree.math.core.implements\autogenerated_inline_func.h

; 826  :     c = _SUBTRUCT_UNIT(c, xp[20], yp[20], &zp[20]);

	mov	eax, DWORD PTR [edi+80]
; File z:\sources\lunor\repos\rougemeilland\palmtree.math.core.implements\palmtree.math.core.implements\pmc_internal.h

; 482  :     return (_subborrow_u32(borrow, u, v, w));

	sbb	eax, DWORD PTR [ebx+80]
	mov	DWORD PTR [esi+80], eax
; File z:\sources\lunor\repos\rougemeilland\palmtree.math.core.implements\palmtree.math.core.implements\autogenerated_inline_func.h

; 827  :     c = _SUBTRUCT_UNIT(c, xp[21], yp[21], &zp[21]);

	mov	eax, DWORD PTR [edi+84]
; File z:\sources\lunor\repos\rougemeilland\palmtree.math.core.implements\palmtree.math.core.implements\pmc_internal.h

; 482  :     return (_subborrow_u32(borrow, u, v, w));

	sbb	eax, DWORD PTR [ebx+84]
	mov	DWORD PTR [esi+84], eax
; File z:\sources\lunor\repos\rougemeilland\palmtree.math.core.implements\palmtree.math.core.implements\autogenerated_inline_func.h

; 828  :     c = _SUBTRUCT_UNIT(c, xp[22], yp[22], &zp[22]);

	mov	eax, DWORD PTR [edi+88]
; File z:\sources\lunor\repos\rougemeilland\palmtree.math.core.implements\palmtree.math.core.implements\pmc_internal.h

; 482  :     return (_subborrow_u32(borrow, u, v, w));

	sbb	eax, DWORD PTR [ebx+88]
	mov	DWORD PTR [esi+88], eax
; File z:\sources\lunor\repos\rougemeilland\palmtree.math.core.implements\palmtree.math.core.implements\autogenerated_inline_func.h

; 829  :     c = _SUBTRUCT_UNIT(c, xp[23], yp[23], &zp[23]);

	mov	eax, DWORD PTR [edi+92]
; File z:\sources\lunor\repos\rougemeilland\palmtree.math.core.implements\palmtree.math.core.implements\pmc_internal.h

; 482  :     return (_subborrow_u32(borrow, u, v, w));

	sbb	eax, DWORD PTR [ebx+92]
	mov	DWORD PTR [esi+92], eax
; File z:\sources\lunor\repos\rougemeilland\palmtree.math.core.implements\palmtree.math.core.implements\autogenerated_inline_func.h

; 830  :     c = _SUBTRUCT_UNIT(c, xp[24], yp[24], &zp[24]);

	mov	eax, DWORD PTR [edi+96]
; File z:\sources\lunor\repos\rougemeilland\palmtree.math.core.implements\palmtree.math.core.implements\pmc_internal.h

; 482  :     return (_subborrow_u32(borrow, u, v, w));

	sbb	eax, DWORD PTR [ebx+96]
	mov	DWORD PTR [esi+96], eax
; File z:\sources\lunor\repos\rougemeilland\palmtree.math.core.implements\palmtree.math.core.implements\autogenerated_inline_func.h

; 831  :     c = _SUBTRUCT_UNIT(c, xp[25], yp[25], &zp[25]);

	mov	eax, DWORD PTR [edi+100]
; File z:\sources\lunor\repos\rougemeilland\palmtree.math.core.implements\palmtree.math.core.implements\pmc_internal.h

; 482  :     return (_subborrow_u32(borrow, u, v, w));

	sbb	eax, DWORD PTR [ebx+100]
	mov	DWORD PTR [esi+100], eax
; File z:\sources\lunor\repos\rougemeilland\palmtree.math.core.implements\palmtree.math.core.implements\autogenerated_inline_func.h

; 832  :     c = _SUBTRUCT_UNIT(c, xp[26], yp[26], &zp[26]);

	mov	eax, DWORD PTR [edi+104]
; File z:\sources\lunor\repos\rougemeilland\palmtree.math.core.implements\palmtree.math.core.implements\pmc_internal.h

; 482  :     return (_subborrow_u32(borrow, u, v, w));

	sbb	eax, DWORD PTR [ebx+104]
	mov	DWORD PTR [esi+104], eax
; File z:\sources\lunor\repos\rougemeilland\palmtree.math.core.implements\palmtree.math.core.implements\autogenerated_inline_func.h

; 833  :     c = _SUBTRUCT_UNIT(c, xp[27], yp[27], &zp[27]);

	mov	eax, DWORD PTR [edi+108]
; File z:\sources\lunor\repos\rougemeilland\palmtree.math.core.implements\palmtree.math.core.implements\pmc_internal.h

; 482  :     return (_subborrow_u32(borrow, u, v, w));

	sbb	eax, DWORD PTR [ebx+108]
	mov	DWORD PTR [esi+108], eax
; File z:\sources\lunor\repos\rougemeilland\palmtree.math.core.implements\palmtree.math.core.implements\autogenerated_inline_func.h

; 834  :     c = _SUBTRUCT_UNIT(c, xp[28], yp[28], &zp[28]);

	mov	eax, DWORD PTR [edi+112]
; File z:\sources\lunor\repos\rougemeilland\palmtree.math.core.implements\palmtree.math.core.implements\pmc_internal.h

; 482  :     return (_subborrow_u32(borrow, u, v, w));

	sbb	eax, DWORD PTR [ebx+112]
	mov	DWORD PTR [esi+112], eax
; File z:\sources\lunor\repos\rougemeilland\palmtree.math.core.implements\palmtree.math.core.implements\autogenerated_inline_func.h

; 835  :     c = _SUBTRUCT_UNIT(c, xp[29], yp[29], &zp[29]);

	mov	eax, DWORD PTR [edi+116]
; File z:\sources\lunor\repos\rougemeilland\palmtree.math.core.implements\palmtree.math.core.implements\pmc_internal.h

; 482  :     return (_subborrow_u32(borrow, u, v, w));

	sbb	eax, DWORD PTR [ebx+116]
	mov	DWORD PTR [esi+116], eax
; File z:\sources\lunor\repos\rougemeilland\palmtree.math.core.implements\palmtree.math.core.implements\autogenerated_inline_func.h

; 836  :     c = _SUBTRUCT_UNIT(c, xp[30], yp[30], &zp[30]);

	mov	eax, DWORD PTR [edi+120]
; File z:\sources\lunor\repos\rougemeilland\palmtree.math.core.implements\palmtree.math.core.implements\pmc_internal.h

; 482  :     return (_subborrow_u32(borrow, u, v, w));

	sbb	eax, DWORD PTR [ebx+120]
	mov	DWORD PTR [esi+120], eax
; File z:\sources\lunor\repos\rougemeilland\palmtree.math.core.implements\palmtree.math.core.implements\autogenerated_inline_func.h

; 837  :     c = _SUBTRUCT_UNIT(c, xp[31], yp[31], &zp[31]);

	mov	eax, DWORD PTR [edi+124]
; File z:\sources\lunor\repos\rougemeilland\palmtree.math.core.implements\palmtree.math.core.implements\pmc_internal.h

; 482  :     return (_subborrow_u32(borrow, u, v, w));

	sbb	eax, DWORD PTR [ebx+124]
	mov	DWORD PTR [esi+124], eax
	setb	dl
; File z:\sources\lunor\repos\rougemeilland\palmtree.math.core.implements\palmtree.math.core.implements\pmc_subtruct.c

; 152  :         xp += 32;

	sub	edi, -128				; ffffff80H

; 153  :         yp += 32;

	sub	ebx, -128				; ffffff80H
	mov	BYTE PTR _c$[ebp], dl

; 154  :         zp += 32;

	sub	esi, -128				; ffffff80H

; 155  :         --count;

	sub	ecx, 1
	jne	$LL2@Subtruct_X
	mov	ecx, DWORD PTR _y_count$1$[ebp]
$LN3@Subtruct_X:

; 156  :     }
; 157  :     // この時点で未処理の桁は 32 ワード未満のはず
; 158  : 
; 159  :     // 未処理の桁が 16 ワード以上あるなら 16 ワード減算を行う。
; 160  :     if (y_count & 0x10)

	test	cl, 16					; 00000010H
	je	SHORT $LN4@Subtruct_X

; 161  :     {
; 162  :         c = _SUBTRUCT_16WORDS_SBB(c, xp, yp, zp);

	push	esi
	push	ebx
	push	edi
	push	DWORD PTR _c$[ebp]
	call	__SUBTRUCT_16WORDS_SBB
	mov	ecx, DWORD PTR _y_count$1$[ebp]
	mov	dl, al
	add	esp, 16					; 00000010H
	mov	BYTE PTR _c$[ebp], dl

; 163  :         xp += 16;

	add	edi, 64					; 00000040H

; 164  :         yp += 16;

	add	ebx, 64					; 00000040H

; 165  :         zp += 16;

	add	esi, 64					; 00000040H
$LN4@Subtruct_X:

; 166  :     }
; 167  :     // この時点で未処理の桁は 16 ワード未満のはず
; 168  : 
; 169  :     // 未処理の桁が 8 ワード以上あるなら 8 ワード減算を行う。
; 170  :     if (y_count & 0x8)

	test	cl, 8
	je	SHORT $LN5@Subtruct_X
; File z:\sources\lunor\repos\rougemeilland\palmtree.math.core.implements\palmtree.math.core.implements\autogenerated_inline_func.h

; 3454 :     c = _SUBTRUCT_UNIT(c, xp[0], yp[0], &zp[0]);

	mov	eax, DWORD PTR [edi]
; File z:\sources\lunor\repos\rougemeilland\palmtree.math.core.implements\palmtree.math.core.implements\pmc_internal.h

; 482  :     return (_subborrow_u32(borrow, u, v, w));

	add	dl, 255					; 000000ffH
	sbb	eax, DWORD PTR [ebx]
	mov	DWORD PTR [esi], eax
; File z:\sources\lunor\repos\rougemeilland\palmtree.math.core.implements\palmtree.math.core.implements\autogenerated_inline_func.h

; 3455 :     c = _SUBTRUCT_UNIT(c, xp[1], yp[1], &zp[1]);

	mov	eax, DWORD PTR [edi+4]
; File z:\sources\lunor\repos\rougemeilland\palmtree.math.core.implements\palmtree.math.core.implements\pmc_internal.h

; 482  :     return (_subborrow_u32(borrow, u, v, w));

	sbb	eax, DWORD PTR [ebx+4]
	mov	DWORD PTR [esi+4], eax
; File z:\sources\lunor\repos\rougemeilland\palmtree.math.core.implements\palmtree.math.core.implements\autogenerated_inline_func.h

; 3456 :     c = _SUBTRUCT_UNIT(c, xp[2], yp[2], &zp[2]);

	mov	eax, DWORD PTR [edi+8]
; File z:\sources\lunor\repos\rougemeilland\palmtree.math.core.implements\palmtree.math.core.implements\pmc_internal.h

; 482  :     return (_subborrow_u32(borrow, u, v, w));

	sbb	eax, DWORD PTR [ebx+8]
	mov	DWORD PTR [esi+8], eax
; File z:\sources\lunor\repos\rougemeilland\palmtree.math.core.implements\palmtree.math.core.implements\autogenerated_inline_func.h

; 3457 :     c = _SUBTRUCT_UNIT(c, xp[3], yp[3], &zp[3]);

	mov	eax, DWORD PTR [edi+12]
; File z:\sources\lunor\repos\rougemeilland\palmtree.math.core.implements\palmtree.math.core.implements\pmc_internal.h

; 482  :     return (_subborrow_u32(borrow, u, v, w));

	sbb	eax, DWORD PTR [ebx+12]
	mov	DWORD PTR [esi+12], eax
; File z:\sources\lunor\repos\rougemeilland\palmtree.math.core.implements\palmtree.math.core.implements\autogenerated_inline_func.h

; 3458 :     c = _SUBTRUCT_UNIT(c, xp[4], yp[4], &zp[4]);

	mov	eax, DWORD PTR [edi+16]
; File z:\sources\lunor\repos\rougemeilland\palmtree.math.core.implements\palmtree.math.core.implements\pmc_internal.h

; 482  :     return (_subborrow_u32(borrow, u, v, w));

	sbb	eax, DWORD PTR [ebx+16]
	mov	DWORD PTR [esi+16], eax
; File z:\sources\lunor\repos\rougemeilland\palmtree.math.core.implements\palmtree.math.core.implements\autogenerated_inline_func.h

; 3459 :     c = _SUBTRUCT_UNIT(c, xp[5], yp[5], &zp[5]);

	mov	eax, DWORD PTR [edi+20]
; File z:\sources\lunor\repos\rougemeilland\palmtree.math.core.implements\palmtree.math.core.implements\pmc_internal.h

; 482  :     return (_subborrow_u32(borrow, u, v, w));

	sbb	eax, DWORD PTR [ebx+20]
	mov	DWORD PTR [esi+20], eax
; File z:\sources\lunor\repos\rougemeilland\palmtree.math.core.implements\palmtree.math.core.implements\autogenerated_inline_func.h

; 3460 :     c = _SUBTRUCT_UNIT(c, xp[6], yp[6], &zp[6]);

	mov	eax, DWORD PTR [edi+24]
; File z:\sources\lunor\repos\rougemeilland\palmtree.math.core.implements\palmtree.math.core.implements\pmc_internal.h

; 482  :     return (_subborrow_u32(borrow, u, v, w));

	sbb	eax, DWORD PTR [ebx+24]
	mov	DWORD PTR [esi+24], eax
; File z:\sources\lunor\repos\rougemeilland\palmtree.math.core.implements\palmtree.math.core.implements\autogenerated_inline_func.h

; 3461 :     c = _SUBTRUCT_UNIT(c, xp[7], yp[7], &zp[7]);

	mov	eax, DWORD PTR [edi+28]
; File z:\sources\lunor\repos\rougemeilland\palmtree.math.core.implements\palmtree.math.core.implements\pmc_internal.h

; 482  :     return (_subborrow_u32(borrow, u, v, w));

	sbb	eax, DWORD PTR [ebx+28]
	mov	DWORD PTR [esi+28], eax
	setb	dl
; File z:\sources\lunor\repos\rougemeilland\palmtree.math.core.implements\palmtree.math.core.implements\pmc_subtruct.c

; 173  :         xp += 8;

	add	edi, 32					; 00000020H

; 174  :         yp += 8;

	add	ebx, 32					; 00000020H
	mov	BYTE PTR _c$[ebp], dl

; 175  :         zp += 8;

	add	esi, 32					; 00000020H
$LN5@Subtruct_X:

; 176  :     }
; 177  :     // この時点で未処理の桁は 8 ワード未満のはず
; 178  : 
; 179  :     // 未処理の桁が 4 ワード以上あるなら 4 ワード減算を行う。
; 180  :     if (y_count & 0x4)

	test	cl, 4
	je	SHORT $LN6@Subtruct_X
; File z:\sources\lunor\repos\rougemeilland\palmtree.math.core.implements\palmtree.math.core.implements\autogenerated_inline_func.h

; 4050 :     c = _SUBTRUCT_UNIT(c, xp[0], yp[0], &zp[0]);

	mov	eax, DWORD PTR [edi]
; File z:\sources\lunor\repos\rougemeilland\palmtree.math.core.implements\palmtree.math.core.implements\pmc_internal.h

; 482  :     return (_subborrow_u32(borrow, u, v, w));

	add	dl, 255					; 000000ffH
	sbb	eax, DWORD PTR [ebx]
	mov	DWORD PTR [esi], eax
; File z:\sources\lunor\repos\rougemeilland\palmtree.math.core.implements\palmtree.math.core.implements\autogenerated_inline_func.h

; 4051 :     c = _SUBTRUCT_UNIT(c, xp[1], yp[1], &zp[1]);

	mov	eax, DWORD PTR [edi+4]
; File z:\sources\lunor\repos\rougemeilland\palmtree.math.core.implements\palmtree.math.core.implements\pmc_internal.h

; 482  :     return (_subborrow_u32(borrow, u, v, w));

	sbb	eax, DWORD PTR [ebx+4]
	mov	DWORD PTR [esi+4], eax
; File z:\sources\lunor\repos\rougemeilland\palmtree.math.core.implements\palmtree.math.core.implements\autogenerated_inline_func.h

; 4052 :     c = _SUBTRUCT_UNIT(c, xp[2], yp[2], &zp[2]);

	mov	eax, DWORD PTR [edi+8]
; File z:\sources\lunor\repos\rougemeilland\palmtree.math.core.implements\palmtree.math.core.implements\pmc_internal.h

; 482  :     return (_subborrow_u32(borrow, u, v, w));

	sbb	eax, DWORD PTR [ebx+8]
	mov	DWORD PTR [esi+8], eax
; File z:\sources\lunor\repos\rougemeilland\palmtree.math.core.implements\palmtree.math.core.implements\autogenerated_inline_func.h

; 4053 :     c = _SUBTRUCT_UNIT(c, xp[3], yp[3], &zp[3]);

	mov	eax, DWORD PTR [edi+12]
; File z:\sources\lunor\repos\rougemeilland\palmtree.math.core.implements\palmtree.math.core.implements\pmc_internal.h

; 482  :     return (_subborrow_u32(borrow, u, v, w));

	sbb	eax, DWORD PTR [ebx+12]
	mov	DWORD PTR [esi+12], eax
	setb	dl
; File z:\sources\lunor\repos\rougemeilland\palmtree.math.core.implements\palmtree.math.core.implements\pmc_subtruct.c

; 183  :         xp += 4;

	add	edi, 16					; 00000010H

; 184  :         yp += 4;

	add	ebx, 16					; 00000010H
	mov	BYTE PTR _c$[ebp], dl

; 185  :         zp += 4;

	add	esi, 16					; 00000010H
$LN6@Subtruct_X:

; 186  :     }
; 187  :     // この時点で未処理の桁は 4 ワード未満のはず
; 188  : 
; 189  :     // 未処理の桁が 2 ワード以上あるなら 2 ワード減算を行う。
; 190  :     if (y_count & 0x2)

	test	cl, 2
	je	SHORT $LN7@Subtruct_X
; File z:\sources\lunor\repos\rougemeilland\palmtree.math.core.implements\palmtree.math.core.implements\autogenerated_inline_func.h

; 4464 :     c = _SUBTRUCT_UNIT(c, xp[0], yp[0], &zp[0]);

	mov	eax, DWORD PTR [edi]
; File z:\sources\lunor\repos\rougemeilland\palmtree.math.core.implements\palmtree.math.core.implements\pmc_internal.h

; 482  :     return (_subborrow_u32(borrow, u, v, w));

	add	dl, 255					; 000000ffH
	sbb	eax, DWORD PTR [ebx]
	mov	DWORD PTR [esi], eax
; File z:\sources\lunor\repos\rougemeilland\palmtree.math.core.implements\palmtree.math.core.implements\autogenerated_inline_func.h

; 4465 :     c = _SUBTRUCT_UNIT(c, xp[1], yp[1], &zp[1]);

	mov	eax, DWORD PTR [edi+4]
; File z:\sources\lunor\repos\rougemeilland\palmtree.math.core.implements\palmtree.math.core.implements\pmc_internal.h

; 482  :     return (_subborrow_u32(borrow, u, v, w));

	sbb	eax, DWORD PTR [ebx+4]
	mov	DWORD PTR [esi+4], eax
	setb	dl
; File z:\sources\lunor\repos\rougemeilland\palmtree.math.core.implements\palmtree.math.core.implements\pmc_subtruct.c

; 193  :         xp += 2;

	add	edi, 8

; 194  :         yp += 2;

	add	ebx, 8
	mov	BYTE PTR _c$[ebp], dl

; 195  :         zp += 2;

	add	esi, 8
$LN7@Subtruct_X:

; 196  :     }
; 197  :     // この時点で未処理の桁は 2 ワード未満のはず
; 198  : 
; 199  :     // 未処理の桁が 1 ワード以上あるなら 1 ワード減算を行う。
; 200  :     if (y_count & 1)

	test	cl, 1
	je	SHORT $LN8@Subtruct_X

; 201  :         c = _SUBTRUCT_UNIT(c, *xp++, *yp++, zp++);

	mov	ecx, DWORD PTR [edi]
; File z:\sources\lunor\repos\rougemeilland\palmtree.math.core.implements\palmtree.math.core.implements\pmc_internal.h

; 482  :     return (_subborrow_u32(borrow, u, v, w));

	add	dl, 255					; 000000ffH
	sbb	ecx, DWORD PTR [ebx]
	mov	DWORD PTR [esi], ecx
	mov	ecx, DWORD PTR _y_count$1$[ebp]
	setb	al
; File z:\sources\lunor\repos\rougemeilland\palmtree.math.core.implements\palmtree.math.core.implements\pmc_subtruct.c

; 201  :         c = _SUBTRUCT_UNIT(c, *xp++, *yp++, zp++);

	add	edi, 4
	mov	BYTE PTR _c$[ebp], al
	add	esi, 4
$LN8@Subtruct_X:

; 202  : 
; 203  :     // 残りの桁の繰り上がりを計算し、復帰する。
; 204  :     return (DoBorrow(c, xp, x_count - y_count, zp, z_count - y_count));

	mov	eax, DWORD PTR _z_count$1$[ebp]
	sub	eax, ecx
	push	eax
	mov	eax, DWORD PTR _x_count$1$[ebp]
	push	esi
	sub	eax, ecx
	push	eax
	push	edi
	push	DWORD PTR _c$[ebp]
	call	_DoBorrow
	add	esp, 20					; 00000014H
	pop	edi
	pop	esi
	pop	ebx

; 205  : }

	mov	esp, ebp
	pop	ebp
	ret	0
_Subtruct_X_X ENDP
_TEXT	ENDS
; Function compile flags: /Ogtp
; File z:\sources\lunor\repos\rougemeilland\palmtree.math.core.implements\palmtree.math.core.implements\pmc_subtruct.c
; File z:\sources\lunor\repos\rougemeilland\palmtree.math.core.implements\palmtree.math.core.implements\pmc_internal.h
; File z:\sources\lunor\repos\rougemeilland\palmtree.math.core.implements\palmtree.math.core.implements\pmc_subtruct.c
; File z:\sources\lunor\repos\rougemeilland\palmtree.math.core.implements\palmtree.math.core.implements\pmc_internal.h
; File z:\sources\lunor\repos\rougemeilland\palmtree.math.core.implements\palmtree.math.core.implements\pmc_subtruct.c
;	COMDAT _Subtruct_X_2W
_TEXT	SEGMENT
_z_count$1$ = 8						; size = 4
_x$ = 8							; size = 4
_y_hi$ = 12						; size = 4
_y_lo$ = 16						; size = 4
_c$ = 20						; size = 1
_z$ = 20						; size = 4
_Subtruct_X_2W PROC					; COMDAT

; 105  : {

	push	ebp
	mov	ebp, esp

; 106  :     __UNIT_TYPE x_count = x->UNIT_WORD_COUNT;

	mov	ecx, DWORD PTR _x$[ebp]

; 107  :     __UNIT_TYPE z_count = z->BLOCK_COUNT;

	mov	eax, DWORD PTR _z$[ebp]
	push	ebx
	push	esi
	mov	esi, DWORD PTR [ecx]
	mov	edx, DWORD PTR [eax+20]

; 108  :     __UNIT_TYPE* xp = &x->BLOCK[0];
; 109  :     __UNIT_TYPE* zp = &z->BLOCK[0];

	mov	ebx, DWORD PTR [eax+24]
	mov	DWORD PTR _z_count$1$[ebp], edx
	push	edi
	mov	edi, DWORD PTR [ecx+24]

; 110  :     char c;
; 111  : 
; 112  :     if (x_count < 2)

	cmp	esi, 2
	jae	SHORT $LN2@Subtruct_X

; 133  :     }
; 134  : }

	pop	edi
	pop	esi
	mov	eax, -258				; fffffefeH
	pop	ebx
	pop	ebp
	ret	0
$LN2@Subtruct_X:

; 113  :     {
; 114  :         // x が 1 ワードしかなかった場合
; 115  : 
; 116  :         // 明らかに演算結果が負になるのでエラーを通知する。
; 117  :         return (PMC_STATUS_INTERNAL_BORROW);
; 118  :     }
; 119  :     else
; 120  :     {
; 121  :         // x が 2 ワード以上あった場合
; 122  : 
; 123  :         // 最下位のワードの減算をする
; 124  :         c = _SUBTRUCT_UNIT(0, *xp++, y_lo, zp++);

	mov	eax, DWORD PTR [edi]
; File z:\sources\lunor\repos\rougemeilland\palmtree.math.core.implements\palmtree.math.core.implements\pmc_internal.h

; 482  :     return (_subborrow_u32(borrow, u, v, w));

	sub	eax, DWORD PTR _y_lo$[ebp]
	mov	DWORD PTR [ebx], eax
; File z:\sources\lunor\repos\rougemeilland\palmtree.math.core.implements\palmtree.math.core.implements\pmc_subtruct.c

; 127  :         c = _SUBTRUCT_UNIT(c, *xp++, y_hi, zp++);

	mov	ecx, DWORD PTR [edi+4]
; File z:\sources\lunor\repos\rougemeilland\palmtree.math.core.implements\palmtree.math.core.implements\pmc_internal.h

; 482  :     return (_subborrow_u32(borrow, u, v, w));

	setb	dl
	add	dl, 255					; 000000ffH
	sbb	ecx, DWORD PTR _y_hi$[ebp]
	mov	DWORD PTR [ebx+4], ecx
	setb	al
; File z:\sources\lunor\repos\rougemeilland\palmtree.math.core.implements\palmtree.math.core.implements\pmc_subtruct.c

; 127  :         c = _SUBTRUCT_UNIT(c, *xp++, y_hi, zp++);

	mov	BYTE PTR _c$[ebp], al

; 128  :         x_count -= 2;
; 129  :         z_count -= 2;

	mov	eax, DWORD PTR _z_count$1$[ebp]
	add	eax, -2					; fffffffeH

; 130  : 
; 131  :         // 残りの桁の繰り上がりを計算し、復帰する。
; 132  :         return (DoBorrow(c, xp, x_count, zp, z_count));

	push	eax
	lea	eax, DWORD PTR [ebx+8]
	push	eax
	lea	eax, DWORD PTR [esi-2]
	push	eax
	lea	eax, DWORD PTR [edi+8]
	push	eax
	push	DWORD PTR _c$[ebp]
	call	_DoBorrow
	add	esp, 20					; 00000014H
	pop	edi

; 133  :     }
; 134  : }

	pop	esi
	pop	ebx
	pop	ebp
	ret	0
_Subtruct_X_2W ENDP
_TEXT	ENDS
; Function compile flags: /Ogtp
; File z:\sources\lunor\repos\rougemeilland\palmtree.math.core.implements\palmtree.math.core.implements\pmc_subtruct.c
; File z:\sources\lunor\repos\rougemeilland\palmtree.math.core.implements\palmtree.math.core.implements\pmc_internal.h
; File z:\sources\lunor\repos\rougemeilland\palmtree.math.core.implements\palmtree.math.core.implements\pmc_subtruct.c
;	COMDAT _Subtruct_X_1W
_TEXT	SEGMENT
_c$ = 8							; size = 1
_x$ = 8							; size = 4
_y$ = 12						; size = 4
_z$ = 16						; size = 4
_Subtruct_X_1W PROC					; COMDAT

; 85   : {

	push	ebp
	mov	ebp, esp

; 86   :     __UNIT_TYPE x_count = x->UNIT_WORD_COUNT;

	mov	ecx, DWORD PTR _x$[ebp]

; 87   :     __UNIT_TYPE z_count = z->BLOCK_COUNT;

	mov	eax, DWORD PTR _z$[ebp]
	push	ebx
	push	esi
	mov	ebx, DWORD PTR [ecx]
	mov	edx, DWORD PTR [eax+20]

; 88   :     __UNIT_TYPE* xp = &x->BLOCK[0];
; 89   :     __UNIT_TYPE* zp = &z->BLOCK[0];

	mov	esi, DWORD PTR [eax+24]
	push	edi
	mov	edi, DWORD PTR [ecx+24]

; 95   :     c = _SUBTRUCT_UNIT(0, *xp++, y, zp++);

	mov	ecx, DWORD PTR [edi]
; File z:\sources\lunor\repos\rougemeilland\palmtree.math.core.implements\palmtree.math.core.implements\pmc_internal.h

; 482  :     return (_subborrow_u32(borrow, u, v, w));

	sub	ecx, DWORD PTR _y$[ebp]
	mov	DWORD PTR [esi], ecx
	setb	al
; File z:\sources\lunor\repos\rougemeilland\palmtree.math.core.implements\palmtree.math.core.implements\pmc_subtruct.c

; 95   :     c = _SUBTRUCT_UNIT(0, *xp++, y, zp++);

	mov	BYTE PTR _c$[ebp], al

; 96   :     --x_count;
; 97   :     --z_count;

	lea	eax, DWORD PTR [edx-1]

; 98   : 
; 99   :     // 残りの桁の繰上りを行い復帰する。
; 100  :     return (DoBorrow(c, xp, x_count, zp, z_count));

	push	eax
	lea	eax, DWORD PTR [esi+4]
	push	eax
	lea	eax, DWORD PTR [ebx-1]
	push	eax
	lea	eax, DWORD PTR [edi+4]
	push	eax
	push	DWORD PTR _c$[ebp]
	call	_DoBorrow
	add	esp, 20					; 00000014H
	pop	edi
	pop	esi
	pop	ebx

; 101  : }

	pop	ebp
	ret	0
_Subtruct_X_1W ENDP
_TEXT	ENDS
; Function compile flags: /Ogtp
; File z:\sources\lunor\repos\rougemeilland\palmtree.math.core.implements\palmtree.math.core.implements\pmc_subtruct.c
; File z:\sources\lunor\repos\rougemeilland\palmtree.math.core.implements\palmtree.math.core.implements\pmc_internal.h
; File z:\sources\lunor\repos\rougemeilland\palmtree.math.core.implements\palmtree.math.core.implements\pmc_subtruct.c
;	COMDAT _DoBorrow
_TEXT	SEGMENT
_c$ = 8							; size = 1
_xp$ = 12						; size = 4
_x_count$ = 16						; size = 4
_op$ = 20						; size = 4
_o_count$ = 24						; size = 4
_DoBorrow PROC						; COMDAT

; 39   : {

	push	ebp
	mov	ebp, esp

; 40   :     // 桁借りを続く限り行う
; 41   :     for (;;)
; 42   :     {
; 43   :         if (x_count <= 0)

	mov	edx, DWORD PTR _x_count$[ebp]
	push	ebx
	mov	bl, BYTE PTR _c$[ebp]
	push	esi
	test	edx, edx
	je	SHORT $LN17@DoBorrow
	mov	eax, DWORD PTR _op$[ebp]
	mov	esi, DWORD PTR _xp$[ebp]
$LL2@DoBorrow:

; 53   :             }
; 54   : 
; 55   :             // xの最上位に達してしまった場合はいずれにしろループを中断して正常復帰する。
; 56   : 
; 57   :             return (PMC_STATUS_OK);
; 58   :         }
; 59   :         else if (c)

	test	bl, bl
	je	SHORT $LN16@DoBorrow

; 64   :             c = _SUBTRUCT_UNIT(c, *xp++, 0, op++);

	mov	ecx, DWORD PTR [esi]
; File z:\sources\lunor\repos\rougemeilland\palmtree.math.core.implements\palmtree.math.core.implements\pmc_internal.h

; 482  :     return (_subborrow_u32(borrow, u, v, w));

	add	bl, 255					; 000000ffH
	sbb	ecx, 0
	mov	DWORD PTR [eax], ecx
	setb	bl
; File z:\sources\lunor\repos\rougemeilland\palmtree.math.core.implements\palmtree.math.core.implements\pmc_subtruct.c

; 64   :             c = _SUBTRUCT_UNIT(c, *xp++, 0, op++);

	add	esi, 4
	add	eax, 4

; 65   :             --x_count;

	sub	edx, 1
	jne	SHORT $LL2@DoBorrow
$LN17@DoBorrow:

; 44   :         {
; 45   :             // x の最上位まで達してしまった場合
; 46   : 
; 47   :             if (c)

	test	bl, bl
	je	SHORT $LN6@DoBorrow

; 48   :             {
; 49   :                 // かつそれでも桁借りを行う必要がある場合
; 50   : 
; 51   :                 // 減算結果が負になってしまったので呼び出し元に通知する。
; 52   :                 return (PMC_STATUS_INTERNAL_BORROW);

	pop	esi
	mov	eax, -258				; fffffefeH

; 80   :         }
; 81   :     }
; 82   : }

	pop	ebx
	pop	ebp
	ret	0
$LN16@DoBorrow:

; 66   :             --o_count;
; 67   :         }
; 68   :         else
; 69   :         {
; 70   :             // xの最上位に達しておらず、かつボローが立っていない場合
; 71   : 
; 72   :             // 桁借りを中断し、xの残りのデータをzにそのまま複写し、正常復帰する。
; 73   :             while (x_count > 0)

	test	edx, edx
	je	SHORT $LN6@DoBorrow
	sub	esi, eax
$LL5@DoBorrow:

; 74   :             {
; 75   :                 *op++ = *xp++;

	mov	ecx, DWORD PTR [esi+eax]
	lea	eax, DWORD PTR [eax+4]
	mov	DWORD PTR [eax-4], ecx

; 76   :                 --x_count;

	sub	edx, 1
	jne	SHORT $LL5@DoBorrow
$LN6@DoBorrow:
	pop	esi

; 77   :                 --o_count;
; 78   :             }
; 79   :             return (PMC_STATUS_OK);

	xor	eax, eax

; 80   :         }
; 81   :     }
; 82   : }

	pop	ebx
	pop	ebp
	ret	0
_DoBorrow ENDP
_TEXT	ENDS
; Function compile flags: /Ogtp
; File z:\sources\lunor\repos\rougemeilland\palmtree.math.core.implements\palmtree.math.core.implements\autogenerated_inline_func.h
; File z:\sources\lunor\repos\rougemeilland\palmtree.math.core.implements\palmtree.math.core.implements\pmc_internal.h
; File z:\sources\lunor\repos\rougemeilland\palmtree.math.core.implements\palmtree.math.core.implements\autogenerated_inline_func.h
; File z:\sources\lunor\repos\rougemeilland\palmtree.math.core.implements\palmtree.math.core.implements\pmc_internal.h
; File z:\sources\lunor\repos\rougemeilland\palmtree.math.core.implements\palmtree.math.core.implements\autogenerated_inline_func.h
; File z:\sources\lunor\repos\rougemeilland\palmtree.math.core.implements\palmtree.math.core.implements\pmc_internal.h
; File z:\sources\lunor\repos\rougemeilland\palmtree.math.core.implements\palmtree.math.core.implements\autogenerated_inline_func.h
; File z:\sources\lunor\repos\rougemeilland\palmtree.math.core.implements\palmtree.math.core.implements\pmc_internal.h
; File z:\sources\lunor\repos\rougemeilland\palmtree.math.core.implements\palmtree.math.core.implements\autogenerated_inline_func.h
; File z:\sources\lunor\repos\rougemeilland\palmtree.math.core.implements\palmtree.math.core.implements\pmc_internal.h
; File z:\sources\lunor\repos\rougemeilland\palmtree.math.core.implements\palmtree.math.core.implements\autogenerated_inline_func.h
;	COMDAT __SUBTRUCT_2WORDS_SBB
_TEXT	SEGMENT
_c$ = 8							; size = 1
_xp$ = 12						; size = 4
_yp$ = 16						; size = 4
_zp$ = 20						; size = 4
__SUBTRUCT_2WORDS_SBB PROC				; COMDAT

; 4462 : {

	push	ebp
	mov	ebp, esp

; 4464 :     c = _SUBTRUCT_UNIT(c, xp[0], yp[0], &zp[0]);

	mov	edx, DWORD PTR _xp$[ebp]
; File z:\sources\lunor\repos\rougemeilland\palmtree.math.core.implements\palmtree.math.core.implements\pmc_internal.h

; 482  :     return (_subborrow_u32(borrow, u, v, w));

	mov	al, BYTE PTR _c$[ebp]
; File z:\sources\lunor\repos\rougemeilland\palmtree.math.core.implements\palmtree.math.core.implements\autogenerated_inline_func.h

; 4462 : {

	push	esi

; 4464 :     c = _SUBTRUCT_UNIT(c, xp[0], yp[0], &zp[0]);

	mov	esi, DWORD PTR _yp$[ebp]
; File z:\sources\lunor\repos\rougemeilland\palmtree.math.core.implements\palmtree.math.core.implements\pmc_internal.h

; 482  :     return (_subborrow_u32(borrow, u, v, w));

	add	al, 255					; 000000ffH
; File z:\sources\lunor\repos\rougemeilland\palmtree.math.core.implements\palmtree.math.core.implements\autogenerated_inline_func.h

; 4464 :     c = _SUBTRUCT_UNIT(c, xp[0], yp[0], &zp[0]);

	mov	ecx, DWORD PTR [edx]
	push	edi
; File z:\sources\lunor\repos\rougemeilland\palmtree.math.core.implements\palmtree.math.core.implements\pmc_internal.h

; 482  :     return (_subborrow_u32(borrow, u, v, w));

	mov	edi, DWORD PTR _zp$[ebp]
	sbb	ecx, DWORD PTR [esi]
	mov	DWORD PTR [edi], ecx
; File z:\sources\lunor\repos\rougemeilland\palmtree.math.core.implements\palmtree.math.core.implements\autogenerated_inline_func.h

; 4465 :     c = _SUBTRUCT_UNIT(c, xp[1], yp[1], &zp[1]);

	mov	ecx, DWORD PTR [edx+4]
; File z:\sources\lunor\repos\rougemeilland\palmtree.math.core.implements\palmtree.math.core.implements\pmc_internal.h

; 482  :     return (_subborrow_u32(borrow, u, v, w));

	sbb	ecx, DWORD PTR [esi+4]
	mov	DWORD PTR [edi+4], ecx
; File z:\sources\lunor\repos\rougemeilland\palmtree.math.core.implements\palmtree.math.core.implements\autogenerated_inline_func.h

; 4501 :     return (c);

	pop	edi
; File z:\sources\lunor\repos\rougemeilland\palmtree.math.core.implements\palmtree.math.core.implements\pmc_internal.h

; 482  :     return (_subborrow_u32(borrow, u, v, w));

	setb	al
; File z:\sources\lunor\repos\rougemeilland\palmtree.math.core.implements\palmtree.math.core.implements\autogenerated_inline_func.h

; 4501 :     return (c);

	pop	esi

; 4502 : }

	pop	ebp
	ret	0
__SUBTRUCT_2WORDS_SBB ENDP
_TEXT	ENDS
; Function compile flags: /Ogtp
; File z:\sources\lunor\repos\rougemeilland\palmtree.math.core.implements\palmtree.math.core.implements\autogenerated_inline_func.h
; File z:\sources\lunor\repos\rougemeilland\palmtree.math.core.implements\palmtree.math.core.implements\pmc_internal.h
; File z:\sources\lunor\repos\rougemeilland\palmtree.math.core.implements\palmtree.math.core.implements\autogenerated_inline_func.h
; File z:\sources\lunor\repos\rougemeilland\palmtree.math.core.implements\palmtree.math.core.implements\pmc_internal.h
; File z:\sources\lunor\repos\rougemeilland\palmtree.math.core.implements\palmtree.math.core.implements\autogenerated_inline_func.h
; File z:\sources\lunor\repos\rougemeilland\palmtree.math.core.implements\palmtree.math.core.implements\pmc_internal.h
; File z:\sources\lunor\repos\rougemeilland\palmtree.math.core.implements\palmtree.math.core.implements\autogenerated_inline_func.h
; File z:\sources\lunor\repos\rougemeilland\palmtree.math.core.implements\palmtree.math.core.implements\pmc_internal.h
; File z:\sources\lunor\repos\rougemeilland\palmtree.math.core.implements\palmtree.math.core.implements\autogenerated_inline_func.h
; File z:\sources\lunor\repos\rougemeilland\palmtree.math.core.implements\palmtree.math.core.implements\pmc_internal.h
; File z:\sources\lunor\repos\rougemeilland\palmtree.math.core.implements\palmtree.math.core.implements\autogenerated_inline_func.h
; File z:\sources\lunor\repos\rougemeilland\palmtree.math.core.implements\palmtree.math.core.implements\pmc_internal.h
; File z:\sources\lunor\repos\rougemeilland\palmtree.math.core.implements\palmtree.math.core.implements\autogenerated_inline_func.h
; File z:\sources\lunor\repos\rougemeilland\palmtree.math.core.implements\palmtree.math.core.implements\pmc_internal.h
; File z:\sources\lunor\repos\rougemeilland\palmtree.math.core.implements\palmtree.math.core.implements\autogenerated_inline_func.h
;	COMDAT __SUBTRUCT_4WORDS_SBB
_TEXT	SEGMENT
_c$ = 8							; size = 1
_xp$ = 12						; size = 4
_yp$ = 16						; size = 4
_zp$ = 20						; size = 4
__SUBTRUCT_4WORDS_SBB PROC				; COMDAT

; 4048 : {

	push	ebp
	mov	ebp, esp

; 4050 :     c = _SUBTRUCT_UNIT(c, xp[0], yp[0], &zp[0]);

	mov	edx, DWORD PTR _xp$[ebp]
; File z:\sources\lunor\repos\rougemeilland\palmtree.math.core.implements\palmtree.math.core.implements\pmc_internal.h

; 482  :     return (_subborrow_u32(borrow, u, v, w));

	mov	al, BYTE PTR _c$[ebp]
; File z:\sources\lunor\repos\rougemeilland\palmtree.math.core.implements\palmtree.math.core.implements\autogenerated_inline_func.h

; 4048 : {

	push	esi

; 4050 :     c = _SUBTRUCT_UNIT(c, xp[0], yp[0], &zp[0]);

	mov	esi, DWORD PTR _yp$[ebp]
; File z:\sources\lunor\repos\rougemeilland\palmtree.math.core.implements\palmtree.math.core.implements\pmc_internal.h

; 482  :     return (_subborrow_u32(borrow, u, v, w));

	add	al, 255					; 000000ffH
; File z:\sources\lunor\repos\rougemeilland\palmtree.math.core.implements\palmtree.math.core.implements\autogenerated_inline_func.h

; 4050 :     c = _SUBTRUCT_UNIT(c, xp[0], yp[0], &zp[0]);

	mov	ecx, DWORD PTR [edx]
	push	edi
; File z:\sources\lunor\repos\rougemeilland\palmtree.math.core.implements\palmtree.math.core.implements\pmc_internal.h

; 482  :     return (_subborrow_u32(borrow, u, v, w));

	mov	edi, DWORD PTR _zp$[ebp]
	sbb	ecx, DWORD PTR [esi]
	mov	DWORD PTR [edi], ecx
; File z:\sources\lunor\repos\rougemeilland\palmtree.math.core.implements\palmtree.math.core.implements\autogenerated_inline_func.h

; 4051 :     c = _SUBTRUCT_UNIT(c, xp[1], yp[1], &zp[1]);

	mov	eax, DWORD PTR [edx+4]
; File z:\sources\lunor\repos\rougemeilland\palmtree.math.core.implements\palmtree.math.core.implements\pmc_internal.h

; 482  :     return (_subborrow_u32(borrow, u, v, w));

	sbb	eax, DWORD PTR [esi+4]
	mov	DWORD PTR [edi+4], eax
; File z:\sources\lunor\repos\rougemeilland\palmtree.math.core.implements\palmtree.math.core.implements\autogenerated_inline_func.h

; 4052 :     c = _SUBTRUCT_UNIT(c, xp[2], yp[2], &zp[2]);

	mov	eax, DWORD PTR [edx+8]
; File z:\sources\lunor\repos\rougemeilland\palmtree.math.core.implements\palmtree.math.core.implements\pmc_internal.h

; 482  :     return (_subborrow_u32(borrow, u, v, w));

	sbb	eax, DWORD PTR [esi+8]
	mov	DWORD PTR [edi+8], eax
; File z:\sources\lunor\repos\rougemeilland\palmtree.math.core.implements\palmtree.math.core.implements\autogenerated_inline_func.h

; 4053 :     c = _SUBTRUCT_UNIT(c, xp[3], yp[3], &zp[3]);

	mov	ecx, DWORD PTR [edx+12]
; File z:\sources\lunor\repos\rougemeilland\palmtree.math.core.implements\palmtree.math.core.implements\pmc_internal.h

; 482  :     return (_subborrow_u32(borrow, u, v, w));

	sbb	ecx, DWORD PTR [esi+12]
	mov	DWORD PTR [edi+12], ecx
; File z:\sources\lunor\repos\rougemeilland\palmtree.math.core.implements\palmtree.math.core.implements\autogenerated_inline_func.h

; 4101 :     return (c);

	pop	edi
; File z:\sources\lunor\repos\rougemeilland\palmtree.math.core.implements\palmtree.math.core.implements\pmc_internal.h

; 482  :     return (_subborrow_u32(borrow, u, v, w));

	setb	al
; File z:\sources\lunor\repos\rougemeilland\palmtree.math.core.implements\palmtree.math.core.implements\autogenerated_inline_func.h

; 4101 :     return (c);

	pop	esi

; 4102 : }

	pop	ebp
	ret	0
__SUBTRUCT_4WORDS_SBB ENDP
_TEXT	ENDS
; Function compile flags: /Ogtp
; File z:\sources\lunor\repos\rougemeilland\palmtree.math.core.implements\palmtree.math.core.implements\autogenerated_inline_func.h
; File z:\sources\lunor\repos\rougemeilland\palmtree.math.core.implements\palmtree.math.core.implements\pmc_internal.h
; File z:\sources\lunor\repos\rougemeilland\palmtree.math.core.implements\palmtree.math.core.implements\autogenerated_inline_func.h
; File z:\sources\lunor\repos\rougemeilland\palmtree.math.core.implements\palmtree.math.core.implements\pmc_internal.h
; File z:\sources\lunor\repos\rougemeilland\palmtree.math.core.implements\palmtree.math.core.implements\autogenerated_inline_func.h
; File z:\sources\lunor\repos\rougemeilland\palmtree.math.core.implements\palmtree.math.core.implements\pmc_internal.h
; File z:\sources\lunor\repos\rougemeilland\palmtree.math.core.implements\palmtree.math.core.implements\autogenerated_inline_func.h
; File z:\sources\lunor\repos\rougemeilland\palmtree.math.core.implements\palmtree.math.core.implements\pmc_internal.h
; File z:\sources\lunor\repos\rougemeilland\palmtree.math.core.implements\palmtree.math.core.implements\autogenerated_inline_func.h
; File z:\sources\lunor\repos\rougemeilland\palmtree.math.core.implements\palmtree.math.core.implements\pmc_internal.h
; File z:\sources\lunor\repos\rougemeilland\palmtree.math.core.implements\palmtree.math.core.implements\autogenerated_inline_func.h
; File z:\sources\lunor\repos\rougemeilland\palmtree.math.core.implements\palmtree.math.core.implements\pmc_internal.h
; File z:\sources\lunor\repos\rougemeilland\palmtree.math.core.implements\palmtree.math.core.implements\autogenerated_inline_func.h
; File z:\sources\lunor\repos\rougemeilland\palmtree.math.core.implements\palmtree.math.core.implements\pmc_internal.h
; File z:\sources\lunor\repos\rougemeilland\palmtree.math.core.implements\palmtree.math.core.implements\autogenerated_inline_func.h
; File z:\sources\lunor\repos\rougemeilland\palmtree.math.core.implements\palmtree.math.core.implements\pmc_internal.h
; File z:\sources\lunor\repos\rougemeilland\palmtree.math.core.implements\palmtree.math.core.implements\autogenerated_inline_func.h
; File z:\sources\lunor\repos\rougemeilland\palmtree.math.core.implements\palmtree.math.core.implements\pmc_internal.h
; File z:\sources\lunor\repos\rougemeilland\palmtree.math.core.implements\palmtree.math.core.implements\autogenerated_inline_func.h
; File z:\sources\lunor\repos\rougemeilland\palmtree.math.core.implements\palmtree.math.core.implements\pmc_internal.h
; File z:\sources\lunor\repos\rougemeilland\palmtree.math.core.implements\palmtree.math.core.implements\autogenerated_inline_func.h
;	COMDAT __SUBTRUCT_8WORDS_SBB
_TEXT	SEGMENT
_c$ = 8							; size = 1
_xp$ = 12						; size = 4
_yp$ = 16						; size = 4
_zp$ = 20						; size = 4
__SUBTRUCT_8WORDS_SBB PROC				; COMDAT

; 3452 : {

	push	ebp
	mov	ebp, esp

; 3453 : #ifdef _MSC_VER
; 3454 :     c = _SUBTRUCT_UNIT(c, xp[0], yp[0], &zp[0]);

	mov	edx, DWORD PTR _xp$[ebp]
; File z:\sources\lunor\repos\rougemeilland\palmtree.math.core.implements\palmtree.math.core.implements\pmc_internal.h

; 482  :     return (_subborrow_u32(borrow, u, v, w));

	mov	al, BYTE PTR _c$[ebp]
	add	al, 255					; 000000ffH
; File z:\sources\lunor\repos\rougemeilland\palmtree.math.core.implements\palmtree.math.core.implements\autogenerated_inline_func.h

; 3452 : {

	push	esi

; 3453 : #ifdef _MSC_VER
; 3454 :     c = _SUBTRUCT_UNIT(c, xp[0], yp[0], &zp[0]);

	mov	esi, DWORD PTR _yp$[ebp]
	mov	ecx, DWORD PTR [edx]
	push	edi
; File z:\sources\lunor\repos\rougemeilland\palmtree.math.core.implements\palmtree.math.core.implements\pmc_internal.h

; 482  :     return (_subborrow_u32(borrow, u, v, w));

	mov	edi, DWORD PTR _zp$[ebp]
	sbb	ecx, DWORD PTR [esi]
	mov	DWORD PTR [edi], ecx
; File z:\sources\lunor\repos\rougemeilland\palmtree.math.core.implements\palmtree.math.core.implements\autogenerated_inline_func.h

; 3455 :     c = _SUBTRUCT_UNIT(c, xp[1], yp[1], &zp[1]);

	mov	eax, DWORD PTR [edx+4]
; File z:\sources\lunor\repos\rougemeilland\palmtree.math.core.implements\palmtree.math.core.implements\pmc_internal.h

; 482  :     return (_subborrow_u32(borrow, u, v, w));

	sbb	eax, DWORD PTR [esi+4]
	mov	DWORD PTR [edi+4], eax
; File z:\sources\lunor\repos\rougemeilland\palmtree.math.core.implements\palmtree.math.core.implements\autogenerated_inline_func.h

; 3456 :     c = _SUBTRUCT_UNIT(c, xp[2], yp[2], &zp[2]);

	mov	eax, DWORD PTR [edx+8]
; File z:\sources\lunor\repos\rougemeilland\palmtree.math.core.implements\palmtree.math.core.implements\pmc_internal.h

; 482  :     return (_subborrow_u32(borrow, u, v, w));

	sbb	eax, DWORD PTR [esi+8]
	mov	DWORD PTR [edi+8], eax
; File z:\sources\lunor\repos\rougemeilland\palmtree.math.core.implements\palmtree.math.core.implements\autogenerated_inline_func.h

; 3457 :     c = _SUBTRUCT_UNIT(c, xp[3], yp[3], &zp[3]);

	mov	eax, DWORD PTR [edx+12]
; File z:\sources\lunor\repos\rougemeilland\palmtree.math.core.implements\palmtree.math.core.implements\pmc_internal.h

; 482  :     return (_subborrow_u32(borrow, u, v, w));

	sbb	eax, DWORD PTR [esi+12]
	mov	DWORD PTR [edi+12], eax
; File z:\sources\lunor\repos\rougemeilland\palmtree.math.core.implements\palmtree.math.core.implements\autogenerated_inline_func.h

; 3458 :     c = _SUBTRUCT_UNIT(c, xp[4], yp[4], &zp[4]);

	mov	eax, DWORD PTR [edx+16]
; File z:\sources\lunor\repos\rougemeilland\palmtree.math.core.implements\palmtree.math.core.implements\pmc_internal.h

; 482  :     return (_subborrow_u32(borrow, u, v, w));

	sbb	eax, DWORD PTR [esi+16]
	mov	DWORD PTR [edi+16], eax
; File z:\sources\lunor\repos\rougemeilland\palmtree.math.core.implements\palmtree.math.core.implements\autogenerated_inline_func.h

; 3459 :     c = _SUBTRUCT_UNIT(c, xp[5], yp[5], &zp[5]);

	mov	eax, DWORD PTR [edx+20]
; File z:\sources\lunor\repos\rougemeilland\palmtree.math.core.implements\palmtree.math.core.implements\pmc_internal.h

; 482  :     return (_subborrow_u32(borrow, u, v, w));

	sbb	eax, DWORD PTR [esi+20]
	mov	DWORD PTR [edi+20], eax
; File z:\sources\lunor\repos\rougemeilland\palmtree.math.core.implements\palmtree.math.core.implements\autogenerated_inline_func.h

; 3460 :     c = _SUBTRUCT_UNIT(c, xp[6], yp[6], &zp[6]);

	mov	eax, DWORD PTR [edx+24]
; File z:\sources\lunor\repos\rougemeilland\palmtree.math.core.implements\palmtree.math.core.implements\pmc_internal.h

; 482  :     return (_subborrow_u32(borrow, u, v, w));

	sbb	eax, DWORD PTR [esi+24]
	mov	DWORD PTR [edi+24], eax
; File z:\sources\lunor\repos\rougemeilland\palmtree.math.core.implements\palmtree.math.core.implements\autogenerated_inline_func.h

; 3461 :     c = _SUBTRUCT_UNIT(c, xp[7], yp[7], &zp[7]);

	mov	ecx, DWORD PTR [edx+28]
; File z:\sources\lunor\repos\rougemeilland\palmtree.math.core.implements\palmtree.math.core.implements\pmc_internal.h

; 482  :     return (_subborrow_u32(borrow, u, v, w));

	sbb	ecx, DWORD PTR [esi+28]
	mov	DWORD PTR [edi+28], ecx
; File z:\sources\lunor\repos\rougemeilland\palmtree.math.core.implements\palmtree.math.core.implements\autogenerated_inline_func.h

; 3533 :     return (c);

	pop	edi
; File z:\sources\lunor\repos\rougemeilland\palmtree.math.core.implements\palmtree.math.core.implements\pmc_internal.h

; 482  :     return (_subborrow_u32(borrow, u, v, w));

	setb	al
; File z:\sources\lunor\repos\rougemeilland\palmtree.math.core.implements\palmtree.math.core.implements\autogenerated_inline_func.h

; 3533 :     return (c);

	pop	esi

; 3534 : }

	pop	ebp
	ret	0
__SUBTRUCT_8WORDS_SBB ENDP
_TEXT	ENDS
; Function compile flags: /Ogtp
; File z:\sources\lunor\repos\rougemeilland\palmtree.math.core.implements\palmtree.math.core.implements\autogenerated_inline_func.h
; File z:\sources\lunor\repos\rougemeilland\palmtree.math.core.implements\palmtree.math.core.implements\pmc_internal.h
; File z:\sources\lunor\repos\rougemeilland\palmtree.math.core.implements\palmtree.math.core.implements\autogenerated_inline_func.h
; File z:\sources\lunor\repos\rougemeilland\palmtree.math.core.implements\palmtree.math.core.implements\pmc_internal.h
; File z:\sources\lunor\repos\rougemeilland\palmtree.math.core.implements\palmtree.math.core.implements\autogenerated_inline_func.h
; File z:\sources\lunor\repos\rougemeilland\palmtree.math.core.implements\palmtree.math.core.implements\pmc_internal.h
; File z:\sources\lunor\repos\rougemeilland\palmtree.math.core.implements\palmtree.math.core.implements\autogenerated_inline_func.h
; File z:\sources\lunor\repos\rougemeilland\palmtree.math.core.implements\palmtree.math.core.implements\pmc_internal.h
; File z:\sources\lunor\repos\rougemeilland\palmtree.math.core.implements\palmtree.math.core.implements\autogenerated_inline_func.h
; File z:\sources\lunor\repos\rougemeilland\palmtree.math.core.implements\palmtree.math.core.implements\pmc_internal.h
; File z:\sources\lunor\repos\rougemeilland\palmtree.math.core.implements\palmtree.math.core.implements\autogenerated_inline_func.h
; File z:\sources\lunor\repos\rougemeilland\palmtree.math.core.implements\palmtree.math.core.implements\pmc_internal.h
; File z:\sources\lunor\repos\rougemeilland\palmtree.math.core.implements\palmtree.math.core.implements\autogenerated_inline_func.h
; File z:\sources\lunor\repos\rougemeilland\palmtree.math.core.implements\palmtree.math.core.implements\pmc_internal.h
; File z:\sources\lunor\repos\rougemeilland\palmtree.math.core.implements\palmtree.math.core.implements\autogenerated_inline_func.h
; File z:\sources\lunor\repos\rougemeilland\palmtree.math.core.implements\palmtree.math.core.implements\pmc_internal.h
; File z:\sources\lunor\repos\rougemeilland\palmtree.math.core.implements\palmtree.math.core.implements\autogenerated_inline_func.h
; File z:\sources\lunor\repos\rougemeilland\palmtree.math.core.implements\palmtree.math.core.implements\pmc_internal.h
; File z:\sources\lunor\repos\rougemeilland\palmtree.math.core.implements\palmtree.math.core.implements\autogenerated_inline_func.h
; File z:\sources\lunor\repos\rougemeilland\palmtree.math.core.implements\palmtree.math.core.implements\pmc_internal.h
; File z:\sources\lunor\repos\rougemeilland\palmtree.math.core.implements\palmtree.math.core.implements\autogenerated_inline_func.h
; File z:\sources\lunor\repos\rougemeilland\palmtree.math.core.implements\palmtree.math.core.implements\pmc_internal.h
; File z:\sources\lunor\repos\rougemeilland\palmtree.math.core.implements\palmtree.math.core.implements\autogenerated_inline_func.h
; File z:\sources\lunor\repos\rougemeilland\palmtree.math.core.implements\palmtree.math.core.implements\pmc_internal.h
; File z:\sources\lunor\repos\rougemeilland\palmtree.math.core.implements\palmtree.math.core.implements\autogenerated_inline_func.h
; File z:\sources\lunor\repos\rougemeilland\palmtree.math.core.implements\palmtree.math.core.implements\pmc_internal.h
; File z:\sources\lunor\repos\rougemeilland\palmtree.math.core.implements\palmtree.math.core.implements\autogenerated_inline_func.h
; File z:\sources\lunor\repos\rougemeilland\palmtree.math.core.implements\palmtree.math.core.implements\pmc_internal.h
; File z:\sources\lunor\repos\rougemeilland\palmtree.math.core.implements\palmtree.math.core.implements\autogenerated_inline_func.h
; File z:\sources\lunor\repos\rougemeilland\palmtree.math.core.implements\palmtree.math.core.implements\pmc_internal.h
; File z:\sources\lunor\repos\rougemeilland\palmtree.math.core.implements\palmtree.math.core.implements\autogenerated_inline_func.h
; File z:\sources\lunor\repos\rougemeilland\palmtree.math.core.implements\palmtree.math.core.implements\pmc_internal.h
; File z:\sources\lunor\repos\rougemeilland\palmtree.math.core.implements\palmtree.math.core.implements\autogenerated_inline_func.h
; File z:\sources\lunor\repos\rougemeilland\palmtree.math.core.implements\palmtree.math.core.implements\pmc_internal.h
; File z:\sources\lunor\repos\rougemeilland\palmtree.math.core.implements\palmtree.math.core.implements\autogenerated_inline_func.h
; File z:\sources\lunor\repos\rougemeilland\palmtree.math.core.implements\palmtree.math.core.implements\pmc_internal.h
; File z:\sources\lunor\repos\rougemeilland\palmtree.math.core.implements\palmtree.math.core.implements\autogenerated_inline_func.h
;	COMDAT __SUBTRUCT_16WORDS_SBB
_TEXT	SEGMENT
_c$ = 8							; size = 1
_xp$ = 12						; size = 4
_yp$ = 16						; size = 4
_zp$ = 20						; size = 4
__SUBTRUCT_16WORDS_SBB PROC				; COMDAT

; 2492 : {

	push	ebp
	mov	ebp, esp

; 2493 : #ifdef _MSC_VER
; 2494 :     c = _SUBTRUCT_UNIT(c, xp[0], yp[0], &zp[0]);

	mov	edx, DWORD PTR _xp$[ebp]
; File z:\sources\lunor\repos\rougemeilland\palmtree.math.core.implements\palmtree.math.core.implements\pmc_internal.h

; 482  :     return (_subborrow_u32(borrow, u, v, w));

	mov	al, BYTE PTR _c$[ebp]
	add	al, 255					; 000000ffH
; File z:\sources\lunor\repos\rougemeilland\palmtree.math.core.implements\palmtree.math.core.implements\autogenerated_inline_func.h

; 2492 : {

	push	esi

; 2493 : #ifdef _MSC_VER
; 2494 :     c = _SUBTRUCT_UNIT(c, xp[0], yp[0], &zp[0]);

	mov	esi, DWORD PTR _yp$[ebp]
	mov	ecx, DWORD PTR [edx]
	push	edi
; File z:\sources\lunor\repos\rougemeilland\palmtree.math.core.implements\palmtree.math.core.implements\pmc_internal.h

; 482  :     return (_subborrow_u32(borrow, u, v, w));

	mov	edi, DWORD PTR _zp$[ebp]
	sbb	ecx, DWORD PTR [esi]
	mov	DWORD PTR [edi], ecx
; File z:\sources\lunor\repos\rougemeilland\palmtree.math.core.implements\palmtree.math.core.implements\autogenerated_inline_func.h

; 2495 :     c = _SUBTRUCT_UNIT(c, xp[1], yp[1], &zp[1]);

	mov	eax, DWORD PTR [edx+4]
; File z:\sources\lunor\repos\rougemeilland\palmtree.math.core.implements\palmtree.math.core.implements\pmc_internal.h

; 482  :     return (_subborrow_u32(borrow, u, v, w));

	sbb	eax, DWORD PTR [esi+4]
	mov	DWORD PTR [edi+4], eax
; File z:\sources\lunor\repos\rougemeilland\palmtree.math.core.implements\palmtree.math.core.implements\autogenerated_inline_func.h

; 2496 :     c = _SUBTRUCT_UNIT(c, xp[2], yp[2], &zp[2]);

	mov	eax, DWORD PTR [edx+8]
; File z:\sources\lunor\repos\rougemeilland\palmtree.math.core.implements\palmtree.math.core.implements\pmc_internal.h

; 482  :     return (_subborrow_u32(borrow, u, v, w));

	sbb	eax, DWORD PTR [esi+8]
	mov	DWORD PTR [edi+8], eax
; File z:\sources\lunor\repos\rougemeilland\palmtree.math.core.implements\palmtree.math.core.implements\autogenerated_inline_func.h

; 2497 :     c = _SUBTRUCT_UNIT(c, xp[3], yp[3], &zp[3]);

	mov	eax, DWORD PTR [edx+12]
; File z:\sources\lunor\repos\rougemeilland\palmtree.math.core.implements\palmtree.math.core.implements\pmc_internal.h

; 482  :     return (_subborrow_u32(borrow, u, v, w));

	sbb	eax, DWORD PTR [esi+12]
	mov	DWORD PTR [edi+12], eax
; File z:\sources\lunor\repos\rougemeilland\palmtree.math.core.implements\palmtree.math.core.implements\autogenerated_inline_func.h

; 2498 :     c = _SUBTRUCT_UNIT(c, xp[4], yp[4], &zp[4]);

	mov	eax, DWORD PTR [edx+16]
; File z:\sources\lunor\repos\rougemeilland\palmtree.math.core.implements\palmtree.math.core.implements\pmc_internal.h

; 482  :     return (_subborrow_u32(borrow, u, v, w));

	sbb	eax, DWORD PTR [esi+16]
	mov	DWORD PTR [edi+16], eax
; File z:\sources\lunor\repos\rougemeilland\palmtree.math.core.implements\palmtree.math.core.implements\autogenerated_inline_func.h

; 2499 :     c = _SUBTRUCT_UNIT(c, xp[5], yp[5], &zp[5]);

	mov	eax, DWORD PTR [edx+20]
; File z:\sources\lunor\repos\rougemeilland\palmtree.math.core.implements\palmtree.math.core.implements\pmc_internal.h

; 482  :     return (_subborrow_u32(borrow, u, v, w));

	sbb	eax, DWORD PTR [esi+20]
	mov	DWORD PTR [edi+20], eax
; File z:\sources\lunor\repos\rougemeilland\palmtree.math.core.implements\palmtree.math.core.implements\autogenerated_inline_func.h

; 2500 :     c = _SUBTRUCT_UNIT(c, xp[6], yp[6], &zp[6]);

	mov	eax, DWORD PTR [edx+24]
; File z:\sources\lunor\repos\rougemeilland\palmtree.math.core.implements\palmtree.math.core.implements\pmc_internal.h

; 482  :     return (_subborrow_u32(borrow, u, v, w));

	sbb	eax, DWORD PTR [esi+24]
	mov	DWORD PTR [edi+24], eax
; File z:\sources\lunor\repos\rougemeilland\palmtree.math.core.implements\palmtree.math.core.implements\autogenerated_inline_func.h

; 2501 :     c = _SUBTRUCT_UNIT(c, xp[7], yp[7], &zp[7]);

	mov	eax, DWORD PTR [edx+28]
; File z:\sources\lunor\repos\rougemeilland\palmtree.math.core.implements\palmtree.math.core.implements\pmc_internal.h

; 482  :     return (_subborrow_u32(borrow, u, v, w));

	sbb	eax, DWORD PTR [esi+28]
	mov	DWORD PTR [edi+28], eax
; File z:\sources\lunor\repos\rougemeilland\palmtree.math.core.implements\palmtree.math.core.implements\autogenerated_inline_func.h

; 2502 :     c = _SUBTRUCT_UNIT(c, xp[8], yp[8], &zp[8]);

	mov	eax, DWORD PTR [edx+32]
; File z:\sources\lunor\repos\rougemeilland\palmtree.math.core.implements\palmtree.math.core.implements\pmc_internal.h

; 482  :     return (_subborrow_u32(borrow, u, v, w));

	sbb	eax, DWORD PTR [esi+32]
	mov	DWORD PTR [edi+32], eax
; File z:\sources\lunor\repos\rougemeilland\palmtree.math.core.implements\palmtree.math.core.implements\autogenerated_inline_func.h

; 2503 :     c = _SUBTRUCT_UNIT(c, xp[9], yp[9], &zp[9]);

	mov	eax, DWORD PTR [edx+36]
; File z:\sources\lunor\repos\rougemeilland\palmtree.math.core.implements\palmtree.math.core.implements\pmc_internal.h

; 482  :     return (_subborrow_u32(borrow, u, v, w));

	sbb	eax, DWORD PTR [esi+36]
	mov	DWORD PTR [edi+36], eax
; File z:\sources\lunor\repos\rougemeilland\palmtree.math.core.implements\palmtree.math.core.implements\autogenerated_inline_func.h

; 2504 :     c = _SUBTRUCT_UNIT(c, xp[10], yp[10], &zp[10]);

	mov	eax, DWORD PTR [edx+40]
; File z:\sources\lunor\repos\rougemeilland\palmtree.math.core.implements\palmtree.math.core.implements\pmc_internal.h

; 482  :     return (_subborrow_u32(borrow, u, v, w));

	sbb	eax, DWORD PTR [esi+40]
	mov	DWORD PTR [edi+40], eax
; File z:\sources\lunor\repos\rougemeilland\palmtree.math.core.implements\palmtree.math.core.implements\autogenerated_inline_func.h

; 2505 :     c = _SUBTRUCT_UNIT(c, xp[11], yp[11], &zp[11]);

	mov	eax, DWORD PTR [edx+44]
; File z:\sources\lunor\repos\rougemeilland\palmtree.math.core.implements\palmtree.math.core.implements\pmc_internal.h

; 482  :     return (_subborrow_u32(borrow, u, v, w));

	sbb	eax, DWORD PTR [esi+44]
	mov	DWORD PTR [edi+44], eax
; File z:\sources\lunor\repos\rougemeilland\palmtree.math.core.implements\palmtree.math.core.implements\autogenerated_inline_func.h

; 2506 :     c = _SUBTRUCT_UNIT(c, xp[12], yp[12], &zp[12]);

	mov	eax, DWORD PTR [edx+48]
; File z:\sources\lunor\repos\rougemeilland\palmtree.math.core.implements\palmtree.math.core.implements\pmc_internal.h

; 482  :     return (_subborrow_u32(borrow, u, v, w));

	sbb	eax, DWORD PTR [esi+48]
	mov	DWORD PTR [edi+48], eax
; File z:\sources\lunor\repos\rougemeilland\palmtree.math.core.implements\palmtree.math.core.implements\autogenerated_inline_func.h

; 2507 :     c = _SUBTRUCT_UNIT(c, xp[13], yp[13], &zp[13]);

	mov	eax, DWORD PTR [edx+52]
; File z:\sources\lunor\repos\rougemeilland\palmtree.math.core.implements\palmtree.math.core.implements\pmc_internal.h

; 482  :     return (_subborrow_u32(borrow, u, v, w));

	sbb	eax, DWORD PTR [esi+52]
	mov	DWORD PTR [edi+52], eax
; File z:\sources\lunor\repos\rougemeilland\palmtree.math.core.implements\palmtree.math.core.implements\autogenerated_inline_func.h

; 2508 :     c = _SUBTRUCT_UNIT(c, xp[14], yp[14], &zp[14]);

	mov	eax, DWORD PTR [edx+56]
; File z:\sources\lunor\repos\rougemeilland\palmtree.math.core.implements\palmtree.math.core.implements\pmc_internal.h

; 482  :     return (_subborrow_u32(borrow, u, v, w));

	sbb	eax, DWORD PTR [esi+56]
	mov	DWORD PTR [edi+56], eax
; File z:\sources\lunor\repos\rougemeilland\palmtree.math.core.implements\palmtree.math.core.implements\autogenerated_inline_func.h

; 2509 :     c = _SUBTRUCT_UNIT(c, xp[15], yp[15], &zp[15]);

	mov	ecx, DWORD PTR [edx+60]
; File z:\sources\lunor\repos\rougemeilland\palmtree.math.core.implements\palmtree.math.core.implements\pmc_internal.h

; 482  :     return (_subborrow_u32(borrow, u, v, w));

	sbb	ecx, DWORD PTR [esi+60]
	mov	DWORD PTR [edi+60], ecx
; File z:\sources\lunor\repos\rougemeilland\palmtree.math.core.implements\palmtree.math.core.implements\autogenerated_inline_func.h

; 2629 :     return (c);

	pop	edi
; File z:\sources\lunor\repos\rougemeilland\palmtree.math.core.implements\palmtree.math.core.implements\pmc_internal.h

; 482  :     return (_subborrow_u32(borrow, u, v, w));

	setb	al
; File z:\sources\lunor\repos\rougemeilland\palmtree.math.core.implements\palmtree.math.core.implements\autogenerated_inline_func.h

; 2629 :     return (c);

	pop	esi

; 2630 : }

	pop	ebp
	ret	0
__SUBTRUCT_16WORDS_SBB ENDP
_TEXT	ENDS
; Function compile flags: /Ogtp
; File z:\sources\lunor\repos\rougemeilland\palmtree.math.core.implements\palmtree.math.core.implements\autogenerated_inline_func.h
; File z:\sources\lunor\repos\rougemeilland\palmtree.math.core.implements\palmtree.math.core.implements\pmc_internal.h
; File z:\sources\lunor\repos\rougemeilland\palmtree.math.core.implements\palmtree.math.core.implements\autogenerated_inline_func.h
; File z:\sources\lunor\repos\rougemeilland\palmtree.math.core.implements\palmtree.math.core.implements\pmc_internal.h
; File z:\sources\lunor\repos\rougemeilland\palmtree.math.core.implements\palmtree.math.core.implements\autogenerated_inline_func.h
; File z:\sources\lunor\repos\rougemeilland\palmtree.math.core.implements\palmtree.math.core.implements\pmc_internal.h
; File z:\sources\lunor\repos\rougemeilland\palmtree.math.core.implements\palmtree.math.core.implements\autogenerated_inline_func.h
; File z:\sources\lunor\repos\rougemeilland\palmtree.math.core.implements\palmtree.math.core.implements\pmc_internal.h
; File z:\sources\lunor\repos\rougemeilland\palmtree.math.core.implements\palmtree.math.core.implements\autogenerated_inline_func.h
; File z:\sources\lunor\repos\rougemeilland\palmtree.math.core.implements\palmtree.math.core.implements\pmc_internal.h
; File z:\sources\lunor\repos\rougemeilland\palmtree.math.core.implements\palmtree.math.core.implements\autogenerated_inline_func.h
; File z:\sources\lunor\repos\rougemeilland\palmtree.math.core.implements\palmtree.math.core.implements\pmc_internal.h
; File z:\sources\lunor\repos\rougemeilland\palmtree.math.core.implements\palmtree.math.core.implements\autogenerated_inline_func.h
; File z:\sources\lunor\repos\rougemeilland\palmtree.math.core.implements\palmtree.math.core.implements\pmc_internal.h
; File z:\sources\lunor\repos\rougemeilland\palmtree.math.core.implements\palmtree.math.core.implements\autogenerated_inline_func.h
; File z:\sources\lunor\repos\rougemeilland\palmtree.math.core.implements\palmtree.math.core.implements\pmc_internal.h
; File z:\sources\lunor\repos\rougemeilland\palmtree.math.core.implements\palmtree.math.core.implements\autogenerated_inline_func.h
; File z:\sources\lunor\repos\rougemeilland\palmtree.math.core.implements\palmtree.math.core.implements\pmc_internal.h
; File z:\sources\lunor\repos\rougemeilland\palmtree.math.core.implements\palmtree.math.core.implements\autogenerated_inline_func.h
; File z:\sources\lunor\repos\rougemeilland\palmtree.math.core.implements\palmtree.math.core.implements\pmc_internal.h
; File z:\sources\lunor\repos\rougemeilland\palmtree.math.core.implements\palmtree.math.core.implements\autogenerated_inline_func.h
; File z:\sources\lunor\repos\rougemeilland\palmtree.math.core.implements\palmtree.math.core.implements\pmc_internal.h
; File z:\sources\lunor\repos\rougemeilland\palmtree.math.core.implements\palmtree.math.core.implements\autogenerated_inline_func.h
; File z:\sources\lunor\repos\rougemeilland\palmtree.math.core.implements\palmtree.math.core.implements\pmc_internal.h
; File z:\sources\lunor\repos\rougemeilland\palmtree.math.core.implements\palmtree.math.core.implements\autogenerated_inline_func.h
; File z:\sources\lunor\repos\rougemeilland\palmtree.math.core.implements\palmtree.math.core.implements\pmc_internal.h
; File z:\sources\lunor\repos\rougemeilland\palmtree.math.core.implements\palmtree.math.core.implements\autogenerated_inline_func.h
; File z:\sources\lunor\repos\rougemeilland\palmtree.math.core.implements\palmtree.math.core.implements\pmc_internal.h
; File z:\sources\lunor\repos\rougemeilland\palmtree.math.core.implements\palmtree.math.core.implements\autogenerated_inline_func.h
; File z:\sources\lunor\repos\rougemeilland\palmtree.math.core.implements\palmtree.math.core.implements\pmc_internal.h
; File z:\sources\lunor\repos\rougemeilland\palmtree.math.core.implements\palmtree.math.core.implements\autogenerated_inline_func.h
; File z:\sources\lunor\repos\rougemeilland\palmtree.math.core.implements\palmtree.math.core.implements\pmc_internal.h
; File z:\sources\lunor\repos\rougemeilland\palmtree.math.core.implements\palmtree.math.core.implements\autogenerated_inline_func.h
; File z:\sources\lunor\repos\rougemeilland\palmtree.math.core.implements\palmtree.math.core.implements\pmc_internal.h
; File z:\sources\lunor\repos\rougemeilland\palmtree.math.core.implements\palmtree.math.core.implements\autogenerated_inline_func.h
; File z:\sources\lunor\repos\rougemeilland\palmtree.math.core.implements\palmtree.math.core.implements\pmc_internal.h
; File z:\sources\lunor\repos\rougemeilland\palmtree.math.core.implements\palmtree.math.core.implements\autogenerated_inline_func.h
; File z:\sources\lunor\repos\rougemeilland\palmtree.math.core.implements\palmtree.math.core.implements\pmc_internal.h
; File z:\sources\lunor\repos\rougemeilland\palmtree.math.core.implements\palmtree.math.core.implements\autogenerated_inline_func.h
; File z:\sources\lunor\repos\rougemeilland\palmtree.math.core.implements\palmtree.math.core.implements\pmc_internal.h
; File z:\sources\lunor\repos\rougemeilland\palmtree.math.core.implements\palmtree.math.core.implements\autogenerated_inline_func.h
; File z:\sources\lunor\repos\rougemeilland\palmtree.math.core.implements\palmtree.math.core.implements\pmc_internal.h
; File z:\sources\lunor\repos\rougemeilland\palmtree.math.core.implements\palmtree.math.core.implements\autogenerated_inline_func.h
; File z:\sources\lunor\repos\rougemeilland\palmtree.math.core.implements\palmtree.math.core.implements\pmc_internal.h
; File z:\sources\lunor\repos\rougemeilland\palmtree.math.core.implements\palmtree.math.core.implements\autogenerated_inline_func.h
; File z:\sources\lunor\repos\rougemeilland\palmtree.math.core.implements\palmtree.math.core.implements\pmc_internal.h
; File z:\sources\lunor\repos\rougemeilland\palmtree.math.core.implements\palmtree.math.core.implements\autogenerated_inline_func.h
; File z:\sources\lunor\repos\rougemeilland\palmtree.math.core.implements\palmtree.math.core.implements\pmc_internal.h
; File z:\sources\lunor\repos\rougemeilland\palmtree.math.core.implements\palmtree.math.core.implements\autogenerated_inline_func.h
; File z:\sources\lunor\repos\rougemeilland\palmtree.math.core.implements\palmtree.math.core.implements\pmc_internal.h
; File z:\sources\lunor\repos\rougemeilland\palmtree.math.core.implements\palmtree.math.core.implements\autogenerated_inline_func.h
; File z:\sources\lunor\repos\rougemeilland\palmtree.math.core.implements\palmtree.math.core.implements\pmc_internal.h
; File z:\sources\lunor\repos\rougemeilland\palmtree.math.core.implements\palmtree.math.core.implements\autogenerated_inline_func.h
; File z:\sources\lunor\repos\rougemeilland\palmtree.math.core.implements\palmtree.math.core.implements\pmc_internal.h
; File z:\sources\lunor\repos\rougemeilland\palmtree.math.core.implements\palmtree.math.core.implements\autogenerated_inline_func.h
; File z:\sources\lunor\repos\rougemeilland\palmtree.math.core.implements\palmtree.math.core.implements\pmc_internal.h
; File z:\sources\lunor\repos\rougemeilland\palmtree.math.core.implements\palmtree.math.core.implements\autogenerated_inline_func.h
; File z:\sources\lunor\repos\rougemeilland\palmtree.math.core.implements\palmtree.math.core.implements\pmc_internal.h
; File z:\sources\lunor\repos\rougemeilland\palmtree.math.core.implements\palmtree.math.core.implements\autogenerated_inline_func.h
; File z:\sources\lunor\repos\rougemeilland\palmtree.math.core.implements\palmtree.math.core.implements\pmc_internal.h
; File z:\sources\lunor\repos\rougemeilland\palmtree.math.core.implements\palmtree.math.core.implements\autogenerated_inline_func.h
; File z:\sources\lunor\repos\rougemeilland\palmtree.math.core.implements\palmtree.math.core.implements\pmc_internal.h
; File z:\sources\lunor\repos\rougemeilland\palmtree.math.core.implements\palmtree.math.core.implements\autogenerated_inline_func.h
; File z:\sources\lunor\repos\rougemeilland\palmtree.math.core.implements\palmtree.math.core.implements\pmc_internal.h
; File z:\sources\lunor\repos\rougemeilland\palmtree.math.core.implements\palmtree.math.core.implements\autogenerated_inline_func.h
; File z:\sources\lunor\repos\rougemeilland\palmtree.math.core.implements\palmtree.math.core.implements\pmc_internal.h
; File z:\sources\lunor\repos\rougemeilland\palmtree.math.core.implements\palmtree.math.core.implements\autogenerated_inline_func.h
; File z:\sources\lunor\repos\rougemeilland\palmtree.math.core.implements\palmtree.math.core.implements\pmc_internal.h
; File z:\sources\lunor\repos\rougemeilland\palmtree.math.core.implements\palmtree.math.core.implements\autogenerated_inline_func.h
;	COMDAT __SUBTRUCT_32WORDS_SBB
_TEXT	SEGMENT
_c$ = 8							; size = 1
_xp$ = 12						; size = 4
_yp$ = 16						; size = 4
_zp$ = 20						; size = 4
__SUBTRUCT_32WORDS_SBB PROC				; COMDAT

; 804  : {

	push	ebp
	mov	ebp, esp

; 805  : #ifdef _MSC_VER
; 806  :     c = _SUBTRUCT_UNIT(c, xp[0], yp[0], &zp[0]);

	mov	edx, DWORD PTR _xp$[ebp]
; File z:\sources\lunor\repos\rougemeilland\palmtree.math.core.implements\palmtree.math.core.implements\pmc_internal.h

; 482  :     return (_subborrow_u32(borrow, u, v, w));

	mov	al, BYTE PTR _c$[ebp]
	add	al, 255					; 000000ffH
; File z:\sources\lunor\repos\rougemeilland\palmtree.math.core.implements\palmtree.math.core.implements\autogenerated_inline_func.h

; 804  : {

	push	esi

; 805  : #ifdef _MSC_VER
; 806  :     c = _SUBTRUCT_UNIT(c, xp[0], yp[0], &zp[0]);

	mov	esi, DWORD PTR _yp$[ebp]
	mov	ecx, DWORD PTR [edx]
	push	edi
; File z:\sources\lunor\repos\rougemeilland\palmtree.math.core.implements\palmtree.math.core.implements\pmc_internal.h

; 482  :     return (_subborrow_u32(borrow, u, v, w));

	mov	edi, DWORD PTR _zp$[ebp]
	sbb	ecx, DWORD PTR [esi]
	mov	DWORD PTR [edi], ecx
; File z:\sources\lunor\repos\rougemeilland\palmtree.math.core.implements\palmtree.math.core.implements\autogenerated_inline_func.h

; 807  :     c = _SUBTRUCT_UNIT(c, xp[1], yp[1], &zp[1]);

	mov	eax, DWORD PTR [edx+4]
; File z:\sources\lunor\repos\rougemeilland\palmtree.math.core.implements\palmtree.math.core.implements\pmc_internal.h

; 482  :     return (_subborrow_u32(borrow, u, v, w));

	sbb	eax, DWORD PTR [esi+4]
	mov	DWORD PTR [edi+4], eax
; File z:\sources\lunor\repos\rougemeilland\palmtree.math.core.implements\palmtree.math.core.implements\autogenerated_inline_func.h

; 808  :     c = _SUBTRUCT_UNIT(c, xp[2], yp[2], &zp[2]);

	mov	eax, DWORD PTR [edx+8]
; File z:\sources\lunor\repos\rougemeilland\palmtree.math.core.implements\palmtree.math.core.implements\pmc_internal.h

; 482  :     return (_subborrow_u32(borrow, u, v, w));

	sbb	eax, DWORD PTR [esi+8]
	mov	DWORD PTR [edi+8], eax
; File z:\sources\lunor\repos\rougemeilland\palmtree.math.core.implements\palmtree.math.core.implements\autogenerated_inline_func.h

; 809  :     c = _SUBTRUCT_UNIT(c, xp[3], yp[3], &zp[3]);

	mov	eax, DWORD PTR [edx+12]
; File z:\sources\lunor\repos\rougemeilland\palmtree.math.core.implements\palmtree.math.core.implements\pmc_internal.h

; 482  :     return (_subborrow_u32(borrow, u, v, w));

	sbb	eax, DWORD PTR [esi+12]
	mov	DWORD PTR [edi+12], eax
; File z:\sources\lunor\repos\rougemeilland\palmtree.math.core.implements\palmtree.math.core.implements\autogenerated_inline_func.h

; 810  :     c = _SUBTRUCT_UNIT(c, xp[4], yp[4], &zp[4]);

	mov	eax, DWORD PTR [edx+16]
; File z:\sources\lunor\repos\rougemeilland\palmtree.math.core.implements\palmtree.math.core.implements\pmc_internal.h

; 482  :     return (_subborrow_u32(borrow, u, v, w));

	sbb	eax, DWORD PTR [esi+16]
	mov	DWORD PTR [edi+16], eax
; File z:\sources\lunor\repos\rougemeilland\palmtree.math.core.implements\palmtree.math.core.implements\autogenerated_inline_func.h

; 811  :     c = _SUBTRUCT_UNIT(c, xp[5], yp[5], &zp[5]);

	mov	eax, DWORD PTR [edx+20]
; File z:\sources\lunor\repos\rougemeilland\palmtree.math.core.implements\palmtree.math.core.implements\pmc_internal.h

; 482  :     return (_subborrow_u32(borrow, u, v, w));

	sbb	eax, DWORD PTR [esi+20]
	mov	DWORD PTR [edi+20], eax
; File z:\sources\lunor\repos\rougemeilland\palmtree.math.core.implements\palmtree.math.core.implements\autogenerated_inline_func.h

; 812  :     c = _SUBTRUCT_UNIT(c, xp[6], yp[6], &zp[6]);

	mov	eax, DWORD PTR [edx+24]
; File z:\sources\lunor\repos\rougemeilland\palmtree.math.core.implements\palmtree.math.core.implements\pmc_internal.h

; 482  :     return (_subborrow_u32(borrow, u, v, w));

	sbb	eax, DWORD PTR [esi+24]
	mov	DWORD PTR [edi+24], eax
; File z:\sources\lunor\repos\rougemeilland\palmtree.math.core.implements\palmtree.math.core.implements\autogenerated_inline_func.h

; 813  :     c = _SUBTRUCT_UNIT(c, xp[7], yp[7], &zp[7]);

	mov	eax, DWORD PTR [edx+28]
; File z:\sources\lunor\repos\rougemeilland\palmtree.math.core.implements\palmtree.math.core.implements\pmc_internal.h

; 482  :     return (_subborrow_u32(borrow, u, v, w));

	sbb	eax, DWORD PTR [esi+28]
	mov	DWORD PTR [edi+28], eax
; File z:\sources\lunor\repos\rougemeilland\palmtree.math.core.implements\palmtree.math.core.implements\autogenerated_inline_func.h

; 814  :     c = _SUBTRUCT_UNIT(c, xp[8], yp[8], &zp[8]);

	mov	eax, DWORD PTR [edx+32]
; File z:\sources\lunor\repos\rougemeilland\palmtree.math.core.implements\palmtree.math.core.implements\pmc_internal.h

; 482  :     return (_subborrow_u32(borrow, u, v, w));

	sbb	eax, DWORD PTR [esi+32]
	mov	DWORD PTR [edi+32], eax
; File z:\sources\lunor\repos\rougemeilland\palmtree.math.core.implements\palmtree.math.core.implements\autogenerated_inline_func.h

; 815  :     c = _SUBTRUCT_UNIT(c, xp[9], yp[9], &zp[9]);

	mov	eax, DWORD PTR [edx+36]
; File z:\sources\lunor\repos\rougemeilland\palmtree.math.core.implements\palmtree.math.core.implements\pmc_internal.h

; 482  :     return (_subborrow_u32(borrow, u, v, w));

	sbb	eax, DWORD PTR [esi+36]
	mov	DWORD PTR [edi+36], eax
; File z:\sources\lunor\repos\rougemeilland\palmtree.math.core.implements\palmtree.math.core.implements\autogenerated_inline_func.h

; 816  :     c = _SUBTRUCT_UNIT(c, xp[10], yp[10], &zp[10]);

	mov	eax, DWORD PTR [edx+40]
; File z:\sources\lunor\repos\rougemeilland\palmtree.math.core.implements\palmtree.math.core.implements\pmc_internal.h

; 482  :     return (_subborrow_u32(borrow, u, v, w));

	sbb	eax, DWORD PTR [esi+40]
	mov	DWORD PTR [edi+40], eax
; File z:\sources\lunor\repos\rougemeilland\palmtree.math.core.implements\palmtree.math.core.implements\autogenerated_inline_func.h

; 817  :     c = _SUBTRUCT_UNIT(c, xp[11], yp[11], &zp[11]);

	mov	eax, DWORD PTR [edx+44]
; File z:\sources\lunor\repos\rougemeilland\palmtree.math.core.implements\palmtree.math.core.implements\pmc_internal.h

; 482  :     return (_subborrow_u32(borrow, u, v, w));

	sbb	eax, DWORD PTR [esi+44]
	mov	DWORD PTR [edi+44], eax
; File z:\sources\lunor\repos\rougemeilland\palmtree.math.core.implements\palmtree.math.core.implements\autogenerated_inline_func.h

; 818  :     c = _SUBTRUCT_UNIT(c, xp[12], yp[12], &zp[12]);

	mov	eax, DWORD PTR [edx+48]
; File z:\sources\lunor\repos\rougemeilland\palmtree.math.core.implements\palmtree.math.core.implements\pmc_internal.h

; 482  :     return (_subborrow_u32(borrow, u, v, w));

	sbb	eax, DWORD PTR [esi+48]
	mov	DWORD PTR [edi+48], eax
; File z:\sources\lunor\repos\rougemeilland\palmtree.math.core.implements\palmtree.math.core.implements\autogenerated_inline_func.h

; 819  :     c = _SUBTRUCT_UNIT(c, xp[13], yp[13], &zp[13]);

	mov	eax, DWORD PTR [edx+52]
; File z:\sources\lunor\repos\rougemeilland\palmtree.math.core.implements\palmtree.math.core.implements\pmc_internal.h

; 482  :     return (_subborrow_u32(borrow, u, v, w));

	sbb	eax, DWORD PTR [esi+52]
	mov	DWORD PTR [edi+52], eax
; File z:\sources\lunor\repos\rougemeilland\palmtree.math.core.implements\palmtree.math.core.implements\autogenerated_inline_func.h

; 820  :     c = _SUBTRUCT_UNIT(c, xp[14], yp[14], &zp[14]);

	mov	eax, DWORD PTR [edx+56]
; File z:\sources\lunor\repos\rougemeilland\palmtree.math.core.implements\palmtree.math.core.implements\pmc_internal.h

; 482  :     return (_subborrow_u32(borrow, u, v, w));

	sbb	eax, DWORD PTR [esi+56]
	mov	DWORD PTR [edi+56], eax
; File z:\sources\lunor\repos\rougemeilland\palmtree.math.core.implements\palmtree.math.core.implements\autogenerated_inline_func.h

; 821  :     c = _SUBTRUCT_UNIT(c, xp[15], yp[15], &zp[15]);

	mov	eax, DWORD PTR [edx+60]
; File z:\sources\lunor\repos\rougemeilland\palmtree.math.core.implements\palmtree.math.core.implements\pmc_internal.h

; 482  :     return (_subborrow_u32(borrow, u, v, w));

	sbb	eax, DWORD PTR [esi+60]
	mov	DWORD PTR [edi+60], eax
; File z:\sources\lunor\repos\rougemeilland\palmtree.math.core.implements\palmtree.math.core.implements\autogenerated_inline_func.h

; 822  :     c = _SUBTRUCT_UNIT(c, xp[16], yp[16], &zp[16]);

	mov	eax, DWORD PTR [edx+64]
; File z:\sources\lunor\repos\rougemeilland\palmtree.math.core.implements\palmtree.math.core.implements\pmc_internal.h

; 482  :     return (_subborrow_u32(borrow, u, v, w));

	sbb	eax, DWORD PTR [esi+64]
	mov	DWORD PTR [edi+64], eax
; File z:\sources\lunor\repos\rougemeilland\palmtree.math.core.implements\palmtree.math.core.implements\autogenerated_inline_func.h

; 823  :     c = _SUBTRUCT_UNIT(c, xp[17], yp[17], &zp[17]);

	mov	eax, DWORD PTR [edx+68]
; File z:\sources\lunor\repos\rougemeilland\palmtree.math.core.implements\palmtree.math.core.implements\pmc_internal.h

; 482  :     return (_subborrow_u32(borrow, u, v, w));

	sbb	eax, DWORD PTR [esi+68]
	mov	DWORD PTR [edi+68], eax
; File z:\sources\lunor\repos\rougemeilland\palmtree.math.core.implements\palmtree.math.core.implements\autogenerated_inline_func.h

; 824  :     c = _SUBTRUCT_UNIT(c, xp[18], yp[18], &zp[18]);

	mov	eax, DWORD PTR [edx+72]
; File z:\sources\lunor\repos\rougemeilland\palmtree.math.core.implements\palmtree.math.core.implements\pmc_internal.h

; 482  :     return (_subborrow_u32(borrow, u, v, w));

	sbb	eax, DWORD PTR [esi+72]
	mov	DWORD PTR [edi+72], eax
; File z:\sources\lunor\repos\rougemeilland\palmtree.math.core.implements\palmtree.math.core.implements\autogenerated_inline_func.h

; 825  :     c = _SUBTRUCT_UNIT(c, xp[19], yp[19], &zp[19]);

	mov	eax, DWORD PTR [edx+76]
; File z:\sources\lunor\repos\rougemeilland\palmtree.math.core.implements\palmtree.math.core.implements\pmc_internal.h

; 482  :     return (_subborrow_u32(borrow, u, v, w));

	sbb	eax, DWORD PTR [esi+76]
	mov	DWORD PTR [edi+76], eax
; File z:\sources\lunor\repos\rougemeilland\palmtree.math.core.implements\palmtree.math.core.implements\autogenerated_inline_func.h

; 826  :     c = _SUBTRUCT_UNIT(c, xp[20], yp[20], &zp[20]);

	mov	eax, DWORD PTR [edx+80]
; File z:\sources\lunor\repos\rougemeilland\palmtree.math.core.implements\palmtree.math.core.implements\pmc_internal.h

; 482  :     return (_subborrow_u32(borrow, u, v, w));

	sbb	eax, DWORD PTR [esi+80]
	mov	DWORD PTR [edi+80], eax
; File z:\sources\lunor\repos\rougemeilland\palmtree.math.core.implements\palmtree.math.core.implements\autogenerated_inline_func.h

; 827  :     c = _SUBTRUCT_UNIT(c, xp[21], yp[21], &zp[21]);

	mov	eax, DWORD PTR [edx+84]
; File z:\sources\lunor\repos\rougemeilland\palmtree.math.core.implements\palmtree.math.core.implements\pmc_internal.h

; 482  :     return (_subborrow_u32(borrow, u, v, w));

	sbb	eax, DWORD PTR [esi+84]
	mov	DWORD PTR [edi+84], eax
; File z:\sources\lunor\repos\rougemeilland\palmtree.math.core.implements\palmtree.math.core.implements\autogenerated_inline_func.h

; 828  :     c = _SUBTRUCT_UNIT(c, xp[22], yp[22], &zp[22]);

	mov	eax, DWORD PTR [edx+88]
; File z:\sources\lunor\repos\rougemeilland\palmtree.math.core.implements\palmtree.math.core.implements\pmc_internal.h

; 482  :     return (_subborrow_u32(borrow, u, v, w));

	sbb	eax, DWORD PTR [esi+88]
	mov	DWORD PTR [edi+88], eax
; File z:\sources\lunor\repos\rougemeilland\palmtree.math.core.implements\palmtree.math.core.implements\autogenerated_inline_func.h

; 829  :     c = _SUBTRUCT_UNIT(c, xp[23], yp[23], &zp[23]);

	mov	eax, DWORD PTR [edx+92]
; File z:\sources\lunor\repos\rougemeilland\palmtree.math.core.implements\palmtree.math.core.implements\pmc_internal.h

; 482  :     return (_subborrow_u32(borrow, u, v, w));

	sbb	eax, DWORD PTR [esi+92]
	mov	DWORD PTR [edi+92], eax
; File z:\sources\lunor\repos\rougemeilland\palmtree.math.core.implements\palmtree.math.core.implements\autogenerated_inline_func.h

; 830  :     c = _SUBTRUCT_UNIT(c, xp[24], yp[24], &zp[24]);

	mov	eax, DWORD PTR [edx+96]
; File z:\sources\lunor\repos\rougemeilland\palmtree.math.core.implements\palmtree.math.core.implements\pmc_internal.h

; 482  :     return (_subborrow_u32(borrow, u, v, w));

	sbb	eax, DWORD PTR [esi+96]
	mov	DWORD PTR [edi+96], eax
; File z:\sources\lunor\repos\rougemeilland\palmtree.math.core.implements\palmtree.math.core.implements\autogenerated_inline_func.h

; 831  :     c = _SUBTRUCT_UNIT(c, xp[25], yp[25], &zp[25]);

	mov	eax, DWORD PTR [edx+100]
; File z:\sources\lunor\repos\rougemeilland\palmtree.math.core.implements\palmtree.math.core.implements\pmc_internal.h

; 482  :     return (_subborrow_u32(borrow, u, v, w));

	sbb	eax, DWORD PTR [esi+100]
	mov	DWORD PTR [edi+100], eax
; File z:\sources\lunor\repos\rougemeilland\palmtree.math.core.implements\palmtree.math.core.implements\autogenerated_inline_func.h

; 832  :     c = _SUBTRUCT_UNIT(c, xp[26], yp[26], &zp[26]);

	mov	eax, DWORD PTR [edx+104]
; File z:\sources\lunor\repos\rougemeilland\palmtree.math.core.implements\palmtree.math.core.implements\pmc_internal.h

; 482  :     return (_subborrow_u32(borrow, u, v, w));

	sbb	eax, DWORD PTR [esi+104]
	mov	DWORD PTR [edi+104], eax
; File z:\sources\lunor\repos\rougemeilland\palmtree.math.core.implements\palmtree.math.core.implements\autogenerated_inline_func.h

; 833  :     c = _SUBTRUCT_UNIT(c, xp[27], yp[27], &zp[27]);

	mov	eax, DWORD PTR [edx+108]
; File z:\sources\lunor\repos\rougemeilland\palmtree.math.core.implements\palmtree.math.core.implements\pmc_internal.h

; 482  :     return (_subborrow_u32(borrow, u, v, w));

	sbb	eax, DWORD PTR [esi+108]
	mov	DWORD PTR [edi+108], eax
; File z:\sources\lunor\repos\rougemeilland\palmtree.math.core.implements\palmtree.math.core.implements\autogenerated_inline_func.h

; 834  :     c = _SUBTRUCT_UNIT(c, xp[28], yp[28], &zp[28]);

	mov	eax, DWORD PTR [edx+112]
; File z:\sources\lunor\repos\rougemeilland\palmtree.math.core.implements\palmtree.math.core.implements\pmc_internal.h

; 482  :     return (_subborrow_u32(borrow, u, v, w));

	sbb	eax, DWORD PTR [esi+112]
	mov	DWORD PTR [edi+112], eax
; File z:\sources\lunor\repos\rougemeilland\palmtree.math.core.implements\palmtree.math.core.implements\autogenerated_inline_func.h

; 835  :     c = _SUBTRUCT_UNIT(c, xp[29], yp[29], &zp[29]);

	mov	eax, DWORD PTR [edx+116]
; File z:\sources\lunor\repos\rougemeilland\palmtree.math.core.implements\palmtree.math.core.implements\pmc_internal.h

; 482  :     return (_subborrow_u32(borrow, u, v, w));

	sbb	eax, DWORD PTR [esi+116]
	mov	DWORD PTR [edi+116], eax
; File z:\sources\lunor\repos\rougemeilland\palmtree.math.core.implements\palmtree.math.core.implements\autogenerated_inline_func.h

; 836  :     c = _SUBTRUCT_UNIT(c, xp[30], yp[30], &zp[30]);

	mov	eax, DWORD PTR [edx+120]
; File z:\sources\lunor\repos\rougemeilland\palmtree.math.core.implements\palmtree.math.core.implements\pmc_internal.h

; 482  :     return (_subborrow_u32(borrow, u, v, w));

	sbb	eax, DWORD PTR [esi+120]
	mov	DWORD PTR [edi+120], eax
; File z:\sources\lunor\repos\rougemeilland\palmtree.math.core.implements\palmtree.math.core.implements\autogenerated_inline_func.h

; 837  :     c = _SUBTRUCT_UNIT(c, xp[31], yp[31], &zp[31]);

	mov	ecx, DWORD PTR [edx+124]
; File z:\sources\lunor\repos\rougemeilland\palmtree.math.core.implements\palmtree.math.core.implements\pmc_internal.h

; 482  :     return (_subborrow_u32(borrow, u, v, w));

	sbb	ecx, DWORD PTR [esi+124]
	mov	DWORD PTR [edi+124], ecx
; File z:\sources\lunor\repos\rougemeilland\palmtree.math.core.implements\palmtree.math.core.implements\autogenerated_inline_func.h

; 1053 :     return (c);

	pop	edi
; File z:\sources\lunor\repos\rougemeilland\palmtree.math.core.implements\palmtree.math.core.implements\pmc_internal.h

; 482  :     return (_subborrow_u32(borrow, u, v, w));

	setb	al
; File z:\sources\lunor\repos\rougemeilland\palmtree.math.core.implements\palmtree.math.core.implements\autogenerated_inline_func.h

; 1053 :     return (c);

	pop	esi

; 1054 : }

	pop	ebp
	ret	0
__SUBTRUCT_32WORDS_SBB ENDP
_TEXT	ENDS
; Function compile flags: /Ogtp
; File z:\sources\lunor\repos\rougemeilland\palmtree.math.core.implements\palmtree.math.core.implements\pmc_internal.h
;	COMDAT __LZCNT_ALT_UNIT
_TEXT	SEGMENT
_x$ = 8							; size = 4
__LZCNT_ALT_UNIT PROC					; COMDAT

; 840  : {

	push	ebp
	mov	ebp, esp

; 841  :     if (x == 0)

	mov	eax, DWORD PTR _x$[ebp]
	test	eax, eax
	jne	SHORT $LN2@LZCNT_ALT_

; 842  :         return (sizeof(x) * 8);

	mov	eax, 32					; 00000020H

; 866  : }

	pop	ebp
	ret	0
$LN2@LZCNT_ALT_:

; 843  : #ifdef _M_IX86
; 844  :     _UINT32_T pos;
; 845  : #ifdef _MSC_VER
; 846  :     _BitScanReverse(&pos, x);

	bsr	ecx, eax

; 847  : #elif defined(__GNUC__)
; 848  :     __asm__("bsrl %1, %0" : "=r"(pos) : "rm"(x));
; 849  : #else
; 850  : #error unknown compiler
; 851  : #endif
; 852  : #elif defined(_M_X64)
; 853  : #ifdef _MSC_VER
; 854  :     _UINT32_T pos;
; 855  :     _BitScanReverse64(&pos, x);
; 856  : #elif defined(__GNUC__)
; 857  :     _UINT64_T pos;
; 858  :     __asm__("bsrq %1, %0" : "=r"(pos) : "rm"(x));
; 859  : #else
; 860  : #error unknown compiler
; 861  : #endif
; 862  : #else
; 863  : #error unknown platform
; 864  : #endif
; 865  :     return (sizeof(x) * 8 - 1 - pos);

	mov	eax, 31					; 0000001fH
	sub	eax, ecx

; 866  : }

	pop	ebp
	ret	0
__LZCNT_ALT_UNIT ENDP
_TEXT	ENDS
; Function compile flags: /Ogtp
; File z:\sources\lunor\repos\rougemeilland\palmtree.math.core.implements\palmtree.math.core.implements\pmc_internal.h
;	COMDAT __LZCNT_ALT_32
_TEXT	SEGMENT
_x$ = 8							; size = 4
__LZCNT_ALT_32 PROC					; COMDAT

; 807  : {

	push	ebp
	mov	ebp, esp

; 808  :     if (x == 0)

	mov	eax, DWORD PTR _x$[ebp]
	test	eax, eax
	jne	SHORT $LN2@LZCNT_ALT_

; 809  :         return (sizeof(x) * 8);

	mov	eax, 32					; 00000020H

; 819  : }

	pop	ebp
	ret	0
$LN2@LZCNT_ALT_:

; 810  :     _UINT32_T pos;
; 811  : #ifdef _MSC_VER
; 812  :     _BitScanReverse(&pos, x);

	bsr	ecx, eax

; 813  : #elif defined(__GNUC__)
; 814  :     __asm__( "bsrl %1, %0" : "=r"(pos) : "rm"(x) );
; 815  : #else
; 816  : #error unknown compiler
; 817  : #endif
; 818  :     return (sizeof(x) * 8 - 1 - pos);

	mov	eax, 31					; 0000001fH
	sub	eax, ecx

; 819  : }

	pop	ebp
	ret	0
__LZCNT_ALT_32 ENDP
_TEXT	ENDS
; Function compile flags: /Ogtp
; File z:\sources\lunor\repos\rougemeilland\palmtree.math.core.implements\palmtree.math.core.implements\pmc_internal.h
;	COMDAT __SUBTRUCT_UNIT
_TEXT	SEGMENT
_borrow$ = 8						; size = 1
_u$ = 12						; size = 4
_v$ = 16						; size = 4
_w$ = 20						; size = 4
__SUBTRUCT_UNIT PROC					; COMDAT

; 480  : {

	push	ebp
	mov	ebp, esp

; 481  : #ifdef _M_IX86
; 482  :     return (_subborrow_u32(borrow, u, v, w));

	mov	al, BYTE PTR _borrow$[ebp]
	mov	edx, DWORD PTR _w$[ebp]
	add	al, 255					; 000000ffH
	mov	ecx, DWORD PTR _u$[ebp]
	sbb	ecx, DWORD PTR _v$[ebp]
	setb	al
	mov	DWORD PTR [edx], ecx

; 483  : #elif defined(_M_X64)
; 484  :     return (_subborrow_u64(borrow, u, v, w));
; 485  : #else
; 486  : #error unknown platform
; 487  : #endif
; 488  : }

	pop	ebp
	ret	0
__SUBTRUCT_UNIT ENDP
_TEXT	ENDS
; Function compile flags: /Ogtp
; File z:\sources\lunor\repos\rougemeilland\palmtree.math.core.implements\palmtree.math.core.implements\pmc_internal.h
;	COMDAT __FROMDWORDTOWORD
_TEXT	SEGMENT
_value$ = 8						; size = 8
_result_high$ = 16					; size = 4
__FROMDWORDTOWORD PROC					; COMDAT

; 393  : {

	push	ebp
	mov	ebp, esp

; 394  :     *result_high = (_UINT32_T)(value >> 32);

	mov	eax, DWORD PTR _result_high$[ebp]
	mov	ecx, DWORD PTR _value$[ebp+4]
	mov	DWORD PTR [eax], ecx

; 395  :     return ((_UINT32_T)value);

	mov	eax, DWORD PTR _value$[ebp]

; 396  : }

	pop	ebp
	ret	0
__FROMDWORDTOWORD ENDP
_TEXT	ENDS
; Function compile flags: /Ogtp
; File z:\sources\lunor\repos\rougemeilland\palmtree.math.core.implements\palmtree.math.core.implements\pmc_subtruct.c
;	COMDAT _PMC_Subtruct_X_X@12
_TEXT	SEGMENT
_nz$ = 8						; size = 4
_x$ = 8							; size = 4
_nz_light_check_code$1 = 12				; size = 4
_y$ = 12						; size = 4
_o$ = 16						; size = 4
_PMC_Subtruct_X_X@12 PROC				; COMDAT

; 435  : {

	push	ebp
	mov	ebp, esp
	push	ebx
	push	esi

; 436  :     if (x == NULL)

	mov	esi, DWORD PTR _x$[ebp]
	push	edi
	test	esi, esi
	je	$LN20@PMC_Subtru

; 437  :         return (PMC_STATUS_ARGUMENT_ERROR);
; 438  :     if (y == NULL)

	mov	edi, DWORD PTR _y$[ebp]
	test	edi, edi
	je	$LN20@PMC_Subtru

; 439  :         return (PMC_STATUS_ARGUMENT_ERROR);
; 440  :     if (o == NULL)

	mov	ebx, DWORD PTR _o$[ebp]
	test	ebx, ebx
	je	$LN20@PMC_Subtru

; 442  :     NUMBER_HEADER* nx = (NUMBER_HEADER*)x;
; 443  :     NUMBER_HEADER* ny = (NUMBER_HEADER*)y;
; 444  :     PMC_STATUS_CODE result;
; 445  :     if ((result = CheckNumber(nx)) != PMC_STATUS_OK)

	push	esi
	call	_CheckNumber
	add	esp, 4
	test	eax, eax
	jne	$LN1@PMC_Subtru

; 446  :         return (result);
; 447  :     if ((result = CheckNumber(ny)) != PMC_STATUS_OK)

	push	edi
	call	_CheckNumber
	add	esp, 4
	test	eax, eax
	jne	$LN1@PMC_Subtru

; 448  :         return (result);
; 449  :     NUMBER_HEADER* nz;
; 450  :     if (nx->IS_ZERO)

	mov	eax, DWORD PTR [edi+16]
	and	eax, 2
	test	BYTE PTR [esi+16], 2
	je	SHORT $LN7@PMC_Subtru

; 451  :     {
; 452  :         if (ny->IS_ZERO)

	test	eax, eax
	je	SHORT $LN19@PMC_Subtru

; 511  : }

	pop	edi
	pop	esi
	mov	DWORD PTR [ebx], OFFSET _number_zero
	xor	eax, eax
	pop	ebx
	pop	ebp
	ret	12					; 0000000cH
$LN7@PMC_Subtru:

; 453  :         {
; 454  :             // y が 0 である場合
; 455  : 
; 456  :             // x と y がともに 0 であるので、演算結果の 0 を呼び出し元に返す。
; 457  :             *o = &number_zero;
; 458  :         }
; 459  :         else
; 460  :         {
; 461  :             // y が 0 ではない場合
; 462  : 
; 463  :             // 演算結果は負となってしまうのでエラーを返す。
; 464  :             return (PMC_STATUS_OVERFLOW);
; 465  :         }
; 466  :     }
; 467  :     else
; 468  :     {
; 469  :         // x が 0 ではない場合
; 470  : 
; 471  :         if (ny->IS_ZERO)

	test	eax, eax
	je	SHORT $LN11@PMC_Subtru

; 472  :         {
; 473  :             // y が 0 である場合
; 474  : 
; 475  :             // 演算結果となる x の値を持つ NUMBER_HEADER 構造体を獲得し、呼び出し元へ返す。
; 476  :             if ((result = DuplicateNumber(nx, &nz)) != PMC_STATUS_OK)

	lea	eax, DWORD PTR _nz$[ebp]
	push	eax
	push	esi
	call	_DuplicateNumber
	add	esp, 8
	test	eax, eax
	je	$LN12@PMC_Subtru

; 511  : }

	pop	edi
	pop	esi
	pop	ebx
	pop	ebp
	ret	12					; 0000000cH
$LN11@PMC_Subtru:

; 477  :                 return (result);
; 478  :         }
; 479  :         else
; 480  :         {
; 481  :             // x と y がともに 0 ではない場合
; 482  : 
; 483  :             // x と y の差を計算する
; 484  :             __UNIT_TYPE x_bit_count = nx->UNIT_BIT_COUNT;

	mov	eax, DWORD PTR [esi+4]

; 485  :             __UNIT_TYPE y_bit_count = ny->UNIT_BIT_COUNT;
; 486  :             if (x_bit_count < y_bit_count)

	cmp	eax, DWORD PTR [edi+4]
	jae	SHORT $LN14@PMC_Subtru
$LN19@PMC_Subtru:
	pop	edi

; 511  : }

	pop	esi
	mov	eax, -2					; fffffffeH
	pop	ebx
	pop	ebp
	ret	12					; 0000000cH
$LN14@PMC_Subtru:

; 487  :             {
; 488  :                 // 演算結果は負となってしまうのでエラーを返す。
; 489  :                 return (PMC_STATUS_OVERFLOW);
; 490  :             }
; 491  :             __UNIT_TYPE z_bit_count = x_bit_count;
; 492  :             __UNIT_TYPE nz_light_check_code;
; 493  :             if ((result = AllocateNumber(&nz, z_bit_count, &nz_light_check_code)) != PMC_STATUS_OK)

	lea	ecx, DWORD PTR _nz_light_check_code$1[ebp]
	push	ecx
	push	eax
	lea	eax, DWORD PTR _nz$[ebp]
	push	eax
	call	_AllocateNumber
	add	esp, 12					; 0000000cH
	test	eax, eax
	jne	SHORT $LN1@PMC_Subtru

; 494  :                 return (result);
; 495  :             if ((result = Subtruct_X_X(nx, ny, nz)) != PMC_STATUS_OK)

	push	DWORD PTR _nz$[ebp]
	push	edi
	push	esi
	call	_Subtruct_X_X
	mov	esi, eax
	add	esp, 12					; 0000000cH
	test	esi, esi
	je	SHORT $LN16@PMC_Subtru

; 496  :             {
; 497  :                 DeallocateNumber(nz);

	push	DWORD PTR _nz$[ebp]
	call	_DeallocateNumber
	add	esp, 4

; 498  :                 return (result == PMC_STATUS_INTERNAL_BORROW ? PMC_STATUS_OVERFLOW : result);

	mov	eax, -2					; fffffffeH
	cmp	esi, -258				; fffffefeH
	cmove	esi, eax
	pop	edi
	mov	eax, esi

; 511  : }

	pop	esi
	pop	ebx
	pop	ebp
	ret	12					; 0000000cH
$LN16@PMC_Subtru:

; 499  :             }
; 500  :             if ((result = CheckBlockLight(nz->BLOCK, nz_light_check_code)) != PMC_STATUS_OK)

	mov	eax, DWORD PTR _nz$[ebp]
	push	DWORD PTR _nz_light_check_code$1[ebp]
	push	DWORD PTR [eax+24]
	call	_CheckBlockLight
	add	esp, 8
	test	eax, eax
	jne	SHORT $LN1@PMC_Subtru

; 501  :                 return (result);
; 502  :             CommitNumber(nz);

	push	DWORD PTR _nz$[ebp]
	call	_CommitNumber
	add	esp, 4
$LN12@PMC_Subtru:

; 503  :         }
; 504  :         *o = nz;

	mov	eax, DWORD PTR _nz$[ebp]
	pop	edi
	mov	DWORD PTR [ebx], eax

; 505  :     }
; 506  : #ifdef _DEBUG
; 507  :     if ((result = CheckNumber(*o)) != PMC_STATUS_OK)
; 508  :         return (result);
; 509  : #endif
; 510  :     return (PMC_STATUS_OK);

	xor	eax, eax

; 511  : }

	pop	esi
	pop	ebx
	pop	ebp
	ret	12					; 0000000cH
$LN20@PMC_Subtru:

; 441  :         return (PMC_STATUS_ARGUMENT_ERROR);

	or	eax, -1
$LN1@PMC_Subtru:
	pop	edi

; 511  : }

	pop	esi
	pop	ebx
	pop	ebp
	ret	12					; 0000000cH
_PMC_Subtruct_X_X@12 ENDP
_TEXT	ENDS
; Function compile flags: /Ogtp
; File z:\sources\lunor\repos\rougemeilland\palmtree.math.core.implements\palmtree.math.core.implements\pmc_subtruct.c
; File z:\sources\lunor\repos\rougemeilland\palmtree.math.core.implements\palmtree.math.core.implements\pmc_internal.h
; File z:\sources\lunor\repos\rougemeilland\palmtree.math.core.implements\palmtree.math.core.implements\pmc_subtruct.c
; File z:\sources\lunor\repos\rougemeilland\palmtree.math.core.implements\palmtree.math.core.implements\pmc_internal.h
; File z:\sources\lunor\repos\rougemeilland\palmtree.math.core.implements\palmtree.math.core.implements\pmc_subtruct.c
;	COMDAT _PMC_Subtruct_X_L@16
_TEXT	SEGMENT
_nz_light_check_code$1 = -8				; size = 4
_x_count$1$ = -4					; size = 4
_nz$ = 8						; size = 4
_x$ = 8							; size = 4
_y$ = 12						; size = 8
_c$2 = 16						; size = 1
_z_count$1$ = 20					; size = 4
_nz_light_check_code$3 = 20				; size = 4
_o$ = 20						; size = 4
_PMC_Subtruct_X_L@16 PROC				; COMDAT

; 294  : {

	push	ebp
	mov	ebp, esp
	sub	esp, 8
	push	ebx
	push	edi

; 295  :     if (__UNIT_TYPE_BIT_COUNT * 2 < sizeof(y) * 8)
; 296  :     {
; 297  :         // _UINT64_T が 2 ワードで表現しきれない処理系には対応しない
; 298  :         return (PMC_STATUS_INTERNAL_ERROR);
; 299  :     }
; 300  :     if (x == NULL)

	mov	edi, DWORD PTR _x$[ebp]
	test	edi, edi
	je	$LN46@PMC_Subtru

; 301  :         return (PMC_STATUS_ARGUMENT_ERROR);
; 302  :     if (o == NULL)

	mov	ebx, DWORD PTR _o$[ebp]
	test	ebx, ebx
	je	$LN46@PMC_Subtru

; 304  :     NUMBER_HEADER* nx = (NUMBER_HEADER*)x;
; 305  :     PMC_STATUS_CODE result;
; 306  :     if ((result = CheckNumber(nx)) != PMC_STATUS_OK)

	push	edi
	call	_CheckNumber
	add	esp, 4
	test	eax, eax
	jne	$LN1@PMC_Subtru

; 307  :         return (result);
; 308  :     NUMBER_HEADER* nz;
; 309  :     if (nx->IS_ZERO)

	test	BYTE PTR [edi+16], 2
	push	esi
	je	SHORT $LN6@PMC_Subtru

; 310  :     {
; 311  :         // x が 0 である場合
; 312  : 
; 313  :         if (y == 0)

	mov	eax, DWORD PTR _y$[ebp]
	or	eax, DWORD PTR _y$[ebp+4]
	jne	$LN45@PMC_Subtru

; 314  :         {
; 315  :             // y が 0 である場合
; 316  : 
; 317  :             // x と y がともに 0 であるので、演算結果の 0 を呼び出し元に返す。
; 318  :             *o = &number_zero;

	pop	esi
	pop	edi
	mov	DWORD PTR [ebx], OFFSET _number_zero

; 432  : }

	pop	ebx
	mov	esp, ebp
	pop	ebp
	ret	16					; 00000010H
$LN6@PMC_Subtru:

; 319  :         }
; 320  :         else
; 321  :         {
; 322  :             // y が 0 ではない場合
; 323  : 
; 324  :             // 演算結果は負となってしまうのでエラーを返す。
; 325  :             return (PMC_STATUS_OVERFLOW);
; 326  :         }
; 327  :     }
; 328  :     else
; 329  :     {
; 330  :         // x が 0 ではない場合
; 331  : 
; 332  :         if (y == 0)

	mov	esi, DWORD PTR _y$[ebp]
	mov	eax, esi
	mov	ecx, DWORD PTR _y$[ebp+4]
	or	eax, ecx
	jne	SHORT $LN10@PMC_Subtru

; 333  :         {
; 334  :             // y が 0 である場合
; 335  : 
; 336  :             // 演算結果となる x の値を持つ NUMBER_HEADER 構造体を獲得し、呼び出し元へ返す。
; 337  :             if ((result = DuplicateNumber(nx, &nz)) != PMC_STATUS_OK)

	lea	eax, DWORD PTR _nz$[ebp]
	push	eax
	push	edi
	call	_DuplicateNumber
	add	esp, 8
	test	eax, eax
	jne	SHORT $LN48@PMC_Subtru
	mov	eax, DWORD PTR _nz$[ebp]
	pop	esi

; 423  :             }
; 424  :         }
; 425  :         *o = nz;

	mov	DWORD PTR [ebx], eax

; 426  :     }
; 427  : #ifdef _DEBUG
; 428  :     if ((result = CheckNumber(*o)) != PMC_STATUS_OK)
; 429  :         return (result);
; 430  : #endif
; 431  :     return (PMC_STATUS_OK);

	xor	eax, eax
	pop	edi

; 432  : }

	pop	ebx
	mov	esp, ebp
	pop	ebp
	ret	16					; 00000010H
$LN10@PMC_Subtru:

; 338  :                 return (result);
; 339  :         }
; 340  :         else
; 341  :         {
; 342  :             // x と y がともに 0 ではない場合
; 343  : 
; 344  :             // x と y の差を計算する
; 345  :             if (__UNIT_TYPE_BIT_COUNT < sizeof(y) * 8)
; 346  :             {
; 347  :                 // _UINT64_T が 1 ワードで表現しきれない場合
; 348  : 
; 349  :                 __UNIT_TYPE x_bit_count = nx->UNIT_BIT_COUNT;

	mov	edx, DWORD PTR [edi+4]

; 350  :                 _UINT32_T y_hi;
; 351  :                 _UINT32_T y_lo = _FROMDWORDTOWORD(y, &y_hi);
; 352  :                 if (y_hi == 0)

	test	ecx, ecx
	jne	SHORT $LN15@PMC_Subtru

; 353  :                 {
; 354  :                     // y の値が 32bit で表現可能な場合
; 355  :                     __UNIT_TYPE y_bit_count = sizeof(y_lo) * 8 - _LZCNT_ALT_32(y_lo);

	push	esi
	call	__LZCNT_ALT_32
	mov	ecx, 32					; 00000020H
	add	esp, 4
	sub	ecx, eax

; 356  :                     if (x_bit_count < y_bit_count)

	cmp	edx, ecx
	jb	SHORT $LN45@PMC_Subtru

; 357  :                     {
; 358  :                         // 演算結果は負となってしまうのでエラーを返す。
; 359  :                         return (PMC_STATUS_OVERFLOW);
; 360  :                     }
; 361  :                     __UNIT_TYPE z_bit_count = x_bit_count;
; 362  :                     __UNIT_TYPE nz_light_check_code;
; 363  :                     if ((result = AllocateNumber(&nz, z_bit_count, &nz_light_check_code)) != PMC_STATUS_OK)

	lea	eax, DWORD PTR _nz_light_check_code$3[ebp]
	push	eax
	push	edx
	lea	eax, DWORD PTR _nz$[ebp]
	push	eax
	call	_AllocateNumber
	add	esp, 12					; 0000000cH
	test	eax, eax
	jne	SHORT $LN48@PMC_Subtru

; 364  :                         return (result);
; 365  :                     if ((result = Subtruct_X_1W(nx, y_lo, nz)) != PMC_STATUS_OK)

	push	DWORD PTR _nz$[ebp]
	push	esi
	push	edi
	call	_Subtruct_X_1W
	mov	esi, eax
	add	esp, 12					; 0000000cH
	test	esi, esi
	je	SHORT $LN19@PMC_Subtru

; 366  :                     {
; 367  :                         DeallocateNumber(nz);

	push	DWORD PTR _nz$[ebp]

; 368  :                         return (result == PMC_STATUS_INTERNAL_BORROW ? PMC_STATUS_OVERFLOW : result);

	jmp	$LN49@PMC_Subtru
$LN19@PMC_Subtru:

; 369  :                     }
; 370  :                     if ((result = CheckBlockLight(nz->BLOCK, nz_light_check_code)) != PMC_STATUS_OK)

	mov	eax, DWORD PTR _nz$[ebp]
	push	DWORD PTR _nz_light_check_code$3[ebp]
	push	DWORD PTR [eax+24]
	call	_CheckBlockLight
	add	esp, 8
	test	eax, eax
	je	$LN24@PMC_Subtru
$LN48@PMC_Subtru:
	pop	esi
$LN1@PMC_Subtru:
	pop	edi

; 432  : }

	pop	ebx
	mov	esp, ebp
	pop	ebp
	ret	16					; 00000010H
$LN15@PMC_Subtru:

; 371  :                         return (result);
; 372  :                 }
; 373  :                 else
; 374  :                 {
; 375  :                     // y の値が 32bit では表現できない場合
; 376  :                     __UNIT_TYPE y_bit_count = sizeof(y) * 8 - _LZCNT_ALT_32(y_hi);

	push	ecx
	call	__LZCNT_ALT_32
	mov	ecx, 64					; 00000040H
	add	esp, 4
	sub	ecx, eax

; 377  :                     if (x_bit_count < y_bit_count)

	cmp	edx, ecx
	jae	SHORT $LN21@PMC_Subtru
$LN45@PMC_Subtru:
	pop	esi
	pop	edi

; 378  :                     {
; 379  :                         // 演算結果は負となってしまうのでエラーを返す。
; 380  :                         return (PMC_STATUS_OVERFLOW);

	mov	eax, -2					; fffffffeH

; 432  : }

	pop	ebx
	mov	esp, ebp
	pop	ebp
	ret	16					; 00000010H
$LN21@PMC_Subtru:

; 381  :                     }
; 382  :                     __UNIT_TYPE z_bit_count = x_bit_count;
; 383  :                     __UNIT_TYPE nz_light_check_code;
; 384  :                     if ((result = AllocateNumber(&nz, z_bit_count, &nz_light_check_code)) != PMC_STATUS_OK)

	lea	eax, DWORD PTR _nz_light_check_code$1[ebp]
	push	eax
	push	edx
	lea	eax, DWORD PTR _nz$[ebp]
	push	eax
	call	_AllocateNumber
	add	esp, 12					; 0000000cH
	test	eax, eax
	jne	SHORT $LN48@PMC_Subtru

; 107  :     __UNIT_TYPE z_count = z->BLOCK_COUNT;

	mov	eax, DWORD PTR _nz$[ebp]
	mov	ecx, DWORD PTR [edi]
	mov	DWORD PTR _x_count$1$[ebp], ecx
	mov	edx, DWORD PTR [eax+20]
	mov	DWORD PTR _z_count$1$[ebp], edx

; 110  :     char c;
; 111  : 
; 112  :     if (x_count < 2)

	cmp	ecx, 2
	jae	SHORT $LN34@PMC_Subtru

; 113  :     {
; 114  :         // x が 1 ワードしかなかった場合
; 115  : 
; 116  :         // 明らかに演算結果が負になるのでエラーを通知する。
; 117  :         return (PMC_STATUS_INTERNAL_BORROW);

	mov	esi, -258				; fffffefeH
	jmp	SHORT $LN44@PMC_Subtru
$LN34@PMC_Subtru:

; 108  :     __UNIT_TYPE* xp = &x->BLOCK[0];
; 109  :     __UNIT_TYPE* zp = &z->BLOCK[0];

	mov	esi, DWORD PTR [eax+24]
	mov	edi, DWORD PTR [edi+24]

; 118  :     }
; 119  :     else
; 120  :     {
; 121  :         // x が 2 ワード以上あった場合
; 122  : 
; 123  :         // 最下位のワードの減算をする
; 124  :         c = _SUBTRUCT_UNIT(0, *xp++, y_lo, zp++);

	mov	eax, DWORD PTR [edi]
; File z:\sources\lunor\repos\rougemeilland\palmtree.math.core.implements\palmtree.math.core.implements\pmc_internal.h

; 482  :     return (_subborrow_u32(borrow, u, v, w));

	sub	eax, DWORD PTR _y$[ebp]
	mov	DWORD PTR [esi], eax
; File z:\sources\lunor\repos\rougemeilland\palmtree.math.core.implements\palmtree.math.core.implements\pmc_subtruct.c

; 127  :         c = _SUBTRUCT_UNIT(c, *xp++, y_hi, zp++);

	mov	ecx, DWORD PTR [edi+4]
; File z:\sources\lunor\repos\rougemeilland\palmtree.math.core.implements\palmtree.math.core.implements\pmc_internal.h

; 482  :     return (_subborrow_u32(borrow, u, v, w));

	setb	dl
	add	dl, 255					; 000000ffH
	sbb	ecx, DWORD PTR _y$[ebp+4]
	mov	DWORD PTR [esi+4], ecx
	setb	al
; File z:\sources\lunor\repos\rougemeilland\palmtree.math.core.implements\palmtree.math.core.implements\pmc_subtruct.c

; 127  :         c = _SUBTRUCT_UNIT(c, *xp++, y_hi, zp++);

	mov	BYTE PTR _c$2[ebp], al

; 128  :         x_count -= 2;
; 129  :         z_count -= 2;

	mov	eax, DWORD PTR _z_count$1$[ebp]
	add	eax, -2					; fffffffeH

; 130  : 
; 131  :         // 残りの桁の繰り上がりを計算し、復帰する。
; 132  :         return (DoBorrow(c, xp, x_count, zp, z_count));

	push	eax
	lea	eax, DWORD PTR [esi+8]
	push	eax
	mov	eax, DWORD PTR _x_count$1$[ebp]
	add	eax, -2					; fffffffeH
	push	eax
	lea	eax, DWORD PTR [edi+8]
	push	eax
	push	DWORD PTR _c$2[ebp]
	call	_DoBorrow
	mov	esi, eax
	add	esp, 20					; 00000014H

; 385  :                         return (result);
; 386  :                     if ((result = Subtruct_X_2W(nx, y_hi, y_lo, nz)) != PMC_STATUS_OK)

	mov	eax, DWORD PTR _nz$[ebp]
	test	esi, esi
	je	SHORT $LN23@PMC_Subtru
$LN44@PMC_Subtru:

; 387  :                     {
; 388  :                         DeallocateNumber(nz);

	push	eax
$LN49@PMC_Subtru:
	call	_DeallocateNumber
	add	esp, 4

; 389  :                         return (result == PMC_STATUS_INTERNAL_BORROW ? PMC_STATUS_OVERFLOW : result);

	mov	eax, -2					; fffffffeH
	cmp	esi, -258				; fffffefeH
	cmove	esi, eax
	mov	eax, esi
	pop	esi
	pop	edi

; 432  : }

	pop	ebx
	mov	esp, ebp
	pop	ebp
	ret	16					; 00000010H
$LN23@PMC_Subtru:

; 390  :                     }
; 391  :                     if ((result = CheckBlockLight(nz->BLOCK, nz_light_check_code)) != PMC_STATUS_OK)

	push	DWORD PTR _nz_light_check_code$1[ebp]
	push	DWORD PTR [eax+24]
	call	_CheckBlockLight
	add	esp, 8
	test	eax, eax
	jne	$LN48@PMC_Subtru
$LN24@PMC_Subtru:

; 392  :                         return (result);
; 393  :                 }
; 394  :             }
; 395  :             else
; 396  :             {
; 397  :                 // _UINT64_T が 1 ワードで表現できる場合
; 398  : 
; 399  :                 __UNIT_TYPE x_bit_count = nx->UNIT_BIT_COUNT;
; 400  :                 __UNIT_TYPE y_bit_count = sizeof(y) * 8 - _LZCNT_ALT_UNIT((__UNIT_TYPE)y);
; 401  :                 if (x_bit_count < y_bit_count)
; 402  :                 {
; 403  :                     // 演算結果は負となってしまうのでエラーを返す。
; 404  :                     return (PMC_STATUS_OVERFLOW);
; 405  :                 }
; 406  :                 __UNIT_TYPE z_bit_count = x_bit_count;
; 407  :                 __UNIT_TYPE nz_light_check_code;
; 408  :                 if ((result = AllocateNumber(&nz, z_bit_count, &nz_light_check_code)) != PMC_STATUS_OK)
; 409  :                     return (result);
; 410  :                 if ((result = Subtruct_X_1W(nx, (__UNIT_TYPE)y, nz)) != PMC_STATUS_OK)
; 411  :                 {
; 412  :                     DeallocateNumber(nz);
; 413  :                     return (result == PMC_STATUS_INTERNAL_BORROW ? PMC_STATUS_OVERFLOW : result);
; 414  :                 }
; 415  :                 if ((result = CheckBlockLight(nz->BLOCK, nz_light_check_code)) != PMC_STATUS_OK)
; 416  :                     return (result);
; 417  :             }
; 418  :             CommitNumber(nz);

	push	DWORD PTR _nz$[ebp]
	call	_CommitNumber

; 419  :             if (nz->IS_ZERO)

	mov	eax, DWORD PTR _nz$[ebp]
	add	esp, 4
	test	BYTE PTR [eax+16], 2
	je	SHORT $LN29@PMC_Subtru

; 420  :             {
; 421  :                 DeallocateNumber(nz);

	push	eax
	call	_DeallocateNumber
	add	esp, 4

; 422  :                 nz = &number_zero;

	mov	eax, OFFSET _number_zero
$LN29@PMC_Subtru:

; 423  :             }
; 424  :         }
; 425  :         *o = nz;

	pop	esi
	mov	DWORD PTR [ebx], eax

; 426  :     }
; 427  : #ifdef _DEBUG
; 428  :     if ((result = CheckNumber(*o)) != PMC_STATUS_OK)
; 429  :         return (result);
; 430  : #endif
; 431  :     return (PMC_STATUS_OK);

	xor	eax, eax
	pop	edi

; 432  : }

	pop	ebx
	mov	esp, ebp
	pop	ebp
	ret	16					; 00000010H
$LN46@PMC_Subtru:
	pop	edi

; 303  :         return (PMC_STATUS_ARGUMENT_ERROR);

	or	eax, -1

; 432  : }

	pop	ebx
	mov	esp, ebp
	pop	ebp
	ret	16					; 00000010H
_PMC_Subtruct_X_L@16 ENDP
_TEXT	ENDS
; Function compile flags: /Ogtp
; File z:\sources\lunor\repos\rougemeilland\palmtree.math.core.implements\palmtree.math.core.implements\pmc_subtruct.c
;	COMDAT _PMC_Subtruct_X_I@12
_TEXT	SEGMENT
_nz$ = 8						; size = 4
_x$ = 8							; size = 4
_nz_light_check_code$1 = 12				; size = 4
_y$ = 12						; size = 4
_o$ = 16						; size = 4
_PMC_Subtruct_X_I@12 PROC				; COMDAT

; 208  : {

	push	ebp
	mov	ebp, esp
	push	esi

; 209  :     if (__UNIT_TYPE_BIT_COUNT < sizeof(y) * 8)
; 210  :     {
; 211  :         // _UINT32_T が 1 ワードで表現しきれない処理系には対応しない
; 212  :         return (PMC_STATUS_INTERNAL_ERROR);
; 213  :     }
; 214  :     if (x == NULL)

	mov	esi, DWORD PTR _x$[ebp]
	push	edi
	test	esi, esi
	je	$LN20@PMC_Subtru

; 215  :         return (PMC_STATUS_ARGUMENT_ERROR);
; 216  :     if (o == NULL)

	mov	edi, DWORD PTR _o$[ebp]
	test	edi, edi
	je	$LN20@PMC_Subtru

; 218  :     NUMBER_HEADER* nx = (NUMBER_HEADER*)x;
; 219  :     PMC_STATUS_CODE result;
; 220  :     if ((result = CheckNumber(nx)) != PMC_STATUS_OK)

	push	esi
	call	_CheckNumber
	add	esp, 4
	test	eax, eax
	jne	SHORT $LN1@PMC_Subtru

; 221  :         return (result);
; 222  :     NUMBER_HEADER* nz;
; 223  :     if (nx->IS_ZERO)

	test	BYTE PTR [esi+16], 2
	push	ebx
	je	SHORT $LN6@PMC_Subtru

; 224  :     {
; 225  :         // x が 0 である場合
; 226  : 
; 227  :         if (y == 0)

	cmp	DWORD PTR _y$[ebp], eax
	jne	SHORT $LN19@PMC_Subtru

; 228  :         {
; 229  :             // y が 0 である場合
; 230  : 
; 231  :             // x と y がともに 0 であるので、演算結果の 0 を呼び出し元に返す。
; 232  :             *o = &number_zero;

	pop	ebx
	mov	DWORD PTR [edi], OFFSET _number_zero
	pop	edi

; 291  : }

	pop	esi
	pop	ebp
	ret	12					; 0000000cH
$LN6@PMC_Subtru:

; 233  :         }
; 234  :         else
; 235  :         {
; 236  :             // y が 0 ではない場合
; 237  : 
; 238  :             // 演算結果は負となってしまうのでエラーを返す。
; 239  :             return (PMC_STATUS_OVERFLOW);
; 240  :         }
; 241  :     }
; 242  :     else
; 243  :     {
; 244  :         // x が 0 ではない場合
; 245  : 
; 246  :         if (y == 0)

	mov	ebx, DWORD PTR _y$[ebp]
	test	ebx, ebx
	jne	SHORT $LN10@PMC_Subtru

; 247  :         {
; 248  :             // y が 0 である場合
; 249  : 
; 250  :             // 演算結果となる x の値を持つ NUMBER_HEADER 構造体を獲得し、呼び出し元へ返す。
; 251  :             if ((result = DuplicateNumber(nx, &nz)) != PMC_STATUS_OK)

	lea	eax, DWORD PTR _nz$[ebp]
	push	eax
	push	esi
	call	_DuplicateNumber
	add	esp, 8
	test	eax, eax
	jne	SHORT $LN22@PMC_Subtru
	mov	eax, DWORD PTR _nz$[ebp]
	pop	ebx

; 282  :             }
; 283  :         }
; 284  :         *o = nz;

	mov	DWORD PTR [edi], eax

; 285  :     }
; 286  : #ifdef _DEBUG
; 287  :     if ((result = CheckNumber(*o)) != PMC_STATUS_OK)
; 288  :         return (result);
; 289  : #endif
; 290  :     return (PMC_STATUS_OK);

	xor	eax, eax
	pop	edi

; 291  : }

	pop	esi
	pop	ebp
	ret	12					; 0000000cH
$LN10@PMC_Subtru:

; 252  :                 return (result);
; 253  :         }
; 254  :         else
; 255  :         {
; 256  :             // x と y がともに 0 ではない場合
; 257  : 
; 258  :             // x と y の差を計算する
; 259  :             __UNIT_TYPE x_bit_count = nx->UNIT_BIT_COUNT;

	mov	edx, DWORD PTR [esi+4]

; 260  :             __UNIT_TYPE y_bit_count = sizeof(y) * 8 - _LZCNT_ALT_32(y);

	push	ebx
	call	__LZCNT_ALT_32
	mov	ecx, 32					; 00000020H
	add	esp, 4
	sub	ecx, eax

; 261  :             if (x_bit_count < y_bit_count)

	cmp	edx, ecx
	jae	SHORT $LN13@PMC_Subtru
$LN19@PMC_Subtru:

; 262  :             {
; 263  :                 // 演算結果は負となってしまうのでエラーを返す。
; 264  :                 return (PMC_STATUS_OVERFLOW);

	mov	eax, -2					; fffffffeH
$LN22@PMC_Subtru:
	pop	ebx
$LN1@PMC_Subtru:
	pop	edi

; 291  : }

	pop	esi
	pop	ebp
	ret	12					; 0000000cH
$LN13@PMC_Subtru:

; 265  :             }
; 266  :             __UNIT_TYPE z_bit_count = x_bit_count;
; 267  :             __UNIT_TYPE nz_light_check_code;
; 268  :             if ((result = AllocateNumber(&nz, z_bit_count, &nz_light_check_code)) != PMC_STATUS_OK)

	lea	eax, DWORD PTR _nz_light_check_code$1[ebp]
	push	eax
	push	edx
	lea	eax, DWORD PTR _nz$[ebp]
	push	eax
	call	_AllocateNumber
	add	esp, 12					; 0000000cH
	test	eax, eax
	jne	SHORT $LN22@PMC_Subtru

; 269  :                 return (result);
; 270  :             if ((result = Subtruct_X_1W(nx, y, nz)) != PMC_STATUS_OK)

	push	DWORD PTR _nz$[ebp]
	push	ebx
	push	esi
	call	_Subtruct_X_1W
	mov	esi, eax
	add	esp, 12					; 0000000cH
	test	esi, esi
	je	SHORT $LN15@PMC_Subtru

; 271  :             {
; 272  :                 DeallocateNumber(nz);

	push	DWORD PTR _nz$[ebp]
	call	_DeallocateNumber
	add	esp, 4

; 273  :                 return (result == PMC_STATUS_INTERNAL_BORROW ? PMC_STATUS_OVERFLOW : result);

	mov	eax, -2					; fffffffeH
	cmp	esi, -258				; fffffefeH
	cmove	esi, eax
	pop	ebx
	pop	edi
	mov	eax, esi

; 291  : }

	pop	esi
	pop	ebp
	ret	12					; 0000000cH
$LN15@PMC_Subtru:

; 274  :             }
; 275  :             if ((result = CheckBlockLight(nz->BLOCK, nz_light_check_code)) != PMC_STATUS_OK)

	mov	eax, DWORD PTR _nz$[ebp]
	push	DWORD PTR _nz_light_check_code$1[ebp]
	push	DWORD PTR [eax+24]
	call	_CheckBlockLight
	add	esp, 8
	test	eax, eax
	jne	SHORT $LN22@PMC_Subtru

; 276  :                 return (result);
; 277  :             CommitNumber(nz);

	push	DWORD PTR _nz$[ebp]
	call	_CommitNumber

; 278  :             if (nz->IS_ZERO)

	mov	eax, DWORD PTR _nz$[ebp]
	add	esp, 4
	test	BYTE PTR [eax+16], 2
	je	SHORT $LN17@PMC_Subtru

; 279  :             {
; 280  :                 DeallocateNumber(nz);

	push	eax
	call	_DeallocateNumber
	add	esp, 4

; 281  :                 nz = &number_zero;

	mov	eax, OFFSET _number_zero
$LN17@PMC_Subtru:

; 282  :             }
; 283  :         }
; 284  :         *o = nz;

	pop	ebx
	mov	DWORD PTR [edi], eax

; 285  :     }
; 286  : #ifdef _DEBUG
; 287  :     if ((result = CheckNumber(*o)) != PMC_STATUS_OK)
; 288  :         return (result);
; 289  : #endif
; 290  :     return (PMC_STATUS_OK);

	xor	eax, eax
	pop	edi

; 291  : }

	pop	esi
	pop	ebp
	ret	12					; 0000000cH
$LN20@PMC_Subtru:
	pop	edi

; 217  :         return (PMC_STATUS_ARGUMENT_ERROR);

	or	eax, -1

; 291  : }

	pop	esi
	pop	ebp
	ret	12					; 0000000cH
_PMC_Subtruct_X_I@12 ENDP
_TEXT	ENDS
; Function compile flags: /Ogtp
; File z:\sources\lunor\repos\rougemeilland\palmtree.math.core.implements\palmtree.math.core.implements\pmc_subtruct.c
;	COMDAT _Initialize_Subtruct
_TEXT	SEGMENT
_feature$ = 8						; size = 4
_Initialize_Subtruct PROC				; COMDAT

; 515  :     return (PMC_STATUS_OK);

	xor	eax, eax

; 516  : }

	ret	0
_Initialize_Subtruct ENDP
_TEXT	ENDS
END
