; Listing generated by Microsoft (R) Optimizing Compiler Version 19.16.27026.1 

	TITLE	Z:\Sources\Lunor\Repos\rougemeilland\Palmtree.Math.Core.Implements\Palmtree.Math.Core.Implements\pmc_add.c
	.686P
	.XMM
	include listing.inc
	.model	flat

INCLUDELIB MSVCRT
INCLUDELIB OLDNAMES

PUBLIC	_Initialize_Add
PUBLIC	_PMC_Add_X_I@12
PUBLIC	_PMC_Add_X_L@16
PUBLIC	_PMC_Add_X_X@12
EXTRN	_CheckBlockLight:PROC
EXTRN	_AllocateNumber:PROC
EXTRN	_DeallocateNumber:PROC
EXTRN	_CommitNumber:PROC
EXTRN	_CheckNumber:PROC
EXTRN	_DuplicateNumber:PROC
EXTRN	_From_I_Imp:PROC
EXTRN	_From_L_Imp:PROC
EXTRN	_number_zero:BYTE
_BSS	SEGMENT
_fp_Add_X_X_using_ADC DD 01H DUP (?)
_BSS	ENDS
; Function compile flags: /Ogtp
; File z:\sources\lunor\repos\rougemeilland\palmtree.math.core.implements\palmtree.math.core.implements\pmc_add.c
;	COMDAT _Add_X_X
_TEXT	SEGMENT
_x$ = 8							; size = 4
_y$ = 12						; size = 4
_z$ = 16						; size = 4
_Add_X_X PROC						; COMDAT

; 307  : {

	push	ebp
	mov	ebp, esp

; 309  : }

	pop	ebp

; 308  :     return ((*fp_Add_X_X_using_ADC)(x, y, z));

	jmp	DWORD PTR _fp_Add_X_X_using_ADC
_Add_X_X ENDP
_TEXT	ENDS
; Function compile flags: /Ogtp
; File z:\sources\lunor\repos\rougemeilland\palmtree.math.core.implements\palmtree.math.core.implements\pmc_add.c
; File z:\sources\lunor\repos\rougemeilland\palmtree.math.core.implements\palmtree.math.core.implements\autogenerated_inline_func.h
; File z:\sources\lunor\repos\rougemeilland\palmtree.math.core.implements\palmtree.math.core.implements\pmc_internal.h
; File z:\sources\lunor\repos\rougemeilland\palmtree.math.core.implements\palmtree.math.core.implements\autogenerated_inline_func.h
; File z:\sources\lunor\repos\rougemeilland\palmtree.math.core.implements\palmtree.math.core.implements\pmc_internal.h
; File z:\sources\lunor\repos\rougemeilland\palmtree.math.core.implements\palmtree.math.core.implements\autogenerated_inline_func.h
; File z:\sources\lunor\repos\rougemeilland\palmtree.math.core.implements\palmtree.math.core.implements\pmc_internal.h
; File z:\sources\lunor\repos\rougemeilland\palmtree.math.core.implements\palmtree.math.core.implements\autogenerated_inline_func.h
; File z:\sources\lunor\repos\rougemeilland\palmtree.math.core.implements\palmtree.math.core.implements\pmc_internal.h
; File z:\sources\lunor\repos\rougemeilland\palmtree.math.core.implements\palmtree.math.core.implements\autogenerated_inline_func.h
; File z:\sources\lunor\repos\rougemeilland\palmtree.math.core.implements\palmtree.math.core.implements\pmc_internal.h
; File z:\sources\lunor\repos\rougemeilland\palmtree.math.core.implements\palmtree.math.core.implements\autogenerated_inline_func.h
; File z:\sources\lunor\repos\rougemeilland\palmtree.math.core.implements\palmtree.math.core.implements\pmc_internal.h
; File z:\sources\lunor\repos\rougemeilland\palmtree.math.core.implements\palmtree.math.core.implements\autogenerated_inline_func.h
; File z:\sources\lunor\repos\rougemeilland\palmtree.math.core.implements\palmtree.math.core.implements\pmc_internal.h
; File z:\sources\lunor\repos\rougemeilland\palmtree.math.core.implements\palmtree.math.core.implements\autogenerated_inline_func.h
; File z:\sources\lunor\repos\rougemeilland\palmtree.math.core.implements\palmtree.math.core.implements\pmc_internal.h
; File z:\sources\lunor\repos\rougemeilland\palmtree.math.core.implements\palmtree.math.core.implements\autogenerated_inline_func.h
; File z:\sources\lunor\repos\rougemeilland\palmtree.math.core.implements\palmtree.math.core.implements\pmc_internal.h
; File z:\sources\lunor\repos\rougemeilland\palmtree.math.core.implements\palmtree.math.core.implements\autogenerated_inline_func.h
; File z:\sources\lunor\repos\rougemeilland\palmtree.math.core.implements\palmtree.math.core.implements\pmc_internal.h
; File z:\sources\lunor\repos\rougemeilland\palmtree.math.core.implements\palmtree.math.core.implements\autogenerated_inline_func.h
; File z:\sources\lunor\repos\rougemeilland\palmtree.math.core.implements\palmtree.math.core.implements\pmc_internal.h
; File z:\sources\lunor\repos\rougemeilland\palmtree.math.core.implements\palmtree.math.core.implements\autogenerated_inline_func.h
; File z:\sources\lunor\repos\rougemeilland\palmtree.math.core.implements\palmtree.math.core.implements\pmc_internal.h
; File z:\sources\lunor\repos\rougemeilland\palmtree.math.core.implements\palmtree.math.core.implements\autogenerated_inline_func.h
; File z:\sources\lunor\repos\rougemeilland\palmtree.math.core.implements\palmtree.math.core.implements\pmc_internal.h
; File z:\sources\lunor\repos\rougemeilland\palmtree.math.core.implements\palmtree.math.core.implements\autogenerated_inline_func.h
; File z:\sources\lunor\repos\rougemeilland\palmtree.math.core.implements\palmtree.math.core.implements\pmc_internal.h
; File z:\sources\lunor\repos\rougemeilland\palmtree.math.core.implements\palmtree.math.core.implements\autogenerated_inline_func.h
; File z:\sources\lunor\repos\rougemeilland\palmtree.math.core.implements\palmtree.math.core.implements\pmc_internal.h
; File z:\sources\lunor\repos\rougemeilland\palmtree.math.core.implements\palmtree.math.core.implements\autogenerated_inline_func.h
; File z:\sources\lunor\repos\rougemeilland\palmtree.math.core.implements\palmtree.math.core.implements\pmc_internal.h
; File z:\sources\lunor\repos\rougemeilland\palmtree.math.core.implements\palmtree.math.core.implements\autogenerated_inline_func.h
; File z:\sources\lunor\repos\rougemeilland\palmtree.math.core.implements\palmtree.math.core.implements\pmc_internal.h
; File z:\sources\lunor\repos\rougemeilland\palmtree.math.core.implements\palmtree.math.core.implements\autogenerated_inline_func.h
; File z:\sources\lunor\repos\rougemeilland\palmtree.math.core.implements\palmtree.math.core.implements\pmc_internal.h
; File z:\sources\lunor\repos\rougemeilland\palmtree.math.core.implements\palmtree.math.core.implements\autogenerated_inline_func.h
; File z:\sources\lunor\repos\rougemeilland\palmtree.math.core.implements\palmtree.math.core.implements\pmc_internal.h
; File z:\sources\lunor\repos\rougemeilland\palmtree.math.core.implements\palmtree.math.core.implements\autogenerated_inline_func.h
; File z:\sources\lunor\repos\rougemeilland\palmtree.math.core.implements\palmtree.math.core.implements\pmc_internal.h
; File z:\sources\lunor\repos\rougemeilland\palmtree.math.core.implements\palmtree.math.core.implements\autogenerated_inline_func.h
; File z:\sources\lunor\repos\rougemeilland\palmtree.math.core.implements\palmtree.math.core.implements\pmc_internal.h
; File z:\sources\lunor\repos\rougemeilland\palmtree.math.core.implements\palmtree.math.core.implements\autogenerated_inline_func.h
; File z:\sources\lunor\repos\rougemeilland\palmtree.math.core.implements\palmtree.math.core.implements\pmc_internal.h
; File z:\sources\lunor\repos\rougemeilland\palmtree.math.core.implements\palmtree.math.core.implements\autogenerated_inline_func.h
; File z:\sources\lunor\repos\rougemeilland\palmtree.math.core.implements\palmtree.math.core.implements\pmc_internal.h
; File z:\sources\lunor\repos\rougemeilland\palmtree.math.core.implements\palmtree.math.core.implements\autogenerated_inline_func.h
; File z:\sources\lunor\repos\rougemeilland\palmtree.math.core.implements\palmtree.math.core.implements\pmc_internal.h
; File z:\sources\lunor\repos\rougemeilland\palmtree.math.core.implements\palmtree.math.core.implements\autogenerated_inline_func.h
; File z:\sources\lunor\repos\rougemeilland\palmtree.math.core.implements\palmtree.math.core.implements\pmc_internal.h
; File z:\sources\lunor\repos\rougemeilland\palmtree.math.core.implements\palmtree.math.core.implements\autogenerated_inline_func.h
; File z:\sources\lunor\repos\rougemeilland\palmtree.math.core.implements\palmtree.math.core.implements\pmc_internal.h
; File z:\sources\lunor\repos\rougemeilland\palmtree.math.core.implements\palmtree.math.core.implements\autogenerated_inline_func.h
; File z:\sources\lunor\repos\rougemeilland\palmtree.math.core.implements\palmtree.math.core.implements\pmc_internal.h
; File z:\sources\lunor\repos\rougemeilland\palmtree.math.core.implements\palmtree.math.core.implements\autogenerated_inline_func.h
; File z:\sources\lunor\repos\rougemeilland\palmtree.math.core.implements\palmtree.math.core.implements\pmc_internal.h
; File z:\sources\lunor\repos\rougemeilland\palmtree.math.core.implements\palmtree.math.core.implements\autogenerated_inline_func.h
; File z:\sources\lunor\repos\rougemeilland\palmtree.math.core.implements\palmtree.math.core.implements\pmc_internal.h
; File z:\sources\lunor\repos\rougemeilland\palmtree.math.core.implements\palmtree.math.core.implements\autogenerated_inline_func.h
; File z:\sources\lunor\repos\rougemeilland\palmtree.math.core.implements\palmtree.math.core.implements\pmc_internal.h
; File z:\sources\lunor\repos\rougemeilland\palmtree.math.core.implements\palmtree.math.core.implements\autogenerated_inline_func.h
; File z:\sources\lunor\repos\rougemeilland\palmtree.math.core.implements\palmtree.math.core.implements\pmc_internal.h
; File z:\sources\lunor\repos\rougemeilland\palmtree.math.core.implements\palmtree.math.core.implements\autogenerated_inline_func.h
; File z:\sources\lunor\repos\rougemeilland\palmtree.math.core.implements\palmtree.math.core.implements\pmc_internal.h
; File z:\sources\lunor\repos\rougemeilland\palmtree.math.core.implements\palmtree.math.core.implements\pmc_add.c
; File z:\sources\lunor\repos\rougemeilland\palmtree.math.core.implements\palmtree.math.core.implements\autogenerated_inline_func.h
; File z:\sources\lunor\repos\rougemeilland\palmtree.math.core.implements\palmtree.math.core.implements\pmc_internal.h
; File z:\sources\lunor\repos\rougemeilland\palmtree.math.core.implements\palmtree.math.core.implements\autogenerated_inline_func.h
; File z:\sources\lunor\repos\rougemeilland\palmtree.math.core.implements\palmtree.math.core.implements\pmc_internal.h
; File z:\sources\lunor\repos\rougemeilland\palmtree.math.core.implements\palmtree.math.core.implements\autogenerated_inline_func.h
; File z:\sources\lunor\repos\rougemeilland\palmtree.math.core.implements\palmtree.math.core.implements\pmc_internal.h
; File z:\sources\lunor\repos\rougemeilland\palmtree.math.core.implements\palmtree.math.core.implements\autogenerated_inline_func.h
; File z:\sources\lunor\repos\rougemeilland\palmtree.math.core.implements\palmtree.math.core.implements\pmc_internal.h
; File z:\sources\lunor\repos\rougemeilland\palmtree.math.core.implements\palmtree.math.core.implements\autogenerated_inline_func.h
; File z:\sources\lunor\repos\rougemeilland\palmtree.math.core.implements\palmtree.math.core.implements\pmc_internal.h
; File z:\sources\lunor\repos\rougemeilland\palmtree.math.core.implements\palmtree.math.core.implements\autogenerated_inline_func.h
; File z:\sources\lunor\repos\rougemeilland\palmtree.math.core.implements\palmtree.math.core.implements\pmc_internal.h
; File z:\sources\lunor\repos\rougemeilland\palmtree.math.core.implements\palmtree.math.core.implements\autogenerated_inline_func.h
; File z:\sources\lunor\repos\rougemeilland\palmtree.math.core.implements\palmtree.math.core.implements\pmc_internal.h
; File z:\sources\lunor\repos\rougemeilland\palmtree.math.core.implements\palmtree.math.core.implements\autogenerated_inline_func.h
; File z:\sources\lunor\repos\rougemeilland\palmtree.math.core.implements\palmtree.math.core.implements\pmc_internal.h
; File z:\sources\lunor\repos\rougemeilland\palmtree.math.core.implements\palmtree.math.core.implements\pmc_add.c
; File z:\sources\lunor\repos\rougemeilland\palmtree.math.core.implements\palmtree.math.core.implements\autogenerated_inline_func.h
; File z:\sources\lunor\repos\rougemeilland\palmtree.math.core.implements\palmtree.math.core.implements\pmc_internal.h
; File z:\sources\lunor\repos\rougemeilland\palmtree.math.core.implements\palmtree.math.core.implements\autogenerated_inline_func.h
; File z:\sources\lunor\repos\rougemeilland\palmtree.math.core.implements\palmtree.math.core.implements\pmc_internal.h
; File z:\sources\lunor\repos\rougemeilland\palmtree.math.core.implements\palmtree.math.core.implements\autogenerated_inline_func.h
; File z:\sources\lunor\repos\rougemeilland\palmtree.math.core.implements\palmtree.math.core.implements\pmc_internal.h
; File z:\sources\lunor\repos\rougemeilland\palmtree.math.core.implements\palmtree.math.core.implements\autogenerated_inline_func.h
; File z:\sources\lunor\repos\rougemeilland\palmtree.math.core.implements\palmtree.math.core.implements\pmc_internal.h
; File z:\sources\lunor\repos\rougemeilland\palmtree.math.core.implements\palmtree.math.core.implements\pmc_add.c
; File z:\sources\lunor\repos\rougemeilland\palmtree.math.core.implements\palmtree.math.core.implements\autogenerated_inline_func.h
; File z:\sources\lunor\repos\rougemeilland\palmtree.math.core.implements\palmtree.math.core.implements\pmc_internal.h
; File z:\sources\lunor\repos\rougemeilland\palmtree.math.core.implements\palmtree.math.core.implements\autogenerated_inline_func.h
; File z:\sources\lunor\repos\rougemeilland\palmtree.math.core.implements\palmtree.math.core.implements\pmc_internal.h
; File z:\sources\lunor\repos\rougemeilland\palmtree.math.core.implements\palmtree.math.core.implements\pmc_add.c
; File z:\sources\lunor\repos\rougemeilland\palmtree.math.core.implements\palmtree.math.core.implements\pmc_internal.h
; File z:\sources\lunor\repos\rougemeilland\palmtree.math.core.implements\palmtree.math.core.implements\pmc_add.c
;	COMDAT _Add_X_X_using_ADCX
_TEXT	SEGMENT
_x_count$1$ = -12					; size = 4
_z_count$1$ = -8					; size = 4
_c$ = 8							; size = 1
_x$ = 8							; size = 4
_y_count$1$ = 12					; size = 4
_y$ = 12						; size = 4
_xp$1$ = 16						; size = 4
_z$ = 16						; size = 4
_Add_X_X_using_ADCX PROC				; COMDAT

; 230  : {

	push	ebp
	mov	ebp, esp
	sub	esp, 12					; 0000000cH
	push	ebx
	mov	ebx, DWORD PTR _x$[ebp]
	push	esi

; 231  :     // x のワード長が y のワード長以上であるようにする
; 232  :     if (x->UNIT_WORD_COUNT < y->UNIT_WORD_COUNT)
; 233  :     {
; 234  :         NUMBER_HEADER* t = x;
; 235  :         x = y;
; 236  :         y = t;
; 237  :     }
; 238  :     __UNIT_TYPE x_count = x->UNIT_WORD_COUNT;
; 239  :     __UNIT_TYPE y_count = y->UNIT_WORD_COUNT;
; 240  :     __UNIT_TYPE z_count = z->BLOCK_COUNT;

	mov	esi, DWORD PTR _z$[ebp]
	push	edi
	mov	edi, DWORD PTR _y$[ebp]
	mov	edx, DWORD PTR [ebx]
	mov	ecx, DWORD PTR [edi]
	cmp	edx, ecx
	mov	eax, ecx
	cmovae	eax, edx
	mov	DWORD PTR _x_count$1$[ebp], eax
	mov	eax, edx
	cmovae	eax, ecx
	mov	DWORD PTR _y_count$1$[ebp], eax
	mov	eax, DWORD PTR [esi+20]

; 241  :     __UNIT_TYPE* xp = &x->BLOCK[0];
; 242  :     __UNIT_TYPE* yp = &y->BLOCK[0];
; 243  :     __UNIT_TYPE* zp = &z->BLOCK[0];
; 244  :     char c = 0;
; 245  : 
; 246  :     // まず 32 ワードずつ加算をする。
; 247  :     __UNIT_TYPE count = y_count >> 5;

	mov	ecx, DWORD PTR _y_count$1$[ebp]
	mov	esi, DWORD PTR [esi+24]
	mov	DWORD PTR _z_count$1$[ebp], eax
	mov	eax, edi
	cmovae	eax, ebx
	cmovae	ebx, edi
	xor	dl, dl
	mov	BYTE PTR _c$[ebp], dl
	mov	eax, DWORD PTR [eax+24]
	mov	edi, DWORD PTR [ebx+24]
	mov	DWORD PTR _xp$1$[ebp], eax
	mov	eax, ecx

; 248  :     while (count != 0)

	mov	ebx, DWORD PTR _xp$1$[ebp]
	shr	eax, 5
	test	eax, eax
	je	$LN3@Add_X_X_us
	mov	ecx, eax
	npad	4
$LL2@Add_X_X_us:
; File z:\sources\lunor\repos\rougemeilland\palmtree.math.core.implements\palmtree.math.core.implements\autogenerated_inline_func.h

; 300  :         c = _ADDX_UNIT(c, xp[0], yp[0], &zp[0]);

	mov	eax, DWORD PTR [ebx]
; File z:\sources\lunor\repos\rougemeilland\palmtree.math.core.implements\palmtree.math.core.implements\pmc_internal.h

; 454  :     return (_addcarryx_u32(carry, u, v, w));

	add	dl, 255					; 000000ffH
	adcx	eax, DWORD PTR [edi]
	mov	DWORD PTR [esi], eax
; File z:\sources\lunor\repos\rougemeilland\palmtree.math.core.implements\palmtree.math.core.implements\autogenerated_inline_func.h

; 301  :         c = _ADDX_UNIT(c, xp[1], yp[1], &zp[1]);

	mov	eax, DWORD PTR [ebx+4]
; File z:\sources\lunor\repos\rougemeilland\palmtree.math.core.implements\palmtree.math.core.implements\pmc_internal.h

; 454  :     return (_addcarryx_u32(carry, u, v, w));

	adcx	eax, DWORD PTR [edi+4]
	mov	DWORD PTR [esi+4], eax
; File z:\sources\lunor\repos\rougemeilland\palmtree.math.core.implements\palmtree.math.core.implements\autogenerated_inline_func.h

; 302  :         c = _ADDX_UNIT(c, xp[2], yp[2], &zp[2]);

	mov	eax, DWORD PTR [ebx+8]
; File z:\sources\lunor\repos\rougemeilland\palmtree.math.core.implements\palmtree.math.core.implements\pmc_internal.h

; 454  :     return (_addcarryx_u32(carry, u, v, w));

	adcx	eax, DWORD PTR [edi+8]
	mov	DWORD PTR [esi+8], eax
; File z:\sources\lunor\repos\rougemeilland\palmtree.math.core.implements\palmtree.math.core.implements\autogenerated_inline_func.h

; 303  :         c = _ADDX_UNIT(c, xp[3], yp[3], &zp[3]);

	mov	eax, DWORD PTR [ebx+12]
; File z:\sources\lunor\repos\rougemeilland\palmtree.math.core.implements\palmtree.math.core.implements\pmc_internal.h

; 454  :     return (_addcarryx_u32(carry, u, v, w));

	adcx	eax, DWORD PTR [edi+12]
	mov	DWORD PTR [esi+12], eax
; File z:\sources\lunor\repos\rougemeilland\palmtree.math.core.implements\palmtree.math.core.implements\autogenerated_inline_func.h

; 304  :         c = _ADDX_UNIT(c, xp[4], yp[4], &zp[4]);

	mov	eax, DWORD PTR [ebx+16]
; File z:\sources\lunor\repos\rougemeilland\palmtree.math.core.implements\palmtree.math.core.implements\pmc_internal.h

; 454  :     return (_addcarryx_u32(carry, u, v, w));

	adcx	eax, DWORD PTR [edi+16]
	mov	DWORD PTR [esi+16], eax
; File z:\sources\lunor\repos\rougemeilland\palmtree.math.core.implements\palmtree.math.core.implements\autogenerated_inline_func.h

; 305  :         c = _ADDX_UNIT(c, xp[5], yp[5], &zp[5]);

	mov	eax, DWORD PTR [ebx+20]
; File z:\sources\lunor\repos\rougemeilland\palmtree.math.core.implements\palmtree.math.core.implements\pmc_internal.h

; 454  :     return (_addcarryx_u32(carry, u, v, w));

	adcx	eax, DWORD PTR [edi+20]
	mov	DWORD PTR [esi+20], eax
; File z:\sources\lunor\repos\rougemeilland\palmtree.math.core.implements\palmtree.math.core.implements\autogenerated_inline_func.h

; 306  :         c = _ADDX_UNIT(c, xp[6], yp[6], &zp[6]);

	mov	eax, DWORD PTR [ebx+24]
; File z:\sources\lunor\repos\rougemeilland\palmtree.math.core.implements\palmtree.math.core.implements\pmc_internal.h

; 454  :     return (_addcarryx_u32(carry, u, v, w));

	adcx	eax, DWORD PTR [edi+24]
	mov	DWORD PTR [esi+24], eax
; File z:\sources\lunor\repos\rougemeilland\palmtree.math.core.implements\palmtree.math.core.implements\autogenerated_inline_func.h

; 307  :         c = _ADDX_UNIT(c, xp[7], yp[7], &zp[7]);

	mov	eax, DWORD PTR [ebx+28]
; File z:\sources\lunor\repos\rougemeilland\palmtree.math.core.implements\palmtree.math.core.implements\pmc_internal.h

; 454  :     return (_addcarryx_u32(carry, u, v, w));

	adcx	eax, DWORD PTR [edi+28]
	mov	DWORD PTR [esi+28], eax
; File z:\sources\lunor\repos\rougemeilland\palmtree.math.core.implements\palmtree.math.core.implements\autogenerated_inline_func.h

; 308  :         c = _ADDX_UNIT(c, xp[8], yp[8], &zp[8]);

	mov	eax, DWORD PTR [ebx+32]
; File z:\sources\lunor\repos\rougemeilland\palmtree.math.core.implements\palmtree.math.core.implements\pmc_internal.h

; 454  :     return (_addcarryx_u32(carry, u, v, w));

	adcx	eax, DWORD PTR [edi+32]
	mov	DWORD PTR [esi+32], eax
; File z:\sources\lunor\repos\rougemeilland\palmtree.math.core.implements\palmtree.math.core.implements\autogenerated_inline_func.h

; 309  :         c = _ADDX_UNIT(c, xp[9], yp[9], &zp[9]);

	mov	eax, DWORD PTR [ebx+36]
; File z:\sources\lunor\repos\rougemeilland\palmtree.math.core.implements\palmtree.math.core.implements\pmc_internal.h

; 454  :     return (_addcarryx_u32(carry, u, v, w));

	adcx	eax, DWORD PTR [edi+36]
	mov	DWORD PTR [esi+36], eax
; File z:\sources\lunor\repos\rougemeilland\palmtree.math.core.implements\palmtree.math.core.implements\autogenerated_inline_func.h

; 310  :         c = _ADDX_UNIT(c, xp[10], yp[10], &zp[10]);

	mov	eax, DWORD PTR [ebx+40]
; File z:\sources\lunor\repos\rougemeilland\palmtree.math.core.implements\palmtree.math.core.implements\pmc_internal.h

; 454  :     return (_addcarryx_u32(carry, u, v, w));

	adcx	eax, DWORD PTR [edi+40]
	mov	DWORD PTR [esi+40], eax
; File z:\sources\lunor\repos\rougemeilland\palmtree.math.core.implements\palmtree.math.core.implements\autogenerated_inline_func.h

; 311  :         c = _ADDX_UNIT(c, xp[11], yp[11], &zp[11]);

	mov	eax, DWORD PTR [ebx+44]
; File z:\sources\lunor\repos\rougemeilland\palmtree.math.core.implements\palmtree.math.core.implements\pmc_internal.h

; 454  :     return (_addcarryx_u32(carry, u, v, w));

	adcx	eax, DWORD PTR [edi+44]
	mov	DWORD PTR [esi+44], eax
; File z:\sources\lunor\repos\rougemeilland\palmtree.math.core.implements\palmtree.math.core.implements\autogenerated_inline_func.h

; 312  :         c = _ADDX_UNIT(c, xp[12], yp[12], &zp[12]);

	mov	eax, DWORD PTR [ebx+48]
; File z:\sources\lunor\repos\rougemeilland\palmtree.math.core.implements\palmtree.math.core.implements\pmc_internal.h

; 454  :     return (_addcarryx_u32(carry, u, v, w));

	adcx	eax, DWORD PTR [edi+48]
	mov	DWORD PTR [esi+48], eax
; File z:\sources\lunor\repos\rougemeilland\palmtree.math.core.implements\palmtree.math.core.implements\autogenerated_inline_func.h

; 313  :         c = _ADDX_UNIT(c, xp[13], yp[13], &zp[13]);

	mov	eax, DWORD PTR [ebx+52]
; File z:\sources\lunor\repos\rougemeilland\palmtree.math.core.implements\palmtree.math.core.implements\pmc_internal.h

; 454  :     return (_addcarryx_u32(carry, u, v, w));

	adcx	eax, DWORD PTR [edi+52]
	mov	DWORD PTR [esi+52], eax
; File z:\sources\lunor\repos\rougemeilland\palmtree.math.core.implements\palmtree.math.core.implements\autogenerated_inline_func.h

; 314  :         c = _ADDX_UNIT(c, xp[14], yp[14], &zp[14]);

	mov	eax, DWORD PTR [ebx+56]
; File z:\sources\lunor\repos\rougemeilland\palmtree.math.core.implements\palmtree.math.core.implements\pmc_internal.h

; 454  :     return (_addcarryx_u32(carry, u, v, w));

	adcx	eax, DWORD PTR [edi+56]
	mov	DWORD PTR [esi+56], eax
; File z:\sources\lunor\repos\rougemeilland\palmtree.math.core.implements\palmtree.math.core.implements\autogenerated_inline_func.h

; 315  :         c = _ADDX_UNIT(c, xp[15], yp[15], &zp[15]);

	mov	eax, DWORD PTR [ebx+60]
; File z:\sources\lunor\repos\rougemeilland\palmtree.math.core.implements\palmtree.math.core.implements\pmc_internal.h

; 454  :     return (_addcarryx_u32(carry, u, v, w));

	adcx	eax, DWORD PTR [edi+60]
	mov	DWORD PTR [esi+60], eax
; File z:\sources\lunor\repos\rougemeilland\palmtree.math.core.implements\palmtree.math.core.implements\autogenerated_inline_func.h

; 316  :         c = _ADDX_UNIT(c, xp[16], yp[16], &zp[16]);

	mov	eax, DWORD PTR [ebx+64]
; File z:\sources\lunor\repos\rougemeilland\palmtree.math.core.implements\palmtree.math.core.implements\pmc_internal.h

; 454  :     return (_addcarryx_u32(carry, u, v, w));

	adcx	eax, DWORD PTR [edi+64]
	mov	DWORD PTR [esi+64], eax
; File z:\sources\lunor\repos\rougemeilland\palmtree.math.core.implements\palmtree.math.core.implements\autogenerated_inline_func.h

; 317  :         c = _ADDX_UNIT(c, xp[17], yp[17], &zp[17]);

	mov	eax, DWORD PTR [ebx+68]
; File z:\sources\lunor\repos\rougemeilland\palmtree.math.core.implements\palmtree.math.core.implements\pmc_internal.h

; 454  :     return (_addcarryx_u32(carry, u, v, w));

	adcx	eax, DWORD PTR [edi+68]
	mov	DWORD PTR [esi+68], eax
; File z:\sources\lunor\repos\rougemeilland\palmtree.math.core.implements\palmtree.math.core.implements\autogenerated_inline_func.h

; 318  :         c = _ADDX_UNIT(c, xp[18], yp[18], &zp[18]);

	mov	eax, DWORD PTR [ebx+72]
; File z:\sources\lunor\repos\rougemeilland\palmtree.math.core.implements\palmtree.math.core.implements\pmc_internal.h

; 454  :     return (_addcarryx_u32(carry, u, v, w));

	adcx	eax, DWORD PTR [edi+72]
	mov	DWORD PTR [esi+72], eax
; File z:\sources\lunor\repos\rougemeilland\palmtree.math.core.implements\palmtree.math.core.implements\autogenerated_inline_func.h

; 319  :         c = _ADDX_UNIT(c, xp[19], yp[19], &zp[19]);

	mov	eax, DWORD PTR [ebx+76]
; File z:\sources\lunor\repos\rougemeilland\palmtree.math.core.implements\palmtree.math.core.implements\pmc_internal.h

; 454  :     return (_addcarryx_u32(carry, u, v, w));

	adcx	eax, DWORD PTR [edi+76]
	mov	DWORD PTR [esi+76], eax
; File z:\sources\lunor\repos\rougemeilland\palmtree.math.core.implements\palmtree.math.core.implements\autogenerated_inline_func.h

; 320  :         c = _ADDX_UNIT(c, xp[20], yp[20], &zp[20]);

	mov	eax, DWORD PTR [ebx+80]
; File z:\sources\lunor\repos\rougemeilland\palmtree.math.core.implements\palmtree.math.core.implements\pmc_internal.h

; 454  :     return (_addcarryx_u32(carry, u, v, w));

	adcx	eax, DWORD PTR [edi+80]
	mov	DWORD PTR [esi+80], eax
; File z:\sources\lunor\repos\rougemeilland\palmtree.math.core.implements\palmtree.math.core.implements\autogenerated_inline_func.h

; 321  :         c = _ADDX_UNIT(c, xp[21], yp[21], &zp[21]);

	mov	eax, DWORD PTR [ebx+84]
; File z:\sources\lunor\repos\rougemeilland\palmtree.math.core.implements\palmtree.math.core.implements\pmc_internal.h

; 454  :     return (_addcarryx_u32(carry, u, v, w));

	adcx	eax, DWORD PTR [edi+84]
	mov	DWORD PTR [esi+84], eax
; File z:\sources\lunor\repos\rougemeilland\palmtree.math.core.implements\palmtree.math.core.implements\autogenerated_inline_func.h

; 322  :         c = _ADDX_UNIT(c, xp[22], yp[22], &zp[22]);

	mov	eax, DWORD PTR [ebx+88]
; File z:\sources\lunor\repos\rougemeilland\palmtree.math.core.implements\palmtree.math.core.implements\pmc_internal.h

; 454  :     return (_addcarryx_u32(carry, u, v, w));

	adcx	eax, DWORD PTR [edi+88]
	mov	DWORD PTR [esi+88], eax
; File z:\sources\lunor\repos\rougemeilland\palmtree.math.core.implements\palmtree.math.core.implements\autogenerated_inline_func.h

; 323  :         c = _ADDX_UNIT(c, xp[23], yp[23], &zp[23]);

	mov	eax, DWORD PTR [ebx+92]
; File z:\sources\lunor\repos\rougemeilland\palmtree.math.core.implements\palmtree.math.core.implements\pmc_internal.h

; 454  :     return (_addcarryx_u32(carry, u, v, w));

	adcx	eax, DWORD PTR [edi+92]
	mov	DWORD PTR [esi+92], eax
; File z:\sources\lunor\repos\rougemeilland\palmtree.math.core.implements\palmtree.math.core.implements\autogenerated_inline_func.h

; 324  :         c = _ADDX_UNIT(c, xp[24], yp[24], &zp[24]);

	mov	eax, DWORD PTR [ebx+96]
; File z:\sources\lunor\repos\rougemeilland\palmtree.math.core.implements\palmtree.math.core.implements\pmc_internal.h

; 454  :     return (_addcarryx_u32(carry, u, v, w));

	adcx	eax, DWORD PTR [edi+96]
	mov	DWORD PTR [esi+96], eax
; File z:\sources\lunor\repos\rougemeilland\palmtree.math.core.implements\palmtree.math.core.implements\autogenerated_inline_func.h

; 325  :         c = _ADDX_UNIT(c, xp[25], yp[25], &zp[25]);

	mov	eax, DWORD PTR [ebx+100]
; File z:\sources\lunor\repos\rougemeilland\palmtree.math.core.implements\palmtree.math.core.implements\pmc_internal.h

; 454  :     return (_addcarryx_u32(carry, u, v, w));

	adcx	eax, DWORD PTR [edi+100]
	mov	DWORD PTR [esi+100], eax
; File z:\sources\lunor\repos\rougemeilland\palmtree.math.core.implements\palmtree.math.core.implements\autogenerated_inline_func.h

; 326  :         c = _ADDX_UNIT(c, xp[26], yp[26], &zp[26]);

	mov	eax, DWORD PTR [ebx+104]
; File z:\sources\lunor\repos\rougemeilland\palmtree.math.core.implements\palmtree.math.core.implements\pmc_internal.h

; 454  :     return (_addcarryx_u32(carry, u, v, w));

	adcx	eax, DWORD PTR [edi+104]
	mov	DWORD PTR [esi+104], eax
; File z:\sources\lunor\repos\rougemeilland\palmtree.math.core.implements\palmtree.math.core.implements\autogenerated_inline_func.h

; 327  :         c = _ADDX_UNIT(c, xp[27], yp[27], &zp[27]);

	mov	eax, DWORD PTR [ebx+108]
; File z:\sources\lunor\repos\rougemeilland\palmtree.math.core.implements\palmtree.math.core.implements\pmc_internal.h

; 454  :     return (_addcarryx_u32(carry, u, v, w));

	adcx	eax, DWORD PTR [edi+108]
	mov	DWORD PTR [esi+108], eax
; File z:\sources\lunor\repos\rougemeilland\palmtree.math.core.implements\palmtree.math.core.implements\autogenerated_inline_func.h

; 328  :         c = _ADDX_UNIT(c, xp[28], yp[28], &zp[28]);

	mov	eax, DWORD PTR [ebx+112]
; File z:\sources\lunor\repos\rougemeilland\palmtree.math.core.implements\palmtree.math.core.implements\pmc_internal.h

; 454  :     return (_addcarryx_u32(carry, u, v, w));

	adcx	eax, DWORD PTR [edi+112]
	mov	DWORD PTR [esi+112], eax
; File z:\sources\lunor\repos\rougemeilland\palmtree.math.core.implements\palmtree.math.core.implements\autogenerated_inline_func.h

; 329  :         c = _ADDX_UNIT(c, xp[29], yp[29], &zp[29]);

	mov	eax, DWORD PTR [ebx+116]
; File z:\sources\lunor\repos\rougemeilland\palmtree.math.core.implements\palmtree.math.core.implements\pmc_internal.h

; 454  :     return (_addcarryx_u32(carry, u, v, w));

	adcx	eax, DWORD PTR [edi+116]
	mov	DWORD PTR [esi+116], eax
; File z:\sources\lunor\repos\rougemeilland\palmtree.math.core.implements\palmtree.math.core.implements\autogenerated_inline_func.h

; 330  :         c = _ADDX_UNIT(c, xp[30], yp[30], &zp[30]);

	mov	eax, DWORD PTR [ebx+120]
; File z:\sources\lunor\repos\rougemeilland\palmtree.math.core.implements\palmtree.math.core.implements\pmc_internal.h

; 454  :     return (_addcarryx_u32(carry, u, v, w));

	adcx	eax, DWORD PTR [edi+120]
	mov	DWORD PTR [esi+120], eax
; File z:\sources\lunor\repos\rougemeilland\palmtree.math.core.implements\palmtree.math.core.implements\autogenerated_inline_func.h

; 331  :         c = _ADDX_UNIT(c, xp[31], yp[31], &zp[31]);

	mov	eax, DWORD PTR [ebx+124]
; File z:\sources\lunor\repos\rougemeilland\palmtree.math.core.implements\palmtree.math.core.implements\pmc_internal.h

; 454  :     return (_addcarryx_u32(carry, u, v, w));

	adcx	eax, DWORD PTR [edi+124]
	mov	DWORD PTR [esi+124], eax
	setb	dl
; File z:\sources\lunor\repos\rougemeilland\palmtree.math.core.implements\palmtree.math.core.implements\pmc_add.c

; 251  :         xp += 32;

	sub	ebx, -128				; ffffff80H

; 252  :         yp += 32;

	sub	edi, -128				; ffffff80H
	mov	BYTE PTR _c$[ebp], dl

; 253  :         zp += 32;

	sub	esi, -128				; ffffff80H

; 254  :         --count;

	sub	ecx, 1
	jne	$LL2@Add_X_X_us

; 248  :     while (count != 0)

	mov	ecx, DWORD PTR _y_count$1$[ebp]
$LN3@Add_X_X_us:

; 255  :     }
; 256  :     // この時点で未処理の桁は 32 ワード未満のはず
; 257  : 
; 258  :     // 未処理の桁が 16 ワード以上あるなら 16 ワード加算を行う。
; 259  :     if (y_count & 0x10)

	test	cl, 16					; 00000010H
	je	SHORT $LN5@Add_X_X_us

; 260  :     {
; 261  :         c = _ADD_16WORDS_ADCX(c, xp, yp, zp);

	push	esi
	push	edi
	push	ebx
	push	DWORD PTR _c$[ebp]
	call	__ADD_16WORDS_ADCX
	mov	ecx, DWORD PTR _y_count$1$[ebp]
	mov	dl, al
	add	esp, 16					; 00000010H
	mov	BYTE PTR _c$[ebp], dl

; 262  :         xp += 16;

	add	ebx, 64					; 00000040H

; 263  :         yp += 16;

	add	edi, 64					; 00000040H

; 264  :         zp += 16;

	add	esi, 64					; 00000040H
$LN5@Add_X_X_us:

; 265  :     }
; 266  :     // この時点で未処理の桁は 16 ワード未満のはず
; 267  : 
; 268  :     // 未処理の桁が 8 ワード以上あるなら 8 ワード加算を行う。
; 269  :     if (y_count & 0x8)

	test	cl, 8
	je	SHORT $LN6@Add_X_X_us
; File z:\sources\lunor\repos\rougemeilland\palmtree.math.core.implements\palmtree.math.core.implements\autogenerated_inline_func.h

; 3284 :         c = _ADDX_UNIT(c, xp[0], yp[0], &zp[0]);

	mov	eax, DWORD PTR [ebx]
; File z:\sources\lunor\repos\rougemeilland\palmtree.math.core.implements\palmtree.math.core.implements\pmc_internal.h

; 454  :     return (_addcarryx_u32(carry, u, v, w));

	add	dl, 255					; 000000ffH
	adcx	eax, DWORD PTR [edi]
	mov	DWORD PTR [esi], eax
; File z:\sources\lunor\repos\rougemeilland\palmtree.math.core.implements\palmtree.math.core.implements\autogenerated_inline_func.h

; 3285 :         c = _ADDX_UNIT(c, xp[1], yp[1], &zp[1]);

	mov	eax, DWORD PTR [ebx+4]
; File z:\sources\lunor\repos\rougemeilland\palmtree.math.core.implements\palmtree.math.core.implements\pmc_internal.h

; 454  :     return (_addcarryx_u32(carry, u, v, w));

	adcx	eax, DWORD PTR [edi+4]
	mov	DWORD PTR [esi+4], eax
; File z:\sources\lunor\repos\rougemeilland\palmtree.math.core.implements\palmtree.math.core.implements\autogenerated_inline_func.h

; 3286 :         c = _ADDX_UNIT(c, xp[2], yp[2], &zp[2]);

	mov	eax, DWORD PTR [ebx+8]
; File z:\sources\lunor\repos\rougemeilland\palmtree.math.core.implements\palmtree.math.core.implements\pmc_internal.h

; 454  :     return (_addcarryx_u32(carry, u, v, w));

	adcx	eax, DWORD PTR [edi+8]
	mov	DWORD PTR [esi+8], eax
; File z:\sources\lunor\repos\rougemeilland\palmtree.math.core.implements\palmtree.math.core.implements\autogenerated_inline_func.h

; 3287 :         c = _ADDX_UNIT(c, xp[3], yp[3], &zp[3]);

	mov	eax, DWORD PTR [ebx+12]
; File z:\sources\lunor\repos\rougemeilland\palmtree.math.core.implements\palmtree.math.core.implements\pmc_internal.h

; 454  :     return (_addcarryx_u32(carry, u, v, w));

	adcx	eax, DWORD PTR [edi+12]
	mov	DWORD PTR [esi+12], eax
; File z:\sources\lunor\repos\rougemeilland\palmtree.math.core.implements\palmtree.math.core.implements\autogenerated_inline_func.h

; 3288 :         c = _ADDX_UNIT(c, xp[4], yp[4], &zp[4]);

	mov	eax, DWORD PTR [ebx+16]
; File z:\sources\lunor\repos\rougemeilland\palmtree.math.core.implements\palmtree.math.core.implements\pmc_internal.h

; 454  :     return (_addcarryx_u32(carry, u, v, w));

	adcx	eax, DWORD PTR [edi+16]
	mov	DWORD PTR [esi+16], eax
; File z:\sources\lunor\repos\rougemeilland\palmtree.math.core.implements\palmtree.math.core.implements\autogenerated_inline_func.h

; 3289 :         c = _ADDX_UNIT(c, xp[5], yp[5], &zp[5]);

	mov	eax, DWORD PTR [ebx+20]
; File z:\sources\lunor\repos\rougemeilland\palmtree.math.core.implements\palmtree.math.core.implements\pmc_internal.h

; 454  :     return (_addcarryx_u32(carry, u, v, w));

	adcx	eax, DWORD PTR [edi+20]
	mov	DWORD PTR [esi+20], eax
; File z:\sources\lunor\repos\rougemeilland\palmtree.math.core.implements\palmtree.math.core.implements\autogenerated_inline_func.h

; 3290 :         c = _ADDX_UNIT(c, xp[6], yp[6], &zp[6]);

	mov	eax, DWORD PTR [ebx+24]
; File z:\sources\lunor\repos\rougemeilland\palmtree.math.core.implements\palmtree.math.core.implements\pmc_internal.h

; 454  :     return (_addcarryx_u32(carry, u, v, w));

	adcx	eax, DWORD PTR [edi+24]
	mov	DWORD PTR [esi+24], eax
; File z:\sources\lunor\repos\rougemeilland\palmtree.math.core.implements\palmtree.math.core.implements\autogenerated_inline_func.h

; 3291 :         c = _ADDX_UNIT(c, xp[7], yp[7], &zp[7]);

	mov	eax, DWORD PTR [ebx+28]
; File z:\sources\lunor\repos\rougemeilland\palmtree.math.core.implements\palmtree.math.core.implements\pmc_internal.h

; 454  :     return (_addcarryx_u32(carry, u, v, w));

	adcx	eax, DWORD PTR [edi+28]
	mov	DWORD PTR [esi+28], eax
	setb	dl
; File z:\sources\lunor\repos\rougemeilland\palmtree.math.core.implements\palmtree.math.core.implements\pmc_add.c

; 272  :         xp += 8;

	add	ebx, 32					; 00000020H

; 273  :         yp += 8;

	add	edi, 32					; 00000020H
	mov	BYTE PTR _c$[ebp], dl

; 274  :         zp += 8;

	add	esi, 32					; 00000020H
$LN6@Add_X_X_us:

; 275  :     }
; 276  :     // この時点で未処理の桁は 8 ワード未満のはず
; 277  : 
; 278  :     // 未処理の桁が 4 ワード以上あるなら 4 ワード加算を行う。
; 279  :     if (y_count & 0x4)

	test	cl, 4
	je	SHORT $LN7@Add_X_X_us
; File z:\sources\lunor\repos\rougemeilland\palmtree.math.core.implements\palmtree.math.core.implements\autogenerated_inline_func.h

; 3936 :         c = _ADDX_UNIT(c, xp[0], yp[0], &zp[0]);

	mov	eax, DWORD PTR [ebx]
; File z:\sources\lunor\repos\rougemeilland\palmtree.math.core.implements\palmtree.math.core.implements\pmc_internal.h

; 454  :     return (_addcarryx_u32(carry, u, v, w));

	add	dl, 255					; 000000ffH
	adcx	eax, DWORD PTR [edi]
	mov	DWORD PTR [esi], eax
; File z:\sources\lunor\repos\rougemeilland\palmtree.math.core.implements\palmtree.math.core.implements\autogenerated_inline_func.h

; 3937 :         c = _ADDX_UNIT(c, xp[1], yp[1], &zp[1]);

	mov	eax, DWORD PTR [ebx+4]
; File z:\sources\lunor\repos\rougemeilland\palmtree.math.core.implements\palmtree.math.core.implements\pmc_internal.h

; 454  :     return (_addcarryx_u32(carry, u, v, w));

	adcx	eax, DWORD PTR [edi+4]
	mov	DWORD PTR [esi+4], eax
; File z:\sources\lunor\repos\rougemeilland\palmtree.math.core.implements\palmtree.math.core.implements\autogenerated_inline_func.h

; 3938 :         c = _ADDX_UNIT(c, xp[2], yp[2], &zp[2]);

	mov	eax, DWORD PTR [ebx+8]
; File z:\sources\lunor\repos\rougemeilland\palmtree.math.core.implements\palmtree.math.core.implements\pmc_internal.h

; 454  :     return (_addcarryx_u32(carry, u, v, w));

	adcx	eax, DWORD PTR [edi+8]
	mov	DWORD PTR [esi+8], eax
; File z:\sources\lunor\repos\rougemeilland\palmtree.math.core.implements\palmtree.math.core.implements\autogenerated_inline_func.h

; 3939 :         c = _ADDX_UNIT(c, xp[3], yp[3], &zp[3]);

	mov	eax, DWORD PTR [ebx+12]
; File z:\sources\lunor\repos\rougemeilland\palmtree.math.core.implements\palmtree.math.core.implements\pmc_internal.h

; 454  :     return (_addcarryx_u32(carry, u, v, w));

	adcx	eax, DWORD PTR [edi+12]
	mov	DWORD PTR [esi+12], eax
	setb	dl
; File z:\sources\lunor\repos\rougemeilland\palmtree.math.core.implements\palmtree.math.core.implements\pmc_add.c

; 282  :         xp += 4;

	add	ebx, 16					; 00000010H

; 283  :         yp += 4;

	add	edi, 16					; 00000010H
	mov	BYTE PTR _c$[ebp], dl

; 284  :         zp += 4;

	add	esi, 16					; 00000010H
$LN7@Add_X_X_us:

; 285  :     }
; 286  :     // この時点で未処理の桁は 4 ワード未満のはず
; 287  : 
; 288  :     // 未処理の桁が 2 ワード以上あるなら 2 ワード加算を行う。
; 289  :     if (y_count & 0x2)

	test	cl, 2
	je	SHORT $LN8@Add_X_X_us
; File z:\sources\lunor\repos\rougemeilland\palmtree.math.core.implements\palmtree.math.core.implements\autogenerated_inline_func.h

; 4378 :         c = _ADDX_UNIT(c, xp[0], yp[0], &zp[0]);

	mov	eax, DWORD PTR [ebx]
; File z:\sources\lunor\repos\rougemeilland\palmtree.math.core.implements\palmtree.math.core.implements\pmc_internal.h

; 454  :     return (_addcarryx_u32(carry, u, v, w));

	add	dl, 255					; 000000ffH
	adcx	eax, DWORD PTR [edi]
	mov	DWORD PTR [esi], eax
; File z:\sources\lunor\repos\rougemeilland\palmtree.math.core.implements\palmtree.math.core.implements\autogenerated_inline_func.h

; 4379 :         c = _ADDX_UNIT(c, xp[1], yp[1], &zp[1]);

	mov	eax, DWORD PTR [ebx+4]
; File z:\sources\lunor\repos\rougemeilland\palmtree.math.core.implements\palmtree.math.core.implements\pmc_internal.h

; 454  :     return (_addcarryx_u32(carry, u, v, w));

	adcx	eax, DWORD PTR [edi+4]
	mov	DWORD PTR [esi+4], eax
	setb	dl
; File z:\sources\lunor\repos\rougemeilland\palmtree.math.core.implements\palmtree.math.core.implements\pmc_add.c

; 292  :         xp += 2;

	add	ebx, 8

; 293  :         yp += 2;

	add	edi, 8
	mov	BYTE PTR _c$[ebp], dl

; 294  :         zp += 2;

	add	esi, 8
$LN8@Add_X_X_us:

; 295  :     }
; 296  :     // この時点で未処理の桁は 2 ワード未満のはず
; 297  : 
; 298  :     // 未処理の桁が 1 ワード以上あるなら 1 ワード加算を行う。
; 299  :     if (y_count & 0x1)

	test	cl, 1
	je	SHORT $LN9@Add_X_X_us

; 300  :         c = _ADDX_UNIT(c, *xp++, *yp++, zp++);

	mov	ecx, DWORD PTR [ebx]
; File z:\sources\lunor\repos\rougemeilland\palmtree.math.core.implements\palmtree.math.core.implements\pmc_internal.h

; 454  :     return (_addcarryx_u32(carry, u, v, w));

	add	dl, 255					; 000000ffH
	adcx	ecx, DWORD PTR [edi]
	mov	DWORD PTR [esi], ecx
	mov	ecx, DWORD PTR _y_count$1$[ebp]
	setb	al
; File z:\sources\lunor\repos\rougemeilland\palmtree.math.core.implements\palmtree.math.core.implements\pmc_add.c

; 300  :         c = _ADDX_UNIT(c, *xp++, *yp++, zp++);

	add	ebx, 4
	mov	BYTE PTR _c$[ebp], al
	add	esi, 4
$LN9@Add_X_X_us:

; 301  : 
; 302  :     // 残りの桁の繰り上がりを計算し、復帰する。
; 303  :     return (DoCarry(c, xp, x_count - y_count, zp, z_count - y_count));

	mov	eax, DWORD PTR _z_count$1$[ebp]
	sub	eax, ecx
	push	eax
	mov	eax, DWORD PTR _x_count$1$[ebp]
	push	esi
	sub	eax, ecx
	push	eax
	push	ebx
	push	DWORD PTR _c$[ebp]
	call	_DoCarry
	add	esp, 20					; 00000014H
	pop	edi
	pop	esi
	pop	ebx

; 304  : }

	mov	esp, ebp
	pop	ebp
	ret	0
_Add_X_X_using_ADCX ENDP
_TEXT	ENDS
; Function compile flags: /Ogtp
; File z:\sources\lunor\repos\rougemeilland\palmtree.math.core.implements\palmtree.math.core.implements\pmc_add.c
; File z:\sources\lunor\repos\rougemeilland\palmtree.math.core.implements\palmtree.math.core.implements\autogenerated_inline_func.h
; File z:\sources\lunor\repos\rougemeilland\palmtree.math.core.implements\palmtree.math.core.implements\pmc_internal.h
; File z:\sources\lunor\repos\rougemeilland\palmtree.math.core.implements\palmtree.math.core.implements\autogenerated_inline_func.h
; File z:\sources\lunor\repos\rougemeilland\palmtree.math.core.implements\palmtree.math.core.implements\pmc_internal.h
; File z:\sources\lunor\repos\rougemeilland\palmtree.math.core.implements\palmtree.math.core.implements\autogenerated_inline_func.h
; File z:\sources\lunor\repos\rougemeilland\palmtree.math.core.implements\palmtree.math.core.implements\pmc_internal.h
; File z:\sources\lunor\repos\rougemeilland\palmtree.math.core.implements\palmtree.math.core.implements\autogenerated_inline_func.h
; File z:\sources\lunor\repos\rougemeilland\palmtree.math.core.implements\palmtree.math.core.implements\pmc_internal.h
; File z:\sources\lunor\repos\rougemeilland\palmtree.math.core.implements\palmtree.math.core.implements\autogenerated_inline_func.h
; File z:\sources\lunor\repos\rougemeilland\palmtree.math.core.implements\palmtree.math.core.implements\pmc_internal.h
; File z:\sources\lunor\repos\rougemeilland\palmtree.math.core.implements\palmtree.math.core.implements\autogenerated_inline_func.h
; File z:\sources\lunor\repos\rougemeilland\palmtree.math.core.implements\palmtree.math.core.implements\pmc_internal.h
; File z:\sources\lunor\repos\rougemeilland\palmtree.math.core.implements\palmtree.math.core.implements\autogenerated_inline_func.h
; File z:\sources\lunor\repos\rougemeilland\palmtree.math.core.implements\palmtree.math.core.implements\pmc_internal.h
; File z:\sources\lunor\repos\rougemeilland\palmtree.math.core.implements\palmtree.math.core.implements\autogenerated_inline_func.h
; File z:\sources\lunor\repos\rougemeilland\palmtree.math.core.implements\palmtree.math.core.implements\pmc_internal.h
; File z:\sources\lunor\repos\rougemeilland\palmtree.math.core.implements\palmtree.math.core.implements\autogenerated_inline_func.h
; File z:\sources\lunor\repos\rougemeilland\palmtree.math.core.implements\palmtree.math.core.implements\pmc_internal.h
; File z:\sources\lunor\repos\rougemeilland\palmtree.math.core.implements\palmtree.math.core.implements\autogenerated_inline_func.h
; File z:\sources\lunor\repos\rougemeilland\palmtree.math.core.implements\palmtree.math.core.implements\pmc_internal.h
; File z:\sources\lunor\repos\rougemeilland\palmtree.math.core.implements\palmtree.math.core.implements\autogenerated_inline_func.h
; File z:\sources\lunor\repos\rougemeilland\palmtree.math.core.implements\palmtree.math.core.implements\pmc_internal.h
; File z:\sources\lunor\repos\rougemeilland\palmtree.math.core.implements\palmtree.math.core.implements\autogenerated_inline_func.h
; File z:\sources\lunor\repos\rougemeilland\palmtree.math.core.implements\palmtree.math.core.implements\pmc_internal.h
; File z:\sources\lunor\repos\rougemeilland\palmtree.math.core.implements\palmtree.math.core.implements\autogenerated_inline_func.h
; File z:\sources\lunor\repos\rougemeilland\palmtree.math.core.implements\palmtree.math.core.implements\pmc_internal.h
; File z:\sources\lunor\repos\rougemeilland\palmtree.math.core.implements\palmtree.math.core.implements\autogenerated_inline_func.h
; File z:\sources\lunor\repos\rougemeilland\palmtree.math.core.implements\palmtree.math.core.implements\pmc_internal.h
; File z:\sources\lunor\repos\rougemeilland\palmtree.math.core.implements\palmtree.math.core.implements\autogenerated_inline_func.h
; File z:\sources\lunor\repos\rougemeilland\palmtree.math.core.implements\palmtree.math.core.implements\pmc_internal.h
; File z:\sources\lunor\repos\rougemeilland\palmtree.math.core.implements\palmtree.math.core.implements\autogenerated_inline_func.h
; File z:\sources\lunor\repos\rougemeilland\palmtree.math.core.implements\palmtree.math.core.implements\pmc_internal.h
; File z:\sources\lunor\repos\rougemeilland\palmtree.math.core.implements\palmtree.math.core.implements\autogenerated_inline_func.h
; File z:\sources\lunor\repos\rougemeilland\palmtree.math.core.implements\palmtree.math.core.implements\pmc_internal.h
; File z:\sources\lunor\repos\rougemeilland\palmtree.math.core.implements\palmtree.math.core.implements\autogenerated_inline_func.h
; File z:\sources\lunor\repos\rougemeilland\palmtree.math.core.implements\palmtree.math.core.implements\pmc_internal.h
; File z:\sources\lunor\repos\rougemeilland\palmtree.math.core.implements\palmtree.math.core.implements\autogenerated_inline_func.h
; File z:\sources\lunor\repos\rougemeilland\palmtree.math.core.implements\palmtree.math.core.implements\pmc_internal.h
; File z:\sources\lunor\repos\rougemeilland\palmtree.math.core.implements\palmtree.math.core.implements\autogenerated_inline_func.h
; File z:\sources\lunor\repos\rougemeilland\palmtree.math.core.implements\palmtree.math.core.implements\pmc_internal.h
; File z:\sources\lunor\repos\rougemeilland\palmtree.math.core.implements\palmtree.math.core.implements\autogenerated_inline_func.h
; File z:\sources\lunor\repos\rougemeilland\palmtree.math.core.implements\palmtree.math.core.implements\pmc_internal.h
; File z:\sources\lunor\repos\rougemeilland\palmtree.math.core.implements\palmtree.math.core.implements\autogenerated_inline_func.h
; File z:\sources\lunor\repos\rougemeilland\palmtree.math.core.implements\palmtree.math.core.implements\pmc_internal.h
; File z:\sources\lunor\repos\rougemeilland\palmtree.math.core.implements\palmtree.math.core.implements\autogenerated_inline_func.h
; File z:\sources\lunor\repos\rougemeilland\palmtree.math.core.implements\palmtree.math.core.implements\pmc_internal.h
; File z:\sources\lunor\repos\rougemeilland\palmtree.math.core.implements\palmtree.math.core.implements\autogenerated_inline_func.h
; File z:\sources\lunor\repos\rougemeilland\palmtree.math.core.implements\palmtree.math.core.implements\pmc_internal.h
; File z:\sources\lunor\repos\rougemeilland\palmtree.math.core.implements\palmtree.math.core.implements\autogenerated_inline_func.h
; File z:\sources\lunor\repos\rougemeilland\palmtree.math.core.implements\palmtree.math.core.implements\pmc_internal.h
; File z:\sources\lunor\repos\rougemeilland\palmtree.math.core.implements\palmtree.math.core.implements\autogenerated_inline_func.h
; File z:\sources\lunor\repos\rougemeilland\palmtree.math.core.implements\palmtree.math.core.implements\pmc_internal.h
; File z:\sources\lunor\repos\rougemeilland\palmtree.math.core.implements\palmtree.math.core.implements\autogenerated_inline_func.h
; File z:\sources\lunor\repos\rougemeilland\palmtree.math.core.implements\palmtree.math.core.implements\pmc_internal.h
; File z:\sources\lunor\repos\rougemeilland\palmtree.math.core.implements\palmtree.math.core.implements\autogenerated_inline_func.h
; File z:\sources\lunor\repos\rougemeilland\palmtree.math.core.implements\palmtree.math.core.implements\pmc_internal.h
; File z:\sources\lunor\repos\rougemeilland\palmtree.math.core.implements\palmtree.math.core.implements\autogenerated_inline_func.h
; File z:\sources\lunor\repos\rougemeilland\palmtree.math.core.implements\palmtree.math.core.implements\pmc_internal.h
; File z:\sources\lunor\repos\rougemeilland\palmtree.math.core.implements\palmtree.math.core.implements\autogenerated_inline_func.h
; File z:\sources\lunor\repos\rougemeilland\palmtree.math.core.implements\palmtree.math.core.implements\pmc_internal.h
; File z:\sources\lunor\repos\rougemeilland\palmtree.math.core.implements\palmtree.math.core.implements\autogenerated_inline_func.h
; File z:\sources\lunor\repos\rougemeilland\palmtree.math.core.implements\palmtree.math.core.implements\pmc_internal.h
; File z:\sources\lunor\repos\rougemeilland\palmtree.math.core.implements\palmtree.math.core.implements\autogenerated_inline_func.h
; File z:\sources\lunor\repos\rougemeilland\palmtree.math.core.implements\palmtree.math.core.implements\pmc_internal.h
; File z:\sources\lunor\repos\rougemeilland\palmtree.math.core.implements\palmtree.math.core.implements\pmc_add.c
; File z:\sources\lunor\repos\rougemeilland\palmtree.math.core.implements\palmtree.math.core.implements\autogenerated_inline_func.h
; File z:\sources\lunor\repos\rougemeilland\palmtree.math.core.implements\palmtree.math.core.implements\pmc_internal.h
; File z:\sources\lunor\repos\rougemeilland\palmtree.math.core.implements\palmtree.math.core.implements\autogenerated_inline_func.h
; File z:\sources\lunor\repos\rougemeilland\palmtree.math.core.implements\palmtree.math.core.implements\pmc_internal.h
; File z:\sources\lunor\repos\rougemeilland\palmtree.math.core.implements\palmtree.math.core.implements\autogenerated_inline_func.h
; File z:\sources\lunor\repos\rougemeilland\palmtree.math.core.implements\palmtree.math.core.implements\pmc_internal.h
; File z:\sources\lunor\repos\rougemeilland\palmtree.math.core.implements\palmtree.math.core.implements\autogenerated_inline_func.h
; File z:\sources\lunor\repos\rougemeilland\palmtree.math.core.implements\palmtree.math.core.implements\pmc_internal.h
; File z:\sources\lunor\repos\rougemeilland\palmtree.math.core.implements\palmtree.math.core.implements\autogenerated_inline_func.h
; File z:\sources\lunor\repos\rougemeilland\palmtree.math.core.implements\palmtree.math.core.implements\pmc_internal.h
; File z:\sources\lunor\repos\rougemeilland\palmtree.math.core.implements\palmtree.math.core.implements\autogenerated_inline_func.h
; File z:\sources\lunor\repos\rougemeilland\palmtree.math.core.implements\palmtree.math.core.implements\pmc_internal.h
; File z:\sources\lunor\repos\rougemeilland\palmtree.math.core.implements\palmtree.math.core.implements\autogenerated_inline_func.h
; File z:\sources\lunor\repos\rougemeilland\palmtree.math.core.implements\palmtree.math.core.implements\pmc_internal.h
; File z:\sources\lunor\repos\rougemeilland\palmtree.math.core.implements\palmtree.math.core.implements\autogenerated_inline_func.h
; File z:\sources\lunor\repos\rougemeilland\palmtree.math.core.implements\palmtree.math.core.implements\pmc_internal.h
; File z:\sources\lunor\repos\rougemeilland\palmtree.math.core.implements\palmtree.math.core.implements\pmc_add.c
; File z:\sources\lunor\repos\rougemeilland\palmtree.math.core.implements\palmtree.math.core.implements\autogenerated_inline_func.h
; File z:\sources\lunor\repos\rougemeilland\palmtree.math.core.implements\palmtree.math.core.implements\pmc_internal.h
; File z:\sources\lunor\repos\rougemeilland\palmtree.math.core.implements\palmtree.math.core.implements\autogenerated_inline_func.h
; File z:\sources\lunor\repos\rougemeilland\palmtree.math.core.implements\palmtree.math.core.implements\pmc_internal.h
; File z:\sources\lunor\repos\rougemeilland\palmtree.math.core.implements\palmtree.math.core.implements\autogenerated_inline_func.h
; File z:\sources\lunor\repos\rougemeilland\palmtree.math.core.implements\palmtree.math.core.implements\pmc_internal.h
; File z:\sources\lunor\repos\rougemeilland\palmtree.math.core.implements\palmtree.math.core.implements\autogenerated_inline_func.h
; File z:\sources\lunor\repos\rougemeilland\palmtree.math.core.implements\palmtree.math.core.implements\pmc_internal.h
; File z:\sources\lunor\repos\rougemeilland\palmtree.math.core.implements\palmtree.math.core.implements\pmc_add.c
; File z:\sources\lunor\repos\rougemeilland\palmtree.math.core.implements\palmtree.math.core.implements\autogenerated_inline_func.h
; File z:\sources\lunor\repos\rougemeilland\palmtree.math.core.implements\palmtree.math.core.implements\pmc_internal.h
; File z:\sources\lunor\repos\rougemeilland\palmtree.math.core.implements\palmtree.math.core.implements\autogenerated_inline_func.h
; File z:\sources\lunor\repos\rougemeilland\palmtree.math.core.implements\palmtree.math.core.implements\pmc_internal.h
; File z:\sources\lunor\repos\rougemeilland\palmtree.math.core.implements\palmtree.math.core.implements\pmc_add.c
; File z:\sources\lunor\repos\rougemeilland\palmtree.math.core.implements\palmtree.math.core.implements\pmc_internal.h
; File z:\sources\lunor\repos\rougemeilland\palmtree.math.core.implements\palmtree.math.core.implements\pmc_add.c
;	COMDAT _Add_X_X_using_ADC
_TEXT	SEGMENT
_x_count$1$ = -12					; size = 4
_z_count$1$ = -8					; size = 4
_c$ = 8							; size = 1
_x$ = 8							; size = 4
_y_count$1$ = 12					; size = 4
_y$ = 12						; size = 4
_xp$1$ = 16						; size = 4
_z$ = 16						; size = 4
_Add_X_X_using_ADC PROC					; COMDAT

; 153  : {

	push	ebp
	mov	ebp, esp
	sub	esp, 12					; 0000000cH
	push	ebx
	mov	ebx, DWORD PTR _x$[ebp]
	push	esi

; 154  :     // x のワード長が y のワード長以上であるようにする
; 155  :     if (x->UNIT_WORD_COUNT < y->UNIT_WORD_COUNT)
; 156  :     {
; 157  :         NUMBER_HEADER* t = x;
; 158  :         x = y;
; 159  :         y = t;
; 160  :     }
; 161  :     __UNIT_TYPE x_count = x->UNIT_WORD_COUNT;
; 162  :     __UNIT_TYPE y_count = y->UNIT_WORD_COUNT;
; 163  :     __UNIT_TYPE z_count = z->BLOCK_COUNT;

	mov	esi, DWORD PTR _z$[ebp]
	push	edi
	mov	edi, DWORD PTR _y$[ebp]
	mov	edx, DWORD PTR [ebx]
	mov	ecx, DWORD PTR [edi]
	cmp	edx, ecx
	mov	eax, ecx
	cmovae	eax, edx
	mov	DWORD PTR _x_count$1$[ebp], eax
	mov	eax, edx
	cmovae	eax, ecx
	mov	DWORD PTR _y_count$1$[ebp], eax
	mov	eax, DWORD PTR [esi+20]

; 164  :     __UNIT_TYPE* xp = &x->BLOCK[0];
; 165  :     __UNIT_TYPE* yp = &y->BLOCK[0];
; 166  :     __UNIT_TYPE* zp = &z->BLOCK[0];
; 167  :     char c = 0;
; 168  : 
; 169  :     // まず 32 ワードずつ加算をする。
; 170  :     __UNIT_TYPE count = y_count >> 5;

	mov	ecx, DWORD PTR _y_count$1$[ebp]
	mov	esi, DWORD PTR [esi+24]
	mov	DWORD PTR _z_count$1$[ebp], eax
	mov	eax, edi
	cmovae	eax, ebx
	cmovae	ebx, edi
	xor	dl, dl
	mov	BYTE PTR _c$[ebp], dl
	mov	eax, DWORD PTR [eax+24]
	mov	edi, DWORD PTR [ebx+24]
	mov	DWORD PTR _xp$1$[ebp], eax
	mov	eax, ecx

; 171  :     while (count != 0)

	mov	ebx, DWORD PTR _xp$1$[ebp]
	shr	eax, 5
	test	eax, eax
	je	$LN3@Add_X_X_us
	mov	ecx, eax
	npad	4
$LL2@Add_X_X_us:
; File z:\sources\lunor\repos\rougemeilland\palmtree.math.core.implements\palmtree.math.core.implements\autogenerated_inline_func.h

; 47   :         c = _ADD_UNIT(c, xp[0], yp[0], &zp[0]);

	mov	eax, DWORD PTR [ebx]
; File z:\sources\lunor\repos\rougemeilland\palmtree.math.core.implements\palmtree.math.core.implements\pmc_internal.h

; 426  :     return (_addcarry_u32(carry, u, v, w));

	add	dl, 255					; 000000ffH
	adc	eax, DWORD PTR [edi]
	mov	DWORD PTR [esi], eax
; File z:\sources\lunor\repos\rougemeilland\palmtree.math.core.implements\palmtree.math.core.implements\autogenerated_inline_func.h

; 48   :         c = _ADD_UNIT(c, xp[1], yp[1], &zp[1]);

	mov	eax, DWORD PTR [ebx+4]
; File z:\sources\lunor\repos\rougemeilland\palmtree.math.core.implements\palmtree.math.core.implements\pmc_internal.h

; 426  :     return (_addcarry_u32(carry, u, v, w));

	adc	eax, DWORD PTR [edi+4]
	mov	DWORD PTR [esi+4], eax
; File z:\sources\lunor\repos\rougemeilland\palmtree.math.core.implements\palmtree.math.core.implements\autogenerated_inline_func.h

; 49   :         c = _ADD_UNIT(c, xp[2], yp[2], &zp[2]);

	mov	eax, DWORD PTR [ebx+8]
; File z:\sources\lunor\repos\rougemeilland\palmtree.math.core.implements\palmtree.math.core.implements\pmc_internal.h

; 426  :     return (_addcarry_u32(carry, u, v, w));

	adc	eax, DWORD PTR [edi+8]
	mov	DWORD PTR [esi+8], eax
; File z:\sources\lunor\repos\rougemeilland\palmtree.math.core.implements\palmtree.math.core.implements\autogenerated_inline_func.h

; 50   :         c = _ADD_UNIT(c, xp[3], yp[3], &zp[3]);

	mov	eax, DWORD PTR [ebx+12]
; File z:\sources\lunor\repos\rougemeilland\palmtree.math.core.implements\palmtree.math.core.implements\pmc_internal.h

; 426  :     return (_addcarry_u32(carry, u, v, w));

	adc	eax, DWORD PTR [edi+12]
	mov	DWORD PTR [esi+12], eax
; File z:\sources\lunor\repos\rougemeilland\palmtree.math.core.implements\palmtree.math.core.implements\autogenerated_inline_func.h

; 51   :         c = _ADD_UNIT(c, xp[4], yp[4], &zp[4]);

	mov	eax, DWORD PTR [ebx+16]
; File z:\sources\lunor\repos\rougemeilland\palmtree.math.core.implements\palmtree.math.core.implements\pmc_internal.h

; 426  :     return (_addcarry_u32(carry, u, v, w));

	adc	eax, DWORD PTR [edi+16]
	mov	DWORD PTR [esi+16], eax
; File z:\sources\lunor\repos\rougemeilland\palmtree.math.core.implements\palmtree.math.core.implements\autogenerated_inline_func.h

; 52   :         c = _ADD_UNIT(c, xp[5], yp[5], &zp[5]);

	mov	eax, DWORD PTR [ebx+20]
; File z:\sources\lunor\repos\rougemeilland\palmtree.math.core.implements\palmtree.math.core.implements\pmc_internal.h

; 426  :     return (_addcarry_u32(carry, u, v, w));

	adc	eax, DWORD PTR [edi+20]
	mov	DWORD PTR [esi+20], eax
; File z:\sources\lunor\repos\rougemeilland\palmtree.math.core.implements\palmtree.math.core.implements\autogenerated_inline_func.h

; 53   :         c = _ADD_UNIT(c, xp[6], yp[6], &zp[6]);

	mov	eax, DWORD PTR [ebx+24]
; File z:\sources\lunor\repos\rougemeilland\palmtree.math.core.implements\palmtree.math.core.implements\pmc_internal.h

; 426  :     return (_addcarry_u32(carry, u, v, w));

	adc	eax, DWORD PTR [edi+24]
	mov	DWORD PTR [esi+24], eax
; File z:\sources\lunor\repos\rougemeilland\palmtree.math.core.implements\palmtree.math.core.implements\autogenerated_inline_func.h

; 54   :         c = _ADD_UNIT(c, xp[7], yp[7], &zp[7]);

	mov	eax, DWORD PTR [ebx+28]
; File z:\sources\lunor\repos\rougemeilland\palmtree.math.core.implements\palmtree.math.core.implements\pmc_internal.h

; 426  :     return (_addcarry_u32(carry, u, v, w));

	adc	eax, DWORD PTR [edi+28]
	mov	DWORD PTR [esi+28], eax
; File z:\sources\lunor\repos\rougemeilland\palmtree.math.core.implements\palmtree.math.core.implements\autogenerated_inline_func.h

; 55   :         c = _ADD_UNIT(c, xp[8], yp[8], &zp[8]);

	mov	eax, DWORD PTR [ebx+32]
; File z:\sources\lunor\repos\rougemeilland\palmtree.math.core.implements\palmtree.math.core.implements\pmc_internal.h

; 426  :     return (_addcarry_u32(carry, u, v, w));

	adc	eax, DWORD PTR [edi+32]
	mov	DWORD PTR [esi+32], eax
; File z:\sources\lunor\repos\rougemeilland\palmtree.math.core.implements\palmtree.math.core.implements\autogenerated_inline_func.h

; 56   :         c = _ADD_UNIT(c, xp[9], yp[9], &zp[9]);

	mov	eax, DWORD PTR [ebx+36]
; File z:\sources\lunor\repos\rougemeilland\palmtree.math.core.implements\palmtree.math.core.implements\pmc_internal.h

; 426  :     return (_addcarry_u32(carry, u, v, w));

	adc	eax, DWORD PTR [edi+36]
	mov	DWORD PTR [esi+36], eax
; File z:\sources\lunor\repos\rougemeilland\palmtree.math.core.implements\palmtree.math.core.implements\autogenerated_inline_func.h

; 57   :         c = _ADD_UNIT(c, xp[10], yp[10], &zp[10]);

	mov	eax, DWORD PTR [ebx+40]
; File z:\sources\lunor\repos\rougemeilland\palmtree.math.core.implements\palmtree.math.core.implements\pmc_internal.h

; 426  :     return (_addcarry_u32(carry, u, v, w));

	adc	eax, DWORD PTR [edi+40]
	mov	DWORD PTR [esi+40], eax
; File z:\sources\lunor\repos\rougemeilland\palmtree.math.core.implements\palmtree.math.core.implements\autogenerated_inline_func.h

; 58   :         c = _ADD_UNIT(c, xp[11], yp[11], &zp[11]);

	mov	eax, DWORD PTR [ebx+44]
; File z:\sources\lunor\repos\rougemeilland\palmtree.math.core.implements\palmtree.math.core.implements\pmc_internal.h

; 426  :     return (_addcarry_u32(carry, u, v, w));

	adc	eax, DWORD PTR [edi+44]
	mov	DWORD PTR [esi+44], eax
; File z:\sources\lunor\repos\rougemeilland\palmtree.math.core.implements\palmtree.math.core.implements\autogenerated_inline_func.h

; 59   :         c = _ADD_UNIT(c, xp[12], yp[12], &zp[12]);

	mov	eax, DWORD PTR [ebx+48]
; File z:\sources\lunor\repos\rougemeilland\palmtree.math.core.implements\palmtree.math.core.implements\pmc_internal.h

; 426  :     return (_addcarry_u32(carry, u, v, w));

	adc	eax, DWORD PTR [edi+48]
	mov	DWORD PTR [esi+48], eax
; File z:\sources\lunor\repos\rougemeilland\palmtree.math.core.implements\palmtree.math.core.implements\autogenerated_inline_func.h

; 60   :         c = _ADD_UNIT(c, xp[13], yp[13], &zp[13]);

	mov	eax, DWORD PTR [ebx+52]
; File z:\sources\lunor\repos\rougemeilland\palmtree.math.core.implements\palmtree.math.core.implements\pmc_internal.h

; 426  :     return (_addcarry_u32(carry, u, v, w));

	adc	eax, DWORD PTR [edi+52]
	mov	DWORD PTR [esi+52], eax
; File z:\sources\lunor\repos\rougemeilland\palmtree.math.core.implements\palmtree.math.core.implements\autogenerated_inline_func.h

; 61   :         c = _ADD_UNIT(c, xp[14], yp[14], &zp[14]);

	mov	eax, DWORD PTR [ebx+56]
; File z:\sources\lunor\repos\rougemeilland\palmtree.math.core.implements\palmtree.math.core.implements\pmc_internal.h

; 426  :     return (_addcarry_u32(carry, u, v, w));

	adc	eax, DWORD PTR [edi+56]
	mov	DWORD PTR [esi+56], eax
; File z:\sources\lunor\repos\rougemeilland\palmtree.math.core.implements\palmtree.math.core.implements\autogenerated_inline_func.h

; 62   :         c = _ADD_UNIT(c, xp[15], yp[15], &zp[15]);

	mov	eax, DWORD PTR [ebx+60]
; File z:\sources\lunor\repos\rougemeilland\palmtree.math.core.implements\palmtree.math.core.implements\pmc_internal.h

; 426  :     return (_addcarry_u32(carry, u, v, w));

	adc	eax, DWORD PTR [edi+60]
	mov	DWORD PTR [esi+60], eax
; File z:\sources\lunor\repos\rougemeilland\palmtree.math.core.implements\palmtree.math.core.implements\autogenerated_inline_func.h

; 63   :         c = _ADD_UNIT(c, xp[16], yp[16], &zp[16]);

	mov	eax, DWORD PTR [ebx+64]
; File z:\sources\lunor\repos\rougemeilland\palmtree.math.core.implements\palmtree.math.core.implements\pmc_internal.h

; 426  :     return (_addcarry_u32(carry, u, v, w));

	adc	eax, DWORD PTR [edi+64]
	mov	DWORD PTR [esi+64], eax
; File z:\sources\lunor\repos\rougemeilland\palmtree.math.core.implements\palmtree.math.core.implements\autogenerated_inline_func.h

; 64   :         c = _ADD_UNIT(c, xp[17], yp[17], &zp[17]);

	mov	eax, DWORD PTR [ebx+68]
; File z:\sources\lunor\repos\rougemeilland\palmtree.math.core.implements\palmtree.math.core.implements\pmc_internal.h

; 426  :     return (_addcarry_u32(carry, u, v, w));

	adc	eax, DWORD PTR [edi+68]
	mov	DWORD PTR [esi+68], eax
; File z:\sources\lunor\repos\rougemeilland\palmtree.math.core.implements\palmtree.math.core.implements\autogenerated_inline_func.h

; 65   :         c = _ADD_UNIT(c, xp[18], yp[18], &zp[18]);

	mov	eax, DWORD PTR [ebx+72]
; File z:\sources\lunor\repos\rougemeilland\palmtree.math.core.implements\palmtree.math.core.implements\pmc_internal.h

; 426  :     return (_addcarry_u32(carry, u, v, w));

	adc	eax, DWORD PTR [edi+72]
	mov	DWORD PTR [esi+72], eax
; File z:\sources\lunor\repos\rougemeilland\palmtree.math.core.implements\palmtree.math.core.implements\autogenerated_inline_func.h

; 66   :         c = _ADD_UNIT(c, xp[19], yp[19], &zp[19]);

	mov	eax, DWORD PTR [ebx+76]
; File z:\sources\lunor\repos\rougemeilland\palmtree.math.core.implements\palmtree.math.core.implements\pmc_internal.h

; 426  :     return (_addcarry_u32(carry, u, v, w));

	adc	eax, DWORD PTR [edi+76]
	mov	DWORD PTR [esi+76], eax
; File z:\sources\lunor\repos\rougemeilland\palmtree.math.core.implements\palmtree.math.core.implements\autogenerated_inline_func.h

; 67   :         c = _ADD_UNIT(c, xp[20], yp[20], &zp[20]);

	mov	eax, DWORD PTR [ebx+80]
; File z:\sources\lunor\repos\rougemeilland\palmtree.math.core.implements\palmtree.math.core.implements\pmc_internal.h

; 426  :     return (_addcarry_u32(carry, u, v, w));

	adc	eax, DWORD PTR [edi+80]
	mov	DWORD PTR [esi+80], eax
; File z:\sources\lunor\repos\rougemeilland\palmtree.math.core.implements\palmtree.math.core.implements\autogenerated_inline_func.h

; 68   :         c = _ADD_UNIT(c, xp[21], yp[21], &zp[21]);

	mov	eax, DWORD PTR [ebx+84]
; File z:\sources\lunor\repos\rougemeilland\palmtree.math.core.implements\palmtree.math.core.implements\pmc_internal.h

; 426  :     return (_addcarry_u32(carry, u, v, w));

	adc	eax, DWORD PTR [edi+84]
	mov	DWORD PTR [esi+84], eax
; File z:\sources\lunor\repos\rougemeilland\palmtree.math.core.implements\palmtree.math.core.implements\autogenerated_inline_func.h

; 69   :         c = _ADD_UNIT(c, xp[22], yp[22], &zp[22]);

	mov	eax, DWORD PTR [ebx+88]
; File z:\sources\lunor\repos\rougemeilland\palmtree.math.core.implements\palmtree.math.core.implements\pmc_internal.h

; 426  :     return (_addcarry_u32(carry, u, v, w));

	adc	eax, DWORD PTR [edi+88]
	mov	DWORD PTR [esi+88], eax
; File z:\sources\lunor\repos\rougemeilland\palmtree.math.core.implements\palmtree.math.core.implements\autogenerated_inline_func.h

; 70   :         c = _ADD_UNIT(c, xp[23], yp[23], &zp[23]);

	mov	eax, DWORD PTR [ebx+92]
; File z:\sources\lunor\repos\rougemeilland\palmtree.math.core.implements\palmtree.math.core.implements\pmc_internal.h

; 426  :     return (_addcarry_u32(carry, u, v, w));

	adc	eax, DWORD PTR [edi+92]
	mov	DWORD PTR [esi+92], eax
; File z:\sources\lunor\repos\rougemeilland\palmtree.math.core.implements\palmtree.math.core.implements\autogenerated_inline_func.h

; 71   :         c = _ADD_UNIT(c, xp[24], yp[24], &zp[24]);

	mov	eax, DWORD PTR [ebx+96]
; File z:\sources\lunor\repos\rougemeilland\palmtree.math.core.implements\palmtree.math.core.implements\pmc_internal.h

; 426  :     return (_addcarry_u32(carry, u, v, w));

	adc	eax, DWORD PTR [edi+96]
	mov	DWORD PTR [esi+96], eax
; File z:\sources\lunor\repos\rougemeilland\palmtree.math.core.implements\palmtree.math.core.implements\autogenerated_inline_func.h

; 72   :         c = _ADD_UNIT(c, xp[25], yp[25], &zp[25]);

	mov	eax, DWORD PTR [ebx+100]
; File z:\sources\lunor\repos\rougemeilland\palmtree.math.core.implements\palmtree.math.core.implements\pmc_internal.h

; 426  :     return (_addcarry_u32(carry, u, v, w));

	adc	eax, DWORD PTR [edi+100]
	mov	DWORD PTR [esi+100], eax
; File z:\sources\lunor\repos\rougemeilland\palmtree.math.core.implements\palmtree.math.core.implements\autogenerated_inline_func.h

; 73   :         c = _ADD_UNIT(c, xp[26], yp[26], &zp[26]);

	mov	eax, DWORD PTR [ebx+104]
; File z:\sources\lunor\repos\rougemeilland\palmtree.math.core.implements\palmtree.math.core.implements\pmc_internal.h

; 426  :     return (_addcarry_u32(carry, u, v, w));

	adc	eax, DWORD PTR [edi+104]
	mov	DWORD PTR [esi+104], eax
; File z:\sources\lunor\repos\rougemeilland\palmtree.math.core.implements\palmtree.math.core.implements\autogenerated_inline_func.h

; 74   :         c = _ADD_UNIT(c, xp[27], yp[27], &zp[27]);

	mov	eax, DWORD PTR [ebx+108]
; File z:\sources\lunor\repos\rougemeilland\palmtree.math.core.implements\palmtree.math.core.implements\pmc_internal.h

; 426  :     return (_addcarry_u32(carry, u, v, w));

	adc	eax, DWORD PTR [edi+108]
	mov	DWORD PTR [esi+108], eax
; File z:\sources\lunor\repos\rougemeilland\palmtree.math.core.implements\palmtree.math.core.implements\autogenerated_inline_func.h

; 75   :         c = _ADD_UNIT(c, xp[28], yp[28], &zp[28]);

	mov	eax, DWORD PTR [ebx+112]
; File z:\sources\lunor\repos\rougemeilland\palmtree.math.core.implements\palmtree.math.core.implements\pmc_internal.h

; 426  :     return (_addcarry_u32(carry, u, v, w));

	adc	eax, DWORD PTR [edi+112]
	mov	DWORD PTR [esi+112], eax
; File z:\sources\lunor\repos\rougemeilland\palmtree.math.core.implements\palmtree.math.core.implements\autogenerated_inline_func.h

; 76   :         c = _ADD_UNIT(c, xp[29], yp[29], &zp[29]);

	mov	eax, DWORD PTR [ebx+116]
; File z:\sources\lunor\repos\rougemeilland\palmtree.math.core.implements\palmtree.math.core.implements\pmc_internal.h

; 426  :     return (_addcarry_u32(carry, u, v, w));

	adc	eax, DWORD PTR [edi+116]
	mov	DWORD PTR [esi+116], eax
; File z:\sources\lunor\repos\rougemeilland\palmtree.math.core.implements\palmtree.math.core.implements\autogenerated_inline_func.h

; 77   :         c = _ADD_UNIT(c, xp[30], yp[30], &zp[30]);

	mov	eax, DWORD PTR [ebx+120]
; File z:\sources\lunor\repos\rougemeilland\palmtree.math.core.implements\palmtree.math.core.implements\pmc_internal.h

; 426  :     return (_addcarry_u32(carry, u, v, w));

	adc	eax, DWORD PTR [edi+120]
	mov	DWORD PTR [esi+120], eax
; File z:\sources\lunor\repos\rougemeilland\palmtree.math.core.implements\palmtree.math.core.implements\autogenerated_inline_func.h

; 78   :         c = _ADD_UNIT(c, xp[31], yp[31], &zp[31]);

	mov	eax, DWORD PTR [ebx+124]
; File z:\sources\lunor\repos\rougemeilland\palmtree.math.core.implements\palmtree.math.core.implements\pmc_internal.h

; 426  :     return (_addcarry_u32(carry, u, v, w));

	adc	eax, DWORD PTR [edi+124]
	mov	DWORD PTR [esi+124], eax
	setb	dl
; File z:\sources\lunor\repos\rougemeilland\palmtree.math.core.implements\palmtree.math.core.implements\pmc_add.c

; 174  :         xp += 32;

	sub	ebx, -128				; ffffff80H

; 175  :         yp += 32;

	sub	edi, -128				; ffffff80H
	mov	BYTE PTR _c$[ebp], dl

; 176  :         zp += 32;

	sub	esi, -128				; ffffff80H

; 177  :         --count;

	sub	ecx, 1
	jne	$LL2@Add_X_X_us

; 171  :     while (count != 0)

	mov	ecx, DWORD PTR _y_count$1$[ebp]
$LN3@Add_X_X_us:

; 178  :     }
; 179  :     // この時点で未処理の桁は 32 ワード未満のはず
; 180  : 
; 181  :     // 未処理の桁が 16 ワード以上あるなら 16 ワード加算を行う。
; 182  :     if (y_count & 0x10)

	test	cl, 16					; 00000010H
	je	SHORT $LN5@Add_X_X_us

; 183  :     {
; 184  :         c = _ADD_16WORDS_ADC(c, xp, yp, zp);

	push	esi
	push	edi
	push	ebx
	push	DWORD PTR _c$[ebp]
	call	__ADD_16WORDS_ADC
	mov	ecx, DWORD PTR _y_count$1$[ebp]
	mov	dl, al
	add	esp, 16					; 00000010H
	mov	BYTE PTR _c$[ebp], dl

; 185  :         xp += 16;

	add	ebx, 64					; 00000040H

; 186  :         yp += 16;

	add	edi, 64					; 00000040H

; 187  :         zp += 16;

	add	esi, 64					; 00000040H
$LN5@Add_X_X_us:

; 188  :     }
; 189  :     // この時点で未処理の桁は 16 ワード未満のはず
; 190  : 
; 191  :     // 未処理の桁が 8 ワード以上あるなら 8 ワード加算を行う。
; 192  :     if (y_count & 0x8)

	test	cl, 8
	je	SHORT $LN6@Add_X_X_us
; File z:\sources\lunor\repos\rougemeilland\palmtree.math.core.implements\palmtree.math.core.implements\autogenerated_inline_func.h

; 3199 :         c = _ADD_UNIT(c, xp[0], yp[0], &zp[0]);

	mov	eax, DWORD PTR [ebx]
; File z:\sources\lunor\repos\rougemeilland\palmtree.math.core.implements\palmtree.math.core.implements\pmc_internal.h

; 426  :     return (_addcarry_u32(carry, u, v, w));

	add	dl, 255					; 000000ffH
	adc	eax, DWORD PTR [edi]
	mov	DWORD PTR [esi], eax
; File z:\sources\lunor\repos\rougemeilland\palmtree.math.core.implements\palmtree.math.core.implements\autogenerated_inline_func.h

; 3200 :         c = _ADD_UNIT(c, xp[1], yp[1], &zp[1]);

	mov	eax, DWORD PTR [ebx+4]
; File z:\sources\lunor\repos\rougemeilland\palmtree.math.core.implements\palmtree.math.core.implements\pmc_internal.h

; 426  :     return (_addcarry_u32(carry, u, v, w));

	adc	eax, DWORD PTR [edi+4]
	mov	DWORD PTR [esi+4], eax
; File z:\sources\lunor\repos\rougemeilland\palmtree.math.core.implements\palmtree.math.core.implements\autogenerated_inline_func.h

; 3201 :         c = _ADD_UNIT(c, xp[2], yp[2], &zp[2]);

	mov	eax, DWORD PTR [ebx+8]
; File z:\sources\lunor\repos\rougemeilland\palmtree.math.core.implements\palmtree.math.core.implements\pmc_internal.h

; 426  :     return (_addcarry_u32(carry, u, v, w));

	adc	eax, DWORD PTR [edi+8]
	mov	DWORD PTR [esi+8], eax
; File z:\sources\lunor\repos\rougemeilland\palmtree.math.core.implements\palmtree.math.core.implements\autogenerated_inline_func.h

; 3202 :         c = _ADD_UNIT(c, xp[3], yp[3], &zp[3]);

	mov	eax, DWORD PTR [ebx+12]
; File z:\sources\lunor\repos\rougemeilland\palmtree.math.core.implements\palmtree.math.core.implements\pmc_internal.h

; 426  :     return (_addcarry_u32(carry, u, v, w));

	adc	eax, DWORD PTR [edi+12]
	mov	DWORD PTR [esi+12], eax
; File z:\sources\lunor\repos\rougemeilland\palmtree.math.core.implements\palmtree.math.core.implements\autogenerated_inline_func.h

; 3203 :         c = _ADD_UNIT(c, xp[4], yp[4], &zp[4]);

	mov	eax, DWORD PTR [ebx+16]
; File z:\sources\lunor\repos\rougemeilland\palmtree.math.core.implements\palmtree.math.core.implements\pmc_internal.h

; 426  :     return (_addcarry_u32(carry, u, v, w));

	adc	eax, DWORD PTR [edi+16]
	mov	DWORD PTR [esi+16], eax
; File z:\sources\lunor\repos\rougemeilland\palmtree.math.core.implements\palmtree.math.core.implements\autogenerated_inline_func.h

; 3204 :         c = _ADD_UNIT(c, xp[5], yp[5], &zp[5]);

	mov	eax, DWORD PTR [ebx+20]
; File z:\sources\lunor\repos\rougemeilland\palmtree.math.core.implements\palmtree.math.core.implements\pmc_internal.h

; 426  :     return (_addcarry_u32(carry, u, v, w));

	adc	eax, DWORD PTR [edi+20]
	mov	DWORD PTR [esi+20], eax
; File z:\sources\lunor\repos\rougemeilland\palmtree.math.core.implements\palmtree.math.core.implements\autogenerated_inline_func.h

; 3205 :         c = _ADD_UNIT(c, xp[6], yp[6], &zp[6]);

	mov	eax, DWORD PTR [ebx+24]
; File z:\sources\lunor\repos\rougemeilland\palmtree.math.core.implements\palmtree.math.core.implements\pmc_internal.h

; 426  :     return (_addcarry_u32(carry, u, v, w));

	adc	eax, DWORD PTR [edi+24]
	mov	DWORD PTR [esi+24], eax
; File z:\sources\lunor\repos\rougemeilland\palmtree.math.core.implements\palmtree.math.core.implements\autogenerated_inline_func.h

; 3206 :         c = _ADD_UNIT(c, xp[7], yp[7], &zp[7]);

	mov	eax, DWORD PTR [ebx+28]
; File z:\sources\lunor\repos\rougemeilland\palmtree.math.core.implements\palmtree.math.core.implements\pmc_internal.h

; 426  :     return (_addcarry_u32(carry, u, v, w));

	adc	eax, DWORD PTR [edi+28]
	mov	DWORD PTR [esi+28], eax
	setb	dl
; File z:\sources\lunor\repos\rougemeilland\palmtree.math.core.implements\palmtree.math.core.implements\pmc_add.c

; 195  :         xp += 8;

	add	ebx, 32					; 00000020H

; 196  :         yp += 8;

	add	edi, 32					; 00000020H
	mov	BYTE PTR _c$[ebp], dl

; 197  :         zp += 8;

	add	esi, 32					; 00000020H
$LN6@Add_X_X_us:

; 198  :     }
; 199  :     // この時点で未処理の桁は 8 ワード未満のはず
; 200  : 
; 201  :     // 未処理の桁が 4 ワード以上あるなら 4 ワード加算を行う。
; 202  :     if (y_count & 0x4)

	test	cl, 4
	je	SHORT $LN7@Add_X_X_us
; File z:\sources\lunor\repos\rougemeilland\palmtree.math.core.implements\palmtree.math.core.implements\autogenerated_inline_func.h

; 3879 :         c = _ADD_UNIT(c, xp[0], yp[0], &zp[0]);

	mov	eax, DWORD PTR [ebx]
; File z:\sources\lunor\repos\rougemeilland\palmtree.math.core.implements\palmtree.math.core.implements\pmc_internal.h

; 426  :     return (_addcarry_u32(carry, u, v, w));

	add	dl, 255					; 000000ffH
	adc	eax, DWORD PTR [edi]
	mov	DWORD PTR [esi], eax
; File z:\sources\lunor\repos\rougemeilland\palmtree.math.core.implements\palmtree.math.core.implements\autogenerated_inline_func.h

; 3880 :         c = _ADD_UNIT(c, xp[1], yp[1], &zp[1]);

	mov	eax, DWORD PTR [ebx+4]
; File z:\sources\lunor\repos\rougemeilland\palmtree.math.core.implements\palmtree.math.core.implements\pmc_internal.h

; 426  :     return (_addcarry_u32(carry, u, v, w));

	adc	eax, DWORD PTR [edi+4]
	mov	DWORD PTR [esi+4], eax
; File z:\sources\lunor\repos\rougemeilland\palmtree.math.core.implements\palmtree.math.core.implements\autogenerated_inline_func.h

; 3881 :         c = _ADD_UNIT(c, xp[2], yp[2], &zp[2]);

	mov	eax, DWORD PTR [ebx+8]
; File z:\sources\lunor\repos\rougemeilland\palmtree.math.core.implements\palmtree.math.core.implements\pmc_internal.h

; 426  :     return (_addcarry_u32(carry, u, v, w));

	adc	eax, DWORD PTR [edi+8]
	mov	DWORD PTR [esi+8], eax
; File z:\sources\lunor\repos\rougemeilland\palmtree.math.core.implements\palmtree.math.core.implements\autogenerated_inline_func.h

; 3882 :         c = _ADD_UNIT(c, xp[3], yp[3], &zp[3]);

	mov	eax, DWORD PTR [ebx+12]
; File z:\sources\lunor\repos\rougemeilland\palmtree.math.core.implements\palmtree.math.core.implements\pmc_internal.h

; 426  :     return (_addcarry_u32(carry, u, v, w));

	adc	eax, DWORD PTR [edi+12]
	mov	DWORD PTR [esi+12], eax
	setb	dl
; File z:\sources\lunor\repos\rougemeilland\palmtree.math.core.implements\palmtree.math.core.implements\pmc_add.c

; 205  :         xp += 4;

	add	ebx, 16					; 00000010H

; 206  :         yp += 4;

	add	edi, 16					; 00000010H
	mov	BYTE PTR _c$[ebp], dl

; 207  :         zp += 4;

	add	esi, 16					; 00000010H
$LN7@Add_X_X_us:

; 208  :     }
; 209  :     // この時点で未処理の桁は 4 ワード未満のはず
; 210  : 
; 211  :     // 未処理の桁が 2 ワード以上あるなら 2 ワード加算を行う。
; 212  :     if (y_count & 0x2)

	test	cl, 2
	je	SHORT $LN8@Add_X_X_us
; File z:\sources\lunor\repos\rougemeilland\palmtree.math.core.implements\palmtree.math.core.implements\autogenerated_inline_func.h

; 4335 :         c = _ADD_UNIT(c, xp[0], yp[0], &zp[0]);

	mov	eax, DWORD PTR [ebx]
; File z:\sources\lunor\repos\rougemeilland\palmtree.math.core.implements\palmtree.math.core.implements\pmc_internal.h

; 426  :     return (_addcarry_u32(carry, u, v, w));

	add	dl, 255					; 000000ffH
	adc	eax, DWORD PTR [edi]
	mov	DWORD PTR [esi], eax
; File z:\sources\lunor\repos\rougemeilland\palmtree.math.core.implements\palmtree.math.core.implements\autogenerated_inline_func.h

; 4336 :         c = _ADD_UNIT(c, xp[1], yp[1], &zp[1]);

	mov	eax, DWORD PTR [ebx+4]
; File z:\sources\lunor\repos\rougemeilland\palmtree.math.core.implements\palmtree.math.core.implements\pmc_internal.h

; 426  :     return (_addcarry_u32(carry, u, v, w));

	adc	eax, DWORD PTR [edi+4]
	mov	DWORD PTR [esi+4], eax
	setb	dl
; File z:\sources\lunor\repos\rougemeilland\palmtree.math.core.implements\palmtree.math.core.implements\pmc_add.c

; 215  :         xp += 2;

	add	ebx, 8

; 216  :         yp += 2;

	add	edi, 8
	mov	BYTE PTR _c$[ebp], dl

; 217  :         zp += 2;

	add	esi, 8
$LN8@Add_X_X_us:

; 218  :     }
; 219  :     // この時点で未処理の桁は 2 ワード未満のはず
; 220  : 
; 221  :     // 未処理の桁が 1 ワード以上あるなら 1 ワード加算を行う。
; 222  :     if (y_count & 0x1)

	test	cl, 1
	je	SHORT $LN9@Add_X_X_us

; 223  :         c = _ADD_UNIT(c, *xp++, *yp++, zp++);

	mov	ecx, DWORD PTR [ebx]
; File z:\sources\lunor\repos\rougemeilland\palmtree.math.core.implements\palmtree.math.core.implements\pmc_internal.h

; 426  :     return (_addcarry_u32(carry, u, v, w));

	add	dl, 255					; 000000ffH
	adc	ecx, DWORD PTR [edi]
	mov	DWORD PTR [esi], ecx
	mov	ecx, DWORD PTR _y_count$1$[ebp]
	setb	al
; File z:\sources\lunor\repos\rougemeilland\palmtree.math.core.implements\palmtree.math.core.implements\pmc_add.c

; 223  :         c = _ADD_UNIT(c, *xp++, *yp++, zp++);

	add	ebx, 4
	mov	BYTE PTR _c$[ebp], al
	add	esi, 4
$LN9@Add_X_X_us:

; 224  : 
; 225  :     // 残りの桁の繰り上がりを計算し、復帰する。
; 226  :     return (DoCarry(c, xp, x_count - y_count, zp, z_count - y_count));

	mov	eax, DWORD PTR _z_count$1$[ebp]
	sub	eax, ecx
	push	eax
	mov	eax, DWORD PTR _x_count$1$[ebp]
	push	esi
	sub	eax, ecx
	push	eax
	push	ebx
	push	DWORD PTR _c$[ebp]
	call	_DoCarry
	add	esp, 20					; 00000014H
	pop	edi
	pop	esi
	pop	ebx

; 227  : }

	mov	esp, ebp
	pop	ebp
	ret	0
_Add_X_X_using_ADC ENDP
_TEXT	ENDS
; Function compile flags: /Ogtp
; File z:\sources\lunor\repos\rougemeilland\palmtree.math.core.implements\palmtree.math.core.implements\pmc_add.c
; File z:\sources\lunor\repos\rougemeilland\palmtree.math.core.implements\palmtree.math.core.implements\pmc_internal.h
; File z:\sources\lunor\repos\rougemeilland\palmtree.math.core.implements\palmtree.math.core.implements\pmc_add.c
; File z:\sources\lunor\repos\rougemeilland\palmtree.math.core.implements\palmtree.math.core.implements\pmc_internal.h
; File z:\sources\lunor\repos\rougemeilland\palmtree.math.core.implements\palmtree.math.core.implements\pmc_add.c
; File z:\sources\lunor\repos\rougemeilland\palmtree.math.core.implements\palmtree.math.core.implements\pmc_internal.h
; File z:\sources\lunor\repos\rougemeilland\palmtree.math.core.implements\palmtree.math.core.implements\pmc_add.c
;	COMDAT _Add_X_2W
_TEXT	SEGMENT
_c$ = 8							; size = 1
_x$ = 8							; size = 4
_y_hi$ = 12						; size = 4
_y_lo$ = 16						; size = 4
_z$ = 20						; size = 4
_Add_X_2W PROC						; COMDAT

; 110  : {

	push	ebp
	mov	ebp, esp

; 111  :     __UNIT_TYPE x_count = x->UNIT_WORD_COUNT;

	mov	ecx, DWORD PTR _x$[ebp]

; 112  :     __UNIT_TYPE z_count = z->BLOCK_COUNT;

	mov	eax, DWORD PTR _z$[ebp]
	push	ebx
	push	esi

; 113  :     __UNIT_TYPE* xp = &x->BLOCK[0];

	mov	esi, DWORD PTR [ecx+24]
	mov	ebx, DWORD PTR [eax+20]

; 114  :     __UNIT_TYPE* zp = &z->BLOCK[0];

	mov	edx, DWORD PTR [eax+24]
	push	edi
	mov	edi, DWORD PTR [ecx]
	mov	ecx, DWORD PTR [esi]

; 115  :     char c;
; 116  : 
; 117  :     if (x_count < 2)

	cmp	edi, 2
	jae	SHORT $LN2@Add_X_2W
; File z:\sources\lunor\repos\rougemeilland\palmtree.math.core.implements\palmtree.math.core.implements\pmc_internal.h

; 426  :     return (_addcarry_u32(carry, u, v, w));

	add	ecx, DWORD PTR _y_lo$[ebp]
	mov	eax, 0
	mov	DWORD PTR [edx], ecx
	adc	eax, DWORD PTR _y_hi$[ebp]
	mov	DWORD PTR [edx+4], eax
	setb	cl
; File z:\sources\lunor\repos\rougemeilland\palmtree.math.core.implements\palmtree.math.core.implements\pmc_add.c

; 128  :         if (c)

	test	cl, cl
	je	SHORT $LN4@Add_X_2W

; 129  :             zp[2] = 1;

	mov	DWORD PTR [edx+8], 1
$LN4@Add_X_2W:
	pop	edi

; 148  :     }
; 149  : }

	pop	esi
	xor	eax, eax
	pop	ebx
	pop	ebp
	ret	0
$LN2@Add_X_2W:
; File z:\sources\lunor\repos\rougemeilland\palmtree.math.core.implements\palmtree.math.core.implements\pmc_internal.h

; 426  :     return (_addcarry_u32(carry, u, v, w));

	add	ecx, DWORD PTR _y_lo$[ebp]
	mov	DWORD PTR [edx], ecx
; File z:\sources\lunor\repos\rougemeilland\palmtree.math.core.implements\palmtree.math.core.implements\pmc_add.c

; 142  :         c = _ADD_UNIT(c, *xp++, y_hi, zp++);

	mov	ecx, DWORD PTR [esi+4]
; File z:\sources\lunor\repos\rougemeilland\palmtree.math.core.implements\palmtree.math.core.implements\pmc_internal.h

; 426  :     return (_addcarry_u32(carry, u, v, w));

	setb	al
	add	al, 255					; 000000ffH
	adc	ecx, DWORD PTR _y_hi$[ebp]
	mov	DWORD PTR [edx+4], ecx
	setb	al
; File z:\sources\lunor\repos\rougemeilland\palmtree.math.core.implements\palmtree.math.core.implements\pmc_add.c

; 142  :         c = _ADD_UNIT(c, *xp++, y_hi, zp++);

	mov	BYTE PTR _c$[ebp], al

; 143  :         x_count -= 2;
; 144  :         z_count -= 2;

	lea	eax, DWORD PTR [ebx-2]

; 145  : 
; 146  :         // 残りの桁の繰り上がりを計算し、復帰する。
; 147  :         return (DoCarry(c, xp, x_count, zp, z_count));

	push	eax
	lea	eax, DWORD PTR [edx+8]
	push	eax
	lea	eax, DWORD PTR [edi-2]
	push	eax
	lea	eax, DWORD PTR [esi+8]
	push	eax
	push	DWORD PTR _c$[ebp]
	call	_DoCarry
	add	esp, 20					; 00000014H
	pop	edi

; 148  :     }
; 149  : }

	pop	esi
	pop	ebx
	pop	ebp
	ret	0
_Add_X_2W ENDP
_TEXT	ENDS
; Function compile flags: /Ogtp
; File z:\sources\lunor\repos\rougemeilland\palmtree.math.core.implements\palmtree.math.core.implements\pmc_add.c
; File z:\sources\lunor\repos\rougemeilland\palmtree.math.core.implements\palmtree.math.core.implements\pmc_internal.h
; File z:\sources\lunor\repos\rougemeilland\palmtree.math.core.implements\palmtree.math.core.implements\pmc_add.c
;	COMDAT _Add_X_1W
_TEXT	SEGMENT
_c$ = 8							; size = 1
_x$ = 8							; size = 4
_y$ = 12						; size = 4
_z$ = 16						; size = 4
_Add_X_1W PROC						; COMDAT

; 93   : {

	push	ebp
	mov	ebp, esp

; 94   :     __UNIT_TYPE x_count = x->UNIT_WORD_COUNT;

	mov	ecx, DWORD PTR _x$[ebp]

; 95   :     __UNIT_TYPE z_count = z->BLOCK_COUNT;

	mov	eax, DWORD PTR _z$[ebp]
	push	ebx
	push	esi
	mov	ebx, DWORD PTR [ecx]
	mov	edx, DWORD PTR [eax+20]

; 96   :     __UNIT_TYPE* xp = &x->BLOCK[0];
; 97   :     __UNIT_TYPE* zp = &z->BLOCK[0];

	mov	esi, DWORD PTR [eax+24]
	push	edi
	mov	edi, DWORD PTR [ecx+24]

; 101  :     c = _ADD_UNIT(0, *xp++, y, zp++);

	mov	ecx, DWORD PTR [edi]
; File z:\sources\lunor\repos\rougemeilland\palmtree.math.core.implements\palmtree.math.core.implements\pmc_internal.h

; 426  :     return (_addcarry_u32(carry, u, v, w));

	add	ecx, DWORD PTR _y$[ebp]
	mov	DWORD PTR [esi], ecx
	setb	al
; File z:\sources\lunor\repos\rougemeilland\palmtree.math.core.implements\palmtree.math.core.implements\pmc_add.c

; 101  :     c = _ADD_UNIT(0, *xp++, y, zp++);

	mov	BYTE PTR _c$[ebp], al

; 102  :     --x_count;
; 103  :     --z_count;

	lea	eax, DWORD PTR [edx-1]

; 104  : 
; 105  :     // 残りの桁の繰上りを行い復帰する。
; 106  :     return (DoCarry(c, xp, x_count, zp, z_count));

	push	eax
	lea	eax, DWORD PTR [esi+4]
	push	eax
	lea	eax, DWORD PTR [ebx-1]
	push	eax
	lea	eax, DWORD PTR [edi+4]
	push	eax
	push	DWORD PTR _c$[ebp]
	call	_DoCarry
	add	esp, 20					; 00000014H
	pop	edi
	pop	esi
	pop	ebx

; 107  : }

	pop	ebp
	ret	0
_Add_X_1W ENDP
_TEXT	ENDS
; Function compile flags: /Ogtp
; File z:\sources\lunor\repos\rougemeilland\palmtree.math.core.implements\palmtree.math.core.implements\pmc_add.c
; File z:\sources\lunor\repos\rougemeilland\palmtree.math.core.implements\palmtree.math.core.implements\pmc_internal.h
; File z:\sources\lunor\repos\rougemeilland\palmtree.math.core.implements\palmtree.math.core.implements\pmc_add.c
;	COMDAT _DoCarry
_TEXT	SEGMENT
_c$ = 8							; size = 1
_xp$ = 12						; size = 4
_x_count$ = 16						; size = 4
_op$ = 20						; size = 4
_o_count$ = 24						; size = 4
_DoCarry PROC						; COMDAT

; 41   : {

	push	ebp
	mov	ebp, esp

; 42   :     // 繰り上がりを続く限り行う
; 43   :     for (;;)
; 44   :     {
; 45   :         if (x_count <= 0)

	mov	edx, DWORD PTR _x_count$[ebp]
	mov	eax, DWORD PTR _op$[ebp]
	push	ebx
	mov	bl, BYTE PTR _c$[ebp]
	push	esi
	push	edi
	mov	edi, DWORD PTR _o_count$[ebp]
	test	edx, edx
	je	SHORT $LN18@DoCarry
	mov	esi, DWORD PTR _xp$[ebp]
	npad	7
$LL2@DoCarry:

; 60   :             }
; 61   : 
; 62   :             // xの最上位に達してしまった場合はいずれにしろループを中断して正常復帰する。
; 63   : 
; 64   :             return (PMC_STATUS_OK);
; 65   :         }
; 66   :         else if (c)

	test	bl, bl
	je	SHORT $LN17@DoCarry

; 71   :             c = _ADD_UNIT(c, *xp++, 0, op++);

	mov	ecx, DWORD PTR [esi]
; File z:\sources\lunor\repos\rougemeilland\palmtree.math.core.implements\palmtree.math.core.implements\pmc_internal.h

; 426  :     return (_addcarry_u32(carry, u, v, w));

	add	bl, 255					; 000000ffH
	adc	ecx, 0
	mov	DWORD PTR [eax], ecx
	setb	bl
; File z:\sources\lunor\repos\rougemeilland\palmtree.math.core.implements\palmtree.math.core.implements\pmc_add.c

; 71   :             c = _ADD_UNIT(c, *xp++, 0, op++);

	add	esi, 4
	add	eax, 4

; 72   :             --x_count;
; 73   :             --o_count;

	dec	edi
	sub	edx, 1
	jne	SHORT $LL2@DoCarry
$LN18@DoCarry:

; 46   :         {
; 47   :             // x の最上位まで達してしまった場合
; 48   : 
; 49   :             if (c)

	test	bl, bl
	je	SHORT $LN6@DoCarry

; 50   :             {
; 51   :                 // かつそれでも繰り上がりを行う必要がある場合
; 52   :                 if (o_count <= 0)

	test	edi, edi
	jne	SHORT $LN10@DoCarry

; 84   :                 --o_count;
; 85   :             }
; 86   :             return (PMC_STATUS_OK);
; 87   :         }
; 88   :     }
; 89   : }

	pop	edi
	pop	esi
	mov	eax, -256				; ffffff00H
	pop	ebx
	pop	ebp
	ret	0
$LN17@DoCarry:

; 74   :         }
; 75   :         else
; 76   :         {
; 77   :             // xの最上位に達しておらず、かつキャリーが立っていない場合
; 78   : 
; 79   :             // 繰り上がりを中断し、xの残りのデータをzにそのまま複写し、正常復帰する。
; 80   :             while (x_count > 0)

	test	edx, edx
	je	SHORT $LN6@DoCarry
	sub	esi, eax
$LL5@DoCarry:

; 81   :             {
; 82   :                 *op++ = *xp++;

	mov	ecx, DWORD PTR [esi+eax]
	lea	eax, DWORD PTR [eax+4]
	mov	DWORD PTR [eax-4], ecx

; 83   :                 --x_count;

	sub	edx, 1
	jne	SHORT $LL5@DoCarry

; 84   :                 --o_count;
; 85   :             }
; 86   :             return (PMC_STATUS_OK);
; 87   :         }
; 88   :     }
; 89   : }

	pop	edi
	pop	esi
	xor	eax, eax
	pop	ebx
	pop	ebp
	ret	0
$LN10@DoCarry:

; 53   :                 {
; 54   :                     // しかし z がもう終端に達してしまった場合
; 55   : 
; 56   :                     // z のバッファはこの余裕を見込んでいるのでこのルートには到達しないはず。
; 57   :                     return (PMC_STATUS_INTERNAL_ERROR);
; 58   :                 }
; 59   :                 *op = 1;

	mov	DWORD PTR [eax], 1
$LN6@DoCarry:
	pop	edi

; 84   :                 --o_count;
; 85   :             }
; 86   :             return (PMC_STATUS_OK);
; 87   :         }
; 88   :     }
; 89   : }

	pop	esi
	xor	eax, eax
	pop	ebx
	pop	ebp
	ret	0
_DoCarry ENDP
_TEXT	ENDS
; Function compile flags: /Ogtp
; File z:\sources\lunor\repos\rougemeilland\palmtree.math.core.implements\palmtree.math.core.implements\autogenerated_inline_func.h
; File z:\sources\lunor\repos\rougemeilland\palmtree.math.core.implements\palmtree.math.core.implements\pmc_internal.h
; File z:\sources\lunor\repos\rougemeilland\palmtree.math.core.implements\palmtree.math.core.implements\autogenerated_inline_func.h
; File z:\sources\lunor\repos\rougemeilland\palmtree.math.core.implements\palmtree.math.core.implements\pmc_internal.h
; File z:\sources\lunor\repos\rougemeilland\palmtree.math.core.implements\palmtree.math.core.implements\autogenerated_inline_func.h
; File z:\sources\lunor\repos\rougemeilland\palmtree.math.core.implements\palmtree.math.core.implements\pmc_internal.h
; File z:\sources\lunor\repos\rougemeilland\palmtree.math.core.implements\palmtree.math.core.implements\autogenerated_inline_func.h
; File z:\sources\lunor\repos\rougemeilland\palmtree.math.core.implements\palmtree.math.core.implements\pmc_internal.h
; File z:\sources\lunor\repos\rougemeilland\palmtree.math.core.implements\palmtree.math.core.implements\autogenerated_inline_func.h
; File z:\sources\lunor\repos\rougemeilland\palmtree.math.core.implements\palmtree.math.core.implements\pmc_internal.h
; File z:\sources\lunor\repos\rougemeilland\palmtree.math.core.implements\palmtree.math.core.implements\autogenerated_inline_func.h
;	COMDAT __ADD_2WORDS_ADCX
_TEXT	SEGMENT
_c$ = 8							; size = 1
_xp$ = 12						; size = 4
_yp$ = 16						; size = 4
_zp$ = 20						; size = 4
__ADD_2WORDS_ADCX PROC					; COMDAT

; 4376 :     {

	push	ebp
	mov	ebp, esp

; 4378 :         c = _ADDX_UNIT(c, xp[0], yp[0], &zp[0]);

	mov	edx, DWORD PTR _xp$[ebp]
; File z:\sources\lunor\repos\rougemeilland\palmtree.math.core.implements\palmtree.math.core.implements\pmc_internal.h

; 454  :     return (_addcarryx_u32(carry, u, v, w));

	mov	al, BYTE PTR _c$[ebp]
; File z:\sources\lunor\repos\rougemeilland\palmtree.math.core.implements\palmtree.math.core.implements\autogenerated_inline_func.h

; 4376 :     {

	push	esi

; 4378 :         c = _ADDX_UNIT(c, xp[0], yp[0], &zp[0]);

	mov	esi, DWORD PTR _yp$[ebp]
; File z:\sources\lunor\repos\rougemeilland\palmtree.math.core.implements\palmtree.math.core.implements\pmc_internal.h

; 454  :     return (_addcarryx_u32(carry, u, v, w));

	add	al, 255					; 000000ffH
; File z:\sources\lunor\repos\rougemeilland\palmtree.math.core.implements\palmtree.math.core.implements\autogenerated_inline_func.h

; 4378 :         c = _ADDX_UNIT(c, xp[0], yp[0], &zp[0]);

	mov	ecx, DWORD PTR [edx]
	push	edi
; File z:\sources\lunor\repos\rougemeilland\palmtree.math.core.implements\palmtree.math.core.implements\pmc_internal.h

; 454  :     return (_addcarryx_u32(carry, u, v, w));

	mov	edi, DWORD PTR _zp$[ebp]
	adcx	ecx, DWORD PTR [esi]
	mov	DWORD PTR [edi], ecx
; File z:\sources\lunor\repos\rougemeilland\palmtree.math.core.implements\palmtree.math.core.implements\autogenerated_inline_func.h

; 4379 :         c = _ADDX_UNIT(c, xp[1], yp[1], &zp[1]);

	mov	ecx, DWORD PTR [edx+4]
; File z:\sources\lunor\repos\rougemeilland\palmtree.math.core.implements\palmtree.math.core.implements\pmc_internal.h

; 454  :     return (_addcarryx_u32(carry, u, v, w));

	adcx	ecx, DWORD PTR [esi+4]
	mov	DWORD PTR [edi+4], ecx
; File z:\sources\lunor\repos\rougemeilland\palmtree.math.core.implements\palmtree.math.core.implements\autogenerated_inline_func.h

; 4415 :         return (c);

	pop	edi
; File z:\sources\lunor\repos\rougemeilland\palmtree.math.core.implements\palmtree.math.core.implements\pmc_internal.h

; 454  :     return (_addcarryx_u32(carry, u, v, w));

	setb	al
; File z:\sources\lunor\repos\rougemeilland\palmtree.math.core.implements\palmtree.math.core.implements\autogenerated_inline_func.h

; 4415 :         return (c);

	pop	esi

; 4416 :     }

	pop	ebp
	ret	0
__ADD_2WORDS_ADCX ENDP
_TEXT	ENDS
; Function compile flags: /Ogtp
; File z:\sources\lunor\repos\rougemeilland\palmtree.math.core.implements\palmtree.math.core.implements\autogenerated_inline_func.h
; File z:\sources\lunor\repos\rougemeilland\palmtree.math.core.implements\palmtree.math.core.implements\pmc_internal.h
; File z:\sources\lunor\repos\rougemeilland\palmtree.math.core.implements\palmtree.math.core.implements\autogenerated_inline_func.h
; File z:\sources\lunor\repos\rougemeilland\palmtree.math.core.implements\palmtree.math.core.implements\pmc_internal.h
; File z:\sources\lunor\repos\rougemeilland\palmtree.math.core.implements\palmtree.math.core.implements\autogenerated_inline_func.h
; File z:\sources\lunor\repos\rougemeilland\palmtree.math.core.implements\palmtree.math.core.implements\pmc_internal.h
; File z:\sources\lunor\repos\rougemeilland\palmtree.math.core.implements\palmtree.math.core.implements\autogenerated_inline_func.h
; File z:\sources\lunor\repos\rougemeilland\palmtree.math.core.implements\palmtree.math.core.implements\pmc_internal.h
; File z:\sources\lunor\repos\rougemeilland\palmtree.math.core.implements\palmtree.math.core.implements\autogenerated_inline_func.h
; File z:\sources\lunor\repos\rougemeilland\palmtree.math.core.implements\palmtree.math.core.implements\pmc_internal.h
; File z:\sources\lunor\repos\rougemeilland\palmtree.math.core.implements\palmtree.math.core.implements\autogenerated_inline_func.h
;	COMDAT __ADD_2WORDS_ADC
_TEXT	SEGMENT
_c$ = 8							; size = 1
_xp$ = 12						; size = 4
_yp$ = 16						; size = 4
_zp$ = 20						; size = 4
__ADD_2WORDS_ADC PROC					; COMDAT

; 4333 :     {

	push	ebp
	mov	ebp, esp

; 4335 :         c = _ADD_UNIT(c, xp[0], yp[0], &zp[0]);

	mov	edx, DWORD PTR _xp$[ebp]
; File z:\sources\lunor\repos\rougemeilland\palmtree.math.core.implements\palmtree.math.core.implements\pmc_internal.h

; 426  :     return (_addcarry_u32(carry, u, v, w));

	mov	al, BYTE PTR _c$[ebp]
; File z:\sources\lunor\repos\rougemeilland\palmtree.math.core.implements\palmtree.math.core.implements\autogenerated_inline_func.h

; 4333 :     {

	push	esi

; 4335 :         c = _ADD_UNIT(c, xp[0], yp[0], &zp[0]);

	mov	esi, DWORD PTR _yp$[ebp]
; File z:\sources\lunor\repos\rougemeilland\palmtree.math.core.implements\palmtree.math.core.implements\pmc_internal.h

; 426  :     return (_addcarry_u32(carry, u, v, w));

	add	al, 255					; 000000ffH
; File z:\sources\lunor\repos\rougemeilland\palmtree.math.core.implements\palmtree.math.core.implements\autogenerated_inline_func.h

; 4335 :         c = _ADD_UNIT(c, xp[0], yp[0], &zp[0]);

	mov	ecx, DWORD PTR [edx]
	push	edi
; File z:\sources\lunor\repos\rougemeilland\palmtree.math.core.implements\palmtree.math.core.implements\pmc_internal.h

; 426  :     return (_addcarry_u32(carry, u, v, w));

	mov	edi, DWORD PTR _zp$[ebp]
	adc	ecx, DWORD PTR [esi]
	mov	DWORD PTR [edi], ecx
; File z:\sources\lunor\repos\rougemeilland\palmtree.math.core.implements\palmtree.math.core.implements\autogenerated_inline_func.h

; 4336 :         c = _ADD_UNIT(c, xp[1], yp[1], &zp[1]);

	mov	ecx, DWORD PTR [edx+4]
; File z:\sources\lunor\repos\rougemeilland\palmtree.math.core.implements\palmtree.math.core.implements\pmc_internal.h

; 426  :     return (_addcarry_u32(carry, u, v, w));

	adc	ecx, DWORD PTR [esi+4]
	mov	DWORD PTR [edi+4], ecx
; File z:\sources\lunor\repos\rougemeilland\palmtree.math.core.implements\palmtree.math.core.implements\autogenerated_inline_func.h

; 4372 :         return (c);

	pop	edi
; File z:\sources\lunor\repos\rougemeilland\palmtree.math.core.implements\palmtree.math.core.implements\pmc_internal.h

; 426  :     return (_addcarry_u32(carry, u, v, w));

	setb	al
; File z:\sources\lunor\repos\rougemeilland\palmtree.math.core.implements\palmtree.math.core.implements\autogenerated_inline_func.h

; 4372 :         return (c);

	pop	esi

; 4373 :     }

	pop	ebp
	ret	0
__ADD_2WORDS_ADC ENDP
_TEXT	ENDS
; Function compile flags: /Ogtp
; File z:\sources\lunor\repos\rougemeilland\palmtree.math.core.implements\palmtree.math.core.implements\autogenerated_inline_func.h
; File z:\sources\lunor\repos\rougemeilland\palmtree.math.core.implements\palmtree.math.core.implements\pmc_internal.h
; File z:\sources\lunor\repos\rougemeilland\palmtree.math.core.implements\palmtree.math.core.implements\autogenerated_inline_func.h
; File z:\sources\lunor\repos\rougemeilland\palmtree.math.core.implements\palmtree.math.core.implements\pmc_internal.h
; File z:\sources\lunor\repos\rougemeilland\palmtree.math.core.implements\palmtree.math.core.implements\autogenerated_inline_func.h
; File z:\sources\lunor\repos\rougemeilland\palmtree.math.core.implements\palmtree.math.core.implements\pmc_internal.h
; File z:\sources\lunor\repos\rougemeilland\palmtree.math.core.implements\palmtree.math.core.implements\autogenerated_inline_func.h
; File z:\sources\lunor\repos\rougemeilland\palmtree.math.core.implements\palmtree.math.core.implements\pmc_internal.h
; File z:\sources\lunor\repos\rougemeilland\palmtree.math.core.implements\palmtree.math.core.implements\autogenerated_inline_func.h
; File z:\sources\lunor\repos\rougemeilland\palmtree.math.core.implements\palmtree.math.core.implements\pmc_internal.h
; File z:\sources\lunor\repos\rougemeilland\palmtree.math.core.implements\palmtree.math.core.implements\autogenerated_inline_func.h
; File z:\sources\lunor\repos\rougemeilland\palmtree.math.core.implements\palmtree.math.core.implements\pmc_internal.h
; File z:\sources\lunor\repos\rougemeilland\palmtree.math.core.implements\palmtree.math.core.implements\autogenerated_inline_func.h
; File z:\sources\lunor\repos\rougemeilland\palmtree.math.core.implements\palmtree.math.core.implements\pmc_internal.h
; File z:\sources\lunor\repos\rougemeilland\palmtree.math.core.implements\palmtree.math.core.implements\autogenerated_inline_func.h
;	COMDAT __ADD_4WORDS_ADCX
_TEXT	SEGMENT
_c$ = 8							; size = 1
_xp$ = 12						; size = 4
_yp$ = 16						; size = 4
_zp$ = 20						; size = 4
__ADD_4WORDS_ADCX PROC					; COMDAT

; 3934 :     {

	push	ebp
	mov	ebp, esp

; 3936 :         c = _ADDX_UNIT(c, xp[0], yp[0], &zp[0]);

	mov	edx, DWORD PTR _xp$[ebp]
; File z:\sources\lunor\repos\rougemeilland\palmtree.math.core.implements\palmtree.math.core.implements\pmc_internal.h

; 454  :     return (_addcarryx_u32(carry, u, v, w));

	mov	al, BYTE PTR _c$[ebp]
; File z:\sources\lunor\repos\rougemeilland\palmtree.math.core.implements\palmtree.math.core.implements\autogenerated_inline_func.h

; 3934 :     {

	push	esi

; 3936 :         c = _ADDX_UNIT(c, xp[0], yp[0], &zp[0]);

	mov	esi, DWORD PTR _yp$[ebp]
; File z:\sources\lunor\repos\rougemeilland\palmtree.math.core.implements\palmtree.math.core.implements\pmc_internal.h

; 454  :     return (_addcarryx_u32(carry, u, v, w));

	add	al, 255					; 000000ffH
; File z:\sources\lunor\repos\rougemeilland\palmtree.math.core.implements\palmtree.math.core.implements\autogenerated_inline_func.h

; 3936 :         c = _ADDX_UNIT(c, xp[0], yp[0], &zp[0]);

	mov	ecx, DWORD PTR [edx]
	push	edi
; File z:\sources\lunor\repos\rougemeilland\palmtree.math.core.implements\palmtree.math.core.implements\pmc_internal.h

; 454  :     return (_addcarryx_u32(carry, u, v, w));

	mov	edi, DWORD PTR _zp$[ebp]
	adcx	ecx, DWORD PTR [esi]
	mov	DWORD PTR [edi], ecx
; File z:\sources\lunor\repos\rougemeilland\palmtree.math.core.implements\palmtree.math.core.implements\autogenerated_inline_func.h

; 3937 :         c = _ADDX_UNIT(c, xp[1], yp[1], &zp[1]);

	mov	eax, DWORD PTR [edx+4]
; File z:\sources\lunor\repos\rougemeilland\palmtree.math.core.implements\palmtree.math.core.implements\pmc_internal.h

; 454  :     return (_addcarryx_u32(carry, u, v, w));

	adcx	eax, DWORD PTR [esi+4]
	mov	DWORD PTR [edi+4], eax
; File z:\sources\lunor\repos\rougemeilland\palmtree.math.core.implements\palmtree.math.core.implements\autogenerated_inline_func.h

; 3938 :         c = _ADDX_UNIT(c, xp[2], yp[2], &zp[2]);

	mov	eax, DWORD PTR [edx+8]
; File z:\sources\lunor\repos\rougemeilland\palmtree.math.core.implements\palmtree.math.core.implements\pmc_internal.h

; 454  :     return (_addcarryx_u32(carry, u, v, w));

	adcx	eax, DWORD PTR [esi+8]
	mov	DWORD PTR [edi+8], eax
; File z:\sources\lunor\repos\rougemeilland\palmtree.math.core.implements\palmtree.math.core.implements\autogenerated_inline_func.h

; 3939 :         c = _ADDX_UNIT(c, xp[3], yp[3], &zp[3]);

	mov	ecx, DWORD PTR [edx+12]
; File z:\sources\lunor\repos\rougemeilland\palmtree.math.core.implements\palmtree.math.core.implements\pmc_internal.h

; 454  :     return (_addcarryx_u32(carry, u, v, w));

	adcx	ecx, DWORD PTR [esi+12]
	mov	DWORD PTR [edi+12], ecx
; File z:\sources\lunor\repos\rougemeilland\palmtree.math.core.implements\palmtree.math.core.implements\autogenerated_inline_func.h

; 3987 :         return (c);

	pop	edi
; File z:\sources\lunor\repos\rougemeilland\palmtree.math.core.implements\palmtree.math.core.implements\pmc_internal.h

; 454  :     return (_addcarryx_u32(carry, u, v, w));

	setb	al
; File z:\sources\lunor\repos\rougemeilland\palmtree.math.core.implements\palmtree.math.core.implements\autogenerated_inline_func.h

; 3987 :         return (c);

	pop	esi

; 3988 :     }

	pop	ebp
	ret	0
__ADD_4WORDS_ADCX ENDP
_TEXT	ENDS
; Function compile flags: /Ogtp
; File z:\sources\lunor\repos\rougemeilland\palmtree.math.core.implements\palmtree.math.core.implements\autogenerated_inline_func.h
; File z:\sources\lunor\repos\rougemeilland\palmtree.math.core.implements\palmtree.math.core.implements\pmc_internal.h
; File z:\sources\lunor\repos\rougemeilland\palmtree.math.core.implements\palmtree.math.core.implements\autogenerated_inline_func.h
; File z:\sources\lunor\repos\rougemeilland\palmtree.math.core.implements\palmtree.math.core.implements\pmc_internal.h
; File z:\sources\lunor\repos\rougemeilland\palmtree.math.core.implements\palmtree.math.core.implements\autogenerated_inline_func.h
; File z:\sources\lunor\repos\rougemeilland\palmtree.math.core.implements\palmtree.math.core.implements\pmc_internal.h
; File z:\sources\lunor\repos\rougemeilland\palmtree.math.core.implements\palmtree.math.core.implements\autogenerated_inline_func.h
; File z:\sources\lunor\repos\rougemeilland\palmtree.math.core.implements\palmtree.math.core.implements\pmc_internal.h
; File z:\sources\lunor\repos\rougemeilland\palmtree.math.core.implements\palmtree.math.core.implements\autogenerated_inline_func.h
; File z:\sources\lunor\repos\rougemeilland\palmtree.math.core.implements\palmtree.math.core.implements\pmc_internal.h
; File z:\sources\lunor\repos\rougemeilland\palmtree.math.core.implements\palmtree.math.core.implements\autogenerated_inline_func.h
; File z:\sources\lunor\repos\rougemeilland\palmtree.math.core.implements\palmtree.math.core.implements\pmc_internal.h
; File z:\sources\lunor\repos\rougemeilland\palmtree.math.core.implements\palmtree.math.core.implements\autogenerated_inline_func.h
; File z:\sources\lunor\repos\rougemeilland\palmtree.math.core.implements\palmtree.math.core.implements\pmc_internal.h
; File z:\sources\lunor\repos\rougemeilland\palmtree.math.core.implements\palmtree.math.core.implements\autogenerated_inline_func.h
;	COMDAT __ADD_4WORDS_ADC
_TEXT	SEGMENT
_c$ = 8							; size = 1
_xp$ = 12						; size = 4
_yp$ = 16						; size = 4
_zp$ = 20						; size = 4
__ADD_4WORDS_ADC PROC					; COMDAT

; 3877 :     {

	push	ebp
	mov	ebp, esp

; 3879 :         c = _ADD_UNIT(c, xp[0], yp[0], &zp[0]);

	mov	edx, DWORD PTR _xp$[ebp]
; File z:\sources\lunor\repos\rougemeilland\palmtree.math.core.implements\palmtree.math.core.implements\pmc_internal.h

; 426  :     return (_addcarry_u32(carry, u, v, w));

	mov	al, BYTE PTR _c$[ebp]
; File z:\sources\lunor\repos\rougemeilland\palmtree.math.core.implements\palmtree.math.core.implements\autogenerated_inline_func.h

; 3877 :     {

	push	esi

; 3879 :         c = _ADD_UNIT(c, xp[0], yp[0], &zp[0]);

	mov	esi, DWORD PTR _yp$[ebp]
; File z:\sources\lunor\repos\rougemeilland\palmtree.math.core.implements\palmtree.math.core.implements\pmc_internal.h

; 426  :     return (_addcarry_u32(carry, u, v, w));

	add	al, 255					; 000000ffH
; File z:\sources\lunor\repos\rougemeilland\palmtree.math.core.implements\palmtree.math.core.implements\autogenerated_inline_func.h

; 3879 :         c = _ADD_UNIT(c, xp[0], yp[0], &zp[0]);

	mov	ecx, DWORD PTR [edx]
	push	edi
; File z:\sources\lunor\repos\rougemeilland\palmtree.math.core.implements\palmtree.math.core.implements\pmc_internal.h

; 426  :     return (_addcarry_u32(carry, u, v, w));

	mov	edi, DWORD PTR _zp$[ebp]
	adc	ecx, DWORD PTR [esi]
	mov	DWORD PTR [edi], ecx
; File z:\sources\lunor\repos\rougemeilland\palmtree.math.core.implements\palmtree.math.core.implements\autogenerated_inline_func.h

; 3880 :         c = _ADD_UNIT(c, xp[1], yp[1], &zp[1]);

	mov	eax, DWORD PTR [edx+4]
; File z:\sources\lunor\repos\rougemeilland\palmtree.math.core.implements\palmtree.math.core.implements\pmc_internal.h

; 426  :     return (_addcarry_u32(carry, u, v, w));

	adc	eax, DWORD PTR [esi+4]
	mov	DWORD PTR [edi+4], eax
; File z:\sources\lunor\repos\rougemeilland\palmtree.math.core.implements\palmtree.math.core.implements\autogenerated_inline_func.h

; 3881 :         c = _ADD_UNIT(c, xp[2], yp[2], &zp[2]);

	mov	eax, DWORD PTR [edx+8]
; File z:\sources\lunor\repos\rougemeilland\palmtree.math.core.implements\palmtree.math.core.implements\pmc_internal.h

; 426  :     return (_addcarry_u32(carry, u, v, w));

	adc	eax, DWORD PTR [esi+8]
	mov	DWORD PTR [edi+8], eax
; File z:\sources\lunor\repos\rougemeilland\palmtree.math.core.implements\palmtree.math.core.implements\autogenerated_inline_func.h

; 3882 :         c = _ADD_UNIT(c, xp[3], yp[3], &zp[3]);

	mov	ecx, DWORD PTR [edx+12]
; File z:\sources\lunor\repos\rougemeilland\palmtree.math.core.implements\palmtree.math.core.implements\pmc_internal.h

; 426  :     return (_addcarry_u32(carry, u, v, w));

	adc	ecx, DWORD PTR [esi+12]
	mov	DWORD PTR [edi+12], ecx
; File z:\sources\lunor\repos\rougemeilland\palmtree.math.core.implements\palmtree.math.core.implements\autogenerated_inline_func.h

; 3930 :         return (c);

	pop	edi
; File z:\sources\lunor\repos\rougemeilland\palmtree.math.core.implements\palmtree.math.core.implements\pmc_internal.h

; 426  :     return (_addcarry_u32(carry, u, v, w));

	setb	al
; File z:\sources\lunor\repos\rougemeilland\palmtree.math.core.implements\palmtree.math.core.implements\autogenerated_inline_func.h

; 3930 :         return (c);

	pop	esi

; 3931 :     }

	pop	ebp
	ret	0
__ADD_4WORDS_ADC ENDP
_TEXT	ENDS
; Function compile flags: /Ogtp
; File z:\sources\lunor\repos\rougemeilland\palmtree.math.core.implements\palmtree.math.core.implements\autogenerated_inline_func.h
; File z:\sources\lunor\repos\rougemeilland\palmtree.math.core.implements\palmtree.math.core.implements\pmc_internal.h
; File z:\sources\lunor\repos\rougemeilland\palmtree.math.core.implements\palmtree.math.core.implements\autogenerated_inline_func.h
; File z:\sources\lunor\repos\rougemeilland\palmtree.math.core.implements\palmtree.math.core.implements\pmc_internal.h
; File z:\sources\lunor\repos\rougemeilland\palmtree.math.core.implements\palmtree.math.core.implements\autogenerated_inline_func.h
; File z:\sources\lunor\repos\rougemeilland\palmtree.math.core.implements\palmtree.math.core.implements\pmc_internal.h
; File z:\sources\lunor\repos\rougemeilland\palmtree.math.core.implements\palmtree.math.core.implements\autogenerated_inline_func.h
; File z:\sources\lunor\repos\rougemeilland\palmtree.math.core.implements\palmtree.math.core.implements\pmc_internal.h
; File z:\sources\lunor\repos\rougemeilland\palmtree.math.core.implements\palmtree.math.core.implements\autogenerated_inline_func.h
; File z:\sources\lunor\repos\rougemeilland\palmtree.math.core.implements\palmtree.math.core.implements\pmc_internal.h
; File z:\sources\lunor\repos\rougemeilland\palmtree.math.core.implements\palmtree.math.core.implements\autogenerated_inline_func.h
; File z:\sources\lunor\repos\rougemeilland\palmtree.math.core.implements\palmtree.math.core.implements\pmc_internal.h
; File z:\sources\lunor\repos\rougemeilland\palmtree.math.core.implements\palmtree.math.core.implements\autogenerated_inline_func.h
; File z:\sources\lunor\repos\rougemeilland\palmtree.math.core.implements\palmtree.math.core.implements\pmc_internal.h
; File z:\sources\lunor\repos\rougemeilland\palmtree.math.core.implements\palmtree.math.core.implements\autogenerated_inline_func.h
; File z:\sources\lunor\repos\rougemeilland\palmtree.math.core.implements\palmtree.math.core.implements\pmc_internal.h
; File z:\sources\lunor\repos\rougemeilland\palmtree.math.core.implements\palmtree.math.core.implements\autogenerated_inline_func.h
; File z:\sources\lunor\repos\rougemeilland\palmtree.math.core.implements\palmtree.math.core.implements\pmc_internal.h
; File z:\sources\lunor\repos\rougemeilland\palmtree.math.core.implements\palmtree.math.core.implements\autogenerated_inline_func.h
; File z:\sources\lunor\repos\rougemeilland\palmtree.math.core.implements\palmtree.math.core.implements\pmc_internal.h
; File z:\sources\lunor\repos\rougemeilland\palmtree.math.core.implements\palmtree.math.core.implements\autogenerated_inline_func.h
;	COMDAT __ADD_8WORDS_ADCX
_TEXT	SEGMENT
_c$ = 8							; size = 1
_xp$ = 12						; size = 4
_yp$ = 16						; size = 4
_zp$ = 20						; size = 4
__ADD_8WORDS_ADCX PROC					; COMDAT

; 3282 :     {

	push	ebp
	mov	ebp, esp

; 3283 : #ifdef _MSC_VER
; 3284 :         c = _ADDX_UNIT(c, xp[0], yp[0], &zp[0]);

	mov	edx, DWORD PTR _xp$[ebp]
; File z:\sources\lunor\repos\rougemeilland\palmtree.math.core.implements\palmtree.math.core.implements\pmc_internal.h

; 454  :     return (_addcarryx_u32(carry, u, v, w));

	mov	al, BYTE PTR _c$[ebp]
	add	al, 255					; 000000ffH
; File z:\sources\lunor\repos\rougemeilland\palmtree.math.core.implements\palmtree.math.core.implements\autogenerated_inline_func.h

; 3282 :     {

	push	esi

; 3283 : #ifdef _MSC_VER
; 3284 :         c = _ADDX_UNIT(c, xp[0], yp[0], &zp[0]);

	mov	esi, DWORD PTR _yp$[ebp]
	mov	ecx, DWORD PTR [edx]
	push	edi
; File z:\sources\lunor\repos\rougemeilland\palmtree.math.core.implements\palmtree.math.core.implements\pmc_internal.h

; 454  :     return (_addcarryx_u32(carry, u, v, w));

	mov	edi, DWORD PTR _zp$[ebp]
	adcx	ecx, DWORD PTR [esi]
	mov	DWORD PTR [edi], ecx
; File z:\sources\lunor\repos\rougemeilland\palmtree.math.core.implements\palmtree.math.core.implements\autogenerated_inline_func.h

; 3285 :         c = _ADDX_UNIT(c, xp[1], yp[1], &zp[1]);

	mov	eax, DWORD PTR [edx+4]
; File z:\sources\lunor\repos\rougemeilland\palmtree.math.core.implements\palmtree.math.core.implements\pmc_internal.h

; 454  :     return (_addcarryx_u32(carry, u, v, w));

	adcx	eax, DWORD PTR [esi+4]
	mov	DWORD PTR [edi+4], eax
; File z:\sources\lunor\repos\rougemeilland\palmtree.math.core.implements\palmtree.math.core.implements\autogenerated_inline_func.h

; 3286 :         c = _ADDX_UNIT(c, xp[2], yp[2], &zp[2]);

	mov	eax, DWORD PTR [edx+8]
; File z:\sources\lunor\repos\rougemeilland\palmtree.math.core.implements\palmtree.math.core.implements\pmc_internal.h

; 454  :     return (_addcarryx_u32(carry, u, v, w));

	adcx	eax, DWORD PTR [esi+8]
	mov	DWORD PTR [edi+8], eax
; File z:\sources\lunor\repos\rougemeilland\palmtree.math.core.implements\palmtree.math.core.implements\autogenerated_inline_func.h

; 3287 :         c = _ADDX_UNIT(c, xp[3], yp[3], &zp[3]);

	mov	eax, DWORD PTR [edx+12]
; File z:\sources\lunor\repos\rougemeilland\palmtree.math.core.implements\palmtree.math.core.implements\pmc_internal.h

; 454  :     return (_addcarryx_u32(carry, u, v, w));

	adcx	eax, DWORD PTR [esi+12]
	mov	DWORD PTR [edi+12], eax
; File z:\sources\lunor\repos\rougemeilland\palmtree.math.core.implements\palmtree.math.core.implements\autogenerated_inline_func.h

; 3288 :         c = _ADDX_UNIT(c, xp[4], yp[4], &zp[4]);

	mov	eax, DWORD PTR [edx+16]
; File z:\sources\lunor\repos\rougemeilland\palmtree.math.core.implements\palmtree.math.core.implements\pmc_internal.h

; 454  :     return (_addcarryx_u32(carry, u, v, w));

	adcx	eax, DWORD PTR [esi+16]
	mov	DWORD PTR [edi+16], eax
; File z:\sources\lunor\repos\rougemeilland\palmtree.math.core.implements\palmtree.math.core.implements\autogenerated_inline_func.h

; 3289 :         c = _ADDX_UNIT(c, xp[5], yp[5], &zp[5]);

	mov	eax, DWORD PTR [edx+20]
; File z:\sources\lunor\repos\rougemeilland\palmtree.math.core.implements\palmtree.math.core.implements\pmc_internal.h

; 454  :     return (_addcarryx_u32(carry, u, v, w));

	adcx	eax, DWORD PTR [esi+20]
	mov	DWORD PTR [edi+20], eax
; File z:\sources\lunor\repos\rougemeilland\palmtree.math.core.implements\palmtree.math.core.implements\autogenerated_inline_func.h

; 3290 :         c = _ADDX_UNIT(c, xp[6], yp[6], &zp[6]);

	mov	eax, DWORD PTR [edx+24]
; File z:\sources\lunor\repos\rougemeilland\palmtree.math.core.implements\palmtree.math.core.implements\pmc_internal.h

; 454  :     return (_addcarryx_u32(carry, u, v, w));

	adcx	eax, DWORD PTR [esi+24]
	mov	DWORD PTR [edi+24], eax
; File z:\sources\lunor\repos\rougemeilland\palmtree.math.core.implements\palmtree.math.core.implements\autogenerated_inline_func.h

; 3291 :         c = _ADDX_UNIT(c, xp[7], yp[7], &zp[7]);

	mov	ecx, DWORD PTR [edx+28]
; File z:\sources\lunor\repos\rougemeilland\palmtree.math.core.implements\palmtree.math.core.implements\pmc_internal.h

; 454  :     return (_addcarryx_u32(carry, u, v, w));

	adcx	ecx, DWORD PTR [esi+28]
	mov	DWORD PTR [edi+28], ecx
; File z:\sources\lunor\repos\rougemeilland\palmtree.math.core.implements\palmtree.math.core.implements\autogenerated_inline_func.h

; 3363 :         return (c);

	pop	edi
; File z:\sources\lunor\repos\rougemeilland\palmtree.math.core.implements\palmtree.math.core.implements\pmc_internal.h

; 454  :     return (_addcarryx_u32(carry, u, v, w));

	setb	al
; File z:\sources\lunor\repos\rougemeilland\palmtree.math.core.implements\palmtree.math.core.implements\autogenerated_inline_func.h

; 3363 :         return (c);

	pop	esi

; 3364 :     }

	pop	ebp
	ret	0
__ADD_8WORDS_ADCX ENDP
_TEXT	ENDS
; Function compile flags: /Ogtp
; File z:\sources\lunor\repos\rougemeilland\palmtree.math.core.implements\palmtree.math.core.implements\autogenerated_inline_func.h
; File z:\sources\lunor\repos\rougemeilland\palmtree.math.core.implements\palmtree.math.core.implements\pmc_internal.h
; File z:\sources\lunor\repos\rougemeilland\palmtree.math.core.implements\palmtree.math.core.implements\autogenerated_inline_func.h
; File z:\sources\lunor\repos\rougemeilland\palmtree.math.core.implements\palmtree.math.core.implements\pmc_internal.h
; File z:\sources\lunor\repos\rougemeilland\palmtree.math.core.implements\palmtree.math.core.implements\autogenerated_inline_func.h
; File z:\sources\lunor\repos\rougemeilland\palmtree.math.core.implements\palmtree.math.core.implements\pmc_internal.h
; File z:\sources\lunor\repos\rougemeilland\palmtree.math.core.implements\palmtree.math.core.implements\autogenerated_inline_func.h
; File z:\sources\lunor\repos\rougemeilland\palmtree.math.core.implements\palmtree.math.core.implements\pmc_internal.h
; File z:\sources\lunor\repos\rougemeilland\palmtree.math.core.implements\palmtree.math.core.implements\autogenerated_inline_func.h
; File z:\sources\lunor\repos\rougemeilland\palmtree.math.core.implements\palmtree.math.core.implements\pmc_internal.h
; File z:\sources\lunor\repos\rougemeilland\palmtree.math.core.implements\palmtree.math.core.implements\autogenerated_inline_func.h
; File z:\sources\lunor\repos\rougemeilland\palmtree.math.core.implements\palmtree.math.core.implements\pmc_internal.h
; File z:\sources\lunor\repos\rougemeilland\palmtree.math.core.implements\palmtree.math.core.implements\autogenerated_inline_func.h
; File z:\sources\lunor\repos\rougemeilland\palmtree.math.core.implements\palmtree.math.core.implements\pmc_internal.h
; File z:\sources\lunor\repos\rougemeilland\palmtree.math.core.implements\palmtree.math.core.implements\autogenerated_inline_func.h
; File z:\sources\lunor\repos\rougemeilland\palmtree.math.core.implements\palmtree.math.core.implements\pmc_internal.h
; File z:\sources\lunor\repos\rougemeilland\palmtree.math.core.implements\palmtree.math.core.implements\autogenerated_inline_func.h
; File z:\sources\lunor\repos\rougemeilland\palmtree.math.core.implements\palmtree.math.core.implements\pmc_internal.h
; File z:\sources\lunor\repos\rougemeilland\palmtree.math.core.implements\palmtree.math.core.implements\autogenerated_inline_func.h
; File z:\sources\lunor\repos\rougemeilland\palmtree.math.core.implements\palmtree.math.core.implements\pmc_internal.h
; File z:\sources\lunor\repos\rougemeilland\palmtree.math.core.implements\palmtree.math.core.implements\autogenerated_inline_func.h
;	COMDAT __ADD_8WORDS_ADC
_TEXT	SEGMENT
_c$ = 8							; size = 1
_xp$ = 12						; size = 4
_yp$ = 16						; size = 4
_zp$ = 20						; size = 4
__ADD_8WORDS_ADC PROC					; COMDAT

; 3197 :     {

	push	ebp
	mov	ebp, esp

; 3198 : #ifdef _MSC_VER
; 3199 :         c = _ADD_UNIT(c, xp[0], yp[0], &zp[0]);

	mov	edx, DWORD PTR _xp$[ebp]
; File z:\sources\lunor\repos\rougemeilland\palmtree.math.core.implements\palmtree.math.core.implements\pmc_internal.h

; 426  :     return (_addcarry_u32(carry, u, v, w));

	mov	al, BYTE PTR _c$[ebp]
	add	al, 255					; 000000ffH
; File z:\sources\lunor\repos\rougemeilland\palmtree.math.core.implements\palmtree.math.core.implements\autogenerated_inline_func.h

; 3197 :     {

	push	esi

; 3198 : #ifdef _MSC_VER
; 3199 :         c = _ADD_UNIT(c, xp[0], yp[0], &zp[0]);

	mov	esi, DWORD PTR _yp$[ebp]
	mov	ecx, DWORD PTR [edx]
	push	edi
; File z:\sources\lunor\repos\rougemeilland\palmtree.math.core.implements\palmtree.math.core.implements\pmc_internal.h

; 426  :     return (_addcarry_u32(carry, u, v, w));

	mov	edi, DWORD PTR _zp$[ebp]
	adc	ecx, DWORD PTR [esi]
	mov	DWORD PTR [edi], ecx
; File z:\sources\lunor\repos\rougemeilland\palmtree.math.core.implements\palmtree.math.core.implements\autogenerated_inline_func.h

; 3200 :         c = _ADD_UNIT(c, xp[1], yp[1], &zp[1]);

	mov	eax, DWORD PTR [edx+4]
; File z:\sources\lunor\repos\rougemeilland\palmtree.math.core.implements\palmtree.math.core.implements\pmc_internal.h

; 426  :     return (_addcarry_u32(carry, u, v, w));

	adc	eax, DWORD PTR [esi+4]
	mov	DWORD PTR [edi+4], eax
; File z:\sources\lunor\repos\rougemeilland\palmtree.math.core.implements\palmtree.math.core.implements\autogenerated_inline_func.h

; 3201 :         c = _ADD_UNIT(c, xp[2], yp[2], &zp[2]);

	mov	eax, DWORD PTR [edx+8]
; File z:\sources\lunor\repos\rougemeilland\palmtree.math.core.implements\palmtree.math.core.implements\pmc_internal.h

; 426  :     return (_addcarry_u32(carry, u, v, w));

	adc	eax, DWORD PTR [esi+8]
	mov	DWORD PTR [edi+8], eax
; File z:\sources\lunor\repos\rougemeilland\palmtree.math.core.implements\palmtree.math.core.implements\autogenerated_inline_func.h

; 3202 :         c = _ADD_UNIT(c, xp[3], yp[3], &zp[3]);

	mov	eax, DWORD PTR [edx+12]
; File z:\sources\lunor\repos\rougemeilland\palmtree.math.core.implements\palmtree.math.core.implements\pmc_internal.h

; 426  :     return (_addcarry_u32(carry, u, v, w));

	adc	eax, DWORD PTR [esi+12]
	mov	DWORD PTR [edi+12], eax
; File z:\sources\lunor\repos\rougemeilland\palmtree.math.core.implements\palmtree.math.core.implements\autogenerated_inline_func.h

; 3203 :         c = _ADD_UNIT(c, xp[4], yp[4], &zp[4]);

	mov	eax, DWORD PTR [edx+16]
; File z:\sources\lunor\repos\rougemeilland\palmtree.math.core.implements\palmtree.math.core.implements\pmc_internal.h

; 426  :     return (_addcarry_u32(carry, u, v, w));

	adc	eax, DWORD PTR [esi+16]
	mov	DWORD PTR [edi+16], eax
; File z:\sources\lunor\repos\rougemeilland\palmtree.math.core.implements\palmtree.math.core.implements\autogenerated_inline_func.h

; 3204 :         c = _ADD_UNIT(c, xp[5], yp[5], &zp[5]);

	mov	eax, DWORD PTR [edx+20]
; File z:\sources\lunor\repos\rougemeilland\palmtree.math.core.implements\palmtree.math.core.implements\pmc_internal.h

; 426  :     return (_addcarry_u32(carry, u, v, w));

	adc	eax, DWORD PTR [esi+20]
	mov	DWORD PTR [edi+20], eax
; File z:\sources\lunor\repos\rougemeilland\palmtree.math.core.implements\palmtree.math.core.implements\autogenerated_inline_func.h

; 3205 :         c = _ADD_UNIT(c, xp[6], yp[6], &zp[6]);

	mov	eax, DWORD PTR [edx+24]
; File z:\sources\lunor\repos\rougemeilland\palmtree.math.core.implements\palmtree.math.core.implements\pmc_internal.h

; 426  :     return (_addcarry_u32(carry, u, v, w));

	adc	eax, DWORD PTR [esi+24]
	mov	DWORD PTR [edi+24], eax
; File z:\sources\lunor\repos\rougemeilland\palmtree.math.core.implements\palmtree.math.core.implements\autogenerated_inline_func.h

; 3206 :         c = _ADD_UNIT(c, xp[7], yp[7], &zp[7]);

	mov	ecx, DWORD PTR [edx+28]
; File z:\sources\lunor\repos\rougemeilland\palmtree.math.core.implements\palmtree.math.core.implements\pmc_internal.h

; 426  :     return (_addcarry_u32(carry, u, v, w));

	adc	ecx, DWORD PTR [esi+28]
	mov	DWORD PTR [edi+28], ecx
; File z:\sources\lunor\repos\rougemeilland\palmtree.math.core.implements\palmtree.math.core.implements\autogenerated_inline_func.h

; 3278 :         return (c);

	pop	edi
; File z:\sources\lunor\repos\rougemeilland\palmtree.math.core.implements\palmtree.math.core.implements\pmc_internal.h

; 426  :     return (_addcarry_u32(carry, u, v, w));

	setb	al
; File z:\sources\lunor\repos\rougemeilland\palmtree.math.core.implements\palmtree.math.core.implements\autogenerated_inline_func.h

; 3278 :         return (c);

	pop	esi

; 3279 :     }

	pop	ebp
	ret	0
__ADD_8WORDS_ADC ENDP
_TEXT	ENDS
; Function compile flags: /Ogtp
; File z:\sources\lunor\repos\rougemeilland\palmtree.math.core.implements\palmtree.math.core.implements\autogenerated_inline_func.h
; File z:\sources\lunor\repos\rougemeilland\palmtree.math.core.implements\palmtree.math.core.implements\pmc_internal.h
; File z:\sources\lunor\repos\rougemeilland\palmtree.math.core.implements\palmtree.math.core.implements\autogenerated_inline_func.h
; File z:\sources\lunor\repos\rougemeilland\palmtree.math.core.implements\palmtree.math.core.implements\pmc_internal.h
; File z:\sources\lunor\repos\rougemeilland\palmtree.math.core.implements\palmtree.math.core.implements\autogenerated_inline_func.h
; File z:\sources\lunor\repos\rougemeilland\palmtree.math.core.implements\palmtree.math.core.implements\pmc_internal.h
; File z:\sources\lunor\repos\rougemeilland\palmtree.math.core.implements\palmtree.math.core.implements\autogenerated_inline_func.h
; File z:\sources\lunor\repos\rougemeilland\palmtree.math.core.implements\palmtree.math.core.implements\pmc_internal.h
; File z:\sources\lunor\repos\rougemeilland\palmtree.math.core.implements\palmtree.math.core.implements\autogenerated_inline_func.h
; File z:\sources\lunor\repos\rougemeilland\palmtree.math.core.implements\palmtree.math.core.implements\pmc_internal.h
; File z:\sources\lunor\repos\rougemeilland\palmtree.math.core.implements\palmtree.math.core.implements\autogenerated_inline_func.h
; File z:\sources\lunor\repos\rougemeilland\palmtree.math.core.implements\palmtree.math.core.implements\pmc_internal.h
; File z:\sources\lunor\repos\rougemeilland\palmtree.math.core.implements\palmtree.math.core.implements\autogenerated_inline_func.h
; File z:\sources\lunor\repos\rougemeilland\palmtree.math.core.implements\palmtree.math.core.implements\pmc_internal.h
; File z:\sources\lunor\repos\rougemeilland\palmtree.math.core.implements\palmtree.math.core.implements\autogenerated_inline_func.h
; File z:\sources\lunor\repos\rougemeilland\palmtree.math.core.implements\palmtree.math.core.implements\pmc_internal.h
; File z:\sources\lunor\repos\rougemeilland\palmtree.math.core.implements\palmtree.math.core.implements\autogenerated_inline_func.h
; File z:\sources\lunor\repos\rougemeilland\palmtree.math.core.implements\palmtree.math.core.implements\pmc_internal.h
; File z:\sources\lunor\repos\rougemeilland\palmtree.math.core.implements\palmtree.math.core.implements\autogenerated_inline_func.h
; File z:\sources\lunor\repos\rougemeilland\palmtree.math.core.implements\palmtree.math.core.implements\pmc_internal.h
; File z:\sources\lunor\repos\rougemeilland\palmtree.math.core.implements\palmtree.math.core.implements\autogenerated_inline_func.h
; File z:\sources\lunor\repos\rougemeilland\palmtree.math.core.implements\palmtree.math.core.implements\pmc_internal.h
; File z:\sources\lunor\repos\rougemeilland\palmtree.math.core.implements\palmtree.math.core.implements\autogenerated_inline_func.h
; File z:\sources\lunor\repos\rougemeilland\palmtree.math.core.implements\palmtree.math.core.implements\pmc_internal.h
; File z:\sources\lunor\repos\rougemeilland\palmtree.math.core.implements\palmtree.math.core.implements\autogenerated_inline_func.h
; File z:\sources\lunor\repos\rougemeilland\palmtree.math.core.implements\palmtree.math.core.implements\pmc_internal.h
; File z:\sources\lunor\repos\rougemeilland\palmtree.math.core.implements\palmtree.math.core.implements\autogenerated_inline_func.h
; File z:\sources\lunor\repos\rougemeilland\palmtree.math.core.implements\palmtree.math.core.implements\pmc_internal.h
; File z:\sources\lunor\repos\rougemeilland\palmtree.math.core.implements\palmtree.math.core.implements\autogenerated_inline_func.h
; File z:\sources\lunor\repos\rougemeilland\palmtree.math.core.implements\palmtree.math.core.implements\pmc_internal.h
; File z:\sources\lunor\repos\rougemeilland\palmtree.math.core.implements\palmtree.math.core.implements\autogenerated_inline_func.h
; File z:\sources\lunor\repos\rougemeilland\palmtree.math.core.implements\palmtree.math.core.implements\pmc_internal.h
; File z:\sources\lunor\repos\rougemeilland\palmtree.math.core.implements\palmtree.math.core.implements\autogenerated_inline_func.h
; File z:\sources\lunor\repos\rougemeilland\palmtree.math.core.implements\palmtree.math.core.implements\pmc_internal.h
; File z:\sources\lunor\repos\rougemeilland\palmtree.math.core.implements\palmtree.math.core.implements\autogenerated_inline_func.h
; File z:\sources\lunor\repos\rougemeilland\palmtree.math.core.implements\palmtree.math.core.implements\pmc_internal.h
; File z:\sources\lunor\repos\rougemeilland\palmtree.math.core.implements\palmtree.math.core.implements\autogenerated_inline_func.h
;	COMDAT __ADD_16WORDS_ADCX
_TEXT	SEGMENT
_c$ = 8							; size = 1
_xp$ = 12						; size = 4
_yp$ = 16						; size = 4
_zp$ = 20						; size = 4
__ADD_16WORDS_ADCX PROC					; COMDAT

; 2210 :     {

	push	ebp
	mov	ebp, esp

; 2211 : #ifdef _MSC_VER
; 2212 :         c = _ADDX_UNIT(c, xp[0], yp[0], &zp[0]);

	mov	edx, DWORD PTR _xp$[ebp]
; File z:\sources\lunor\repos\rougemeilland\palmtree.math.core.implements\palmtree.math.core.implements\pmc_internal.h

; 454  :     return (_addcarryx_u32(carry, u, v, w));

	mov	al, BYTE PTR _c$[ebp]
	add	al, 255					; 000000ffH
; File z:\sources\lunor\repos\rougemeilland\palmtree.math.core.implements\palmtree.math.core.implements\autogenerated_inline_func.h

; 2210 :     {

	push	esi

; 2211 : #ifdef _MSC_VER
; 2212 :         c = _ADDX_UNIT(c, xp[0], yp[0], &zp[0]);

	mov	esi, DWORD PTR _yp$[ebp]
	mov	ecx, DWORD PTR [edx]
	push	edi
; File z:\sources\lunor\repos\rougemeilland\palmtree.math.core.implements\palmtree.math.core.implements\pmc_internal.h

; 454  :     return (_addcarryx_u32(carry, u, v, w));

	mov	edi, DWORD PTR _zp$[ebp]
	adcx	ecx, DWORD PTR [esi]
	mov	DWORD PTR [edi], ecx
; File z:\sources\lunor\repos\rougemeilland\palmtree.math.core.implements\palmtree.math.core.implements\autogenerated_inline_func.h

; 2213 :         c = _ADDX_UNIT(c, xp[1], yp[1], &zp[1]);

	mov	eax, DWORD PTR [edx+4]
; File z:\sources\lunor\repos\rougemeilland\palmtree.math.core.implements\palmtree.math.core.implements\pmc_internal.h

; 454  :     return (_addcarryx_u32(carry, u, v, w));

	adcx	eax, DWORD PTR [esi+4]
	mov	DWORD PTR [edi+4], eax
; File z:\sources\lunor\repos\rougemeilland\palmtree.math.core.implements\palmtree.math.core.implements\autogenerated_inline_func.h

; 2214 :         c = _ADDX_UNIT(c, xp[2], yp[2], &zp[2]);

	mov	eax, DWORD PTR [edx+8]
; File z:\sources\lunor\repos\rougemeilland\palmtree.math.core.implements\palmtree.math.core.implements\pmc_internal.h

; 454  :     return (_addcarryx_u32(carry, u, v, w));

	adcx	eax, DWORD PTR [esi+8]
	mov	DWORD PTR [edi+8], eax
; File z:\sources\lunor\repos\rougemeilland\palmtree.math.core.implements\palmtree.math.core.implements\autogenerated_inline_func.h

; 2215 :         c = _ADDX_UNIT(c, xp[3], yp[3], &zp[3]);

	mov	eax, DWORD PTR [edx+12]
; File z:\sources\lunor\repos\rougemeilland\palmtree.math.core.implements\palmtree.math.core.implements\pmc_internal.h

; 454  :     return (_addcarryx_u32(carry, u, v, w));

	adcx	eax, DWORD PTR [esi+12]
	mov	DWORD PTR [edi+12], eax
; File z:\sources\lunor\repos\rougemeilland\palmtree.math.core.implements\palmtree.math.core.implements\autogenerated_inline_func.h

; 2216 :         c = _ADDX_UNIT(c, xp[4], yp[4], &zp[4]);

	mov	eax, DWORD PTR [edx+16]
; File z:\sources\lunor\repos\rougemeilland\palmtree.math.core.implements\palmtree.math.core.implements\pmc_internal.h

; 454  :     return (_addcarryx_u32(carry, u, v, w));

	adcx	eax, DWORD PTR [esi+16]
	mov	DWORD PTR [edi+16], eax
; File z:\sources\lunor\repos\rougemeilland\palmtree.math.core.implements\palmtree.math.core.implements\autogenerated_inline_func.h

; 2217 :         c = _ADDX_UNIT(c, xp[5], yp[5], &zp[5]);

	mov	eax, DWORD PTR [edx+20]
; File z:\sources\lunor\repos\rougemeilland\palmtree.math.core.implements\palmtree.math.core.implements\pmc_internal.h

; 454  :     return (_addcarryx_u32(carry, u, v, w));

	adcx	eax, DWORD PTR [esi+20]
	mov	DWORD PTR [edi+20], eax
; File z:\sources\lunor\repos\rougemeilland\palmtree.math.core.implements\palmtree.math.core.implements\autogenerated_inline_func.h

; 2218 :         c = _ADDX_UNIT(c, xp[6], yp[6], &zp[6]);

	mov	eax, DWORD PTR [edx+24]
; File z:\sources\lunor\repos\rougemeilland\palmtree.math.core.implements\palmtree.math.core.implements\pmc_internal.h

; 454  :     return (_addcarryx_u32(carry, u, v, w));

	adcx	eax, DWORD PTR [esi+24]
	mov	DWORD PTR [edi+24], eax
; File z:\sources\lunor\repos\rougemeilland\palmtree.math.core.implements\palmtree.math.core.implements\autogenerated_inline_func.h

; 2219 :         c = _ADDX_UNIT(c, xp[7], yp[7], &zp[7]);

	mov	eax, DWORD PTR [edx+28]
; File z:\sources\lunor\repos\rougemeilland\palmtree.math.core.implements\palmtree.math.core.implements\pmc_internal.h

; 454  :     return (_addcarryx_u32(carry, u, v, w));

	adcx	eax, DWORD PTR [esi+28]
	mov	DWORD PTR [edi+28], eax
; File z:\sources\lunor\repos\rougemeilland\palmtree.math.core.implements\palmtree.math.core.implements\autogenerated_inline_func.h

; 2220 :         c = _ADDX_UNIT(c, xp[8], yp[8], &zp[8]);

	mov	eax, DWORD PTR [edx+32]
; File z:\sources\lunor\repos\rougemeilland\palmtree.math.core.implements\palmtree.math.core.implements\pmc_internal.h

; 454  :     return (_addcarryx_u32(carry, u, v, w));

	adcx	eax, DWORD PTR [esi+32]
	mov	DWORD PTR [edi+32], eax
; File z:\sources\lunor\repos\rougemeilland\palmtree.math.core.implements\palmtree.math.core.implements\autogenerated_inline_func.h

; 2221 :         c = _ADDX_UNIT(c, xp[9], yp[9], &zp[9]);

	mov	eax, DWORD PTR [edx+36]
; File z:\sources\lunor\repos\rougemeilland\palmtree.math.core.implements\palmtree.math.core.implements\pmc_internal.h

; 454  :     return (_addcarryx_u32(carry, u, v, w));

	adcx	eax, DWORD PTR [esi+36]
	mov	DWORD PTR [edi+36], eax
; File z:\sources\lunor\repos\rougemeilland\palmtree.math.core.implements\palmtree.math.core.implements\autogenerated_inline_func.h

; 2222 :         c = _ADDX_UNIT(c, xp[10], yp[10], &zp[10]);

	mov	eax, DWORD PTR [edx+40]
; File z:\sources\lunor\repos\rougemeilland\palmtree.math.core.implements\palmtree.math.core.implements\pmc_internal.h

; 454  :     return (_addcarryx_u32(carry, u, v, w));

	adcx	eax, DWORD PTR [esi+40]
	mov	DWORD PTR [edi+40], eax
; File z:\sources\lunor\repos\rougemeilland\palmtree.math.core.implements\palmtree.math.core.implements\autogenerated_inline_func.h

; 2223 :         c = _ADDX_UNIT(c, xp[11], yp[11], &zp[11]);

	mov	eax, DWORD PTR [edx+44]
; File z:\sources\lunor\repos\rougemeilland\palmtree.math.core.implements\palmtree.math.core.implements\pmc_internal.h

; 454  :     return (_addcarryx_u32(carry, u, v, w));

	adcx	eax, DWORD PTR [esi+44]
	mov	DWORD PTR [edi+44], eax
; File z:\sources\lunor\repos\rougemeilland\palmtree.math.core.implements\palmtree.math.core.implements\autogenerated_inline_func.h

; 2224 :         c = _ADDX_UNIT(c, xp[12], yp[12], &zp[12]);

	mov	eax, DWORD PTR [edx+48]
; File z:\sources\lunor\repos\rougemeilland\palmtree.math.core.implements\palmtree.math.core.implements\pmc_internal.h

; 454  :     return (_addcarryx_u32(carry, u, v, w));

	adcx	eax, DWORD PTR [esi+48]
	mov	DWORD PTR [edi+48], eax
; File z:\sources\lunor\repos\rougemeilland\palmtree.math.core.implements\palmtree.math.core.implements\autogenerated_inline_func.h

; 2225 :         c = _ADDX_UNIT(c, xp[13], yp[13], &zp[13]);

	mov	eax, DWORD PTR [edx+52]
; File z:\sources\lunor\repos\rougemeilland\palmtree.math.core.implements\palmtree.math.core.implements\pmc_internal.h

; 454  :     return (_addcarryx_u32(carry, u, v, w));

	adcx	eax, DWORD PTR [esi+52]
	mov	DWORD PTR [edi+52], eax
; File z:\sources\lunor\repos\rougemeilland\palmtree.math.core.implements\palmtree.math.core.implements\autogenerated_inline_func.h

; 2226 :         c = _ADDX_UNIT(c, xp[14], yp[14], &zp[14]);

	mov	eax, DWORD PTR [edx+56]
; File z:\sources\lunor\repos\rougemeilland\palmtree.math.core.implements\palmtree.math.core.implements\pmc_internal.h

; 454  :     return (_addcarryx_u32(carry, u, v, w));

	adcx	eax, DWORD PTR [esi+56]
	mov	DWORD PTR [edi+56], eax
; File z:\sources\lunor\repos\rougemeilland\palmtree.math.core.implements\palmtree.math.core.implements\autogenerated_inline_func.h

; 2227 :         c = _ADDX_UNIT(c, xp[15], yp[15], &zp[15]);

	mov	ecx, DWORD PTR [edx+60]
; File z:\sources\lunor\repos\rougemeilland\palmtree.math.core.implements\palmtree.math.core.implements\pmc_internal.h

; 454  :     return (_addcarryx_u32(carry, u, v, w));

	adcx	ecx, DWORD PTR [esi+60]
	mov	DWORD PTR [edi+60], ecx
; File z:\sources\lunor\repos\rougemeilland\palmtree.math.core.implements\palmtree.math.core.implements\autogenerated_inline_func.h

; 2347 :         return (c);

	pop	edi
; File z:\sources\lunor\repos\rougemeilland\palmtree.math.core.implements\palmtree.math.core.implements\pmc_internal.h

; 454  :     return (_addcarryx_u32(carry, u, v, w));

	setb	al
; File z:\sources\lunor\repos\rougemeilland\palmtree.math.core.implements\palmtree.math.core.implements\autogenerated_inline_func.h

; 2347 :         return (c);

	pop	esi

; 2348 :     }

	pop	ebp
	ret	0
__ADD_16WORDS_ADCX ENDP
_TEXT	ENDS
; Function compile flags: /Ogtp
; File z:\sources\lunor\repos\rougemeilland\palmtree.math.core.implements\palmtree.math.core.implements\autogenerated_inline_func.h
; File z:\sources\lunor\repos\rougemeilland\palmtree.math.core.implements\palmtree.math.core.implements\pmc_internal.h
; File z:\sources\lunor\repos\rougemeilland\palmtree.math.core.implements\palmtree.math.core.implements\autogenerated_inline_func.h
; File z:\sources\lunor\repos\rougemeilland\palmtree.math.core.implements\palmtree.math.core.implements\pmc_internal.h
; File z:\sources\lunor\repos\rougemeilland\palmtree.math.core.implements\palmtree.math.core.implements\autogenerated_inline_func.h
; File z:\sources\lunor\repos\rougemeilland\palmtree.math.core.implements\palmtree.math.core.implements\pmc_internal.h
; File z:\sources\lunor\repos\rougemeilland\palmtree.math.core.implements\palmtree.math.core.implements\autogenerated_inline_func.h
; File z:\sources\lunor\repos\rougemeilland\palmtree.math.core.implements\palmtree.math.core.implements\pmc_internal.h
; File z:\sources\lunor\repos\rougemeilland\palmtree.math.core.implements\palmtree.math.core.implements\autogenerated_inline_func.h
; File z:\sources\lunor\repos\rougemeilland\palmtree.math.core.implements\palmtree.math.core.implements\pmc_internal.h
; File z:\sources\lunor\repos\rougemeilland\palmtree.math.core.implements\palmtree.math.core.implements\autogenerated_inline_func.h
; File z:\sources\lunor\repos\rougemeilland\palmtree.math.core.implements\palmtree.math.core.implements\pmc_internal.h
; File z:\sources\lunor\repos\rougemeilland\palmtree.math.core.implements\palmtree.math.core.implements\autogenerated_inline_func.h
; File z:\sources\lunor\repos\rougemeilland\palmtree.math.core.implements\palmtree.math.core.implements\pmc_internal.h
; File z:\sources\lunor\repos\rougemeilland\palmtree.math.core.implements\palmtree.math.core.implements\autogenerated_inline_func.h
; File z:\sources\lunor\repos\rougemeilland\palmtree.math.core.implements\palmtree.math.core.implements\pmc_internal.h
; File z:\sources\lunor\repos\rougemeilland\palmtree.math.core.implements\palmtree.math.core.implements\autogenerated_inline_func.h
; File z:\sources\lunor\repos\rougemeilland\palmtree.math.core.implements\palmtree.math.core.implements\pmc_internal.h
; File z:\sources\lunor\repos\rougemeilland\palmtree.math.core.implements\palmtree.math.core.implements\autogenerated_inline_func.h
; File z:\sources\lunor\repos\rougemeilland\palmtree.math.core.implements\palmtree.math.core.implements\pmc_internal.h
; File z:\sources\lunor\repos\rougemeilland\palmtree.math.core.implements\palmtree.math.core.implements\autogenerated_inline_func.h
; File z:\sources\lunor\repos\rougemeilland\palmtree.math.core.implements\palmtree.math.core.implements\pmc_internal.h
; File z:\sources\lunor\repos\rougemeilland\palmtree.math.core.implements\palmtree.math.core.implements\autogenerated_inline_func.h
; File z:\sources\lunor\repos\rougemeilland\palmtree.math.core.implements\palmtree.math.core.implements\pmc_internal.h
; File z:\sources\lunor\repos\rougemeilland\palmtree.math.core.implements\palmtree.math.core.implements\autogenerated_inline_func.h
; File z:\sources\lunor\repos\rougemeilland\palmtree.math.core.implements\palmtree.math.core.implements\pmc_internal.h
; File z:\sources\lunor\repos\rougemeilland\palmtree.math.core.implements\palmtree.math.core.implements\autogenerated_inline_func.h
; File z:\sources\lunor\repos\rougemeilland\palmtree.math.core.implements\palmtree.math.core.implements\pmc_internal.h
; File z:\sources\lunor\repos\rougemeilland\palmtree.math.core.implements\palmtree.math.core.implements\autogenerated_inline_func.h
; File z:\sources\lunor\repos\rougemeilland\palmtree.math.core.implements\palmtree.math.core.implements\pmc_internal.h
; File z:\sources\lunor\repos\rougemeilland\palmtree.math.core.implements\palmtree.math.core.implements\autogenerated_inline_func.h
; File z:\sources\lunor\repos\rougemeilland\palmtree.math.core.implements\palmtree.math.core.implements\pmc_internal.h
; File z:\sources\lunor\repos\rougemeilland\palmtree.math.core.implements\palmtree.math.core.implements\autogenerated_inline_func.h
; File z:\sources\lunor\repos\rougemeilland\palmtree.math.core.implements\palmtree.math.core.implements\pmc_internal.h
; File z:\sources\lunor\repos\rougemeilland\palmtree.math.core.implements\palmtree.math.core.implements\autogenerated_inline_func.h
; File z:\sources\lunor\repos\rougemeilland\palmtree.math.core.implements\palmtree.math.core.implements\pmc_internal.h
; File z:\sources\lunor\repos\rougemeilland\palmtree.math.core.implements\palmtree.math.core.implements\autogenerated_inline_func.h
;	COMDAT __ADD_16WORDS_ADC
_TEXT	SEGMENT
_c$ = 8							; size = 1
_xp$ = 12						; size = 4
_yp$ = 16						; size = 4
_zp$ = 20						; size = 4
__ADD_16WORDS_ADC PROC					; COMDAT

; 2069 :     {

	push	ebp
	mov	ebp, esp

; 2070 : #ifdef _MSC_VER
; 2071 :         c = _ADD_UNIT(c, xp[0], yp[0], &zp[0]);

	mov	edx, DWORD PTR _xp$[ebp]
; File z:\sources\lunor\repos\rougemeilland\palmtree.math.core.implements\palmtree.math.core.implements\pmc_internal.h

; 426  :     return (_addcarry_u32(carry, u, v, w));

	mov	al, BYTE PTR _c$[ebp]
	add	al, 255					; 000000ffH
; File z:\sources\lunor\repos\rougemeilland\palmtree.math.core.implements\palmtree.math.core.implements\autogenerated_inline_func.h

; 2069 :     {

	push	esi

; 2070 : #ifdef _MSC_VER
; 2071 :         c = _ADD_UNIT(c, xp[0], yp[0], &zp[0]);

	mov	esi, DWORD PTR _yp$[ebp]
	mov	ecx, DWORD PTR [edx]
	push	edi
; File z:\sources\lunor\repos\rougemeilland\palmtree.math.core.implements\palmtree.math.core.implements\pmc_internal.h

; 426  :     return (_addcarry_u32(carry, u, v, w));

	mov	edi, DWORD PTR _zp$[ebp]
	adc	ecx, DWORD PTR [esi]
	mov	DWORD PTR [edi], ecx
; File z:\sources\lunor\repos\rougemeilland\palmtree.math.core.implements\palmtree.math.core.implements\autogenerated_inline_func.h

; 2072 :         c = _ADD_UNIT(c, xp[1], yp[1], &zp[1]);

	mov	eax, DWORD PTR [edx+4]
; File z:\sources\lunor\repos\rougemeilland\palmtree.math.core.implements\palmtree.math.core.implements\pmc_internal.h

; 426  :     return (_addcarry_u32(carry, u, v, w));

	adc	eax, DWORD PTR [esi+4]
	mov	DWORD PTR [edi+4], eax
; File z:\sources\lunor\repos\rougemeilland\palmtree.math.core.implements\palmtree.math.core.implements\autogenerated_inline_func.h

; 2073 :         c = _ADD_UNIT(c, xp[2], yp[2], &zp[2]);

	mov	eax, DWORD PTR [edx+8]
; File z:\sources\lunor\repos\rougemeilland\palmtree.math.core.implements\palmtree.math.core.implements\pmc_internal.h

; 426  :     return (_addcarry_u32(carry, u, v, w));

	adc	eax, DWORD PTR [esi+8]
	mov	DWORD PTR [edi+8], eax
; File z:\sources\lunor\repos\rougemeilland\palmtree.math.core.implements\palmtree.math.core.implements\autogenerated_inline_func.h

; 2074 :         c = _ADD_UNIT(c, xp[3], yp[3], &zp[3]);

	mov	eax, DWORD PTR [edx+12]
; File z:\sources\lunor\repos\rougemeilland\palmtree.math.core.implements\palmtree.math.core.implements\pmc_internal.h

; 426  :     return (_addcarry_u32(carry, u, v, w));

	adc	eax, DWORD PTR [esi+12]
	mov	DWORD PTR [edi+12], eax
; File z:\sources\lunor\repos\rougemeilland\palmtree.math.core.implements\palmtree.math.core.implements\autogenerated_inline_func.h

; 2075 :         c = _ADD_UNIT(c, xp[4], yp[4], &zp[4]);

	mov	eax, DWORD PTR [edx+16]
; File z:\sources\lunor\repos\rougemeilland\palmtree.math.core.implements\palmtree.math.core.implements\pmc_internal.h

; 426  :     return (_addcarry_u32(carry, u, v, w));

	adc	eax, DWORD PTR [esi+16]
	mov	DWORD PTR [edi+16], eax
; File z:\sources\lunor\repos\rougemeilland\palmtree.math.core.implements\palmtree.math.core.implements\autogenerated_inline_func.h

; 2076 :         c = _ADD_UNIT(c, xp[5], yp[5], &zp[5]);

	mov	eax, DWORD PTR [edx+20]
; File z:\sources\lunor\repos\rougemeilland\palmtree.math.core.implements\palmtree.math.core.implements\pmc_internal.h

; 426  :     return (_addcarry_u32(carry, u, v, w));

	adc	eax, DWORD PTR [esi+20]
	mov	DWORD PTR [edi+20], eax
; File z:\sources\lunor\repos\rougemeilland\palmtree.math.core.implements\palmtree.math.core.implements\autogenerated_inline_func.h

; 2077 :         c = _ADD_UNIT(c, xp[6], yp[6], &zp[6]);

	mov	eax, DWORD PTR [edx+24]
; File z:\sources\lunor\repos\rougemeilland\palmtree.math.core.implements\palmtree.math.core.implements\pmc_internal.h

; 426  :     return (_addcarry_u32(carry, u, v, w));

	adc	eax, DWORD PTR [esi+24]
	mov	DWORD PTR [edi+24], eax
; File z:\sources\lunor\repos\rougemeilland\palmtree.math.core.implements\palmtree.math.core.implements\autogenerated_inline_func.h

; 2078 :         c = _ADD_UNIT(c, xp[7], yp[7], &zp[7]);

	mov	eax, DWORD PTR [edx+28]
; File z:\sources\lunor\repos\rougemeilland\palmtree.math.core.implements\palmtree.math.core.implements\pmc_internal.h

; 426  :     return (_addcarry_u32(carry, u, v, w));

	adc	eax, DWORD PTR [esi+28]
	mov	DWORD PTR [edi+28], eax
; File z:\sources\lunor\repos\rougemeilland\palmtree.math.core.implements\palmtree.math.core.implements\autogenerated_inline_func.h

; 2079 :         c = _ADD_UNIT(c, xp[8], yp[8], &zp[8]);

	mov	eax, DWORD PTR [edx+32]
; File z:\sources\lunor\repos\rougemeilland\palmtree.math.core.implements\palmtree.math.core.implements\pmc_internal.h

; 426  :     return (_addcarry_u32(carry, u, v, w));

	adc	eax, DWORD PTR [esi+32]
	mov	DWORD PTR [edi+32], eax
; File z:\sources\lunor\repos\rougemeilland\palmtree.math.core.implements\palmtree.math.core.implements\autogenerated_inline_func.h

; 2080 :         c = _ADD_UNIT(c, xp[9], yp[9], &zp[9]);

	mov	eax, DWORD PTR [edx+36]
; File z:\sources\lunor\repos\rougemeilland\palmtree.math.core.implements\palmtree.math.core.implements\pmc_internal.h

; 426  :     return (_addcarry_u32(carry, u, v, w));

	adc	eax, DWORD PTR [esi+36]
	mov	DWORD PTR [edi+36], eax
; File z:\sources\lunor\repos\rougemeilland\palmtree.math.core.implements\palmtree.math.core.implements\autogenerated_inline_func.h

; 2081 :         c = _ADD_UNIT(c, xp[10], yp[10], &zp[10]);

	mov	eax, DWORD PTR [edx+40]
; File z:\sources\lunor\repos\rougemeilland\palmtree.math.core.implements\palmtree.math.core.implements\pmc_internal.h

; 426  :     return (_addcarry_u32(carry, u, v, w));

	adc	eax, DWORD PTR [esi+40]
	mov	DWORD PTR [edi+40], eax
; File z:\sources\lunor\repos\rougemeilland\palmtree.math.core.implements\palmtree.math.core.implements\autogenerated_inline_func.h

; 2082 :         c = _ADD_UNIT(c, xp[11], yp[11], &zp[11]);

	mov	eax, DWORD PTR [edx+44]
; File z:\sources\lunor\repos\rougemeilland\palmtree.math.core.implements\palmtree.math.core.implements\pmc_internal.h

; 426  :     return (_addcarry_u32(carry, u, v, w));

	adc	eax, DWORD PTR [esi+44]
	mov	DWORD PTR [edi+44], eax
; File z:\sources\lunor\repos\rougemeilland\palmtree.math.core.implements\palmtree.math.core.implements\autogenerated_inline_func.h

; 2083 :         c = _ADD_UNIT(c, xp[12], yp[12], &zp[12]);

	mov	eax, DWORD PTR [edx+48]
; File z:\sources\lunor\repos\rougemeilland\palmtree.math.core.implements\palmtree.math.core.implements\pmc_internal.h

; 426  :     return (_addcarry_u32(carry, u, v, w));

	adc	eax, DWORD PTR [esi+48]
	mov	DWORD PTR [edi+48], eax
; File z:\sources\lunor\repos\rougemeilland\palmtree.math.core.implements\palmtree.math.core.implements\autogenerated_inline_func.h

; 2084 :         c = _ADD_UNIT(c, xp[13], yp[13], &zp[13]);

	mov	eax, DWORD PTR [edx+52]
; File z:\sources\lunor\repos\rougemeilland\palmtree.math.core.implements\palmtree.math.core.implements\pmc_internal.h

; 426  :     return (_addcarry_u32(carry, u, v, w));

	adc	eax, DWORD PTR [esi+52]
	mov	DWORD PTR [edi+52], eax
; File z:\sources\lunor\repos\rougemeilland\palmtree.math.core.implements\palmtree.math.core.implements\autogenerated_inline_func.h

; 2085 :         c = _ADD_UNIT(c, xp[14], yp[14], &zp[14]);

	mov	eax, DWORD PTR [edx+56]
; File z:\sources\lunor\repos\rougemeilland\palmtree.math.core.implements\palmtree.math.core.implements\pmc_internal.h

; 426  :     return (_addcarry_u32(carry, u, v, w));

	adc	eax, DWORD PTR [esi+56]
	mov	DWORD PTR [edi+56], eax
; File z:\sources\lunor\repos\rougemeilland\palmtree.math.core.implements\palmtree.math.core.implements\autogenerated_inline_func.h

; 2086 :         c = _ADD_UNIT(c, xp[15], yp[15], &zp[15]);

	mov	ecx, DWORD PTR [edx+60]
; File z:\sources\lunor\repos\rougemeilland\palmtree.math.core.implements\palmtree.math.core.implements\pmc_internal.h

; 426  :     return (_addcarry_u32(carry, u, v, w));

	adc	ecx, DWORD PTR [esi+60]
	mov	DWORD PTR [edi+60], ecx
; File z:\sources\lunor\repos\rougemeilland\palmtree.math.core.implements\palmtree.math.core.implements\autogenerated_inline_func.h

; 2206 :         return (c);

	pop	edi
; File z:\sources\lunor\repos\rougemeilland\palmtree.math.core.implements\palmtree.math.core.implements\pmc_internal.h

; 426  :     return (_addcarry_u32(carry, u, v, w));

	setb	al
; File z:\sources\lunor\repos\rougemeilland\palmtree.math.core.implements\palmtree.math.core.implements\autogenerated_inline_func.h

; 2206 :         return (c);

	pop	esi

; 2207 :     }

	pop	ebp
	ret	0
__ADD_16WORDS_ADC ENDP
_TEXT	ENDS
; Function compile flags: /Ogtp
; File z:\sources\lunor\repos\rougemeilland\palmtree.math.core.implements\palmtree.math.core.implements\autogenerated_inline_func.h
; File z:\sources\lunor\repos\rougemeilland\palmtree.math.core.implements\palmtree.math.core.implements\pmc_internal.h
; File z:\sources\lunor\repos\rougemeilland\palmtree.math.core.implements\palmtree.math.core.implements\autogenerated_inline_func.h
; File z:\sources\lunor\repos\rougemeilland\palmtree.math.core.implements\palmtree.math.core.implements\pmc_internal.h
; File z:\sources\lunor\repos\rougemeilland\palmtree.math.core.implements\palmtree.math.core.implements\autogenerated_inline_func.h
; File z:\sources\lunor\repos\rougemeilland\palmtree.math.core.implements\palmtree.math.core.implements\pmc_internal.h
; File z:\sources\lunor\repos\rougemeilland\palmtree.math.core.implements\palmtree.math.core.implements\autogenerated_inline_func.h
; File z:\sources\lunor\repos\rougemeilland\palmtree.math.core.implements\palmtree.math.core.implements\pmc_internal.h
; File z:\sources\lunor\repos\rougemeilland\palmtree.math.core.implements\palmtree.math.core.implements\autogenerated_inline_func.h
; File z:\sources\lunor\repos\rougemeilland\palmtree.math.core.implements\palmtree.math.core.implements\pmc_internal.h
; File z:\sources\lunor\repos\rougemeilland\palmtree.math.core.implements\palmtree.math.core.implements\autogenerated_inline_func.h
; File z:\sources\lunor\repos\rougemeilland\palmtree.math.core.implements\palmtree.math.core.implements\pmc_internal.h
; File z:\sources\lunor\repos\rougemeilland\palmtree.math.core.implements\palmtree.math.core.implements\autogenerated_inline_func.h
; File z:\sources\lunor\repos\rougemeilland\palmtree.math.core.implements\palmtree.math.core.implements\pmc_internal.h
; File z:\sources\lunor\repos\rougemeilland\palmtree.math.core.implements\palmtree.math.core.implements\autogenerated_inline_func.h
; File z:\sources\lunor\repos\rougemeilland\palmtree.math.core.implements\palmtree.math.core.implements\pmc_internal.h
; File z:\sources\lunor\repos\rougemeilland\palmtree.math.core.implements\palmtree.math.core.implements\autogenerated_inline_func.h
; File z:\sources\lunor\repos\rougemeilland\palmtree.math.core.implements\palmtree.math.core.implements\pmc_internal.h
; File z:\sources\lunor\repos\rougemeilland\palmtree.math.core.implements\palmtree.math.core.implements\autogenerated_inline_func.h
; File z:\sources\lunor\repos\rougemeilland\palmtree.math.core.implements\palmtree.math.core.implements\pmc_internal.h
; File z:\sources\lunor\repos\rougemeilland\palmtree.math.core.implements\palmtree.math.core.implements\autogenerated_inline_func.h
; File z:\sources\lunor\repos\rougemeilland\palmtree.math.core.implements\palmtree.math.core.implements\pmc_internal.h
; File z:\sources\lunor\repos\rougemeilland\palmtree.math.core.implements\palmtree.math.core.implements\autogenerated_inline_func.h
; File z:\sources\lunor\repos\rougemeilland\palmtree.math.core.implements\palmtree.math.core.implements\pmc_internal.h
; File z:\sources\lunor\repos\rougemeilland\palmtree.math.core.implements\palmtree.math.core.implements\autogenerated_inline_func.h
; File z:\sources\lunor\repos\rougemeilland\palmtree.math.core.implements\palmtree.math.core.implements\pmc_internal.h
; File z:\sources\lunor\repos\rougemeilland\palmtree.math.core.implements\palmtree.math.core.implements\autogenerated_inline_func.h
; File z:\sources\lunor\repos\rougemeilland\palmtree.math.core.implements\palmtree.math.core.implements\pmc_internal.h
; File z:\sources\lunor\repos\rougemeilland\palmtree.math.core.implements\palmtree.math.core.implements\autogenerated_inline_func.h
; File z:\sources\lunor\repos\rougemeilland\palmtree.math.core.implements\palmtree.math.core.implements\pmc_internal.h
; File z:\sources\lunor\repos\rougemeilland\palmtree.math.core.implements\palmtree.math.core.implements\autogenerated_inline_func.h
; File z:\sources\lunor\repos\rougemeilland\palmtree.math.core.implements\palmtree.math.core.implements\pmc_internal.h
; File z:\sources\lunor\repos\rougemeilland\palmtree.math.core.implements\palmtree.math.core.implements\autogenerated_inline_func.h
; File z:\sources\lunor\repos\rougemeilland\palmtree.math.core.implements\palmtree.math.core.implements\pmc_internal.h
; File z:\sources\lunor\repos\rougemeilland\palmtree.math.core.implements\palmtree.math.core.implements\autogenerated_inline_func.h
; File z:\sources\lunor\repos\rougemeilland\palmtree.math.core.implements\palmtree.math.core.implements\pmc_internal.h
; File z:\sources\lunor\repos\rougemeilland\palmtree.math.core.implements\palmtree.math.core.implements\autogenerated_inline_func.h
; File z:\sources\lunor\repos\rougemeilland\palmtree.math.core.implements\palmtree.math.core.implements\pmc_internal.h
; File z:\sources\lunor\repos\rougemeilland\palmtree.math.core.implements\palmtree.math.core.implements\autogenerated_inline_func.h
; File z:\sources\lunor\repos\rougemeilland\palmtree.math.core.implements\palmtree.math.core.implements\pmc_internal.h
; File z:\sources\lunor\repos\rougemeilland\palmtree.math.core.implements\palmtree.math.core.implements\autogenerated_inline_func.h
; File z:\sources\lunor\repos\rougemeilland\palmtree.math.core.implements\palmtree.math.core.implements\pmc_internal.h
; File z:\sources\lunor\repos\rougemeilland\palmtree.math.core.implements\palmtree.math.core.implements\autogenerated_inline_func.h
; File z:\sources\lunor\repos\rougemeilland\palmtree.math.core.implements\palmtree.math.core.implements\pmc_internal.h
; File z:\sources\lunor\repos\rougemeilland\palmtree.math.core.implements\palmtree.math.core.implements\autogenerated_inline_func.h
; File z:\sources\lunor\repos\rougemeilland\palmtree.math.core.implements\palmtree.math.core.implements\pmc_internal.h
; File z:\sources\lunor\repos\rougemeilland\palmtree.math.core.implements\palmtree.math.core.implements\autogenerated_inline_func.h
; File z:\sources\lunor\repos\rougemeilland\palmtree.math.core.implements\palmtree.math.core.implements\pmc_internal.h
; File z:\sources\lunor\repos\rougemeilland\palmtree.math.core.implements\palmtree.math.core.implements\autogenerated_inline_func.h
; File z:\sources\lunor\repos\rougemeilland\palmtree.math.core.implements\palmtree.math.core.implements\pmc_internal.h
; File z:\sources\lunor\repos\rougemeilland\palmtree.math.core.implements\palmtree.math.core.implements\autogenerated_inline_func.h
; File z:\sources\lunor\repos\rougemeilland\palmtree.math.core.implements\palmtree.math.core.implements\pmc_internal.h
; File z:\sources\lunor\repos\rougemeilland\palmtree.math.core.implements\palmtree.math.core.implements\autogenerated_inline_func.h
; File z:\sources\lunor\repos\rougemeilland\palmtree.math.core.implements\palmtree.math.core.implements\pmc_internal.h
; File z:\sources\lunor\repos\rougemeilland\palmtree.math.core.implements\palmtree.math.core.implements\autogenerated_inline_func.h
; File z:\sources\lunor\repos\rougemeilland\palmtree.math.core.implements\palmtree.math.core.implements\pmc_internal.h
; File z:\sources\lunor\repos\rougemeilland\palmtree.math.core.implements\palmtree.math.core.implements\autogenerated_inline_func.h
; File z:\sources\lunor\repos\rougemeilland\palmtree.math.core.implements\palmtree.math.core.implements\pmc_internal.h
; File z:\sources\lunor\repos\rougemeilland\palmtree.math.core.implements\palmtree.math.core.implements\autogenerated_inline_func.h
; File z:\sources\lunor\repos\rougemeilland\palmtree.math.core.implements\palmtree.math.core.implements\pmc_internal.h
; File z:\sources\lunor\repos\rougemeilland\palmtree.math.core.implements\palmtree.math.core.implements\autogenerated_inline_func.h
; File z:\sources\lunor\repos\rougemeilland\palmtree.math.core.implements\palmtree.math.core.implements\pmc_internal.h
; File z:\sources\lunor\repos\rougemeilland\palmtree.math.core.implements\palmtree.math.core.implements\autogenerated_inline_func.h
; File z:\sources\lunor\repos\rougemeilland\palmtree.math.core.implements\palmtree.math.core.implements\pmc_internal.h
; File z:\sources\lunor\repos\rougemeilland\palmtree.math.core.implements\palmtree.math.core.implements\autogenerated_inline_func.h
; File z:\sources\lunor\repos\rougemeilland\palmtree.math.core.implements\palmtree.math.core.implements\pmc_internal.h
; File z:\sources\lunor\repos\rougemeilland\palmtree.math.core.implements\palmtree.math.core.implements\autogenerated_inline_func.h
; File z:\sources\lunor\repos\rougemeilland\palmtree.math.core.implements\palmtree.math.core.implements\pmc_internal.h
; File z:\sources\lunor\repos\rougemeilland\palmtree.math.core.implements\palmtree.math.core.implements\autogenerated_inline_func.h
;	COMDAT __ADD_32WORDS_ADCX
_TEXT	SEGMENT
_c$ = 8							; size = 1
_xp$ = 12						; size = 4
_yp$ = 16						; size = 4
_zp$ = 20						; size = 4
__ADD_32WORDS_ADCX PROC					; COMDAT

; 298  :     {

	push	ebp
	mov	ebp, esp

; 299  : #ifdef _MSC_VER
; 300  :         c = _ADDX_UNIT(c, xp[0], yp[0], &zp[0]);

	mov	edx, DWORD PTR _xp$[ebp]
; File z:\sources\lunor\repos\rougemeilland\palmtree.math.core.implements\palmtree.math.core.implements\pmc_internal.h

; 454  :     return (_addcarryx_u32(carry, u, v, w));

	mov	al, BYTE PTR _c$[ebp]
	add	al, 255					; 000000ffH
; File z:\sources\lunor\repos\rougemeilland\palmtree.math.core.implements\palmtree.math.core.implements\autogenerated_inline_func.h

; 298  :     {

	push	esi

; 299  : #ifdef _MSC_VER
; 300  :         c = _ADDX_UNIT(c, xp[0], yp[0], &zp[0]);

	mov	esi, DWORD PTR _yp$[ebp]
	mov	ecx, DWORD PTR [edx]
	push	edi
; File z:\sources\lunor\repos\rougemeilland\palmtree.math.core.implements\palmtree.math.core.implements\pmc_internal.h

; 454  :     return (_addcarryx_u32(carry, u, v, w));

	mov	edi, DWORD PTR _zp$[ebp]
	adcx	ecx, DWORD PTR [esi]
	mov	DWORD PTR [edi], ecx
; File z:\sources\lunor\repos\rougemeilland\palmtree.math.core.implements\palmtree.math.core.implements\autogenerated_inline_func.h

; 301  :         c = _ADDX_UNIT(c, xp[1], yp[1], &zp[1]);

	mov	eax, DWORD PTR [edx+4]
; File z:\sources\lunor\repos\rougemeilland\palmtree.math.core.implements\palmtree.math.core.implements\pmc_internal.h

; 454  :     return (_addcarryx_u32(carry, u, v, w));

	adcx	eax, DWORD PTR [esi+4]
	mov	DWORD PTR [edi+4], eax
; File z:\sources\lunor\repos\rougemeilland\palmtree.math.core.implements\palmtree.math.core.implements\autogenerated_inline_func.h

; 302  :         c = _ADDX_UNIT(c, xp[2], yp[2], &zp[2]);

	mov	eax, DWORD PTR [edx+8]
; File z:\sources\lunor\repos\rougemeilland\palmtree.math.core.implements\palmtree.math.core.implements\pmc_internal.h

; 454  :     return (_addcarryx_u32(carry, u, v, w));

	adcx	eax, DWORD PTR [esi+8]
	mov	DWORD PTR [edi+8], eax
; File z:\sources\lunor\repos\rougemeilland\palmtree.math.core.implements\palmtree.math.core.implements\autogenerated_inline_func.h

; 303  :         c = _ADDX_UNIT(c, xp[3], yp[3], &zp[3]);

	mov	eax, DWORD PTR [edx+12]
; File z:\sources\lunor\repos\rougemeilland\palmtree.math.core.implements\palmtree.math.core.implements\pmc_internal.h

; 454  :     return (_addcarryx_u32(carry, u, v, w));

	adcx	eax, DWORD PTR [esi+12]
	mov	DWORD PTR [edi+12], eax
; File z:\sources\lunor\repos\rougemeilland\palmtree.math.core.implements\palmtree.math.core.implements\autogenerated_inline_func.h

; 304  :         c = _ADDX_UNIT(c, xp[4], yp[4], &zp[4]);

	mov	eax, DWORD PTR [edx+16]
; File z:\sources\lunor\repos\rougemeilland\palmtree.math.core.implements\palmtree.math.core.implements\pmc_internal.h

; 454  :     return (_addcarryx_u32(carry, u, v, w));

	adcx	eax, DWORD PTR [esi+16]
	mov	DWORD PTR [edi+16], eax
; File z:\sources\lunor\repos\rougemeilland\palmtree.math.core.implements\palmtree.math.core.implements\autogenerated_inline_func.h

; 305  :         c = _ADDX_UNIT(c, xp[5], yp[5], &zp[5]);

	mov	eax, DWORD PTR [edx+20]
; File z:\sources\lunor\repos\rougemeilland\palmtree.math.core.implements\palmtree.math.core.implements\pmc_internal.h

; 454  :     return (_addcarryx_u32(carry, u, v, w));

	adcx	eax, DWORD PTR [esi+20]
	mov	DWORD PTR [edi+20], eax
; File z:\sources\lunor\repos\rougemeilland\palmtree.math.core.implements\palmtree.math.core.implements\autogenerated_inline_func.h

; 306  :         c = _ADDX_UNIT(c, xp[6], yp[6], &zp[6]);

	mov	eax, DWORD PTR [edx+24]
; File z:\sources\lunor\repos\rougemeilland\palmtree.math.core.implements\palmtree.math.core.implements\pmc_internal.h

; 454  :     return (_addcarryx_u32(carry, u, v, w));

	adcx	eax, DWORD PTR [esi+24]
	mov	DWORD PTR [edi+24], eax
; File z:\sources\lunor\repos\rougemeilland\palmtree.math.core.implements\palmtree.math.core.implements\autogenerated_inline_func.h

; 307  :         c = _ADDX_UNIT(c, xp[7], yp[7], &zp[7]);

	mov	eax, DWORD PTR [edx+28]
; File z:\sources\lunor\repos\rougemeilland\palmtree.math.core.implements\palmtree.math.core.implements\pmc_internal.h

; 454  :     return (_addcarryx_u32(carry, u, v, w));

	adcx	eax, DWORD PTR [esi+28]
	mov	DWORD PTR [edi+28], eax
; File z:\sources\lunor\repos\rougemeilland\palmtree.math.core.implements\palmtree.math.core.implements\autogenerated_inline_func.h

; 308  :         c = _ADDX_UNIT(c, xp[8], yp[8], &zp[8]);

	mov	eax, DWORD PTR [edx+32]
; File z:\sources\lunor\repos\rougemeilland\palmtree.math.core.implements\palmtree.math.core.implements\pmc_internal.h

; 454  :     return (_addcarryx_u32(carry, u, v, w));

	adcx	eax, DWORD PTR [esi+32]
	mov	DWORD PTR [edi+32], eax
; File z:\sources\lunor\repos\rougemeilland\palmtree.math.core.implements\palmtree.math.core.implements\autogenerated_inline_func.h

; 309  :         c = _ADDX_UNIT(c, xp[9], yp[9], &zp[9]);

	mov	eax, DWORD PTR [edx+36]
; File z:\sources\lunor\repos\rougemeilland\palmtree.math.core.implements\palmtree.math.core.implements\pmc_internal.h

; 454  :     return (_addcarryx_u32(carry, u, v, w));

	adcx	eax, DWORD PTR [esi+36]
	mov	DWORD PTR [edi+36], eax
; File z:\sources\lunor\repos\rougemeilland\palmtree.math.core.implements\palmtree.math.core.implements\autogenerated_inline_func.h

; 310  :         c = _ADDX_UNIT(c, xp[10], yp[10], &zp[10]);

	mov	eax, DWORD PTR [edx+40]
; File z:\sources\lunor\repos\rougemeilland\palmtree.math.core.implements\palmtree.math.core.implements\pmc_internal.h

; 454  :     return (_addcarryx_u32(carry, u, v, w));

	adcx	eax, DWORD PTR [esi+40]
	mov	DWORD PTR [edi+40], eax
; File z:\sources\lunor\repos\rougemeilland\palmtree.math.core.implements\palmtree.math.core.implements\autogenerated_inline_func.h

; 311  :         c = _ADDX_UNIT(c, xp[11], yp[11], &zp[11]);

	mov	eax, DWORD PTR [edx+44]
; File z:\sources\lunor\repos\rougemeilland\palmtree.math.core.implements\palmtree.math.core.implements\pmc_internal.h

; 454  :     return (_addcarryx_u32(carry, u, v, w));

	adcx	eax, DWORD PTR [esi+44]
	mov	DWORD PTR [edi+44], eax
; File z:\sources\lunor\repos\rougemeilland\palmtree.math.core.implements\palmtree.math.core.implements\autogenerated_inline_func.h

; 312  :         c = _ADDX_UNIT(c, xp[12], yp[12], &zp[12]);

	mov	eax, DWORD PTR [edx+48]
; File z:\sources\lunor\repos\rougemeilland\palmtree.math.core.implements\palmtree.math.core.implements\pmc_internal.h

; 454  :     return (_addcarryx_u32(carry, u, v, w));

	adcx	eax, DWORD PTR [esi+48]
	mov	DWORD PTR [edi+48], eax
; File z:\sources\lunor\repos\rougemeilland\palmtree.math.core.implements\palmtree.math.core.implements\autogenerated_inline_func.h

; 313  :         c = _ADDX_UNIT(c, xp[13], yp[13], &zp[13]);

	mov	eax, DWORD PTR [edx+52]
; File z:\sources\lunor\repos\rougemeilland\palmtree.math.core.implements\palmtree.math.core.implements\pmc_internal.h

; 454  :     return (_addcarryx_u32(carry, u, v, w));

	adcx	eax, DWORD PTR [esi+52]
	mov	DWORD PTR [edi+52], eax
; File z:\sources\lunor\repos\rougemeilland\palmtree.math.core.implements\palmtree.math.core.implements\autogenerated_inline_func.h

; 314  :         c = _ADDX_UNIT(c, xp[14], yp[14], &zp[14]);

	mov	eax, DWORD PTR [edx+56]
; File z:\sources\lunor\repos\rougemeilland\palmtree.math.core.implements\palmtree.math.core.implements\pmc_internal.h

; 454  :     return (_addcarryx_u32(carry, u, v, w));

	adcx	eax, DWORD PTR [esi+56]
	mov	DWORD PTR [edi+56], eax
; File z:\sources\lunor\repos\rougemeilland\palmtree.math.core.implements\palmtree.math.core.implements\autogenerated_inline_func.h

; 315  :         c = _ADDX_UNIT(c, xp[15], yp[15], &zp[15]);

	mov	eax, DWORD PTR [edx+60]
; File z:\sources\lunor\repos\rougemeilland\palmtree.math.core.implements\palmtree.math.core.implements\pmc_internal.h

; 454  :     return (_addcarryx_u32(carry, u, v, w));

	adcx	eax, DWORD PTR [esi+60]
	mov	DWORD PTR [edi+60], eax
; File z:\sources\lunor\repos\rougemeilland\palmtree.math.core.implements\palmtree.math.core.implements\autogenerated_inline_func.h

; 316  :         c = _ADDX_UNIT(c, xp[16], yp[16], &zp[16]);

	mov	eax, DWORD PTR [edx+64]
; File z:\sources\lunor\repos\rougemeilland\palmtree.math.core.implements\palmtree.math.core.implements\pmc_internal.h

; 454  :     return (_addcarryx_u32(carry, u, v, w));

	adcx	eax, DWORD PTR [esi+64]
	mov	DWORD PTR [edi+64], eax
; File z:\sources\lunor\repos\rougemeilland\palmtree.math.core.implements\palmtree.math.core.implements\autogenerated_inline_func.h

; 317  :         c = _ADDX_UNIT(c, xp[17], yp[17], &zp[17]);

	mov	eax, DWORD PTR [edx+68]
; File z:\sources\lunor\repos\rougemeilland\palmtree.math.core.implements\palmtree.math.core.implements\pmc_internal.h

; 454  :     return (_addcarryx_u32(carry, u, v, w));

	adcx	eax, DWORD PTR [esi+68]
	mov	DWORD PTR [edi+68], eax
; File z:\sources\lunor\repos\rougemeilland\palmtree.math.core.implements\palmtree.math.core.implements\autogenerated_inline_func.h

; 318  :         c = _ADDX_UNIT(c, xp[18], yp[18], &zp[18]);

	mov	eax, DWORD PTR [edx+72]
; File z:\sources\lunor\repos\rougemeilland\palmtree.math.core.implements\palmtree.math.core.implements\pmc_internal.h

; 454  :     return (_addcarryx_u32(carry, u, v, w));

	adcx	eax, DWORD PTR [esi+72]
	mov	DWORD PTR [edi+72], eax
; File z:\sources\lunor\repos\rougemeilland\palmtree.math.core.implements\palmtree.math.core.implements\autogenerated_inline_func.h

; 319  :         c = _ADDX_UNIT(c, xp[19], yp[19], &zp[19]);

	mov	eax, DWORD PTR [edx+76]
; File z:\sources\lunor\repos\rougemeilland\palmtree.math.core.implements\palmtree.math.core.implements\pmc_internal.h

; 454  :     return (_addcarryx_u32(carry, u, v, w));

	adcx	eax, DWORD PTR [esi+76]
	mov	DWORD PTR [edi+76], eax
; File z:\sources\lunor\repos\rougemeilland\palmtree.math.core.implements\palmtree.math.core.implements\autogenerated_inline_func.h

; 320  :         c = _ADDX_UNIT(c, xp[20], yp[20], &zp[20]);

	mov	eax, DWORD PTR [edx+80]
; File z:\sources\lunor\repos\rougemeilland\palmtree.math.core.implements\palmtree.math.core.implements\pmc_internal.h

; 454  :     return (_addcarryx_u32(carry, u, v, w));

	adcx	eax, DWORD PTR [esi+80]
	mov	DWORD PTR [edi+80], eax
; File z:\sources\lunor\repos\rougemeilland\palmtree.math.core.implements\palmtree.math.core.implements\autogenerated_inline_func.h

; 321  :         c = _ADDX_UNIT(c, xp[21], yp[21], &zp[21]);

	mov	eax, DWORD PTR [edx+84]
; File z:\sources\lunor\repos\rougemeilland\palmtree.math.core.implements\palmtree.math.core.implements\pmc_internal.h

; 454  :     return (_addcarryx_u32(carry, u, v, w));

	adcx	eax, DWORD PTR [esi+84]
	mov	DWORD PTR [edi+84], eax
; File z:\sources\lunor\repos\rougemeilland\palmtree.math.core.implements\palmtree.math.core.implements\autogenerated_inline_func.h

; 322  :         c = _ADDX_UNIT(c, xp[22], yp[22], &zp[22]);

	mov	eax, DWORD PTR [edx+88]
; File z:\sources\lunor\repos\rougemeilland\palmtree.math.core.implements\palmtree.math.core.implements\pmc_internal.h

; 454  :     return (_addcarryx_u32(carry, u, v, w));

	adcx	eax, DWORD PTR [esi+88]
	mov	DWORD PTR [edi+88], eax
; File z:\sources\lunor\repos\rougemeilland\palmtree.math.core.implements\palmtree.math.core.implements\autogenerated_inline_func.h

; 323  :         c = _ADDX_UNIT(c, xp[23], yp[23], &zp[23]);

	mov	eax, DWORD PTR [edx+92]
; File z:\sources\lunor\repos\rougemeilland\palmtree.math.core.implements\palmtree.math.core.implements\pmc_internal.h

; 454  :     return (_addcarryx_u32(carry, u, v, w));

	adcx	eax, DWORD PTR [esi+92]
	mov	DWORD PTR [edi+92], eax
; File z:\sources\lunor\repos\rougemeilland\palmtree.math.core.implements\palmtree.math.core.implements\autogenerated_inline_func.h

; 324  :         c = _ADDX_UNIT(c, xp[24], yp[24], &zp[24]);

	mov	eax, DWORD PTR [edx+96]
; File z:\sources\lunor\repos\rougemeilland\palmtree.math.core.implements\palmtree.math.core.implements\pmc_internal.h

; 454  :     return (_addcarryx_u32(carry, u, v, w));

	adcx	eax, DWORD PTR [esi+96]
	mov	DWORD PTR [edi+96], eax
; File z:\sources\lunor\repos\rougemeilland\palmtree.math.core.implements\palmtree.math.core.implements\autogenerated_inline_func.h

; 325  :         c = _ADDX_UNIT(c, xp[25], yp[25], &zp[25]);

	mov	eax, DWORD PTR [edx+100]
; File z:\sources\lunor\repos\rougemeilland\palmtree.math.core.implements\palmtree.math.core.implements\pmc_internal.h

; 454  :     return (_addcarryx_u32(carry, u, v, w));

	adcx	eax, DWORD PTR [esi+100]
	mov	DWORD PTR [edi+100], eax
; File z:\sources\lunor\repos\rougemeilland\palmtree.math.core.implements\palmtree.math.core.implements\autogenerated_inline_func.h

; 326  :         c = _ADDX_UNIT(c, xp[26], yp[26], &zp[26]);

	mov	eax, DWORD PTR [edx+104]
; File z:\sources\lunor\repos\rougemeilland\palmtree.math.core.implements\palmtree.math.core.implements\pmc_internal.h

; 454  :     return (_addcarryx_u32(carry, u, v, w));

	adcx	eax, DWORD PTR [esi+104]
	mov	DWORD PTR [edi+104], eax
; File z:\sources\lunor\repos\rougemeilland\palmtree.math.core.implements\palmtree.math.core.implements\autogenerated_inline_func.h

; 327  :         c = _ADDX_UNIT(c, xp[27], yp[27], &zp[27]);

	mov	eax, DWORD PTR [edx+108]
; File z:\sources\lunor\repos\rougemeilland\palmtree.math.core.implements\palmtree.math.core.implements\pmc_internal.h

; 454  :     return (_addcarryx_u32(carry, u, v, w));

	adcx	eax, DWORD PTR [esi+108]
	mov	DWORD PTR [edi+108], eax
; File z:\sources\lunor\repos\rougemeilland\palmtree.math.core.implements\palmtree.math.core.implements\autogenerated_inline_func.h

; 328  :         c = _ADDX_UNIT(c, xp[28], yp[28], &zp[28]);

	mov	eax, DWORD PTR [edx+112]
; File z:\sources\lunor\repos\rougemeilland\palmtree.math.core.implements\palmtree.math.core.implements\pmc_internal.h

; 454  :     return (_addcarryx_u32(carry, u, v, w));

	adcx	eax, DWORD PTR [esi+112]
	mov	DWORD PTR [edi+112], eax
; File z:\sources\lunor\repos\rougemeilland\palmtree.math.core.implements\palmtree.math.core.implements\autogenerated_inline_func.h

; 329  :         c = _ADDX_UNIT(c, xp[29], yp[29], &zp[29]);

	mov	eax, DWORD PTR [edx+116]
; File z:\sources\lunor\repos\rougemeilland\palmtree.math.core.implements\palmtree.math.core.implements\pmc_internal.h

; 454  :     return (_addcarryx_u32(carry, u, v, w));

	adcx	eax, DWORD PTR [esi+116]
	mov	DWORD PTR [edi+116], eax
; File z:\sources\lunor\repos\rougemeilland\palmtree.math.core.implements\palmtree.math.core.implements\autogenerated_inline_func.h

; 330  :         c = _ADDX_UNIT(c, xp[30], yp[30], &zp[30]);

	mov	eax, DWORD PTR [edx+120]
; File z:\sources\lunor\repos\rougemeilland\palmtree.math.core.implements\palmtree.math.core.implements\pmc_internal.h

; 454  :     return (_addcarryx_u32(carry, u, v, w));

	adcx	eax, DWORD PTR [esi+120]
	mov	DWORD PTR [edi+120], eax
; File z:\sources\lunor\repos\rougemeilland\palmtree.math.core.implements\palmtree.math.core.implements\autogenerated_inline_func.h

; 331  :         c = _ADDX_UNIT(c, xp[31], yp[31], &zp[31]);

	mov	ecx, DWORD PTR [edx+124]
; File z:\sources\lunor\repos\rougemeilland\palmtree.math.core.implements\palmtree.math.core.implements\pmc_internal.h

; 454  :     return (_addcarryx_u32(carry, u, v, w));

	adcx	ecx, DWORD PTR [esi+124]
	mov	DWORD PTR [edi+124], ecx
; File z:\sources\lunor\repos\rougemeilland\palmtree.math.core.implements\palmtree.math.core.implements\autogenerated_inline_func.h

; 547  :         return (c);

	pop	edi
; File z:\sources\lunor\repos\rougemeilland\palmtree.math.core.implements\palmtree.math.core.implements\pmc_internal.h

; 454  :     return (_addcarryx_u32(carry, u, v, w));

	setb	al
; File z:\sources\lunor\repos\rougemeilland\palmtree.math.core.implements\palmtree.math.core.implements\autogenerated_inline_func.h

; 547  :         return (c);

	pop	esi

; 548  :     }

	pop	ebp
	ret	0
__ADD_32WORDS_ADCX ENDP
_TEXT	ENDS
; Function compile flags: /Ogtp
; File z:\sources\lunor\repos\rougemeilland\palmtree.math.core.implements\palmtree.math.core.implements\autogenerated_inline_func.h
; File z:\sources\lunor\repos\rougemeilland\palmtree.math.core.implements\palmtree.math.core.implements\pmc_internal.h
; File z:\sources\lunor\repos\rougemeilland\palmtree.math.core.implements\palmtree.math.core.implements\autogenerated_inline_func.h
; File z:\sources\lunor\repos\rougemeilland\palmtree.math.core.implements\palmtree.math.core.implements\pmc_internal.h
; File z:\sources\lunor\repos\rougemeilland\palmtree.math.core.implements\palmtree.math.core.implements\autogenerated_inline_func.h
; File z:\sources\lunor\repos\rougemeilland\palmtree.math.core.implements\palmtree.math.core.implements\pmc_internal.h
; File z:\sources\lunor\repos\rougemeilland\palmtree.math.core.implements\palmtree.math.core.implements\autogenerated_inline_func.h
; File z:\sources\lunor\repos\rougemeilland\palmtree.math.core.implements\palmtree.math.core.implements\pmc_internal.h
; File z:\sources\lunor\repos\rougemeilland\palmtree.math.core.implements\palmtree.math.core.implements\autogenerated_inline_func.h
; File z:\sources\lunor\repos\rougemeilland\palmtree.math.core.implements\palmtree.math.core.implements\pmc_internal.h
; File z:\sources\lunor\repos\rougemeilland\palmtree.math.core.implements\palmtree.math.core.implements\autogenerated_inline_func.h
; File z:\sources\lunor\repos\rougemeilland\palmtree.math.core.implements\palmtree.math.core.implements\pmc_internal.h
; File z:\sources\lunor\repos\rougemeilland\palmtree.math.core.implements\palmtree.math.core.implements\autogenerated_inline_func.h
; File z:\sources\lunor\repos\rougemeilland\palmtree.math.core.implements\palmtree.math.core.implements\pmc_internal.h
; File z:\sources\lunor\repos\rougemeilland\palmtree.math.core.implements\palmtree.math.core.implements\autogenerated_inline_func.h
; File z:\sources\lunor\repos\rougemeilland\palmtree.math.core.implements\palmtree.math.core.implements\pmc_internal.h
; File z:\sources\lunor\repos\rougemeilland\palmtree.math.core.implements\palmtree.math.core.implements\autogenerated_inline_func.h
; File z:\sources\lunor\repos\rougemeilland\palmtree.math.core.implements\palmtree.math.core.implements\pmc_internal.h
; File z:\sources\lunor\repos\rougemeilland\palmtree.math.core.implements\palmtree.math.core.implements\autogenerated_inline_func.h
; File z:\sources\lunor\repos\rougemeilland\palmtree.math.core.implements\palmtree.math.core.implements\pmc_internal.h
; File z:\sources\lunor\repos\rougemeilland\palmtree.math.core.implements\palmtree.math.core.implements\autogenerated_inline_func.h
; File z:\sources\lunor\repos\rougemeilland\palmtree.math.core.implements\palmtree.math.core.implements\pmc_internal.h
; File z:\sources\lunor\repos\rougemeilland\palmtree.math.core.implements\palmtree.math.core.implements\autogenerated_inline_func.h
; File z:\sources\lunor\repos\rougemeilland\palmtree.math.core.implements\palmtree.math.core.implements\pmc_internal.h
; File z:\sources\lunor\repos\rougemeilland\palmtree.math.core.implements\palmtree.math.core.implements\autogenerated_inline_func.h
; File z:\sources\lunor\repos\rougemeilland\palmtree.math.core.implements\palmtree.math.core.implements\pmc_internal.h
; File z:\sources\lunor\repos\rougemeilland\palmtree.math.core.implements\palmtree.math.core.implements\autogenerated_inline_func.h
; File z:\sources\lunor\repos\rougemeilland\palmtree.math.core.implements\palmtree.math.core.implements\pmc_internal.h
; File z:\sources\lunor\repos\rougemeilland\palmtree.math.core.implements\palmtree.math.core.implements\autogenerated_inline_func.h
; File z:\sources\lunor\repos\rougemeilland\palmtree.math.core.implements\palmtree.math.core.implements\pmc_internal.h
; File z:\sources\lunor\repos\rougemeilland\palmtree.math.core.implements\palmtree.math.core.implements\autogenerated_inline_func.h
; File z:\sources\lunor\repos\rougemeilland\palmtree.math.core.implements\palmtree.math.core.implements\pmc_internal.h
; File z:\sources\lunor\repos\rougemeilland\palmtree.math.core.implements\palmtree.math.core.implements\autogenerated_inline_func.h
; File z:\sources\lunor\repos\rougemeilland\palmtree.math.core.implements\palmtree.math.core.implements\pmc_internal.h
; File z:\sources\lunor\repos\rougemeilland\palmtree.math.core.implements\palmtree.math.core.implements\autogenerated_inline_func.h
; File z:\sources\lunor\repos\rougemeilland\palmtree.math.core.implements\palmtree.math.core.implements\pmc_internal.h
; File z:\sources\lunor\repos\rougemeilland\palmtree.math.core.implements\palmtree.math.core.implements\autogenerated_inline_func.h
; File z:\sources\lunor\repos\rougemeilland\palmtree.math.core.implements\palmtree.math.core.implements\pmc_internal.h
; File z:\sources\lunor\repos\rougemeilland\palmtree.math.core.implements\palmtree.math.core.implements\autogenerated_inline_func.h
; File z:\sources\lunor\repos\rougemeilland\palmtree.math.core.implements\palmtree.math.core.implements\pmc_internal.h
; File z:\sources\lunor\repos\rougemeilland\palmtree.math.core.implements\palmtree.math.core.implements\autogenerated_inline_func.h
; File z:\sources\lunor\repos\rougemeilland\palmtree.math.core.implements\palmtree.math.core.implements\pmc_internal.h
; File z:\sources\lunor\repos\rougemeilland\palmtree.math.core.implements\palmtree.math.core.implements\autogenerated_inline_func.h
; File z:\sources\lunor\repos\rougemeilland\palmtree.math.core.implements\palmtree.math.core.implements\pmc_internal.h
; File z:\sources\lunor\repos\rougemeilland\palmtree.math.core.implements\palmtree.math.core.implements\autogenerated_inline_func.h
; File z:\sources\lunor\repos\rougemeilland\palmtree.math.core.implements\palmtree.math.core.implements\pmc_internal.h
; File z:\sources\lunor\repos\rougemeilland\palmtree.math.core.implements\palmtree.math.core.implements\autogenerated_inline_func.h
; File z:\sources\lunor\repos\rougemeilland\palmtree.math.core.implements\palmtree.math.core.implements\pmc_internal.h
; File z:\sources\lunor\repos\rougemeilland\palmtree.math.core.implements\palmtree.math.core.implements\autogenerated_inline_func.h
; File z:\sources\lunor\repos\rougemeilland\palmtree.math.core.implements\palmtree.math.core.implements\pmc_internal.h
; File z:\sources\lunor\repos\rougemeilland\palmtree.math.core.implements\palmtree.math.core.implements\autogenerated_inline_func.h
; File z:\sources\lunor\repos\rougemeilland\palmtree.math.core.implements\palmtree.math.core.implements\pmc_internal.h
; File z:\sources\lunor\repos\rougemeilland\palmtree.math.core.implements\palmtree.math.core.implements\autogenerated_inline_func.h
; File z:\sources\lunor\repos\rougemeilland\palmtree.math.core.implements\palmtree.math.core.implements\pmc_internal.h
; File z:\sources\lunor\repos\rougemeilland\palmtree.math.core.implements\palmtree.math.core.implements\autogenerated_inline_func.h
; File z:\sources\lunor\repos\rougemeilland\palmtree.math.core.implements\palmtree.math.core.implements\pmc_internal.h
; File z:\sources\lunor\repos\rougemeilland\palmtree.math.core.implements\palmtree.math.core.implements\autogenerated_inline_func.h
; File z:\sources\lunor\repos\rougemeilland\palmtree.math.core.implements\palmtree.math.core.implements\pmc_internal.h
; File z:\sources\lunor\repos\rougemeilland\palmtree.math.core.implements\palmtree.math.core.implements\autogenerated_inline_func.h
; File z:\sources\lunor\repos\rougemeilland\palmtree.math.core.implements\palmtree.math.core.implements\pmc_internal.h
; File z:\sources\lunor\repos\rougemeilland\palmtree.math.core.implements\palmtree.math.core.implements\autogenerated_inline_func.h
; File z:\sources\lunor\repos\rougemeilland\palmtree.math.core.implements\palmtree.math.core.implements\pmc_internal.h
; File z:\sources\lunor\repos\rougemeilland\palmtree.math.core.implements\palmtree.math.core.implements\autogenerated_inline_func.h
; File z:\sources\lunor\repos\rougemeilland\palmtree.math.core.implements\palmtree.math.core.implements\pmc_internal.h
; File z:\sources\lunor\repos\rougemeilland\palmtree.math.core.implements\palmtree.math.core.implements\autogenerated_inline_func.h
; File z:\sources\lunor\repos\rougemeilland\palmtree.math.core.implements\palmtree.math.core.implements\pmc_internal.h
; File z:\sources\lunor\repos\rougemeilland\palmtree.math.core.implements\palmtree.math.core.implements\autogenerated_inline_func.h
; File z:\sources\lunor\repos\rougemeilland\palmtree.math.core.implements\palmtree.math.core.implements\pmc_internal.h
; File z:\sources\lunor\repos\rougemeilland\palmtree.math.core.implements\palmtree.math.core.implements\autogenerated_inline_func.h
;	COMDAT __ADD_32WORDS_ADC
_TEXT	SEGMENT
_c$ = 8							; size = 1
_xp$ = 12						; size = 4
_yp$ = 16						; size = 4
_zp$ = 20						; size = 4
__ADD_32WORDS_ADC PROC					; COMDAT

; 45   :     {

	push	ebp
	mov	ebp, esp

; 46   : #ifdef _MSC_VER
; 47   :         c = _ADD_UNIT(c, xp[0], yp[0], &zp[0]);

	mov	edx, DWORD PTR _xp$[ebp]
; File z:\sources\lunor\repos\rougemeilland\palmtree.math.core.implements\palmtree.math.core.implements\pmc_internal.h

; 426  :     return (_addcarry_u32(carry, u, v, w));

	mov	al, BYTE PTR _c$[ebp]
	add	al, 255					; 000000ffH
; File z:\sources\lunor\repos\rougemeilland\palmtree.math.core.implements\palmtree.math.core.implements\autogenerated_inline_func.h

; 45   :     {

	push	esi

; 46   : #ifdef _MSC_VER
; 47   :         c = _ADD_UNIT(c, xp[0], yp[0], &zp[0]);

	mov	esi, DWORD PTR _yp$[ebp]
	mov	ecx, DWORD PTR [edx]
	push	edi
; File z:\sources\lunor\repos\rougemeilland\palmtree.math.core.implements\palmtree.math.core.implements\pmc_internal.h

; 426  :     return (_addcarry_u32(carry, u, v, w));

	mov	edi, DWORD PTR _zp$[ebp]
	adc	ecx, DWORD PTR [esi]
	mov	DWORD PTR [edi], ecx
; File z:\sources\lunor\repos\rougemeilland\palmtree.math.core.implements\palmtree.math.core.implements\autogenerated_inline_func.h

; 48   :         c = _ADD_UNIT(c, xp[1], yp[1], &zp[1]);

	mov	eax, DWORD PTR [edx+4]
; File z:\sources\lunor\repos\rougemeilland\palmtree.math.core.implements\palmtree.math.core.implements\pmc_internal.h

; 426  :     return (_addcarry_u32(carry, u, v, w));

	adc	eax, DWORD PTR [esi+4]
	mov	DWORD PTR [edi+4], eax
; File z:\sources\lunor\repos\rougemeilland\palmtree.math.core.implements\palmtree.math.core.implements\autogenerated_inline_func.h

; 49   :         c = _ADD_UNIT(c, xp[2], yp[2], &zp[2]);

	mov	eax, DWORD PTR [edx+8]
; File z:\sources\lunor\repos\rougemeilland\palmtree.math.core.implements\palmtree.math.core.implements\pmc_internal.h

; 426  :     return (_addcarry_u32(carry, u, v, w));

	adc	eax, DWORD PTR [esi+8]
	mov	DWORD PTR [edi+8], eax
; File z:\sources\lunor\repos\rougemeilland\palmtree.math.core.implements\palmtree.math.core.implements\autogenerated_inline_func.h

; 50   :         c = _ADD_UNIT(c, xp[3], yp[3], &zp[3]);

	mov	eax, DWORD PTR [edx+12]
; File z:\sources\lunor\repos\rougemeilland\palmtree.math.core.implements\palmtree.math.core.implements\pmc_internal.h

; 426  :     return (_addcarry_u32(carry, u, v, w));

	adc	eax, DWORD PTR [esi+12]
	mov	DWORD PTR [edi+12], eax
; File z:\sources\lunor\repos\rougemeilland\palmtree.math.core.implements\palmtree.math.core.implements\autogenerated_inline_func.h

; 51   :         c = _ADD_UNIT(c, xp[4], yp[4], &zp[4]);

	mov	eax, DWORD PTR [edx+16]
; File z:\sources\lunor\repos\rougemeilland\palmtree.math.core.implements\palmtree.math.core.implements\pmc_internal.h

; 426  :     return (_addcarry_u32(carry, u, v, w));

	adc	eax, DWORD PTR [esi+16]
	mov	DWORD PTR [edi+16], eax
; File z:\sources\lunor\repos\rougemeilland\palmtree.math.core.implements\palmtree.math.core.implements\autogenerated_inline_func.h

; 52   :         c = _ADD_UNIT(c, xp[5], yp[5], &zp[5]);

	mov	eax, DWORD PTR [edx+20]
; File z:\sources\lunor\repos\rougemeilland\palmtree.math.core.implements\palmtree.math.core.implements\pmc_internal.h

; 426  :     return (_addcarry_u32(carry, u, v, w));

	adc	eax, DWORD PTR [esi+20]
	mov	DWORD PTR [edi+20], eax
; File z:\sources\lunor\repos\rougemeilland\palmtree.math.core.implements\palmtree.math.core.implements\autogenerated_inline_func.h

; 53   :         c = _ADD_UNIT(c, xp[6], yp[6], &zp[6]);

	mov	eax, DWORD PTR [edx+24]
; File z:\sources\lunor\repos\rougemeilland\palmtree.math.core.implements\palmtree.math.core.implements\pmc_internal.h

; 426  :     return (_addcarry_u32(carry, u, v, w));

	adc	eax, DWORD PTR [esi+24]
	mov	DWORD PTR [edi+24], eax
; File z:\sources\lunor\repos\rougemeilland\palmtree.math.core.implements\palmtree.math.core.implements\autogenerated_inline_func.h

; 54   :         c = _ADD_UNIT(c, xp[7], yp[7], &zp[7]);

	mov	eax, DWORD PTR [edx+28]
; File z:\sources\lunor\repos\rougemeilland\palmtree.math.core.implements\palmtree.math.core.implements\pmc_internal.h

; 426  :     return (_addcarry_u32(carry, u, v, w));

	adc	eax, DWORD PTR [esi+28]
	mov	DWORD PTR [edi+28], eax
; File z:\sources\lunor\repos\rougemeilland\palmtree.math.core.implements\palmtree.math.core.implements\autogenerated_inline_func.h

; 55   :         c = _ADD_UNIT(c, xp[8], yp[8], &zp[8]);

	mov	eax, DWORD PTR [edx+32]
; File z:\sources\lunor\repos\rougemeilland\palmtree.math.core.implements\palmtree.math.core.implements\pmc_internal.h

; 426  :     return (_addcarry_u32(carry, u, v, w));

	adc	eax, DWORD PTR [esi+32]
	mov	DWORD PTR [edi+32], eax
; File z:\sources\lunor\repos\rougemeilland\palmtree.math.core.implements\palmtree.math.core.implements\autogenerated_inline_func.h

; 56   :         c = _ADD_UNIT(c, xp[9], yp[9], &zp[9]);

	mov	eax, DWORD PTR [edx+36]
; File z:\sources\lunor\repos\rougemeilland\palmtree.math.core.implements\palmtree.math.core.implements\pmc_internal.h

; 426  :     return (_addcarry_u32(carry, u, v, w));

	adc	eax, DWORD PTR [esi+36]
	mov	DWORD PTR [edi+36], eax
; File z:\sources\lunor\repos\rougemeilland\palmtree.math.core.implements\palmtree.math.core.implements\autogenerated_inline_func.h

; 57   :         c = _ADD_UNIT(c, xp[10], yp[10], &zp[10]);

	mov	eax, DWORD PTR [edx+40]
; File z:\sources\lunor\repos\rougemeilland\palmtree.math.core.implements\palmtree.math.core.implements\pmc_internal.h

; 426  :     return (_addcarry_u32(carry, u, v, w));

	adc	eax, DWORD PTR [esi+40]
	mov	DWORD PTR [edi+40], eax
; File z:\sources\lunor\repos\rougemeilland\palmtree.math.core.implements\palmtree.math.core.implements\autogenerated_inline_func.h

; 58   :         c = _ADD_UNIT(c, xp[11], yp[11], &zp[11]);

	mov	eax, DWORD PTR [edx+44]
; File z:\sources\lunor\repos\rougemeilland\palmtree.math.core.implements\palmtree.math.core.implements\pmc_internal.h

; 426  :     return (_addcarry_u32(carry, u, v, w));

	adc	eax, DWORD PTR [esi+44]
	mov	DWORD PTR [edi+44], eax
; File z:\sources\lunor\repos\rougemeilland\palmtree.math.core.implements\palmtree.math.core.implements\autogenerated_inline_func.h

; 59   :         c = _ADD_UNIT(c, xp[12], yp[12], &zp[12]);

	mov	eax, DWORD PTR [edx+48]
; File z:\sources\lunor\repos\rougemeilland\palmtree.math.core.implements\palmtree.math.core.implements\pmc_internal.h

; 426  :     return (_addcarry_u32(carry, u, v, w));

	adc	eax, DWORD PTR [esi+48]
	mov	DWORD PTR [edi+48], eax
; File z:\sources\lunor\repos\rougemeilland\palmtree.math.core.implements\palmtree.math.core.implements\autogenerated_inline_func.h

; 60   :         c = _ADD_UNIT(c, xp[13], yp[13], &zp[13]);

	mov	eax, DWORD PTR [edx+52]
; File z:\sources\lunor\repos\rougemeilland\palmtree.math.core.implements\palmtree.math.core.implements\pmc_internal.h

; 426  :     return (_addcarry_u32(carry, u, v, w));

	adc	eax, DWORD PTR [esi+52]
	mov	DWORD PTR [edi+52], eax
; File z:\sources\lunor\repos\rougemeilland\palmtree.math.core.implements\palmtree.math.core.implements\autogenerated_inline_func.h

; 61   :         c = _ADD_UNIT(c, xp[14], yp[14], &zp[14]);

	mov	eax, DWORD PTR [edx+56]
; File z:\sources\lunor\repos\rougemeilland\palmtree.math.core.implements\palmtree.math.core.implements\pmc_internal.h

; 426  :     return (_addcarry_u32(carry, u, v, w));

	adc	eax, DWORD PTR [esi+56]
	mov	DWORD PTR [edi+56], eax
; File z:\sources\lunor\repos\rougemeilland\palmtree.math.core.implements\palmtree.math.core.implements\autogenerated_inline_func.h

; 62   :         c = _ADD_UNIT(c, xp[15], yp[15], &zp[15]);

	mov	eax, DWORD PTR [edx+60]
; File z:\sources\lunor\repos\rougemeilland\palmtree.math.core.implements\palmtree.math.core.implements\pmc_internal.h

; 426  :     return (_addcarry_u32(carry, u, v, w));

	adc	eax, DWORD PTR [esi+60]
	mov	DWORD PTR [edi+60], eax
; File z:\sources\lunor\repos\rougemeilland\palmtree.math.core.implements\palmtree.math.core.implements\autogenerated_inline_func.h

; 63   :         c = _ADD_UNIT(c, xp[16], yp[16], &zp[16]);

	mov	eax, DWORD PTR [edx+64]
; File z:\sources\lunor\repos\rougemeilland\palmtree.math.core.implements\palmtree.math.core.implements\pmc_internal.h

; 426  :     return (_addcarry_u32(carry, u, v, w));

	adc	eax, DWORD PTR [esi+64]
	mov	DWORD PTR [edi+64], eax
; File z:\sources\lunor\repos\rougemeilland\palmtree.math.core.implements\palmtree.math.core.implements\autogenerated_inline_func.h

; 64   :         c = _ADD_UNIT(c, xp[17], yp[17], &zp[17]);

	mov	eax, DWORD PTR [edx+68]
; File z:\sources\lunor\repos\rougemeilland\palmtree.math.core.implements\palmtree.math.core.implements\pmc_internal.h

; 426  :     return (_addcarry_u32(carry, u, v, w));

	adc	eax, DWORD PTR [esi+68]
	mov	DWORD PTR [edi+68], eax
; File z:\sources\lunor\repos\rougemeilland\palmtree.math.core.implements\palmtree.math.core.implements\autogenerated_inline_func.h

; 65   :         c = _ADD_UNIT(c, xp[18], yp[18], &zp[18]);

	mov	eax, DWORD PTR [edx+72]
; File z:\sources\lunor\repos\rougemeilland\palmtree.math.core.implements\palmtree.math.core.implements\pmc_internal.h

; 426  :     return (_addcarry_u32(carry, u, v, w));

	adc	eax, DWORD PTR [esi+72]
	mov	DWORD PTR [edi+72], eax
; File z:\sources\lunor\repos\rougemeilland\palmtree.math.core.implements\palmtree.math.core.implements\autogenerated_inline_func.h

; 66   :         c = _ADD_UNIT(c, xp[19], yp[19], &zp[19]);

	mov	eax, DWORD PTR [edx+76]
; File z:\sources\lunor\repos\rougemeilland\palmtree.math.core.implements\palmtree.math.core.implements\pmc_internal.h

; 426  :     return (_addcarry_u32(carry, u, v, w));

	adc	eax, DWORD PTR [esi+76]
	mov	DWORD PTR [edi+76], eax
; File z:\sources\lunor\repos\rougemeilland\palmtree.math.core.implements\palmtree.math.core.implements\autogenerated_inline_func.h

; 67   :         c = _ADD_UNIT(c, xp[20], yp[20], &zp[20]);

	mov	eax, DWORD PTR [edx+80]
; File z:\sources\lunor\repos\rougemeilland\palmtree.math.core.implements\palmtree.math.core.implements\pmc_internal.h

; 426  :     return (_addcarry_u32(carry, u, v, w));

	adc	eax, DWORD PTR [esi+80]
	mov	DWORD PTR [edi+80], eax
; File z:\sources\lunor\repos\rougemeilland\palmtree.math.core.implements\palmtree.math.core.implements\autogenerated_inline_func.h

; 68   :         c = _ADD_UNIT(c, xp[21], yp[21], &zp[21]);

	mov	eax, DWORD PTR [edx+84]
; File z:\sources\lunor\repos\rougemeilland\palmtree.math.core.implements\palmtree.math.core.implements\pmc_internal.h

; 426  :     return (_addcarry_u32(carry, u, v, w));

	adc	eax, DWORD PTR [esi+84]
	mov	DWORD PTR [edi+84], eax
; File z:\sources\lunor\repos\rougemeilland\palmtree.math.core.implements\palmtree.math.core.implements\autogenerated_inline_func.h

; 69   :         c = _ADD_UNIT(c, xp[22], yp[22], &zp[22]);

	mov	eax, DWORD PTR [edx+88]
; File z:\sources\lunor\repos\rougemeilland\palmtree.math.core.implements\palmtree.math.core.implements\pmc_internal.h

; 426  :     return (_addcarry_u32(carry, u, v, w));

	adc	eax, DWORD PTR [esi+88]
	mov	DWORD PTR [edi+88], eax
; File z:\sources\lunor\repos\rougemeilland\palmtree.math.core.implements\palmtree.math.core.implements\autogenerated_inline_func.h

; 70   :         c = _ADD_UNIT(c, xp[23], yp[23], &zp[23]);

	mov	eax, DWORD PTR [edx+92]
; File z:\sources\lunor\repos\rougemeilland\palmtree.math.core.implements\palmtree.math.core.implements\pmc_internal.h

; 426  :     return (_addcarry_u32(carry, u, v, w));

	adc	eax, DWORD PTR [esi+92]
	mov	DWORD PTR [edi+92], eax
; File z:\sources\lunor\repos\rougemeilland\palmtree.math.core.implements\palmtree.math.core.implements\autogenerated_inline_func.h

; 71   :         c = _ADD_UNIT(c, xp[24], yp[24], &zp[24]);

	mov	eax, DWORD PTR [edx+96]
; File z:\sources\lunor\repos\rougemeilland\palmtree.math.core.implements\palmtree.math.core.implements\pmc_internal.h

; 426  :     return (_addcarry_u32(carry, u, v, w));

	adc	eax, DWORD PTR [esi+96]
	mov	DWORD PTR [edi+96], eax
; File z:\sources\lunor\repos\rougemeilland\palmtree.math.core.implements\palmtree.math.core.implements\autogenerated_inline_func.h

; 72   :         c = _ADD_UNIT(c, xp[25], yp[25], &zp[25]);

	mov	eax, DWORD PTR [edx+100]
; File z:\sources\lunor\repos\rougemeilland\palmtree.math.core.implements\palmtree.math.core.implements\pmc_internal.h

; 426  :     return (_addcarry_u32(carry, u, v, w));

	adc	eax, DWORD PTR [esi+100]
	mov	DWORD PTR [edi+100], eax
; File z:\sources\lunor\repos\rougemeilland\palmtree.math.core.implements\palmtree.math.core.implements\autogenerated_inline_func.h

; 73   :         c = _ADD_UNIT(c, xp[26], yp[26], &zp[26]);

	mov	eax, DWORD PTR [edx+104]
; File z:\sources\lunor\repos\rougemeilland\palmtree.math.core.implements\palmtree.math.core.implements\pmc_internal.h

; 426  :     return (_addcarry_u32(carry, u, v, w));

	adc	eax, DWORD PTR [esi+104]
	mov	DWORD PTR [edi+104], eax
; File z:\sources\lunor\repos\rougemeilland\palmtree.math.core.implements\palmtree.math.core.implements\autogenerated_inline_func.h

; 74   :         c = _ADD_UNIT(c, xp[27], yp[27], &zp[27]);

	mov	eax, DWORD PTR [edx+108]
; File z:\sources\lunor\repos\rougemeilland\palmtree.math.core.implements\palmtree.math.core.implements\pmc_internal.h

; 426  :     return (_addcarry_u32(carry, u, v, w));

	adc	eax, DWORD PTR [esi+108]
	mov	DWORD PTR [edi+108], eax
; File z:\sources\lunor\repos\rougemeilland\palmtree.math.core.implements\palmtree.math.core.implements\autogenerated_inline_func.h

; 75   :         c = _ADD_UNIT(c, xp[28], yp[28], &zp[28]);

	mov	eax, DWORD PTR [edx+112]
; File z:\sources\lunor\repos\rougemeilland\palmtree.math.core.implements\palmtree.math.core.implements\pmc_internal.h

; 426  :     return (_addcarry_u32(carry, u, v, w));

	adc	eax, DWORD PTR [esi+112]
	mov	DWORD PTR [edi+112], eax
; File z:\sources\lunor\repos\rougemeilland\palmtree.math.core.implements\palmtree.math.core.implements\autogenerated_inline_func.h

; 76   :         c = _ADD_UNIT(c, xp[29], yp[29], &zp[29]);

	mov	eax, DWORD PTR [edx+116]
; File z:\sources\lunor\repos\rougemeilland\palmtree.math.core.implements\palmtree.math.core.implements\pmc_internal.h

; 426  :     return (_addcarry_u32(carry, u, v, w));

	adc	eax, DWORD PTR [esi+116]
	mov	DWORD PTR [edi+116], eax
; File z:\sources\lunor\repos\rougemeilland\palmtree.math.core.implements\palmtree.math.core.implements\autogenerated_inline_func.h

; 77   :         c = _ADD_UNIT(c, xp[30], yp[30], &zp[30]);

	mov	eax, DWORD PTR [edx+120]
; File z:\sources\lunor\repos\rougemeilland\palmtree.math.core.implements\palmtree.math.core.implements\pmc_internal.h

; 426  :     return (_addcarry_u32(carry, u, v, w));

	adc	eax, DWORD PTR [esi+120]
	mov	DWORD PTR [edi+120], eax
; File z:\sources\lunor\repos\rougemeilland\palmtree.math.core.implements\palmtree.math.core.implements\autogenerated_inline_func.h

; 78   :         c = _ADD_UNIT(c, xp[31], yp[31], &zp[31]);

	mov	ecx, DWORD PTR [edx+124]
; File z:\sources\lunor\repos\rougemeilland\palmtree.math.core.implements\palmtree.math.core.implements\pmc_internal.h

; 426  :     return (_addcarry_u32(carry, u, v, w));

	adc	ecx, DWORD PTR [esi+124]
	mov	DWORD PTR [edi+124], ecx
; File z:\sources\lunor\repos\rougemeilland\palmtree.math.core.implements\palmtree.math.core.implements\autogenerated_inline_func.h

; 294  :         return (c);

	pop	edi
; File z:\sources\lunor\repos\rougemeilland\palmtree.math.core.implements\palmtree.math.core.implements\pmc_internal.h

; 426  :     return (_addcarry_u32(carry, u, v, w));

	setb	al
; File z:\sources\lunor\repos\rougemeilland\palmtree.math.core.implements\palmtree.math.core.implements\autogenerated_inline_func.h

; 294  :         return (c);

	pop	esi

; 295  :     }

	pop	ebp
	ret	0
__ADD_32WORDS_ADC ENDP
_TEXT	ENDS
; Function compile flags: /Ogtp
; File z:\sources\lunor\repos\rougemeilland\palmtree.math.core.implements\palmtree.math.core.implements\pmc_internal.h
;	COMDAT __LZCNT_ALT_UNIT
_TEXT	SEGMENT
_x$ = 8							; size = 4
__LZCNT_ALT_UNIT PROC					; COMDAT

; 840  : {

	push	ebp
	mov	ebp, esp

; 841  :     if (x == 0)

	mov	eax, DWORD PTR _x$[ebp]
	test	eax, eax
	jne	SHORT $LN2@LZCNT_ALT_

; 842  :         return (sizeof(x) * 8);

	mov	eax, 32					; 00000020H

; 866  : }

	pop	ebp
	ret	0
$LN2@LZCNT_ALT_:

; 843  : #ifdef _M_IX86
; 844  :     _UINT32_T pos;
; 845  : #ifdef _MSC_VER
; 846  :     _BitScanReverse(&pos, x);

	bsr	ecx, eax

; 847  : #elif defined(__GNUC__)
; 848  :     __asm__("bsrl %1, %0" : "=r"(pos) : "rm"(x));
; 849  : #else
; 850  : #error unknown compiler
; 851  : #endif
; 852  : #elif defined(_M_X64)
; 853  : #ifdef _MSC_VER
; 854  :     _UINT32_T pos;
; 855  :     _BitScanReverse64(&pos, x);
; 856  : #elif defined(__GNUC__)
; 857  :     _UINT64_T pos;
; 858  :     __asm__("bsrq %1, %0" : "=r"(pos) : "rm"(x));
; 859  : #else
; 860  : #error unknown compiler
; 861  : #endif
; 862  : #else
; 863  : #error unknown platform
; 864  : #endif
; 865  :     return (sizeof(x) * 8 - 1 - pos);

	mov	eax, 31					; 0000001fH
	sub	eax, ecx

; 866  : }

	pop	ebp
	ret	0
__LZCNT_ALT_UNIT ENDP
_TEXT	ENDS
; Function compile flags: /Ogtp
; File z:\sources\lunor\repos\rougemeilland\palmtree.math.core.implements\palmtree.math.core.implements\pmc_internal.h
;	COMDAT __LZCNT_ALT_32
_TEXT	SEGMENT
_x$ = 8							; size = 4
__LZCNT_ALT_32 PROC					; COMDAT

; 807  : {

	push	ebp
	mov	ebp, esp

; 808  :     if (x == 0)

	mov	eax, DWORD PTR _x$[ebp]
	test	eax, eax
	jne	SHORT $LN2@LZCNT_ALT_

; 809  :         return (sizeof(x) * 8);

	mov	eax, 32					; 00000020H

; 819  : }

	pop	ebp
	ret	0
$LN2@LZCNT_ALT_:

; 810  :     _UINT32_T pos;
; 811  : #ifdef _MSC_VER
; 812  :     _BitScanReverse(&pos, x);

	bsr	ecx, eax

; 813  : #elif defined(__GNUC__)
; 814  :     __asm__( "bsrl %1, %0" : "=r"(pos) : "rm"(x) );
; 815  : #else
; 816  : #error unknown compiler
; 817  : #endif
; 818  :     return (sizeof(x) * 8 - 1 - pos);

	mov	eax, 31					; 0000001fH
	sub	eax, ecx

; 819  : }

	pop	ebp
	ret	0
__LZCNT_ALT_32 ENDP
_TEXT	ENDS
; Function compile flags: /Ogtp
; File z:\sources\lunor\repos\rougemeilland\palmtree.math.core.implements\palmtree.math.core.implements\pmc_internal.h
;	COMDAT __ADDX_UNIT
_TEXT	SEGMENT
_carry$ = 8						; size = 1
_u$ = 12						; size = 4
_v$ = 16						; size = 4
_w$ = 20						; size = 4
__ADDX_UNIT PROC					; COMDAT

; 452  : {

	push	ebp
	mov	ebp, esp

; 453  : #ifdef _M_IX86
; 454  :     return (_addcarryx_u32(carry, u, v, w));

	mov	al, BYTE PTR _carry$[ebp]
	mov	edx, DWORD PTR _w$[ebp]
	add	al, 255					; 000000ffH
	mov	ecx, DWORD PTR _u$[ebp]
	adcx	ecx, DWORD PTR _v$[ebp]
	setb	al
	mov	DWORD PTR [edx], ecx

; 455  : #elif defined(_M_X64)
; 456  :     return (_addcarryx_u64(carry, u, v, w));
; 457  : #else
; 458  : #error unknown platform
; 459  : #endif
; 460  : }

	pop	ebp
	ret	0
__ADDX_UNIT ENDP
_TEXT	ENDS
; Function compile flags: /Ogtp
; File z:\sources\lunor\repos\rougemeilland\palmtree.math.core.implements\palmtree.math.core.implements\pmc_internal.h
;	COMDAT __ADD_UNIT
_TEXT	SEGMENT
_carry$ = 8						; size = 1
_u$ = 12						; size = 4
_v$ = 16						; size = 4
_w$ = 20						; size = 4
__ADD_UNIT PROC						; COMDAT

; 424  : {

	push	ebp
	mov	ebp, esp

; 425  : #ifdef _M_IX86
; 426  :     return (_addcarry_u32(carry, u, v, w));

	mov	al, BYTE PTR _carry$[ebp]
	mov	edx, DWORD PTR _w$[ebp]
	add	al, 255					; 000000ffH
	mov	ecx, DWORD PTR _u$[ebp]
	adc	ecx, DWORD PTR _v$[ebp]
	setb	al
	mov	DWORD PTR [edx], ecx

; 427  : #elif defined(_M_X64)
; 428  :     return (_addcarry_u64(carry, u, v, w));
; 429  : #else
; 430  : #error unknown platform
; 431  : #endif
; 432  : }

	pop	ebp
	ret	0
__ADD_UNIT ENDP
_TEXT	ENDS
; Function compile flags: /Ogtp
; File z:\sources\lunor\repos\rougemeilland\palmtree.math.core.implements\palmtree.math.core.implements\pmc_internal.h
;	COMDAT __MAXIMUM_UNIT
_TEXT	SEGMENT
_x$ = 8							; size = 4
_y$ = 12						; size = 4
__MAXIMUM_UNIT PROC					; COMDAT

; 414  : {

	push	ebp
	mov	ebp, esp

; 415  :     return (x >= y ? x : y);

	mov	eax, DWORD PTR _y$[ebp]
	cmp	DWORD PTR _x$[ebp], eax
	cmovae	eax, DWORD PTR _x$[ebp]

; 416  : }

	pop	ebp
	ret	0
__MAXIMUM_UNIT ENDP
_TEXT	ENDS
; Function compile flags: /Ogtp
; File z:\sources\lunor\repos\rougemeilland\palmtree.math.core.implements\palmtree.math.core.implements\pmc_internal.h
;	COMDAT __FROMDWORDTOWORD
_TEXT	SEGMENT
_value$ = 8						; size = 8
_result_high$ = 16					; size = 4
__FROMDWORDTOWORD PROC					; COMDAT

; 393  : {

	push	ebp
	mov	ebp, esp

; 394  :     *result_high = (_UINT32_T)(value >> 32);

	mov	eax, DWORD PTR _result_high$[ebp]
	mov	ecx, DWORD PTR _value$[ebp+4]
	mov	DWORD PTR [eax], ecx

; 395  :     return ((_UINT32_T)value);

	mov	eax, DWORD PTR _value$[ebp]

; 396  : }

	pop	ebp
	ret	0
__FROMDWORDTOWORD ENDP
_TEXT	ENDS
; Function compile flags: /Ogtp
; File z:\sources\lunor\repos\rougemeilland\palmtree.math.core.implements\palmtree.math.core.implements\pmc_add.c
; File z:\sources\lunor\repos\rougemeilland\palmtree.math.core.implements\palmtree.math.core.implements\pmc_internal.h
; File z:\sources\lunor\repos\rougemeilland\palmtree.math.core.implements\palmtree.math.core.implements\pmc_add.c
; File z:\sources\lunor\repos\rougemeilland\palmtree.math.core.implements\palmtree.math.core.implements\pmc_internal.h
; File z:\sources\lunor\repos\rougemeilland\palmtree.math.core.implements\palmtree.math.core.implements\pmc_add.c
;	COMDAT _PMC_Add_X_X@12
_TEXT	SEGMENT
_nz$ = 8						; size = 4
_x$ = 8							; size = 4
_nz_light_check_code$1 = 12				; size = 4
_y$ = 12						; size = 4
_o$ = 16						; size = 4
_PMC_Add_X_X@12 PROC					; COMDAT

; 515  : {

	push	ebp
	mov	ebp, esp
	push	ebx
	push	esi

; 516  :     if (x == NULL)

	mov	esi, DWORD PTR _x$[ebp]
	push	edi
	test	esi, esi
	je	$LN23@PMC_Add_X_

; 517  :         return (PMC_STATUS_ARGUMENT_ERROR);
; 518  :     if (y == NULL)

	mov	edi, DWORD PTR _y$[ebp]
	test	edi, edi
	je	$LN23@PMC_Add_X_

; 519  :         return (PMC_STATUS_ARGUMENT_ERROR);
; 520  :     if (o == NULL)

	mov	ebx, DWORD PTR _o$[ebp]
	test	ebx, ebx
	je	$LN23@PMC_Add_X_

; 522  :     NUMBER_HEADER* nx = (NUMBER_HEADER*)x;
; 523  :     NUMBER_HEADER* ny = (NUMBER_HEADER*)y;
; 524  :     PMC_STATUS_CODE result;
; 525  :     if ((result = CheckNumber(nx)) != PMC_STATUS_OK)

	push	esi
	call	_CheckNumber
	add	esp, 4
	test	eax, eax
	jne	$LN1@PMC_Add_X_

; 526  :         return (result);
; 527  :     if ((result = CheckNumber(ny)) != PMC_STATUS_OK)

	push	edi
	call	_CheckNumber
	add	esp, 4
	test	eax, eax
	jne	$LN1@PMC_Add_X_

; 528  :         return (result);
; 529  :     NUMBER_HEADER* nz;
; 530  :     if (nx->IS_ZERO)

	mov	eax, DWORD PTR [edi+16]
	and	eax, 2
	test	BYTE PTR [esi+16], 2
	je	SHORT $LN7@PMC_Add_X_

; 531  :     {
; 532  :         if (ny->IS_ZERO)

	test	eax, eax
	je	SHORT $LN9@PMC_Add_X_

; 533  :             nz = &number_zero;

	pop	edi
	mov	eax, OFFSET _number_zero

; 563  :         }
; 564  :     }
; 565  :     *o = nz;

	mov	DWORD PTR [ebx], eax

; 566  : #ifdef _DEBUG
; 567  :     if ((result = CheckNumber(*o)) != PMC_STATUS_OK)
; 568  :         return (result);
; 569  : #endif
; 570  :     return (PMC_STATUS_OK);

	xor	eax, eax

; 571  : }

	pop	esi
	pop	ebx
	pop	ebp
	ret	12					; 0000000cH
$LN9@PMC_Add_X_:

; 534  :         else
; 535  :         {
; 536  :             if ((result = DuplicateNumber(ny, &nz)) != PMC_STATUS_OK)

	lea	eax, DWORD PTR _nz$[ebp]
	push	eax
	push	edi
	call	_DuplicateNumber
	add	esp, 8
	test	eax, eax
	je	$LN24@PMC_Add_X_

; 571  : }

	pop	edi
	pop	esi
	pop	ebx
	pop	ebp
	ret	12					; 0000000cH
$LN7@PMC_Add_X_:

; 537  :                 return (result);
; 538  :         }
; 539  :     }
; 540  :     else
; 541  :     {
; 542  :         if (ny->IS_ZERO)

	test	eax, eax
	lea	eax, DWORD PTR _nz$[ebp]
	je	SHORT $LN12@PMC_Add_X_

; 543  :         {
; 544  :             if ((result = DuplicateNumber(nx, &nz)) != PMC_STATUS_OK)

	push	eax
	push	esi
	call	_DuplicateNumber
	add	esp, 8
	test	eax, eax
	jne	$LN1@PMC_Add_X_

; 563  :         }
; 564  :     }
; 565  :     *o = nz;

	mov	eax, DWORD PTR _nz$[ebp]
	pop	edi
	mov	DWORD PTR [ebx], eax

; 566  : #ifdef _DEBUG
; 567  :     if ((result = CheckNumber(*o)) != PMC_STATUS_OK)
; 568  :         return (result);
; 569  : #endif
; 570  :     return (PMC_STATUS_OK);

	xor	eax, eax

; 571  : }

	pop	esi
	pop	ebx
	pop	ebp
	ret	12					; 0000000cH
$LN12@PMC_Add_X_:

; 545  :                 return (result);
; 546  :         }
; 547  :         else
; 548  :         {
; 549  :             __UNIT_TYPE x_bit_count = nx->UNIT_BIT_COUNT;
; 550  :             __UNIT_TYPE y_bit_count = ny->UNIT_BIT_COUNT;

	mov	ecx, DWORD PTR [edi+4]

; 553  :             if ((result = AllocateNumber(&nz, z_bit_count, &nz_light_check_code)) != PMC_STATUS_OK)

	lea	edx, DWORD PTR _nz_light_check_code$1[ebp]
; File z:\sources\lunor\repos\rougemeilland\palmtree.math.core.implements\palmtree.math.core.implements\pmc_internal.h

; 415  :     return (x >= y ? x : y);

	cmp	DWORD PTR [esi+4], ecx
; File z:\sources\lunor\repos\rougemeilland\palmtree.math.core.implements\palmtree.math.core.implements\pmc_add.c

; 553  :             if ((result = AllocateNumber(&nz, z_bit_count, &nz_light_check_code)) != PMC_STATUS_OK)

	push	edx
; File z:\sources\lunor\repos\rougemeilland\palmtree.math.core.implements\palmtree.math.core.implements\pmc_internal.h

; 415  :     return (x >= y ? x : y);

	cmovae	ecx, DWORD PTR [esi+4]
; File z:\sources\lunor\repos\rougemeilland\palmtree.math.core.implements\palmtree.math.core.implements\pmc_add.c

; 551  :             __UNIT_TYPE z_bit_count = _MAXIMUM_UNIT(x_bit_count, y_bit_count) + 1;

	inc	ecx

; 553  :             if ((result = AllocateNumber(&nz, z_bit_count, &nz_light_check_code)) != PMC_STATUS_OK)

	push	ecx
	push	eax
	call	_AllocateNumber
	add	esp, 12					; 0000000cH
	test	eax, eax
	jne	SHORT $LN1@PMC_Add_X_

; 308  :     return ((*fp_Add_X_X_using_ADC)(x, y, z));

	push	DWORD PTR _nz$[ebp]
	push	edi
	push	esi
	call	DWORD PTR _fp_Add_X_X_using_ADC

; 554  :                 return (result);
; 555  :             if ((result = Add_X_X(nx, ny, nz)) != PMC_STATUS_OK)

	mov	esi, eax

; 308  :     return ((*fp_Add_X_X_using_ADC)(x, y, z));

	add	esp, 12					; 0000000cH

; 554  :                 return (result);
; 555  :             if ((result = Add_X_X(nx, ny, nz)) != PMC_STATUS_OK)

	test	esi, esi
	je	SHORT $LN16@PMC_Add_X_

; 556  :             {
; 557  :                 DeallocateNumber(nz);

	push	DWORD PTR _nz$[ebp]
	call	_DeallocateNumber
	add	esp, 4

; 558  :                 return (result);

	mov	eax, esi
	pop	edi

; 571  : }

	pop	esi
	pop	ebx
	pop	ebp
	ret	12					; 0000000cH
$LN16@PMC_Add_X_:

; 559  :             }
; 560  :             if ((result = CheckBlockLight(nz->BLOCK, nz_light_check_code)) != PMC_STATUS_OK)

	mov	eax, DWORD PTR _nz$[ebp]
	push	DWORD PTR _nz_light_check_code$1[ebp]
	push	DWORD PTR [eax+24]
	call	_CheckBlockLight
	add	esp, 8
	test	eax, eax
	jne	SHORT $LN1@PMC_Add_X_

; 561  :                 return (result);
; 562  :             CommitNumber(nz);

	push	DWORD PTR _nz$[ebp]
	call	_CommitNumber
	add	esp, 4
$LN24@PMC_Add_X_:

; 563  :         }
; 564  :     }
; 565  :     *o = nz;

	mov	eax, DWORD PTR _nz$[ebp]
	pop	edi
	mov	DWORD PTR [ebx], eax

; 566  : #ifdef _DEBUG
; 567  :     if ((result = CheckNumber(*o)) != PMC_STATUS_OK)
; 568  :         return (result);
; 569  : #endif
; 570  :     return (PMC_STATUS_OK);

	xor	eax, eax

; 571  : }

	pop	esi
	pop	ebx
	pop	ebp
	ret	12					; 0000000cH
$LN23@PMC_Add_X_:

; 521  :         return (PMC_STATUS_ARGUMENT_ERROR);

	or	eax, -1
$LN1@PMC_Add_X_:
	pop	edi

; 571  : }

	pop	esi
	pop	ebx
	pop	ebp
	ret	12					; 0000000cH
_PMC_Add_X_X@12 ENDP
_TEXT	ENDS
; Function compile flags: /Ogtp
; File z:\sources\lunor\repos\rougemeilland\palmtree.math.core.implements\palmtree.math.core.implements\pmc_add.c
; File z:\sources\lunor\repos\rougemeilland\palmtree.math.core.implements\palmtree.math.core.implements\pmc_internal.h
; File z:\sources\lunor\repos\rougemeilland\palmtree.math.core.implements\palmtree.math.core.implements\pmc_add.c
; File z:\sources\lunor\repos\rougemeilland\palmtree.math.core.implements\palmtree.math.core.implements\pmc_internal.h
; File z:\sources\lunor\repos\rougemeilland\palmtree.math.core.implements\palmtree.math.core.implements\pmc_add.c
; File z:\sources\lunor\repos\rougemeilland\palmtree.math.core.implements\palmtree.math.core.implements\pmc_internal.h
; File z:\sources\lunor\repos\rougemeilland\palmtree.math.core.implements\palmtree.math.core.implements\pmc_add.c
; File z:\sources\lunor\repos\rougemeilland\palmtree.math.core.implements\palmtree.math.core.implements\pmc_internal.h
; File z:\sources\lunor\repos\rougemeilland\palmtree.math.core.implements\palmtree.math.core.implements\pmc_add.c
; File z:\sources\lunor\repos\rougemeilland\palmtree.math.core.implements\palmtree.math.core.implements\pmc_internal.h
; File z:\sources\lunor\repos\rougemeilland\palmtree.math.core.implements\palmtree.math.core.implements\pmc_add.c
; File z:\sources\lunor\repos\rougemeilland\palmtree.math.core.implements\palmtree.math.core.implements\pmc_internal.h
; File z:\sources\lunor\repos\rougemeilland\palmtree.math.core.implements\palmtree.math.core.implements\pmc_add.c
; File z:\sources\lunor\repos\rougemeilland\palmtree.math.core.implements\palmtree.math.core.implements\pmc_internal.h
; File z:\sources\lunor\repos\rougemeilland\palmtree.math.core.implements\palmtree.math.core.implements\pmc_add.c
;	COMDAT _PMC_Add_X_L@16
_TEXT	SEGMENT
_nz_light_check_code$1 = -8				; size = 4
_z_count$1$ = -4					; size = 4
_nz$ = 8						; size = 4
_x$ = 8							; size = 4
_y$ = 12						; size = 8
_c$2 = 16						; size = 1
_x_count$1$ = 20					; size = 4
_nz_light_check_code$3 = 20				; size = 4
_o$ = 20						; size = 4
_PMC_Add_X_L@16 PROC					; COMDAT

; 390  : {

	push	ebp
	mov	ebp, esp
	sub	esp, 8
	push	esi

; 391  :     if (__UNIT_TYPE_BIT_COUNT * 2 < sizeof(y) * 8)
; 392  :     {
; 393  :         // _UINT64_T が 2 ワードで表現しきれない処理系には対応しない
; 394  :         return (PMC_STATUS_INTERNAL_ERROR);
; 395  :     }
; 396  :     if (x == NULL)

	mov	esi, DWORD PTR _x$[ebp]
	push	edi
	test	esi, esi
	je	$LN52@PMC_Add_X_

; 397  :         return (PMC_STATUS_ARGUMENT_ERROR);
; 398  :     if (o == NULL)

	mov	edi, DWORD PTR _o$[ebp]
	test	edi, edi
	je	$LN52@PMC_Add_X_

; 400  :     NUMBER_HEADER* nx = (NUMBER_HEADER*)x;
; 401  :     PMC_STATUS_CODE result;
; 402  :     if ((result = CheckNumber(nx)) != PMC_STATUS_OK)

	push	esi
	call	_CheckNumber
	add	esp, 4
	test	eax, eax
	jne	SHORT $LN1@PMC_Add_X_

; 403  :         return (result);
; 404  :     NUMBER_HEADER* nz;
; 405  :     if (nx->IS_ZERO)

	test	BYTE PTR [esi+16], 2
	mov	ecx, DWORD PTR _y$[ebp]
	mov	eax, ecx
	push	ebx
	je	SHORT $LN6@PMC_Add_X_

; 406  :     {
; 407  :         // x が 0 である場合
; 408  : 
; 409  :         if (y == 0)

	mov	edx, DWORD PTR _y$[ebp+4]
	or	eax, edx
	jne	SHORT $LN8@PMC_Add_X_

; 410  :         {
; 411  :             // y が 0 である場合
; 412  : 
; 413  :             // x と y がともに 0 であるので、加算結果の 0 を呼び出し元に返す。
; 414  :             *o = &number_zero;

	pop	ebx
	mov	DWORD PTR [edi], OFFSET _number_zero
	pop	edi

; 512  : }

	pop	esi
	mov	esp, ebp
	pop	ebp
	ret	16					; 00000010H
$LN8@PMC_Add_X_:

; 415  :         }
; 416  :         else
; 417  :         {
; 418  :             // y が 0 ではない場合
; 419  : 
; 420  :             // 加算結果となる y の値を持つ NUMBER_HEADER 構造体を獲得し、呼び出し元へ返す。
; 421  :             if ((result = From_L_Imp(y, &nz)) != PMC_STATUS_OK)

	lea	eax, DWORD PTR _nz$[ebp]
	push	eax
	push	edx
	push	ecx
	call	_From_L_Imp
	add	esp, 12					; 0000000cH
	test	eax, eax
	je	$LN15@PMC_Add_X_
$LN53@PMC_Add_X_:
	pop	ebx
$LN1@PMC_Add_X_:
	pop	edi

; 512  : }

	pop	esi
	mov	esp, ebp
	pop	ebp
	ret	16					; 00000010H
$LN6@PMC_Add_X_:

; 422  :                 return (result);
; 423  :             *o = nz;
; 424  :         }
; 425  :     }
; 426  :     else
; 427  :     {
; 428  :         // x が 0 ではない場合
; 429  : 
; 430  :         if (y == 0)

	mov	ebx, DWORD PTR _y$[ebp+4]
	or	eax, ebx
	jne	SHORT $LN11@PMC_Add_X_

; 431  :         {
; 432  :             // y が 0 である場合
; 433  : 
; 434  :             // 加算結果となる x の値を持つ NUMBER_HEADER 構造体を獲得し、呼び出し元へ返す。
; 435  :             if ((result = DuplicateNumber(nx, &nz)) != PMC_STATUS_OK)

	lea	eax, DWORD PTR _nz$[ebp]
	push	eax
	push	esi
	call	_DuplicateNumber
	add	esp, 8
	test	eax, eax
	je	$LN15@PMC_Add_X_

; 512  : }

	pop	ebx
	pop	edi
	pop	esi
	mov	esp, ebp
	pop	ebp
	ret	16					; 00000010H
$LN11@PMC_Add_X_:

; 436  :                 return (result);
; 437  :         }
; 438  :         else
; 439  :         {
; 440  :             // x と y がともに 0 ではない場合
; 441  : 
; 442  :             // x と y の和を計算する
; 443  :             if (__UNIT_TYPE_BIT_COUNT < sizeof(y) * 8)
; 444  :             {
; 445  :                 // _UINT64_T が 1 ワードで表現しきれない場合
; 446  : 
; 447  :                 __UNIT_TYPE x_bit_count = nx->UNIT_BIT_COUNT;

	mov	edx, DWORD PTR [esi+4]

; 448  :                 _UINT32_T y_hi;
; 449  :                 _UINT32_T y_lo = _FROMDWORDTOWORD(y, &y_hi);
; 450  :                 if (y_hi == 0)

	test	ebx, ebx
	jne	SHORT $LN16@PMC_Add_X_

; 451  :                 {
; 452  :                     // y の値が 32bit で表現可能な場合
; 453  :                     __UNIT_TYPE y_bit_count = sizeof(y_lo) * 8 - _LZCNT_ALT_32(y_lo);

	push	ecx
	call	__LZCNT_ALT_32
	mov	ecx, 32					; 00000020H
	sub	ecx, eax

; 456  :                     if ((result = AllocateNumber(&nz, z_bit_count, &nz_light_check_code)) != PMC_STATUS_OK)

	lea	eax, DWORD PTR _nz_light_check_code$3[ebp]
; File z:\sources\lunor\repos\rougemeilland\palmtree.math.core.implements\palmtree.math.core.implements\pmc_internal.h

; 415  :     return (x >= y ? x : y);

	cmp	edx, ecx
; File z:\sources\lunor\repos\rougemeilland\palmtree.math.core.implements\palmtree.math.core.implements\pmc_add.c

; 456  :                     if ((result = AllocateNumber(&nz, z_bit_count, &nz_light_check_code)) != PMC_STATUS_OK)

	push	eax
; File z:\sources\lunor\repos\rougemeilland\palmtree.math.core.implements\palmtree.math.core.implements\pmc_internal.h

; 415  :     return (x >= y ? x : y);

	cmovae	ecx, edx
; File z:\sources\lunor\repos\rougemeilland\palmtree.math.core.implements\palmtree.math.core.implements\pmc_add.c

; 456  :                     if ((result = AllocateNumber(&nz, z_bit_count, &nz_light_check_code)) != PMC_STATUS_OK)

	lea	eax, DWORD PTR _nz$[ebp]
	inc	ecx
	push	ecx
	push	eax
	call	_AllocateNumber
	add	esp, 16					; 00000010H
	test	eax, eax
	jne	SHORT $LN53@PMC_Add_X_

; 457  :                         return (result);
; 458  :                     if ((result = Add_X_1W(nx, y_lo, nz)) != PMC_STATUS_OK)

	push	DWORD PTR _nz$[ebp]
	mov	eax, DWORD PTR _y$[ebp]
	push	eax
	push	esi
	call	_Add_X_1W
	mov	esi, eax
	add	esp, 12					; 0000000cH
	test	esi, esi
	jne	$LN54@PMC_Add_X_

; 459  :                     {
; 460  :                         DeallocateNumber(nz);
; 461  :                         return (result);
; 462  :                     }
; 463  :                     if ((result = CheckBlockLight(nz->BLOCK, nz_light_check_code)) != PMC_STATUS_OK)

	mov	eax, DWORD PTR _nz$[ebp]
	push	DWORD PTR _nz_light_check_code$3[ebp]
	push	DWORD PTR [eax+24]
	call	_CheckBlockLight
	add	esp, 8
	test	eax, eax
	je	$LN23@PMC_Add_X_

; 512  : }

	pop	ebx
	pop	edi
	pop	esi
	mov	esp, ebp
	pop	ebp
	ret	16					; 00000010H
$LN16@PMC_Add_X_:

; 464  :                         return (result);
; 465  :                 }
; 466  :                 else
; 467  :                 {
; 468  :                     // y の値が 32bit では表現できない場合
; 469  :                     __UNIT_TYPE y_bit_count = sizeof(y) * 8 - _LZCNT_ALT_32(y_hi);

	push	ebx
	call	__LZCNT_ALT_32
	mov	ecx, 64					; 00000040H
	sub	ecx, eax

; 472  :                     if ((result = AllocateNumber(&nz, z_bit_count, &nz_light_check_code)) != PMC_STATUS_OK)

	lea	eax, DWORD PTR _nz_light_check_code$1[ebp]
; File z:\sources\lunor\repos\rougemeilland\palmtree.math.core.implements\palmtree.math.core.implements\pmc_internal.h

; 415  :     return (x >= y ? x : y);

	cmp	edx, ecx
; File z:\sources\lunor\repos\rougemeilland\palmtree.math.core.implements\palmtree.math.core.implements\pmc_add.c

; 472  :                     if ((result = AllocateNumber(&nz, z_bit_count, &nz_light_check_code)) != PMC_STATUS_OK)

	push	eax
; File z:\sources\lunor\repos\rougemeilland\palmtree.math.core.implements\palmtree.math.core.implements\pmc_internal.h

; 415  :     return (x >= y ? x : y);

	cmovae	ecx, edx
; File z:\sources\lunor\repos\rougemeilland\palmtree.math.core.implements\palmtree.math.core.implements\pmc_add.c

; 472  :                     if ((result = AllocateNumber(&nz, z_bit_count, &nz_light_check_code)) != PMC_STATUS_OK)

	lea	eax, DWORD PTR _nz$[ebp]
	inc	ecx
	push	ecx
	push	eax
	call	_AllocateNumber
	add	esp, 16					; 00000010H
	test	eax, eax
	jne	$LN53@PMC_Add_X_

; 111  :     __UNIT_TYPE x_count = x->UNIT_WORD_COUNT;

	mov	eax, DWORD PTR [esi]

; 112  :     __UNIT_TYPE z_count = z->BLOCK_COUNT;
; 113  :     __UNIT_TYPE* xp = &x->BLOCK[0];

	mov	esi, DWORD PTR [esi+24]
	mov	DWORD PTR _x_count$1$[ebp], eax

; 114  :     __UNIT_TYPE* zp = &z->BLOCK[0];
; 115  :     char c;
; 116  : 
; 117  :     if (x_count < 2)

	cmp	DWORD PTR _x_count$1$[ebp], 2
	mov	eax, DWORD PTR _nz$[ebp]
	mov	ecx, DWORD PTR [eax+20]
	mov	edx, DWORD PTR [eax+24]
	mov	DWORD PTR _z_count$1$[ebp], ecx
	mov	ecx, DWORD PTR [esi]
	jae	SHORT $LN35@PMC_Add_X_
; File z:\sources\lunor\repos\rougemeilland\palmtree.math.core.implements\palmtree.math.core.implements\pmc_internal.h

; 426  :     return (_addcarry_u32(carry, u, v, w));

	add	ecx, DWORD PTR _y$[ebp]
	mov	eax, 0
	mov	DWORD PTR [edx], ecx
	adc	eax, ebx
	mov	DWORD PTR [edx+4], eax
	setb	cl
; File z:\sources\lunor\repos\rougemeilland\palmtree.math.core.implements\palmtree.math.core.implements\pmc_add.c

; 128  :         if (c)

	test	cl, cl
	je	SHORT $LN22@PMC_Add_X_

; 129  :             zp[2] = 1;

	mov	DWORD PTR [edx+8], 1
$LN22@PMC_Add_X_:

; 478  :                     }
; 479  :                     if ((result = CheckBlockLight(nz->BLOCK, nz_light_check_code)) != PMC_STATUS_OK)

	mov	eax, DWORD PTR _nz$[ebp]
	push	DWORD PTR _nz_light_check_code$1[ebp]
	push	DWORD PTR [eax+24]
	call	_CheckBlockLight
	add	esp, 8
	test	eax, eax
	jne	$LN53@PMC_Add_X_
$LN23@PMC_Add_X_:

; 480  :                         return (result);
; 481  :                 }
; 482  :                 CommitNumber(nz);

	push	DWORD PTR _nz$[ebp]
	call	_CommitNumber
	add	esp, 4
$LN15@PMC_Add_X_:

; 483  :             }
; 484  :             else
; 485  :             {
; 486  :                 // _UINT64_T が 1 ワードで表現できる場合
; 487  : 
; 488  :                 __UNIT_TYPE x_bit_count = nx->UNIT_BIT_COUNT;
; 489  :                 __UNIT_TYPE y_bit_count = sizeof(y) * 8 - _LZCNT_ALT_UNIT((__UNIT_TYPE)y);
; 490  :                 __UNIT_TYPE z_bit_count = _MAXIMUM_UNIT(x_bit_count, y_bit_count) + 1;
; 491  :                 __UNIT_TYPE nz_light_check_code;
; 492  :                 if ((result = AllocateNumber(&nz, z_bit_count, &nz_light_check_code)) != PMC_STATUS_OK)
; 493  :                     return (result);
; 494  :                 if ((result = Add_X_1W(nx, (__UNIT_TYPE)y, nz)) != PMC_STATUS_OK)
; 495  :                 {
; 496  :                     DeallocateNumber(nz);
; 497  :                     return (result);
; 498  :                 }
; 499  :                 if ((result = CheckBlockLight(nz->BLOCK, nz_light_check_code)) != PMC_STATUS_OK)
; 500  :                     return (result);
; 501  :                 CommitNumber(nz);
; 502  :             }
; 503  : 
; 504  :         }
; 505  :         *o = nz;
; 506  :     }
; 507  : #ifdef _DEBUG
; 508  :     if ((result = CheckNumber(*o)) != PMC_STATUS_OK)
; 509  :         return (result);
; 510  : #endif
; 511  :     return (PMC_STATUS_OK);

	mov	eax, DWORD PTR _nz$[ebp]
	pop	ebx
	mov	DWORD PTR [edi], eax
	xor	eax, eax
	pop	edi

; 512  : }

	pop	esi
	mov	esp, ebp
	pop	ebp
	ret	16					; 00000010H
$LN35@PMC_Add_X_:
; File z:\sources\lunor\repos\rougemeilland\palmtree.math.core.implements\palmtree.math.core.implements\pmc_internal.h

; 426  :     return (_addcarry_u32(carry, u, v, w));

	add	ecx, DWORD PTR _y$[ebp]
	mov	DWORD PTR [edx], ecx
; File z:\sources\lunor\repos\rougemeilland\palmtree.math.core.implements\palmtree.math.core.implements\pmc_add.c

; 142  :         c = _ADD_UNIT(c, *xp++, y_hi, zp++);

	mov	ecx, DWORD PTR [esi+4]
; File z:\sources\lunor\repos\rougemeilland\palmtree.math.core.implements\palmtree.math.core.implements\pmc_internal.h

; 426  :     return (_addcarry_u32(carry, u, v, w));

	setb	al
	add	al, 255					; 000000ffH
	adc	ecx, ebx
	mov	DWORD PTR [edx+4], ecx
	setb	al
; File z:\sources\lunor\repos\rougemeilland\palmtree.math.core.implements\palmtree.math.core.implements\pmc_add.c

; 142  :         c = _ADD_UNIT(c, *xp++, y_hi, zp++);

	mov	BYTE PTR _c$2[ebp], al

; 143  :         x_count -= 2;
; 144  :         z_count -= 2;

	mov	eax, DWORD PTR _z_count$1$[ebp]
	add	eax, -2					; fffffffeH

; 145  : 
; 146  :         // 残りの桁の繰り上がりを計算し、復帰する。
; 147  :         return (DoCarry(c, xp, x_count, zp, z_count));

	push	eax
	lea	eax, DWORD PTR [edx+8]
	push	eax
	mov	eax, DWORD PTR _x_count$1$[ebp]
	add	eax, -2					; fffffffeH
	push	eax
	lea	eax, DWORD PTR [esi+8]
	push	eax
	push	DWORD PTR _c$2[ebp]
	call	_DoCarry
	mov	esi, eax
	add	esp, 20					; 00000014H

; 473  :                         return (result);
; 474  :                     if ((result = Add_X_2W(nx, y_hi, y_lo, nz)) != PMC_STATUS_OK)

	test	esi, esi
	je	SHORT $LN22@PMC_Add_X_
$LN54@PMC_Add_X_:

; 475  :                     {
; 476  :                         DeallocateNumber(nz);

	push	DWORD PTR _nz$[ebp]
	call	_DeallocateNumber
	add	esp, 4

; 477  :                         return (result);

	mov	eax, esi
	pop	ebx
	pop	edi

; 512  : }

	pop	esi
	mov	esp, ebp
	pop	ebp
	ret	16					; 00000010H
$LN52@PMC_Add_X_:
	pop	edi

; 399  :         return (PMC_STATUS_ARGUMENT_ERROR);

	or	eax, -1

; 512  : }

	pop	esi
	mov	esp, ebp
	pop	ebp
	ret	16					; 00000010H
_PMC_Add_X_L@16 ENDP
_TEXT	ENDS
; Function compile flags: /Ogtp
; File z:\sources\lunor\repos\rougemeilland\palmtree.math.core.implements\palmtree.math.core.implements\pmc_add.c
; File z:\sources\lunor\repos\rougemeilland\palmtree.math.core.implements\palmtree.math.core.implements\pmc_internal.h
; File z:\sources\lunor\repos\rougemeilland\palmtree.math.core.implements\palmtree.math.core.implements\pmc_add.c
; File z:\sources\lunor\repos\rougemeilland\palmtree.math.core.implements\palmtree.math.core.implements\pmc_internal.h
; File z:\sources\lunor\repos\rougemeilland\palmtree.math.core.implements\palmtree.math.core.implements\pmc_add.c
;	COMDAT _PMC_Add_X_I@12
_TEXT	SEGMENT
_nz$ = 8						; size = 4
_x$ = 8							; size = 4
_nz_check_code$1 = 12					; size = 4
_y$ = 12						; size = 4
_o$ = 16						; size = 4
_PMC_Add_X_I@12 PROC					; COMDAT

; 312  : {

	push	ebp
	mov	ebp, esp
	push	esi

; 313  :     if (__UNIT_TYPE_BIT_COUNT < sizeof(y) * 8)
; 314  :     {
; 315  :         // _UINT32_T が 1 ワードで表現しきれない処理系には対応しない
; 316  :         return (PMC_STATUS_INTERNAL_ERROR);
; 317  :     }
; 318  :     if (x == NULL)

	mov	esi, DWORD PTR _x$[ebp]
	push	edi
	test	esi, esi
	je	$LN20@PMC_Add_X_

; 319  :         return (PMC_STATUS_ARGUMENT_ERROR);
; 320  :     if (o == NULL)

	mov	edi, DWORD PTR _o$[ebp]
	test	edi, edi
	je	$LN20@PMC_Add_X_

; 322  :     NUMBER_HEADER* nx = (NUMBER_HEADER*)x;
; 323  :     PMC_STATUS_CODE result;
; 324  :     if ((result = CheckNumber(nx)) != PMC_STATUS_OK)

	push	esi
	call	_CheckNumber
	add	esp, 4
	test	eax, eax
	jne	SHORT $LN1@PMC_Add_X_

; 325  :         return (result);
; 326  :     NUMBER_HEADER* nz;
; 327  :     if (nx->IS_ZERO)

	test	BYTE PTR [esi+16], 2
	push	ebx
	je	SHORT $LN6@PMC_Add_X_

; 328  :     {
; 329  :         // x が 0 である場合
; 330  : 
; 331  :         if (y == 0)

	mov	eax, DWORD PTR _y$[ebp]
	test	eax, eax
	jne	SHORT $LN8@PMC_Add_X_

; 332  :         {
; 333  :             // y が 0 である場合
; 334  : 
; 335  :             // x と y がともに 0 であるので、加算結果の 0 を呼び出し元に返す。
; 336  :             *o = &number_zero;

	pop	ebx
	mov	DWORD PTR [edi], OFFSET _number_zero
	pop	edi

; 387  : }

	pop	esi
	pop	ebp
	ret	12					; 0000000cH
$LN8@PMC_Add_X_:

; 337  :         }
; 338  :         else
; 339  :         {
; 340  :             // y が 0 ではない場合
; 341  : 
; 342  :             // 加算結果となる y の値を持つ NUMBER_HEADER 構造体を獲得し、呼び出し元へ返す。
; 343  :             if ((result = From_I_Imp(y, &nz)) != PMC_STATUS_OK)

	lea	ecx, DWORD PTR _nz$[ebp]
	push	ecx
	push	eax
	call	_From_I_Imp
	add	esp, 8
	test	eax, eax
	je	$LN12@PMC_Add_X_
$LN21@PMC_Add_X_:
	pop	ebx
$LN1@PMC_Add_X_:
	pop	edi

; 387  : }

	pop	esi
	pop	ebp
	ret	12					; 0000000cH
$LN6@PMC_Add_X_:

; 344  :                 return (result);
; 345  :             *o = nz;
; 346  :         }
; 347  :     }
; 348  :     else
; 349  :     {
; 350  :         // x が 0 ではない場合
; 351  : 
; 352  :         if (y == 0)

	mov	ebx, DWORD PTR _y$[ebp]
	test	ebx, ebx
	jne	SHORT $LN11@PMC_Add_X_

; 353  :         {
; 354  :             // y が 0 である場合
; 355  : 
; 356  :             // 加算結果となる x の値を持つ NUMBER_HEADER 構造体を獲得し、呼び出し元へ返す。
; 357  :             if ((result = DuplicateNumber(nx, &nz)) != PMC_STATUS_OK)

	lea	eax, DWORD PTR _nz$[ebp]
	push	eax
	push	esi
	call	_DuplicateNumber
	add	esp, 8
	test	eax, eax
	je	SHORT $LN12@PMC_Add_X_

; 387  : }

	pop	ebx
	pop	edi
	pop	esi
	pop	ebp
	ret	12					; 0000000cH
$LN11@PMC_Add_X_:

; 358  :                 return (result);
; 359  :         }
; 360  :         else
; 361  :         {
; 362  :             // x と y がともに 0 ではない場合
; 363  : 
; 364  :             // x と y の和を計算する
; 365  :             __UNIT_TYPE x_bit_count = nx->UNIT_BIT_COUNT;

	mov	edx, DWORD PTR [esi+4]

; 366  :             __UNIT_TYPE y_bit_count = sizeof(y) * 8 - _LZCNT_ALT_32(y);

	push	ebx
	call	__LZCNT_ALT_32
	mov	ecx, 32					; 00000020H
	sub	ecx, eax

; 369  :             if ((result = AllocateNumber(&nz, z_bit_count, &nz_check_code)) != PMC_STATUS_OK)

	lea	eax, DWORD PTR _nz_check_code$1[ebp]
; File z:\sources\lunor\repos\rougemeilland\palmtree.math.core.implements\palmtree.math.core.implements\pmc_internal.h

; 415  :     return (x >= y ? x : y);

	cmp	edx, ecx
; File z:\sources\lunor\repos\rougemeilland\palmtree.math.core.implements\palmtree.math.core.implements\pmc_add.c

; 369  :             if ((result = AllocateNumber(&nz, z_bit_count, &nz_check_code)) != PMC_STATUS_OK)

	push	eax
; File z:\sources\lunor\repos\rougemeilland\palmtree.math.core.implements\palmtree.math.core.implements\pmc_internal.h

; 415  :     return (x >= y ? x : y);

	cmovae	ecx, edx
; File z:\sources\lunor\repos\rougemeilland\palmtree.math.core.implements\palmtree.math.core.implements\pmc_add.c

; 369  :             if ((result = AllocateNumber(&nz, z_bit_count, &nz_check_code)) != PMC_STATUS_OK)

	lea	eax, DWORD PTR _nz$[ebp]
	inc	ecx
	push	ecx
	push	eax
	call	_AllocateNumber
	add	esp, 16					; 00000010H
	test	eax, eax
	jne	SHORT $LN21@PMC_Add_X_

; 370  :                 return (result);
; 371  :             if ((result = Add_X_1W(nx, y, nz)) != PMC_STATUS_OK)

	push	DWORD PTR _nz$[ebp]
	push	ebx
	push	esi
	call	_Add_X_1W
	mov	esi, eax
	add	esp, 12					; 0000000cH
	test	esi, esi
	je	SHORT $LN15@PMC_Add_X_

; 372  :             {
; 373  :                 DeallocateNumber(nz);

	push	DWORD PTR _nz$[ebp]
	call	_DeallocateNumber
	add	esp, 4

; 374  :                 return (result);

	mov	eax, esi
	pop	ebx
	pop	edi

; 387  : }

	pop	esi
	pop	ebp
	ret	12					; 0000000cH
$LN15@PMC_Add_X_:

; 375  :             }
; 376  :             if ((result = CheckBlockLight(nz->BLOCK, nz_check_code)) != PMC_STATUS_OK)

	mov	eax, DWORD PTR _nz$[ebp]
	push	DWORD PTR _nz_check_code$1[ebp]
	push	DWORD PTR [eax+24]
	call	_CheckBlockLight
	add	esp, 8
	test	eax, eax
	jne	$LN21@PMC_Add_X_

; 377  :                 return (result);
; 378  :             CommitNumber(nz);

	push	DWORD PTR _nz$[ebp]
	call	_CommitNumber
	add	esp, 4
$LN12@PMC_Add_X_:

; 379  :         }
; 380  :         *o = nz;
; 381  :     }
; 382  : #ifdef _DEBUG
; 383  :     if ((result = CheckNumber(*o)) != PMC_STATUS_OK)
; 384  :         return (result);
; 385  : #endif
; 386  :     return (PMC_STATUS_OK);

	mov	eax, DWORD PTR _nz$[ebp]
	pop	ebx
	mov	DWORD PTR [edi], eax
	xor	eax, eax
	pop	edi

; 387  : }

	pop	esi
	pop	ebp
	ret	12					; 0000000cH
$LN20@PMC_Add_X_:
	pop	edi

; 321  :         return (PMC_STATUS_ARGUMENT_ERROR);

	or	eax, -1

; 387  : }

	pop	esi
	pop	ebp
	ret	12					; 0000000cH
_PMC_Add_X_I@12 ENDP
_TEXT	ENDS
; Function compile flags: /Ogtp
; File z:\sources\lunor\repos\rougemeilland\palmtree.math.core.implements\palmtree.math.core.implements\pmc_add.c
;	COMDAT _Initialize_Add
_TEXT	SEGMENT
_feature$ = 8						; size = 4
_Initialize_Add PROC					; COMDAT

; 574  : {

	push	ebp
	mov	ebp, esp

; 575  :     fp_Add_X_X_using_ADC = feature->PROCESSOR_FEATURE_ADX ? Add_X_X_using_ADCX : Add_X_X_using_ADC;

	mov	eax, DWORD PTR _feature$[ebp]
	mov	ecx, OFFSET _Add_X_X_using_ADCX
	test	BYTE PTR [eax], 2
	mov	eax, OFFSET _Add_X_X_using_ADC
	cmovne	eax, ecx
	mov	DWORD PTR _fp_Add_X_X_using_ADC, eax

; 576  :     return (PMC_STATUS_OK);

	xor	eax, eax

; 577  : }

	pop	ebp
	ret	0
_Initialize_Add ENDP
_TEXT	ENDS
END
