; Listing generated by Microsoft (R) Optimizing Compiler Version 19.16.27026.1 

	TITLE	Z:\Sources\Lunor\Repos\rougemeilland\Palmtree.Math.Core.Implements\Palmtree.Math.Core.Implements\pmc_pow.c
	.686P
	.XMM
	include listing.inc
	.model	flat

INCLUDELIB MSVCRT
INCLUDELIB OLDNAMES

PUBLIC	_Initialize_Pow
PUBLIC	_PMC_Pow_X_I@12
EXTRN	_AllocateBlock:PROC
EXTRN	_DeallocateBlock:PROC
EXTRN	_CheckBlockLight:PROC
EXTRN	_AllocateNumber:PROC
EXTRN	_CommitNumber:PROC
EXTRN	_CheckNumber:PROC
EXTRN	_From_I_Imp:PROC
EXTRN	_Multiply_X_X_Imp:PROC
EXTRN	_number_zero:BYTE
; Function compile flags: /Ogtp
; File z:\sources\lunor\repos\rougemeilland\palmtree.math.core.implements\palmtree.math.core.implements\pmc_pow.c
; File z:\sources\lunor\repos\rougemeilland\palmtree.math.core.implements\palmtree.math.core.implements\pmc_internal.h
; File z:\sources\lunor\repos\rougemeilland\palmtree.math.core.implements\palmtree.math.core.implements\pmc_pow.c
; File z:\sources\lunor\repos\rougemeilland\palmtree.math.core.implements\palmtree.math.core.implements\pmc_internal.h
; File z:\sources\lunor\repos\rougemeilland\palmtree.math.core.implements\palmtree.math.core.implements\pmc_pow.c
; File z:\sources\lunor\repos\rougemeilland\palmtree.math.core.implements\palmtree.math.core.implements\pmc_internal.h
; File z:\sources\lunor\repos\rougemeilland\palmtree.math.core.implements\palmtree.math.core.implements\pmc_pow.c
; File z:\sources\lunor\repos\rougemeilland\palmtree.math.core.implements\palmtree.math.core.implements\pmc_internal.h
; File z:\sources\lunor\repos\rougemeilland\palmtree.math.core.implements\palmtree.math.core.implements\pmc_pow.c
; File z:\sources\lunor\repos\rougemeilland\palmtree.math.core.implements\palmtree.math.core.implements\pmc_internal.h
; File z:\sources\lunor\repos\rougemeilland\palmtree.math.core.implements\palmtree.math.core.implements\pmc_pow.c
; File z:\sources\lunor\repos\rougemeilland\palmtree.math.core.implements\palmtree.math.core.implements\pmc_internal.h
; File z:\sources\lunor\repos\rougemeilland\palmtree.math.core.implements\palmtree.math.core.implements\pmc_pow.c
; File z:\sources\lunor\repos\rougemeilland\palmtree.math.core.implements\palmtree.math.core.implements\pmc_internal.h
; File z:\sources\lunor\repos\rougemeilland\palmtree.math.core.implements\palmtree.math.core.implements\pmc_pow.c
; File z:\sources\lunor\repos\rougemeilland\palmtree.math.core.implements\palmtree.math.core.implements\pmc_internal.h
; File z:\sources\lunor\repos\rougemeilland\palmtree.math.core.implements\palmtree.math.core.implements\pmc_pow.c
; File z:\sources\lunor\repos\rougemeilland\palmtree.math.core.implements\palmtree.math.core.implements\pmc_internal.h
; File z:\sources\lunor\repos\rougemeilland\palmtree.math.core.implements\palmtree.math.core.implements\pmc_pow.c
; File z:\sources\lunor\repos\rougemeilland\palmtree.math.core.implements\palmtree.math.core.implements\pmc_internal.h
; File z:\sources\lunor\repos\rougemeilland\palmtree.math.core.implements\palmtree.math.core.implements\pmc_pow.c
;	COMDAT _PMC_Pow_X_I_Imp
_TEXT	SEGMENT
_z_check_code$1 = -52					; size = 4
_work2_buf_code$2 = -48					; size = 4
_work1_buf_code$3 = -44					; size = 4
_z_buf$1$ = -40						; size = 4
tv363 = -36						; size = 4
_work2_buf_words$4 = -32				; size = 4
_work1_buf_words$5 = -28				; size = 4
_x_buf$1$ = -24						; size = 4
_work2_buf$1$ = -20					; size = 4
_work1_buf$1$ = -16					; size = 4
_n_mask$1$ = -12					; size = 4
_u_ptr$1$ = -8						; size = 4
_w_ptr$1$ = -4						; size = 4
_x_buf_count$1$ = 8					; size = 4
_x$ = 8							; size = 4
_n$ = 12						; size = 4
_z$ = 16						; size = 4
_PMC_Pow_X_I_Imp PROC					; COMDAT

; 85   : {

	push	ebp
	mov	ebp, esp
	sub	esp, 52					; 00000034H
	push	ebx
	push	esi
	push	edi

; 86   :     PMC_STATUS_CODE result;
; 87   :     if (x->IS_ZERO)

	mov	edi, DWORD PTR _x$[ebp]
	test	BYTE PTR [edi+16], 2
	je	SHORT $LN2@PMC_Pow_X_

; 88   :     {
; 89   :         // x が 0 である場合
; 90   : 
; 91   :         if (n == 0)

	cmp	DWORD PTR _n$[ebp], 0
	jne	SHORT $LN4@PMC_Pow_X_

; 167  : }

	pop	edi
	pop	esi
	or	eax, -1
	pop	ebx
	mov	esp, ebp
	pop	ebp
	ret	0
$LN4@PMC_Pow_X_:

; 92   :         {
; 93   :             // n が 0 である場合
; 94   : 
; 95   :             // 0 の 0 乗となるので、エラーを返す
; 96   :             return (PMC_STATUS_ARGUMENT_ERROR);
; 97   :         }
; 98   :         else
; 99   :         {
; 100  :             // n が 0 ではない場合
; 101  : 
; 102  :             *z = &number_zero;

	mov	eax, DWORD PTR _z$[ebp]
	pop	edi

; 167  : }

	pop	esi
	pop	ebx
	mov	DWORD PTR [eax], OFFSET _number_zero
	xor	eax, eax
	mov	esp, ebp
	pop	ebp
	ret	0
$LN2@PMC_Pow_X_:

; 103  :         }
; 104  :     }
; 105  :     else
; 106  :     {
; 107  :         // x が 0 ではない場合
; 108  : 
; 109  :         if (n == 0)

	mov	ebx, DWORD PTR _n$[ebp]
	test	ebx, ebx
	jne	SHORT $LN6@PMC_Pow_X_

; 110  :         {
; 111  :             // n が 0 である場合
; 112  : 
; 113  :             // 計算結果の 1 を返す
; 114  :             if ((result = From_I_Imp(1, z)) != PMC_STATUS_OK)

	push	DWORD PTR _z$[ebp]
	push	1
	call	_From_I_Imp
	add	esp, 8
	test	eax, eax
	je	$LN7@PMC_Pow_X_

; 167  : }

	pop	edi
	pop	esi
	pop	ebx
	mov	esp, ebp
	pop	ebp
	ret	0
$LN6@PMC_Pow_X_:

; 115  :                 return (result);
; 116  :         }
; 117  :         else
; 118  :         {
; 119  :             // x と n がともに 0 ではない場合
; 120  : 
; 121  :             // x の n 乗を計算する
; 122  :             __UNIT_TYPE x_bit_count = x->UNIT_BIT_COUNT;
; 123  : 
; 124  :             // べき乗の計算結果のビット長が論理的な限界を超えると思われる場合、エラーを返す
; 125  :             if (x_bit_count > ((__UNIT_TYPE)-1 - __UNIT_TYPE_BIT_COUNT) / n)

	xor	edx, edx
	mov	esi, DWORD PTR [edi+4]
	mov	eax, -33				; ffffffdfH
	div	ebx
	cmp	esi, eax
	jbe	SHORT $LN9@PMC_Pow_X_

; 167  : }

	pop	edi
	pop	esi
	mov	eax, -2					; fffffffeH
	pop	ebx
	mov	esp, ebp
	pop	ebp
	ret	0
$LN9@PMC_Pow_X_:

; 126  :                 return (PMC_STATUS_OVERFLOW);
; 127  : 
; 128  :             __UNIT_TYPE work_bit_count = x_bit_count * n + __UNIT_TYPE_BIT_COUNT;

	imul	esi, ebx

; 129  : 
; 130  :             __UNIT_TYPE work1_buf_code;
; 131  :             __UNIT_TYPE work1_buf_words;
; 132  :             __UNIT_TYPE* work1_buf = AllocateBlock(work_bit_count, &work1_buf_words, &work1_buf_code);

	lea	eax, DWORD PTR _work1_buf_code$3[ebp]
	push	eax
	lea	eax, DWORD PTR _work1_buf_words$5[ebp]
	push	eax
	add	esi, 32					; 00000020H
	push	esi
	call	_AllocateBlock
	add	esp, 12					; 0000000cH
	mov	DWORD PTR _work1_buf$1$[ebp], eax

; 133  :             if (work1_buf == NULL)

	test	eax, eax
	je	SHORT $LN40@PMC_Pow_X_

; 134  :             {
; 135  :                 return (PMC_STATUS_NOT_ENOUGH_MEMORY);
; 136  :             }
; 137  :             __UNIT_TYPE work2_buf_code;
; 138  :             __UNIT_TYPE work2_buf_words;
; 139  :             __UNIT_TYPE* work2_buf = AllocateBlock(work_bit_count, &work2_buf_words, &work2_buf_code);

	lea	eax, DWORD PTR _work2_buf_code$2[ebp]
	push	eax
	lea	eax, DWORD PTR _work2_buf_words$4[ebp]
	push	eax
	push	esi
	call	_AllocateBlock
	mov	DWORD PTR _work2_buf$1$[ebp], eax

; 140  :             if (work1_buf == NULL)
; 141  :             {
; 142  :                 DeallocateBlock(work1_buf, work1_buf_words);
; 143  :                 return (PMC_STATUS_NOT_ENOUGH_MEMORY);
; 144  :             }
; 145  :             __UNIT_TYPE z_check_code;
; 146  :             if ((result = AllocateNumber(z, work_bit_count, &z_check_code)) != PMC_STATUS_OK)

	lea	eax, DWORD PTR _z_check_code$1[ebp]
	push	eax
	push	esi
	mov	esi, DWORD PTR _z$[ebp]
	push	esi
	call	_AllocateNumber
	add	esp, 24					; 00000018H
	test	eax, eax
	je	SHORT $LN12@PMC_Pow_X_

; 147  :             {
; 148  :                 DeallocateBlock(work1_buf, work1_buf_words);

	push	DWORD PTR _work1_buf_words$5[ebp]
	mov	esi, DWORD PTR _work1_buf$1$[ebp]
	push	esi
	call	_DeallocateBlock

; 149  :                 DeallocateBlock(work2_buf, work2_buf_words);

	push	DWORD PTR _work2_buf_words$4[ebp]
	mov	esi, DWORD PTR _work2_buf$1$[ebp]
	push	esi
	call	_DeallocateBlock
	add	esp, 16					; 00000010H
$LN40@PMC_Pow_X_:

; 167  : }

	pop	edi
	pop	esi
	mov	eax, -5					; fffffffbH
	pop	ebx
	mov	esp, ebp
	pop	ebp
	ret	0
$LN12@PMC_Pow_X_:

; 150  :                 return (PMC_STATUS_NOT_ENOUGH_MEMORY);
; 151  :             }
; 152  : 
; 153  :             Pow_Imp(x->BLOCK, x->UNIT_WORD_COUNT, n, work1_buf, work2_buf, (*z)->BLOCK);

	mov	eax, DWORD PTR [esi]
; File z:\sources\lunor\repos\rougemeilland\palmtree.math.core.implements\palmtree.math.core.implements\pmc_internal.h

; 866  :     return (sizeof(x) * 8 - 1 - pos);

	mov	edx, 31					; 0000001fH
; File z:\sources\lunor\repos\rougemeilland\palmtree.math.core.implements\palmtree.math.core.implements\pmc_pow.c

; 47   :     __UNIT_TYPE* w_ptr = work2_buf;

	mov	esi, DWORD PTR _work2_buf$1$[ebp]
	mov	DWORD PTR _w_ptr$1$[ebp], esi

; 150  :                 return (PMC_STATUS_NOT_ENOUGH_MEMORY);
; 151  :             }
; 152  : 
; 153  :             Pow_Imp(x->BLOCK, x->UNIT_WORD_COUNT, n, work1_buf, work2_buf, (*z)->BLOCK);

	mov	eax, DWORD PTR [eax+24]
	mov	DWORD PTR _z_buf$1$[ebp], eax
	mov	eax, DWORD PTR [edi]
	mov	DWORD PTR _x_buf_count$1$[ebp], eax
	mov	eax, DWORD PTR [edi+24]
	mov	DWORD PTR _x_buf$1$[ebp], eax
; File z:\sources\lunor\repos\rougemeilland\palmtree.math.core.implements\palmtree.math.core.implements\pmc_internal.h

; 327  :     __movsd((unsigned long *)d, (unsigned long *)s, (unsigned long)count);

	mov	esi, DWORD PTR _x_buf$1$[ebp]

; 860  :     _BitScanReverse(&pos, x);

	bsr	eax, ebx
; File z:\sources\lunor\repos\rougemeilland\palmtree.math.core.implements\palmtree.math.core.implements\pmc_pow.c

; 48   :     __UNIT_TYPE u_count = x_buf_count;

	mov	ebx, DWORD PTR _x_buf_count$1$[ebp]
; File z:\sources\lunor\repos\rougemeilland\palmtree.math.core.implements\palmtree.math.core.implements\pmc_internal.h

; 327  :     __movsd((unsigned long *)d, (unsigned long *)s, (unsigned long)count);

	mov	ecx, ebx

; 866  :     return (sizeof(x) * 8 - 1 - pos);

	sub	edx, eax
; File z:\sources\lunor\repos\rougemeilland\palmtree.math.core.implements\palmtree.math.core.implements\pmc_pow.c

; 45   :     __UNIT_TYPE* u_ptr = work1_buf;

	mov	eax, DWORD PTR _work1_buf$1$[ebp]
; File z:\sources\lunor\repos\rougemeilland\palmtree.math.core.implements\palmtree.math.core.implements\pmc_internal.h

; 327  :     __movsd((unsigned long *)d, (unsigned long *)s, (unsigned long)count);

	mov	edi, eax
; File z:\sources\lunor\repos\rougemeilland\palmtree.math.core.implements\palmtree.math.core.implements\pmc_pow.c

; 45   :     __UNIT_TYPE* u_ptr = work1_buf;

	mov	DWORD PTR _u_ptr$1$[ebp], eax
; File z:\sources\lunor\repos\rougemeilland\palmtree.math.core.implements\palmtree.math.core.implements\pmc_internal.h

; 327  :     __movsd((unsigned long *)d, (unsigned long *)s, (unsigned long)count);

	rep movsd
; File z:\sources\lunor\repos\rougemeilland\palmtree.math.core.implements\palmtree.math.core.implements\pmc_pow.c

; 41   :     n_mask = _rotr(n_mask, _LZCNT_ALT_32(n) + 1);

	lea	ecx, DWORD PTR [edx+1]
	mov	esi, 1
	ror	esi, cl

; 49   :     __UNIT_TYPE v_count = x_buf_count;
; 50   :     _COPY_MEMORY_UNIT(work1_buf, x_buf, x_buf_count);
; 51   :     n_mask >>= 1;

	shr	esi, 1
	mov	DWORD PTR _n_mask$1$[ebp], esi

; 52   :     while (n_mask != 0)

	je	$LN19@PMC_Pow_X_
	mov	edx, DWORD PTR _w_ptr$1$[ebp]
	npad	5
$LL18@PMC_Pow_X_:

; 53   :     {
; 54   :         // u を自乗して w に格納する
; 55   :         _ZERO_MEMORY_UNIT(w_ptr, u_count * 2);

	mov	DWORD PTR tv363[ebp], esi
; File z:\sources\lunor\repos\rougemeilland\palmtree.math.core.implements\palmtree.math.core.implements\pmc_internal.h

; 377  :     __stosd((unsigned long*)d, 0, (unsigned long)count);

	mov	edi, edx
; File z:\sources\lunor\repos\rougemeilland\palmtree.math.core.implements\palmtree.math.core.implements\pmc_pow.c

; 56   :         Multiply_X_X_Imp(u_ptr, u_count, u_ptr, u_count, w_ptr);

	push	edx
	lea	esi, DWORD PTR [ebx+ebx]
; File z:\sources\lunor\repos\rougemeilland\palmtree.math.core.implements\palmtree.math.core.implements\pmc_internal.h

; 377  :     __stosd((unsigned long*)d, 0, (unsigned long)count);

	xor	eax, eax
	mov	ecx, esi
	rep stosd
; File z:\sources\lunor\repos\rougemeilland\palmtree.math.core.implements\palmtree.math.core.implements\pmc_pow.c

; 56   :         Multiply_X_X_Imp(u_ptr, u_count, u_ptr, u_count, w_ptr);

	mov	edi, DWORD PTR _u_ptr$1$[ebp]
	push	ebx
	push	edi
	push	ebx
	push	edi
	call	_Multiply_X_X_Imp

; 57   :         u_count *= 2;
; 58   :         if (w_ptr[u_count - 1] == 0)
; 59   :             --u_count;
; 60   : 
; 61   :         // n の該当桁の bit を調べる
; 62   :         if (n & n_mask)

	mov	edx, DWORD PTR _w_ptr$1$[ebp]
	lea	eax, DWORD PTR [esi-1]
	add	esp, 20					; 00000014H
	cmp	DWORD PTR [edx+ebx*8-4], 0
	cmovne	eax, esi
	mov	esi, DWORD PTR _n_mask$1$[ebp]
	mov	ebx, eax
	test	esi, DWORD PTR _n$[ebp]
	je	SHORT $LN21@PMC_Pow_X_

; 65   :             _ZERO_MEMORY_UNIT(u_ptr, u_count + v_count);

	mov	esi, DWORD PTR _x_buf_count$1$[ebp]
; File z:\sources\lunor\repos\rougemeilland\palmtree.math.core.implements\palmtree.math.core.implements\pmc_internal.h

; 377  :     __stosd((unsigned long*)d, 0, (unsigned long)count);

	xor	eax, eax
; File z:\sources\lunor\repos\rougemeilland\palmtree.math.core.implements\palmtree.math.core.implements\pmc_pow.c

; 65   :             _ZERO_MEMORY_UNIT(u_ptr, u_count + v_count);

	add	esi, ebx
; File z:\sources\lunor\repos\rougemeilland\palmtree.math.core.implements\palmtree.math.core.implements\pmc_internal.h

; 377  :     __stosd((unsigned long*)d, 0, (unsigned long)count);

	mov	ecx, esi
	rep stosd
; File z:\sources\lunor\repos\rougemeilland\palmtree.math.core.implements\palmtree.math.core.implements\pmc_pow.c

; 66   :             Multiply_X_X_Imp(w_ptr, u_count, v_ptr, v_count, u_ptr);

	mov	edi, DWORD PTR _u_ptr$1$[ebp]
	push	edi
	push	DWORD PTR _x_buf_count$1$[ebp]
	push	DWORD PTR _x_buf$1$[ebp]
	push	ebx
	push	edx
	call	_Multiply_X_X_Imp

; 67   :             u_count += v_count;
; 68   :             if (u_ptr[u_count - 1] == 0)
; 69   :                 --u_count;
; 70   :         }

	mov	edx, DWORD PTR _w_ptr$1$[ebp]
	lea	ebx, DWORD PTR [esi-1]
	add	esp, 20					; 00000014H
	cmp	DWORD PTR [edi+esi*4-4], 0
	cmovne	ebx, esi
	mov	esi, DWORD PTR _n_mask$1$[ebp]
	jmp	SHORT $LN22@PMC_Pow_X_
$LN21@PMC_Pow_X_:

; 71   :         else
; 72   :         {
; 73   :             // u と w を交換する
; 74   :             __UNIT_TYPE* t_ptr = u_ptr;

	mov	eax, edi

; 75   :             u_ptr = w_ptr;

	mov	DWORD PTR _u_ptr$1$[ebp], edx

; 76   :             w_ptr = t_ptr;

	mov	edx, eax
	mov	DWORD PTR _w_ptr$1$[ebp], edx
$LN22@PMC_Pow_X_:

; 77   :         }
; 78   : 
; 79   :         n_mask >>= 1;

	shr	esi, 1
	cmp	DWORD PTR tv363[ebp], 2
	mov	DWORD PTR _n_mask$1$[ebp], esi
	jae	SHORT $LL18@PMC_Pow_X_
	mov	eax, DWORD PTR _u_ptr$1$[ebp]
$LN19@PMC_Pow_X_:
; File z:\sources\lunor\repos\rougemeilland\palmtree.math.core.implements\palmtree.math.core.implements\pmc_internal.h

; 327  :     __movsd((unsigned long *)d, (unsigned long *)s, (unsigned long)count);

	mov	edi, DWORD PTR _z_buf$1$[ebp]
	mov	esi, eax
	mov	ecx, ebx
	rep movsd
; File z:\sources\lunor\repos\rougemeilland\palmtree.math.core.implements\palmtree.math.core.implements\pmc_pow.c

; 155  :             if ((result = CheckBlockLight(work1_buf, work1_buf_code)) != PMC_STATUS_OK)

	push	DWORD PTR _work1_buf_code$3[ebp]
	mov	esi, DWORD PTR _work1_buf$1$[ebp]
	push	esi
	call	_CheckBlockLight
	add	esp, 8
	test	eax, eax
	jne	SHORT $LN1@PMC_Pow_X_

; 156  :                 return (result);
; 157  :             if ((result = CheckBlockLight(work2_buf, work2_buf_code)) != PMC_STATUS_OK)

	push	DWORD PTR _work2_buf_code$2[ebp]
	mov	ebx, DWORD PTR _work2_buf$1$[ebp]
	push	ebx
	call	_CheckBlockLight
	add	esp, 8
	test	eax, eax
	jne	SHORT $LN1@PMC_Pow_X_

; 158  :                 return (result);
; 159  :             if ((result = CheckBlockLight((*z)->BLOCK, z_check_code)) != PMC_STATUS_OK)

	mov	edi, DWORD PTR _z$[ebp]
	push	DWORD PTR _z_check_code$1[ebp]
	mov	eax, DWORD PTR [edi]
	push	DWORD PTR [eax+24]
	call	_CheckBlockLight
	add	esp, 8
	test	eax, eax
	jne	SHORT $LN1@PMC_Pow_X_

; 160  :                 return (result);
; 161  :             DeallocateBlock(work1_buf, work1_buf_words);

	push	DWORD PTR _work1_buf_words$5[ebp]
	push	esi
	call	_DeallocateBlock

; 162  :             DeallocateBlock(work2_buf, work2_buf_words);

	push	DWORD PTR _work2_buf_words$4[ebp]
	push	ebx
	call	_DeallocateBlock

; 163  :             CommitNumber(*z);

	push	DWORD PTR [edi]
	call	_CommitNumber
	add	esp, 20					; 00000014H
$LN7@PMC_Pow_X_:

; 164  :         }
; 165  :     }
; 166  :     return (PMC_STATUS_OK);

	xor	eax, eax
$LN1@PMC_Pow_X_:
	pop	edi

; 167  : }

	pop	esi
	pop	ebx
	mov	esp, ebp
	pop	ebp
	ret	0
_PMC_Pow_X_I_Imp ENDP
_TEXT	ENDS
; Function compile flags: /Ogtp
; File z:\sources\lunor\repos\rougemeilland\palmtree.math.core.implements\palmtree.math.core.implements\pmc_pow.c
; File z:\sources\lunor\repos\rougemeilland\palmtree.math.core.implements\palmtree.math.core.implements\pmc_internal.h
; File z:\sources\lunor\repos\rougemeilland\palmtree.math.core.implements\palmtree.math.core.implements\pmc_pow.c
; File z:\sources\lunor\repos\rougemeilland\palmtree.math.core.implements\palmtree.math.core.implements\pmc_internal.h
; File z:\sources\lunor\repos\rougemeilland\palmtree.math.core.implements\palmtree.math.core.implements\pmc_pow.c
; File z:\sources\lunor\repos\rougemeilland\palmtree.math.core.implements\palmtree.math.core.implements\pmc_internal.h
; File z:\sources\lunor\repos\rougemeilland\palmtree.math.core.implements\palmtree.math.core.implements\pmc_pow.c
; File z:\sources\lunor\repos\rougemeilland\palmtree.math.core.implements\palmtree.math.core.implements\pmc_internal.h
; File z:\sources\lunor\repos\rougemeilland\palmtree.math.core.implements\palmtree.math.core.implements\pmc_pow.c
; File z:\sources\lunor\repos\rougemeilland\palmtree.math.core.implements\palmtree.math.core.implements\pmc_internal.h
; File z:\sources\lunor\repos\rougemeilland\palmtree.math.core.implements\palmtree.math.core.implements\pmc_pow.c
; File z:\sources\lunor\repos\rougemeilland\palmtree.math.core.implements\palmtree.math.core.implements\pmc_internal.h
; File z:\sources\lunor\repos\rougemeilland\palmtree.math.core.implements\palmtree.math.core.implements\pmc_pow.c
; File z:\sources\lunor\repos\rougemeilland\palmtree.math.core.implements\palmtree.math.core.implements\pmc_internal.h
; File z:\sources\lunor\repos\rougemeilland\palmtree.math.core.implements\palmtree.math.core.implements\pmc_pow.c
; File z:\sources\lunor\repos\rougemeilland\palmtree.math.core.implements\palmtree.math.core.implements\pmc_internal.h
; File z:\sources\lunor\repos\rougemeilland\palmtree.math.core.implements\palmtree.math.core.implements\pmc_pow.c
; File z:\sources\lunor\repos\rougemeilland\palmtree.math.core.implements\palmtree.math.core.implements\pmc_internal.h
; File z:\sources\lunor\repos\rougemeilland\palmtree.math.core.implements\palmtree.math.core.implements\pmc_pow.c
;	COMDAT _Pow_Imp
_TEXT	SEGMENT
tv282 = -8						; size = 4
_n_mask$1$ = -4						; size = 4
_x_buf$ = 8						; size = 4
_x_buf_count$ = 12					; size = 4
_n$ = 16						; size = 4
_u_count$2$ = 20					; size = 4
_work1_buf$ = 20					; size = 4
_work2_buf$ = 24					; size = 4
_z_buf$ = 28						; size = 4
_Pow_Imp PROC						; COMDAT

; 39   : {

	push	ebp
	mov	ebp, esp
; File z:\sources\lunor\repos\rougemeilland\palmtree.math.core.implements\palmtree.math.core.implements\pmc_internal.h

; 856  :     if (x == 0)

	mov	eax, DWORD PTR _n$[ebp]
; File z:\sources\lunor\repos\rougemeilland\palmtree.math.core.implements\palmtree.math.core.implements\pmc_pow.c

; 39   : {

	sub	esp, 8
; File z:\sources\lunor\repos\rougemeilland\palmtree.math.core.implements\palmtree.math.core.implements\pmc_internal.h

; 856  :     if (x == 0)

	test	eax, eax
	jne	SHORT $LN10@Pow_Imp

; 857  :         return (sizeof(x) * 8);

	mov	eax, 32					; 00000020H
	jmp	SHORT $LN9@Pow_Imp
$LN10@Pow_Imp:

; 858  :     _UINT32_T pos;
; 859  : #ifdef _MSC_VER
; 860  :     _BitScanReverse(&pos, x);

	bsr	eax, eax

; 861  : #elif defined(__GNUC__)
; 862  :     __asm__( "bsrl %1, %0" : "=r"(pos) : "rm"(x) );
; 863  : #else
; 864  : #error unknown compiler
; 865  : #endif
; 866  :     return (sizeof(x) * 8 - 1 - pos);

	mov	ecx, 31					; 0000001fH
	sub	ecx, eax
	mov	eax, ecx
$LN9@Pow_Imp:
; File z:\sources\lunor\repos\rougemeilland\palmtree.math.core.implements\palmtree.math.core.implements\pmc_pow.c

; 48   :     __UNIT_TYPE u_count = x_buf_count;

	mov	ecx, DWORD PTR _x_buf_count$[ebp]
	mov	edx, ecx
	push	ebx
	mov	ebx, DWORD PTR _work1_buf$[ebp]
	push	esi
; File z:\sources\lunor\repos\rougemeilland\palmtree.math.core.implements\palmtree.math.core.implements\pmc_internal.h

; 327  :     __movsd((unsigned long *)d, (unsigned long *)s, (unsigned long)count);

	mov	esi, DWORD PTR _x_buf$[ebp]
	push	edi
	mov	edi, ebx
; File z:\sources\lunor\repos\rougemeilland\palmtree.math.core.implements\palmtree.math.core.implements\pmc_pow.c

; 48   :     __UNIT_TYPE u_count = x_buf_count;

	mov	DWORD PTR _u_count$2$[ebp], edx
; File z:\sources\lunor\repos\rougemeilland\palmtree.math.core.implements\palmtree.math.core.implements\pmc_internal.h

; 327  :     __movsd((unsigned long *)d, (unsigned long *)s, (unsigned long)count);

	rep movsd
; File z:\sources\lunor\repos\rougemeilland\palmtree.math.core.implements\palmtree.math.core.implements\pmc_pow.c

; 41   :     n_mask = _rotr(n_mask, _LZCNT_ALT_32(n) + 1);

	lea	ecx, DWORD PTR [eax+1]
	mov	eax, 1
	ror	eax, cl

; 49   :     __UNIT_TYPE v_count = x_buf_count;
; 50   :     _COPY_MEMORY_UNIT(work1_buf, x_buf, x_buf_count);
; 51   :     n_mask >>= 1;

	shr	eax, 1
	mov	DWORD PTR _n_mask$1$[ebp], eax

; 52   :     while (n_mask != 0)

	je	$LN3@Pow_Imp
	mov	edi, DWORD PTR _work2_buf$[ebp]
	npad	3
$LL2@Pow_Imp:

; 53   :     {
; 54   :         // u を自乗して w に格納する
; 55   :         _ZERO_MEMORY_UNIT(w_ptr, u_count * 2);

	lea	esi, DWORD PTR [edx+edx]
	mov	DWORD PTR tv282[ebp], eax
; File z:\sources\lunor\repos\rougemeilland\palmtree.math.core.implements\palmtree.math.core.implements\pmc_internal.h

; 377  :     __stosd((unsigned long*)d, 0, (unsigned long)count);

	xor	eax, eax
	mov	ecx, esi
	rep stosd
; File z:\sources\lunor\repos\rougemeilland\palmtree.math.core.implements\palmtree.math.core.implements\pmc_pow.c

; 56   :         Multiply_X_X_Imp(u_ptr, u_count, u_ptr, u_count, w_ptr);

	mov	edi, DWORD PTR _work2_buf$[ebp]
	push	edi
	push	edx
	push	ebx
	push	edx
	push	ebx
	call	_Multiply_X_X_Imp

; 57   :         u_count *= 2;
; 58   :         if (w_ptr[u_count - 1] == 0)
; 59   :             --u_count;
; 60   : 
; 61   :         // n の該当桁の bit を調べる
; 62   :         if (n & n_mask)

	mov	ecx, DWORD PTR _u_count$2$[ebp]
	lea	edx, DWORD PTR [esi-1]
	mov	eax, DWORD PTR _n$[ebp]
	add	esp, 20					; 00000014H
	cmp	DWORD PTR [edi+ecx*8-4], 0
	cmovne	edx, esi
	mov	DWORD PTR _u_count$2$[ebp], edx
	test	DWORD PTR _n_mask$1$[ebp], eax
	je	SHORT $LN5@Pow_Imp

; 63   :         {
; 64   :             // bit が立っていたら u = w * v とする
; 65   :             _ZERO_MEMORY_UNIT(u_ptr, u_count + v_count);

	mov	esi, DWORD PTR _x_buf_count$[ebp]
; File z:\sources\lunor\repos\rougemeilland\palmtree.math.core.implements\palmtree.math.core.implements\pmc_internal.h

; 377  :     __stosd((unsigned long*)d, 0, (unsigned long)count);

	xor	eax, eax
; File z:\sources\lunor\repos\rougemeilland\palmtree.math.core.implements\palmtree.math.core.implements\pmc_pow.c

; 66   :             Multiply_X_X_Imp(w_ptr, u_count, v_ptr, v_count, u_ptr);

	push	ebx
	push	DWORD PTR _x_buf_count$[ebp]
	add	esi, edx
; File z:\sources\lunor\repos\rougemeilland\palmtree.math.core.implements\palmtree.math.core.implements\pmc_internal.h

; 377  :     __stosd((unsigned long*)d, 0, (unsigned long)count);

	mov	edi, ebx
; File z:\sources\lunor\repos\rougemeilland\palmtree.math.core.implements\palmtree.math.core.implements\pmc_pow.c

; 66   :             Multiply_X_X_Imp(w_ptr, u_count, v_ptr, v_count, u_ptr);

	push	DWORD PTR _x_buf$[ebp]
; File z:\sources\lunor\repos\rougemeilland\palmtree.math.core.implements\palmtree.math.core.implements\pmc_internal.h

; 377  :     __stosd((unsigned long*)d, 0, (unsigned long)count);

	mov	ecx, esi
	rep stosd
; File z:\sources\lunor\repos\rougemeilland\palmtree.math.core.implements\palmtree.math.core.implements\pmc_pow.c

; 66   :             Multiply_X_X_Imp(w_ptr, u_count, v_ptr, v_count, u_ptr);

	mov	edi, DWORD PTR _work2_buf$[ebp]
	push	edx
	push	edi
	call	_Multiply_X_X_Imp
	add	esp, 20					; 00000014H

; 67   :             u_count += v_count;
; 68   :             if (u_ptr[u_count - 1] == 0)
; 69   :                 --u_count;
; 70   :         }

	lea	edx, DWORD PTR [esi-1]
	cmp	DWORD PTR [ebx+esi*4-4], 0
	cmovne	edx, esi
	mov	DWORD PTR _u_count$2$[ebp], edx
	jmp	SHORT $LN6@Pow_Imp
$LN5@Pow_Imp:

; 71   :         else
; 72   :         {
; 73   :             // u と w を交換する
; 74   :             __UNIT_TYPE* t_ptr = u_ptr;

	mov	eax, ebx

; 75   :             u_ptr = w_ptr;

	mov	ebx, edi

; 76   :             w_ptr = t_ptr;

	mov	edi, eax
	mov	DWORD PTR _work2_buf$[ebp], edi
$LN6@Pow_Imp:

; 77   :         }
; 78   : 
; 79   :         n_mask >>= 1;

	mov	eax, DWORD PTR _n_mask$1$[ebp]
	shr	eax, 1
	cmp	DWORD PTR tv282[ebp], 2
	mov	DWORD PTR _n_mask$1$[ebp], eax
	jae	SHORT $LL2@Pow_Imp
$LN3@Pow_Imp:
; File z:\sources\lunor\repos\rougemeilland\palmtree.math.core.implements\palmtree.math.core.implements\pmc_internal.h

; 327  :     __movsd((unsigned long *)d, (unsigned long *)s, (unsigned long)count);

	mov	edi, DWORD PTR _z_buf$[ebp]
	mov	esi, ebx
	mov	ecx, edx
	rep movsd
	pop	edi
	pop	esi
	pop	ebx
; File z:\sources\lunor\repos\rougemeilland\palmtree.math.core.implements\palmtree.math.core.implements\pmc_pow.c

; 82   : }

	mov	esp, ebp
	pop	ebp
	ret	0
_Pow_Imp ENDP
_TEXT	ENDS
; Function compile flags: /Ogtp
; File z:\sources\lunor\repos\rougemeilland\palmtree.math.core.implements\palmtree.math.core.implements\pmc_internal.h
;	COMDAT __LZCNT_ALT_32
_TEXT	SEGMENT
_x$ = 8							; size = 4
__LZCNT_ALT_32 PROC					; COMDAT

; 855  : {

	push	ebp
	mov	ebp, esp

; 856  :     if (x == 0)

	mov	eax, DWORD PTR _x$[ebp]
	test	eax, eax
	jne	SHORT $LN2@LZCNT_ALT_

; 857  :         return (sizeof(x) * 8);

	mov	eax, 32					; 00000020H

; 867  : }

	pop	ebp
	ret	0
$LN2@LZCNT_ALT_:

; 858  :     _UINT32_T pos;
; 859  : #ifdef _MSC_VER
; 860  :     _BitScanReverse(&pos, x);

	bsr	ecx, eax

; 861  : #elif defined(__GNUC__)
; 862  :     __asm__( "bsrl %1, %0" : "=r"(pos) : "rm"(x) );
; 863  : #else
; 864  : #error unknown compiler
; 865  : #endif
; 866  :     return (sizeof(x) * 8 - 1 - pos);

	mov	eax, 31					; 0000001fH
	sub	eax, ecx

; 867  : }

	pop	ebp
	ret	0
__LZCNT_ALT_32 ENDP
_TEXT	ENDS
; Function compile flags: /Ogtp
; File z:\sources\lunor\repos\rougemeilland\palmtree.math.core.implements\palmtree.math.core.implements\pmc_internal.h
;	COMDAT __ZERO_MEMORY_UNIT
_TEXT	SEGMENT
_d$ = 8							; size = 4
_count$ = 12						; size = 4
__ZERO_MEMORY_UNIT PROC					; COMDAT

; 375  : {

	push	ebp
	mov	ebp, esp

; 376  : #ifdef _M_IX86
; 377  :     __stosd((unsigned long*)d, 0, (unsigned long)count);

	mov	ecx, DWORD PTR _count$[ebp]
	xor	eax, eax
	push	edi
	mov	edi, DWORD PTR _d$[ebp]
	rep stosd
	pop	edi

; 378  : #elif defined(_M_X64)
; 379  :     __stosq(d, 0, count);
; 380  : #else
; 381  : #error unknown platform
; 382  : #endif
; 383  : }

	pop	ebp
	ret	0
__ZERO_MEMORY_UNIT ENDP
_TEXT	ENDS
; Function compile flags: /Ogtp
; File z:\sources\lunor\repos\rougemeilland\palmtree.math.core.implements\palmtree.math.core.implements\pmc_internal.h
;	COMDAT __COPY_MEMORY_UNIT
_TEXT	SEGMENT
_d$ = 8							; size = 4
_s$ = 12						; size = 4
_count$ = 16						; size = 4
__COPY_MEMORY_UNIT PROC					; COMDAT

; 325  : {

	push	ebp
	mov	ebp, esp

; 326  : #ifdef _M_IX86
; 327  :     __movsd((unsigned long *)d, (unsigned long *)s, (unsigned long)count);

	mov	ecx, DWORD PTR _count$[ebp]
	push	esi
	mov	esi, DWORD PTR _s$[ebp]
	push	edi
	mov	edi, DWORD PTR _d$[ebp]
	rep movsd
	pop	edi
	pop	esi

; 328  : #elif defined(_M_X64)
; 329  :     __movsq(d, s, count);
; 330  : #else
; 331  : #error unknown platform
; 332  : #endif
; 333  : }

	pop	ebp
	ret	0
__COPY_MEMORY_UNIT ENDP
_TEXT	ENDS
; Function compile flags: /Ogtp
; File z:\sources\lunor\repos\rougemeilland\palmtree.math.core.implements\palmtree.math.core.implements\pmc_pow.c
;	COMDAT _PMC_Pow_X_I@12
_TEXT	SEGMENT
_x$ = 8							; size = 4
_n$ = 12						; size = 4
_z$ = 16						; size = 4
_PMC_Pow_X_I@12 PROC					; COMDAT

; 170  : {

	push	ebp
	mov	ebp, esp
	push	esi

; 171  :     if (__UNIT_TYPE_BIT_COUNT < sizeof(n) * 8)
; 172  :     {
; 173  :         // _UINT32_T が 1 ワードで表現しきれない処理系には対応しない
; 174  :         return (PMC_STATUS_INTERNAL_ERROR);
; 175  :     }
; 176  :     if (x == NULL)

	mov	esi, DWORD PTR _x$[ebp]
	test	esi, esi
	je	SHORT $LN8@PMC_Pow_X_

; 177  :         return (PMC_STATUS_ARGUMENT_ERROR);
; 178  :     if (z == NULL)

	cmp	DWORD PTR _z$[ebp], 0
	je	SHORT $LN8@PMC_Pow_X_

; 180  :     PMC_STATUS_CODE result;
; 181  :     if ((result = CheckNumber((NUMBER_HEADER*)x)) != PMC_STATUS_OK)

	push	esi
	call	_CheckNumber
	add	esp, 4
	test	eax, eax
	jne	SHORT $LN6@PMC_Pow_X_

; 182  :         return (result);
; 183  :     if ((result = PMC_Pow_X_I_Imp((NUMBER_HEADER*)x, n, (NUMBER_HEADER**)z)) != PMC_STATUS_OK)

	push	DWORD PTR _z$[ebp]
	push	DWORD PTR _n$[ebp]
	push	esi
	call	_PMC_Pow_X_I_Imp
	add	esp, 12					; 0000000cH
	pop	esi

; 184  :         return (result);
; 185  : #ifdef _DEBUG
; 186  :     if ((result = CheckNumber(*z)) != PMC_STATUS_OK)
; 187  :         return (result);
; 188  : #endif
; 189  :     return (PMC_STATUS_OK);
; 190  : }

	pop	ebp
	ret	12					; 0000000cH
$LN8@PMC_Pow_X_:

; 179  :         return (PMC_STATUS_ARGUMENT_ERROR);

	or	eax, -1
$LN6@PMC_Pow_X_:
	pop	esi

; 184  :         return (result);
; 185  : #ifdef _DEBUG
; 186  :     if ((result = CheckNumber(*z)) != PMC_STATUS_OK)
; 187  :         return (result);
; 188  : #endif
; 189  :     return (PMC_STATUS_OK);
; 190  : }

	pop	ebp
	ret	12					; 0000000cH
_PMC_Pow_X_I@12 ENDP
_TEXT	ENDS
; Function compile flags: /Ogtp
; File z:\sources\lunor\repos\rougemeilland\palmtree.math.core.implements\palmtree.math.core.implements\pmc_pow.c
;	COMDAT _Initialize_Pow
_TEXT	SEGMENT
_feature$ = 8						; size = 4
_Initialize_Pow PROC					; COMDAT

; 194  :     return (PMC_STATUS_OK);

	xor	eax, eax

; 195  : }

	ret	0
_Initialize_Pow ENDP
_TEXT	ENDS
END
