; Listing generated by Microsoft (R) Optimizing Compiler Version 19.16.27026.1 

	TITLE	Z:\Sources\Lunor\Repos\rougemeilland\Palmtree.Math.Core.Implements\Palmtree.Math.Core.Implements\TEST_op_BitwiseOr.c
	.686P
	.XMM
	include listing.inc
	.model	flat

INCLUDELIB MSVCRT
INCLUDELIB OLDNAMES

PUBLIC	_TEST_PMC_BitwiseOr_X_I
PUBLIC	_TEST_PMC_BitwiseOr_X_L
PUBLIC	_TEST_PMC_BitwiseOr_X_X
PUBLIC	??_C@_0CN@LDAEIIBE@PMC_From_B?$IC?L?$JF?$JM?$ILA?$IDR?$IB?$FL?$IDh?$IC?$KK?$IK?z?$JB?R?$JC?J?$IC@ ; `string'
PUBLIC	??_C@_0BK@FCNOKJHK@PMC_BitwiseOr_X_I?5?$CI?$CFd?4?$CFd?$CJ@ ; `string'
PUBLIC	??_C@_0DE@KIJFNPAJ@PMC_BitwiseOr_X_I?$IC?L?$JF?$JM?$ILA?$IDR?$IB?$FL?$IDh?$IC?$KK@ ; `string'
PUBLIC	??_C@_0CN@JELPCGPD@PMC_To_X_B?$IC?L?$JF?$JM?$ILA?$IDR?$IB?$FL?$IDh?$IC?$KK?$IK?z?$JB?R?$JC?J?$IC@ ; `string'
PUBLIC	??_C@_0BK@JKLCEDKM@PMC_BitwiseOr_X_X?5?$CI?$CFd?4?$CFd?$CJ@ ; `string'
PUBLIC	??_C@_0BJ@JGINKGIA@?$IDf?$IB?$FL?$ID?$FO?$IC?L?$JD?$OA?$JHe?$IC?$KK?$II?j?$JCv?$IC?$LF?$IC?H?$IC?$KC@ ; `string'
PUBLIC	??_C@_0BK@LEPHGCDO@PMC_BitwiseOr_X_L?5?$CI?$CFd?4?$CFd?$CJ@ ; `string'
PUBLIC	??_C@_0DE@FLFFDAL@PMC_BitwiseOr_X_L?$IC?L?$JF?$JM?$ILA?$IDR?$IB?$FL?$IDh?$IC?$KK@ ; `string'
PUBLIC	??_C@_0DE@NMKEGJMA@PMC_BitwiseOr_X_X?$IC?L?$JF?$JM?$ILA?$IDR?$IB?$FL?$IDh?$IC?$KK@ ; `string'
EXTRN	_TEST_Assert:PROC
EXTRN	_FormatTestLabel:PROC
EXTRN	_FormatTestMesssage:PROC
EXTRN	@__security_check_cookie@4:PROC
EXTRN	___security_cookie:DWORD
;	COMDAT ??_C@_0DE@NMKEGJMA@PMC_BitwiseOr_X_X?$IC?L?$JF?$JM?$ILA?$IDR?$IB?$FL?$IDh?$IC?$KK@
CONST	SEGMENT
??_C@_0DE@NMKEGJMA@PMC_BitwiseOr_X_X?$IC?L?$JF?$JM?$ILA?$IDR?$IB?$FL?$IDh?$IC?$KK@ DB 'P'
	DB	'MC_BitwiseOr_X_X', 082H, 0ccH, 095H, 09cH, 08bH, 'A', 083H, 'R'
	DB	081H, '[', 083H, 'h', 082H, 0aaH, 08aH, 0faH, 091H, 0d2H, 092H
	DB	0caH, 082H, 0e8H, 082H, 0c5H, 082H, 0cdH, 082H, 0c8H, 082H, 0a2H
	DB	'(%d)', 00H					; `string'
CONST	ENDS
;	COMDAT ??_C@_0DE@FLFFDAL@PMC_BitwiseOr_X_L?$IC?L?$JF?$JM?$ILA?$IDR?$IB?$FL?$IDh?$IC?$KK@
CONST	SEGMENT
??_C@_0DE@FLFFDAL@PMC_BitwiseOr_X_L?$IC?L?$JF?$JM?$ILA?$IDR?$IB?$FL?$IDh?$IC?$KK@ DB 'P'
	DB	'MC_BitwiseOr_X_L', 082H, 0ccH, 095H, 09cH, 08bH, 'A', 083H, 'R'
	DB	081H, '[', 083H, 'h', 082H, 0aaH, 08aH, 0faH, 091H, 0d2H, 092H
	DB	0caH, 082H, 0e8H, 082H, 0c5H, 082H, 0cdH, 082H, 0c8H, 082H, 0a2H
	DB	'(%d)', 00H					; `string'
CONST	ENDS
;	COMDAT ??_C@_0BK@LEPHGCDO@PMC_BitwiseOr_X_L?5?$CI?$CFd?4?$CFd?$CJ@
CONST	SEGMENT
??_C@_0BK@LEPHGCDO@PMC_BitwiseOr_X_L?5?$CI?$CFd?4?$CFd?$CJ@ DB 'PMC_Bitwi'
	DB	'seOr_X_L (%d.%d)', 00H			; `string'
CONST	ENDS
;	COMDAT ??_C@_0BJ@JGINKGIA@?$IDf?$IB?$FL?$ID?$FO?$IC?L?$JD?$OA?$JHe?$IC?$KK?$II?j?$JCv?$IC?$LF?$IC?H?$IC?$KC@
CONST	SEGMENT
??_C@_0BJ@JGINKGIA@?$IDf?$IB?$FL?$ID?$FO?$IC?L?$JD?$OA?$JHe?$IC?$KK?$II?j?$JCv?$IC?$LF?$IC?H?$IC?$KC@ DB 083H
	DB	'f', 081H, '[', 083H, '^', 082H, 0ccH, 093H, 0e0H, 097H, 'e', 082H
	DB	0aaH, 088H, 0eaH, 092H, 'v', 082H, 0b5H, 082H, 0c8H, 082H, 0a2H
	DB	00H						; `string'
CONST	ENDS
;	COMDAT ??_C@_0BK@JKLCEDKM@PMC_BitwiseOr_X_X?5?$CI?$CFd?4?$CFd?$CJ@
CONST	SEGMENT
??_C@_0BK@JKLCEDKM@PMC_BitwiseOr_X_X?5?$CI?$CFd?4?$CFd?$CJ@ DB 'PMC_Bitwi'
	DB	'seOr_X_X (%d.%d)', 00H			; `string'
CONST	ENDS
;	COMDAT ??_C@_0CN@JELPCGPD@PMC_To_X_B?$IC?L?$JF?$JM?$ILA?$IDR?$IB?$FL?$IDh?$IC?$KK?$IK?z?$JB?R?$JC?J?$IC@
CONST	SEGMENT
??_C@_0CN@JELPCGPD@PMC_To_X_B?$IC?L?$JF?$JM?$ILA?$IDR?$IB?$FL?$IDh?$IC?$KK?$IK?z?$JB?R?$JC?J?$IC@ DB 'P'
	DB	'MC_To_X_B', 082H, 0ccH, 095H, 09cH, 08bH, 'A', 083H, 'R', 081H
	DB	'[', 083H, 'h', 082H, 0aaH, 08aH, 0faH, 091H, 0d2H, 092H, 0caH
	DB	082H, 0e8H, 082H, 0c5H, 082H, 0cdH, 082H, 0c8H, 082H, 0a2H, '('
	DB	'%d)', 00H					; `string'
CONST	ENDS
;	COMDAT ??_C@_0DE@KIJFNPAJ@PMC_BitwiseOr_X_I?$IC?L?$JF?$JM?$ILA?$IDR?$IB?$FL?$IDh?$IC?$KK@
CONST	SEGMENT
??_C@_0DE@KIJFNPAJ@PMC_BitwiseOr_X_I?$IC?L?$JF?$JM?$ILA?$IDR?$IB?$FL?$IDh?$IC?$KK@ DB 'P'
	DB	'MC_BitwiseOr_X_I', 082H, 0ccH, 095H, 09cH, 08bH, 'A', 083H, 'R'
	DB	081H, '[', 083H, 'h', 082H, 0aaH, 08aH, 0faH, 091H, 0d2H, 092H
	DB	0caH, 082H, 0e8H, 082H, 0c5H, 082H, 0cdH, 082H, 0c8H, 082H, 0a2H
	DB	'(%d)', 00H					; `string'
CONST	ENDS
;	COMDAT ??_C@_0BK@FCNOKJHK@PMC_BitwiseOr_X_I?5?$CI?$CFd?4?$CFd?$CJ@
CONST	SEGMENT
??_C@_0BK@FCNOKJHK@PMC_BitwiseOr_X_I?5?$CI?$CFd?4?$CFd?$CJ@ DB 'PMC_Bitwi'
	DB	'seOr_X_I (%d.%d)', 00H			; `string'
CONST	ENDS
;	COMDAT ??_C@_0CN@LDAEIIBE@PMC_From_B?$IC?L?$JF?$JM?$ILA?$IDR?$IB?$FL?$IDh?$IC?$KK?$IK?z?$JB?R?$JC?J?$IC@
CONST	SEGMENT
??_C@_0CN@LDAEIIBE@PMC_From_B?$IC?L?$JF?$JM?$ILA?$IDR?$IB?$FL?$IDh?$IC?$KK?$IK?z?$JB?R?$JC?J?$IC@ DB 'P'
	DB	'MC_From_B', 082H, 0ccH, 095H, 09cH, 08bH, 'A', 083H, 'R', 081H
	DB	'[', 083H, 'h', 082H, 0aaH, 08aH, 0faH, 091H, 0d2H, 092H, 0caH
	DB	082H, 0e8H, 082H, 0c5H, 082H, 0cdH, 082H, 0c8H, 082H, 0a2H, '('
	DB	'%d)', 00H					; `string'
CONST	ENDS
; Function compile flags: /Ogtp
; File z:\sources\lunor\repos\rougemeilland\palmtree.math.core.implements\palmtree.math.core.implements\pmc_debug.h
;	COMDAT __EQUALS_MEMORY
_TEXT	SEGMENT
_buffer1$ = 8						; size = 4
_count1$ = 12						; size = 4
_buffer2$ = 16						; size = 4
_count2$ = 20						; size = 4
__EQUALS_MEMORY PROC					; COMDAT

; 102  : {

	push	ebp
	mov	ebp, esp

; 103  :     if (count1 != count2)

	mov	edx, DWORD PTR _count1$[ebp]
	push	esi
	cmp	edx, DWORD PTR _count2$[ebp]
	jne	SHORT $LN8@EQUALS_MEM

; 104  :         return (-1);
; 105  :     while (count1 > 0)

	test	edx, edx
	je	SHORT $LN3@EQUALS_MEM
	mov	esi, DWORD PTR _buffer1$[ebp]
	mov	eax, DWORD PTR _buffer2$[ebp]
	sub	esi, eax
$LL2@EQUALS_MEM:

; 106  :     {
; 107  :         if (*buffer1 != *buffer2)

	mov	cl, BYTE PTR [esi+eax]
	cmp	cl, BYTE PTR [eax]
	jne	SHORT $LN8@EQUALS_MEM

; 109  :         ++buffer1;
; 110  :         ++buffer2;

	inc	eax

; 111  :         --count1;

	sub	edx, 1
	jne	SHORT $LL2@EQUALS_MEM
$LN3@EQUALS_MEM:

; 112  :     }
; 113  :     return (0);

	xor	eax, eax
	pop	esi

; 114  : }

	pop	ebp
	ret	0
$LN8@EQUALS_MEM:

; 108  :             return (-1);

	or	eax, -1
	pop	esi

; 114  : }

	pop	ebp
	ret	0
__EQUALS_MEMORY ENDP
_TEXT	ENDS
; Function compile flags: /Ogtp
; File z:\sources\lunor\repos\rougemeilland\palmtree.math.core.implements\palmtree.math.core.implements\test_op_bitwiseor.c
; File z:\sources\lunor\repos\rougemeilland\palmtree.math.core.implements\palmtree.math.core.implements\pmc_debug.h
; File z:\sources\lunor\repos\rougemeilland\palmtree.math.core.implements\palmtree.math.core.implements\test_op_bitwiseor.c
; File z:\sources\lunor\repos\rougemeilland\palmtree.math.core.implements\palmtree.math.core.implements\pmc_debug.h
; File z:\sources\lunor\repos\rougemeilland\palmtree.math.core.implements\palmtree.math.core.implements\test_op_bitwiseor.c
;	COMDAT _TEST_PMC_BitwiseOr_X_X
_TEXT	SEGMENT
_v_result$1$ = -292					; size = 4
_actual_w_buf_size$ = -288				; size = 4
_u$ = -284						; size = 4
_u_result$1$ = -280					; size = 4
_v$ = -276						; size = 4
_w$ = -272						; size = 4
_w_result$1$ = -268					; size = 4
_no$GSCopy$1$ = -264					; size = 4
_actual_w_buf$ = -260					; size = 256
__$ArrayPad$ = -4					; size = 4
_env$ = 8						; size = 4
_ep$ = 12						; size = 4
_no$ = 16						; size = 4
_u_buf$ = 20						; size = 4
_u_buf_size$ = 24					; size = 4
_v_buf$ = 28						; size = 4
_v_buf_size$ = 32					; size = 4
_desired_w_buf$ = 36					; size = 4
_desired_w_buf_size$ = 40				; size = 4
_TEST_PMC_BitwiseOr_X_X PROC				; COMDAT

; 77   : {

	push	ebp
	mov	ebp, esp
	sub	esp, 292				; 00000124H
	mov	eax, DWORD PTR ___security_cookie
	xor	eax, ebp
	mov	DWORD PTR __$ArrayPad$[ebp], eax
	mov	eax, DWORD PTR _no$[ebp]

; 78   :     HANDLE u;
; 79   :     HANDLE v;
; 80   :     HANDLE w;
; 81   :     unsigned char actual_w_buf[256];
; 82   :     size_t actual_w_buf_size;
; 83   :     PMC_STATUS_CODE result;
; 84   :     PMC_STATUS_CODE u_result;
; 85   :     PMC_STATUS_CODE v_result;
; 86   :     PMC_STATUS_CODE w_result;
; 87   :     TEST_Assert(env, FormatTestLabel("PMC_BitwiseOr_X_X (%d.%d)", no, 1), (u_result = ep->PMC_From_B(u_buf, u_buf_size, &u)) == PMC_STATUS_OK, FormatTestMesssage("PMC_From_Bの復帰コードが期待通りではない(%d)", u_result));

	lea	ecx, DWORD PTR _u$[ebp]
	push	ebx
	mov	ebx, DWORD PTR _env$[ebp]
	push	esi
	mov	esi, DWORD PTR _v_buf$[ebp]
	push	edi
	mov	edi, DWORD PTR _ep$[ebp]
	push	ecx
	push	DWORD PTR _u_buf_size$[ebp]
	mov	DWORD PTR _no$GSCopy$1$[ebp], eax
	mov	eax, DWORD PTR _u_buf$[ebp]
	push	eax
	mov	eax, DWORD PTR [edi+16]
	call	eax
	push	eax
	push	OFFSET ??_C@_0CN@LDAEIIBE@PMC_From_B?$IC?L?$JF?$JM?$ILA?$IDR?$IB?$FL?$IDh?$IC?$KK?$IK?z?$JB?R?$JC?J?$IC@
	mov	DWORD PTR _u_result$1$[ebp], eax
	call	_FormatTestMesssage
	add	esp, 8
	xor	ecx, ecx
	cmp	DWORD PTR _u_result$1$[ebp], ecx
	sete	cl
	push	eax
	push	ecx
	push	1
	push	DWORD PTR _no$GSCopy$1$[ebp]
	push	OFFSET ??_C@_0BK@JKLCEDKM@PMC_BitwiseOr_X_X?5?$CI?$CFd?4?$CFd?$CJ@
	call	_FormatTestLabel
	add	esp, 12					; 0000000cH
	push	eax
	push	ebx
	call	_TEST_Assert
	add	esp, 16					; 00000010H

; 88   :     TEST_Assert(env, FormatTestLabel("PMC_BitwiseOr_X_X (%d.%d)", no, 2), (v_result = ep->PMC_From_B(v_buf, v_buf_size, &v)) == PMC_STATUS_OK, FormatTestMesssage("PMC_From_Bの復帰コードが期待通りではない(%d)", v_result));

	lea	eax, DWORD PTR _v$[ebp]
	push	eax
	push	DWORD PTR _v_buf_size$[ebp]
	mov	eax, DWORD PTR [edi+16]
	push	esi
	call	eax
	mov	esi, eax
	push	esi
	push	OFFSET ??_C@_0CN@LDAEIIBE@PMC_From_B?$IC?L?$JF?$JM?$ILA?$IDR?$IB?$FL?$IDh?$IC?$KK?$IK?z?$JB?R?$JC?J?$IC@
	mov	DWORD PTR _v_result$1$[ebp], esi
	call	_FormatTestMesssage
	add	esp, 8
	xor	ecx, ecx
	test	esi, esi
	mov	esi, DWORD PTR _no$GSCopy$1$[ebp]
	sete	cl
	push	eax
	push	ecx
	push	2
	push	esi
	push	OFFSET ??_C@_0BK@JKLCEDKM@PMC_BitwiseOr_X_X?5?$CI?$CFd?4?$CFd?$CJ@
	call	_FormatTestLabel
	add	esp, 12					; 0000000cH
	push	eax
	push	ebx
	call	_TEST_Assert
	add	esp, 16					; 00000010H

; 89   :     TEST_Assert(env, FormatTestLabel("PMC_BitwiseOr_X_X (%d.%d)", no, 3), (w_result = ep->PMC_BitwiseOr_X_X(u, v, &w)) == PMC_STATUS_OK, FormatTestMesssage("PMC_BitwiseOr_X_Xの復帰コードが期待通りではない(%d)", w_result));

	lea	eax, DWORD PTR _w$[ebp]
	push	eax
	push	DWORD PTR _v$[ebp]
	mov	eax, DWORD PTR [edi+120]
	push	DWORD PTR _u$[ebp]
	call	eax
	push	eax
	push	OFFSET ??_C@_0DE@NMKEGJMA@PMC_BitwiseOr_X_X?$IC?L?$JF?$JM?$ILA?$IDR?$IB?$FL?$IDh?$IC?$KK@
	mov	DWORD PTR _w_result$1$[ebp], eax
	call	_FormatTestMesssage
	add	esp, 8
	xor	ecx, ecx
	cmp	DWORD PTR _w_result$1$[ebp], ecx
	sete	cl
	push	eax
	push	ecx
	push	3
	push	esi
	push	OFFSET ??_C@_0BK@JKLCEDKM@PMC_BitwiseOr_X_X?5?$CI?$CFd?4?$CFd?$CJ@
	call	_FormatTestLabel
	add	esp, 12					; 0000000cH
	push	eax
	push	ebx
	call	_TEST_Assert
	add	esp, 16					; 00000010H

; 90   :     TEST_Assert(env, FormatTestLabel("PMC_BitwiseOr_X_X (%d.%d)", no, 4), (result = ep->PMC_To_X_B(w, actual_w_buf, sizeof(actual_w_buf), &actual_w_buf_size)) == PMC_STATUS_OK, FormatTestMesssage("PMC_To_X_Bの復帰コードが期待通りではない(%d)", result));

	lea	eax, DWORD PTR _actual_w_buf_size$[ebp]
	push	eax
	push	256					; 00000100H
	lea	eax, DWORD PTR _actual_w_buf$[ebp]
	push	eax
	push	DWORD PTR _w$[ebp]
	mov	eax, DWORD PTR [edi+32]
	call	eax
	mov	esi, eax
	push	esi
	push	OFFSET ??_C@_0CN@JELPCGPD@PMC_To_X_B?$IC?L?$JF?$JM?$ILA?$IDR?$IB?$FL?$IDh?$IC?$KK?$IK?z?$JB?R?$JC?J?$IC@
	call	_FormatTestMesssage
	add	esp, 8
	xor	ecx, ecx
	test	esi, esi
	sete	cl
	push	eax
	push	ecx
	push	4
	push	DWORD PTR _no$GSCopy$1$[ebp]
	push	OFFSET ??_C@_0BK@JKLCEDKM@PMC_BitwiseOr_X_X?5?$CI?$CFd?4?$CFd?$CJ@
	call	_FormatTestLabel
	add	esp, 12					; 0000000cH
	push	eax
	push	ebx
	call	_TEST_Assert

; 91   :     TEST_Assert(env, FormatTestLabel("PMC_BitwiseOr_X_X (%d.%d)", no, 5), _EQUALS_MEMORY(actual_w_buf, actual_w_buf_size, desired_w_buf, desired_w_buf_size) == 0, "データの内容が一致しない");

	mov	edx, DWORD PTR _actual_w_buf_size$[ebp]
	add	esp, 16					; 00000010H
	mov	eax, DWORD PTR _desired_w_buf$[ebp]
	cmp	edx, DWORD PTR _desired_w_buf_size$[ebp]
; File z:\sources\lunor\repos\rougemeilland\palmtree.math.core.implements\palmtree.math.core.implements\pmc_debug.h

; 103  :     if (count1 != count2)

	je	SHORT $LN12@TEST_PMC_B
$LN13@TEST_PMC_B:
; File z:\sources\lunor\repos\rougemeilland\palmtree.math.core.implements\palmtree.math.core.implements\test_op_bitwiseor.c

; 91   :     TEST_Assert(env, FormatTestLabel("PMC_BitwiseOr_X_X (%d.%d)", no, 5), _EQUALS_MEMORY(actual_w_buf, actual_w_buf_size, desired_w_buf, desired_w_buf_size) == 0, "データの内容が一致しない");

	or	ecx, -1
	jmp	SHORT $LN6@TEST_PMC_B
$LN12@TEST_PMC_B:
; File z:\sources\lunor\repos\rougemeilland\palmtree.math.core.implements\palmtree.math.core.implements\pmc_debug.h

; 105  :     while (count1 > 0)

	test	edx, edx
	je	SHORT $LN8@TEST_PMC_B
	lea	esi, DWORD PTR _actual_w_buf$[ebp]
	sub	esi, eax
$LL7@TEST_PMC_B:

; 106  :     {
; 107  :         if (*buffer1 != *buffer2)

	mov	cl, BYTE PTR [esi+eax]
	cmp	cl, BYTE PTR [eax]
	jne	SHORT $LN13@TEST_PMC_B

; 108  :             return (-1);
; 109  :         ++buffer1;
; 110  :         ++buffer2;

	inc	eax

; 111  :         --count1;

	sub	edx, 1
	jne	SHORT $LL7@TEST_PMC_B
$LN8@TEST_PMC_B:

; 112  :     }
; 113  :     return (0);

	xor	ecx, ecx
$LN6@TEST_PMC_B:
; File z:\sources\lunor\repos\rougemeilland\palmtree.math.core.implements\palmtree.math.core.implements\test_op_bitwiseor.c

; 91   :     TEST_Assert(env, FormatTestLabel("PMC_BitwiseOr_X_X (%d.%d)", no, 5), _EQUALS_MEMORY(actual_w_buf, actual_w_buf_size, desired_w_buf, desired_w_buf_size) == 0, "データの内容が一致しない");

	xor	eax, eax
	test	ecx, ecx
	push	OFFSET ??_C@_0BJ@JGINKGIA@?$IDf?$IB?$FL?$ID?$FO?$IC?L?$JD?$OA?$JHe?$IC?$KK?$II?j?$JCv?$IC?$LF?$IC?H?$IC?$KC@
	sete	al
	push	eax
	push	5
	push	DWORD PTR _no$GSCopy$1$[ebp]
	push	OFFSET ??_C@_0BK@JKLCEDKM@PMC_BitwiseOr_X_X?5?$CI?$CFd?4?$CFd?$CJ@
	call	_FormatTestLabel
	add	esp, 12					; 0000000cH
	push	eax
	push	ebx
	call	_TEST_Assert
	add	esp, 16					; 00000010H

; 92   :     if (w_result == PMC_STATUS_OK)

	cmp	DWORD PTR _w_result$1$[ebp], 0
	jne	SHORT $LN2@TEST_PMC_B

; 93   :         ep->PMC_Dispose(w);

	push	DWORD PTR _w$[ebp]
	mov	eax, DWORD PTR [edi+20]
	call	eax
$LN2@TEST_PMC_B:

; 94   :     if (v_result == PMC_STATUS_OK)

	cmp	DWORD PTR _v_result$1$[ebp], 0
	jne	SHORT $LN3@TEST_PMC_B

; 95   :         ep->PMC_Dispose(v);

	push	DWORD PTR _v$[ebp]
	mov	eax, DWORD PTR [edi+20]
	call	eax
$LN3@TEST_PMC_B:

; 96   :     if (u_result == PMC_STATUS_OK)

	cmp	DWORD PTR _u_result$1$[ebp], 0
	jne	SHORT $LN4@TEST_PMC_B

; 97   :         ep->PMC_Dispose(u);

	push	DWORD PTR _u$[ebp]
	mov	eax, DWORD PTR [edi+20]
	call	eax
$LN4@TEST_PMC_B:

; 98   : }

	mov	ecx, DWORD PTR __$ArrayPad$[ebp]
	pop	edi
	pop	esi
	xor	ecx, ebp
	pop	ebx
	call	@__security_check_cookie@4
	mov	esp, ebp
	pop	ebp
	ret	0
_TEST_PMC_BitwiseOr_X_X ENDP
_TEXT	ENDS
; Function compile flags: /Ogtp
; File z:\sources\lunor\repos\rougemeilland\palmtree.math.core.implements\palmtree.math.core.implements\test_op_bitwiseor.c
; File z:\sources\lunor\repos\rougemeilland\palmtree.math.core.implements\palmtree.math.core.implements\pmc_debug.h
; File z:\sources\lunor\repos\rougemeilland\palmtree.math.core.implements\palmtree.math.core.implements\test_op_bitwiseor.c
; File z:\sources\lunor\repos\rougemeilland\palmtree.math.core.implements\palmtree.math.core.implements\pmc_debug.h
; File z:\sources\lunor\repos\rougemeilland\palmtree.math.core.implements\palmtree.math.core.implements\test_op_bitwiseor.c
;	COMDAT _TEST_PMC_BitwiseOr_X_L
_TEXT	SEGMENT
_actual_w_buf_size$ = -284				; size = 4
_u$ = -280						; size = 4
_w$ = -276						; size = 4
_w_result$1$ = -272					; size = 4
_env$GSCopy$1$ = -268					; size = 4
_no$GSCopy$1$ = -264					; size = 4
_actual_w_buf$ = -260					; size = 256
__$ArrayPad$ = -4					; size = 4
_env$ = 8						; size = 4
_ep$ = 12						; size = 4
_no$ = 16						; size = 4
_u_buf$ = 20						; size = 4
_u_buf_size$ = 24					; size = 4
_v$ = 28						; size = 8
_desired_w_buf$ = 36					; size = 4
_desired_w_buf_size$ = 40				; size = 4
_TEST_PMC_BitwiseOr_X_L PROC				; COMDAT

; 58   : {

	push	ebp
	mov	ebp, esp
	sub	esp, 284				; 0000011cH
	mov	eax, DWORD PTR ___security_cookie
	xor	eax, ebp
	mov	DWORD PTR __$ArrayPad$[ebp], eax
	mov	eax, DWORD PTR _no$[ebp]

; 59   :     HANDLE u;
; 60   :     HANDLE w;
; 61   :     unsigned char actual_w_buf[256];
; 62   :     size_t actual_w_buf_size;
; 63   :     PMC_STATUS_CODE result;
; 64   :     PMC_STATUS_CODE u_result;
; 65   :     PMC_STATUS_CODE w_result;
; 66   :     TEST_Assert(env, FormatTestLabel("PMC_BitwiseOr_X_L (%d.%d)", no, 1), (u_result = ep->PMC_From_B(u_buf, u_buf_size, &u)) == PMC_STATUS_OK, FormatTestMesssage("PMC_From_Bの復帰コードが期待通りではない(%d)", u_result));

	lea	ecx, DWORD PTR _u$[ebp]
	push	ebx
	push	esi
	mov	esi, DWORD PTR _env$[ebp]
	push	edi
	mov	edi, DWORD PTR _ep$[ebp]
	push	ecx
	push	DWORD PTR _u_buf_size$[ebp]
	mov	DWORD PTR _no$GSCopy$1$[ebp], eax
	mov	eax, DWORD PTR _u_buf$[ebp]
	push	eax
	mov	eax, DWORD PTR [edi+16]
	mov	DWORD PTR _env$GSCopy$1$[ebp], esi
	call	eax
	mov	ebx, eax
	push	ebx
	push	OFFSET ??_C@_0CN@LDAEIIBE@PMC_From_B?$IC?L?$JF?$JM?$ILA?$IDR?$IB?$FL?$IDh?$IC?$KK?$IK?z?$JB?R?$JC?J?$IC@
	call	_FormatTestMesssage
	add	esp, 8
	xor	ecx, ecx
	test	ebx, ebx
	sete	cl
	push	eax
	push	ecx
	push	1
	push	DWORD PTR _no$GSCopy$1$[ebp]
	push	OFFSET ??_C@_0BK@LEPHGCDO@PMC_BitwiseOr_X_L?5?$CI?$CFd?4?$CFd?$CJ@
	call	_FormatTestLabel
	add	esp, 12					; 0000000cH
	push	eax
	push	esi
	call	_TEST_Assert
	add	esp, 16					; 00000010H

; 67   :     TEST_Assert(env, FormatTestLabel("PMC_BitwiseOr_X_L (%d.%d)", no, 2), (w_result = ep->PMC_BitwiseOr_X_L(u, v, &w)) == PMC_STATUS_OK, FormatTestMesssage("PMC_BitwiseOr_X_Lの復帰コードが期待通りではない(%d)", w_result));

	lea	eax, DWORD PTR _w$[ebp]
	push	eax
	push	DWORD PTR _v$[ebp+4]
	mov	eax, DWORD PTR [edi+116]
	push	DWORD PTR _v$[ebp]
	push	DWORD PTR _u$[ebp]
	call	eax
	push	eax
	push	OFFSET ??_C@_0DE@FLFFDAL@PMC_BitwiseOr_X_L?$IC?L?$JF?$JM?$ILA?$IDR?$IB?$FL?$IDh?$IC?$KK@
	mov	DWORD PTR _w_result$1$[ebp], eax
	call	_FormatTestMesssage
	add	esp, 8
	xor	ecx, ecx
	cmp	DWORD PTR _w_result$1$[ebp], ecx
	sete	cl
	push	eax
	push	ecx
	push	2
	push	DWORD PTR _no$GSCopy$1$[ebp]
	push	OFFSET ??_C@_0BK@LEPHGCDO@PMC_BitwiseOr_X_L?5?$CI?$CFd?4?$CFd?$CJ@
	call	_FormatTestLabel
	add	esp, 12					; 0000000cH
	push	eax
	push	esi
	call	_TEST_Assert
	add	esp, 16					; 00000010H

; 68   :     TEST_Assert(env, FormatTestLabel("PMC_BitwiseOr_X_X (%d.%d)", no, 3), (result = ep->PMC_To_X_B(w, actual_w_buf, sizeof(actual_w_buf), &actual_w_buf_size)) == PMC_STATUS_OK, FormatTestMesssage("PMC_To_X_Bの復帰コードが期待通りではない(%d)", result));

	lea	eax, DWORD PTR _actual_w_buf_size$[ebp]
	push	eax
	push	256					; 00000100H
	lea	eax, DWORD PTR _actual_w_buf$[ebp]
	push	eax
	push	DWORD PTR _w$[ebp]
	mov	eax, DWORD PTR [edi+32]
	call	eax
	mov	esi, eax
	push	esi
	push	OFFSET ??_C@_0CN@JELPCGPD@PMC_To_X_B?$IC?L?$JF?$JM?$ILA?$IDR?$IB?$FL?$IDh?$IC?$KK?$IK?z?$JB?R?$JC?J?$IC@
	call	_FormatTestMesssage
	add	esp, 8
	xor	ecx, ecx
	test	esi, esi
	sete	cl
	push	eax
	push	ecx
	push	3
	push	DWORD PTR _no$GSCopy$1$[ebp]
	push	OFFSET ??_C@_0BK@JKLCEDKM@PMC_BitwiseOr_X_X?5?$CI?$CFd?4?$CFd?$CJ@
	call	_FormatTestLabel
	add	esp, 12					; 0000000cH
	push	eax
	push	DWORD PTR _env$GSCopy$1$[ebp]
	call	_TEST_Assert

; 69   :     TEST_Assert(env, FormatTestLabel("PMC_BitwiseOr_X_X (%d.%d)", no, 4), _EQUALS_MEMORY(actual_w_buf, actual_w_buf_size, desired_w_buf, desired_w_buf_size) == 0, "データの内容が一致しない");

	mov	edx, DWORD PTR _actual_w_buf_size$[ebp]
	add	esp, 16					; 00000010H
	mov	eax, DWORD PTR _desired_w_buf$[ebp]
	cmp	edx, DWORD PTR _desired_w_buf_size$[ebp]
; File z:\sources\lunor\repos\rougemeilland\palmtree.math.core.implements\palmtree.math.core.implements\pmc_debug.h

; 103  :     if (count1 != count2)

	je	SHORT $LN11@TEST_PMC_B
$LN12@TEST_PMC_B:
; File z:\sources\lunor\repos\rougemeilland\palmtree.math.core.implements\palmtree.math.core.implements\test_op_bitwiseor.c

; 69   :     TEST_Assert(env, FormatTestLabel("PMC_BitwiseOr_X_X (%d.%d)", no, 4), _EQUALS_MEMORY(actual_w_buf, actual_w_buf_size, desired_w_buf, desired_w_buf_size) == 0, "データの内容が一致しない");

	or	ecx, -1
	jmp	SHORT $LN5@TEST_PMC_B
$LN11@TEST_PMC_B:
; File z:\sources\lunor\repos\rougemeilland\palmtree.math.core.implements\palmtree.math.core.implements\pmc_debug.h

; 105  :     while (count1 > 0)

	test	edx, edx
	je	SHORT $LN7@TEST_PMC_B
	lea	esi, DWORD PTR _actual_w_buf$[ebp]
	sub	esi, eax
$LL6@TEST_PMC_B:

; 106  :     {
; 107  :         if (*buffer1 != *buffer2)

	mov	cl, BYTE PTR [esi+eax]
	cmp	cl, BYTE PTR [eax]
	jne	SHORT $LN12@TEST_PMC_B

; 108  :             return (-1);
; 109  :         ++buffer1;
; 110  :         ++buffer2;

	inc	eax

; 111  :         --count1;

	sub	edx, 1
	jne	SHORT $LL6@TEST_PMC_B
$LN7@TEST_PMC_B:

; 112  :     }
; 113  :     return (0);

	xor	ecx, ecx
$LN5@TEST_PMC_B:
; File z:\sources\lunor\repos\rougemeilland\palmtree.math.core.implements\palmtree.math.core.implements\test_op_bitwiseor.c

; 69   :     TEST_Assert(env, FormatTestLabel("PMC_BitwiseOr_X_X (%d.%d)", no, 4), _EQUALS_MEMORY(actual_w_buf, actual_w_buf_size, desired_w_buf, desired_w_buf_size) == 0, "データの内容が一致しない");

	xor	eax, eax
	test	ecx, ecx
	push	OFFSET ??_C@_0BJ@JGINKGIA@?$IDf?$IB?$FL?$ID?$FO?$IC?L?$JD?$OA?$JHe?$IC?$KK?$II?j?$JCv?$IC?$LF?$IC?H?$IC?$KC@
	sete	al
	push	eax
	push	4
	push	DWORD PTR _no$GSCopy$1$[ebp]
	push	OFFSET ??_C@_0BK@JKLCEDKM@PMC_BitwiseOr_X_X?5?$CI?$CFd?4?$CFd?$CJ@
	call	_FormatTestLabel
	add	esp, 12					; 0000000cH
	push	eax
	push	DWORD PTR _env$GSCopy$1$[ebp]
	call	_TEST_Assert
	add	esp, 16					; 00000010H

; 70   :     if (w_result == PMC_STATUS_OK)

	cmp	DWORD PTR _w_result$1$[ebp], 0
	jne	SHORT $LN2@TEST_PMC_B

; 71   :         ep->PMC_Dispose(w);

	push	DWORD PTR _w$[ebp]
	mov	eax, DWORD PTR [edi+20]
	call	eax
$LN2@TEST_PMC_B:

; 72   :     if (u_result == PMC_STATUS_OK)

	test	ebx, ebx
	jne	SHORT $LN3@TEST_PMC_B

; 73   :         ep->PMC_Dispose(u);

	push	DWORD PTR _u$[ebp]
	mov	eax, DWORD PTR [edi+20]
	call	eax
$LN3@TEST_PMC_B:

; 74   : }

	mov	ecx, DWORD PTR __$ArrayPad$[ebp]
	pop	edi
	pop	esi
	xor	ecx, ebp
	pop	ebx
	call	@__security_check_cookie@4
	mov	esp, ebp
	pop	ebp
	ret	0
_TEST_PMC_BitwiseOr_X_L ENDP
_TEXT	ENDS
; Function compile flags: /Ogtp
; File z:\sources\lunor\repos\rougemeilland\palmtree.math.core.implements\palmtree.math.core.implements\test_op_bitwiseor.c
; File z:\sources\lunor\repos\rougemeilland\palmtree.math.core.implements\palmtree.math.core.implements\pmc_debug.h
; File z:\sources\lunor\repos\rougemeilland\palmtree.math.core.implements\palmtree.math.core.implements\test_op_bitwiseor.c
; File z:\sources\lunor\repos\rougemeilland\palmtree.math.core.implements\palmtree.math.core.implements\pmc_debug.h
; File z:\sources\lunor\repos\rougemeilland\palmtree.math.core.implements\palmtree.math.core.implements\test_op_bitwiseor.c
;	COMDAT _TEST_PMC_BitwiseOr_X_I
_TEXT	SEGMENT
_actual_w_buf_size$ = -284				; size = 4
_u$ = -280						; size = 4
_w$ = -276						; size = 4
_w_result$1$ = -272					; size = 4
_env$GSCopy$1$ = -268					; size = 4
_no$GSCopy$1$ = -264					; size = 4
_actual_w_buf$ = -260					; size = 256
__$ArrayPad$ = -4					; size = 4
_env$ = 8						; size = 4
_ep$ = 12						; size = 4
_no$ = 16						; size = 4
_u_buf$ = 20						; size = 4
_u_buf_size$ = 24					; size = 4
_v$ = 28						; size = 4
_desired_w_buf$ = 32					; size = 4
_desired_w_buf_size$ = 36				; size = 4
_TEST_PMC_BitwiseOr_X_I PROC				; COMDAT

; 39   : {

	push	ebp
	mov	ebp, esp
	sub	esp, 284				; 0000011cH
	mov	eax, DWORD PTR ___security_cookie
	xor	eax, ebp
	mov	DWORD PTR __$ArrayPad$[ebp], eax
	mov	eax, DWORD PTR _no$[ebp]

; 40   :     HANDLE u;
; 41   :     HANDLE w;
; 42   :     unsigned char actual_w_buf[256];
; 43   :     size_t actual_w_buf_size;
; 44   :     PMC_STATUS_CODE result;
; 45   :     PMC_STATUS_CODE u_result;
; 46   :     PMC_STATUS_CODE w_result;
; 47   :     TEST_Assert(env, FormatTestLabel("PMC_BitwiseOr_X_I (%d.%d)", no, 1), (u_result = ep->PMC_From_B(u_buf, u_buf_size, &u)) == PMC_STATUS_OK, FormatTestMesssage("PMC_From_Bの復帰コードが期待通りではない(%d)", u_result));

	lea	ecx, DWORD PTR _u$[ebp]
	push	ebx
	push	esi
	mov	esi, DWORD PTR _env$[ebp]
	push	edi
	mov	edi, DWORD PTR _ep$[ebp]
	push	ecx
	push	DWORD PTR _u_buf_size$[ebp]
	mov	DWORD PTR _no$GSCopy$1$[ebp], eax
	mov	eax, DWORD PTR _u_buf$[ebp]
	push	eax
	mov	eax, DWORD PTR [edi+16]
	mov	DWORD PTR _env$GSCopy$1$[ebp], esi
	call	eax
	mov	ebx, eax
	push	ebx
	push	OFFSET ??_C@_0CN@LDAEIIBE@PMC_From_B?$IC?L?$JF?$JM?$ILA?$IDR?$IB?$FL?$IDh?$IC?$KK?$IK?z?$JB?R?$JC?J?$IC@
	call	_FormatTestMesssage
	add	esp, 8
	xor	ecx, ecx
	test	ebx, ebx
	sete	cl
	push	eax
	push	ecx
	push	1
	push	DWORD PTR _no$GSCopy$1$[ebp]
	push	OFFSET ??_C@_0BK@FCNOKJHK@PMC_BitwiseOr_X_I?5?$CI?$CFd?4?$CFd?$CJ@
	call	_FormatTestLabel
	add	esp, 12					; 0000000cH
	push	eax
	push	esi
	call	_TEST_Assert
	add	esp, 16					; 00000010H

; 48   :     TEST_Assert(env, FormatTestLabel("PMC_BitwiseOr_X_I (%d.%d)", no, 2), (w_result = ep->PMC_BitwiseOr_X_I(u, v, &w)) == PMC_STATUS_OK, FormatTestMesssage("PMC_BitwiseOr_X_Iの復帰コードが期待通りではない(%d)", w_result));

	lea	eax, DWORD PTR _w$[ebp]
	push	eax
	push	DWORD PTR _v$[ebp]
	mov	eax, DWORD PTR [edi+112]
	push	DWORD PTR _u$[ebp]
	call	eax
	push	eax
	push	OFFSET ??_C@_0DE@KIJFNPAJ@PMC_BitwiseOr_X_I?$IC?L?$JF?$JM?$ILA?$IDR?$IB?$FL?$IDh?$IC?$KK@
	mov	DWORD PTR _w_result$1$[ebp], eax
	call	_FormatTestMesssage
	add	esp, 8
	xor	ecx, ecx
	cmp	DWORD PTR _w_result$1$[ebp], ecx
	sete	cl
	push	eax
	push	ecx
	push	2
	push	DWORD PTR _no$GSCopy$1$[ebp]
	push	OFFSET ??_C@_0BK@FCNOKJHK@PMC_BitwiseOr_X_I?5?$CI?$CFd?4?$CFd?$CJ@
	call	_FormatTestLabel
	add	esp, 12					; 0000000cH
	push	eax
	push	esi
	call	_TEST_Assert
	add	esp, 16					; 00000010H

; 49   :     TEST_Assert(env, FormatTestLabel("PMC_BitwiseOr_X_X (%d.%d)", no, 3), (result = ep->PMC_To_X_B(w, actual_w_buf, sizeof(actual_w_buf), &actual_w_buf_size)) == PMC_STATUS_OK, FormatTestMesssage("PMC_To_X_Bの復帰コードが期待通りではない(%d)", result));

	lea	eax, DWORD PTR _actual_w_buf_size$[ebp]
	push	eax
	push	256					; 00000100H
	lea	eax, DWORD PTR _actual_w_buf$[ebp]
	push	eax
	push	DWORD PTR _w$[ebp]
	mov	eax, DWORD PTR [edi+32]
	call	eax
	mov	esi, eax
	push	esi
	push	OFFSET ??_C@_0CN@JELPCGPD@PMC_To_X_B?$IC?L?$JF?$JM?$ILA?$IDR?$IB?$FL?$IDh?$IC?$KK?$IK?z?$JB?R?$JC?J?$IC@
	call	_FormatTestMesssage
	add	esp, 8
	xor	ecx, ecx
	test	esi, esi
	sete	cl
	push	eax
	push	ecx
	push	3
	push	DWORD PTR _no$GSCopy$1$[ebp]
	push	OFFSET ??_C@_0BK@JKLCEDKM@PMC_BitwiseOr_X_X?5?$CI?$CFd?4?$CFd?$CJ@
	call	_FormatTestLabel
	add	esp, 12					; 0000000cH
	push	eax
	push	DWORD PTR _env$GSCopy$1$[ebp]
	call	_TEST_Assert

; 50   :     TEST_Assert(env, FormatTestLabel("PMC_BitwiseOr_X_X (%d.%d)", no, 4), _EQUALS_MEMORY(actual_w_buf, actual_w_buf_size, desired_w_buf, desired_w_buf_size) == 0, "データの内容が一致しない");

	mov	edx, DWORD PTR _actual_w_buf_size$[ebp]
	add	esp, 16					; 00000010H
	mov	eax, DWORD PTR _desired_w_buf$[ebp]
	cmp	edx, DWORD PTR _desired_w_buf_size$[ebp]
; File z:\sources\lunor\repos\rougemeilland\palmtree.math.core.implements\palmtree.math.core.implements\pmc_debug.h

; 103  :     if (count1 != count2)

	je	SHORT $LN11@TEST_PMC_B
$LN12@TEST_PMC_B:
; File z:\sources\lunor\repos\rougemeilland\palmtree.math.core.implements\palmtree.math.core.implements\test_op_bitwiseor.c

; 50   :     TEST_Assert(env, FormatTestLabel("PMC_BitwiseOr_X_X (%d.%d)", no, 4), _EQUALS_MEMORY(actual_w_buf, actual_w_buf_size, desired_w_buf, desired_w_buf_size) == 0, "データの内容が一致しない");

	or	ecx, -1
	jmp	SHORT $LN5@TEST_PMC_B
$LN11@TEST_PMC_B:
; File z:\sources\lunor\repos\rougemeilland\palmtree.math.core.implements\palmtree.math.core.implements\pmc_debug.h

; 105  :     while (count1 > 0)

	test	edx, edx
	je	SHORT $LN7@TEST_PMC_B
	lea	esi, DWORD PTR _actual_w_buf$[ebp]
	sub	esi, eax
$LL6@TEST_PMC_B:

; 106  :     {
; 107  :         if (*buffer1 != *buffer2)

	mov	cl, BYTE PTR [esi+eax]
	cmp	cl, BYTE PTR [eax]
	jne	SHORT $LN12@TEST_PMC_B

; 108  :             return (-1);
; 109  :         ++buffer1;
; 110  :         ++buffer2;

	inc	eax

; 111  :         --count1;

	sub	edx, 1
	jne	SHORT $LL6@TEST_PMC_B
$LN7@TEST_PMC_B:

; 112  :     }
; 113  :     return (0);

	xor	ecx, ecx
$LN5@TEST_PMC_B:
; File z:\sources\lunor\repos\rougemeilland\palmtree.math.core.implements\palmtree.math.core.implements\test_op_bitwiseor.c

; 50   :     TEST_Assert(env, FormatTestLabel("PMC_BitwiseOr_X_X (%d.%d)", no, 4), _EQUALS_MEMORY(actual_w_buf, actual_w_buf_size, desired_w_buf, desired_w_buf_size) == 0, "データの内容が一致しない");

	xor	eax, eax
	test	ecx, ecx
	push	OFFSET ??_C@_0BJ@JGINKGIA@?$IDf?$IB?$FL?$ID?$FO?$IC?L?$JD?$OA?$JHe?$IC?$KK?$II?j?$JCv?$IC?$LF?$IC?H?$IC?$KC@
	sete	al
	push	eax
	push	4
	push	DWORD PTR _no$GSCopy$1$[ebp]
	push	OFFSET ??_C@_0BK@JKLCEDKM@PMC_BitwiseOr_X_X?5?$CI?$CFd?4?$CFd?$CJ@
	call	_FormatTestLabel
	add	esp, 12					; 0000000cH
	push	eax
	push	DWORD PTR _env$GSCopy$1$[ebp]
	call	_TEST_Assert
	add	esp, 16					; 00000010H

; 51   :     if (w_result == PMC_STATUS_OK)

	cmp	DWORD PTR _w_result$1$[ebp], 0
	jne	SHORT $LN2@TEST_PMC_B

; 52   :         ep->PMC_Dispose(w);

	push	DWORD PTR _w$[ebp]
	mov	eax, DWORD PTR [edi+20]
	call	eax
$LN2@TEST_PMC_B:

; 53   :     if (u_result == PMC_STATUS_OK)

	test	ebx, ebx
	jne	SHORT $LN3@TEST_PMC_B

; 54   :         ep->PMC_Dispose(u);

	push	DWORD PTR _u$[ebp]
	mov	eax, DWORD PTR [edi+20]
	call	eax
$LN3@TEST_PMC_B:

; 55   : }

	mov	ecx, DWORD PTR __$ArrayPad$[ebp]
	pop	edi
	pop	esi
	xor	ecx, ebp
	pop	ebx
	call	@__security_check_cookie@4
	mov	esp, ebp
	pop	ebp
	ret	0
_TEST_PMC_BitwiseOr_X_I ENDP
_TEXT	ENDS
END
