; Listing generated by Microsoft (R) Optimizing Compiler Version 19.16.27026.1 

	TITLE	Z:\Sources\Lunor\Repos\rougemeilland\Palmtree.Math.Core.Implements\Palmtree.Math.Core.Implements\TEST_op_ParseX.c
	.686P
	.XMM
	include listing.inc
	.model	flat

INCLUDELIB MSVCRT
INCLUDELIB OLDNAMES

PUBLIC	_TEST_PMC_ParseX
PUBLIC	??_C@_13DEFPDAGF@?$AA?0@			; `string'
PUBLIC	??_C@_01EKENIIDA@3@				; `string'
PUBLIC	??_C@_13JOFGPIOO@?$AA?4@			; `string'
PUBLIC	??_C@_13KJIIAINM@?$AA?$CL@			; `string'
PUBLIC	??_C@_13IMODFHAA@?$AA?9@			; `string'
PUBLIC	??_C@_0CP@JCNEMHLF@PMC_TryParse?$IC?L?$JF?$JM?$ILA?$IDR?$IB?$FL?$IDh?$IC?$KK?$IK?z?$JB?R?$JC@ ; `string'
PUBLIC	??_C@_0BD@KDIELBDO@PMC_ParseX?5?$CI?$CFd?4?$CFd?$CJ@ ; `string'
PUBLIC	??_C@_0CN@JELPCGPD@PMC_To_X_B?$IC?L?$JF?$JM?$ILA?$IDR?$IB?$FL?$IDh?$IC?$KK?$IK?z?$JB?R?$JC?J?$IC@ ; `string'
PUBLIC	??_C@_0BJ@JGINKGIA@?$IDf?$IB?$FL?$ID?$FO?$IC?L?$JD?$OA?$JHe?$IC?$KK?$II?j?$JCv?$IC?$LF?$IC?H?$IC?$KC@ ; `string'
EXTRN	__imp__lstrcpyA@8:PROC
EXTRN	__imp__lstrcpyW@8:PROC
EXTRN	_TEST_Assert:PROC
EXTRN	_FormatTestLabel:PROC
EXTRN	_FormatTestMesssage:PROC
EXTRN	@__security_check_cookie@4:PROC
EXTRN	___security_cookie:DWORD
_BSS	SEGMENT
?actual_buf@?1??TEST_PMC_ParseX@@9@9 DB 0100H DUP (?)	; `TEST_PMC_ParseX'::`2'::actual_buf
?actual_buf_size@?1??TEST_PMC_ParseX@@9@9 DD 01H DUP (?) ; `TEST_PMC_ParseX'::`2'::actual_buf_size
_BSS	ENDS
;	COMDAT ??_C@_0BJ@JGINKGIA@?$IDf?$IB?$FL?$ID?$FO?$IC?L?$JD?$OA?$JHe?$IC?$KK?$II?j?$JCv?$IC?$LF?$IC?H?$IC?$KC@
CONST	SEGMENT
??_C@_0BJ@JGINKGIA@?$IDf?$IB?$FL?$ID?$FO?$IC?L?$JD?$OA?$JHe?$IC?$KK?$II?j?$JCv?$IC?$LF?$IC?H?$IC?$KC@ DB 083H
	DB	'f', 081H, '[', 083H, '^', 082H, 0ccH, 093H, 0e0H, 097H, 'e', 082H
	DB	0aaH, 088H, 0eaH, 092H, 'v', 082H, 0b5H, 082H, 0c8H, 082H, 0a2H
	DB	00H						; `string'
CONST	ENDS
;	COMDAT ??_C@_0CN@JELPCGPD@PMC_To_X_B?$IC?L?$JF?$JM?$ILA?$IDR?$IB?$FL?$IDh?$IC?$KK?$IK?z?$JB?R?$JC?J?$IC@
CONST	SEGMENT
??_C@_0CN@JELPCGPD@PMC_To_X_B?$IC?L?$JF?$JM?$ILA?$IDR?$IB?$FL?$IDh?$IC?$KK?$IK?z?$JB?R?$JC?J?$IC@ DB 'P'
	DB	'MC_To_X_B', 082H, 0ccH, 095H, 09cH, 08bH, 'A', 083H, 'R', 081H
	DB	'[', 083H, 'h', 082H, 0aaH, 08aH, 0faH, 091H, 0d2H, 092H, 0caH
	DB	082H, 0e8H, 082H, 0c5H, 082H, 0cdH, 082H, 0c8H, 082H, 0a2H, '('
	DB	'%d)', 00H					; `string'
CONST	ENDS
;	COMDAT ??_C@_0BD@KDIELBDO@PMC_ParseX?5?$CI?$CFd?4?$CFd?$CJ@
CONST	SEGMENT
??_C@_0BD@KDIELBDO@PMC_ParseX?5?$CI?$CFd?4?$CFd?$CJ@ DB 'PMC_ParseX (%d.%'
	DB	'd)', 00H					; `string'
CONST	ENDS
;	COMDAT ??_C@_0CP@JCNEMHLF@PMC_TryParse?$IC?L?$JF?$JM?$ILA?$IDR?$IB?$FL?$IDh?$IC?$KK?$IK?z?$JB?R?$JC@
CONST	SEGMENT
??_C@_0CP@JCNEMHLF@PMC_TryParse?$IC?L?$JF?$JM?$ILA?$IDR?$IB?$FL?$IDh?$IC?$KK?$IK?z?$JB?R?$JC@ DB 'P'
	DB	'MC_TryParse', 082H, 0ccH, 095H, 09cH, 08bH, 'A', 083H, 'R', 081H
	DB	'[', 083H, 'h', 082H, 0aaH, 08aH, 0faH, 091H, 0d2H, 092H, 0caH
	DB	082H, 0e8H, 082H, 0c5H, 082H, 0cdH, 082H, 0c8H, 082H, 0a2H, '('
	DB	'%d)', 00H					; `string'
CONST	ENDS
;	COMDAT ??_C@_13IMODFHAA@?$AA?9@
CONST	SEGMENT
??_C@_13IMODFHAA@?$AA?9@ DB '-', 00H, 00H, 00H		; `string'
CONST	ENDS
;	COMDAT ??_C@_13KJIIAINM@?$AA?$CL@
CONST	SEGMENT
??_C@_13KJIIAINM@?$AA?$CL@ DB '+', 00H, 00H, 00H	; `string'
CONST	ENDS
;	COMDAT ??_C@_13JOFGPIOO@?$AA?4@
CONST	SEGMENT
??_C@_13JOFGPIOO@?$AA?4@ DB '.', 00H, 00H, 00H		; `string'
CONST	ENDS
;	COMDAT ??_C@_01EKENIIDA@3@
CONST	SEGMENT
??_C@_01EKENIIDA@3@ DB '3', 00H				; `string'
CONST	ENDS
;	COMDAT ??_C@_13DEFPDAGF@?$AA?0@
CONST	SEGMENT
??_C@_13DEFPDAGF@?$AA?0@ DB ',', 00H, 00H, 00H		; `string'
CONST	ENDS
; Function compile flags: /Ogtp
; File z:\sources\lunor\repos\rougemeilland\palmtree.math.core.implements\palmtree.math.core.implements\pmc_debug.h
;	COMDAT __EQUALS_MEMORY
_TEXT	SEGMENT
_buffer1$ = 8						; size = 4
_count1$ = 12						; size = 4
_buffer2$ = 16						; size = 4
_count2$ = 20						; size = 4
__EQUALS_MEMORY PROC					; COMDAT

; 102  : {

	push	ebp
	mov	ebp, esp

; 103  :     if (count1 != count2)

	mov	edx, DWORD PTR _count1$[ebp]
	push	esi
	cmp	edx, DWORD PTR _count2$[ebp]
	jne	SHORT $LN8@EQUALS_MEM

; 104  :         return (-1);
; 105  :     while (count1 > 0)

	test	edx, edx
	je	SHORT $LN3@EQUALS_MEM
	mov	esi, DWORD PTR _buffer1$[ebp]
	mov	eax, DWORD PTR _buffer2$[ebp]
	sub	esi, eax
$LL2@EQUALS_MEM:

; 106  :     {
; 107  :         if (*buffer1 != *buffer2)

	mov	cl, BYTE PTR [esi+eax]
	cmp	cl, BYTE PTR [eax]
	jne	SHORT $LN8@EQUALS_MEM

; 109  :         ++buffer1;
; 110  :         ++buffer2;

	inc	eax

; 111  :         --count1;

	sub	edx, 1
	jne	SHORT $LL2@EQUALS_MEM
$LN3@EQUALS_MEM:

; 112  :     }
; 113  :     return (0);

	xor	eax, eax
	pop	esi

; 114  : }

	pop	ebp
	ret	0
$LN8@EQUALS_MEM:

; 108  :             return (-1);

	or	eax, -1
	pop	esi

; 114  : }

	pop	ebp
	ret	0
__EQUALS_MEMORY ENDP
_TEXT	ENDS
; Function compile flags: /Ogtp
; File z:\sources\lunor\repos\rougemeilland\palmtree.math.core.implements\palmtree.math.core.implements\test_op_parsex.c
; File z:\sources\lunor\repos\rougemeilland\palmtree.math.core.implements\palmtree.math.core.implements\pmc_debug.h
; File z:\sources\lunor\repos\rougemeilland\palmtree.math.core.implements\palmtree.math.core.implements\test_op_parsex.c
; File z:\sources\lunor\repos\rougemeilland\palmtree.math.core.implements\palmtree.math.core.implements\pmc_debug.h
; File z:\sources\lunor\repos\rougemeilland\palmtree.math.core.implements\palmtree.math.core.implements\test_op_parsex.c
;	COMDAT _TEST_PMC_ParseX
_TEXT	SEGMENT
_x_result$1$ = -60					; size = 4
_env$GSCopy$1$ = -56					; size = 4
_x$ = -52						; size = 4
_no$GSCopy$1$ = -48					; size = 4
_opt$ = -44						; size = 40
__$ArrayPad$ = -4					; size = 4
_env$ = 8						; size = 4
_ep$ = 12						; size = 4
_no$ = 16						; size = 4
_str$ = 20						; size = 4
_styles$ = 24						; size = 4
_desired_result_code$ = 28				; size = 4
_desired_buf$ = 32					; size = 4
_desired_buf_size$ = 36					; size = 4
_TEST_PMC_ParseX PROC					; COMDAT

; 39   : {

	push	ebp
	mov	ebp, esp
	sub	esp, 60					; 0000003cH
	mov	eax, DWORD PTR ___security_cookie
	xor	eax, ebp
	mov	DWORD PTR __$ArrayPad$[ebp], eax
	mov	eax, DWORD PTR _env$[ebp]
	push	ebx
	mov	ebx, DWORD PTR _ep$[ebp]
	push	esi

; 40   :     HANDLE x;
; 41   :     static unsigned char actual_buf[256];
; 42   :     static size_t actual_buf_size;
; 43   :     PMC_STATUS_CODE result;
; 44   :     PMC_STATUS_CODE x_result;
; 45   :     PMC_NUMBER_FORMAT_OPTION opt;
; 46   :     lstrcpyW(opt.GroupSeparator, L",");

	mov	esi, DWORD PTR __imp__lstrcpyW@8
	push	edi
	mov	edi, DWORD PTR _str$[ebp]
	mov	DWORD PTR _env$GSCopy$1$[ebp], eax
	mov	eax, DWORD PTR _no$[ebp]
	mov	DWORD PTR _no$GSCopy$1$[ebp], eax
	lea	eax, DWORD PTR _opt$[ebp+4]
	push	OFFSET ??_C@_13DEFPDAGF@?$AA?0@
	push	eax
	call	esi

; 47   :     lstrcpy(opt.GroupSizes, "3");

	push	OFFSET ??_C@_01EKENIIDA@3@
	lea	eax, DWORD PTR _opt$[ebp+28]
	push	eax
	call	DWORD PTR __imp__lstrcpyA@8

; 48   :     lstrcpyW(opt.DecimalSeparator, L".");

	push	OFFSET ??_C@_13JOFGPIOO@?$AA?4@
	lea	eax, DWORD PTR _opt$[ebp+10]
	push	eax
	call	esi

; 49   :     opt.DecimalDigits = 2;
; 50   :     lstrcpyW(opt.PositiveSign, L"+");

	push	OFFSET ??_C@_13KJIIAINM@?$AA?$CL@
	lea	eax, DWORD PTR _opt$[ebp+16]
	mov	DWORD PTR _opt$[ebp], 2
	push	eax
	call	esi

; 51   :     lstrcpyW(opt.NegativeSign, L"-");

	push	OFFSET ??_C@_13IMODFHAA@?$AA?9@
	lea	eax, DWORD PTR _opt$[ebp+22]
	push	eax
	call	esi

; 52   :     TEST_Assert(env, FormatTestLabel("PMC_ParseX (%d.%d)", no, 1), (x_result = ep->PMC_TryParse(str, styles, &opt, &x)) == desired_result_code, FormatTestMesssage("PMC_TryParseの復帰コードが期待通りではない(%d)", x_result));

	lea	eax, DWORD PTR _x$[ebp]
	push	eax
	lea	eax, DWORD PTR _opt$[ebp]
	push	eax
	push	DWORD PTR _styles$[ebp]
	mov	eax, DWORD PTR [ebx+164]
	push	edi
	call	eax
	mov	edi, eax
	push	edi
	push	OFFSET ??_C@_0CP@JCNEMHLF@PMC_TryParse?$IC?L?$JF?$JM?$ILA?$IDR?$IB?$FL?$IDh?$IC?$KK?$IK?z?$JB?R?$JC@
	mov	DWORD PTR _x_result$1$[ebp], edi
	call	_FormatTestMesssage
	mov	esi, DWORD PTR _desired_result_code$[ebp]
	add	esp, 8
	xor	ecx, ecx
	cmp	edi, esi
	sete	cl
	push	eax
	push	ecx
	push	1
	push	DWORD PTR _no$GSCopy$1$[ebp]
	push	OFFSET ??_C@_0BD@KDIELBDO@PMC_ParseX?5?$CI?$CFd?4?$CFd?$CJ@
	call	_FormatTestLabel
	mov	edi, DWORD PTR _env$GSCopy$1$[ebp]
	add	esp, 12					; 0000000cH
	push	eax
	push	edi
	call	_TEST_Assert
	add	esp, 16					; 00000010H

; 53   :     if (desired_result_code == PMC_STATUS_OK)

	test	esi, esi
	jne	$LN2@TEST_PMC_P

; 54   :     {
; 55   :         TEST_Assert(env, FormatTestLabel("PMC_ParseX (%d.%d)", no, 2), (result = ep->PMC_To_X_B(x,  actual_buf, sizeof(actual_buf), &actual_buf_size)) == PMC_STATUS_OK, FormatTestMesssage("PMC_To_X_Bの復帰コードが期待通りではない(%d)", result));

	mov	eax, DWORD PTR [ebx+32]
	push	OFFSET ?actual_buf_size@?1??TEST_PMC_ParseX@@9@9
	push	256					; 00000100H
	push	OFFSET ?actual_buf@?1??TEST_PMC_ParseX@@9@9
	push	DWORD PTR _x$[ebp]
	call	eax
	mov	esi, eax
	push	esi
	push	OFFSET ??_C@_0CN@JELPCGPD@PMC_To_X_B?$IC?L?$JF?$JM?$ILA?$IDR?$IB?$FL?$IDh?$IC?$KK?$IK?z?$JB?R?$JC?J?$IC@
	call	_FormatTestMesssage
	add	esp, 8
	xor	ecx, ecx
	test	esi, esi
	sete	cl
	push	eax
	push	ecx
	push	2
	push	DWORD PTR _no$GSCopy$1$[ebp]
	push	OFFSET ??_C@_0BD@KDIELBDO@PMC_ParseX?5?$CI?$CFd?4?$CFd?$CJ@
	call	_FormatTestLabel
	add	esp, 12					; 0000000cH
	push	eax
	push	edi
	call	_TEST_Assert

; 56   :         TEST_Assert(env, FormatTestLabel("PMC_ParseX (%d.%d)", no, 3), _EQUALS_MEMORY(actual_buf, actual_buf_size, desired_buf, desired_buf_size) == 0, "データの内容が一致しない");

	mov	edx, DWORD PTR ?actual_buf_size@?1??TEST_PMC_ParseX@@9@9
	add	esp, 16					; 00000010H
	mov	ecx, DWORD PTR _desired_buf$[ebp]
	cmp	edx, DWORD PTR _desired_buf_size$[ebp]
; File z:\sources\lunor\repos\rougemeilland\palmtree.math.core.implements\palmtree.math.core.implements\pmc_debug.h

; 103  :     if (count1 != count2)

	je	SHORT $LN11@TEST_PMC_P
$LN12@TEST_PMC_P:
; File z:\sources\lunor\repos\rougemeilland\palmtree.math.core.implements\palmtree.math.core.implements\test_op_parsex.c

; 56   :         TEST_Assert(env, FormatTestLabel("PMC_ParseX (%d.%d)", no, 3), _EQUALS_MEMORY(actual_buf, actual_buf_size, desired_buf, desired_buf_size) == 0, "データの内容が一致しない");

	or	ecx, -1
	jmp	SHORT $LN5@TEST_PMC_P
$LN11@TEST_PMC_P:
; File z:\sources\lunor\repos\rougemeilland\palmtree.math.core.implements\palmtree.math.core.implements\pmc_debug.h

; 105  :     while (count1 > 0)

	test	edx, edx
	je	SHORT $LN7@TEST_PMC_P
	mov	esi, OFFSET ?actual_buf@?1??TEST_PMC_ParseX@@9@9
	sub	esi, ecx
$LL6@TEST_PMC_P:

; 106  :     {
; 107  :         if (*buffer1 != *buffer2)

	mov	al, BYTE PTR [esi+ecx]
	cmp	al, BYTE PTR [ecx]
	jne	SHORT $LN12@TEST_PMC_P

; 108  :             return (-1);
; 109  :         ++buffer1;
; 110  :         ++buffer2;

	inc	ecx

; 111  :         --count1;

	sub	edx, 1
	jne	SHORT $LL6@TEST_PMC_P
$LN7@TEST_PMC_P:

; 112  :     }
; 113  :     return (0);

	xor	ecx, ecx
$LN5@TEST_PMC_P:
; File z:\sources\lunor\repos\rougemeilland\palmtree.math.core.implements\palmtree.math.core.implements\test_op_parsex.c

; 56   :         TEST_Assert(env, FormatTestLabel("PMC_ParseX (%d.%d)", no, 3), _EQUALS_MEMORY(actual_buf, actual_buf_size, desired_buf, desired_buf_size) == 0, "データの内容が一致しない");

	xor	eax, eax
	test	ecx, ecx
	push	OFFSET ??_C@_0BJ@JGINKGIA@?$IDf?$IB?$FL?$ID?$FO?$IC?L?$JD?$OA?$JHe?$IC?$KK?$II?j?$JCv?$IC?$LF?$IC?H?$IC?$KC@
	sete	al
	push	eax
	push	3
	push	DWORD PTR _no$GSCopy$1$[ebp]
	push	OFFSET ??_C@_0BD@KDIELBDO@PMC_ParseX?5?$CI?$CFd?4?$CFd?$CJ@
	call	_FormatTestLabel
	add	esp, 12					; 0000000cH
	push	eax
	push	edi
	call	_TEST_Assert
	add	esp, 16					; 00000010H
$LN2@TEST_PMC_P:

; 57   :     }
; 58   :     if (x_result == PMC_STATUS_OK)

	cmp	DWORD PTR _x_result$1$[ebp], 0
	jne	SHORT $LN3@TEST_PMC_P

; 59   :         ep->PMC_Dispose(x);

	push	DWORD PTR _x$[ebp]
	mov	eax, DWORD PTR [ebx+20]
	call	eax
$LN3@TEST_PMC_P:

; 60   : }

	mov	ecx, DWORD PTR __$ArrayPad$[ebp]
	pop	edi
	pop	esi
	xor	ecx, ebp
	pop	ebx
	call	@__security_check_cookie@4
	mov	esp, ebp
	pop	ebp
	ret	0
_TEST_PMC_ParseX ENDP
_TEXT	ENDS
END
