; Listing generated by Microsoft (R) Optimizing Compiler Version 19.16.27026.1 

include listing.inc

INCLUDELIB MSVCRTD
INCLUDELIB OLDNAMES

msvcjmc	SEGMENT
__A73354DD_stdlib@h DB 01H
__188180DA_corecrt_math@h DB 01H
__D23EE329_cstdlib DB 01H
__6BC0FD35_vcruntime_new@h DB 01H
__5ECFF36E_type_traits DB 01H
__331E732B_malloc@h DB 01H
__9BB4E194_vcruntime_exception@h DB 01H
__7949CB39_exception DB 01H
__C42C8B73_vcruntime_typeinfo@h DB 01H
__3736D25A_xtgmath@h DB 01H
__824D367B_cmath DB 01H
__2CC6E67D_corecrt_stdio_config@h DB 01H
__05476D76_corecrt_wstdio@h DB 01H
__A452D4A0_stdio@h DB 01H
__4384A2D9_corecrt_memcpy_s@h DB 01H
__2088847F_corecrt_memory@h DB 01H
__4E51A221_corecrt_wstring@h DB 01H
__2140C079_string@h DB 01H
__41381B41_corecrt_wconio@h DB 01H
__F0CC4AC4_corecrt_wio@h DB 01H
__C0802A2B_corecrt_wtime@h DB 01H
__A40A425D_stat@h DB 01H
__5A74375D_wchar@h DB 01H
__B2D003D7_limits DB 01H
__7E39D651_iosfwd DB 01H
__CDB00636_xutility DB 01H
__C334353D_xatomic0@h DB 01H
__1CE3C767_xmemory0 DB 01H
__F007F164_stdexcept DB 01H
__7B7A869E_ctype@h DB 01H
__A2E616E7_xlocinfo DB 01H
__0E7E0F59_memory DB 01H
__223B5856_xfacet DB 01H
__244BF7CC_xlocale DB 01H
__420D52D3_xcall_once@h DB 01H
__FD5040F3_system_error DB 01H
__9B0361F4_xiosbase DB 01H
__BACC91DB_xlocnum DB 01H
__D1FEDD45_ios DB 01H
__7AAD89C5_string DB 01H
__246E2F3A_tuple DB 01H
__5905A80E_functional DB 01H
__04AA828A_time@h DB 01H
__938589ED_algorithm DB 01H
__4576A284_complex DB 01H
__035EEDC7_valarray DB 01H
__A2C368DB_fstream DB 01H
__3B61EF3D_strstream DB 01H
__91AE84E3_xlocmon DB 01H
__06FBBFF5_xloctime DB 01H
__084700B0_xlocmes DB 01H
__D0767A1C_cpp_standard_headers_indexer@cpp DB 01H
__A593FDF4_locale DB 01H
__FB7583FD_xstring DB 01H
__548B1832_istream DB 01H
__375B2D08_ostream DB 01H
__F2A749D8_streambuf DB 01H
__E53366A2_utility DB 01H
__122CF1B0_xstddef DB 01H
msvcjmc	ENDS
PUBLIC	?__empty_global_delete@@YAXPEAX@Z		; __empty_global_delete
PUBLIC	?__empty_global_delete@@YAXPEAX_K@Z		; __empty_global_delete
PUBLIC	wmemcpy
PUBLIC	??$_Maklocstr@_W@std@@YAPEA_WPEBDPEA_WAEBU_Cvtvec@@@Z ; std::_Maklocstr<wchar_t>
PUBLIC	?_Maklocwcs@std@@YAPEA_WPEB_W@Z			; std::_Maklocwcs
PUBLIC	??$_Getvals@_W@?$time_get@DV?$istreambuf_iterator@DU?$char_traits@D@std@@@std@@@std@@IEAAX_WAEBV_Locinfo@1@@Z ; std::time_get<char,std::istreambuf_iterator<char,std::char_traits<char> > >::_Getvals<wchar_t>
PUBLIC	??$_Getvals@_W@?$time_get@_WV?$istreambuf_iterator@_WU?$char_traits@_W@std@@@std@@@std@@IEAAX_WAEBV_Locinfo@1@@Z ; std::time_get<wchar_t,std::istreambuf_iterator<wchar_t,std::char_traits<wchar_t> > >::_Getvals<wchar_t>
PUBLIC	??$_Maklocstr@D@std@@YAPEADPEBDPEADAEBU_Cvtvec@@@Z ; std::_Maklocstr<char>
PUBLIC	__JustMyCode_Default
PUBLIC	??_C@_0GI@LKBGDILM@c?3?2program?5files?5?$CIx86?$CJ?2microsof@ ; `string'
PUBLIC	?__LINE__Var@?0??_Maklocwcs@std@@YAPEA_WPEB_W@Z@4JA ; `std::_Maklocwcs'::`1'::__LINE__Var
PUBLIC	??_C@_0GI@DJFLDKBN@c?3?2program?5files?5?$CIx86?$CJ?2microsof@ ; `string'
PUBLIC	??_C@_0N@LPFKKEBD@?3AM?3am?3PM?3pm@		; `string'
PUBLIC	??_C@_1BK@MHIKGOKE@?$AA?3?$AAA?$AAM?$AA?3?$AAa?$AAm?$AA?3?$AAP?$AAM?$AA?3?$AAp?$AAm@ ; `string'
EXTRN	__imp__calloc_dbg:PROC
EXTRN	memcpy:PROC
EXTRN	__imp_wcslen:PROC
EXTRN	strlen:PROC
EXTRN	?_Xbad_alloc@std@@YAXXZ:PROC			; std::_Xbad_alloc
EXTRN	_Mbrtowc:PROC
EXTRN	__imp_?_Getcvt@_Locinfo@std@@QEBA?AU_Cvtvec@@XZ:PROC
EXTRN	__imp_?_Getdays@_Locinfo@std@@QEBAPEBDXZ:PROC
EXTRN	__imp_?_Getmonths@_Locinfo@std@@QEBAPEBDXZ:PROC
EXTRN	__imp_?_W_Getdays@_Locinfo@std@@QEBAPEBGXZ:PROC
EXTRN	__imp_?_W_Getmonths@_Locinfo@std@@QEBAPEBGXZ:PROC
EXTRN	_RTC_CheckStackVars:PROC
EXTRN	_RTC_InitBase:PROC
EXTRN	_RTC_Shutdown:PROC
EXTRN	__CheckForDebuggerJustMyCode:PROC
EXTRN	__GSHandlerCheck:PROC
EXTRN	__security_check_cookie:PROC
EXTRN	__security_cookie:QWORD
;	COMDAT pdata
pdata	SEGMENT
$pdata$?__empty_global_delete@@YAXPEAX@Z DD imagerel $LN3
	DD	imagerel $LN3+64
	DD	imagerel $unwind$?__empty_global_delete@@YAXPEAX@Z
pdata	ENDS
;	COMDAT pdata
pdata	SEGMENT
$pdata$?__empty_global_delete@@YAXPEAX_K@Z DD imagerel $LN3
	DD	imagerel $LN3+69
	DD	imagerel $unwind$?__empty_global_delete@@YAXPEAX_K@Z
pdata	ENDS
;	COMDAT pdata
pdata	SEGMENT
$pdata$wmemcpy DD imagerel $LN3
	DD	imagerel $LN3+106
	DD	imagerel $unwind$wmemcpy
pdata	ENDS
;	COMDAT pdata
pdata	SEGMENT
$pdata$??$_Maklocstr@_W@std@@YAPEA_WPEBDPEA_WAEBU_Cvtvec@@@Z DD imagerel $LN12
	DD	imagerel $LN12+552
	DD	imagerel $unwind$??$_Maklocstr@_W@std@@YAPEA_WPEBDPEA_WAEBU_Cvtvec@@@Z
pdata	ENDS
;	COMDAT pdata
pdata	SEGMENT
$pdata$?_Maklocwcs@std@@YAPEA_WPEB_W@Z DD imagerel $LN4
	DD	imagerel $LN4+165
	DD	imagerel $unwind$?_Maklocwcs@std@@YAPEA_WPEB_W@Z
pdata	ENDS
;	COMDAT pdata
pdata	SEGMENT
$pdata$??$_Getvals@_W@?$time_get@DV?$istreambuf_iterator@DU?$char_traits@D@std@@@std@@@std@@IEAAX_WAEBV_Locinfo@1@@Z DD imagerel $LN5
	DD	imagerel $LN5+411
	DD	imagerel $unwind$??$_Getvals@_W@?$time_get@DV?$istreambuf_iterator@DU?$char_traits@D@std@@@std@@@std@@IEAAX_WAEBV_Locinfo@1@@Z
pdata	ENDS
;	COMDAT pdata
pdata	SEGMENT
$pdata$??$_Getvals@_W@?$time_get@_WV?$istreambuf_iterator@_WU?$char_traits@_W@std@@@std@@@std@@IEAAX_WAEBV_Locinfo@1@@Z DD imagerel $LN5
	DD	imagerel $LN5+411
	DD	imagerel $unwind$??$_Getvals@_W@?$time_get@_WV?$istreambuf_iterator@_WU?$char_traits@_W@std@@@std@@@std@@IEAAX_WAEBV_Locinfo@1@@Z
pdata	ENDS
;	COMDAT pdata
pdata	SEGMENT
$pdata$??$_Maklocstr@D@std@@YAPEADPEBDPEADAEBU_Cvtvec@@@Z DD imagerel $LN7
	DD	imagerel $LN7+223
	DD	imagerel $unwind$??$_Maklocstr@D@std@@YAPEADPEBDPEADAEBU_Cvtvec@@@Z
pdata	ENDS
;	COMDAT rtc$TMZ
rtc$TMZ	SEGMENT
_RTC_Shutdown.rtc$TMZ DQ FLAT:_RTC_Shutdown
rtc$TMZ	ENDS
;	COMDAT rtc$IMZ
rtc$IMZ	SEGMENT
_RTC_InitBase.rtc$IMZ DQ FLAT:_RTC_InitBase
rtc$IMZ	ENDS
;	COMDAT ??_C@_1BK@MHIKGOKE@?$AA?3?$AAA?$AAM?$AA?3?$AAa?$AAm?$AA?3?$AAP?$AAM?$AA?3?$AAp?$AAm@
CONST	SEGMENT
??_C@_1BK@MHIKGOKE@?$AA?3?$AAA?$AAM?$AA?3?$AAa?$AAm?$AA?3?$AAP?$AAM?$AA?3?$AAp?$AAm@ DB ':'
	DB	00H, 'A', 00H, 'M', 00H, ':', 00H, 'a', 00H, 'm', 00H, ':', 00H
	DB	'P', 00H, 'M', 00H, ':', 00H, 'p', 00H, 'm', 00H, 00H, 00H ; `string'
CONST	ENDS
;	COMDAT ??_C@_0N@LPFKKEBD@?3AM?3am?3PM?3pm@
CONST	SEGMENT
??_C@_0N@LPFKKEBD@?3AM?3am?3PM?3pm@ DB ':AM:am:PM:pm', 00H ; `string'
CONST	ENDS
;	COMDAT ??_C@_0GI@DJFLDKBN@c?3?2program?5files?5?$CIx86?$CJ?2microsof@
CONST	SEGMENT
??_C@_0GI@DJFLDKBN@c?3?2program?5files?5?$CIx86?$CJ?2microsof@ DB 'c:\pro'
	DB	'gram files (x86)\microsoft visual studio\2017\community\vc\to'
	DB	'ols\msvc\14.16.27023\include\xlocnum', 00H	; `string'
CONST	ENDS
;	COMDAT ?__LINE__Var@?0??_Maklocwcs@std@@YAPEA_WPEB_W@Z@4JA
_DATA	SEGMENT
?__LINE__Var@?0??_Maklocwcs@std@@YAPEA_WPEB_W@Z@4JA DD 061H ; `std::_Maklocwcs'::`1'::__LINE__Var
_DATA	ENDS
;	COMDAT ??_C@_0GI@LKBGDILM@c?3?2program?5files?5?$CIx86?$CJ?2microsof@
CONST	SEGMENT
??_C@_0GI@LKBGDILM@c?3?2program?5files?5?$CIx86?$CJ?2microsof@ DB 'c:\pro'
	DB	'gram files (x86)\microsoft visual studio\2017\community\vc\to'
	DB	'ols\msvc\14.16.27023\include\xlocale', 00H	; `string'
CONST	ENDS
;	COMDAT xdata
xdata	SEGMENT
$unwind$??$_Maklocstr@D@std@@YAPEADPEBDPEADAEBU_Cvtvec@@@Z DD 035053401H
	DD	0118331dH
	DD	07011002bH
	DD	05010H
xdata	ENDS
;	COMDAT xdata
xdata	SEGMENT
$unwind$??$_Getvals@_W@?$time_get@_WV?$istreambuf_iterator@_WU?$char_traits@_W@std@@@std@@@std@@IEAAX_WAEBV_Locinfo@1@@Z DD 025064619H
	DD	0119231eH
	DD	070120028H
	DD	050106011H
	DD	imagerel __GSHandlerCheck
	DD	0130H
xdata	ENDS
;	COMDAT xdata
xdata	SEGMENT
$unwind$??$_Getvals@_W@?$time_get@DV?$istreambuf_iterator@DU?$char_traits@D@std@@@std@@@std@@IEAAX_WAEBV_Locinfo@1@@Z DD 025064619H
	DD	0119231eH
	DD	070120028H
	DD	050106011H
	DD	imagerel __GSHandlerCheck
	DD	0130H
xdata	ENDS
;	COMDAT xdata
xdata	SEGMENT
$unwind$?_Maklocwcs@std@@YAPEA_WPEB_W@Z DD 035052a01H
	DD	010e3313H
	DD	070070027H
	DD	05006H
xdata	ENDS
;	COMDAT xdata
xdata	SEGMENT
$unwind$??$_Maklocstr@_W@std@@YAPEA_WPEBDPEA_WAEBU_Cvtvec@@@Z DD 035053401H
	DD	0118331dH
	DD	070110047H
	DD	05010H
xdata	ENDS
;	COMDAT CONST
CONST	SEGMENT
??$_Maklocstr@_W@std@@YAPEA_WPEBDPEA_WAEBU_Cvtvec@@@Z$rtcName$0 DB 05fH ; std::_Maklocstr<wchar_t>
	DB	057H
	DB	063H
	DB	00H
??$_Maklocstr@_W@std@@YAPEA_WPEBDPEA_WAEBU_Cvtvec@@@Z$rtcName$1 DB 05fH ; std::_Maklocstr<wchar_t>
	DB	04dH
	DB	062H
	DB	073H
	DB	074H
	DB	031H
	DB	00H
	ORG $+1
??$_Maklocstr@_W@std@@YAPEA_WPEBDPEA_WAEBU_Cvtvec@@@Z$rtcName$2 DB 05fH ; std::_Maklocstr<wchar_t>
	DB	04dH
	DB	062H
	DB	073H
	DB	074H
	DB	032H
	DB	00H
	ORG $+13
??$_Maklocstr@_W@std@@YAPEA_WPEBDPEA_WAEBU_Cvtvec@@@Z$rtcVarDesc DD 0158H ; std::_Maklocstr<wchar_t>
	DD	08H
	DQ	FLAT:??$_Maklocstr@_W@std@@YAPEA_WPEBDPEA_WAEBU_Cvtvec@@@Z$rtcName$2
	DD	0f8H
	DD	08H
	DQ	FLAT:??$_Maklocstr@_W@std@@YAPEA_WPEBDPEA_WAEBU_Cvtvec@@@Z$rtcName$1
	DD	0d4H
	DD	02H
	DQ	FLAT:??$_Maklocstr@_W@std@@YAPEA_WPEBDPEA_WAEBU_Cvtvec@@@Z$rtcName$0
	ORG $+144
??$_Maklocstr@_W@std@@YAPEA_WPEBDPEA_WAEBU_Cvtvec@@@Z$rtcFrameData DD 03H ; std::_Maklocstr<wchar_t>
	DD	00H
	DQ	FLAT:??$_Maklocstr@_W@std@@YAPEA_WPEBDPEA_WAEBU_Cvtvec@@@Z$rtcVarDesc
CONST	ENDS
;	COMDAT xdata
xdata	SEGMENT
$unwind$wmemcpy DD 025053401H
	DD	0118231dH
	DD	07011001dH
	DD	05010H
xdata	ENDS
;	COMDAT xdata
xdata	SEGMENT
$unwind$?__empty_global_delete@@YAXPEAX_K@Z DD 025052f01H
	DD	01132318H
	DD	0700c001dH
	DD	0500bH
xdata	ENDS
;	COMDAT xdata
xdata	SEGMENT
$unwind$?__empty_global_delete@@YAXPEAX@Z DD 025052a01H
	DD	010e2313H
	DD	07007001dH
	DD	05006H
xdata	ENDS
; Function compile flags: /Odt
;	COMDAT __JustMyCode_Default
_TEXT	SEGMENT
__JustMyCode_Default PROC				; COMDAT
	ret	0
__JustMyCode_Default ENDP
_TEXT	ENDS
; Function compile flags: /Odtp /RTCsu /ZI
; File c:\program files (x86)\microsoft visual studio\2017\community\vc\tools\msvc\14.16.27023\include\xlocale
;	COMDAT ??$_Maklocstr@D@std@@YAPEADPEBDPEADAEBU_Cvtvec@@@Z
_TEXT	SEGMENT
_Count$ = 8
_Ptrdest$ = 40
_Ptrnext$1 = 72
_Ptr$ = 320
__formal$ = 328
__formal$ = 336
??$_Maklocstr@D@std@@YAPEADPEBDPEADAEBU_Cvtvec@@@Z PROC	; std::_Maklocstr<char>, COMDAT

; 664  : 	{	// convert C string to _Elem sequence using _Cvtvec

$LN7:
	mov	QWORD PTR [rsp+24], r8
	mov	QWORD PTR [rsp+16], rdx
	mov	QWORD PTR [rsp+8], rcx
	push	rbp
	push	rdi
	sub	rsp, 344				; 00000158H
	lea	rbp, QWORD PTR [rsp+48]
	mov	rdi, rsp
	mov	ecx, 86					; 00000056H
	mov	eax, -858993460				; ccccccccH
	rep stosd
	mov	rcx, QWORD PTR [rsp+376]
	lea	rcx, OFFSET FLAT:__244BF7CC_xlocale
	call	__CheckForDebuggerJustMyCode

; 665  : 	size_t _Count = _CSTD strlen(_Ptr) + 1;

	mov	rcx, QWORD PTR _Ptr$[rbp]
	call	strlen
	inc	rax
	mov	QWORD PTR _Count$[rbp], rax

; 666  : 
; 667  : 	_Elem *_Ptrdest = (_Elem *)_calloc_dbg(_Count, sizeof (_Elem),

	mov	DWORD PTR [rsp+32], 668			; 0000029cH
	lea	r9, OFFSET FLAT:??_C@_0GI@LKBGDILM@c?3?2program?5files?5?$CIx86?$CJ?2microsof@
	mov	r8d, 2
	mov	edx, 1
	mov	rcx, QWORD PTR _Count$[rbp]
	call	QWORD PTR __imp__calloc_dbg
	mov	QWORD PTR _Ptrdest$[rbp], rax

; 668  : 		_CRT_BLOCK, __FILE__, __LINE__);
; 669  : 
; 670  : 	if (!_Ptrdest)

	cmp	QWORD PTR _Ptrdest$[rbp], 0
	jne	SHORT $LN5@Maklocstr

; 671  : 		_Xbad_alloc();

	call	?_Xbad_alloc@std@@YAXXZ			; std::_Xbad_alloc
$LN5@Maklocstr:

; 672  : 
; 673  : 	for (_Elem *_Ptrnext = _Ptrdest; 0 < _Count; --_Count, ++_Ptrnext, ++_Ptr)

	mov	rax, QWORD PTR _Ptrdest$[rbp]
	mov	QWORD PTR _Ptrnext$1[rbp], rax
	jmp	SHORT $LN4@Maklocstr
$LN2@Maklocstr:
	mov	rax, QWORD PTR _Count$[rbp]
	dec	rax
	mov	QWORD PTR _Count$[rbp], rax
	mov	rax, QWORD PTR _Ptrnext$1[rbp]
	inc	rax
	mov	QWORD PTR _Ptrnext$1[rbp], rax
	mov	rax, QWORD PTR _Ptr$[rbp]
	inc	rax
	mov	QWORD PTR _Ptr$[rbp], rax
$LN4@Maklocstr:
	cmp	QWORD PTR _Count$[rbp], 0
	jbe	SHORT $LN3@Maklocstr

; 674  : 		*_Ptrnext = (_Elem)(unsigned char)*_Ptr;

	mov	rax, QWORD PTR _Ptrnext$1[rbp]
	mov	rcx, QWORD PTR _Ptr$[rbp]
	movzx	ecx, BYTE PTR [rcx]
	mov	BYTE PTR [rax], cl
	jmp	SHORT $LN2@Maklocstr
$LN3@Maklocstr:

; 675  : 
; 676  : 	return (_Ptrdest);

	mov	rax, QWORD PTR _Ptrdest$[rbp]
$LN6@Maklocstr:

; 677  : 	}

	lea	rsp, QWORD PTR [rbp+296]
	pop	rdi
	pop	rbp
	ret	0
??$_Maklocstr@D@std@@YAPEADPEBDPEADAEBU_Cvtvec@@@Z ENDP	; std::_Maklocstr<char>
_TEXT	ENDS
; Function compile flags: /Odtp /RTCsu /ZI
; File c:\program files (x86)\microsoft visual studio\2017\community\vc\tools\msvc\14.16.27023\include\xloctime
;	COMDAT ??$_Getvals@_W@?$time_get@_WV?$istreambuf_iterator@_WU?$char_traits@_W@std@@@std@@@std@@IEAAX_WAEBV_Locinfo@1@@Z
_TEXT	SEGMENT
$T1 = 200
tv93 = 264
tv85 = 264
__$ArrayPad$ = 272
this$ = 320
__formal$ = 328
_Lobj$ = 336
??$_Getvals@_W@?$time_get@_WV?$istreambuf_iterator@_WU?$char_traits@_W@std@@@std@@@std@@IEAAX_WAEBV_Locinfo@1@@Z PROC ; std::time_get<wchar_t,std::istreambuf_iterator<wchar_t,std::char_traits<wchar_t> > >::_Getvals<wchar_t>, COMDAT

; 216  : 		{	// get values

$LN5:
	mov	QWORD PTR [rsp+24], r8
	mov	WORD PTR [rsp+16], dx
	mov	QWORD PTR [rsp+8], rcx
	push	rbp
	push	rsi
	push	rdi
	sub	rsp, 320				; 00000140H
	lea	rbp, QWORD PTR [rsp+32]
	mov	rdi, rsp
	mov	ecx, 80					; 00000050H
	mov	eax, -858993460				; ccccccccH
	rep stosd
	mov	rcx, QWORD PTR [rsp+360]
	mov	rax, QWORD PTR __security_cookie
	xor	rax, rbp
	mov	QWORD PTR __$ArrayPad$[rbp], rax
	lea	rcx, OFFSET FLAT:__06FBBFF5_xloctime
	call	__CheckForDebuggerJustMyCode

; 217  : 		_Cvt = _Lobj._Getcvt();

	lea	rdx, QWORD PTR $T1[rbp]
	mov	rcx, QWORD PTR _Lobj$[rbp]
	call	QWORD PTR __imp_?_Getcvt@_Locinfo@std@@QEBA?AU_Cvtvec@@XZ
	mov	rcx, QWORD PTR this$[rbp]
	lea	rdi, QWORD PTR [rcx+44]
	mov	rsi, rax
	mov	ecx, 44					; 0000002cH
	rep movsb

; 218  : 
; 219  : 		if (is_same_v<_Elem2, wchar_t>)

	xor	eax, eax
	cmp	eax, 1
	je	SHORT $LN2@Getvals

; 220  : 			{
; 221  : 			_Days = (const _Elem *)_Maklocwcs((const wchar_t *)_Lobj._W_Getdays());

	mov	rcx, QWORD PTR _Lobj$[rbp]
	call	QWORD PTR __imp_?_W_Getdays@_Locinfo@std@@QEBAPEBGXZ
	mov	rcx, rax
	call	?_Maklocwcs@std@@YAPEA_WPEB_W@Z		; std::_Maklocwcs
	mov	rcx, QWORD PTR this$[rbp]
	mov	QWORD PTR [rcx+16], rax

; 222  : 			_Months = (const _Elem *)_Maklocwcs((const wchar_t *)_Lobj._W_Getmonths());

	mov	rcx, QWORD PTR _Lobj$[rbp]
	call	QWORD PTR __imp_?_W_Getmonths@_Locinfo@std@@QEBAPEBGXZ
	mov	rcx, rax
	call	?_Maklocwcs@std@@YAPEA_WPEB_W@Z		; std::_Maklocwcs
	mov	rcx, QWORD PTR this$[rbp]
	mov	QWORD PTR [rcx+24], rax

; 223  : 			_Ampm = (const _Elem *)_Maklocwcs(L":AM:am:PM:pm");

	lea	rcx, OFFSET FLAT:??_C@_1BK@MHIKGOKE@?$AA?3?$AAA?$AAM?$AA?3?$AAa?$AAm?$AA?3?$AAP?$AAM?$AA?3?$AAp?$AAm@
	call	?_Maklocwcs@std@@YAPEA_WPEB_W@Z		; std::_Maklocwcs
	mov	rcx, QWORD PTR this$[rbp]
	mov	QWORD PTR [rcx+32], rax

; 224  : 			}
; 225  : 		else

	jmp	$LN3@Getvals
$LN2@Getvals:

; 226  : 			{
; 227  : 			_Days = _Maklocstr(_Lobj._Getdays(), static_cast<_Elem *>(nullptr), _Cvt);

	mov	rax, QWORD PTR this$[rbp]
	add	rax, 44					; 0000002cH
	mov	QWORD PTR tv85[rbp], rax
	mov	rcx, QWORD PTR _Lobj$[rbp]
	call	QWORD PTR __imp_?_Getdays@_Locinfo@std@@QEBAPEBDXZ
	mov	rcx, QWORD PTR tv85[rbp]
	mov	r8, rcx
	xor	edx, edx
	mov	rcx, rax
	call	??$_Maklocstr@_W@std@@YAPEA_WPEBDPEA_WAEBU_Cvtvec@@@Z ; std::_Maklocstr<wchar_t>
	mov	rcx, QWORD PTR this$[rbp]
	mov	QWORD PTR [rcx+16], rax

; 228  : 			_Months = _Maklocstr(_Lobj._Getmonths(), static_cast<_Elem *>(nullptr), _Cvt);

	mov	rax, QWORD PTR this$[rbp]
	add	rax, 44					; 0000002cH
	mov	QWORD PTR tv93[rbp], rax
	mov	rcx, QWORD PTR _Lobj$[rbp]
	call	QWORD PTR __imp_?_Getmonths@_Locinfo@std@@QEBAPEBDXZ
	mov	rcx, QWORD PTR tv93[rbp]
	mov	r8, rcx
	xor	edx, edx
	mov	rcx, rax
	call	??$_Maklocstr@_W@std@@YAPEA_WPEBDPEA_WAEBU_Cvtvec@@@Z ; std::_Maklocstr<wchar_t>
	mov	rcx, QWORD PTR this$[rbp]
	mov	QWORD PTR [rcx+24], rax

; 229  : 			_Ampm = _Maklocstr(":AM:am:PM:pm", static_cast<_Elem *>(nullptr), _Cvt);

	mov	rax, QWORD PTR this$[rbp]
	add	rax, 44					; 0000002cH
	mov	r8, rax
	xor	edx, edx
	lea	rcx, OFFSET FLAT:??_C@_0N@LPFKKEBD@?3AM?3am?3PM?3pm@
	call	??$_Maklocstr@_W@std@@YAPEA_WPEBDPEA_WAEBU_Cvtvec@@@Z ; std::_Maklocstr<wchar_t>
	mov	rcx, QWORD PTR this$[rbp]
	mov	QWORD PTR [rcx+32], rax
$LN3@Getvals:

; 230  : 			}
; 231  : 		}

	mov	rcx, QWORD PTR __$ArrayPad$[rbp]
	xor	rcx, rbp
	call	__security_check_cookie
	lea	rsp, QWORD PTR [rbp+288]
	pop	rdi
	pop	rsi
	pop	rbp
	ret	0
??$_Getvals@_W@?$time_get@_WV?$istreambuf_iterator@_WU?$char_traits@_W@std@@@std@@@std@@IEAAX_WAEBV_Locinfo@1@@Z ENDP ; std::time_get<wchar_t,std::istreambuf_iterator<wchar_t,std::char_traits<wchar_t> > >::_Getvals<wchar_t>
_TEXT	ENDS
; Function compile flags: /Odtp /RTCsu /ZI
; File c:\program files (x86)\microsoft visual studio\2017\community\vc\tools\msvc\14.16.27023\include\xloctime
;	COMDAT ??$_Getvals@_W@?$time_get@DV?$istreambuf_iterator@DU?$char_traits@D@std@@@std@@@std@@IEAAX_WAEBV_Locinfo@1@@Z
_TEXT	SEGMENT
$T1 = 200
tv93 = 264
tv85 = 264
__$ArrayPad$ = 272
this$ = 320
__formal$ = 328
_Lobj$ = 336
??$_Getvals@_W@?$time_get@DV?$istreambuf_iterator@DU?$char_traits@D@std@@@std@@@std@@IEAAX_WAEBV_Locinfo@1@@Z PROC ; std::time_get<char,std::istreambuf_iterator<char,std::char_traits<char> > >::_Getvals<wchar_t>, COMDAT

; 216  : 		{	// get values

$LN5:
	mov	QWORD PTR [rsp+24], r8
	mov	WORD PTR [rsp+16], dx
	mov	QWORD PTR [rsp+8], rcx
	push	rbp
	push	rsi
	push	rdi
	sub	rsp, 320				; 00000140H
	lea	rbp, QWORD PTR [rsp+32]
	mov	rdi, rsp
	mov	ecx, 80					; 00000050H
	mov	eax, -858993460				; ccccccccH
	rep stosd
	mov	rcx, QWORD PTR [rsp+360]
	mov	rax, QWORD PTR __security_cookie
	xor	rax, rbp
	mov	QWORD PTR __$ArrayPad$[rbp], rax
	lea	rcx, OFFSET FLAT:__06FBBFF5_xloctime
	call	__CheckForDebuggerJustMyCode

; 217  : 		_Cvt = _Lobj._Getcvt();

	lea	rdx, QWORD PTR $T1[rbp]
	mov	rcx, QWORD PTR _Lobj$[rbp]
	call	QWORD PTR __imp_?_Getcvt@_Locinfo@std@@QEBA?AU_Cvtvec@@XZ
	mov	rcx, QWORD PTR this$[rbp]
	lea	rdi, QWORD PTR [rcx+44]
	mov	rsi, rax
	mov	ecx, 44					; 0000002cH
	rep movsb

; 218  : 
; 219  : 		if (is_same_v<_Elem2, wchar_t>)

	xor	eax, eax
	cmp	eax, 1
	je	SHORT $LN2@Getvals

; 220  : 			{
; 221  : 			_Days = (const _Elem *)_Maklocwcs((const wchar_t *)_Lobj._W_Getdays());

	mov	rcx, QWORD PTR _Lobj$[rbp]
	call	QWORD PTR __imp_?_W_Getdays@_Locinfo@std@@QEBAPEBGXZ
	mov	rcx, rax
	call	?_Maklocwcs@std@@YAPEA_WPEB_W@Z		; std::_Maklocwcs
	mov	rcx, QWORD PTR this$[rbp]
	mov	QWORD PTR [rcx+16], rax

; 222  : 			_Months = (const _Elem *)_Maklocwcs((const wchar_t *)_Lobj._W_Getmonths());

	mov	rcx, QWORD PTR _Lobj$[rbp]
	call	QWORD PTR __imp_?_W_Getmonths@_Locinfo@std@@QEBAPEBGXZ
	mov	rcx, rax
	call	?_Maklocwcs@std@@YAPEA_WPEB_W@Z		; std::_Maklocwcs
	mov	rcx, QWORD PTR this$[rbp]
	mov	QWORD PTR [rcx+24], rax

; 223  : 			_Ampm = (const _Elem *)_Maklocwcs(L":AM:am:PM:pm");

	lea	rcx, OFFSET FLAT:??_C@_1BK@MHIKGOKE@?$AA?3?$AAA?$AAM?$AA?3?$AAa?$AAm?$AA?3?$AAP?$AAM?$AA?3?$AAp?$AAm@
	call	?_Maklocwcs@std@@YAPEA_WPEB_W@Z		; std::_Maklocwcs
	mov	rcx, QWORD PTR this$[rbp]
	mov	QWORD PTR [rcx+32], rax

; 224  : 			}
; 225  : 		else

	jmp	$LN3@Getvals
$LN2@Getvals:

; 226  : 			{
; 227  : 			_Days = _Maklocstr(_Lobj._Getdays(), static_cast<_Elem *>(nullptr), _Cvt);

	mov	rax, QWORD PTR this$[rbp]
	add	rax, 44					; 0000002cH
	mov	QWORD PTR tv85[rbp], rax
	mov	rcx, QWORD PTR _Lobj$[rbp]
	call	QWORD PTR __imp_?_Getdays@_Locinfo@std@@QEBAPEBDXZ
	mov	rcx, QWORD PTR tv85[rbp]
	mov	r8, rcx
	xor	edx, edx
	mov	rcx, rax
	call	??$_Maklocstr@D@std@@YAPEADPEBDPEADAEBU_Cvtvec@@@Z ; std::_Maklocstr<char>
	mov	rcx, QWORD PTR this$[rbp]
	mov	QWORD PTR [rcx+16], rax

; 228  : 			_Months = _Maklocstr(_Lobj._Getmonths(), static_cast<_Elem *>(nullptr), _Cvt);

	mov	rax, QWORD PTR this$[rbp]
	add	rax, 44					; 0000002cH
	mov	QWORD PTR tv93[rbp], rax
	mov	rcx, QWORD PTR _Lobj$[rbp]
	call	QWORD PTR __imp_?_Getmonths@_Locinfo@std@@QEBAPEBDXZ
	mov	rcx, QWORD PTR tv93[rbp]
	mov	r8, rcx
	xor	edx, edx
	mov	rcx, rax
	call	??$_Maklocstr@D@std@@YAPEADPEBDPEADAEBU_Cvtvec@@@Z ; std::_Maklocstr<char>
	mov	rcx, QWORD PTR this$[rbp]
	mov	QWORD PTR [rcx+24], rax

; 229  : 			_Ampm = _Maklocstr(":AM:am:PM:pm", static_cast<_Elem *>(nullptr), _Cvt);

	mov	rax, QWORD PTR this$[rbp]
	add	rax, 44					; 0000002cH
	mov	r8, rax
	xor	edx, edx
	lea	rcx, OFFSET FLAT:??_C@_0N@LPFKKEBD@?3AM?3am?3PM?3pm@
	call	??$_Maklocstr@D@std@@YAPEADPEBDPEADAEBU_Cvtvec@@@Z ; std::_Maklocstr<char>
	mov	rcx, QWORD PTR this$[rbp]
	mov	QWORD PTR [rcx+32], rax
$LN3@Getvals:

; 230  : 			}
; 231  : 		}

	mov	rcx, QWORD PTR __$ArrayPad$[rbp]
	xor	rcx, rbp
	call	__security_check_cookie
	lea	rsp, QWORD PTR [rbp+288]
	pop	rdi
	pop	rsi
	pop	rbp
	ret	0
??$_Getvals@_W@?$time_get@DV?$istreambuf_iterator@DU?$char_traits@D@std@@@std@@@std@@IEAAX_WAEBV_Locinfo@1@@Z ENDP ; std::time_get<char,std::istreambuf_iterator<char,std::char_traits<char> > >::_Getvals<wchar_t>
_TEXT	ENDS
; Function compile flags: /Odtp /RTCsu /ZI
; File c:\program files (x86)\microsoft visual studio\2017\community\vc\tools\msvc\14.16.27023\include\xlocnum
;	COMDAT ?_Maklocwcs@std@@YAPEA_WPEB_W@Z
_TEXT	SEGMENT
_Count$ = 8
_Ptrdest$ = 40
_Ptr$ = 288
?_Maklocwcs@std@@YAPEA_WPEB_W@Z PROC			; std::_Maklocwcs, COMDAT

; 97   : 	{	// copy NTWCS to allocated storage

$LN4:
	mov	QWORD PTR [rsp+8], rcx
	push	rbp
	push	rdi
	sub	rsp, 312				; 00000138H
	lea	rbp, QWORD PTR [rsp+48]
	mov	rdi, rsp
	mov	ecx, 78					; 0000004eH
	mov	eax, -858993460				; ccccccccH
	rep stosd
	mov	rcx, QWORD PTR [rsp+344]
	lea	rcx, OFFSET FLAT:__BACC91DB_xlocnum
	call	__CheckForDebuggerJustMyCode

; 98   : 	const size_t _Count = _CSTD wcslen(_Ptr) + 1;

	mov	rcx, QWORD PTR _Ptr$[rbp]
	call	QWORD PTR __imp_wcslen
	inc	rax
	mov	QWORD PTR _Count$[rbp], rax

; 99   : 
; 100  : 	wchar_t *_Ptrdest = (wchar_t *)_calloc_dbg(_Count, sizeof (wchar_t),

	mov	eax, DWORD PTR ?__LINE__Var@?0??_Maklocwcs@std@@YAPEA_WPEB_W@Z@4JA
	add	eax, 4
	mov	DWORD PTR [rsp+32], eax
	lea	r9, OFFSET FLAT:??_C@_0GI@DJFLDKBN@c?3?2program?5files?5?$CIx86?$CJ?2microsof@
	mov	r8d, 2
	mov	edx, 2
	mov	rcx, QWORD PTR _Count$[rbp]
	call	QWORD PTR __imp__calloc_dbg
	mov	QWORD PTR _Ptrdest$[rbp], rax

; 101  : 		_CRT_BLOCK, __FILE__, __LINE__);
; 102  : 
; 103  : 	if (!_Ptrdest)

	cmp	QWORD PTR _Ptrdest$[rbp], 0
	jne	SHORT $LN2@Maklocwcs

; 104  : 		_Xbad_alloc();

	call	?_Xbad_alloc@std@@YAXXZ			; std::_Xbad_alloc
$LN2@Maklocwcs:

; 105  : 	_CSTD wmemcpy(_Ptrdest, _Ptr, _Count);

	mov	r8, QWORD PTR _Count$[rbp]
	mov	rdx, QWORD PTR _Ptr$[rbp]
	mov	rcx, QWORD PTR _Ptrdest$[rbp]
	call	wmemcpy

; 106  : 	return (_Ptrdest);

	mov	rax, QWORD PTR _Ptrdest$[rbp]
$LN3@Maklocwcs:

; 107  : 	}

	lea	rsp, QWORD PTR [rbp+264]
	pop	rdi
	pop	rbp
	ret	0
?_Maklocwcs@std@@YAPEA_WPEB_W@Z ENDP			; std::_Maklocwcs
_TEXT	ENDS
; Function compile flags: /Odtp /RTCsu /ZI
; File c:\program files (x86)\microsoft visual studio\2017\community\vc\tools\msvc\14.16.27023\include\xlocale
;	COMDAT ??$_Maklocstr@_W@std@@YAPEA_WPEBDPEA_WAEBU_Cvtvec@@@Z
_TEXT	SEGMENT
_Count$ = 8
_Count1$ = 40
_Wchars$ = 72
_Ptr1$ = 104
_Bytes$ = 132
_Wc$ = 164
_Mbst1$ = 200
_Ptrdest$ = 232
_Ptrnext$ = 264
_Mbst2$ = 296
_Ptr$ = 544
__formal$ = 552
_Cvt$ = 560
??$_Maklocstr@_W@std@@YAPEA_WPEBDPEA_WAEBU_Cvtvec@@@Z PROC ; std::_Maklocstr<wchar_t>, COMDAT

; 682  : 	{	// convert C string to wchar_t sequence using _Cvtvec

$LN12:
	mov	QWORD PTR [rsp+24], r8
	mov	QWORD PTR [rsp+16], rdx
	mov	QWORD PTR [rsp+8], rcx
	push	rbp
	push	rdi
	sub	rsp, 568				; 00000238H
	lea	rbp, QWORD PTR [rsp+48]
	mov	rdi, rsp
	mov	ecx, 142				; 0000008eH
	mov	eax, -858993460				; ccccccccH
	rep stosd
	mov	rcx, QWORD PTR [rsp+600]
	lea	rcx, OFFSET FLAT:__244BF7CC_xlocale
	call	__CheckForDebuggerJustMyCode

; 683  : 	size_t _Count, _Count1;
; 684  : 	size_t _Wchars;
; 685  : 	const char *_Ptr1;
; 686  : 	int _Bytes;
; 687  : 	wchar_t _Wc;
; 688  : 	mbstate_t _Mbst1 = {};

	lea	rax, QWORD PTR _Mbst1$[rbp]
	mov	rdi, rax
	xor	eax, eax
	mov	ecx, 8
	rep stosb

; 689  : 
; 690  : 	_Count1 = _CSTD strlen(_Ptr) + 1;

	mov	rcx, QWORD PTR _Ptr$[rbp]
	call	strlen
	inc	rax
	mov	QWORD PTR _Count1$[rbp], rax

; 691  : 	for (_Count = _Count1, _Wchars = 0, _Ptr1 = _Ptr; 0 < _Count;

	mov	rax, QWORD PTR _Count1$[rbp]
	mov	QWORD PTR _Count$[rbp], rax
	mov	QWORD PTR _Wchars$[rbp], 0
	mov	rax, QWORD PTR _Ptr$[rbp]
	mov	QWORD PTR _Ptr1$[rbp], rax
	jmp	SHORT $LN4@Maklocstr
$LN2@Maklocstr:

; 692  : 		_Count -= _Bytes, _Ptr1 += _Bytes, ++_Wchars)

	movsxd	rax, DWORD PTR _Bytes$[rbp]
	mov	rcx, QWORD PTR _Count$[rbp]
	sub	rcx, rax
	mov	rax, rcx
	mov	QWORD PTR _Count$[rbp], rax
	movsxd	rax, DWORD PTR _Bytes$[rbp]
	mov	rcx, QWORD PTR _Ptr1$[rbp]
	add	rcx, rax
	mov	rax, rcx
	mov	QWORD PTR _Ptr1$[rbp], rax
	mov	rax, QWORD PTR _Wchars$[rbp]
	inc	rax
	mov	QWORD PTR _Wchars$[rbp], rax
$LN4@Maklocstr:

; 691  : 	for (_Count = _Count1, _Wchars = 0, _Ptr1 = _Ptr; 0 < _Count;

	cmp	QWORD PTR _Count$[rbp], 0
	jbe	SHORT $LN3@Maklocstr

; 693  : 		if ((_Bytes = _Mbrtowc(&_Wc, _Ptr1, _Count, &_Mbst1, &_Cvt)) <= 0)

	mov	rax, QWORD PTR _Cvt$[rbp]
	mov	QWORD PTR [rsp+32], rax
	lea	r9, QWORD PTR _Mbst1$[rbp]
	mov	r8, QWORD PTR _Count$[rbp]
	mov	rdx, QWORD PTR _Ptr1$[rbp]
	lea	rcx, QWORD PTR _Wc$[rbp]
	call	_Mbrtowc
	mov	DWORD PTR _Bytes$[rbp], eax
	cmp	DWORD PTR _Bytes$[rbp], 0
	jg	SHORT $LN8@Maklocstr

; 694  : 			break;

	jmp	SHORT $LN3@Maklocstr
$LN8@Maklocstr:

; 695  : 	++_Wchars;	// count terminating nul

	jmp	SHORT $LN2@Maklocstr
$LN3@Maklocstr:
	mov	rax, QWORD PTR _Wchars$[rbp]
	inc	rax
	mov	QWORD PTR _Wchars$[rbp], rax

; 696  : 
; 697  : 	wchar_t *_Ptrdest = (wchar_t *)_calloc_dbg(_Wchars, sizeof (wchar_t),

	mov	DWORD PTR [rsp+32], 698			; 000002baH
	lea	r9, OFFSET FLAT:??_C@_0GI@LKBGDILM@c?3?2program?5files?5?$CIx86?$CJ?2microsof@
	mov	r8d, 2
	mov	edx, 2
	mov	rcx, QWORD PTR _Wchars$[rbp]
	call	QWORD PTR __imp__calloc_dbg
	mov	QWORD PTR _Ptrdest$[rbp], rax

; 698  : 		_CRT_BLOCK, __FILE__, __LINE__);
; 699  : 
; 700  : 	if (!_Ptrdest)

	cmp	QWORD PTR _Ptrdest$[rbp], 0
	jne	SHORT $LN9@Maklocstr

; 701  : 		_Xbad_alloc();

	call	?_Xbad_alloc@std@@YAXXZ			; std::_Xbad_alloc
$LN9@Maklocstr:

; 702  : 	wchar_t *_Ptrnext = _Ptrdest;

	mov	rax, QWORD PTR _Ptrdest$[rbp]
	mov	QWORD PTR _Ptrnext$[rbp], rax

; 703  : 	mbstate_t _Mbst2 = {};

	lea	rax, QWORD PTR _Mbst2$[rbp]
	mov	rdi, rax
	xor	eax, eax
	mov	ecx, 8
	rep stosb

; 704  : 
; 705  : 	for (; 0 < _Wchars;

	jmp	SHORT $LN7@Maklocstr
$LN5@Maklocstr:

; 706  : 		_Count -= _Bytes, _Ptr += _Bytes, --_Wchars, ++_Ptrnext)

	movsxd	rax, DWORD PTR _Bytes$[rbp]
	mov	rcx, QWORD PTR _Count$[rbp]
	sub	rcx, rax
	mov	rax, rcx
	mov	QWORD PTR _Count$[rbp], rax
	movsxd	rax, DWORD PTR _Bytes$[rbp]
	mov	rcx, QWORD PTR _Ptr$[rbp]
	add	rcx, rax
	mov	rax, rcx
	mov	QWORD PTR _Ptr$[rbp], rax
	mov	rax, QWORD PTR _Wchars$[rbp]
	dec	rax
	mov	QWORD PTR _Wchars$[rbp], rax
	mov	rax, QWORD PTR _Ptrnext$[rbp]
	add	rax, 2
	mov	QWORD PTR _Ptrnext$[rbp], rax
$LN7@Maklocstr:

; 704  : 
; 705  : 	for (; 0 < _Wchars;

	cmp	QWORD PTR _Wchars$[rbp], 0
	jbe	SHORT $LN6@Maklocstr

; 707  : 		if ((_Bytes = _Mbrtowc(_Ptrnext, _Ptr, _Count1, &_Mbst2, &_Cvt)) <= 0)

	mov	rax, QWORD PTR _Cvt$[rbp]
	mov	QWORD PTR [rsp+32], rax
	lea	r9, QWORD PTR _Mbst2$[rbp]
	mov	r8, QWORD PTR _Count1$[rbp]
	mov	rdx, QWORD PTR _Ptr$[rbp]
	mov	rcx, QWORD PTR _Ptrnext$[rbp]
	call	_Mbrtowc
	mov	DWORD PTR _Bytes$[rbp], eax
	cmp	DWORD PTR _Bytes$[rbp], 0
	jg	SHORT $LN10@Maklocstr

; 708  : 			break;

	jmp	SHORT $LN6@Maklocstr
$LN10@Maklocstr:

; 709  : 	*_Ptrnext = L'\0';

	jmp	$LN5@Maklocstr
$LN6@Maklocstr:
	xor	eax, eax
	mov	rcx, QWORD PTR _Ptrnext$[rbp]
	mov	WORD PTR [rcx], ax

; 710  : 
; 711  : 	return (_Ptrdest);

	mov	rax, QWORD PTR _Ptrdest$[rbp]
$LN11@Maklocstr:

; 712  : 	}

	mov	rdi, rax
	lea	rcx, QWORD PTR [rbp-48]
	lea	rdx, OFFSET FLAT:??$_Maklocstr@_W@std@@YAPEA_WPEBDPEA_WAEBU_Cvtvec@@@Z$rtcFrameData
	call	_RTC_CheckStackVars
	mov	rax, rdi
	lea	rsp, QWORD PTR [rbp+520]
	pop	rdi
	pop	rbp
	ret	0
??$_Maklocstr@_W@std@@YAPEA_WPEBDPEA_WAEBU_Cvtvec@@@Z ENDP ; std::_Maklocstr<wchar_t>
_TEXT	ENDS
; Function compile flags: /Odtp /RTCsu /ZI
; File c:\program files (x86)\windows kits\10\include\10.0.17763.0\ucrt\wchar.h
;	COMDAT wmemcpy
_TEXT	SEGMENT
_S1$ = 224
_S2$ = 232
_N$ = 240
wmemcpy	PROC						; COMDAT

; 230  :     {

$LN3:
	mov	QWORD PTR [rsp+24], r8
	mov	QWORD PTR [rsp+16], rdx
	mov	QWORD PTR [rsp+8], rcx
	push	rbp
	push	rdi
	sub	rsp, 232				; 000000e8H
	lea	rbp, QWORD PTR [rsp+32]
	mov	rdi, rsp
	mov	ecx, 58					; 0000003aH
	mov	eax, -858993460				; ccccccccH
	rep stosd
	mov	rcx, QWORD PTR [rsp+264]
	lea	rcx, OFFSET FLAT:__5A74375D_wchar@h
	call	__CheckForDebuggerJustMyCode

; 231  :         #pragma warning(push)
; 232  :         #pragma warning(disable : 4995 4996 6386)
; 233  :         return (wchar_t*)memcpy(_S1, _S2, _N*sizeof(wchar_t));

	mov	rax, QWORD PTR _N$[rbp]
	shl	rax, 1
	mov	r8, rax
	mov	rdx, QWORD PTR _S2$[rbp]
	mov	rcx, QWORD PTR _S1$[rbp]
	call	memcpy

; 234  :         #pragma warning(pop)
; 235  :     }

	lea	rsp, QWORD PTR [rbp+200]
	pop	rdi
	pop	rbp
	ret	0
wmemcpy	ENDP
_TEXT	ENDS
; Function compile flags: /Odtp /RTCsu /ZI
; File z:\sources\lunor\repos\rougemeilland\palmtree.math.core.implements\palmtree.math.core.implements\nbproject\private\cpp_standard_headers_indexer.cpp
;	COMDAT ?__empty_global_delete@@YAXPEAX_K@Z
_TEXT	SEGMENT
__formal$ = 224
__formal$ = 232
?__empty_global_delete@@YAXPEAX_K@Z PROC		; __empty_global_delete, COMDAT

$LN3:
	mov	QWORD PTR [rsp+16], rdx
	mov	QWORD PTR [rsp+8], rcx
	push	rbp
	push	rdi
	sub	rsp, 232				; 000000e8H
	lea	rbp, QWORD PTR [rsp+32]
	mov	rdi, rsp
	mov	ecx, 58					; 0000003aH
	mov	eax, -858993460				; ccccccccH
	rep stosd
	mov	rcx, QWORD PTR [rsp+264]
	lea	rcx, OFFSET FLAT:__D0767A1C_cpp_standard_headers_indexer@cpp
	call	__CheckForDebuggerJustMyCode
	lea	rsp, QWORD PTR [rbp+200]
	pop	rdi
	pop	rbp
	ret	0
?__empty_global_delete@@YAXPEAX_K@Z ENDP		; __empty_global_delete
_TEXT	ENDS
; Function compile flags: /Odtp /RTCsu /ZI
; File z:\sources\lunor\repos\rougemeilland\palmtree.math.core.implements\palmtree.math.core.implements\nbproject\private\cpp_standard_headers_indexer.cpp
;	COMDAT ?__empty_global_delete@@YAXPEAX@Z
_TEXT	SEGMENT
__formal$ = 224
?__empty_global_delete@@YAXPEAX@Z PROC			; __empty_global_delete, COMDAT

$LN3:
	mov	QWORD PTR [rsp+8], rcx
	push	rbp
	push	rdi
	sub	rsp, 232				; 000000e8H
	lea	rbp, QWORD PTR [rsp+32]
	mov	rdi, rsp
	mov	ecx, 58					; 0000003aH
	mov	eax, -858993460				; ccccccccH
	rep stosd
	mov	rcx, QWORD PTR [rsp+264]
	lea	rcx, OFFSET FLAT:__D0767A1C_cpp_standard_headers_indexer@cpp
	call	__CheckForDebuggerJustMyCode
	lea	rsp, QWORD PTR [rbp+200]
	pop	rdi
	pop	rbp
	ret	0
?__empty_global_delete@@YAXPEAX@Z ENDP			; __empty_global_delete
_TEXT	ENDS
END
