; Listing generated by Microsoft (R) Optimizing Compiler Version 19.16.27026.1 

include listing.inc

INCLUDELIB MSVCRTD
INCLUDELIB OLDNAMES

msvcjmc	SEGMENT
__7B7A869E_ctype@h DB 01H
__457DD326_basetsd@h DB 01H
__4384A2D9_corecrt_memcpy_s@h DB 01H
__4E51A221_corecrt_wstring@h DB 01H
__2140C079_string@h DB 01H
__1887E595_winnt@h DB 01H
__9FC7C64B_processthreadsapi@h DB 01H
__FA470AEC_memoryapi@h DB 01H
__F37DAFF1_winerror@h DB 01H
__7A450CCC_winbase@h DB 01H
__B4B40122_winioctl@h DB 01H
__86261D59_stralign@h DB 01H
__4522B509_pmc_internal@h DB 01H
__1C66ECB2_pmc_debug@h DB 01H
__0F2941F6_internaltest_op_divrem@c DB 01H
msvcjmc	ENDS
PUBLIC	INTERNALTEST_DivRem_X_X
PUBLIC	__JustMyCode_Default
PUBLIC	??_C@_0BP@PFJMNPMB@work_v_buf?$IC?L?$JD?$OA?$JHe?$IC?$KK?$JEj?$JB?$LJ?$IC?$LF?$IC?D?$IC?$KC?$IC?i@ ; `string'
PUBLIC	??_C@_0BD@EJLHCECA@DivRem_X_X?5?$CI?$CFd?4?$CFd?$CJ@ ; `string'
PUBLIC	??_C@_0CB@DDIDAHNF@actual_q_buf?$IC?L?$JD?$OA?$JHe?$IC?$KK?$JEj?$JB?$LJ?$IC?$LF?$IC?D?$IC?$KC?$IC@ ; `string'
PUBLIC	??_C@_0CB@MBNEOKCN@actual_r_buf?$IC?L?$JD?$OA?$JHe?$IC?$KK?$JEj?$JB?$LJ?$IC?$LF?$IC?D?$IC?$KC?$IC@ ; `string'
PUBLIC	??_C@_0BN@IFNEHHGD@?$IP?$KE?$IC?L?$IDf?$IB?$FL?$ID?$FO?$IC?L?$JD?$OA?$JHe?$IC?$KK?$II?j?$JCv?$IC?$LF?$IC?H?$IC?$KC@ ; `string'
PUBLIC	??_C@_0BP@OILCCJPC@?$IP?h?$JH?$FN?$IC?L?$IDf?$IB?$FL?$ID?$FO?$IC?L?$JD?$OA?$JHe?$IC?$KK?$II?j?$JCv?$IC?$LF?$IC?H?$IC?$KC@ ; `string'
EXTRN	AllocateBlock:PROC
EXTRN	DeallocateBlock:PROC
EXTRN	CheckBlockLight:PROC
EXTRN	DivRem_X_X:PROC
EXTRN	TEST_Assert:PROC
EXTRN	FormatTestLabel:PROC
EXTRN	_RTC_CheckStackVars:PROC
EXTRN	_RTC_InitBase:PROC
EXTRN	_RTC_Shutdown:PROC
EXTRN	__CheckForDebuggerJustMyCode:PROC
;	COMDAT pdata
pdata	SEGMENT
$pdata$_COPY_MEMORY_BYTE DD imagerel _COPY_MEMORY_BYTE
	DD	imagerel _COPY_MEMORY_BYTE+99
	DD	imagerel $unwind$_COPY_MEMORY_BYTE
pdata	ENDS
;	COMDAT pdata
pdata	SEGMENT
$pdata$INTERNALTEST_DivRem_X_X DD imagerel $LN21
	DD	imagerel $LN21+1447
	DD	imagerel $unwind$INTERNALTEST_DivRem_X_X
pdata	ENDS
;	COMDAT pdata
pdata	SEGMENT
$pdata$_EQUALS_MEMORY DD imagerel _EQUALS_MEMORY
	DD	imagerel _EQUALS_MEMORY+198
	DD	imagerel $unwind$_EQUALS_MEMORY
pdata	ENDS
;	COMDAT rtc$TMZ
rtc$TMZ	SEGMENT
_RTC_Shutdown.rtc$TMZ DQ FLAT:_RTC_Shutdown
rtc$TMZ	ENDS
;	COMDAT rtc$IMZ
rtc$IMZ	SEGMENT
_RTC_InitBase.rtc$IMZ DQ FLAT:_RTC_InitBase
rtc$IMZ	ENDS
;	COMDAT ??_C@_0BP@OILCCJPC@?$IP?h?$JH?$FN?$IC?L?$IDf?$IB?$FL?$ID?$FO?$IC?L?$JD?$OA?$JHe?$IC?$KK?$II?j?$JCv?$IC?$LF?$IC?H?$IC?$KC@
CONST	SEGMENT
??_C@_0BP@OILCCJPC@?$IP?h?$JH?$FN?$IC?L?$IDf?$IB?$FL?$ID?$FO?$IC?L?$JD?$OA?$JHe?$IC?$KK?$II?j?$JCv?$IC?$LF?$IC?H?$IC?$KC@ DB 08fH
	DB	0e8H, 097H, ']', 082H, 0ccH, 083H, 'f', 081H, '[', 083H, '^', 082H
	DB	0ccH, 093H, 0e0H, 097H, 'e', 082H, 0aaH, 088H, 0eaH, 092H, 'v', 082H
	DB	0b5H, 082H, 0c8H, 082H, 0a2H, 00H		; `string'
CONST	ENDS
;	COMDAT ??_C@_0BN@IFNEHHGD@?$IP?$KE?$IC?L?$IDf?$IB?$FL?$ID?$FO?$IC?L?$JD?$OA?$JHe?$IC?$KK?$II?j?$JCv?$IC?$LF?$IC?H?$IC?$KC@
CONST	SEGMENT
??_C@_0BN@IFNEHHGD@?$IP?$KE?$IC?L?$IDf?$IB?$FL?$ID?$FO?$IC?L?$JD?$OA?$JHe?$IC?$KK?$II?j?$JCv?$IC?$LF?$IC?H?$IC?$KC@ DB 08fH
	DB	0a4H, 082H, 0ccH, 083H, 'f', 081H, '[', 083H, '^', 082H, 0ccH, 093H
	DB	0e0H, 097H, 'e', 082H, 0aaH, 088H, 0eaH, 092H, 'v', 082H, 0b5H
	DB	082H, 0c8H, 082H, 0a2H, 00H			; `string'
CONST	ENDS
;	COMDAT ??_C@_0CB@MBNEOKCN@actual_r_buf?$IC?L?$JD?$OA?$JHe?$IC?$KK?$JEj?$JB?$LJ?$IC?$LF?$IC?D?$IC?$KC?$IC@
CONST	SEGMENT
??_C@_0CB@MBNEOKCN@actual_r_buf?$IC?L?$JD?$OA?$JHe?$IC?$KK?$JEj?$JB?$LJ?$IC?$LF?$IC?D?$IC?$KC?$IC@ DB 'a'
	DB	'ctual_r_buf', 082H, 0ccH, 093H, 0e0H, 097H, 'e', 082H, 0aaH, 094H
	DB	'j', 091H, 0b9H, 082H, 0b5H, 082H, 0c4H, 082H, 0a2H, 082H, 0e9H
	DB	00H						; `string'
CONST	ENDS
;	COMDAT ??_C@_0CB@DDIDAHNF@actual_q_buf?$IC?L?$JD?$OA?$JHe?$IC?$KK?$JEj?$JB?$LJ?$IC?$LF?$IC?D?$IC?$KC?$IC@
CONST	SEGMENT
??_C@_0CB@DDIDAHNF@actual_q_buf?$IC?L?$JD?$OA?$JHe?$IC?$KK?$JEj?$JB?$LJ?$IC?$LF?$IC?D?$IC?$KC?$IC@ DB 'a'
	DB	'ctual_q_buf', 082H, 0ccH, 093H, 0e0H, 097H, 'e', 082H, 0aaH, 094H
	DB	'j', 091H, 0b9H, 082H, 0b5H, 082H, 0c4H, 082H, 0a2H, 082H, 0e9H
	DB	00H						; `string'
CONST	ENDS
;	COMDAT ??_C@_0BD@EJLHCECA@DivRem_X_X?5?$CI?$CFd?4?$CFd?$CJ@
CONST	SEGMENT
??_C@_0BD@EJLHCECA@DivRem_X_X?5?$CI?$CFd?4?$CFd?$CJ@ DB 'DivRem_X_X (%d.%'
	DB	'd)', 00H					; `string'
CONST	ENDS
;	COMDAT ??_C@_0BP@PFJMNPMB@work_v_buf?$IC?L?$JD?$OA?$JHe?$IC?$KK?$JEj?$JB?$LJ?$IC?$LF?$IC?D?$IC?$KC?$IC?i@
CONST	SEGMENT
??_C@_0BP@PFJMNPMB@work_v_buf?$IC?L?$JD?$OA?$JHe?$IC?$KK?$JEj?$JB?$LJ?$IC?$LF?$IC?D?$IC?$KC?$IC?i@ DB 'w'
	DB	'ork_v_buf', 082H, 0ccH, 093H, 0e0H, 097H, 'e', 082H, 0aaH, 094H
	DB	'j', 091H, 0b9H, 082H, 0b5H, 082H, 0c4H, 082H, 0a2H, 082H, 0e9H
	DB	00H						; `string'
CONST	ENDS
;	COMDAT xdata
xdata	SEGMENT
$unwind$_EQUALS_MEMORY DD 025053901H
	DD	011d2322H
	DD	07016001dH
	DD	05015H
xdata	ENDS
;	COMDAT xdata
xdata	SEGMENT
$unwind$INTERNALTEST_DivRem_X_X DD 045053901H
	DD	011d4322H
	DD	07016009dH
	DD	05015H
xdata	ENDS
;	COMDAT CONST
CONST	SEGMENT
INTERNALTEST_DivRem_X_X$rtcName$0 DB 075H
	DB	05fH
	DB	062H
	DB	075H
	DB	066H
	DB	05fH
	DB	077H
	DB	06fH
	DB	072H
	DB	064H
	DB	073H
	DB	00H
	ORG $+4
INTERNALTEST_DivRem_X_X$rtcName$1 DB 075H
	DB	05fH
	DB	062H
	DB	075H
	DB	066H
	DB	05fH
	DB	063H
	DB	06fH
	DB	064H
	DB	065H
	DB	00H
	ORG $+5
INTERNALTEST_DivRem_X_X$rtcName$2 DB 076H
	DB	05fH
	DB	062H
	DB	075H
	DB	066H
	DB	05fH
	DB	077H
	DB	06fH
	DB	072H
	DB	064H
	DB	073H
	DB	00H
	ORG $+4
INTERNALTEST_DivRem_X_X$rtcName$3 DB 076H
	DB	05fH
	DB	062H
	DB	075H
	DB	066H
	DB	05fH
	DB	063H
	DB	06fH
	DB	064H
	DB	065H
	DB	00H
	ORG $+5
INTERNALTEST_DivRem_X_X$rtcName$4 DB 064H
	DB	065H
	DB	073H
	DB	069H
	DB	072H
	DB	065H
	DB	064H
	DB	05fH
	DB	071H
	DB	05fH
	DB	062H
	DB	075H
	DB	066H
	DB	05fH
	DB	077H
	DB	06fH
	DB	072H
	DB	064H
	DB	073H
	DB	00H
	ORG $+4
INTERNALTEST_DivRem_X_X$rtcName$5 DB 064H
	DB	065H
	DB	073H
	DB	069H
	DB	072H
	DB	065H
	DB	064H
	DB	05fH
	DB	071H
	DB	05fH
	DB	062H
	DB	075H
	DB	066H
	DB	05fH
	DB	063H
	DB	06fH
	DB	064H
	DB	065H
	DB	00H
	ORG $+5
INTERNALTEST_DivRem_X_X$rtcName$6 DB 064H
	DB	065H
	DB	073H
	DB	069H
	DB	072H
	DB	065H
	DB	064H
	DB	05fH
	DB	072H
	DB	05fH
	DB	062H
	DB	075H
	DB	066H
	DB	05fH
	DB	077H
	DB	06fH
	DB	072H
	DB	064H
	DB	073H
	DB	00H
	ORG $+4
INTERNALTEST_DivRem_X_X$rtcName$7 DB 064H
	DB	065H
	DB	073H
	DB	069H
	DB	072H
	DB	065H
	DB	064H
	DB	05fH
	DB	072H
	DB	05fH
	DB	062H
	DB	075H
	DB	066H
	DB	05fH
	DB	063H
	DB	06fH
	DB	064H
	DB	065H
	DB	00H
	ORG $+5
INTERNALTEST_DivRem_X_X$rtcName$8 DB 077H
	DB	06fH
	DB	072H
	DB	06bH
	DB	05fH
	DB	076H
	DB	05fH
	DB	062H
	DB	075H
	DB	066H
	DB	05fH
	DB	077H
	DB	06fH
	DB	072H
	DB	064H
	DB	073H
	DB	00H
	ORG $+7
INTERNALTEST_DivRem_X_X$rtcName$9 DB 077H
	DB	06fH
	DB	072H
	DB	06bH
	DB	05fH
	DB	076H
	DB	05fH
	DB	062H
	DB	075H
	DB	066H
	DB	05fH
	DB	063H
	DB	06fH
	DB	064H
	DB	065H
	DB	00H
INTERNALTEST_DivRem_X_X$rtcName$10 DB 061H
	DB	063H
	DB	074H
	DB	075H
	DB	061H
	DB	06cH
	DB	05fH
	DB	071H
	DB	05fH
	DB	062H
	DB	075H
	DB	066H
	DB	05fH
	DB	077H
	DB	06fH
	DB	072H
	DB	064H
	DB	073H
	DB	00H
	ORG $+5
INTERNALTEST_DivRem_X_X$rtcName$11 DB 061H
	DB	063H
	DB	074H
	DB	075H
	DB	061H
	DB	06cH
	DB	05fH
	DB	071H
	DB	05fH
	DB	062H
	DB	075H
	DB	066H
	DB	05fH
	DB	063H
	DB	06fH
	DB	064H
	DB	065H
	DB	00H
	ORG $+6
INTERNALTEST_DivRem_X_X$rtcName$12 DB 061H
	DB	063H
	DB	074H
	DB	075H
	DB	061H
	DB	06cH
	DB	05fH
	DB	072H
	DB	05fH
	DB	062H
	DB	075H
	DB	066H
	DB	05fH
	DB	077H
	DB	06fH
	DB	072H
	DB	064H
	DB	073H
	DB	00H
	ORG $+5
INTERNALTEST_DivRem_X_X$rtcName$13 DB 061H
	DB	063H
	DB	074H
	DB	075H
	DB	061H
	DB	06cH
	DB	05fH
	DB	072H
	DB	05fH
	DB	062H
	DB	075H
	DB	066H
	DB	05fH
	DB	063H
	DB	06fH
	DB	064H
	DB	065H
	DB	00H
	ORG $+6
INTERNALTEST_DivRem_X_X$rtcFrameData DD 0eH
	DD	00H
	DQ	FLAT:INTERNALTEST_DivRem_X_X$rtcVarDesc
	ORG $+8
INTERNALTEST_DivRem_X_X$rtcVarDesc DD 02a8H
	DD	08H
	DQ	FLAT:INTERNALTEST_DivRem_X_X$rtcName$13
	DD	0288H
	DD	08H
	DQ	FLAT:INTERNALTEST_DivRem_X_X$rtcName$12
	DD	0248H
	DD	08H
	DQ	FLAT:INTERNALTEST_DivRem_X_X$rtcName$11
	DD	0228H
	DD	08H
	DQ	FLAT:INTERNALTEST_DivRem_X_X$rtcName$10
	DD	01e8H
	DD	08H
	DQ	FLAT:INTERNALTEST_DivRem_X_X$rtcName$9
	DD	01c8H
	DD	08H
	DQ	FLAT:INTERNALTEST_DivRem_X_X$rtcName$8
	DD	0188H
	DD	08H
	DQ	FLAT:INTERNALTEST_DivRem_X_X$rtcName$7
	DD	0168H
	DD	08H
	DQ	FLAT:INTERNALTEST_DivRem_X_X$rtcName$6
	DD	0128H
	DD	08H
	DQ	FLAT:INTERNALTEST_DivRem_X_X$rtcName$5
	DD	0108H
	DD	08H
	DQ	FLAT:INTERNALTEST_DivRem_X_X$rtcName$4
	DD	0c8H
	DD	08H
	DQ	FLAT:INTERNALTEST_DivRem_X_X$rtcName$3
	DD	0a8H
	DD	08H
	DQ	FLAT:INTERNALTEST_DivRem_X_X$rtcName$2
	DD	068H
	DD	08H
	DQ	FLAT:INTERNALTEST_DivRem_X_X$rtcName$1
	DD	048H
	DD	08H
	DQ	FLAT:INTERNALTEST_DivRem_X_X$rtcName$0
CONST	ENDS
;	COMDAT xdata
xdata	SEGMENT
$unwind$_COPY_MEMORY_BYTE DD 025063501H
	DD	0119231eH
	DD	07012001cH
	DD	050106011H
xdata	ENDS
; Function compile flags: /Odt
;	COMDAT __JustMyCode_Default
_TEXT	SEGMENT
__JustMyCode_Default PROC				; COMDAT
	ret	0
__JustMyCode_Default ENDP
_TEXT	ENDS
; Function compile flags: /Odtp /RTCsu /ZI
; File z:\sources\lunor\repos\rougemeilland\palmtree.math.core.implements\palmtree.math.core.implements\pmc_debug.h
;	COMDAT _EQUALS_MEMORY
_TEXT	SEGMENT
buffer1$ = 224
count1$ = 232
buffer2$ = 240
count2$ = 248
_EQUALS_MEMORY PROC					; COMDAT

; 155  : {

	mov	QWORD PTR [rsp+32], r9
	mov	QWORD PTR [rsp+24], r8
	mov	QWORD PTR [rsp+16], rdx
	mov	QWORD PTR [rsp+8], rcx
	push	rbp
	push	rdi
	sub	rsp, 232				; 000000e8H
	lea	rbp, QWORD PTR [rsp+32]
	mov	rdi, rsp
	mov	ecx, 58					; 0000003aH
	mov	eax, -858993460				; ccccccccH
	rep stosd
	mov	rcx, QWORD PTR [rsp+264]
	lea	rcx, OFFSET FLAT:__1C66ECB2_pmc_debug@h
	call	__CheckForDebuggerJustMyCode

; 156  :     if (count1 != count2)

	mov	rax, QWORD PTR count2$[rbp]
	cmp	QWORD PTR count1$[rbp], rax
	je	SHORT $LN4@EQUALS_MEM

; 157  :         return (-1);

	mov	eax, -1
	jmp	SHORT $LN1@EQUALS_MEM
$LN4@EQUALS_MEM:
$LN2@EQUALS_MEM:

; 158  :     while (count1 > 0)

	cmp	QWORD PTR count1$[rbp], 0
	jbe	SHORT $LN3@EQUALS_MEM

; 159  :     {
; 160  :         if (*buffer1 != *buffer2)

	mov	rax, QWORD PTR buffer1$[rbp]
	movzx	eax, BYTE PTR [rax]
	mov	rcx, QWORD PTR buffer2$[rbp]
	movzx	ecx, BYTE PTR [rcx]
	cmp	eax, ecx
	je	SHORT $LN5@EQUALS_MEM

; 161  :             return (-1);

	mov	eax, -1
	jmp	SHORT $LN1@EQUALS_MEM
$LN5@EQUALS_MEM:

; 162  :         ++buffer1;

	mov	rax, QWORD PTR buffer1$[rbp]
	inc	rax
	mov	QWORD PTR buffer1$[rbp], rax

; 163  :         ++buffer2;

	mov	rax, QWORD PTR buffer2$[rbp]
	inc	rax
	mov	QWORD PTR buffer2$[rbp], rax

; 164  :         --count1;

	mov	rax, QWORD PTR count1$[rbp]
	dec	rax
	mov	QWORD PTR count1$[rbp], rax

; 165  :     }

	jmp	SHORT $LN2@EQUALS_MEM
$LN3@EQUALS_MEM:

; 166  :     return (0);

	xor	eax, eax
$LN1@EQUALS_MEM:

; 167  : }

	lea	rsp, QWORD PTR [rbp+200]
	pop	rdi
	pop	rbp
	ret	0
_EQUALS_MEMORY ENDP
_TEXT	ENDS
; Function compile flags: /Odtp /RTCsu /ZI
; File z:\sources\lunor\repos\rougemeilland\palmtree.math.core.implements\palmtree.math.core.implements\internaltest_op_divrem.c
;	COMDAT INTERNALTEST_DivRem_X_X
_TEXT	SEGMENT
u_buf_words$ = 8
u_buf_code$ = 40
u_buf$ = 72
v_buf_words$ = 104
v_buf_code$ = 136
v_buf$ = 168
desired_q_buf_words$ = 200
desired_q_buf_code$ = 232
desired_q_buf$ = 264
desired_r_buf_words$ = 296
desired_r_buf_code$ = 328
desired_r_buf$ = 360
work_v_buf_words$ = 392
work_v_buf_code$ = 424
work_v_buf$ = 456
actual_q_buf_words$ = 488
actual_q_buf_code$ = 520
actual_q_buf$ = 552
actual_r_buf_words$ = 584
actual_r_buf_code$ = 616
actual_r_buf$ = 648
actual_q_count$ = 680
actual_q$ = 712
actual_r_count$ = 744
actual_r$ = 776
tv267 = 1172
tv252 = 1172
tv237 = 1172
tv224 = 1172
tv211 = 1172
tv141 = 1176
env$ = 1216
ep$ = 1224
no$ = 1232
u$ = 1240
u_count$ = 1248
v$ = 1256
v_count$ = 1264
desired_q$ = 1272
desired_q_count$ = 1280
desired_r$ = 1288
desired_r_count$ = 1296
INTERNALTEST_DivRem_X_X PROC				; COMDAT

; 40   : {

$LN21:
	mov	QWORD PTR [rsp+32], r9
	mov	DWORD PTR [rsp+24], r8d
	mov	QWORD PTR [rsp+16], rdx
	mov	QWORD PTR [rsp+8], rcx
	push	rbp
	push	rdi
	sub	rsp, 1256				; 000004e8H
	lea	rbp, QWORD PTR [rsp+64]
	mov	rdi, rsp
	mov	ecx, 314				; 0000013aH
	mov	eax, -858993460				; ccccccccH
	rep stosd
	mov	rcx, QWORD PTR [rsp+1288]
	lea	rcx, OFFSET FLAT:__0F2941F6_internaltest_op_divrem@c
	call	__CheckForDebuggerJustMyCode

; 41   :     __UNIT_TYPE u_buf_words;
; 42   :     __UNIT_TYPE u_buf_code;
; 43   :     __UNIT_TYPE* u_buf = AllocateBlock(u_count * 8, &u_buf_words, &u_buf_code);

	mov	rax, QWORD PTR u_count$[rbp]
	shl	rax, 3
	lea	r8, QWORD PTR u_buf_code$[rbp]
	lea	rdx, QWORD PTR u_buf_words$[rbp]
	mov	rcx, rax
	call	AllocateBlock
	mov	QWORD PTR u_buf$[rbp], rax

; 44   :     _COPY_MEMORY_BYTE(u_buf, u, u_count);

	mov	r8, QWORD PTR u_count$[rbp]
	mov	rdx, QWORD PTR u$[rbp]
	mov	rcx, QWORD PTR u_buf$[rbp]
	call	_COPY_MEMORY_BYTE

; 45   : 
; 46   :     __UNIT_TYPE v_buf_words;
; 47   :     __UNIT_TYPE v_buf_code;
; 48   :     __UNIT_TYPE* v_buf = AllocateBlock(v_count * 8, &v_buf_words, &v_buf_code);

	mov	rax, QWORD PTR v_count$[rbp]
	shl	rax, 3
	lea	r8, QWORD PTR v_buf_code$[rbp]
	lea	rdx, QWORD PTR v_buf_words$[rbp]
	mov	rcx, rax
	call	AllocateBlock
	mov	QWORD PTR v_buf$[rbp], rax

; 49   :     _COPY_MEMORY_BYTE(v_buf, v, v_count);

	mov	r8, QWORD PTR v_count$[rbp]
	mov	rdx, QWORD PTR v$[rbp]
	mov	rcx, QWORD PTR v_buf$[rbp]
	call	_COPY_MEMORY_BYTE

; 50   : 
; 51   :     __UNIT_TYPE desired_q_buf_words;
; 52   :     __UNIT_TYPE desired_q_buf_code;
; 53   :     __UNIT_TYPE* desired_q_buf = AllocateBlock(desired_q_count * 8, &desired_q_buf_words, &desired_q_buf_code);

	mov	rax, QWORD PTR desired_q_count$[rbp]
	shl	rax, 3
	lea	r8, QWORD PTR desired_q_buf_code$[rbp]
	lea	rdx, QWORD PTR desired_q_buf_words$[rbp]
	mov	rcx, rax
	call	AllocateBlock
	mov	QWORD PTR desired_q_buf$[rbp], rax

; 54   :     _COPY_MEMORY_BYTE(desired_q_buf, desired_q, desired_q_count);

	mov	r8, QWORD PTR desired_q_count$[rbp]
	mov	rdx, QWORD PTR desired_q$[rbp]
	mov	rcx, QWORD PTR desired_q_buf$[rbp]
	call	_COPY_MEMORY_BYTE

; 55   : 
; 56   :     __UNIT_TYPE desired_r_buf_words;
; 57   :     __UNIT_TYPE desired_r_buf_code;
; 58   :     __UNIT_TYPE* desired_r_buf = AllocateBlock(desired_r_count * 8, &desired_r_buf_words, &desired_r_buf_code);

	mov	rax, QWORD PTR desired_r_count$[rbp]
	shl	rax, 3
	lea	r8, QWORD PTR desired_r_buf_code$[rbp]
	lea	rdx, QWORD PTR desired_r_buf_words$[rbp]
	mov	rcx, rax
	call	AllocateBlock
	mov	QWORD PTR desired_r_buf$[rbp], rax

; 59   :     _COPY_MEMORY_BYTE(desired_r_buf, desired_r, desired_r_count);

	mov	r8, QWORD PTR desired_r_count$[rbp]
	mov	rdx, QWORD PTR desired_r$[rbp]
	mov	rcx, QWORD PTR desired_r_buf$[rbp]
	call	_COPY_MEMORY_BYTE

; 60   : 
; 61   :     __UNIT_TYPE work_v_buf_words;
; 62   :     __UNIT_TYPE work_v_buf_code;
; 63   :     __UNIT_TYPE* work_v_buf = AllocateBlock(v_count * 8, &work_v_buf_words, &work_v_buf_code);

	mov	rax, QWORD PTR v_count$[rbp]
	shl	rax, 3
	lea	r8, QWORD PTR work_v_buf_code$[rbp]
	lea	rdx, QWORD PTR work_v_buf_words$[rbp]
	mov	rcx, rax
	call	AllocateBlock
	mov	QWORD PTR work_v_buf$[rbp], rax

; 64   : 
; 65   :     __UNIT_TYPE actual_q_buf_words;
; 66   :     __UNIT_TYPE actual_q_buf_code;
; 67   :     __UNIT_TYPE* actual_q_buf = AllocateBlock(u_count > v_count ? (u_count - v_count + 1) * 8 + __UNIT_TYPE_BIT_COUNT : __UNIT_TYPE_BIT_COUNT, &actual_q_buf_words, &actual_q_buf_code);

	mov	rax, QWORD PTR v_count$[rbp]
	cmp	QWORD PTR u_count$[rbp], rax
	jbe	SHORT $LN9@INTERNALTE
	mov	rax, QWORD PTR v_count$[rbp]
	mov	rcx, QWORD PTR u_count$[rbp]
	sub	rcx, rax
	mov	rax, rcx
	lea	rax, QWORD PTR [rax*8+72]
	mov	QWORD PTR tv141[rbp], rax
	jmp	SHORT $LN10@INTERNALTE
$LN9@INTERNALTE:
	mov	QWORD PTR tv141[rbp], 64		; 00000040H
$LN10@INTERNALTE:
	lea	r8, QWORD PTR actual_q_buf_code$[rbp]
	lea	rdx, QWORD PTR actual_q_buf_words$[rbp]
	mov	rcx, QWORD PTR tv141[rbp]
	call	AllocateBlock
	mov	QWORD PTR actual_q_buf$[rbp], rax

; 68   : 
; 69   :     __UNIT_TYPE actual_r_buf_words;
; 70   :     __UNIT_TYPE actual_r_buf_code;
; 71   :     __UNIT_TYPE* actual_r_buf = AllocateBlock(u_count * 8 + __UNIT_TYPE_BIT_COUNT, &actual_r_buf_words, &actual_r_buf_code);

	mov	rax, QWORD PTR u_count$[rbp]
	lea	rax, QWORD PTR [rax*8+64]
	lea	r8, QWORD PTR actual_r_buf_code$[rbp]
	lea	rdx, QWORD PTR actual_r_buf_words$[rbp]
	mov	rcx, rax
	call	AllocateBlock
	mov	QWORD PTR actual_r_buf$[rbp], rax

; 72   : 
; 73   :     DivRem_X_X(u_buf, u_buf_words, v_buf, v_buf_words, work_v_buf, actual_q_buf, actual_r_buf);

	mov	rax, QWORD PTR actual_r_buf$[rbp]
	mov	QWORD PTR [rsp+48], rax
	mov	rax, QWORD PTR actual_q_buf$[rbp]
	mov	QWORD PTR [rsp+40], rax
	mov	rax, QWORD PTR work_v_buf$[rbp]
	mov	QWORD PTR [rsp+32], rax
	mov	r9, QWORD PTR v_buf_words$[rbp]
	mov	r8, QWORD PTR v_buf$[rbp]
	mov	rdx, QWORD PTR u_buf_words$[rbp]
	mov	rcx, QWORD PTR u_buf$[rbp]
	call	DivRem_X_X

; 74   : 
; 75   :     size_t actual_q_count = actual_q_buf_words * __UNIT_TYPE_BYTE_COUNT;

	mov	rax, QWORD PTR actual_q_buf_words$[rbp]
	shl	rax, 3
	mov	QWORD PTR actual_q_count$[rbp], rax

; 76   :     unsigned char* actual_q = (unsigned char*)actual_q_buf;

	mov	rax, QWORD PTR actual_q_buf$[rbp]
	mov	QWORD PTR actual_q$[rbp], rax
$LN2@INTERNALTE:

; 77   :     while (actual_q_count > 0 && actual_q[actual_q_count - 1] == 0)

	cmp	QWORD PTR actual_q_count$[rbp], 0
	jbe	SHORT $LN3@INTERNALTE
	mov	rax, QWORD PTR actual_q_count$[rbp]
	mov	rcx, QWORD PTR actual_q$[rbp]
	add	rcx, rax
	mov	rax, rcx
	movzx	eax, BYTE PTR [rax-1]
	test	eax, eax
	jne	SHORT $LN3@INTERNALTE

; 78   :         --actual_q_count;

	mov	rax, QWORD PTR actual_q_count$[rbp]
	dec	rax
	mov	QWORD PTR actual_q_count$[rbp], rax
	jmp	SHORT $LN2@INTERNALTE
$LN3@INTERNALTE:

; 79   :     if (actual_q_count == 0)

	cmp	QWORD PTR actual_q_count$[rbp], 0
	jne	SHORT $LN6@INTERNALTE

; 80   :         actual_q_count = 1;

	mov	QWORD PTR actual_q_count$[rbp], 1
$LN6@INTERNALTE:

; 81   : 
; 82   :     size_t actual_r_count = actual_r_buf_words * __UNIT_TYPE_BYTE_COUNT;

	mov	rax, QWORD PTR actual_r_buf_words$[rbp]
	shl	rax, 3
	mov	QWORD PTR actual_r_count$[rbp], rax

; 83   :     unsigned char* actual_r = (unsigned char*)actual_r_buf;

	mov	rax, QWORD PTR actual_r_buf$[rbp]
	mov	QWORD PTR actual_r$[rbp], rax
$LN4@INTERNALTE:

; 84   :     while (actual_r_count > 0 && actual_r[actual_r_count - 1] == 0)

	cmp	QWORD PTR actual_r_count$[rbp], 0
	jbe	SHORT $LN5@INTERNALTE
	mov	rax, QWORD PTR actual_r_count$[rbp]
	mov	rcx, QWORD PTR actual_r$[rbp]
	add	rcx, rax
	mov	rax, rcx
	movzx	eax, BYTE PTR [rax-1]
	test	eax, eax
	jne	SHORT $LN5@INTERNALTE

; 85   :         --actual_r_count;

	mov	rax, QWORD PTR actual_r_count$[rbp]
	dec	rax
	mov	QWORD PTR actual_r_count$[rbp], rax
	jmp	SHORT $LN4@INTERNALTE
$LN5@INTERNALTE:

; 86   :     if (actual_r_count == 0)

	cmp	QWORD PTR actual_r_count$[rbp], 0
	jne	SHORT $LN7@INTERNALTE

; 87   :         actual_r_count = 1;

	mov	QWORD PTR actual_r_count$[rbp], 1
$LN7@INTERNALTE:

; 88   : 
; 89   :     TEST_Assert(env, FormatTestLabel("DivRem_X_X (%d.%d)", no, 1), CheckBlockLight(work_v_buf, work_v_buf_code) == PMC_STATUS_OK, "work_v_bufの内容が破損している");

	mov	rdx, QWORD PTR work_v_buf_code$[rbp]
	mov	rcx, QWORD PTR work_v_buf$[rbp]
	call	CheckBlockLight
	test	eax, eax
	jne	SHORT $LN11@INTERNALTE
	mov	DWORD PTR tv211[rbp], 1
	jmp	SHORT $LN12@INTERNALTE
$LN11@INTERNALTE:
	mov	DWORD PTR tv211[rbp], 0
$LN12@INTERNALTE:
	mov	r8d, 1
	mov	edx, DWORD PTR no$[rbp]
	lea	rcx, OFFSET FLAT:??_C@_0BD@EJLHCECA@DivRem_X_X?5?$CI?$CFd?4?$CFd?$CJ@
	call	FormatTestLabel
	lea	r9, OFFSET FLAT:??_C@_0BP@PFJMNPMB@work_v_buf?$IC?L?$JD?$OA?$JHe?$IC?$KK?$JEj?$JB?$LJ?$IC?$LF?$IC?D?$IC?$KC?$IC?i@
	mov	r8d, DWORD PTR tv211[rbp]
	mov	rdx, rax
	mov	rcx, QWORD PTR env$[rbp]
	call	TEST_Assert

; 90   :     TEST_Assert(env, FormatTestLabel("DivRem_X_X (%d.%d)", no, 2), CheckBlockLight(actual_q_buf, actual_q_buf_code) == PMC_STATUS_OK, "actual_q_bufの内容が破損している");

	mov	rdx, QWORD PTR actual_q_buf_code$[rbp]
	mov	rcx, QWORD PTR actual_q_buf$[rbp]
	call	CheckBlockLight
	test	eax, eax
	jne	SHORT $LN13@INTERNALTE
	mov	DWORD PTR tv224[rbp], 1
	jmp	SHORT $LN14@INTERNALTE
$LN13@INTERNALTE:
	mov	DWORD PTR tv224[rbp], 0
$LN14@INTERNALTE:
	mov	r8d, 2
	mov	edx, DWORD PTR no$[rbp]
	lea	rcx, OFFSET FLAT:??_C@_0BD@EJLHCECA@DivRem_X_X?5?$CI?$CFd?4?$CFd?$CJ@
	call	FormatTestLabel
	lea	r9, OFFSET FLAT:??_C@_0CB@DDIDAHNF@actual_q_buf?$IC?L?$JD?$OA?$JHe?$IC?$KK?$JEj?$JB?$LJ?$IC?$LF?$IC?D?$IC?$KC?$IC@
	mov	r8d, DWORD PTR tv224[rbp]
	mov	rdx, rax
	mov	rcx, QWORD PTR env$[rbp]
	call	TEST_Assert

; 91   :     TEST_Assert(env, FormatTestLabel("DivRem_X_X (%d.%d)", no, 3), CheckBlockLight(actual_r_buf, actual_r_buf_code) == PMC_STATUS_OK, "actual_r_bufの内容が破損している");

	mov	rdx, QWORD PTR actual_r_buf_code$[rbp]
	mov	rcx, QWORD PTR actual_r_buf$[rbp]
	call	CheckBlockLight
	test	eax, eax
	jne	SHORT $LN15@INTERNALTE
	mov	DWORD PTR tv237[rbp], 1
	jmp	SHORT $LN16@INTERNALTE
$LN15@INTERNALTE:
	mov	DWORD PTR tv237[rbp], 0
$LN16@INTERNALTE:
	mov	r8d, 3
	mov	edx, DWORD PTR no$[rbp]
	lea	rcx, OFFSET FLAT:??_C@_0BD@EJLHCECA@DivRem_X_X?5?$CI?$CFd?4?$CFd?$CJ@
	call	FormatTestLabel
	lea	r9, OFFSET FLAT:??_C@_0CB@MBNEOKCN@actual_r_buf?$IC?L?$JD?$OA?$JHe?$IC?$KK?$JEj?$JB?$LJ?$IC?$LF?$IC?D?$IC?$KC?$IC@
	mov	r8d, DWORD PTR tv237[rbp]
	mov	rdx, rax
	mov	rcx, QWORD PTR env$[rbp]
	call	TEST_Assert

; 92   :     TEST_Assert(env, FormatTestLabel("DivRem_X_X (%d.%d)", no, 4), _EQUALS_MEMORY(actual_q, actual_q_count, desired_q, desired_q_count) == 0, "商のデータの内容が一致しない");

	mov	r9, QWORD PTR desired_q_count$[rbp]
	mov	r8, QWORD PTR desired_q$[rbp]
	mov	rdx, QWORD PTR actual_q_count$[rbp]
	mov	rcx, QWORD PTR actual_q$[rbp]
	call	_EQUALS_MEMORY
	test	eax, eax
	jne	SHORT $LN17@INTERNALTE
	mov	DWORD PTR tv252[rbp], 1
	jmp	SHORT $LN18@INTERNALTE
$LN17@INTERNALTE:
	mov	DWORD PTR tv252[rbp], 0
$LN18@INTERNALTE:
	mov	r8d, 4
	mov	edx, DWORD PTR no$[rbp]
	lea	rcx, OFFSET FLAT:??_C@_0BD@EJLHCECA@DivRem_X_X?5?$CI?$CFd?4?$CFd?$CJ@
	call	FormatTestLabel
	lea	r9, OFFSET FLAT:??_C@_0BN@IFNEHHGD@?$IP?$KE?$IC?L?$IDf?$IB?$FL?$ID?$FO?$IC?L?$JD?$OA?$JHe?$IC?$KK?$II?j?$JCv?$IC?$LF?$IC?H?$IC?$KC@
	mov	r8d, DWORD PTR tv252[rbp]
	mov	rdx, rax
	mov	rcx, QWORD PTR env$[rbp]
	call	TEST_Assert

; 93   :     TEST_Assert(env, FormatTestLabel("DivRem_X_X (%d.%d)", no, 5), _EQUALS_MEMORY(actual_r, actual_r_count, desired_r, desired_r_count) == 0, "剰余のデータの内容が一致しない");

	mov	r9, QWORD PTR desired_r_count$[rbp]
	mov	r8, QWORD PTR desired_r$[rbp]
	mov	rdx, QWORD PTR actual_r_count$[rbp]
	mov	rcx, QWORD PTR actual_r$[rbp]
	call	_EQUALS_MEMORY
	test	eax, eax
	jne	SHORT $LN19@INTERNALTE
	mov	DWORD PTR tv267[rbp], 1
	jmp	SHORT $LN20@INTERNALTE
$LN19@INTERNALTE:
	mov	DWORD PTR tv267[rbp], 0
$LN20@INTERNALTE:
	mov	r8d, 5
	mov	edx, DWORD PTR no$[rbp]
	lea	rcx, OFFSET FLAT:??_C@_0BD@EJLHCECA@DivRem_X_X?5?$CI?$CFd?4?$CFd?$CJ@
	call	FormatTestLabel
	lea	r9, OFFSET FLAT:??_C@_0BP@OILCCJPC@?$IP?h?$JH?$FN?$IC?L?$IDf?$IB?$FL?$ID?$FO?$IC?L?$JD?$OA?$JHe?$IC?$KK?$II?j?$JCv?$IC?$LF?$IC?H?$IC?$KC@
	mov	r8d, DWORD PTR tv267[rbp]
	mov	rdx, rax
	mov	rcx, QWORD PTR env$[rbp]
	call	TEST_Assert

; 94   : 
; 95   :     DeallocateBlock(actual_r_buf, actual_r_buf_words);

	mov	rdx, QWORD PTR actual_r_buf_words$[rbp]
	mov	rcx, QWORD PTR actual_r_buf$[rbp]
	call	DeallocateBlock

; 96   :     DeallocateBlock(actual_q_buf, actual_q_buf_words);

	mov	rdx, QWORD PTR actual_q_buf_words$[rbp]
	mov	rcx, QWORD PTR actual_q_buf$[rbp]
	call	DeallocateBlock

; 97   :     DeallocateBlock(work_v_buf, work_v_buf_words);

	mov	rdx, QWORD PTR work_v_buf_words$[rbp]
	mov	rcx, QWORD PTR work_v_buf$[rbp]
	call	DeallocateBlock

; 98   :     DeallocateBlock(desired_r_buf, desired_r_buf_words);

	mov	rdx, QWORD PTR desired_r_buf_words$[rbp]
	mov	rcx, QWORD PTR desired_r_buf$[rbp]
	call	DeallocateBlock

; 99   :     DeallocateBlock(desired_q_buf, desired_q_buf_words);

	mov	rdx, QWORD PTR desired_q_buf_words$[rbp]
	mov	rcx, QWORD PTR desired_q_buf$[rbp]
	call	DeallocateBlock

; 100  :     DeallocateBlock(v_buf, v_buf_words);

	mov	rdx, QWORD PTR v_buf_words$[rbp]
	mov	rcx, QWORD PTR v_buf$[rbp]
	call	DeallocateBlock

; 101  :     DeallocateBlock(u_buf, u_buf_words);

	mov	rdx, QWORD PTR u_buf_words$[rbp]
	mov	rcx, QWORD PTR u_buf$[rbp]
	call	DeallocateBlock

; 102  : }

	lea	rcx, QWORD PTR [rbp-64]
	lea	rdx, OFFSET FLAT:INTERNALTEST_DivRem_X_X$rtcFrameData
	call	_RTC_CheckStackVars
	lea	rsp, QWORD PTR [rbp+1192]
	pop	rdi
	pop	rbp
	ret	0
INTERNALTEST_DivRem_X_X ENDP
_TEXT	ENDS
; Function compile flags: /Odtp /RTCsu /ZI
; File z:\sources\lunor\repos\rougemeilland\palmtree.math.core.implements\palmtree.math.core.implements\pmc_internal.h
;	COMDAT _COPY_MEMORY_BYTE
_TEXT	SEGMENT
d$ = 224
s$ = 232
count$ = 240
_COPY_MEMORY_BYTE PROC					; COMDAT

; 330  : {

	mov	QWORD PTR [rsp+24], r8
	mov	QWORD PTR [rsp+16], rdx
	mov	QWORD PTR [rsp+8], rcx
	push	rbp
	push	rsi
	push	rdi
	sub	rsp, 224				; 000000e0H
	lea	rbp, QWORD PTR [rsp+32]
	mov	rdi, rsp
	mov	ecx, 56					; 00000038H
	mov	eax, -858993460				; ccccccccH
	rep stosd
	mov	rcx, QWORD PTR [rsp+264]
	lea	rcx, OFFSET FLAT:__4522B509_pmc_internal@h
	call	__CheckForDebuggerJustMyCode

; 331  :     __movsb(d, s, count);

	mov	rdi, QWORD PTR d$[rbp]
	mov	rsi, QWORD PTR s$[rbp]
	mov	rcx, QWORD PTR count$[rbp]
	rep movsb

; 332  : }

	lea	rsp, QWORD PTR [rbp+192]
	pop	rdi
	pop	rsi
	pop	rbp
	ret	0
_COPY_MEMORY_BYTE ENDP
_TEXT	ENDS
END
