; Listing generated by Microsoft (R) Optimizing Compiler Version 19.16.27026.1 

include listing.inc

INCLUDELIB MSVCRTD
INCLUDELIB OLDNAMES

msvcjmc	SEGMENT
__7B7A869E_ctype@h DB 01H
__457DD326_basetsd@h DB 01H
__4384A2D9_corecrt_memcpy_s@h DB 01H
__4E51A221_corecrt_wstring@h DB 01H
__2140C079_string@h DB 01H
__1887E595_winnt@h DB 01H
__9FC7C64B_processthreadsapi@h DB 01H
__FA470AEC_memoryapi@h DB 01H
__F37DAFF1_winerror@h DB 01H
__7A450CCC_winbase@h DB 01H
__B4B40122_winioctl@h DB 01H
__86261D59_stralign@h DB 01H
__4522B509_pmc_internal@h DB 01H
__3006EDED_pmc_equals@c DB 01H
msvcjmc	ENDS
PUBLIC	Initialize_Equals
PUBLIC	PMC_Equals_I_X
PUBLIC	PMC_Equals_L_X
PUBLIC	PMC_Equals_X_I
PUBLIC	PMC_Equals_X_L
PUBLIC	PMC_Equals_X_X
PUBLIC	Equals_X_X
PUBLIC	__JustMyCode_Default
EXTRN	CheckNumber:PROC
EXTRN	_RTC_CheckStackVars:PROC
EXTRN	_RTC_InitBase:PROC
EXTRN	_RTC_Shutdown:PROC
EXTRN	__CheckForDebuggerJustMyCode:PROC
;	COMDAT pdata
pdata	SEGMENT
$pdata$Initialize_Equals DD imagerel $LN3
	DD	imagerel $LN3+66
	DD	imagerel $unwind$Initialize_Equals
pdata	ENDS
;	COMDAT pdata
pdata	SEGMENT
$pdata$PMC_Equals_I_X DD imagerel $LN8
	DD	imagerel $LN8+186
	DD	imagerel $unwind$PMC_Equals_I_X
pdata	ENDS
;	COMDAT pdata
pdata	SEGMENT
$pdata$PMC_Equals_L_X DD imagerel $LN8
	DD	imagerel $LN8+189
	DD	imagerel $unwind$PMC_Equals_L_X
pdata	ENDS
;	COMDAT pdata
pdata	SEGMENT
$pdata$PMC_Equals_X_I DD imagerel $LN8
	DD	imagerel $LN8+187
	DD	imagerel $unwind$PMC_Equals_X_I
pdata	ENDS
;	COMDAT pdata
pdata	SEGMENT
$pdata$PMC_Equals_X_L DD imagerel $LN8
	DD	imagerel $LN8+189
	DD	imagerel $unwind$PMC_Equals_X_L
pdata	ENDS
;	COMDAT pdata
pdata	SEGMENT
$pdata$PMC_Equals_X_X DD imagerel $LN16
	DD	imagerel $LN16+404
	DD	imagerel $unwind$PMC_Equals_X_X
pdata	ENDS
;	COMDAT pdata
pdata	SEGMENT
$pdata$_FROMDWORDTOWORD DD imagerel _FROMDWORDTOWORD
	DD	imagerel _FROMDWORDTOWORD+95
	DD	imagerel $unwind$_FROMDWORDTOWORD
pdata	ENDS
;	COMDAT pdata
pdata	SEGMENT
$pdata$_LZCNT_ALT_32 DD imagerel _LZCNT_ALT_32
	DD	imagerel _LZCNT_ALT_32+126
	DD	imagerel $unwind$_LZCNT_ALT_32
pdata	ENDS
;	COMDAT pdata
pdata	SEGMENT
$pdata$_LZCNT_ALT_UNIT DD imagerel _LZCNT_ALT_UNIT
	DD	imagerel _LZCNT_ALT_UNIT+131
	DD	imagerel $unwind$_LZCNT_ALT_UNIT
pdata	ENDS
;	COMDAT pdata
pdata	SEGMENT
$pdata$Equals_X_X DD imagerel $LN6
	DD	imagerel $LN6+170
	DD	imagerel $unwind$Equals_X_X
pdata	ENDS
;	COMDAT pdata
pdata	SEGMENT
$pdata$PMC_Equals_X_I_Imp DD imagerel PMC_Equals_X_I_Imp
	DD	imagerel PMC_Equals_X_I_Imp+300
	DD	imagerel $unwind$PMC_Equals_X_I_Imp
pdata	ENDS
;	COMDAT pdata
pdata	SEGMENT
$pdata$PMC_Equals_X_L_Imp DD imagerel PMC_Equals_X_L_Imp
	DD	imagerel PMC_Equals_X_L_Imp+664
	DD	imagerel $unwind$PMC_Equals_X_L_Imp
pdata	ENDS
;	COMDAT rtc$TMZ
rtc$TMZ	SEGMENT
_RTC_Shutdown.rtc$TMZ DQ FLAT:_RTC_Shutdown
rtc$TMZ	ENDS
;	COMDAT rtc$IMZ
rtc$IMZ	SEGMENT
_RTC_InitBase.rtc$IMZ DQ FLAT:_RTC_InitBase
rtc$IMZ	ENDS
;	COMDAT xdata
xdata	SEGMENT
$unwind$PMC_Equals_X_L_Imp DD 025053401H
	DD	0118231dH
	DD	070110039H
	DD	05010H
xdata	ENDS
;	COMDAT CONST
CONST	SEGMENT
PMC_Equals_X_L_Imp$rtcName$0 DB 076H
	DB	05fH
	DB	068H
	DB	069H
	DB	00H
	ORG $+11
PMC_Equals_X_L_Imp$rtcVarDesc DD 044H
	DD	04H
	DQ	FLAT:PMC_Equals_X_L_Imp$rtcName$0
	ORG $+48
PMC_Equals_X_L_Imp$rtcFrameData DD 01H
	DD	00H
	DQ	FLAT:PMC_Equals_X_L_Imp$rtcVarDesc
CONST	ENDS
;	COMDAT xdata
xdata	SEGMENT
$unwind$PMC_Equals_X_I_Imp DD 025053301H
	DD	0117231cH
	DD	070100025H
	DD	0500fH
xdata	ENDS
;	COMDAT xdata
xdata	SEGMENT
$unwind$Equals_X_X DD 025053401H
	DD	0118231dH
	DD	07011001dH
	DD	05010H
xdata	ENDS
;	COMDAT xdata
xdata	SEGMENT
$unwind$_LZCNT_ALT_UNIT DD 025052a01H
	DD	010e2313H
	DD	070070021H
	DD	05006H
xdata	ENDS
;	COMDAT CONST
CONST	SEGMENT
_LZCNT_ALT_UNIT$rtcName$0 DB 070H
	DB	06fH
	DB	073H
	DB	00H
	ORG $+12
_LZCNT_ALT_UNIT$rtcVarDesc DD 024H
	DD	04H
	DQ	FLAT:_LZCNT_ALT_UNIT$rtcName$0
	ORG $+48
_LZCNT_ALT_UNIT$rtcFrameData DD 01H
	DD	00H
	DQ	FLAT:_LZCNT_ALT_UNIT$rtcVarDesc
CONST	ENDS
;	COMDAT xdata
xdata	SEGMENT
$unwind$_LZCNT_ALT_32 DD 025052801H
	DD	010d2312H
	DD	070060021H
	DD	05005H
xdata	ENDS
;	COMDAT CONST
CONST	SEGMENT
_LZCNT_ALT_32$rtcName$0 DB 070H
	DB	06fH
	DB	073H
	DB	00H
	ORG $+12
_LZCNT_ALT_32$rtcVarDesc DD 024H
	DD	04H
	DQ	FLAT:_LZCNT_ALT_32$rtcName$0
	ORG $+48
_LZCNT_ALT_32$rtcFrameData DD 01H
	DD	00H
	DQ	FLAT:_LZCNT_ALT_32$rtcVarDesc
CONST	ENDS
;	COMDAT xdata
xdata	SEGMENT
$unwind$_FROMDWORDTOWORD DD 025052f01H
	DD	01132318H
	DD	0700c001dH
	DD	0500bH
xdata	ENDS
;	COMDAT xdata
xdata	SEGMENT
$unwind$PMC_Equals_X_X DD 025053401H
	DD	0118231dH
	DD	070110031H
	DD	05010H
xdata	ENDS
;	COMDAT xdata
xdata	SEGMENT
$unwind$PMC_Equals_X_L DD 025053401H
	DD	0118231dH
	DD	070110021H
	DD	05010H
xdata	ENDS
;	COMDAT xdata
xdata	SEGMENT
$unwind$PMC_Equals_X_I DD 025053301H
	DD	0117231cH
	DD	070100021H
	DD	0500fH
xdata	ENDS
;	COMDAT xdata
xdata	SEGMENT
$unwind$PMC_Equals_L_X DD 025053401H
	DD	0118231dH
	DD	070110021H
	DD	05010H
xdata	ENDS
;	COMDAT xdata
xdata	SEGMENT
$unwind$PMC_Equals_I_X DD 025053201H
	DD	0117231cH
	DD	070100021H
	DD	0500fH
xdata	ENDS
;	COMDAT xdata
xdata	SEGMENT
$unwind$Initialize_Equals DD 025052a01H
	DD	010e2313H
	DD	07007001dH
	DD	05006H
xdata	ENDS
; Function compile flags: /Odt
;	COMDAT __JustMyCode_Default
_TEXT	SEGMENT
__JustMyCode_Default PROC				; COMDAT
	ret	0
__JustMyCode_Default ENDP
_TEXT	ENDS
; Function compile flags: /Odtp /RTCsu /ZI
; File z:\sources\lunor\repos\rougemeilland\palmtree.math.core.implements\palmtree.math.core.implements\pmc_equals.c
;	COMDAT PMC_Equals_X_L_Imp
_TEXT	SEGMENT
u_bit_count$4 = 8
v_hi$5 = 36
v_lo$6 = 68
v_bit_count$7 = 104
v_bit_count$8 = 136
u_bit_count$9 = 168
v_bit_count$10 = 200
tv145 = 404
tv134 = 404
tv86 = 404
u$ = 448
v$ = 456
w$ = 464
PMC_Equals_X_L_Imp PROC					; COMDAT

; 131  : {

	mov	QWORD PTR [rsp+24], r8
	mov	QWORD PTR [rsp+16], rdx
	mov	QWORD PTR [rsp+8], rcx
	push	rbp
	push	rdi
	sub	rsp, 456				; 000001c8H
	lea	rbp, QWORD PTR [rsp+32]
	mov	rdi, rsp
	mov	ecx, 114				; 00000072H
	mov	eax, -858993460				; ccccccccH
	rep stosd
	mov	rcx, QWORD PTR [rsp+488]
	lea	rcx, OFFSET FLAT:__3006EDED_pmc_equals@c
	call	__CheckForDebuggerJustMyCode

; 132  :     if (u->IS_ZERO)

	mov	rax, QWORD PTR u$[rbp]
	mov	eax, DWORD PTR [rax+32]
	shr	eax, 1
	and	eax, 1
	test	eax, eax
	je	SHORT $LN2@PMC_Equals

; 133  :     {
; 134  :         // u が 0 である場合
; 135  :         if (v == 0)

	cmp	QWORD PTR v$[rbp], 0
	jne	SHORT $LN4@PMC_Equals

; 136  :         {
; 137  :             // v が 0 である場合
; 138  :             *w = 1;

	mov	rax, QWORD PTR w$[rbp]
	mov	DWORD PTR [rax], 1

; 139  :         }

	jmp	SHORT $LN5@PMC_Equals
$LN4@PMC_Equals:

; 140  :         else
; 141  :         {
; 142  :             // v が 0 でない場合
; 143  :             *w = 0;

	mov	rax, QWORD PTR w$[rbp]
	mov	DWORD PTR [rax], 0
$LN5@PMC_Equals:

; 144  :         }
; 145  :     }

	jmp	$LN3@PMC_Equals
$LN2@PMC_Equals:

; 146  :     else if (v == 0)

	cmp	QWORD PTR v$[rbp], 0
	jne	SHORT $LN6@PMC_Equals

; 147  :     {
; 148  :         // v が 0 である場合
; 149  :         *w = 0;

	mov	rax, QWORD PTR w$[rbp]
	mov	DWORD PTR [rax], 0

; 150  :     }

	jmp	$LN7@PMC_Equals
$LN6@PMC_Equals:

; 151  :     else
; 152  :     {
; 153  :         // u と v がともに 0 ではない場合
; 154  :         if (__UNIT_TYPE_BIT_COUNT < sizeof(v) * 8)

	xor	eax, eax
	test	eax, eax
	je	$LN8@PMC_Equals

; 155  :         {
; 156  :             // _UINT64_T が 1 ワードで表現しきれない場合
; 157  :             __UNIT_TYPE u_bit_count = u->UNIT_BIT_COUNT;

	mov	rax, QWORD PTR u$[rbp]
	mov	rax, QWORD PTR [rax+8]
	mov	QWORD PTR u_bit_count$4[rbp], rax

; 158  :             _UINT32_T v_hi;
; 159  :             _UINT32_T v_lo = _FROMDWORDTOWORD(v, &v_hi);

	lea	rdx, QWORD PTR v_hi$5[rbp]
	mov	rcx, QWORD PTR v$[rbp]
	call	_FROMDWORDTOWORD
	mov	DWORD PTR v_lo$6[rbp], eax

; 160  :             if (v_hi == 0)

	cmp	DWORD PTR v_hi$5[rbp], 0
	jne	SHORT $LN10@PMC_Equals

; 161  :             {
; 162  :                 // v の値が 32bit では表現できる場合
; 163  :                 __UNIT_TYPE v_bit_count = sizeof(v_lo) * 8 - _LZCNT_ALT_32(v_lo);

	mov	ecx, DWORD PTR v_lo$6[rbp]
	call	_LZCNT_ALT_32
	cdqe
	mov	ecx, 32					; 00000020H
	sub	rcx, rax
	mov	rax, rcx
	mov	QWORD PTR v_bit_count$7[rbp], rax

; 164  :                 if (u_bit_count != v_bit_count)

	mov	rax, QWORD PTR v_bit_count$7[rbp]
	cmp	QWORD PTR u_bit_count$4[rbp], rax
	je	SHORT $LN12@PMC_Equals

; 165  :                 {
; 166  :                     // 明らかに u > v である場合
; 167  :                     *w = 0;

	mov	rax, QWORD PTR w$[rbp]
	mov	DWORD PTR [rax], 0

; 168  :                 }

	jmp	SHORT $LN13@PMC_Equals
$LN12@PMC_Equals:

; 169  :                 else
; 170  :                 {
; 171  :                     // u > 0 && v > 0 かつ u のビット長と v のビット長が等しく、かつ v が 1 ワードで表現できる場合
; 172  :                     // ⇒ u と v はともに 1 ワードで表現できる
; 173  :                     *w = u->BLOCK[0] == v_lo;

	mov	eax, 8
	imul	rax, rax, 0
	mov	rcx, QWORD PTR u$[rbp]
	mov	rcx, QWORD PTR [rcx+48]
	mov	edx, DWORD PTR v_lo$6[rbp]
	cmp	QWORD PTR [rax+rcx], rdx
	jne	SHORT $LN19@PMC_Equals
	mov	DWORD PTR tv86[rbp], 1
	jmp	SHORT $LN20@PMC_Equals
$LN19@PMC_Equals:
	mov	DWORD PTR tv86[rbp], 0
$LN20@PMC_Equals:
	mov	rax, QWORD PTR w$[rbp]
	mov	ecx, DWORD PTR tv86[rbp]
	mov	DWORD PTR [rax], ecx
$LN13@PMC_Equals:

; 174  :                 }
; 175  :             }

	jmp	$LN11@PMC_Equals
$LN10@PMC_Equals:

; 176  :             else
; 177  :             {
; 178  :                 // v の値が 32bit では表現できない場合
; 179  :                 __UNIT_TYPE v_bit_count = sizeof(v) * 8 - _LZCNT_ALT_32(v_hi);

	mov	ecx, DWORD PTR v_hi$5[rbp]
	call	_LZCNT_ALT_32
	cdqe
	mov	ecx, 64					; 00000040H
	sub	rcx, rax
	mov	rax, rcx
	mov	QWORD PTR v_bit_count$8[rbp], rax

; 180  :                 if (u_bit_count != v_bit_count)

	mov	rax, QWORD PTR v_bit_count$8[rbp]
	cmp	QWORD PTR u_bit_count$4[rbp], rax
	je	SHORT $LN14@PMC_Equals

; 181  :                 {
; 182  :                     // 明らかに u > v である場合
; 183  :                     *w = 0;

	mov	rax, QWORD PTR w$[rbp]
	mov	DWORD PTR [rax], 0

; 184  :                 }

	jmp	SHORT $LN15@PMC_Equals
$LN14@PMC_Equals:

; 185  :                 else
; 186  :                 {
; 187  :                     // u > 0 && v > 0 かつ u のビット長と v のビット長が等しく、かつ v が 2 ワードで表現できる場合
; 188  :                     // ⇒ u と v はともに 2 ワードで表現できる
; 189  :                     *w = u->BLOCK[1] == v_hi && u->BLOCK[0] == v_lo;

	mov	eax, 8
	imul	rax, rax, 1
	mov	rcx, QWORD PTR u$[rbp]
	mov	rcx, QWORD PTR [rcx+48]
	mov	edx, DWORD PTR v_hi$5[rbp]
	cmp	QWORD PTR [rax+rcx], rdx
	jne	SHORT $LN21@PMC_Equals
	mov	eax, 8
	imul	rax, rax, 0
	mov	rcx, QWORD PTR u$[rbp]
	mov	rcx, QWORD PTR [rcx+48]
	mov	edx, DWORD PTR v_lo$6[rbp]
	cmp	QWORD PTR [rax+rcx], rdx
	jne	SHORT $LN21@PMC_Equals
	mov	DWORD PTR tv134[rbp], 1
	jmp	SHORT $LN22@PMC_Equals
$LN21@PMC_Equals:
	mov	DWORD PTR tv134[rbp], 0
$LN22@PMC_Equals:
	mov	rax, QWORD PTR w$[rbp]
	mov	ecx, DWORD PTR tv134[rbp]
	mov	DWORD PTR [rax], ecx
$LN15@PMC_Equals:
$LN11@PMC_Equals:

; 190  :                 }
; 191  :             }
; 192  :         }

	jmp	$LN9@PMC_Equals
$LN8@PMC_Equals:

; 193  :         else
; 194  :         {
; 195  :             // _UINT64_T が 1 ワードで表現できる場合
; 196  : 
; 197  :             __UNIT_TYPE u_bit_count = u->UNIT_BIT_COUNT;

	mov	rax, QWORD PTR u$[rbp]
	mov	rax, QWORD PTR [rax+8]
	mov	QWORD PTR u_bit_count$9[rbp], rax

; 198  :             __UNIT_TYPE v_bit_count = sizeof(v) * 8 - _LZCNT_ALT_UNIT((__UNIT_TYPE)v);

	mov	rcx, QWORD PTR v$[rbp]
	call	_LZCNT_ALT_UNIT
	cdqe
	mov	ecx, 64					; 00000040H
	sub	rcx, rax
	mov	rax, rcx
	mov	QWORD PTR v_bit_count$10[rbp], rax

; 199  :             if (u_bit_count != v_bit_count)

	mov	rax, QWORD PTR v_bit_count$10[rbp]
	cmp	QWORD PTR u_bit_count$9[rbp], rax
	je	SHORT $LN16@PMC_Equals

; 200  :             {
; 201  :                 // 明らかに u > v である場合
; 202  :                 *w = 0;

	mov	rax, QWORD PTR w$[rbp]
	mov	DWORD PTR [rax], 0

; 203  :             }

	jmp	SHORT $LN17@PMC_Equals
$LN16@PMC_Equals:

; 204  :             else
; 205  :             {
; 206  :                 // u > 0 && v > 0 かつ u のビット長と v のビット長が等しく、かつ v が 1 ワードで表現できる場合
; 207  :                 // ⇒ u と v はともに 1 ワードで表現できる
; 208  :                 *w = u->BLOCK[0] == v;

	mov	eax, 8
	imul	rax, rax, 0
	mov	rcx, QWORD PTR u$[rbp]
	mov	rcx, QWORD PTR [rcx+48]
	mov	rdx, QWORD PTR v$[rbp]
	cmp	QWORD PTR [rax+rcx], rdx
	jne	SHORT $LN23@PMC_Equals
	mov	DWORD PTR tv145[rbp], 1
	jmp	SHORT $LN24@PMC_Equals
$LN23@PMC_Equals:
	mov	DWORD PTR tv145[rbp], 0
$LN24@PMC_Equals:
	mov	rax, QWORD PTR w$[rbp]
	mov	ecx, DWORD PTR tv145[rbp]
	mov	DWORD PTR [rax], ecx
$LN17@PMC_Equals:
$LN9@PMC_Equals:
$LN7@PMC_Equals:
$LN3@PMC_Equals:

; 209  :             }
; 210  :         }
; 211  :     }
; 212  :     return (PMC_STATUS_OK);

	xor	eax, eax

; 213  : }

	mov	edi, eax
	lea	rcx, QWORD PTR [rbp-32]
	lea	rdx, OFFSET FLAT:PMC_Equals_X_L_Imp$rtcFrameData
	call	_RTC_CheckStackVars
	mov	eax, edi
	lea	rsp, QWORD PTR [rbp+424]
	pop	rdi
	pop	rbp
	ret	0
PMC_Equals_X_L_Imp ENDP
_TEXT	ENDS
; Function compile flags: /Odtp /RTCsu /ZI
; File z:\sources\lunor\repos\rougemeilland\palmtree.math.core.implements\palmtree.math.core.implements\pmc_equals.c
;	COMDAT PMC_Equals_X_I_Imp
_TEXT	SEGMENT
u_bit_count$1 = 8
v_bit_count$2 = 40
tv81 = 244
u$ = 288
v$ = 296
w$ = 304
PMC_Equals_X_I_Imp PROC					; COMDAT

; 52   : {

	mov	QWORD PTR [rsp+24], r8
	mov	DWORD PTR [rsp+16], edx
	mov	QWORD PTR [rsp+8], rcx
	push	rbp
	push	rdi
	sub	rsp, 296				; 00000128H
	lea	rbp, QWORD PTR [rsp+32]
	mov	rdi, rsp
	mov	ecx, 74					; 0000004aH
	mov	eax, -858993460				; ccccccccH
	rep stosd
	mov	rcx, QWORD PTR [rsp+328]
	lea	rcx, OFFSET FLAT:__3006EDED_pmc_equals@c
	call	__CheckForDebuggerJustMyCode

; 53   :     if (u->IS_ZERO)

	mov	rax, QWORD PTR u$[rbp]
	mov	eax, DWORD PTR [rax+32]
	shr	eax, 1
	and	eax, 1
	test	eax, eax
	je	SHORT $LN2@PMC_Equals

; 54   :     {
; 55   :         // u が 0 である場合
; 56   :         if (v == 0)

	cmp	DWORD PTR v$[rbp], 0
	jne	SHORT $LN4@PMC_Equals

; 57   :         {
; 58   :             // v が 0 である場合
; 59   :             *w = 1;

	mov	rax, QWORD PTR w$[rbp]
	mov	DWORD PTR [rax], 1

; 60   :         }

	jmp	SHORT $LN5@PMC_Equals
$LN4@PMC_Equals:

; 61   :         else
; 62   :         {
; 63   :             // v が 0 でない場合
; 64   :             *w = 0;

	mov	rax, QWORD PTR w$[rbp]
	mov	DWORD PTR [rax], 0
$LN5@PMC_Equals:

; 65   :         }
; 66   :     }

	jmp	$LN3@PMC_Equals
$LN2@PMC_Equals:

; 67   :     else if (v == 0)

	cmp	DWORD PTR v$[rbp], 0
	jne	SHORT $LN6@PMC_Equals

; 68   :     {
; 69   :         // v が 0 である場合
; 70   :         *w = 0;

	mov	rax, QWORD PTR w$[rbp]
	mov	DWORD PTR [rax], 0

; 71   :     }

	jmp	$LN7@PMC_Equals
$LN6@PMC_Equals:

; 72   :     else
; 73   :     {
; 74   :         // x と y がともに 0 ではない場合
; 75   :         __UNIT_TYPE u_bit_count = u->UNIT_BIT_COUNT;

	mov	rax, QWORD PTR u$[rbp]
	mov	rax, QWORD PTR [rax+8]
	mov	QWORD PTR u_bit_count$1[rbp], rax

; 76   :         __UNIT_TYPE v_bit_count = sizeof(v) * 8 - _LZCNT_ALT_32(v);

	mov	ecx, DWORD PTR v$[rbp]
	call	_LZCNT_ALT_32
	cdqe
	mov	ecx, 32					; 00000020H
	sub	rcx, rax
	mov	rax, rcx
	mov	QWORD PTR v_bit_count$2[rbp], rax

; 77   :         if (u_bit_count != v_bit_count)

	mov	rax, QWORD PTR v_bit_count$2[rbp]
	cmp	QWORD PTR u_bit_count$1[rbp], rax
	je	SHORT $LN8@PMC_Equals

; 78   :         {
; 79   :             // 明らかに u != v である場合
; 80   :             *w = 0;

	mov	rax, QWORD PTR w$[rbp]
	mov	DWORD PTR [rax], 0

; 81   :         }

	jmp	SHORT $LN9@PMC_Equals
$LN8@PMC_Equals:

; 82   :         else
; 83   :         {
; 84   :             // u > 0 && v > 0 かつ u のビット長と v のビット長が等しい場合
; 85   :             // ⇒ u と v はともに 1 ワードで表現できる
; 86   :             *w = u->BLOCK[0] == v;

	mov	eax, 8
	imul	rax, rax, 0
	mov	rcx, QWORD PTR u$[rbp]
	mov	rcx, QWORD PTR [rcx+48]
	mov	edx, DWORD PTR v$[rbp]
	cmp	QWORD PTR [rax+rcx], rdx
	jne	SHORT $LN11@PMC_Equals
	mov	DWORD PTR tv81[rbp], 1
	jmp	SHORT $LN12@PMC_Equals
$LN11@PMC_Equals:
	mov	DWORD PTR tv81[rbp], 0
$LN12@PMC_Equals:
	mov	rax, QWORD PTR w$[rbp]
	mov	ecx, DWORD PTR tv81[rbp]
	mov	DWORD PTR [rax], ecx
$LN9@PMC_Equals:
$LN7@PMC_Equals:
$LN3@PMC_Equals:

; 87   :         }
; 88   :     }
; 89   :     return (PMC_STATUS_OK);

	xor	eax, eax

; 90   : }

	lea	rsp, QWORD PTR [rbp+264]
	pop	rdi
	pop	rbp
	ret	0
PMC_Equals_X_I_Imp ENDP
_TEXT	ENDS
; Function compile flags: /Odtp /RTCsu /ZI
; File z:\sources\lunor\repos\rougemeilland\palmtree.math.core.implements\palmtree.math.core.implements\pmc_equals.c
;	COMDAT Equals_X_X
_TEXT	SEGMENT
u$ = 224
v$ = 232
count$ = 240
Equals_X_X PROC						; COMDAT

; 38   : {

$LN6:
	mov	QWORD PTR [rsp+24], r8
	mov	QWORD PTR [rsp+16], rdx
	mov	QWORD PTR [rsp+8], rcx
	push	rbp
	push	rdi
	sub	rsp, 232				; 000000e8H
	lea	rbp, QWORD PTR [rsp+32]
	mov	rdi, rsp
	mov	ecx, 58					; 0000003aH
	mov	eax, -858993460				; ccccccccH
	rep stosd
	mov	rcx, QWORD PTR [rsp+264]
	lea	rcx, OFFSET FLAT:__3006EDED_pmc_equals@c
	call	__CheckForDebuggerJustMyCode
$LN2@Equals_X_X:

; 39   :     while (count > 0)

	cmp	QWORD PTR count$[rbp], 0
	jbe	SHORT $LN3@Equals_X_X

; 40   :     {
; 41   :         if (*u != *v)

	mov	rax, QWORD PTR u$[rbp]
	mov	rcx, QWORD PTR v$[rbp]
	mov	rcx, QWORD PTR [rcx]
	cmp	QWORD PTR [rax], rcx
	je	SHORT $LN4@Equals_X_X

; 42   :             return (0);

	xor	eax, eax
	jmp	SHORT $LN1@Equals_X_X
$LN4@Equals_X_X:

; 43   :         ++u;

	mov	rax, QWORD PTR u$[rbp]
	add	rax, 8
	mov	QWORD PTR u$[rbp], rax

; 44   :         ++v;

	mov	rax, QWORD PTR v$[rbp]
	add	rax, 8
	mov	QWORD PTR v$[rbp], rax

; 45   :         --count;

	mov	rax, QWORD PTR count$[rbp]
	dec	rax
	mov	QWORD PTR count$[rbp], rax

; 46   :     }

	jmp	SHORT $LN2@Equals_X_X
$LN3@Equals_X_X:

; 47   :     return (1);

	mov	eax, 1
$LN1@Equals_X_X:

; 48   : }

	lea	rsp, QWORD PTR [rbp+200]
	pop	rdi
	pop	rbp
	ret	0
Equals_X_X ENDP
_TEXT	ENDS
; Function compile flags: /Odtp /RTCsu /ZI
; File z:\sources\lunor\repos\rougemeilland\palmtree.math.core.implements\palmtree.math.core.implements\pmc_internal.h
;	COMDAT _LZCNT_ALT_UNIT
_TEXT	SEGMENT
pos$ = 4
x$ = 256
_LZCNT_ALT_UNIT PROC					; COMDAT

; 905  : {

	mov	QWORD PTR [rsp+8], rcx
	push	rbp
	push	rdi
	sub	rsp, 264				; 00000108H
	lea	rbp, QWORD PTR [rsp+32]
	mov	rdi, rsp
	mov	ecx, 66					; 00000042H
	mov	eax, -858993460				; ccccccccH
	rep stosd
	mov	rcx, QWORD PTR [rsp+296]
	lea	rcx, OFFSET FLAT:__4522B509_pmc_internal@h
	call	__CheckForDebuggerJustMyCode

; 906  :     if (x == 0)

	cmp	QWORD PTR x$[rbp], 0
	jne	SHORT $LN2@LZCNT_ALT_

; 907  :         return (sizeof(x) * 8);

	mov	eax, 64					; 00000040H
	jmp	SHORT $LN1@LZCNT_ALT_
$LN2@LZCNT_ALT_:

; 908  : #ifdef _M_IX86
; 909  :     _UINT32_T pos;
; 910  : #ifdef _MSC_VER
; 911  :     _BitScanReverse(&pos, x);
; 912  : #elif defined(__GNUC__)
; 913  :     __asm__("bsrl %1, %0" : "=r"(pos) : "rm"(x));
; 914  : #else
; 915  : #error unknown compiler
; 916  : #endif
; 917  : #elif defined(_M_X64)
; 918  : #ifdef _MSC_VER
; 919  :     _UINT32_T pos;
; 920  :     _BitScanReverse64(&pos, x);

	mov	rax, QWORD PTR x$[rbp]
	bsr	rax, rax
	mov	DWORD PTR pos$[rbp], eax

; 921  : #elif defined(__GNUC__)
; 922  :     _UINT64_T pos;
; 923  :     __asm__("bsrq %1, %0" : "=r"(pos) : "rm"(x));
; 924  : #else
; 925  : #error unknown compiler
; 926  : #endif
; 927  : #else
; 928  : #error unknown platform
; 929  : #endif
; 930  :     return (sizeof(x) * 8 - 1 - pos);

	mov	eax, DWORD PTR pos$[rbp]
	mov	ecx, 63					; 0000003fH
	sub	rcx, rax
	mov	rax, rcx
$LN1@LZCNT_ALT_:

; 931  : }

	mov	rdi, rax
	lea	rcx, QWORD PTR [rbp-32]
	lea	rdx, OFFSET FLAT:_LZCNT_ALT_UNIT$rtcFrameData
	call	_RTC_CheckStackVars
	mov	rax, rdi
	lea	rsp, QWORD PTR [rbp+232]
	pop	rdi
	pop	rbp
	ret	0
_LZCNT_ALT_UNIT ENDP
_TEXT	ENDS
; Function compile flags: /Odtp /RTCsu /ZI
; File z:\sources\lunor\repos\rougemeilland\palmtree.math.core.implements\palmtree.math.core.implements\pmc_internal.h
;	COMDAT _LZCNT_ALT_32
_TEXT	SEGMENT
pos$ = 4
x$ = 256
_LZCNT_ALT_32 PROC					; COMDAT

; 872  : {

	mov	DWORD PTR [rsp+8], ecx
	push	rbp
	push	rdi
	sub	rsp, 264				; 00000108H
	lea	rbp, QWORD PTR [rsp+32]
	mov	rdi, rsp
	mov	ecx, 66					; 00000042H
	mov	eax, -858993460				; ccccccccH
	rep stosd
	mov	ecx, DWORD PTR [rsp+296]
	lea	rcx, OFFSET FLAT:__4522B509_pmc_internal@h
	call	__CheckForDebuggerJustMyCode

; 873  :     if (x == 0)

	cmp	DWORD PTR x$[rbp], 0
	jne	SHORT $LN2@LZCNT_ALT_

; 874  :         return (sizeof(x) * 8);

	mov	eax, 32					; 00000020H
	jmp	SHORT $LN1@LZCNT_ALT_
$LN2@LZCNT_ALT_:

; 875  :     _UINT32_T pos;
; 876  : #ifdef _MSC_VER
; 877  :     _BitScanReverse(&pos, x);

	mov	eax, DWORD PTR x$[rbp]
	bsr	eax, eax
	mov	DWORD PTR pos$[rbp], eax

; 878  : #elif defined(__GNUC__)
; 879  :     __asm__( "bsrl %1, %0" : "=r"(pos) : "rm"(x) );
; 880  : #else
; 881  : #error unknown compiler
; 882  : #endif
; 883  :     return (sizeof(x) * 8 - 1 - pos);

	mov	eax, DWORD PTR pos$[rbp]
	mov	ecx, 31
	sub	rcx, rax
	mov	rax, rcx
$LN1@LZCNT_ALT_:

; 884  : }

	mov	rdi, rax
	lea	rcx, QWORD PTR [rbp-32]
	lea	rdx, OFFSET FLAT:_LZCNT_ALT_32$rtcFrameData
	call	_RTC_CheckStackVars
	mov	rax, rdi
	lea	rsp, QWORD PTR [rbp+232]
	pop	rdi
	pop	rbp
	ret	0
_LZCNT_ALT_32 ENDP
_TEXT	ENDS
; Function compile flags: /Odtp /RTCsu /ZI
; File z:\sources\lunor\repos\rougemeilland\palmtree.math.core.implements\palmtree.math.core.implements\pmc_internal.h
;	COMDAT _FROMDWORDTOWORD
_TEXT	SEGMENT
value$ = 224
result_high$ = 232
_FROMDWORDTOWORD PROC					; COMDAT

; 458  : {

	mov	QWORD PTR [rsp+16], rdx
	mov	QWORD PTR [rsp+8], rcx
	push	rbp
	push	rdi
	sub	rsp, 232				; 000000e8H
	lea	rbp, QWORD PTR [rsp+32]
	mov	rdi, rsp
	mov	ecx, 58					; 0000003aH
	mov	eax, -858993460				; ccccccccH
	rep stosd
	mov	rcx, QWORD PTR [rsp+264]
	lea	rcx, OFFSET FLAT:__4522B509_pmc_internal@h
	call	__CheckForDebuggerJustMyCode

; 459  :     *result_high = (_UINT32_T)(value >> 32);

	mov	rax, QWORD PTR value$[rbp]
	shr	rax, 32					; 00000020H
	mov	rcx, QWORD PTR result_high$[rbp]
	mov	DWORD PTR [rcx], eax

; 460  :     return ((_UINT32_T)value);

	mov	eax, DWORD PTR value$[rbp]

; 461  : }

	lea	rsp, QWORD PTR [rbp+200]
	pop	rdi
	pop	rbp
	ret	0
_FROMDWORDTOWORD ENDP
_TEXT	ENDS
; Function compile flags: /Odtp /RTCsu /ZI
; File z:\sources\lunor\repos\rougemeilland\palmtree.math.core.implements\palmtree.math.core.implements\pmc_equals.c
;	COMDAT PMC_Equals_X_X
_TEXT	SEGMENT
nu$ = 8
nv$ = 40
result$ = 68
u_bit_count$1 = 104
v_bit_count$2 = 136
tv81 = 340
u$ = 384
v$ = 392
w$ = 400
PMC_Equals_X_X PROC					; COMDAT

; 254  : {

$LN16:
	mov	QWORD PTR [rsp+24], r8
	mov	QWORD PTR [rsp+16], rdx
	mov	QWORD PTR [rsp+8], rcx
	push	rbp
	push	rdi
	sub	rsp, 392				; 00000188H
	lea	rbp, QWORD PTR [rsp+32]
	mov	rdi, rsp
	mov	ecx, 98					; 00000062H
	mov	eax, -858993460				; ccccccccH
	rep stosd
	mov	rcx, QWORD PTR [rsp+424]
	lea	rcx, OFFSET FLAT:__3006EDED_pmc_equals@c
	call	__CheckForDebuggerJustMyCode

; 255  :     if (u == NULL)

	cmp	QWORD PTR u$[rbp], 0
	jne	SHORT $LN2@PMC_Equals

; 256  :         return (PMC_STATUS_ARGUMENT_ERROR);

	mov	eax, -1
	jmp	$LN1@PMC_Equals
$LN2@PMC_Equals:

; 257  :     if (v == NULL)

	cmp	QWORD PTR v$[rbp], 0
	jne	SHORT $LN3@PMC_Equals

; 258  :         return (PMC_STATUS_ARGUMENT_ERROR);

	mov	eax, -1
	jmp	$LN1@PMC_Equals
$LN3@PMC_Equals:

; 259  :     if (w == NULL)

	cmp	QWORD PTR w$[rbp], 0
	jne	SHORT $LN4@PMC_Equals

; 260  :         return (PMC_STATUS_ARGUMENT_ERROR);

	mov	eax, -1
	jmp	$LN1@PMC_Equals
$LN4@PMC_Equals:

; 261  :     NUMBER_HEADER* nu = (NUMBER_HEADER*)u;

	mov	rax, QWORD PTR u$[rbp]
	mov	QWORD PTR nu$[rbp], rax

; 262  :     NUMBER_HEADER* nv = (NUMBER_HEADER*)v;

	mov	rax, QWORD PTR v$[rbp]
	mov	QWORD PTR nv$[rbp], rax

; 263  :     PMC_STATUS_CODE result;
; 264  :     if ((result = CheckNumber(nu)) != PMC_STATUS_OK)

	mov	rcx, QWORD PTR nu$[rbp]
	call	CheckNumber
	mov	DWORD PTR result$[rbp], eax
	cmp	DWORD PTR result$[rbp], 0
	je	SHORT $LN5@PMC_Equals

; 265  :         return (result);

	mov	eax, DWORD PTR result$[rbp]
	jmp	$LN1@PMC_Equals
$LN5@PMC_Equals:

; 266  :     if ((result = CheckNumber(nv)) != PMC_STATUS_OK)

	mov	rcx, QWORD PTR nv$[rbp]
	call	CheckNumber
	mov	DWORD PTR result$[rbp], eax
	cmp	DWORD PTR result$[rbp], 0
	je	SHORT $LN6@PMC_Equals

; 267  :         return (result);

	mov	eax, DWORD PTR result$[rbp]
	jmp	$LN1@PMC_Equals
$LN6@PMC_Equals:

; 268  :     if (nu->IS_ZERO)

	mov	rax, QWORD PTR nu$[rbp]
	mov	eax, DWORD PTR [rax+32]
	shr	eax, 1
	and	eax, 1
	test	eax, eax
	je	SHORT $LN7@PMC_Equals

; 269  :     {
; 270  :         *w = nv->IS_ZERO ? 1 : 0;

	mov	rax, QWORD PTR nv$[rbp]
	mov	eax, DWORD PTR [rax+32]
	shr	eax, 1
	and	eax, 1
	test	eax, eax
	je	SHORT $LN14@PMC_Equals
	mov	DWORD PTR tv81[rbp], 1
	jmp	SHORT $LN15@PMC_Equals
$LN14@PMC_Equals:
	mov	DWORD PTR tv81[rbp], 0
$LN15@PMC_Equals:
	mov	rax, QWORD PTR w$[rbp]
	mov	ecx, DWORD PTR tv81[rbp]
	mov	DWORD PTR [rax], ecx

; 271  :     }

	jmp	SHORT $LN8@PMC_Equals
$LN7@PMC_Equals:

; 272  :     else if (nv->IS_ZERO)

	mov	rax, QWORD PTR nv$[rbp]
	mov	eax, DWORD PTR [rax+32]
	shr	eax, 1
	and	eax, 1
	test	eax, eax
	je	SHORT $LN9@PMC_Equals

; 273  :     {
; 274  :         *w = 0;

	mov	rax, QWORD PTR w$[rbp]
	mov	DWORD PTR [rax], 0

; 275  :     }

	jmp	SHORT $LN10@PMC_Equals
$LN9@PMC_Equals:

; 276  :     else
; 277  :     {
; 278  :         __UNIT_TYPE u_bit_count = nu->UNIT_BIT_COUNT;

	mov	rax, QWORD PTR nu$[rbp]
	mov	rax, QWORD PTR [rax+8]
	mov	QWORD PTR u_bit_count$1[rbp], rax

; 279  :         __UNIT_TYPE v_bit_count = nv->UNIT_BIT_COUNT;

	mov	rax, QWORD PTR nv$[rbp]
	mov	rax, QWORD PTR [rax+8]
	mov	QWORD PTR v_bit_count$2[rbp], rax

; 280  :         if (u_bit_count != v_bit_count)

	mov	rax, QWORD PTR v_bit_count$2[rbp]
	cmp	QWORD PTR u_bit_count$1[rbp], rax
	je	SHORT $LN11@PMC_Equals

; 281  :         {
; 282  :             // 明らかに u > v である場合
; 283  :             *w = 0;

	mov	rax, QWORD PTR w$[rbp]
	mov	DWORD PTR [rax], 0

; 284  :         }

	jmp	SHORT $LN12@PMC_Equals
$LN11@PMC_Equals:

; 285  :         else
; 286  :         {
; 287  :             // u > 0 && v > 0 かつ u のビット長と v のビット長が等しい場合
; 288  :             *w = Equals_X_X(nu->BLOCK, nv->BLOCK, nu->UNIT_WORD_COUNT);

	mov	rax, QWORD PTR nu$[rbp]
	mov	r8, QWORD PTR [rax]
	mov	rax, QWORD PTR nv$[rbp]
	mov	rdx, QWORD PTR [rax+48]
	mov	rax, QWORD PTR nu$[rbp]
	mov	rcx, QWORD PTR [rax+48]
	call	Equals_X_X
	mov	rcx, QWORD PTR w$[rbp]
	mov	DWORD PTR [rcx], eax
$LN12@PMC_Equals:
$LN10@PMC_Equals:
$LN8@PMC_Equals:

; 289  :         }
; 290  :     }
; 291  :     return (PMC_STATUS_OK);

	xor	eax, eax
$LN1@PMC_Equals:

; 292  : }

	lea	rsp, QWORD PTR [rbp+360]
	pop	rdi
	pop	rbp
	ret	0
PMC_Equals_X_X ENDP
_TEXT	ENDS
; Function compile flags: /Odtp /RTCsu /ZI
; File z:\sources\lunor\repos\rougemeilland\palmtree.math.core.implements\palmtree.math.core.implements\pmc_equals.c
;	COMDAT PMC_Equals_X_L
_TEXT	SEGMENT
result$ = 4
u$ = 256
v$ = 264
w$ = 272
PMC_Equals_X_L PROC					; COMDAT

; 235  : {

$LN8:
	mov	QWORD PTR [rsp+24], r8
	mov	QWORD PTR [rsp+16], rdx
	mov	QWORD PTR [rsp+8], rcx
	push	rbp
	push	rdi
	sub	rsp, 264				; 00000108H
	lea	rbp, QWORD PTR [rsp+32]
	mov	rdi, rsp
	mov	ecx, 66					; 00000042H
	mov	eax, -858993460				; ccccccccH
	rep stosd
	mov	rcx, QWORD PTR [rsp+296]
	lea	rcx, OFFSET FLAT:__3006EDED_pmc_equals@c
	call	__CheckForDebuggerJustMyCode

; 236  :     if (__UNIT_TYPE_BIT_COUNT * 2 < sizeof(v) * 8)

	xor	eax, eax
	test	eax, eax
	je	SHORT $LN2@PMC_Equals

; 237  :     {
; 238  :         // _UINT64_T が 2 ワードで表現しきれない処理系には対応しない
; 239  :         return (PMC_STATUS_INTERNAL_ERROR);

	mov	eax, -256				; ffffffffffffff00H
	jmp	SHORT $LN1@PMC_Equals
$LN2@PMC_Equals:

; 240  :     }
; 241  :     if (u == NULL)

	cmp	QWORD PTR u$[rbp], 0
	jne	SHORT $LN3@PMC_Equals

; 242  :         return (PMC_STATUS_ARGUMENT_ERROR);

	mov	eax, -1
	jmp	SHORT $LN1@PMC_Equals
$LN3@PMC_Equals:

; 243  :     if (w == NULL)

	cmp	QWORD PTR w$[rbp], 0
	jne	SHORT $LN4@PMC_Equals

; 244  :         return (PMC_STATUS_ARGUMENT_ERROR);

	mov	eax, -1
	jmp	SHORT $LN1@PMC_Equals
$LN4@PMC_Equals:

; 245  :     PMC_STATUS_CODE result;
; 246  :     if ((result = CheckNumber((NUMBER_HEADER*)u)) != PMC_STATUS_OK)

	mov	rcx, QWORD PTR u$[rbp]
	call	CheckNumber
	mov	DWORD PTR result$[rbp], eax
	cmp	DWORD PTR result$[rbp], 0
	je	SHORT $LN5@PMC_Equals

; 247  :         return (result);

	mov	eax, DWORD PTR result$[rbp]
	jmp	SHORT $LN1@PMC_Equals
$LN5@PMC_Equals:

; 248  :     if ((result = PMC_Equals_X_L_Imp((NUMBER_HEADER*)u, v, w)) != PMC_STATUS_OK)

	mov	r8, QWORD PTR w$[rbp]
	mov	rdx, QWORD PTR v$[rbp]
	mov	rcx, QWORD PTR u$[rbp]
	call	PMC_Equals_X_L_Imp
	mov	DWORD PTR result$[rbp], eax
	cmp	DWORD PTR result$[rbp], 0
	je	SHORT $LN6@PMC_Equals

; 249  :         return (result);

	mov	eax, DWORD PTR result$[rbp]
	jmp	SHORT $LN1@PMC_Equals
$LN6@PMC_Equals:

; 250  :     return (PMC_STATUS_OK);

	xor	eax, eax
$LN1@PMC_Equals:

; 251  : }

	lea	rsp, QWORD PTR [rbp+232]
	pop	rdi
	pop	rbp
	ret	0
PMC_Equals_X_L ENDP
_TEXT	ENDS
; Function compile flags: /Odtp /RTCsu /ZI
; File z:\sources\lunor\repos\rougemeilland\palmtree.math.core.implements\palmtree.math.core.implements\pmc_equals.c
;	COMDAT PMC_Equals_X_I
_TEXT	SEGMENT
result$ = 4
u$ = 256
v$ = 264
w$ = 272
PMC_Equals_X_I PROC					; COMDAT

; 112  : {

$LN8:
	mov	QWORD PTR [rsp+24], r8
	mov	DWORD PTR [rsp+16], edx
	mov	QWORD PTR [rsp+8], rcx
	push	rbp
	push	rdi
	sub	rsp, 264				; 00000108H
	lea	rbp, QWORD PTR [rsp+32]
	mov	rdi, rsp
	mov	ecx, 66					; 00000042H
	mov	eax, -858993460				; ccccccccH
	rep stosd
	mov	rcx, QWORD PTR [rsp+296]
	lea	rcx, OFFSET FLAT:__3006EDED_pmc_equals@c
	call	__CheckForDebuggerJustMyCode

; 113  :     if (__UNIT_TYPE_BIT_COUNT < sizeof(v) * 8)

	xor	eax, eax
	test	eax, eax
	je	SHORT $LN2@PMC_Equals

; 114  :     {
; 115  :         // _UINT32_T が 1 ワードで表現しきれない処理系には対応しない
; 116  :         return (PMC_STATUS_INTERNAL_ERROR);

	mov	eax, -256				; ffffffffffffff00H
	jmp	SHORT $LN1@PMC_Equals
$LN2@PMC_Equals:

; 117  :     }
; 118  :     if (u == NULL)

	cmp	QWORD PTR u$[rbp], 0
	jne	SHORT $LN3@PMC_Equals

; 119  :         return (PMC_STATUS_ARGUMENT_ERROR);

	mov	eax, -1
	jmp	SHORT $LN1@PMC_Equals
$LN3@PMC_Equals:

; 120  :     if (w == NULL)

	cmp	QWORD PTR w$[rbp], 0
	jne	SHORT $LN4@PMC_Equals

; 121  :         return (PMC_STATUS_ARGUMENT_ERROR);

	mov	eax, -1
	jmp	SHORT $LN1@PMC_Equals
$LN4@PMC_Equals:

; 122  :     PMC_STATUS_CODE result;
; 123  :     if ((result = CheckNumber((NUMBER_HEADER*)u)) != PMC_STATUS_OK)

	mov	rcx, QWORD PTR u$[rbp]
	call	CheckNumber
	mov	DWORD PTR result$[rbp], eax
	cmp	DWORD PTR result$[rbp], 0
	je	SHORT $LN5@PMC_Equals

; 124  :         return (result);

	mov	eax, DWORD PTR result$[rbp]
	jmp	SHORT $LN1@PMC_Equals
$LN5@PMC_Equals:

; 125  :     if ((result = PMC_Equals_X_I_Imp((NUMBER_HEADER*)u, v, w)) != PMC_STATUS_OK)

	mov	r8, QWORD PTR w$[rbp]
	mov	edx, DWORD PTR v$[rbp]
	mov	rcx, QWORD PTR u$[rbp]
	call	PMC_Equals_X_I_Imp
	mov	DWORD PTR result$[rbp], eax
	cmp	DWORD PTR result$[rbp], 0
	je	SHORT $LN6@PMC_Equals

; 126  :         return (result);

	mov	eax, DWORD PTR result$[rbp]
	jmp	SHORT $LN1@PMC_Equals
$LN6@PMC_Equals:

; 127  :     return (PMC_STATUS_OK);

	xor	eax, eax
$LN1@PMC_Equals:

; 128  : }

	lea	rsp, QWORD PTR [rbp+232]
	pop	rdi
	pop	rbp
	ret	0
PMC_Equals_X_I ENDP
_TEXT	ENDS
; Function compile flags: /Odtp /RTCsu /ZI
; File z:\sources\lunor\repos\rougemeilland\palmtree.math.core.implements\palmtree.math.core.implements\pmc_equals.c
;	COMDAT PMC_Equals_L_X
_TEXT	SEGMENT
result$ = 4
u$ = 256
v$ = 264
w$ = 272
PMC_Equals_L_X PROC					; COMDAT

; 216  : {

$LN8:
	mov	QWORD PTR [rsp+24], r8
	mov	QWORD PTR [rsp+16], rdx
	mov	QWORD PTR [rsp+8], rcx
	push	rbp
	push	rdi
	sub	rsp, 264				; 00000108H
	lea	rbp, QWORD PTR [rsp+32]
	mov	rdi, rsp
	mov	ecx, 66					; 00000042H
	mov	eax, -858993460				; ccccccccH
	rep stosd
	mov	rcx, QWORD PTR [rsp+296]
	lea	rcx, OFFSET FLAT:__3006EDED_pmc_equals@c
	call	__CheckForDebuggerJustMyCode

; 217  :     if (__UNIT_TYPE_BIT_COUNT * 2 < sizeof(u) * 8)

	xor	eax, eax
	test	eax, eax
	je	SHORT $LN2@PMC_Equals

; 218  :     {
; 219  :         // _UINT64_T が 2 ワードで表現しきれない処理系には対応しない
; 220  :         return (PMC_STATUS_INTERNAL_ERROR);

	mov	eax, -256				; ffffffffffffff00H
	jmp	SHORT $LN1@PMC_Equals
$LN2@PMC_Equals:

; 221  :     }
; 222  :     if (v == NULL)

	cmp	QWORD PTR v$[rbp], 0
	jne	SHORT $LN3@PMC_Equals

; 223  :         return (PMC_STATUS_ARGUMENT_ERROR);

	mov	eax, -1
	jmp	SHORT $LN1@PMC_Equals
$LN3@PMC_Equals:

; 224  :     if (w == NULL)

	cmp	QWORD PTR w$[rbp], 0
	jne	SHORT $LN4@PMC_Equals

; 225  :         return (PMC_STATUS_ARGUMENT_ERROR);

	mov	eax, -1
	jmp	SHORT $LN1@PMC_Equals
$LN4@PMC_Equals:

; 226  :     PMC_STATUS_CODE result;
; 227  :     if ((result = CheckNumber((NUMBER_HEADER*)v)) != PMC_STATUS_OK)

	mov	rcx, QWORD PTR v$[rbp]
	call	CheckNumber
	mov	DWORD PTR result$[rbp], eax
	cmp	DWORD PTR result$[rbp], 0
	je	SHORT $LN5@PMC_Equals

; 228  :         return (result);

	mov	eax, DWORD PTR result$[rbp]
	jmp	SHORT $LN1@PMC_Equals
$LN5@PMC_Equals:

; 229  :     if ((result = PMC_Equals_X_L_Imp((NUMBER_HEADER*)v, u, w)) != PMC_STATUS_OK)

	mov	r8, QWORD PTR w$[rbp]
	mov	rdx, QWORD PTR u$[rbp]
	mov	rcx, QWORD PTR v$[rbp]
	call	PMC_Equals_X_L_Imp
	mov	DWORD PTR result$[rbp], eax
	cmp	DWORD PTR result$[rbp], 0
	je	SHORT $LN6@PMC_Equals

; 230  :         return (result);

	mov	eax, DWORD PTR result$[rbp]
	jmp	SHORT $LN1@PMC_Equals
$LN6@PMC_Equals:

; 231  :     return (PMC_STATUS_OK);

	xor	eax, eax
$LN1@PMC_Equals:

; 232  : }

	lea	rsp, QWORD PTR [rbp+232]
	pop	rdi
	pop	rbp
	ret	0
PMC_Equals_L_X ENDP
_TEXT	ENDS
; Function compile flags: /Odtp /RTCsu /ZI
; File z:\sources\lunor\repos\rougemeilland\palmtree.math.core.implements\palmtree.math.core.implements\pmc_equals.c
;	COMDAT PMC_Equals_I_X
_TEXT	SEGMENT
result$ = 4
u$ = 256
v$ = 264
w$ = 272
PMC_Equals_I_X PROC					; COMDAT

; 93   : {

$LN8:
	mov	QWORD PTR [rsp+24], r8
	mov	QWORD PTR [rsp+16], rdx
	mov	DWORD PTR [rsp+8], ecx
	push	rbp
	push	rdi
	sub	rsp, 264				; 00000108H
	lea	rbp, QWORD PTR [rsp+32]
	mov	rdi, rsp
	mov	ecx, 66					; 00000042H
	mov	eax, -858993460				; ccccccccH
	rep stosd
	mov	ecx, DWORD PTR [rsp+296]
	lea	rcx, OFFSET FLAT:__3006EDED_pmc_equals@c
	call	__CheckForDebuggerJustMyCode

; 94   :     if (__UNIT_TYPE_BIT_COUNT < sizeof(u) * 8)

	xor	eax, eax
	test	eax, eax
	je	SHORT $LN2@PMC_Equals

; 95   :     {
; 96   :         // _UINT32_T が 1 ワードで表現しきれない処理系には対応しない
; 97   :         return (PMC_STATUS_INTERNAL_ERROR);

	mov	eax, -256				; ffffffffffffff00H
	jmp	SHORT $LN1@PMC_Equals
$LN2@PMC_Equals:

; 98   :     }
; 99   :     if (v == NULL)

	cmp	QWORD PTR v$[rbp], 0
	jne	SHORT $LN3@PMC_Equals

; 100  :         return (PMC_STATUS_ARGUMENT_ERROR);

	mov	eax, -1
	jmp	SHORT $LN1@PMC_Equals
$LN3@PMC_Equals:

; 101  :     if (w == NULL)

	cmp	QWORD PTR w$[rbp], 0
	jne	SHORT $LN4@PMC_Equals

; 102  :         return (PMC_STATUS_ARGUMENT_ERROR);

	mov	eax, -1
	jmp	SHORT $LN1@PMC_Equals
$LN4@PMC_Equals:

; 103  :     PMC_STATUS_CODE result;
; 104  :     if ((result = CheckNumber((NUMBER_HEADER*)v)) != PMC_STATUS_OK)

	mov	rcx, QWORD PTR v$[rbp]
	call	CheckNumber
	mov	DWORD PTR result$[rbp], eax
	cmp	DWORD PTR result$[rbp], 0
	je	SHORT $LN5@PMC_Equals

; 105  :         return (result);

	mov	eax, DWORD PTR result$[rbp]
	jmp	SHORT $LN1@PMC_Equals
$LN5@PMC_Equals:

; 106  :     if ((result = PMC_Equals_X_I_Imp((NUMBER_HEADER*)v, u, w)) != PMC_STATUS_OK)

	mov	r8, QWORD PTR w$[rbp]
	mov	edx, DWORD PTR u$[rbp]
	mov	rcx, QWORD PTR v$[rbp]
	call	PMC_Equals_X_I_Imp
	mov	DWORD PTR result$[rbp], eax
	cmp	DWORD PTR result$[rbp], 0
	je	SHORT $LN6@PMC_Equals

; 107  :         return (result);

	mov	eax, DWORD PTR result$[rbp]
	jmp	SHORT $LN1@PMC_Equals
$LN6@PMC_Equals:

; 108  :     return (PMC_STATUS_OK);

	xor	eax, eax
$LN1@PMC_Equals:

; 109  : }

	lea	rsp, QWORD PTR [rbp+232]
	pop	rdi
	pop	rbp
	ret	0
PMC_Equals_I_X ENDP
_TEXT	ENDS
; Function compile flags: /Odtp /RTCsu /ZI
; File z:\sources\lunor\repos\rougemeilland\palmtree.math.core.implements\palmtree.math.core.implements\pmc_equals.c
;	COMDAT Initialize_Equals
_TEXT	SEGMENT
feature$ = 224
Initialize_Equals PROC					; COMDAT

; 295  : {

$LN3:
	mov	QWORD PTR [rsp+8], rcx
	push	rbp
	push	rdi
	sub	rsp, 232				; 000000e8H
	lea	rbp, QWORD PTR [rsp+32]
	mov	rdi, rsp
	mov	ecx, 58					; 0000003aH
	mov	eax, -858993460				; ccccccccH
	rep stosd
	mov	rcx, QWORD PTR [rsp+264]
	lea	rcx, OFFSET FLAT:__3006EDED_pmc_equals@c
	call	__CheckForDebuggerJustMyCode

; 296  :     return (PMC_STATUS_OK);

	xor	eax, eax

; 297  : }

	lea	rsp, QWORD PTR [rbp+200]
	pop	rdi
	pop	rbp
	ret	0
Initialize_Equals ENDP
_TEXT	ENDS
END
