; Listing generated by Microsoft (R) Optimizing Compiler Version 19.16.27026.1 

include listing.inc

INCLUDELIB MSVCRTD
INCLUDELIB OLDNAMES

msvcjmc	SEGMENT
__7B7A869E_ctype@h DB 01H
__457DD326_basetsd@h DB 01H
__4384A2D9_corecrt_memcpy_s@h DB 01H
__4E51A221_corecrt_wstring@h DB 01H
__2140C079_string@h DB 01H
__1887E595_winnt@h DB 01H
__9FC7C64B_processthreadsapi@h DB 01H
__FA470AEC_memoryapi@h DB 01H
__F37DAFF1_winerror@h DB 01H
__7A450CCC_winbase@h DB 01H
__B4B40122_winioctl@h DB 01H
__86261D59_stralign@h DB 01H
__4522B509_pmc_internal@h DB 01H
__89DB6AB9_autogenerated_inline_func@h DB 01H
__62F961D6_pmc_divrem@c DB 01H
msvcjmc	ENDS
PUBLIC	DivRem_X_1W
PUBLIC	DivRem_X_X
PUBLIC	Initialize_DivRem
PUBLIC	PMC_DivRem_I_X
PUBLIC	PMC_DivRem_L_X
PUBLIC	PMC_DivRem_X_I
PUBLIC	PMC_DivRem_X_L
PUBLIC	PMC_DivRem_X_X
PUBLIC	__JustMyCode_Default
EXTRN	AllocateBlock:PROC
EXTRN	DeallocateBlock:PROC
EXTRN	CheckBlockLight:PROC
EXTRN	AllocateNumber:PROC
EXTRN	DeallocateNumber:PROC
EXTRN	CommitNumber:PROC
EXTRN	CheckNumber:PROC
EXTRN	DuplicateNumber:PROC
EXTRN	RightShift_Imp_DIV:PROC
EXTRN	LeftShift_Imp_DIV:PROC
EXTRN	_RTC_CheckStackVars:PROC
EXTRN	_RTC_InitBase:PROC
EXTRN	_RTC_Shutdown:PROC
EXTRN	__CheckForDebuggerJustMyCode:PROC
EXTRN	__GSHandlerCheck:PROC
EXTRN	__security_check_cookie:PROC
EXTRN	number_zero:BYTE
EXTRN	statistics_info:BYTE
EXTRN	__security_cookie:QWORD
_BSS	SEGMENT
fp_DivRem_X_X DQ 01H DUP (?)
_BSS	ENDS
;	COMDAT pdata
pdata	SEGMENT
$pdata$DivRem_X_1W DD imagerel $LN25
	DD	imagerel $LN25+4174
	DD	imagerel $unwind$DivRem_X_1W
pdata	ENDS
;	COMDAT pdata
pdata	SEGMENT
$pdata$DivRem_X_X DD imagerel $LN14
	DD	imagerel $LN14+544
	DD	imagerel $unwind$DivRem_X_X
pdata	ENDS
;	COMDAT pdata
pdata	SEGMENT
$pdata$Initialize_DivRem DD imagerel $LN5
	DD	imagerel $LN5+147
	DD	imagerel $unwind$Initialize_DivRem
pdata	ENDS
;	COMDAT pdata
pdata	SEGMENT
$pdata$PMC_DivRem_I_X DD imagerel $LN17
	DD	imagerel $LN17+494
	DD	imagerel $unwind$PMC_DivRem_I_X
pdata	ENDS
;	COMDAT pdata
pdata	SEGMENT
$pdata$PMC_DivRem_L_X DD imagerel $LN29
	DD	imagerel $LN29+1339
	DD	imagerel $unwind$PMC_DivRem_L_X
pdata	ENDS
;	COMDAT pdata
pdata	SEGMENT
$pdata$PMC_DivRem_X_I DD imagerel $LN20
	DD	imagerel $LN20+711
	DD	imagerel $unwind$PMC_DivRem_X_I
pdata	ENDS
;	COMDAT pdata
pdata	SEGMENT
$pdata$PMC_DivRem_X_L DD imagerel $LN40
	DD	imagerel $LN40+1825
	DD	imagerel $unwind$PMC_DivRem_X_L
pdata	ENDS
;	COMDAT pdata
pdata	SEGMENT
$pdata$PMC_DivRem_X_X DD imagerel $LN36
	DD	imagerel $LN36+1595
	DD	imagerel $unwind$PMC_DivRem_X_X
pdata	ENDS
;	COMDAT pdata
pdata	SEGMENT
$pdata$_COPY_MEMORY_UNIT DD imagerel _COPY_MEMORY_UNIT
	DD	imagerel _COPY_MEMORY_UNIT+100
	DD	imagerel $unwind$_COPY_MEMORY_UNIT
pdata	ENDS
;	COMDAT pdata
pdata	SEGMENT
$pdata$_COPY_MEMORY_UNIT_DIV DD imagerel _COPY_MEMORY_UNIT_DIV
	DD	imagerel _COPY_MEMORY_UNIT_DIV+100
	DD	imagerel $unwind$_COPY_MEMORY_UNIT_DIV
pdata	ENDS
;	COMDAT pdata
pdata	SEGMENT
$pdata$_FROMWORDTODWORD DD imagerel _FROMWORDTODWORD
	DD	imagerel _FROMWORDTODWORD+85
	DD	imagerel $unwind$_FROMWORDTODWORD
pdata	ENDS
;	COMDAT pdata
pdata	SEGMENT
$pdata$_FROMDWORDTOWORD DD imagerel _FROMDWORDTOWORD
	DD	imagerel _FROMDWORDTOWORD+95
	DD	imagerel $unwind$_FROMDWORDTOWORD
pdata	ENDS
;	COMDAT pdata
pdata	SEGMENT
$pdata$_ADD_UNIT_DIV DD imagerel _ADD_UNIT_DIV
	DD	imagerel _ADD_UNIT_DIV+114
	DD	imagerel $unwind$_ADD_UNIT_DIV
pdata	ENDS
;	COMDAT pdata
pdata	SEGMENT
$pdata$_ADDX_UNIT_DIV DD imagerel _ADDX_UNIT_DIV
	DD	imagerel _ADDX_UNIT_DIV+117
	DD	imagerel $unwind$_ADDX_UNIT_DIV
pdata	ENDS
;	COMDAT pdata
pdata	SEGMENT
$pdata$_SUBTRUCT_UNIT_DIV DD imagerel _SUBTRUCT_UNIT_DIV
	DD	imagerel _SUBTRUCT_UNIT_DIV+114
	DD	imagerel $unwind$_SUBTRUCT_UNIT_DIV
pdata	ENDS
;	COMDAT pdata
pdata	SEGMENT
$pdata$_MULTIPLY_UNIT_DIV DD imagerel _MULTIPLY_UNIT_DIV
	DD	imagerel _MULTIPLY_UNIT_DIV+102
	DD	imagerel $unwind$_MULTIPLY_UNIT_DIV
pdata	ENDS
;	COMDAT pdata
pdata	SEGMENT
$pdata$_MULTIPLYX_UNIT_DIV DD imagerel _MULTIPLYX_UNIT_DIV
	DD	imagerel _MULTIPLYX_UNIT_DIV+102
	DD	imagerel $unwind$_MULTIPLYX_UNIT_DIV
pdata	ENDS
;	COMDAT pdata
pdata	SEGMENT
$pdata$_DIVREM_UNIT DD imagerel _DIVREM_UNIT
	DD	imagerel _DIVREM_UNIT+218
	DD	imagerel $unwind$_DIVREM_UNIT
pdata	ENDS
;	COMDAT pdata
pdata	SEGMENT
$pdata$_DIVREM_SINGLE_UNIT DD imagerel _DIVREM_SINGLE_UNIT
	DD	imagerel _DIVREM_SINGLE_UNIT+218
	DD	imagerel $unwind$_DIVREM_SINGLE_UNIT
pdata	ENDS
;	COMDAT pdata
pdata	SEGMENT
$pdata$_LZCNT_ALT_32 DD imagerel _LZCNT_ALT_32
	DD	imagerel _LZCNT_ALT_32+126
	DD	imagerel $unwind$_LZCNT_ALT_32
pdata	ENDS
;	COMDAT pdata
pdata	SEGMENT
$pdata$_LZCNT_ALT_UNIT DD imagerel _LZCNT_ALT_UNIT
	DD	imagerel _LZCNT_ALT_UNIT+131
	DD	imagerel $unwind$_LZCNT_ALT_UNIT
pdata	ENDS
;	COMDAT pdata
pdata	SEGMENT
$pdata$_LZCNT_ALT_UNIT_DIV DD imagerel _LZCNT_ALT_UNIT_DIV
	DD	imagerel _LZCNT_ALT_UNIT_DIV+126
	DD	imagerel $unwind$_LZCNT_ALT_UNIT_DIV
pdata	ENDS
;	COMDAT pdata
pdata	SEGMENT
$pdata$IncrementDIV32Counter DD imagerel IncrementDIV32Counter
	DD	imagerel IncrementDIV32Counter+62
	DD	imagerel $unwind$IncrementDIV32Counter
pdata	ENDS
;	COMDAT pdata
pdata	SEGMENT
$pdata$IncrementDIV64Counter DD imagerel IncrementDIV64Counter
	DD	imagerel IncrementDIV64Counter+62
	DD	imagerel $unwind$IncrementDIV64Counter
pdata	ENDS
;	COMDAT pdata
pdata	SEGMENT
$pdata$IncrementMULTI32Counter DD imagerel IncrementMULTI32Counter
	DD	imagerel IncrementMULTI32Counter+62
	DD	imagerel $unwind$IncrementMULTI32Counter
pdata	ENDS
;	COMDAT pdata
pdata	SEGMENT
$pdata$IncrementMULTI64Counter DD imagerel IncrementMULTI64Counter
	DD	imagerel IncrementMULTI64Counter+62
	DD	imagerel $unwind$IncrementMULTI64Counter
pdata	ENDS
;	COMDAT pdata
pdata	SEGMENT
$pdata$AddToDIV32Counter DD imagerel AddToDIV32Counter
	DD	imagerel AddToDIV32Counter+78
	DD	imagerel $unwind$AddToDIV32Counter
pdata	ENDS
;	COMDAT pdata
pdata	SEGMENT
$pdata$AddToDIV64Counter DD imagerel AddToDIV64Counter
	DD	imagerel AddToDIV64Counter+78
	DD	imagerel $unwind$AddToDIV64Counter
pdata	ENDS
;	COMDAT pdata
pdata	SEGMENT
$pdata$AddToMULTI32Counter DD imagerel AddToMULTI32Counter
	DD	imagerel AddToMULTI32Counter+78
	DD	imagerel $unwind$AddToMULTI32Counter
pdata	ENDS
;	COMDAT pdata
pdata	SEGMENT
$pdata$AddToMULTI64Counter DD imagerel AddToMULTI64Counter
	DD	imagerel AddToMULTI64Counter+78
	DD	imagerel $unwind$AddToMULTI64Counter
pdata	ENDS
;	COMDAT pdata
pdata	SEGMENT
$pdata$_ADD_32WORDS_ADC_DIV DD imagerel _ADD_32WORDS_ADC_DIV
	DD	imagerel _ADD_32WORDS_ADC_DIV+2709
	DD	imagerel $unwind$_ADD_32WORDS_ADC_DIV
pdata	ENDS
;	COMDAT pdata
pdata	SEGMENT
$pdata$_ADD_32WORDS_ADCX_DIV DD imagerel _ADD_32WORDS_ADCX_DIV
	DD	imagerel _ADD_32WORDS_ADCX_DIV+2709
	DD	imagerel $unwind$_ADD_32WORDS_ADCX_DIV
pdata	ENDS
;	COMDAT pdata
pdata	SEGMENT
$pdata$_ADD_16WORDS_ADC_DIV DD imagerel _ADD_16WORDS_ADC_DIV
	DD	imagerel _ADD_16WORDS_ADC_DIV+1397
	DD	imagerel $unwind$_ADD_16WORDS_ADC_DIV
pdata	ENDS
;	COMDAT pdata
pdata	SEGMENT
$pdata$_ADD_16WORDS_ADCX_DIV DD imagerel _ADD_16WORDS_ADCX_DIV
	DD	imagerel _ADD_16WORDS_ADCX_DIV+1397
	DD	imagerel $unwind$_ADD_16WORDS_ADCX_DIV
pdata	ENDS
;	COMDAT pdata
pdata	SEGMENT
$pdata$_ADD_8WORDS_ADC_DIV DD imagerel _ADD_8WORDS_ADC_DIV
	DD	imagerel _ADD_8WORDS_ADC_DIV+741
	DD	imagerel $unwind$_ADD_8WORDS_ADC_DIV
pdata	ENDS
;	COMDAT pdata
pdata	SEGMENT
$pdata$_ADD_8WORDS_ADCX_DIV DD imagerel _ADD_8WORDS_ADCX_DIV
	DD	imagerel _ADD_8WORDS_ADCX_DIV+741
	DD	imagerel $unwind$_ADD_8WORDS_ADCX_DIV
pdata	ENDS
;	COMDAT pdata
pdata	SEGMENT
$pdata$_ADD_4WORDS_ADC_DIV DD imagerel _ADD_4WORDS_ADC_DIV
	DD	imagerel _ADD_4WORDS_ADC_DIV+413
	DD	imagerel $unwind$_ADD_4WORDS_ADC_DIV
pdata	ENDS
;	COMDAT pdata
pdata	SEGMENT
$pdata$_ADD_4WORDS_ADCX_DIV DD imagerel _ADD_4WORDS_ADCX_DIV
	DD	imagerel _ADD_4WORDS_ADCX_DIV+413
	DD	imagerel $unwind$_ADD_4WORDS_ADCX_DIV
pdata	ENDS
;	COMDAT pdata
pdata	SEGMENT
$pdata$_ADD_2WORDS_ADC_DIV DD imagerel _ADD_2WORDS_ADC_DIV
	DD	imagerel _ADD_2WORDS_ADC_DIV+249
	DD	imagerel $unwind$_ADD_2WORDS_ADC_DIV
pdata	ENDS
;	COMDAT pdata
pdata	SEGMENT
$pdata$_ADD_2WORDS_ADCX_DIV DD imagerel _ADD_2WORDS_ADCX_DIV
	DD	imagerel _ADD_2WORDS_ADCX_DIV+249
	DD	imagerel $unwind$_ADD_2WORDS_ADCX_DIV
pdata	ENDS
;	COMDAT pdata
pdata	SEGMENT
$pdata$AsumeQ_ DD imagerel AsumeQ_
	DD	imagerel AsumeQ_+166
	DD	imagerel $unwind$AsumeQ_
pdata	ENDS
;	COMDAT pdata
pdata	SEGMENT
$pdata$CheckQ_ DD imagerel CheckQ_
	DD	imagerel CheckQ_+323
	DD	imagerel $unwind$CheckQ_
pdata	ENDS
;	COMDAT pdata
pdata	SEGMENT
$pdata$CheckQ_X DD imagerel CheckQ_X
	DD	imagerel CheckQ_X+323
	DD	imagerel $unwind$CheckQ_X
pdata	ENDS
;	COMDAT pdata
pdata	SEGMENT
$pdata$CalculateQ_ DD imagerel CalculateQ_
	DD	imagerel CalculateQ_+370
	DD	imagerel $unwind$CalculateQ_
pdata	ENDS
;	COMDAT pdata
pdata	SEGMENT
$pdata$CalculateQ_X DD imagerel CalculateQ_X
	DD	imagerel CalculateQ_X+370
	DD	imagerel $unwind$CalculateQ_X
pdata	ENDS
;	COMDAT pdata
pdata	SEGMENT
$pdata$DoBorrow DD imagerel DoBorrow
	DD	imagerel DoBorrow+198
	DD	imagerel $unwind$DoBorrow
pdata	ENDS
;	COMDAT pdata
pdata	SEGMENT
$pdata$_MULTIPLY_DIGIT_UNIT_DIV DD imagerel _MULTIPLY_DIGIT_UNIT_DIV
	DD	imagerel _MULTIPLY_DIGIT_UNIT_DIV+224
	DD	imagerel $unwind$_MULTIPLY_DIGIT_UNIT_DIV
pdata	ENDS
;	COMDAT pdata
pdata	SEGMENT
$pdata$_MULTIPLYX_DIGIT_UNIT_DIV DD imagerel _MULTIPLYX_DIGIT_UNIT_DIV
	DD	imagerel _MULTIPLYX_DIGIT_UNIT_DIV+224
	DD	imagerel $unwind$_MULTIPLYX_DIGIT_UNIT_DIV
pdata	ENDS
;	COMDAT pdata
pdata	SEGMENT
$pdata$SubtructOneLine DD imagerel SubtructOneLine
	DD	imagerel SubtructOneLine+5427
	DD	imagerel $unwind$SubtructOneLine
pdata	ENDS
;	COMDAT pdata
pdata	SEGMENT
$pdata$SubtructOneLineX DD imagerel SubtructOneLineX
	DD	imagerel SubtructOneLineX+5427
	DD	imagerel $unwind$SubtructOneLineX
pdata	ENDS
;	COMDAT pdata
pdata	SEGMENT
$pdata$DoCarry DD imagerel DoCarry
	DD	imagerel DoCarry+176
	DD	imagerel $unwind$DoCarry
pdata	ENDS
;	COMDAT pdata
pdata	SEGMENT
$pdata$AddOneLine DD imagerel AddOneLine
	DD	imagerel AddOneLine+591
	DD	imagerel $unwind$AddOneLine
pdata	ENDS
;	COMDAT pdata
pdata	SEGMENT
$pdata$AddOneLineX DD imagerel AddOneLineX
	DD	imagerel AddOneLineX+591
	DD	imagerel $unwind$AddOneLineX
pdata	ENDS
;	COMDAT pdata
pdata	SEGMENT
$pdata$DivRem_X_X_using_ADC_MUL DD imagerel DivRem_X_X_using_ADC_MUL
	DD	imagerel DivRem_X_X_using_ADC_MUL+617
	DD	imagerel $unwind$DivRem_X_X_using_ADC_MUL
pdata	ENDS
;	COMDAT pdata
pdata	SEGMENT
$pdata$DivRem_X_X_using_ADX_MULX DD imagerel DivRem_X_X_using_ADX_MULX
	DD	imagerel DivRem_X_X_using_ADX_MULX+617
	DD	imagerel $unwind$DivRem_X_X_using_ADX_MULX
pdata	ENDS
;	COMDAT rtc$TMZ
rtc$TMZ	SEGMENT
_RTC_Shutdown.rtc$TMZ DQ FLAT:_RTC_Shutdown
rtc$TMZ	ENDS
;	COMDAT rtc$IMZ
rtc$IMZ	SEGMENT
_RTC_InitBase.rtc$IMZ DQ FLAT:_RTC_InitBase
rtc$IMZ	ENDS
;	COMDAT xdata
xdata	SEGMENT
$unwind$DivRem_X_X_using_ADX_MULX DD 035053901H
	DD	011d3322H
	DD	07016002fH
	DD	05015H
xdata	ENDS
;	COMDAT xdata
xdata	SEGMENT
$unwind$DivRem_X_X_using_ADC_MUL DD 035053901H
	DD	011d3322H
	DD	07016002fH
	DD	05015H
xdata	ENDS
;	COMDAT xdata
xdata	SEGMENT
$unwind$AddOneLineX DD 025053901H
	DD	011d2322H
	DD	070160031H
	DD	05015H
xdata	ENDS
;	COMDAT xdata
xdata	SEGMENT
$unwind$AddOneLine DD 025053901H
	DD	011d2322H
	DD	070160031H
	DD	05015H
xdata	ENDS
;	COMDAT xdata
xdata	SEGMENT
$unwind$DoCarry DD 025053301H
	DD	0117231cH
	DD	07010001dH
	DD	0500fH
xdata	ENDS
;	COMDAT xdata
xdata	SEGMENT
$unwind$SubtructOneLineX DD 035053901H
	DD	011d3322H
	DD	070160037H
	DD	05015H
xdata	ENDS
;	COMDAT CONST
CONST	SEGMENT
SubtructOneLineX$rtcName$0 DB 06bH
	DB	00H
	ORG $+14
SubtructOneLineX$rtcVarDesc DD 094H
	DD	04H
	DQ	FLAT:SubtructOneLineX$rtcName$0
	ORG $+48
SubtructOneLineX$rtcFrameData DD 01H
	DD	00H
	DQ	FLAT:SubtructOneLineX$rtcVarDesc
CONST	ENDS
;	COMDAT xdata
xdata	SEGMENT
$unwind$SubtructOneLine DD 035053901H
	DD	011d3322H
	DD	070160037H
	DD	05015H
xdata	ENDS
;	COMDAT CONST
CONST	SEGMENT
SubtructOneLine$rtcName$0 DB 06bH
	DB	00H
	ORG $+14
SubtructOneLine$rtcVarDesc DD 094H
	DD	04H
	DQ	FLAT:SubtructOneLine$rtcName$0
	ORG $+48
SubtructOneLine$rtcFrameData DD 01H
	DD	00H
	DQ	FLAT:SubtructOneLine$rtcVarDesc
CONST	ENDS
;	COMDAT xdata
xdata	SEGMENT
$unwind$_MULTIPLYX_DIGIT_UNIT_DIV DD 025053801H
	DD	011c2321H
	DD	070150025H
	DD	05014H
xdata	ENDS
;	COMDAT CONST
CONST	SEGMENT
_MULTIPLYX_DIGIT_UNIT_DIV$rtcName$0 DB 074H
	DB	05fH
	DB	068H
	DB	069H
	DB	00H
	ORG $+3
_MULTIPLYX_DIGIT_UNIT_DIV$rtcName$1 DB 074H
	DB	05fH
	DB	06cH
	DB	06fH
	DB	00H
	ORG $+3
_MULTIPLYX_DIGIT_UNIT_DIV$rtcVarDesc DD 044H
	DD	04H
	DQ	FLAT:_MULTIPLYX_DIGIT_UNIT_DIV$rtcName$1
	DD	024H
	DD	04H
	DQ	FLAT:_MULTIPLYX_DIGIT_UNIT_DIV$rtcName$0
	ORG $+96
_MULTIPLYX_DIGIT_UNIT_DIV$rtcFrameData DD 02H
	DD	00H
	DQ	FLAT:_MULTIPLYX_DIGIT_UNIT_DIV$rtcVarDesc
CONST	ENDS
;	COMDAT xdata
xdata	SEGMENT
$unwind$_MULTIPLY_DIGIT_UNIT_DIV DD 025053801H
	DD	011c2321H
	DD	070150025H
	DD	05014H
xdata	ENDS
;	COMDAT CONST
CONST	SEGMENT
_MULTIPLY_DIGIT_UNIT_DIV$rtcName$0 DB 074H
	DB	05fH
	DB	068H
	DB	069H
	DB	00H
	ORG $+3
_MULTIPLY_DIGIT_UNIT_DIV$rtcName$1 DB 074H
	DB	05fH
	DB	06cH
	DB	06fH
	DB	00H
	ORG $+3
_MULTIPLY_DIGIT_UNIT_DIV$rtcVarDesc DD 044H
	DD	04H
	DQ	FLAT:_MULTIPLY_DIGIT_UNIT_DIV$rtcName$1
	DD	024H
	DD	04H
	DQ	FLAT:_MULTIPLY_DIGIT_UNIT_DIV$rtcName$0
	ORG $+96
_MULTIPLY_DIGIT_UNIT_DIV$rtcFrameData DD 02H
	DD	00H
	DQ	FLAT:_MULTIPLY_DIGIT_UNIT_DIV$rtcVarDesc
CONST	ENDS
;	COMDAT xdata
xdata	SEGMENT
$unwind$DoBorrow DD 025053301H
	DD	0117231cH
	DD	07010001dH
	DD	0500fH
xdata	ENDS
;	COMDAT xdata
xdata	SEGMENT
$unwind$CalculateQ_X DD 035053901H
	DD	011d3322H
	DD	07016003bH
	DD	05015H
xdata	ENDS
;	COMDAT xdata
xdata	SEGMENT
$unwind$CalculateQ_ DD 035053901H
	DD	011d3322H
	DD	07016003bH
	DD	05015H
xdata	ENDS
;	COMDAT xdata
xdata	SEGMENT
$unwind$CheckQ_X DD 025053601H
	DD	011b2320H
	DD	070140039H
	DD	05013H
xdata	ENDS
;	COMDAT CONST
CONST	SEGMENT
CheckQ_X$rtcName$0 DB 06cH
	DB	068H
	DB	05fH
	DB	06dH
	DB	069H
	DB	00H
	ORG $+2
CheckQ_X$rtcName$1 DB 072H
	DB	068H
	DB	05fH
	DB	068H
	DB	069H
	DB	00H
	ORG $+2
CheckQ_X$rtcName$2 DB 072H
	DB	068H
	DB	05fH
	DB	06dH
	DB	069H
	DB	00H
	ORG $+2
CheckQ_X$rtcName$3 DB 074H
	DB	05fH
	DB	068H
	DB	069H
	DB	00H
	ORG $+3
CheckQ_X$rtcVarDesc DD 0c4H
	DD	04H
	DQ	FLAT:CheckQ_X$rtcName$3
	DD	084H
	DD	04H
	DQ	FLAT:CheckQ_X$rtcName$2
	DD	064H
	DD	04H
	DQ	FLAT:CheckQ_X$rtcName$1
	DD	024H
	DD	04H
	DQ	FLAT:CheckQ_X$rtcName$0
	ORG $+192
CheckQ_X$rtcFrameData DD 04H
	DD	00H
	DQ	FLAT:CheckQ_X$rtcVarDesc
CONST	ENDS
;	COMDAT xdata
xdata	SEGMENT
$unwind$CheckQ_ DD 025053601H
	DD	011b2320H
	DD	070140039H
	DD	05013H
xdata	ENDS
;	COMDAT CONST
CONST	SEGMENT
CheckQ_$rtcName$0 DB 06cH
	DB	068H
	DB	05fH
	DB	06dH
	DB	069H
	DB	00H
	ORG $+2
CheckQ_$rtcName$1 DB 072H
	DB	068H
	DB	05fH
	DB	068H
	DB	069H
	DB	00H
	ORG $+2
CheckQ_$rtcName$2 DB 072H
	DB	068H
	DB	05fH
	DB	06dH
	DB	069H
	DB	00H
	ORG $+2
CheckQ_$rtcName$3 DB 074H
	DB	05fH
	DB	068H
	DB	069H
	DB	00H
	ORG $+3
CheckQ_$rtcVarDesc DD 0c4H
	DD	04H
	DQ	FLAT:CheckQ_$rtcName$3
	DD	084H
	DD	04H
	DQ	FLAT:CheckQ_$rtcName$2
	DD	064H
	DD	04H
	DQ	FLAT:CheckQ_$rtcName$1
	DD	024H
	DD	04H
	DQ	FLAT:CheckQ_$rtcName$0
	ORG $+192
CheckQ_$rtcFrameData DD 04H
	DD	00H
	DQ	FLAT:CheckQ_$rtcVarDesc
CONST	ENDS
;	COMDAT xdata
xdata	SEGMENT
$unwind$AsumeQ_ DD 025053101H
	DD	0116231bH
	DD	0700f0025H
	DD	0500eH
xdata	ENDS
;	COMDAT CONST
CONST	SEGMENT
AsumeQ_$rtcName$0 DB 072H
	DB	00H
	ORG $+14
AsumeQ_$rtcVarDesc DD 024H
	DD	04H
	DQ	FLAT:AsumeQ_$rtcName$0
	ORG $+48
AsumeQ_$rtcFrameData DD 01H
	DD	00H
	DQ	FLAT:AsumeQ_$rtcVarDesc
CONST	ENDS
;	COMDAT xdata
xdata	SEGMENT
$unwind$_ADD_2WORDS_ADCX_DIV DD 025053801H
	DD	011c2321H
	DD	07015001dH
	DD	05014H
xdata	ENDS
;	COMDAT xdata
xdata	SEGMENT
$unwind$_ADD_2WORDS_ADC_DIV DD 025053801H
	DD	011c2321H
	DD	07015001dH
	DD	05014H
xdata	ENDS
;	COMDAT xdata
xdata	SEGMENT
$unwind$_ADD_4WORDS_ADCX_DIV DD 025053801H
	DD	011c2321H
	DD	07015001dH
	DD	05014H
xdata	ENDS
;	COMDAT xdata
xdata	SEGMENT
$unwind$_ADD_4WORDS_ADC_DIV DD 025053801H
	DD	011c2321H
	DD	07015001dH
	DD	05014H
xdata	ENDS
;	COMDAT xdata
xdata	SEGMENT
$unwind$_ADD_8WORDS_ADCX_DIV DD 025053801H
	DD	011c2321H
	DD	07015001dH
	DD	05014H
xdata	ENDS
;	COMDAT xdata
xdata	SEGMENT
$unwind$_ADD_8WORDS_ADC_DIV DD 025053801H
	DD	011c2321H
	DD	07015001dH
	DD	05014H
xdata	ENDS
;	COMDAT xdata
xdata	SEGMENT
$unwind$_ADD_16WORDS_ADCX_DIV DD 025053801H
	DD	011c2321H
	DD	07015001dH
	DD	05014H
xdata	ENDS
;	COMDAT xdata
xdata	SEGMENT
$unwind$_ADD_16WORDS_ADC_DIV DD 025053801H
	DD	011c2321H
	DD	07015001dH
	DD	05014H
xdata	ENDS
;	COMDAT xdata
xdata	SEGMENT
$unwind$_ADD_32WORDS_ADCX_DIV DD 025053801H
	DD	011c2321H
	DD	07015001dH
	DD	05014H
xdata	ENDS
;	COMDAT xdata
xdata	SEGMENT
$unwind$_ADD_32WORDS_ADC_DIV DD 025053801H
	DD	011c2321H
	DD	07015001dH
	DD	05014H
xdata	ENDS
;	COMDAT xdata
xdata	SEGMENT
$unwind$AddToMULTI64Counter DD 025052801H
	DD	010d2312H
	DD	07006001dH
	DD	05005H
xdata	ENDS
;	COMDAT xdata
xdata	SEGMENT
$unwind$AddToMULTI32Counter DD 025052801H
	DD	010d2312H
	DD	07006001dH
	DD	05005H
xdata	ENDS
;	COMDAT xdata
xdata	SEGMENT
$unwind$AddToDIV64Counter DD 025052801H
	DD	010d2312H
	DD	07006001dH
	DD	05005H
xdata	ENDS
;	COMDAT xdata
xdata	SEGMENT
$unwind$AddToDIV32Counter DD 025052801H
	DD	010d2312H
	DD	07006001dH
	DD	05005H
xdata	ENDS
;	COMDAT xdata
xdata	SEGMENT
$unwind$IncrementMULTI64Counter DD 025051e01H
	DD	010a230fH
	DD	07003001dH
	DD	05002H
xdata	ENDS
;	COMDAT xdata
xdata	SEGMENT
$unwind$IncrementMULTI32Counter DD 025051e01H
	DD	010a230fH
	DD	07003001dH
	DD	05002H
xdata	ENDS
;	COMDAT xdata
xdata	SEGMENT
$unwind$IncrementDIV64Counter DD 025051e01H
	DD	010a230fH
	DD	07003001dH
	DD	05002H
xdata	ENDS
;	COMDAT xdata
xdata	SEGMENT
$unwind$IncrementDIV32Counter DD 025051e01H
	DD	010a230fH
	DD	07003001dH
	DD	05002H
xdata	ENDS
;	COMDAT xdata
xdata	SEGMENT
$unwind$_LZCNT_ALT_UNIT_DIV DD 025052801H
	DD	010d2312H
	DD	070060021H
	DD	05005H
xdata	ENDS
;	COMDAT CONST
CONST	SEGMENT
_LZCNT_ALT_UNIT_DIV$rtcName$0 DB 070H
	DB	06fH
	DB	073H
	DB	00H
	ORG $+12
_LZCNT_ALT_UNIT_DIV$rtcVarDesc DD 024H
	DD	04H
	DQ	FLAT:_LZCNT_ALT_UNIT_DIV$rtcName$0
	ORG $+48
_LZCNT_ALT_UNIT_DIV$rtcFrameData DD 01H
	DD	00H
	DQ	FLAT:_LZCNT_ALT_UNIT_DIV$rtcVarDesc
CONST	ENDS
;	COMDAT xdata
xdata	SEGMENT
$unwind$_LZCNT_ALT_UNIT DD 025052a01H
	DD	010e2313H
	DD	070070021H
	DD	05006H
xdata	ENDS
;	COMDAT CONST
CONST	SEGMENT
_LZCNT_ALT_UNIT$rtcName$0 DB 070H
	DB	06fH
	DB	073H
	DB	00H
	ORG $+12
_LZCNT_ALT_UNIT$rtcVarDesc DD 024H
	DD	04H
	DQ	FLAT:_LZCNT_ALT_UNIT$rtcName$0
	ORG $+48
_LZCNT_ALT_UNIT$rtcFrameData DD 01H
	DD	00H
	DQ	FLAT:_LZCNT_ALT_UNIT$rtcVarDesc
CONST	ENDS
;	COMDAT xdata
xdata	SEGMENT
$unwind$_LZCNT_ALT_32 DD 025052801H
	DD	010d2312H
	DD	070060021H
	DD	05005H
xdata	ENDS
;	COMDAT CONST
CONST	SEGMENT
_LZCNT_ALT_32$rtcName$0 DB 070H
	DB	06fH
	DB	073H
	DB	00H
	ORG $+12
_LZCNT_ALT_32$rtcVarDesc DD 024H
	DD	04H
	DQ	FLAT:_LZCNT_ALT_32$rtcName$0
	ORG $+48
_LZCNT_ALT_32$rtcFrameData DD 01H
	DD	00H
	DQ	FLAT:_LZCNT_ALT_32$rtcVarDesc
CONST	ENDS
;	COMDAT xdata
xdata	SEGMENT
$unwind$_DIVREM_SINGLE_UNIT DD 025053601H
	DD	011b2320H
	DD	070140021H
	DD	05013H
xdata	ENDS
;	COMDAT xdata
xdata	SEGMENT
$unwind$_DIVREM_UNIT DD 025053601H
	DD	011b2320H
	DD	070140021H
	DD	05013H
xdata	ENDS
;	COMDAT xdata
xdata	SEGMENT
$unwind$_MULTIPLYX_UNIT_DIV DD 025053101H
	DD	0116231bH
	DD	0700f001dH
	DD	0500eH
xdata	ENDS
;	COMDAT xdata
xdata	SEGMENT
$unwind$_MULTIPLY_UNIT_DIV DD 025053101H
	DD	0116231bH
	DD	0700f001dH
	DD	0500eH
xdata	ENDS
;	COMDAT xdata
xdata	SEGMENT
$unwind$_SUBTRUCT_UNIT_DIV DD 025053701H
	DD	011b2320H
	DD	07014001dH
	DD	05013H
xdata	ENDS
;	COMDAT xdata
xdata	SEGMENT
$unwind$_ADDX_UNIT_DIV DD 025053701H
	DD	011b2320H
	DD	07014001dH
	DD	05013H
xdata	ENDS
;	COMDAT xdata
xdata	SEGMENT
$unwind$_ADD_UNIT_DIV DD 025053701H
	DD	011b2320H
	DD	07014001dH
	DD	05013H
xdata	ENDS
;	COMDAT xdata
xdata	SEGMENT
$unwind$_FROMDWORDTOWORD DD 025052f01H
	DD	01132318H
	DD	0700c001dH
	DD	0500bH
xdata	ENDS
;	COMDAT xdata
xdata	SEGMENT
$unwind$_FROMWORDTODWORD DD 025052c01H
	DD	01112316H
	DD	0700a001dH
	DD	05009H
xdata	ENDS
;	COMDAT xdata
xdata	SEGMENT
$unwind$_COPY_MEMORY_UNIT_DIV DD 025063501H
	DD	0119231eH
	DD	07012001cH
	DD	050106011H
xdata	ENDS
;	COMDAT xdata
xdata	SEGMENT
$unwind$_COPY_MEMORY_UNIT DD 025063501H
	DD	0119231eH
	DD	07012001cH
	DD	050106011H
xdata	ENDS
;	COMDAT xdata
xdata	SEGMENT
$unwind$PMC_DivRem_X_X DD 045053901H
	DD	011d4322H
	DD	070160083H
	DD	05015H
xdata	ENDS
;	COMDAT CONST
CONST	SEGMENT
PMC_DivRem_X_X$rtcName$0 DB 06eH
	DB	071H
	DB	00H
	ORG $+1
PMC_DivRem_X_X$rtcName$1 DB 06eH
	DB	072H
	DB	00H
	ORG $+1
PMC_DivRem_X_X$rtcName$2 DB 06eH
	DB	071H
	DB	05fH
	DB	06cH
	DB	069H
	DB	067H
	DB	068H
	DB	074H
	DB	05fH
	DB	063H
	DB	068H
	DB	065H
	DB	063H
	DB	06bH
	DB	05fH
	DB	063H
	DB	06fH
	DB	064H
	DB	065H
	DB	00H
	ORG $+4
PMC_DivRem_X_X$rtcName$3 DB 06eH
	DB	072H
	DB	05fH
	DB	06cH
	DB	069H
	DB	067H
	DB	068H
	DB	074H
	DB	05fH
	DB	063H
	DB	068H
	DB	065H
	DB	063H
	DB	06bH
	DB	05fH
	DB	063H
	DB	06fH
	DB	064H
	DB	065H
	DB	00H
	ORG $+4
PMC_DivRem_X_X$rtcName$4 DB 06eH
	DB	071H
	DB	05fH
	DB	06cH
	DB	069H
	DB	067H
	DB	068H
	DB	074H
	DB	05fH
	DB	063H
	DB	068H
	DB	065H
	DB	063H
	DB	06bH
	DB	05fH
	DB	063H
	DB	06fH
	DB	064H
	DB	065H
	DB	00H
	ORG $+4
PMC_DivRem_X_X$rtcName$5 DB 06eH
	DB	072H
	DB	05fH
	DB	06cH
	DB	069H
	DB	067H
	DB	068H
	DB	074H
	DB	05fH
	DB	063H
	DB	068H
	DB	065H
	DB	063H
	DB	06bH
	DB	05fH
	DB	063H
	DB	06fH
	DB	064H
	DB	065H
	DB	00H
	ORG $+4
PMC_DivRem_X_X$rtcName$6 DB 077H
	DB	06fH
	DB	072H
	DB	06bH
	DB	05fH
	DB	076H
	DB	05fH
	DB	062H
	DB	075H
	DB	066H
	DB	05fH
	DB	063H
	DB	06fH
	DB	064H
	DB	065H
	DB	00H
PMC_DivRem_X_X$rtcName$7 DB 077H
	DB	06fH
	DB	072H
	DB	06bH
	DB	05fH
	DB	076H
	DB	05fH
	DB	062H
	DB	075H
	DB	066H
	DB	05fH
	DB	077H
	DB	06fH
	DB	072H
	DB	064H
	DB	073H
	DB	00H
	ORG $+7
PMC_DivRem_X_X$rtcVarDesc DD 0248H
	DD	08H
	DQ	FLAT:PMC_DivRem_X_X$rtcName$7
	DD	0228H
	DD	08H
	DQ	FLAT:PMC_DivRem_X_X$rtcName$6
	DD	0208H
	DD	08H
	DQ	FLAT:PMC_DivRem_X_X$rtcName$5
	DD	01e8H
	DD	08H
	DQ	FLAT:PMC_DivRem_X_X$rtcName$4
	DD	0188H
	DD	08H
	DQ	FLAT:PMC_DivRem_X_X$rtcName$3
	DD	0148H
	DD	08H
	DQ	FLAT:PMC_DivRem_X_X$rtcName$2
	DD	0c8H
	DD	08H
	DQ	FLAT:PMC_DivRem_X_X$rtcName$1
	DD	0a8H
	DD	08H
	DQ	FLAT:PMC_DivRem_X_X$rtcName$0
	ORG $+384
PMC_DivRem_X_X$rtcFrameData DD 08H
	DD	00H
	DQ	FLAT:PMC_DivRem_X_X$rtcVarDesc
CONST	ENDS
;	COMDAT xdata
xdata	SEGMENT
$unwind$PMC_DivRem_X_L DD 045053901H
	DD	011d4322H
	DD	0701600a1H
	DD	05015H
xdata	ENDS
;	COMDAT CONST
CONST	SEGMENT
PMC_DivRem_X_L$rtcName$0 DB 06eH
	DB	071H
	DB	00H
	ORG $+1
PMC_DivRem_X_L$rtcName$1 DB 076H
	DB	05fH
	DB	068H
	DB	069H
	DB	00H
	ORG $+3
PMC_DivRem_X_L$rtcName$3 DB 072H
	DB	05fH
	DB	062H
	DB	075H
	DB	066H
	DB	00H
	ORG $+6
PMC_DivRem_X_L$rtcName$2 DB 06eH
	DB	071H
	DB	05fH
	DB	06cH
	DB	069H
	DB	067H
	DB	068H
	DB	074H
	DB	05fH
	DB	063H
	DB	068H
	DB	065H
	DB	063H
	DB	06bH
	DB	05fH
	DB	063H
	DB	06fH
	DB	064H
	DB	065H
	DB	00H
	ORG $+4
PMC_DivRem_X_L$rtcName$4 DB 06eH
	DB	071H
	DB	05fH
	DB	06cH
	DB	069H
	DB	067H
	DB	068H
	DB	074H
	DB	05fH
	DB	063H
	DB	068H
	DB	065H
	DB	063H
	DB	06bH
	DB	05fH
	DB	063H
	DB	06fH
	DB	064H
	DB	065H
	DB	00H
PMC_DivRem_X_L$rtcName$5 DB 076H
	DB	05fH
	DB	062H
	DB	075H
	DB	066H
	DB	00H
	ORG $+6
PMC_DivRem_X_L$rtcName$6 DB 077H
	DB	06fH
	DB	072H
	DB	06bH
	DB	05fH
	DB	076H
	DB	05fH
	DB	062H
	DB	075H
	DB	066H
	DB	00H
	ORG $+5
PMC_DivRem_X_L$rtcName$7 DB 072H
	DB	05fH
	DB	062H
	DB	075H
	DB	066H
	DB	05fH
	DB	063H
	DB	06fH
	DB	064H
	DB	065H
	DB	00H
	ORG $+5
PMC_DivRem_X_L$rtcName$8 DB 072H
	DB	05fH
	DB	062H
	DB	075H
	DB	066H
	DB	05fH
	DB	077H
	DB	06fH
	DB	072H
	DB	064H
	DB	073H
	DB	00H
	ORG $+4
PMC_DivRem_X_L$rtcName$9 DB 06eH
	DB	071H
	DB	05fH
	DB	06cH
	DB	069H
	DB	067H
	DB	068H
	DB	074H
	DB	05fH
	DB	063H
	DB	068H
	DB	065H
	DB	063H
	DB	06bH
	DB	05fH
	DB	063H
	DB	06fH
	DB	064H
	DB	065H
	DB	00H
PMC_DivRem_X_L$rtcName$10 DB 072H
	DB	05fH
	DB	062H
	DB	075H
	DB	066H
	DB	00H
	ORG $+6
PMC_DivRem_X_L$rtcVarDesc DD 0364H
	DD	04H
	DQ	FLAT:PMC_DivRem_X_L$rtcName$10
	DD	0348H
	DD	08H
	DQ	FLAT:PMC_DivRem_X_L$rtcName$9
	DD	02a8H
	DD	08H
	DQ	FLAT:PMC_DivRem_X_L$rtcName$8
	DD	0288H
	DD	08H
	DQ	FLAT:PMC_DivRem_X_L$rtcName$7
	DD	0268H
	DD	08H
	DQ	FLAT:PMC_DivRem_X_L$rtcName$6
	DD	0248H
	DD	08H
	DQ	FLAT:PMC_DivRem_X_L$rtcName$5
	DD	0228H
	DD	08H
	DQ	FLAT:PMC_DivRem_X_L$rtcName$4
	DD	0164H
	DD	04H
	DQ	FLAT:PMC_DivRem_X_L$rtcName$3
	DD	0148H
	DD	08H
	DQ	FLAT:PMC_DivRem_X_L$rtcName$2
	DD	0c4H
	DD	04H
	DQ	FLAT:PMC_DivRem_X_L$rtcName$1
	DD	088H
	DD	08H
	DQ	FLAT:PMC_DivRem_X_L$rtcName$0
	ORG $+528
PMC_DivRem_X_L$rtcFrameData DD 0bH
	DD	00H
	DQ	FLAT:PMC_DivRem_X_L$rtcVarDesc
CONST	ENDS
;	COMDAT xdata
xdata	SEGMENT
$unwind$PMC_DivRem_X_I DD 035053801H
	DD	011c3321H
	DD	07015003fH
	DD	05014H
xdata	ENDS
;	COMDAT CONST
CONST	SEGMENT
PMC_DivRem_X_I$rtcName$0 DB 06eH
	DB	071H
	DB	00H
	ORG $+5
PMC_DivRem_X_I$rtcName$1 DB 06eH
	DB	071H
	DB	05fH
	DB	06cH
	DB	069H
	DB	067H
	DB	068H
	DB	074H
	DB	05fH
	DB	063H
	DB	068H
	DB	065H
	DB	063H
	DB	06bH
	DB	05fH
	DB	063H
	DB	06fH
	DB	064H
	DB	065H
	DB	00H
PMC_DivRem_X_I$rtcName$2 DB 072H
	DB	05fH
	DB	062H
	DB	075H
	DB	066H
	DB	00H
	ORG $+6
PMC_DivRem_X_I$rtcFrameData DD 03H
	DD	00H
	DQ	FLAT:PMC_DivRem_X_I$rtcVarDesc
	ORG $+8
PMC_DivRem_X_I$rtcVarDesc DD 0114H
	DD	04H
	DQ	FLAT:PMC_DivRem_X_I$rtcName$2
	DD	0f8H
	DD	08H
	DQ	FLAT:PMC_DivRem_X_I$rtcName$1
	DD	078H
	DD	08H
	DQ	FLAT:PMC_DivRem_X_I$rtcName$0
CONST	ENDS
;	COMDAT xdata
xdata	SEGMENT
$unwind$PMC_DivRem_L_X DD 045054a19H
	DD	011d4322H
	DD	07016008bH
	DD	05015H
	DD	imagerel __GSHandlerCheck
	DD	0448H
xdata	ENDS
;	COMDAT CONST
CONST	SEGMENT
PMC_DivRem_L_X$rtcName$0 DB 075H
	DB	05fH
	DB	068H
	DB	069H
	DB	00H
	ORG $+3
PMC_DivRem_L_X$rtcName$1 DB 074H
	DB	065H
	DB	06dH
	DB	070H
	DB	05fH
	DB	072H
	DB	00H
	ORG $+1
PMC_DivRem_L_X$rtcName$2 DB 075H
	DB	05fH
	DB	062H
	DB	075H
	DB	066H
	DB	00H
	ORG $+2
PMC_DivRem_L_X$rtcName$3 DB 071H
	DB	05fH
	DB	062H
	DB	075H
	DB	066H
	DB	00H
	ORG $+2
PMC_DivRem_L_X$rtcName$4 DB 072H
	DB	05fH
	DB	062H
	DB	075H
	DB	066H
	DB	00H
	ORG $+2
PMC_DivRem_L_X$rtcName$5 DB 075H
	DB	05fH
	DB	062H
	DB	075H
	DB	066H
	DB	00H
	ORG $+2
PMC_DivRem_L_X$rtcName$6 DB 071H
	DB	05fH
	DB	062H
	DB	075H
	DB	066H
	DB	00H
	ORG $+2
PMC_DivRem_L_X$rtcName$7 DB 072H
	DB	05fH
	DB	062H
	DB	075H
	DB	066H
	DB	00H
	ORG $+2
PMC_DivRem_L_X$rtcName$8 DB 077H
	DB	06fH
	DB	072H
	DB	06bH
	DB	05fH
	DB	076H
	DB	05fH
	DB	062H
	DB	075H
	DB	066H
	DB	00H
	ORG $+1
PMC_DivRem_L_X$rtcName$9 DB 074H
	DB	065H
	DB	06dH
	DB	070H
	DB	05fH
	DB	072H
	DB	00H
	ORG $+5
PMC_DivRem_L_X$rtcFrameData DD 0aH
	DD	00H
	DQ	FLAT:PMC_DivRem_L_X$rtcVarDesc
	ORG $+8
PMC_DivRem_L_X$rtcVarDesc DD 02b4H
	DD	04H
	DQ	FLAT:PMC_DivRem_L_X$rtcName$9
	DD	0258H
	DD	08H
	DQ	FLAT:PMC_DivRem_L_X$rtcName$8
	DD	0228H
	DD	0cH
	DQ	FLAT:PMC_DivRem_L_X$rtcName$7
	DD	01f8H
	DD	0cH
	DQ	FLAT:PMC_DivRem_L_X$rtcName$6
	DD	01d8H
	DD	08H
	DQ	FLAT:PMC_DivRem_L_X$rtcName$5
	DD	01b4H
	DD	04H
	DQ	FLAT:PMC_DivRem_L_X$rtcName$4
	DD	0188H
	DD	0cH
	DQ	FLAT:PMC_DivRem_L_X$rtcName$3
	DD	0168H
	DD	08H
	DQ	FLAT:PMC_DivRem_L_X$rtcName$2
	DD	0104H
	DD	04H
	DQ	FLAT:PMC_DivRem_L_X$rtcName$1
	DD	084H
	DD	04H
	DQ	FLAT:PMC_DivRem_L_X$rtcName$0
CONST	ENDS
;	COMDAT xdata
xdata	SEGMENT
$unwind$PMC_DivRem_I_X DD 025053701H
	DD	011c2321H
	DD	070150031H
	DD	05014H
xdata	ENDS
;	COMDAT CONST
CONST	SEGMENT
PMC_DivRem_I_X$rtcName$0 DB 074H
	DB	065H
	DB	06dH
	DB	070H
	DB	05fH
	DB	072H
	DB	00H
	ORG $+9
PMC_DivRem_I_X$rtcVarDesc DD 0a4H
	DD	04H
	DQ	FLAT:PMC_DivRem_I_X$rtcName$0
	ORG $+48
PMC_DivRem_I_X$rtcFrameData DD 01H
	DD	00H
	DQ	FLAT:PMC_DivRem_I_X$rtcVarDesc
CONST	ENDS
;	COMDAT xdata
xdata	SEGMENT
$unwind$Initialize_DivRem DD 025052a01H
	DD	010e2313H
	DD	07007001fH
	DD	05006H
xdata	ENDS
;	COMDAT xdata
xdata	SEGMENT
$unwind$DivRem_X_X DD 045053901H
	DD	011d4322H
	DD	07016003dH
	DD	05015H
xdata	ENDS
;	COMDAT CONST
CONST	SEGMENT
DivRem_X_X$rtcName$0 DB 072H
	DB	00H
	ORG $+2
DivRem_X_X$rtcName$1 DB 072H
	DB	00H
	ORG $+10
DivRem_X_X$rtcVarDesc DD 0104H
	DD	04H
	DQ	FLAT:DivRem_X_X$rtcName$1
	DD	0c4H
	DD	04H
	DQ	FLAT:DivRem_X_X$rtcName$0
	ORG $+96
DivRem_X_X$rtcFrameData DD 02H
	DD	00H
	DQ	FLAT:DivRem_X_X$rtcVarDesc
CONST	ENDS
;	COMDAT xdata
xdata	SEGMENT
$unwind$DivRem_X_1W DD 025053901H
	DD	011d2322H
	DD	070160031H
	DD	05015H
xdata	ENDS
; Function compile flags: /Odt
;	COMDAT __JustMyCode_Default
_TEXT	SEGMENT
__JustMyCode_Default PROC				; COMDAT
	ret	0
__JustMyCode_Default ENDP
_TEXT	ENDS
; Function compile flags: /Odtp /RTCsu /ZI
; File z:\sources\lunor\repos\rougemeilland\palmtree.math.core.implements\palmtree.math.core.implements\pmc_divrem.c
;	COMDAT DivRem_X_X_using_ADX_MULX
_TEXT	SEGMENT
d_factor$ = 4
work_u_buf$ = 40
q_index$ = 72
q_$1 = 100
u_buf$ = 352
u_buf_len$ = 360
v_buf$ = 368
v_buf_len$ = 376
work_v_buf$ = 384
q_buf$ = 392
r_buf$ = 400
DivRem_X_X_using_ADX_MULX PROC				; COMDAT

; 971  : {

	mov	QWORD PTR [rsp+32], r9
	mov	QWORD PTR [rsp+24], r8
	mov	QWORD PTR [rsp+16], rdx
	mov	QWORD PTR [rsp+8], rcx
	push	rbp
	push	rdi
	sub	rsp, 376				; 00000178H
	lea	rbp, QWORD PTR [rsp+48]
	mov	rdi, rsp
	mov	ecx, 94					; 0000005eH
	mov	eax, -858993460				; ccccccccH
	rep stosd
	mov	rcx, QWORD PTR [rsp+408]
	lea	rcx, OFFSET FLAT:__62F961D6_pmc_divrem@c
	call	__CheckForDebuggerJustMyCode

; 972  :     // u および v の最上位ワードは 0 でありうることに注意すること。
; 973  :     if (sizeof(__UNIT_TYPE) != sizeof(__UNIT_TYPE_DIV))

	xor	eax, eax
	cmp	eax, 1
	je	SHORT $LN9@DivRem_X_X
$LN2@DivRem_X_X:

; 974  :     {
; 975  :         while (u_buf[u_buf_len - 1] == 0)

	mov	rax, QWORD PTR u_buf$[rbp]
	mov	rcx, QWORD PTR u_buf_len$[rbp]
	cmp	DWORD PTR [rax+rcx*4-4], 0
	jne	SHORT $LN3@DivRem_X_X

; 976  :             --u_buf_len;

	mov	rax, QWORD PTR u_buf_len$[rbp]
	dec	rax
	mov	QWORD PTR u_buf_len$[rbp], rax
	jmp	SHORT $LN2@DivRem_X_X
$LN3@DivRem_X_X:
$LN4@DivRem_X_X:

; 977  :         while (v_buf[v_buf_len - 1] == 0)

	mov	rax, QWORD PTR v_buf$[rbp]
	mov	rcx, QWORD PTR v_buf_len$[rbp]
	cmp	DWORD PTR [rax+rcx*4-4], 0
	jne	SHORT $LN5@DivRem_X_X

; 978  :             --v_buf_len;

	mov	rax, QWORD PTR v_buf_len$[rbp]
	dec	rax
	mov	QWORD PTR v_buf_len$[rbp], rax
	jmp	SHORT $LN4@DivRem_X_X
$LN5@DivRem_X_X:
$LN9@DivRem_X_X:

; 979  :     }
; 980  : 
; 981  : #ifdef _DEBUG
; 982  :     if (v_buf[v_buf_len - 1] == 0)

	mov	rax, QWORD PTR v_buf$[rbp]
	mov	rcx, QWORD PTR v_buf_len$[rbp]

; 983  :     {
; 984  :         ; // このルートには到達しないはず。デバッグ用。
; 985  :     }
; 986  : #endif
; 987  : 
; 988  : #ifdef DO_TRACE
; 989  :     ReportLabel("uとvのシフト");
; 990  :     ReportDump("u", (__UNIT_TYPE*)u_buf, _DIVIDE_CEILING_UNIT(u_buf_len * sizeof(__UNIT_TYPE_DIV), sizeof(__UNIT_TYPE)));
; 991  :     ReportDump("v", (__UNIT_TYPE*)v_buf, _DIVIDE_CEILING_UNIT(v_buf_len * sizeof(__UNIT_TYPE_DIV), sizeof(__UNIT_TYPE)));
; 992  : #endif
; 993  : 
; 994  :     __UNIT_TYPE_DIV d_factor = _LZCNT_ALT_UNIT_DIV(v_buf[v_buf_len - 1]);

	mov	rax, QWORD PTR v_buf$[rbp]
	mov	rcx, QWORD PTR v_buf_len$[rbp]
	mov	ecx, DWORD PTR [rax+rcx*4-4]
	call	_LZCNT_ALT_UNIT_DIV
	mov	DWORD PTR d_factor$[rbp], eax

; 995  :     if (d_factor == 0)

	cmp	DWORD PTR d_factor$[rbp], 0
	jne	SHORT $LN11@DivRem_X_X

; 996  :     {
; 997  :         _COPY_MEMORY_UNIT_DIV(r_buf, u_buf, u_buf_len);

	mov	r8, QWORD PTR u_buf_len$[rbp]
	mov	rdx, QWORD PTR u_buf$[rbp]
	mov	rcx, QWORD PTR r_buf$[rbp]
	call	_COPY_MEMORY_UNIT_DIV

; 998  :         _COPY_MEMORY_UNIT_DIV(work_v_buf, v_buf, v_buf_len);

	mov	r8, QWORD PTR v_buf_len$[rbp]
	mov	rdx, QWORD PTR v_buf$[rbp]
	mov	rcx, QWORD PTR work_v_buf$[rbp]
	call	_COPY_MEMORY_UNIT_DIV

; 999  :         r_buf[u_buf_len] = 0;

	mov	rax, QWORD PTR r_buf$[rbp]
	mov	rcx, QWORD PTR u_buf_len$[rbp]
	mov	DWORD PTR [rax+rcx*4], 0

; 1000 :     }

	jmp	SHORT $LN12@DivRem_X_X
$LN11@DivRem_X_X:

; 1001 :     else
; 1002 :     {
; 1003 :         LeftShift_Imp_DIV(u_buf, u_buf_len, d_factor, r_buf, FALSE);

	mov	eax, DWORD PTR d_factor$[rbp]
	mov	DWORD PTR [rsp+32], 0
	mov	r9, QWORD PTR r_buf$[rbp]
	mov	r8d, eax
	mov	rdx, QWORD PTR u_buf_len$[rbp]
	mov	rcx, QWORD PTR u_buf$[rbp]
	call	LeftShift_Imp_DIV

; 1004 :         LeftShift_Imp_DIV(v_buf, v_buf_len, d_factor, work_v_buf, FALSE);

	mov	eax, DWORD PTR d_factor$[rbp]
	mov	DWORD PTR [rsp+32], 0
	mov	r9, QWORD PTR work_v_buf$[rbp]
	mov	r8d, eax
	mov	rdx, QWORD PTR v_buf_len$[rbp]
	mov	rcx, QWORD PTR v_buf$[rbp]
	call	LeftShift_Imp_DIV
$LN12@DivRem_X_X:

; 1005 :     }
; 1006 : #ifdef DO_TRACE
; 1007 :     ReportDump("⇒u", (__UNIT_TYPE*)r_buf, _DIVIDE_CEILING_UNIT((u_buf_len + 1) * sizeof(__UNIT_TYPE_DIV), sizeof(__UNIT_TYPE)));
; 1008 :     ReportDump("⇒v", (__UNIT_TYPE*)work_v_buf, _DIVIDE_CEILING_UNIT(v_buf_len * sizeof(__UNIT_TYPE_DIV), sizeof(__UNIT_TYPE)));
; 1009 : #endif
; 1010 : 
; 1011 :     __UNIT_TYPE_DIV* work_u_buf = r_buf;

	mov	rax, QWORD PTR r_buf$[rbp]
	mov	QWORD PTR work_u_buf$[rbp], rax

; 1012 :     __UNIT_TYPE q_index = u_buf_len - v_buf_len;

	mov	rax, QWORD PTR v_buf_len$[rbp]
	mov	rcx, QWORD PTR u_buf_len$[rbp]
	sub	rcx, rax
	mov	rax, rcx
	mov	QWORD PTR q_index$[rbp], rax
$LN6@DivRem_X_X:

; 1013 : 
; 1014 :     for (;;)
; 1015 :     {
; 1016 :         __UNIT_TYPE_DIV q_ = CalculateQ_X(work_u_buf, work_v_buf, v_buf_len, q_index);

	mov	r9, QWORD PTR q_index$[rbp]
	mov	r8, QWORD PTR v_buf_len$[rbp]
	mov	rdx, QWORD PTR work_v_buf$[rbp]
	mov	rcx, QWORD PTR work_u_buf$[rbp]
	call	CalculateQ_X
	mov	DWORD PTR q_$1[rbp], eax

; 1017 : 
; 1018 : #ifdef DO_TRACE
; 1019 :         ReportLabel("uの減算");
; 1020 :         ReportDump("u", (__UNIT_TYPE*)work_u_buf, _DIVIDE_CEILING_UNIT(u_buf_len * sizeof(__UNIT_TYPE_DIV), sizeof(__UNIT_TYPE)));
; 1021 :         ReportDump("v", (__UNIT_TYPE*)work_v_buf, _DIVIDE_CEILING_UNIT(v_buf_len * sizeof(__UNIT_TYPE_DIV), sizeof(__UNIT_TYPE)));
; 1022 :         ReportVar("q_", q_);
; 1023 : #endif
; 1024 :         if (SubtructOneLineX(work_u_buf, u_buf_len, work_v_buf, v_buf_len, q_index, q_))

	mov	eax, DWORD PTR q_$1[rbp]
	mov	DWORD PTR [rsp+40], eax
	mov	rax, QWORD PTR q_index$[rbp]
	mov	QWORD PTR [rsp+32], rax
	mov	r9, QWORD PTR v_buf_len$[rbp]
	mov	r8, QWORD PTR work_v_buf$[rbp]
	mov	rdx, QWORD PTR u_buf_len$[rbp]
	mov	rcx, QWORD PTR work_u_buf$[rbp]
	call	SubtructOneLineX
	test	eax, eax
	je	SHORT $LN13@DivRem_X_X

; 1025 :         {
; 1026 : #ifdef DO_TRACE
; 1027 :             ReportDump("⇒u", (__UNIT_TYPE*)work_u_buf, _DIVIDE_CEILING_UNIT(u_buf_len * sizeof(__UNIT_TYPE_DIV), sizeof(__UNIT_TYPE)));
; 1028 : #endif
; 1029 :             // 桁借りが発生した場合
; 1030 : 
; 1031 : #ifdef DO_TRACE
; 1032 :             ReportLabel("uの加え戻しとq_の更新");
; 1033 :             ReportDump("u", (__UNIT_TYPE*)work_u_buf, _DIVIDE_CEILING_UNIT(u_buf_len * sizeof(__UNIT_TYPE_DIV), sizeof(__UNIT_TYPE)));
; 1034 : #endif
; 1035 :             --q_;

	mov	eax, DWORD PTR q_$1[rbp]
	dec	eax
	mov	DWORD PTR q_$1[rbp], eax

; 1036 :             AddOneLineX(work_u_buf, u_buf_len, work_v_buf, v_buf_len, q_index);

	mov	rax, QWORD PTR q_index$[rbp]
	mov	QWORD PTR [rsp+32], rax
	mov	r9, QWORD PTR v_buf_len$[rbp]
	mov	r8, QWORD PTR work_v_buf$[rbp]
	mov	rdx, QWORD PTR u_buf_len$[rbp]
	mov	rcx, QWORD PTR work_u_buf$[rbp]
	call	AddOneLineX
$LN13@DivRem_X_X:

; 1037 : #ifdef DO_TRACE
; 1038 :             ReportVar("q_", q_);
; 1039 :             ReportDump("⇒u", (__UNIT_TYPE*)work_u_buf, _DIVIDE_CEILING_UNIT(u_buf_len * sizeof(__UNIT_TYPE_DIV), sizeof(__UNIT_TYPE)));
; 1040 : #endif
; 1041 :         }
; 1042 :         else
; 1043 :         {
; 1044 : #ifdef DO_TRACE
; 1045 :             ReportDump("⇒u", (__UNIT_TYPE*)work_u_buf, _DIVIDE_CEILING_UNIT(u_buf_len * sizeof(__UNIT_TYPE_DIV), sizeof(__UNIT_TYPE)));
; 1046 : #endif
; 1047 :         }
; 1048 : 
; 1049 :         q_buf[q_index] = q_;

	mov	rax, QWORD PTR q_buf$[rbp]
	mov	rcx, QWORD PTR q_index$[rbp]
	mov	edx, DWORD PTR q_$1[rbp]
	mov	DWORD PTR [rax+rcx*4], edx

; 1050 : 
; 1051 : #ifdef DO_TRACE
; 1052 :         ReportLabel("qの現在値");
; 1053 :         ReportDump("q", (__UNIT_TYPE*)q_buf, _DIVIDE_CEILING_UNIT((u_buf_len - v_buf_len) * sizeof(__UNIT_TYPE_DIV), sizeof(__UNIT_TYPE)));
; 1054 : #endif
; 1055 : 
; 1056 :         if (q_index == 0)

	cmp	QWORD PTR q_index$[rbp], 0
	jne	SHORT $LN15@DivRem_X_X

; 1057 :             break;

	jmp	SHORT $LN7@DivRem_X_X
$LN15@DivRem_X_X:

; 1058 :         --q_index;

	mov	rax, QWORD PTR q_index$[rbp]
	dec	rax
	mov	QWORD PTR q_index$[rbp], rax

; 1059 :     }

	jmp	$LN6@DivRem_X_X
$LN7@DivRem_X_X:

; 1060 : 
; 1061 :     if (d_factor > 0)

	cmp	DWORD PTR d_factor$[rbp], 0
	jbe	SHORT $LN16@DivRem_X_X

; 1062 :         RightShift_Imp_DIV(work_u_buf, u_buf_len + 1, d_factor, work_u_buf, FALSE);

	mov	eax, DWORD PTR d_factor$[rbp]
	mov	rcx, QWORD PTR u_buf_len$[rbp]
	inc	rcx
	mov	DWORD PTR [rsp+32], 0
	mov	r9, QWORD PTR work_u_buf$[rbp]
	mov	r8d, eax
	mov	rdx, rcx
	mov	rcx, QWORD PTR work_u_buf$[rbp]
	call	RightShift_Imp_DIV
$LN16@DivRem_X_X:

; 1063 : 
; 1064 : #ifdef DO_TRACE
; 1065 :     ReportLabel("計算終了");
; 1066 :     ReportDump("q", (__UNIT_TYPE*)q_buf, _DIVIDE_CEILING_UNIT((u_buf_len - v_buf_len) * sizeof(__UNIT_TYPE_DIV), sizeof(__UNIT_TYPE)));
; 1067 :     ReportDump("r", (__UNIT_TYPE*)work_u_buf, _DIVIDE_CEILING_UNIT((u_buf_len + 1) * sizeof(__UNIT_TYPE_DIV), sizeof(__UNIT_TYPE)));
; 1068 : #endif
; 1069 : }

	lea	rsp, QWORD PTR [rbp+328]
	pop	rdi
	pop	rbp
	ret	0
DivRem_X_X_using_ADX_MULX ENDP
_TEXT	ENDS
; Function compile flags: /Odtp /RTCsu /ZI
; File z:\sources\lunor\repos\rougemeilland\palmtree.math.core.implements\palmtree.math.core.implements\pmc_divrem.c
;	COMDAT DivRem_X_X_using_ADC_MUL
_TEXT	SEGMENT
d_factor$ = 4
work_u_buf$ = 40
q_index$ = 72
q_$1 = 100
u_buf$ = 352
u_buf_len$ = 360
v_buf$ = 368
v_buf_len$ = 376
work_v_buf$ = 384
q_buf$ = 392
r_buf$ = 400
DivRem_X_X_using_ADC_MUL PROC				; COMDAT

; 915  : {

	mov	QWORD PTR [rsp+32], r9
	mov	QWORD PTR [rsp+24], r8
	mov	QWORD PTR [rsp+16], rdx
	mov	QWORD PTR [rsp+8], rcx
	push	rbp
	push	rdi
	sub	rsp, 376				; 00000178H
	lea	rbp, QWORD PTR [rsp+48]
	mov	rdi, rsp
	mov	ecx, 94					; 0000005eH
	mov	eax, -858993460				; ccccccccH
	rep stosd
	mov	rcx, QWORD PTR [rsp+408]
	lea	rcx, OFFSET FLAT:__62F961D6_pmc_divrem@c
	call	__CheckForDebuggerJustMyCode

; 916  :     // u および v の最上位ワードは 0 でありうることに注意すること。
; 917  :     if (sizeof(__UNIT_TYPE) != sizeof(__UNIT_TYPE_DIV))

	xor	eax, eax
	cmp	eax, 1
	je	SHORT $LN9@DivRem_X_X
$LN2@DivRem_X_X:

; 918  :     {
; 919  :         while (u_buf[u_buf_len - 1] == 0)

	mov	rax, QWORD PTR u_buf$[rbp]
	mov	rcx, QWORD PTR u_buf_len$[rbp]
	cmp	DWORD PTR [rax+rcx*4-4], 0
	jne	SHORT $LN3@DivRem_X_X

; 920  :             --u_buf_len;

	mov	rax, QWORD PTR u_buf_len$[rbp]
	dec	rax
	mov	QWORD PTR u_buf_len$[rbp], rax
	jmp	SHORT $LN2@DivRem_X_X
$LN3@DivRem_X_X:
$LN4@DivRem_X_X:

; 921  :         while (v_buf[v_buf_len - 1] == 0)

	mov	rax, QWORD PTR v_buf$[rbp]
	mov	rcx, QWORD PTR v_buf_len$[rbp]
	cmp	DWORD PTR [rax+rcx*4-4], 0
	jne	SHORT $LN5@DivRem_X_X

; 922  :             --v_buf_len;

	mov	rax, QWORD PTR v_buf_len$[rbp]
	dec	rax
	mov	QWORD PTR v_buf_len$[rbp], rax
	jmp	SHORT $LN4@DivRem_X_X
$LN5@DivRem_X_X:
$LN9@DivRem_X_X:

; 923  :     }
; 924  : 
; 925  : #ifdef _DEBUG
; 926  :     if (v_buf[v_buf_len - 1] == 0)

	mov	rax, QWORD PTR v_buf$[rbp]
	mov	rcx, QWORD PTR v_buf_len$[rbp]

; 927  :     {
; 928  :         ; // このルートには到達しないはず。デバッグ用。
; 929  :     }
; 930  : #endif
; 931  : 
; 932  :     __UNIT_TYPE_DIV d_factor = _LZCNT_ALT_UNIT_DIV(v_buf[v_buf_len - 1]);

	mov	rax, QWORD PTR v_buf$[rbp]
	mov	rcx, QWORD PTR v_buf_len$[rbp]
	mov	ecx, DWORD PTR [rax+rcx*4-4]
	call	_LZCNT_ALT_UNIT_DIV
	mov	DWORD PTR d_factor$[rbp], eax

; 933  :     if (d_factor == 0)

	cmp	DWORD PTR d_factor$[rbp], 0
	jne	SHORT $LN11@DivRem_X_X

; 934  :     {
; 935  :         _COPY_MEMORY_UNIT_DIV(r_buf, u_buf, u_buf_len);

	mov	r8, QWORD PTR u_buf_len$[rbp]
	mov	rdx, QWORD PTR u_buf$[rbp]
	mov	rcx, QWORD PTR r_buf$[rbp]
	call	_COPY_MEMORY_UNIT_DIV

; 936  :         _COPY_MEMORY_UNIT_DIV(work_v_buf, v_buf, v_buf_len);

	mov	r8, QWORD PTR v_buf_len$[rbp]
	mov	rdx, QWORD PTR v_buf$[rbp]
	mov	rcx, QWORD PTR work_v_buf$[rbp]
	call	_COPY_MEMORY_UNIT_DIV

; 937  :         r_buf[u_buf_len] = 0;

	mov	rax, QWORD PTR r_buf$[rbp]
	mov	rcx, QWORD PTR u_buf_len$[rbp]
	mov	DWORD PTR [rax+rcx*4], 0

; 938  :     }

	jmp	SHORT $LN12@DivRem_X_X
$LN11@DivRem_X_X:

; 939  :     else
; 940  :     {
; 941  :         LeftShift_Imp_DIV(u_buf, u_buf_len, d_factor, r_buf, FALSE);

	mov	eax, DWORD PTR d_factor$[rbp]
	mov	DWORD PTR [rsp+32], 0
	mov	r9, QWORD PTR r_buf$[rbp]
	mov	r8d, eax
	mov	rdx, QWORD PTR u_buf_len$[rbp]
	mov	rcx, QWORD PTR u_buf$[rbp]
	call	LeftShift_Imp_DIV

; 942  :         LeftShift_Imp_DIV(v_buf, v_buf_len, d_factor, work_v_buf, FALSE);

	mov	eax, DWORD PTR d_factor$[rbp]
	mov	DWORD PTR [rsp+32], 0
	mov	r9, QWORD PTR work_v_buf$[rbp]
	mov	r8d, eax
	mov	rdx, QWORD PTR v_buf_len$[rbp]
	mov	rcx, QWORD PTR v_buf$[rbp]
	call	LeftShift_Imp_DIV
$LN12@DivRem_X_X:

; 943  :     }
; 944  : 
; 945  :     __UNIT_TYPE_DIV* work_u_buf = r_buf;

	mov	rax, QWORD PTR r_buf$[rbp]
	mov	QWORD PTR work_u_buf$[rbp], rax

; 946  :     __UNIT_TYPE q_index = u_buf_len - v_buf_len;

	mov	rax, QWORD PTR v_buf_len$[rbp]
	mov	rcx, QWORD PTR u_buf_len$[rbp]
	sub	rcx, rax
	mov	rax, rcx
	mov	QWORD PTR q_index$[rbp], rax
$LN6@DivRem_X_X:

; 947  : 
; 948  :     for (;;)
; 949  :     {
; 950  :         __UNIT_TYPE_DIV q_ = CalculateQ_(work_u_buf, work_v_buf, v_buf_len, q_index);

	mov	r9, QWORD PTR q_index$[rbp]
	mov	r8, QWORD PTR v_buf_len$[rbp]
	mov	rdx, QWORD PTR work_v_buf$[rbp]
	mov	rcx, QWORD PTR work_u_buf$[rbp]
	call	CalculateQ_
	mov	DWORD PTR q_$1[rbp], eax

; 951  : 
; 952  : 
; 953  :         if (SubtructOneLine(work_u_buf, u_buf_len, work_v_buf, v_buf_len, q_index, q_))

	mov	eax, DWORD PTR q_$1[rbp]
	mov	DWORD PTR [rsp+40], eax
	mov	rax, QWORD PTR q_index$[rbp]
	mov	QWORD PTR [rsp+32], rax
	mov	r9, QWORD PTR v_buf_len$[rbp]
	mov	r8, QWORD PTR work_v_buf$[rbp]
	mov	rdx, QWORD PTR u_buf_len$[rbp]
	mov	rcx, QWORD PTR work_u_buf$[rbp]
	call	SubtructOneLine
	test	eax, eax
	je	SHORT $LN13@DivRem_X_X

; 954  :         {
; 955  :             // 桁借りが発生した場合
; 956  :             --q_;

	mov	eax, DWORD PTR q_$1[rbp]
	dec	eax
	mov	DWORD PTR q_$1[rbp], eax

; 957  :             AddOneLine(work_u_buf, u_buf_len, work_v_buf, v_buf_len, q_index);

	mov	rax, QWORD PTR q_index$[rbp]
	mov	QWORD PTR [rsp+32], rax
	mov	r9, QWORD PTR v_buf_len$[rbp]
	mov	r8, QWORD PTR work_v_buf$[rbp]
	mov	rdx, QWORD PTR u_buf_len$[rbp]
	mov	rcx, QWORD PTR work_u_buf$[rbp]
	call	AddOneLine
$LN13@DivRem_X_X:

; 958  :         }
; 959  : 
; 960  :         q_buf[q_index] = q_;

	mov	rax, QWORD PTR q_buf$[rbp]
	mov	rcx, QWORD PTR q_index$[rbp]
	mov	edx, DWORD PTR q_$1[rbp]
	mov	DWORD PTR [rax+rcx*4], edx

; 961  :         if (q_index == 0)

	cmp	QWORD PTR q_index$[rbp], 0
	jne	SHORT $LN14@DivRem_X_X

; 962  :             break;

	jmp	SHORT $LN7@DivRem_X_X
$LN14@DivRem_X_X:

; 963  :         --q_index;

	mov	rax, QWORD PTR q_index$[rbp]
	dec	rax
	mov	QWORD PTR q_index$[rbp], rax

; 964  :     }

	jmp	$LN6@DivRem_X_X
$LN7@DivRem_X_X:

; 965  : 
; 966  :     if (d_factor > 0)

	cmp	DWORD PTR d_factor$[rbp], 0
	jbe	SHORT $LN15@DivRem_X_X

; 967  :         RightShift_Imp_DIV(work_u_buf, u_buf_len + 1, d_factor, work_u_buf, FALSE);

	mov	eax, DWORD PTR d_factor$[rbp]
	mov	rcx, QWORD PTR u_buf_len$[rbp]
	inc	rcx
	mov	DWORD PTR [rsp+32], 0
	mov	r9, QWORD PTR work_u_buf$[rbp]
	mov	r8d, eax
	mov	rdx, rcx
	mov	rcx, QWORD PTR work_u_buf$[rbp]
	call	RightShift_Imp_DIV
$LN15@DivRem_X_X:

; 968  : }

	lea	rsp, QWORD PTR [rbp+328]
	pop	rdi
	pop	rbp
	ret	0
DivRem_X_X_using_ADC_MUL ENDP
_TEXT	ENDS
; Function compile flags: /Odtp /RTCsu /ZI
; File z:\sources\lunor\repos\rougemeilland\palmtree.math.core.implements\palmtree.math.core.implements\pmc_divrem.c
;	COMDAT AddOneLineX
_TEXT	SEGMENT
u_ptr$ = 8
v_ptr$ = 40
v_count$ = 72
c$ = 100
count$ = 136
u_buf$ = 384
u_buf_len$ = 392
v_buf$ = 400
v_buf_len$ = 408
q_index$ = 416
AddOneLineX PROC					; COMDAT

; 849  : {

	mov	QWORD PTR [rsp+32], r9
	mov	QWORD PTR [rsp+24], r8
	mov	QWORD PTR [rsp+16], rdx
	mov	QWORD PTR [rsp+8], rcx
	push	rbp
	push	rdi
	sub	rsp, 392				; 00000188H
	lea	rbp, QWORD PTR [rsp+32]
	mov	rdi, rsp
	mov	ecx, 98					; 00000062H
	mov	eax, -858993460				; ccccccccH
	rep stosd
	mov	rcx, QWORD PTR [rsp+424]
	lea	rcx, OFFSET FLAT:__62F961D6_pmc_divrem@c
	call	__CheckForDebuggerJustMyCode

; 850  :     __UNIT_TYPE_DIV* u_ptr = &u_buf[q_index];

	mov	rax, QWORD PTR u_buf$[rbp]
	mov	rcx, QWORD PTR q_index$[rbp]
	lea	rax, QWORD PTR [rax+rcx*4]
	mov	QWORD PTR u_ptr$[rbp], rax

; 851  :     __UNIT_TYPE_DIV* v_ptr = &v_buf[0];

	mov	eax, 4
	imul	rax, rax, 0
	mov	rcx, QWORD PTR v_buf$[rbp]
	add	rcx, rax
	mov	rax, rcx
	mov	QWORD PTR v_ptr$[rbp], rax

; 852  :     __UNIT_TYPE v_count = v_buf_len;

	mov	rax, QWORD PTR v_buf_len$[rbp]
	mov	QWORD PTR v_count$[rbp], rax

; 853  :     char c = 0;

	mov	BYTE PTR c$[rbp], 0

; 854  : 
; 855  :     // まず 32 ワードずつ加算をする。
; 856  :     __UNIT_TYPE count = v_count >> 5;

	mov	rax, QWORD PTR v_count$[rbp]
	shr	rax, 5
	mov	QWORD PTR count$[rbp], rax
$LN2@AddOneLine:

; 857  :     while (count != 0)

	cmp	QWORD PTR count$[rbp], 0
	je	SHORT $LN3@AddOneLine

; 858  :     {
; 859  :         c = _ADD_32WORDS_ADCX_DIV(c, u_ptr, v_ptr, u_ptr);

	mov	r9, QWORD PTR u_ptr$[rbp]
	mov	r8, QWORD PTR v_ptr$[rbp]
	mov	rdx, QWORD PTR u_ptr$[rbp]
	movzx	ecx, BYTE PTR c$[rbp]
	call	_ADD_32WORDS_ADCX_DIV
	mov	BYTE PTR c$[rbp], al

; 860  :         u_ptr += 32;

	mov	rax, QWORD PTR u_ptr$[rbp]
	add	rax, 128				; 00000080H
	mov	QWORD PTR u_ptr$[rbp], rax

; 861  :         v_ptr += 32;

	mov	rax, QWORD PTR v_ptr$[rbp]
	add	rax, 128				; 00000080H
	mov	QWORD PTR v_ptr$[rbp], rax

; 862  :         --count;

	mov	rax, QWORD PTR count$[rbp]
	dec	rax
	mov	QWORD PTR count$[rbp], rax

; 863  :     }

	jmp	SHORT $LN2@AddOneLine
$LN3@AddOneLine:

; 864  :     // この時点で未処理の桁は 32 ワード未満のはず
; 865  : 
; 866  :     // 未処理の桁が 16 ワード以上あるなら 16 ワード加算を行う。
; 867  :     if (v_count & 0x10)

	mov	rax, QWORD PTR v_count$[rbp]
	and	rax, 16
	test	rax, rax
	je	SHORT $LN4@AddOneLine

; 868  :     {
; 869  :         c = _ADD_16WORDS_ADCX_DIV(c, u_ptr, v_ptr, u_ptr);

	mov	r9, QWORD PTR u_ptr$[rbp]
	mov	r8, QWORD PTR v_ptr$[rbp]
	mov	rdx, QWORD PTR u_ptr$[rbp]
	movzx	ecx, BYTE PTR c$[rbp]
	call	_ADD_16WORDS_ADCX_DIV
	mov	BYTE PTR c$[rbp], al

; 870  :         u_ptr += 16;

	mov	rax, QWORD PTR u_ptr$[rbp]
	add	rax, 64					; 00000040H
	mov	QWORD PTR u_ptr$[rbp], rax

; 871  :         v_ptr += 16;

	mov	rax, QWORD PTR v_ptr$[rbp]
	add	rax, 64					; 00000040H
	mov	QWORD PTR v_ptr$[rbp], rax
$LN4@AddOneLine:

; 872  :     }
; 873  :     // この時点で未処理の桁は 16 ワード未満のはず
; 874  : 
; 875  :     // 未処理の桁が 8 ワード以上あるなら 8 ワード加算を行う。
; 876  :     if (v_count & 0x8)

	mov	rax, QWORD PTR v_count$[rbp]
	and	rax, 8
	test	rax, rax
	je	SHORT $LN5@AddOneLine

; 877  :     {
; 878  :         c = _ADD_8WORDS_ADCX_DIV(c, u_ptr, v_ptr, u_ptr);

	mov	r9, QWORD PTR u_ptr$[rbp]
	mov	r8, QWORD PTR v_ptr$[rbp]
	mov	rdx, QWORD PTR u_ptr$[rbp]
	movzx	ecx, BYTE PTR c$[rbp]
	call	_ADD_8WORDS_ADCX_DIV
	mov	BYTE PTR c$[rbp], al

; 879  :         u_ptr += 8;

	mov	rax, QWORD PTR u_ptr$[rbp]
	add	rax, 32					; 00000020H
	mov	QWORD PTR u_ptr$[rbp], rax

; 880  :         v_ptr += 8;

	mov	rax, QWORD PTR v_ptr$[rbp]
	add	rax, 32					; 00000020H
	mov	QWORD PTR v_ptr$[rbp], rax
$LN5@AddOneLine:

; 881  :     }
; 882  :     // この時点で未処理の桁は 8 ワード未満のはず
; 883  : 
; 884  :     // 未処理の桁が 4 ワード以上あるなら 4 ワード加算を行う。
; 885  :     if (v_count & 0x4)

	mov	rax, QWORD PTR v_count$[rbp]
	and	rax, 4
	test	rax, rax
	je	SHORT $LN6@AddOneLine

; 886  :     {
; 887  :         c = _ADD_4WORDS_ADCX_DIV(c, u_ptr, v_ptr, u_ptr);

	mov	r9, QWORD PTR u_ptr$[rbp]
	mov	r8, QWORD PTR v_ptr$[rbp]
	mov	rdx, QWORD PTR u_ptr$[rbp]
	movzx	ecx, BYTE PTR c$[rbp]
	call	_ADD_4WORDS_ADCX_DIV
	mov	BYTE PTR c$[rbp], al

; 888  :         u_ptr += 4;

	mov	rax, QWORD PTR u_ptr$[rbp]
	add	rax, 16
	mov	QWORD PTR u_ptr$[rbp], rax

; 889  :         v_ptr += 4;

	mov	rax, QWORD PTR v_ptr$[rbp]
	add	rax, 16
	mov	QWORD PTR v_ptr$[rbp], rax
$LN6@AddOneLine:

; 890  :     }
; 891  :     // この時点で未処理の桁は 4 ワード未満のはず
; 892  : 
; 893  :     // 未処理の桁が 2 ワード以上あるなら 2 ワード加算を行う。
; 894  :     if (v_count & 0x2)

	mov	rax, QWORD PTR v_count$[rbp]
	and	rax, 2
	test	rax, rax
	je	SHORT $LN7@AddOneLine

; 895  :     {
; 896  :         c = _ADD_2WORDS_ADCX_DIV(c, u_ptr, v_ptr, u_ptr);

	mov	r9, QWORD PTR u_ptr$[rbp]
	mov	r8, QWORD PTR v_ptr$[rbp]
	mov	rdx, QWORD PTR u_ptr$[rbp]
	movzx	ecx, BYTE PTR c$[rbp]
	call	_ADD_2WORDS_ADCX_DIV
	mov	BYTE PTR c$[rbp], al

; 897  :         u_ptr += 2;

	mov	rax, QWORD PTR u_ptr$[rbp]
	add	rax, 8
	mov	QWORD PTR u_ptr$[rbp], rax

; 898  :         v_ptr += 2;

	mov	rax, QWORD PTR v_ptr$[rbp]
	add	rax, 8
	mov	QWORD PTR v_ptr$[rbp], rax
$LN7@AddOneLine:

; 899  :     }
; 900  :     // この時点で未処理の桁は 2 ワード未満のはず
; 901  : 
; 902  :     // 未処理の桁が 1 ワード以上あるなら 1 ワード加算を行う。
; 903  :     if (v_count & 0x1)

	mov	rax, QWORD PTR v_count$[rbp]
	and	rax, 1
	test	rax, rax
	je	SHORT $LN8@AddOneLine

; 904  :     {
; 905  :         c = _ADD_UNIT_DIV(c, *u_ptr, *v_ptr, u_ptr);

	mov	r9, QWORD PTR u_ptr$[rbp]
	mov	rax, QWORD PTR v_ptr$[rbp]
	mov	r8d, DWORD PTR [rax]
	mov	rax, QWORD PTR u_ptr$[rbp]
	mov	edx, DWORD PTR [rax]
	movzx	ecx, BYTE PTR c$[rbp]
	call	_ADD_UNIT_DIV
	mov	BYTE PTR c$[rbp], al

; 906  :         ++u_ptr;

	mov	rax, QWORD PTR u_ptr$[rbp]
	add	rax, 4
	mov	QWORD PTR u_ptr$[rbp], rax

; 907  :         ++v_ptr;

	mov	rax, QWORD PTR v_ptr$[rbp]
	add	rax, 4
	mov	QWORD PTR v_ptr$[rbp], rax
$LN8@AddOneLine:

; 908  :     }
; 909  : 
; 910  :     // 残りの桁の繰り上がりを計算する。
; 911  :     DoCarry(c, u_ptr, u_buf + u_buf_len + 1 - u_ptr);

	mov	rax, QWORD PTR u_buf$[rbp]
	mov	rcx, QWORD PTR u_buf_len$[rbp]
	lea	rax, QWORD PTR [rax+rcx*4+4]
	sub	rax, QWORD PTR u_ptr$[rbp]
	sar	rax, 2
	mov	r8, rax
	mov	rdx, QWORD PTR u_ptr$[rbp]
	movzx	ecx, BYTE PTR c$[rbp]
	call	DoCarry

; 912  : }

	lea	rsp, QWORD PTR [rbp+360]
	pop	rdi
	pop	rbp
	ret	0
AddOneLineX ENDP
_TEXT	ENDS
; Function compile flags: /Odtp /RTCsu /ZI
; File z:\sources\lunor\repos\rougemeilland\palmtree.math.core.implements\palmtree.math.core.implements\pmc_divrem.c
;	COMDAT AddOneLine
_TEXT	SEGMENT
u_ptr$ = 8
v_ptr$ = 40
v_count$ = 72
c$ = 100
count$ = 136
u_buf$ = 384
u_buf_len$ = 392
v_buf$ = 400
v_buf_len$ = 408
q_index$ = 416
AddOneLine PROC						; COMDAT

; 783  : {

	mov	QWORD PTR [rsp+32], r9
	mov	QWORD PTR [rsp+24], r8
	mov	QWORD PTR [rsp+16], rdx
	mov	QWORD PTR [rsp+8], rcx
	push	rbp
	push	rdi
	sub	rsp, 392				; 00000188H
	lea	rbp, QWORD PTR [rsp+32]
	mov	rdi, rsp
	mov	ecx, 98					; 00000062H
	mov	eax, -858993460				; ccccccccH
	rep stosd
	mov	rcx, QWORD PTR [rsp+424]
	lea	rcx, OFFSET FLAT:__62F961D6_pmc_divrem@c
	call	__CheckForDebuggerJustMyCode

; 784  :     __UNIT_TYPE_DIV* u_ptr = &u_buf[q_index];

	mov	rax, QWORD PTR u_buf$[rbp]
	mov	rcx, QWORD PTR q_index$[rbp]
	lea	rax, QWORD PTR [rax+rcx*4]
	mov	QWORD PTR u_ptr$[rbp], rax

; 785  :     __UNIT_TYPE_DIV* v_ptr = &v_buf[0];

	mov	eax, 4
	imul	rax, rax, 0
	mov	rcx, QWORD PTR v_buf$[rbp]
	add	rcx, rax
	mov	rax, rcx
	mov	QWORD PTR v_ptr$[rbp], rax

; 786  :     __UNIT_TYPE v_count = v_buf_len;

	mov	rax, QWORD PTR v_buf_len$[rbp]
	mov	QWORD PTR v_count$[rbp], rax

; 787  :     char c = 0;

	mov	BYTE PTR c$[rbp], 0

; 788  : 
; 789  :     // まず 32 ワードずつ加算をする。
; 790  :     __UNIT_TYPE count = v_count >> 5;

	mov	rax, QWORD PTR v_count$[rbp]
	shr	rax, 5
	mov	QWORD PTR count$[rbp], rax
$LN2@AddOneLine:

; 791  :     while (count != 0)

	cmp	QWORD PTR count$[rbp], 0
	je	SHORT $LN3@AddOneLine

; 792  :     {
; 793  :         c = _ADD_32WORDS_ADC_DIV(c, u_ptr, v_ptr, u_ptr);

	mov	r9, QWORD PTR u_ptr$[rbp]
	mov	r8, QWORD PTR v_ptr$[rbp]
	mov	rdx, QWORD PTR u_ptr$[rbp]
	movzx	ecx, BYTE PTR c$[rbp]
	call	_ADD_32WORDS_ADC_DIV
	mov	BYTE PTR c$[rbp], al

; 794  :         u_ptr += 32;

	mov	rax, QWORD PTR u_ptr$[rbp]
	add	rax, 128				; 00000080H
	mov	QWORD PTR u_ptr$[rbp], rax

; 795  :         v_ptr += 32;

	mov	rax, QWORD PTR v_ptr$[rbp]
	add	rax, 128				; 00000080H
	mov	QWORD PTR v_ptr$[rbp], rax

; 796  :         --count;

	mov	rax, QWORD PTR count$[rbp]
	dec	rax
	mov	QWORD PTR count$[rbp], rax

; 797  :     }

	jmp	SHORT $LN2@AddOneLine
$LN3@AddOneLine:

; 798  :     // この時点で未処理の桁は 32 ワード未満のはず
; 799  : 
; 800  :     // 未処理の桁が 16 ワード以上あるなら 16 ワード加算を行う。
; 801  :     if (v_count & 0x10)

	mov	rax, QWORD PTR v_count$[rbp]
	and	rax, 16
	test	rax, rax
	je	SHORT $LN4@AddOneLine

; 802  :     {
; 803  :         c = _ADD_16WORDS_ADC_DIV(c, u_ptr, v_ptr, u_ptr);

	mov	r9, QWORD PTR u_ptr$[rbp]
	mov	r8, QWORD PTR v_ptr$[rbp]
	mov	rdx, QWORD PTR u_ptr$[rbp]
	movzx	ecx, BYTE PTR c$[rbp]
	call	_ADD_16WORDS_ADC_DIV
	mov	BYTE PTR c$[rbp], al

; 804  :         u_ptr += 16;

	mov	rax, QWORD PTR u_ptr$[rbp]
	add	rax, 64					; 00000040H
	mov	QWORD PTR u_ptr$[rbp], rax

; 805  :         v_ptr += 16;

	mov	rax, QWORD PTR v_ptr$[rbp]
	add	rax, 64					; 00000040H
	mov	QWORD PTR v_ptr$[rbp], rax
$LN4@AddOneLine:

; 806  :     }
; 807  :     // この時点で未処理の桁は 16 ワード未満のはず
; 808  : 
; 809  :     // 未処理の桁が 8 ワード以上あるなら 8 ワード加算を行う。
; 810  :     if (v_count & 0x8)

	mov	rax, QWORD PTR v_count$[rbp]
	and	rax, 8
	test	rax, rax
	je	SHORT $LN5@AddOneLine

; 811  :     {
; 812  :         c = _ADD_8WORDS_ADC_DIV(c, u_ptr, v_ptr, u_ptr);

	mov	r9, QWORD PTR u_ptr$[rbp]
	mov	r8, QWORD PTR v_ptr$[rbp]
	mov	rdx, QWORD PTR u_ptr$[rbp]
	movzx	ecx, BYTE PTR c$[rbp]
	call	_ADD_8WORDS_ADC_DIV
	mov	BYTE PTR c$[rbp], al

; 813  :         u_ptr += 8;

	mov	rax, QWORD PTR u_ptr$[rbp]
	add	rax, 32					; 00000020H
	mov	QWORD PTR u_ptr$[rbp], rax

; 814  :         v_ptr += 8;

	mov	rax, QWORD PTR v_ptr$[rbp]
	add	rax, 32					; 00000020H
	mov	QWORD PTR v_ptr$[rbp], rax
$LN5@AddOneLine:

; 815  :     }
; 816  :     // この時点で未処理の桁は 8 ワード未満のはず
; 817  : 
; 818  :     // 未処理の桁が 4 ワード以上あるなら 4 ワード加算を行う。
; 819  :     if (v_count & 0x4)

	mov	rax, QWORD PTR v_count$[rbp]
	and	rax, 4
	test	rax, rax
	je	SHORT $LN6@AddOneLine

; 820  :     {
; 821  :         c = _ADD_4WORDS_ADC_DIV(c, u_ptr, v_ptr, u_ptr);

	mov	r9, QWORD PTR u_ptr$[rbp]
	mov	r8, QWORD PTR v_ptr$[rbp]
	mov	rdx, QWORD PTR u_ptr$[rbp]
	movzx	ecx, BYTE PTR c$[rbp]
	call	_ADD_4WORDS_ADC_DIV
	mov	BYTE PTR c$[rbp], al

; 822  :         u_ptr += 4;

	mov	rax, QWORD PTR u_ptr$[rbp]
	add	rax, 16
	mov	QWORD PTR u_ptr$[rbp], rax

; 823  :         v_ptr += 4;

	mov	rax, QWORD PTR v_ptr$[rbp]
	add	rax, 16
	mov	QWORD PTR v_ptr$[rbp], rax
$LN6@AddOneLine:

; 824  :     }
; 825  :     // この時点で未処理の桁は 4 ワード未満のはず
; 826  : 
; 827  :     // 未処理の桁が 2 ワード以上あるなら 2 ワード加算を行う。
; 828  :     if (v_count & 0x2)

	mov	rax, QWORD PTR v_count$[rbp]
	and	rax, 2
	test	rax, rax
	je	SHORT $LN7@AddOneLine

; 829  :     {
; 830  :         c = _ADD_2WORDS_ADC_DIV(c, u_ptr, v_ptr, u_ptr);

	mov	r9, QWORD PTR u_ptr$[rbp]
	mov	r8, QWORD PTR v_ptr$[rbp]
	mov	rdx, QWORD PTR u_ptr$[rbp]
	movzx	ecx, BYTE PTR c$[rbp]
	call	_ADD_2WORDS_ADC_DIV
	mov	BYTE PTR c$[rbp], al

; 831  :         u_ptr += 2;

	mov	rax, QWORD PTR u_ptr$[rbp]
	add	rax, 8
	mov	QWORD PTR u_ptr$[rbp], rax

; 832  :         v_ptr += 2;

	mov	rax, QWORD PTR v_ptr$[rbp]
	add	rax, 8
	mov	QWORD PTR v_ptr$[rbp], rax
$LN7@AddOneLine:

; 833  :     }
; 834  :     // この時点で未処理の桁は 2 ワード未満のはず
; 835  : 
; 836  :     // 未処理の桁が 1 ワード以上あるなら 1 ワード加算を行う。
; 837  :     if (v_count & 0x1)

	mov	rax, QWORD PTR v_count$[rbp]
	and	rax, 1
	test	rax, rax
	je	SHORT $LN8@AddOneLine

; 838  :     {
; 839  :         c = _ADD_UNIT_DIV(c, *u_ptr, *v_ptr, u_ptr);

	mov	r9, QWORD PTR u_ptr$[rbp]
	mov	rax, QWORD PTR v_ptr$[rbp]
	mov	r8d, DWORD PTR [rax]
	mov	rax, QWORD PTR u_ptr$[rbp]
	mov	edx, DWORD PTR [rax]
	movzx	ecx, BYTE PTR c$[rbp]
	call	_ADD_UNIT_DIV
	mov	BYTE PTR c$[rbp], al

; 840  :         ++u_ptr;

	mov	rax, QWORD PTR u_ptr$[rbp]
	add	rax, 4
	mov	QWORD PTR u_ptr$[rbp], rax

; 841  :         ++v_ptr;

	mov	rax, QWORD PTR v_ptr$[rbp]
	add	rax, 4
	mov	QWORD PTR v_ptr$[rbp], rax
$LN8@AddOneLine:

; 842  :     }
; 843  : 
; 844  :     // 残りの桁の繰り上がりを計算する。
; 845  :     DoCarry(c, u_ptr, u_buf + u_buf_len + 1 - u_ptr);

	mov	rax, QWORD PTR u_buf$[rbp]
	mov	rcx, QWORD PTR u_buf_len$[rbp]
	lea	rax, QWORD PTR [rax+rcx*4+4]
	sub	rax, QWORD PTR u_ptr$[rbp]
	sar	rax, 2
	mov	r8, rax
	mov	rdx, QWORD PTR u_ptr$[rbp]
	movzx	ecx, BYTE PTR c$[rbp]
	call	DoCarry

; 846  : }

	lea	rsp, QWORD PTR [rbp+360]
	pop	rdi
	pop	rbp
	ret	0
AddOneLine ENDP
_TEXT	ENDS
; Function compile flags: /Odtp /RTCsu /ZI
; File z:\sources\lunor\repos\rougemeilland\palmtree.math.core.implements\palmtree.math.core.implements\pmc_divrem.c
;	COMDAT DoCarry
_TEXT	SEGMENT
c$ = 224
u_ptr$ = 232
u_count$ = 240
DoCarry	PROC						; COMDAT

; 754  : {

	mov	QWORD PTR [rsp+24], r8
	mov	QWORD PTR [rsp+16], rdx
	mov	BYTE PTR [rsp+8], cl
	push	rbp
	push	rdi
	sub	rsp, 232				; 000000e8H
	lea	rbp, QWORD PTR [rsp+32]
	mov	rdi, rsp
	mov	ecx, 58					; 0000003aH
	mov	eax, -858993460				; ccccccccH
	rep stosd
	movzx	ecx, BYTE PTR [rsp+264]
	lea	rcx, OFFSET FLAT:__62F961D6_pmc_divrem@c
	call	__CheckForDebuggerJustMyCode
$LN2@DoCarry:

; 755  :     // 繰り上がりを続く限り行う
; 756  :     for (;;)
; 757  :     {
; 758  :         if (u_count <= 0)

	cmp	QWORD PTR u_count$[rbp], 0
	ja	SHORT $LN5@DoCarry

; 759  :         {
; 760  :             // u の最上位まで達してしまった場合
; 761  :             return;

	jmp	SHORT $LN1@DoCarry

; 762  :         }

	jmp	SHORT $LN6@DoCarry
$LN5@DoCarry:

; 763  :         else if (c)

	movsx	eax, BYTE PTR c$[rbp]
	test	eax, eax
	je	SHORT $LN7@DoCarry

; 764  :         {
; 765  :             // u の最上位に達しておらず、かつキャリーが立っている場合
; 766  : 
; 767  :             // 繰り上がりを継続する
; 768  :             c = _ADD_UNIT_DIV(c, *u_ptr, 0, u_ptr);

	mov	r9, QWORD PTR u_ptr$[rbp]
	xor	r8d, r8d
	mov	rax, QWORD PTR u_ptr$[rbp]
	mov	edx, DWORD PTR [rax]
	movzx	ecx, BYTE PTR c$[rbp]
	call	_ADD_UNIT_DIV
	mov	BYTE PTR c$[rbp], al

; 769  :             ++u_ptr;

	mov	rax, QWORD PTR u_ptr$[rbp]
	add	rax, 4
	mov	QWORD PTR u_ptr$[rbp], rax

; 770  :             --u_count;

	mov	rax, QWORD PTR u_count$[rbp]
	dec	rax
	mov	QWORD PTR u_count$[rbp], rax

; 771  :         }

	jmp	SHORT $LN8@DoCarry
$LN7@DoCarry:

; 772  :         else
; 773  :         {
; 774  :             // u の最上位に達しておらず、かつキャリーが立っていない場合
; 775  : 
; 776  :             // 繰り上がりを中断し、復帰する。
; 777  :             return;

	jmp	SHORT $LN1@DoCarry
$LN8@DoCarry:
$LN6@DoCarry:

; 778  :         }
; 779  :     }

	jmp	SHORT $LN2@DoCarry
$LN1@DoCarry:

; 780  : }

	lea	rsp, QWORD PTR [rbp+200]
	pop	rdi
	pop	rbp
	ret	0
DoCarry	ENDP
_TEXT	ENDS
; Function compile flags: /Odtp /RTCsu /ZI
; File z:\sources\lunor\repos\rougemeilland\palmtree.math.core.implements\palmtree.math.core.implements\pmc_divrem.c
;	COMDAT SubtructOneLineX
_TEXT	SEGMENT
u_ptr$ = 8
v_ptr$ = 40
v_count$ = 72
k$ = 100
c$ = 132
count$ = 168
u_buf$ = 416
u_buf_len$ = 424
v_buf$ = 432
v_buf_len$ = 440
q_index$ = 448
q_$ = 456
SubtructOneLineX PROC					; COMDAT

; 603  : {

	mov	QWORD PTR [rsp+32], r9
	mov	QWORD PTR [rsp+24], r8
	mov	QWORD PTR [rsp+16], rdx
	mov	QWORD PTR [rsp+8], rcx
	push	rbp
	push	rdi
	sub	rsp, 440				; 000001b8H
	lea	rbp, QWORD PTR [rsp+48]
	mov	rdi, rsp
	mov	ecx, 110				; 0000006eH
	mov	eax, -858993460				; ccccccccH
	rep stosd
	mov	rcx, QWORD PTR [rsp+472]
	lea	rcx, OFFSET FLAT:__62F961D6_pmc_divrem@c
	call	__CheckForDebuggerJustMyCode

; 604  :     __UNIT_TYPE_DIV* u_ptr = &u_buf[q_index];

	mov	rax, QWORD PTR u_buf$[rbp]
	mov	rcx, QWORD PTR q_index$[rbp]
	lea	rax, QWORD PTR [rax+rcx*4]
	mov	QWORD PTR u_ptr$[rbp], rax

; 605  :     __UNIT_TYPE_DIV* v_ptr = &v_buf[0];

	mov	eax, 4
	imul	rax, rax, 0
	mov	rcx, QWORD PTR v_buf$[rbp]
	add	rcx, rax
	mov	rax, rcx
	mov	QWORD PTR v_ptr$[rbp], rax

; 606  :     __UNIT_TYPE v_count = v_buf_len;

	mov	rax, QWORD PTR v_buf_len$[rbp]
	mov	QWORD PTR v_count$[rbp], rax

; 607  :     __UNIT_TYPE_DIV k = 0;

	mov	DWORD PTR k$[rbp], 0

; 608  :     char c = 0;

	mov	BYTE PTR c$[rbp], 0

; 609  : 
; 610  :     __UNIT_TYPE count = v_count >> 5;

	mov	rax, QWORD PTR v_count$[rbp]
	shr	rax, 5
	mov	QWORD PTR count$[rbp], rax
$LN2@SubtructOn:

; 611  :     while (count != 0)

	cmp	QWORD PTR count$[rbp], 0
	je	$LN3@SubtructOn

; 612  :     {
; 613  :         c = _MULTIPLYX_DIGIT_UNIT_DIV(c, &k, &v_ptr[0], q_, &u_ptr[0]);

	mov	eax, 4
	imul	rax, rax, 0
	mov	rcx, QWORD PTR u_ptr$[rbp]
	add	rcx, rax
	mov	rax, rcx
	mov	ecx, 4
	imul	rcx, rcx, 0
	mov	rdx, QWORD PTR v_ptr$[rbp]
	add	rdx, rcx
	mov	rcx, rdx
	mov	QWORD PTR [rsp+32], rax
	mov	r9d, DWORD PTR q_$[rbp]
	mov	r8, rcx
	lea	rdx, QWORD PTR k$[rbp]
	movzx	ecx, BYTE PTR c$[rbp]
	call	_MULTIPLYX_DIGIT_UNIT_DIV
	mov	BYTE PTR c$[rbp], al

; 614  :         c = _MULTIPLYX_DIGIT_UNIT_DIV(c, &k, &v_ptr[1], q_, &u_ptr[1]);

	mov	eax, 4
	imul	rax, rax, 1
	mov	rcx, QWORD PTR u_ptr$[rbp]
	add	rcx, rax
	mov	rax, rcx
	mov	ecx, 4
	imul	rcx, rcx, 1
	mov	rdx, QWORD PTR v_ptr$[rbp]
	add	rdx, rcx
	mov	rcx, rdx
	mov	QWORD PTR [rsp+32], rax
	mov	r9d, DWORD PTR q_$[rbp]
	mov	r8, rcx
	lea	rdx, QWORD PTR k$[rbp]
	movzx	ecx, BYTE PTR c$[rbp]
	call	_MULTIPLYX_DIGIT_UNIT_DIV
	mov	BYTE PTR c$[rbp], al

; 615  :         c = _MULTIPLYX_DIGIT_UNIT_DIV(c, &k, &v_ptr[2], q_, &u_ptr[2]);

	mov	eax, 4
	imul	rax, rax, 2
	mov	rcx, QWORD PTR u_ptr$[rbp]
	add	rcx, rax
	mov	rax, rcx
	mov	ecx, 4
	imul	rcx, rcx, 2
	mov	rdx, QWORD PTR v_ptr$[rbp]
	add	rdx, rcx
	mov	rcx, rdx
	mov	QWORD PTR [rsp+32], rax
	mov	r9d, DWORD PTR q_$[rbp]
	mov	r8, rcx
	lea	rdx, QWORD PTR k$[rbp]
	movzx	ecx, BYTE PTR c$[rbp]
	call	_MULTIPLYX_DIGIT_UNIT_DIV
	mov	BYTE PTR c$[rbp], al

; 616  :         c = _MULTIPLYX_DIGIT_UNIT_DIV(c, &k, &v_ptr[3], q_, &u_ptr[3]);

	mov	eax, 4
	imul	rax, rax, 3
	mov	rcx, QWORD PTR u_ptr$[rbp]
	add	rcx, rax
	mov	rax, rcx
	mov	ecx, 4
	imul	rcx, rcx, 3
	mov	rdx, QWORD PTR v_ptr$[rbp]
	add	rdx, rcx
	mov	rcx, rdx
	mov	QWORD PTR [rsp+32], rax
	mov	r9d, DWORD PTR q_$[rbp]
	mov	r8, rcx
	lea	rdx, QWORD PTR k$[rbp]
	movzx	ecx, BYTE PTR c$[rbp]
	call	_MULTIPLYX_DIGIT_UNIT_DIV
	mov	BYTE PTR c$[rbp], al

; 617  :         c = _MULTIPLYX_DIGIT_UNIT_DIV(c, &k, &v_ptr[4], q_, &u_ptr[4]);

	mov	eax, 4
	imul	rax, rax, 4
	mov	rcx, QWORD PTR u_ptr$[rbp]
	add	rcx, rax
	mov	rax, rcx
	mov	ecx, 4
	imul	rcx, rcx, 4
	mov	rdx, QWORD PTR v_ptr$[rbp]
	add	rdx, rcx
	mov	rcx, rdx
	mov	QWORD PTR [rsp+32], rax
	mov	r9d, DWORD PTR q_$[rbp]
	mov	r8, rcx
	lea	rdx, QWORD PTR k$[rbp]
	movzx	ecx, BYTE PTR c$[rbp]
	call	_MULTIPLYX_DIGIT_UNIT_DIV
	mov	BYTE PTR c$[rbp], al

; 618  :         c = _MULTIPLYX_DIGIT_UNIT_DIV(c, &k, &v_ptr[5], q_, &u_ptr[5]);

	mov	eax, 4
	imul	rax, rax, 5
	mov	rcx, QWORD PTR u_ptr$[rbp]
	add	rcx, rax
	mov	rax, rcx
	mov	ecx, 4
	imul	rcx, rcx, 5
	mov	rdx, QWORD PTR v_ptr$[rbp]
	add	rdx, rcx
	mov	rcx, rdx
	mov	QWORD PTR [rsp+32], rax
	mov	r9d, DWORD PTR q_$[rbp]
	mov	r8, rcx
	lea	rdx, QWORD PTR k$[rbp]
	movzx	ecx, BYTE PTR c$[rbp]
	call	_MULTIPLYX_DIGIT_UNIT_DIV
	mov	BYTE PTR c$[rbp], al

; 619  :         c = _MULTIPLYX_DIGIT_UNIT_DIV(c, &k, &v_ptr[6], q_, &u_ptr[6]);

	mov	eax, 4
	imul	rax, rax, 6
	mov	rcx, QWORD PTR u_ptr$[rbp]
	add	rcx, rax
	mov	rax, rcx
	mov	ecx, 4
	imul	rcx, rcx, 6
	mov	rdx, QWORD PTR v_ptr$[rbp]
	add	rdx, rcx
	mov	rcx, rdx
	mov	QWORD PTR [rsp+32], rax
	mov	r9d, DWORD PTR q_$[rbp]
	mov	r8, rcx
	lea	rdx, QWORD PTR k$[rbp]
	movzx	ecx, BYTE PTR c$[rbp]
	call	_MULTIPLYX_DIGIT_UNIT_DIV
	mov	BYTE PTR c$[rbp], al

; 620  :         c = _MULTIPLYX_DIGIT_UNIT_DIV(c, &k, &v_ptr[7], q_, &u_ptr[7]);

	mov	eax, 4
	imul	rax, rax, 7
	mov	rcx, QWORD PTR u_ptr$[rbp]
	add	rcx, rax
	mov	rax, rcx
	mov	ecx, 4
	imul	rcx, rcx, 7
	mov	rdx, QWORD PTR v_ptr$[rbp]
	add	rdx, rcx
	mov	rcx, rdx
	mov	QWORD PTR [rsp+32], rax
	mov	r9d, DWORD PTR q_$[rbp]
	mov	r8, rcx
	lea	rdx, QWORD PTR k$[rbp]
	movzx	ecx, BYTE PTR c$[rbp]
	call	_MULTIPLYX_DIGIT_UNIT_DIV
	mov	BYTE PTR c$[rbp], al

; 621  :         c = _MULTIPLYX_DIGIT_UNIT_DIV(c, &k, &v_ptr[8], q_, &u_ptr[8]);

	mov	eax, 4
	imul	rax, rax, 8
	mov	rcx, QWORD PTR u_ptr$[rbp]
	add	rcx, rax
	mov	rax, rcx
	mov	ecx, 4
	imul	rcx, rcx, 8
	mov	rdx, QWORD PTR v_ptr$[rbp]
	add	rdx, rcx
	mov	rcx, rdx
	mov	QWORD PTR [rsp+32], rax
	mov	r9d, DWORD PTR q_$[rbp]
	mov	r8, rcx
	lea	rdx, QWORD PTR k$[rbp]
	movzx	ecx, BYTE PTR c$[rbp]
	call	_MULTIPLYX_DIGIT_UNIT_DIV
	mov	BYTE PTR c$[rbp], al

; 622  :         c = _MULTIPLYX_DIGIT_UNIT_DIV(c, &k, &v_ptr[9], q_, &u_ptr[9]);

	mov	eax, 4
	imul	rax, rax, 9
	mov	rcx, QWORD PTR u_ptr$[rbp]
	add	rcx, rax
	mov	rax, rcx
	mov	ecx, 4
	imul	rcx, rcx, 9
	mov	rdx, QWORD PTR v_ptr$[rbp]
	add	rdx, rcx
	mov	rcx, rdx
	mov	QWORD PTR [rsp+32], rax
	mov	r9d, DWORD PTR q_$[rbp]
	mov	r8, rcx
	lea	rdx, QWORD PTR k$[rbp]
	movzx	ecx, BYTE PTR c$[rbp]
	call	_MULTIPLYX_DIGIT_UNIT_DIV
	mov	BYTE PTR c$[rbp], al

; 623  :         c = _MULTIPLYX_DIGIT_UNIT_DIV(c, &k, &v_ptr[10], q_, &u_ptr[10]);

	mov	eax, 4
	imul	rax, rax, 10
	mov	rcx, QWORD PTR u_ptr$[rbp]
	add	rcx, rax
	mov	rax, rcx
	mov	ecx, 4
	imul	rcx, rcx, 10
	mov	rdx, QWORD PTR v_ptr$[rbp]
	add	rdx, rcx
	mov	rcx, rdx
	mov	QWORD PTR [rsp+32], rax
	mov	r9d, DWORD PTR q_$[rbp]
	mov	r8, rcx
	lea	rdx, QWORD PTR k$[rbp]
	movzx	ecx, BYTE PTR c$[rbp]
	call	_MULTIPLYX_DIGIT_UNIT_DIV
	mov	BYTE PTR c$[rbp], al

; 624  :         c = _MULTIPLYX_DIGIT_UNIT_DIV(c, &k, &v_ptr[11], q_, &u_ptr[11]);

	mov	eax, 4
	imul	rax, rax, 11
	mov	rcx, QWORD PTR u_ptr$[rbp]
	add	rcx, rax
	mov	rax, rcx
	mov	ecx, 4
	imul	rcx, rcx, 11
	mov	rdx, QWORD PTR v_ptr$[rbp]
	add	rdx, rcx
	mov	rcx, rdx
	mov	QWORD PTR [rsp+32], rax
	mov	r9d, DWORD PTR q_$[rbp]
	mov	r8, rcx
	lea	rdx, QWORD PTR k$[rbp]
	movzx	ecx, BYTE PTR c$[rbp]
	call	_MULTIPLYX_DIGIT_UNIT_DIV
	mov	BYTE PTR c$[rbp], al

; 625  :         c = _MULTIPLYX_DIGIT_UNIT_DIV(c, &k, &v_ptr[12], q_, &u_ptr[12]);

	mov	eax, 4
	imul	rax, rax, 12
	mov	rcx, QWORD PTR u_ptr$[rbp]
	add	rcx, rax
	mov	rax, rcx
	mov	ecx, 4
	imul	rcx, rcx, 12
	mov	rdx, QWORD PTR v_ptr$[rbp]
	add	rdx, rcx
	mov	rcx, rdx
	mov	QWORD PTR [rsp+32], rax
	mov	r9d, DWORD PTR q_$[rbp]
	mov	r8, rcx
	lea	rdx, QWORD PTR k$[rbp]
	movzx	ecx, BYTE PTR c$[rbp]
	call	_MULTIPLYX_DIGIT_UNIT_DIV
	mov	BYTE PTR c$[rbp], al

; 626  :         c = _MULTIPLYX_DIGIT_UNIT_DIV(c, &k, &v_ptr[13], q_, &u_ptr[13]);

	mov	eax, 4
	imul	rax, rax, 13
	mov	rcx, QWORD PTR u_ptr$[rbp]
	add	rcx, rax
	mov	rax, rcx
	mov	ecx, 4
	imul	rcx, rcx, 13
	mov	rdx, QWORD PTR v_ptr$[rbp]
	add	rdx, rcx
	mov	rcx, rdx
	mov	QWORD PTR [rsp+32], rax
	mov	r9d, DWORD PTR q_$[rbp]
	mov	r8, rcx
	lea	rdx, QWORD PTR k$[rbp]
	movzx	ecx, BYTE PTR c$[rbp]
	call	_MULTIPLYX_DIGIT_UNIT_DIV
	mov	BYTE PTR c$[rbp], al

; 627  :         c = _MULTIPLYX_DIGIT_UNIT_DIV(c, &k, &v_ptr[14], q_, &u_ptr[14]);

	mov	eax, 4
	imul	rax, rax, 14
	mov	rcx, QWORD PTR u_ptr$[rbp]
	add	rcx, rax
	mov	rax, rcx
	mov	ecx, 4
	imul	rcx, rcx, 14
	mov	rdx, QWORD PTR v_ptr$[rbp]
	add	rdx, rcx
	mov	rcx, rdx
	mov	QWORD PTR [rsp+32], rax
	mov	r9d, DWORD PTR q_$[rbp]
	mov	r8, rcx
	lea	rdx, QWORD PTR k$[rbp]
	movzx	ecx, BYTE PTR c$[rbp]
	call	_MULTIPLYX_DIGIT_UNIT_DIV
	mov	BYTE PTR c$[rbp], al

; 628  :         c = _MULTIPLYX_DIGIT_UNIT_DIV(c, &k, &v_ptr[15], q_, &u_ptr[15]);

	mov	eax, 4
	imul	rax, rax, 15
	mov	rcx, QWORD PTR u_ptr$[rbp]
	add	rcx, rax
	mov	rax, rcx
	mov	ecx, 4
	imul	rcx, rcx, 15
	mov	rdx, QWORD PTR v_ptr$[rbp]
	add	rdx, rcx
	mov	rcx, rdx
	mov	QWORD PTR [rsp+32], rax
	mov	r9d, DWORD PTR q_$[rbp]
	mov	r8, rcx
	lea	rdx, QWORD PTR k$[rbp]
	movzx	ecx, BYTE PTR c$[rbp]
	call	_MULTIPLYX_DIGIT_UNIT_DIV
	mov	BYTE PTR c$[rbp], al

; 629  :         c = _MULTIPLYX_DIGIT_UNIT_DIV(c, &k, &v_ptr[16], q_, &u_ptr[16]);

	mov	eax, 4
	imul	rax, rax, 16
	mov	rcx, QWORD PTR u_ptr$[rbp]
	add	rcx, rax
	mov	rax, rcx
	mov	ecx, 4
	imul	rcx, rcx, 16
	mov	rdx, QWORD PTR v_ptr$[rbp]
	add	rdx, rcx
	mov	rcx, rdx
	mov	QWORD PTR [rsp+32], rax
	mov	r9d, DWORD PTR q_$[rbp]
	mov	r8, rcx
	lea	rdx, QWORD PTR k$[rbp]
	movzx	ecx, BYTE PTR c$[rbp]
	call	_MULTIPLYX_DIGIT_UNIT_DIV
	mov	BYTE PTR c$[rbp], al

; 630  :         c = _MULTIPLYX_DIGIT_UNIT_DIV(c, &k, &v_ptr[17], q_, &u_ptr[17]);

	mov	eax, 4
	imul	rax, rax, 17
	mov	rcx, QWORD PTR u_ptr$[rbp]
	add	rcx, rax
	mov	rax, rcx
	mov	ecx, 4
	imul	rcx, rcx, 17
	mov	rdx, QWORD PTR v_ptr$[rbp]
	add	rdx, rcx
	mov	rcx, rdx
	mov	QWORD PTR [rsp+32], rax
	mov	r9d, DWORD PTR q_$[rbp]
	mov	r8, rcx
	lea	rdx, QWORD PTR k$[rbp]
	movzx	ecx, BYTE PTR c$[rbp]
	call	_MULTIPLYX_DIGIT_UNIT_DIV
	mov	BYTE PTR c$[rbp], al

; 631  :         c = _MULTIPLYX_DIGIT_UNIT_DIV(c, &k, &v_ptr[18], q_, &u_ptr[18]);

	mov	eax, 4
	imul	rax, rax, 18
	mov	rcx, QWORD PTR u_ptr$[rbp]
	add	rcx, rax
	mov	rax, rcx
	mov	ecx, 4
	imul	rcx, rcx, 18
	mov	rdx, QWORD PTR v_ptr$[rbp]
	add	rdx, rcx
	mov	rcx, rdx
	mov	QWORD PTR [rsp+32], rax
	mov	r9d, DWORD PTR q_$[rbp]
	mov	r8, rcx
	lea	rdx, QWORD PTR k$[rbp]
	movzx	ecx, BYTE PTR c$[rbp]
	call	_MULTIPLYX_DIGIT_UNIT_DIV
	mov	BYTE PTR c$[rbp], al

; 632  :         c = _MULTIPLYX_DIGIT_UNIT_DIV(c, &k, &v_ptr[19], q_, &u_ptr[19]);

	mov	eax, 4
	imul	rax, rax, 19
	mov	rcx, QWORD PTR u_ptr$[rbp]
	add	rcx, rax
	mov	rax, rcx
	mov	ecx, 4
	imul	rcx, rcx, 19
	mov	rdx, QWORD PTR v_ptr$[rbp]
	add	rdx, rcx
	mov	rcx, rdx
	mov	QWORD PTR [rsp+32], rax
	mov	r9d, DWORD PTR q_$[rbp]
	mov	r8, rcx
	lea	rdx, QWORD PTR k$[rbp]
	movzx	ecx, BYTE PTR c$[rbp]
	call	_MULTIPLYX_DIGIT_UNIT_DIV
	mov	BYTE PTR c$[rbp], al

; 633  :         c = _MULTIPLYX_DIGIT_UNIT_DIV(c, &k, &v_ptr[20], q_, &u_ptr[20]);

	mov	eax, 4
	imul	rax, rax, 20
	mov	rcx, QWORD PTR u_ptr$[rbp]
	add	rcx, rax
	mov	rax, rcx
	mov	ecx, 4
	imul	rcx, rcx, 20
	mov	rdx, QWORD PTR v_ptr$[rbp]
	add	rdx, rcx
	mov	rcx, rdx
	mov	QWORD PTR [rsp+32], rax
	mov	r9d, DWORD PTR q_$[rbp]
	mov	r8, rcx
	lea	rdx, QWORD PTR k$[rbp]
	movzx	ecx, BYTE PTR c$[rbp]
	call	_MULTIPLYX_DIGIT_UNIT_DIV
	mov	BYTE PTR c$[rbp], al

; 634  :         c = _MULTIPLYX_DIGIT_UNIT_DIV(c, &k, &v_ptr[21], q_, &u_ptr[21]);

	mov	eax, 4
	imul	rax, rax, 21
	mov	rcx, QWORD PTR u_ptr$[rbp]
	add	rcx, rax
	mov	rax, rcx
	mov	ecx, 4
	imul	rcx, rcx, 21
	mov	rdx, QWORD PTR v_ptr$[rbp]
	add	rdx, rcx
	mov	rcx, rdx
	mov	QWORD PTR [rsp+32], rax
	mov	r9d, DWORD PTR q_$[rbp]
	mov	r8, rcx
	lea	rdx, QWORD PTR k$[rbp]
	movzx	ecx, BYTE PTR c$[rbp]
	call	_MULTIPLYX_DIGIT_UNIT_DIV
	mov	BYTE PTR c$[rbp], al

; 635  :         c = _MULTIPLYX_DIGIT_UNIT_DIV(c, &k, &v_ptr[22], q_, &u_ptr[22]);

	mov	eax, 4
	imul	rax, rax, 22
	mov	rcx, QWORD PTR u_ptr$[rbp]
	add	rcx, rax
	mov	rax, rcx
	mov	ecx, 4
	imul	rcx, rcx, 22
	mov	rdx, QWORD PTR v_ptr$[rbp]
	add	rdx, rcx
	mov	rcx, rdx
	mov	QWORD PTR [rsp+32], rax
	mov	r9d, DWORD PTR q_$[rbp]
	mov	r8, rcx
	lea	rdx, QWORD PTR k$[rbp]
	movzx	ecx, BYTE PTR c$[rbp]
	call	_MULTIPLYX_DIGIT_UNIT_DIV
	mov	BYTE PTR c$[rbp], al

; 636  :         c = _MULTIPLYX_DIGIT_UNIT_DIV(c, &k, &v_ptr[23], q_, &u_ptr[23]);

	mov	eax, 4
	imul	rax, rax, 23
	mov	rcx, QWORD PTR u_ptr$[rbp]
	add	rcx, rax
	mov	rax, rcx
	mov	ecx, 4
	imul	rcx, rcx, 23
	mov	rdx, QWORD PTR v_ptr$[rbp]
	add	rdx, rcx
	mov	rcx, rdx
	mov	QWORD PTR [rsp+32], rax
	mov	r9d, DWORD PTR q_$[rbp]
	mov	r8, rcx
	lea	rdx, QWORD PTR k$[rbp]
	movzx	ecx, BYTE PTR c$[rbp]
	call	_MULTIPLYX_DIGIT_UNIT_DIV
	mov	BYTE PTR c$[rbp], al

; 637  :         c = _MULTIPLYX_DIGIT_UNIT_DIV(c, &k, &v_ptr[24], q_, &u_ptr[24]);

	mov	eax, 4
	imul	rax, rax, 24
	mov	rcx, QWORD PTR u_ptr$[rbp]
	add	rcx, rax
	mov	rax, rcx
	mov	ecx, 4
	imul	rcx, rcx, 24
	mov	rdx, QWORD PTR v_ptr$[rbp]
	add	rdx, rcx
	mov	rcx, rdx
	mov	QWORD PTR [rsp+32], rax
	mov	r9d, DWORD PTR q_$[rbp]
	mov	r8, rcx
	lea	rdx, QWORD PTR k$[rbp]
	movzx	ecx, BYTE PTR c$[rbp]
	call	_MULTIPLYX_DIGIT_UNIT_DIV
	mov	BYTE PTR c$[rbp], al

; 638  :         c = _MULTIPLYX_DIGIT_UNIT_DIV(c, &k, &v_ptr[25], q_, &u_ptr[25]);

	mov	eax, 4
	imul	rax, rax, 25
	mov	rcx, QWORD PTR u_ptr$[rbp]
	add	rcx, rax
	mov	rax, rcx
	mov	ecx, 4
	imul	rcx, rcx, 25
	mov	rdx, QWORD PTR v_ptr$[rbp]
	add	rdx, rcx
	mov	rcx, rdx
	mov	QWORD PTR [rsp+32], rax
	mov	r9d, DWORD PTR q_$[rbp]
	mov	r8, rcx
	lea	rdx, QWORD PTR k$[rbp]
	movzx	ecx, BYTE PTR c$[rbp]
	call	_MULTIPLYX_DIGIT_UNIT_DIV
	mov	BYTE PTR c$[rbp], al

; 639  :         c = _MULTIPLYX_DIGIT_UNIT_DIV(c, &k, &v_ptr[26], q_, &u_ptr[26]);

	mov	eax, 4
	imul	rax, rax, 26
	mov	rcx, QWORD PTR u_ptr$[rbp]
	add	rcx, rax
	mov	rax, rcx
	mov	ecx, 4
	imul	rcx, rcx, 26
	mov	rdx, QWORD PTR v_ptr$[rbp]
	add	rdx, rcx
	mov	rcx, rdx
	mov	QWORD PTR [rsp+32], rax
	mov	r9d, DWORD PTR q_$[rbp]
	mov	r8, rcx
	lea	rdx, QWORD PTR k$[rbp]
	movzx	ecx, BYTE PTR c$[rbp]
	call	_MULTIPLYX_DIGIT_UNIT_DIV
	mov	BYTE PTR c$[rbp], al

; 640  :         c = _MULTIPLYX_DIGIT_UNIT_DIV(c, &k, &v_ptr[27], q_, &u_ptr[27]);

	mov	eax, 4
	imul	rax, rax, 27
	mov	rcx, QWORD PTR u_ptr$[rbp]
	add	rcx, rax
	mov	rax, rcx
	mov	ecx, 4
	imul	rcx, rcx, 27
	mov	rdx, QWORD PTR v_ptr$[rbp]
	add	rdx, rcx
	mov	rcx, rdx
	mov	QWORD PTR [rsp+32], rax
	mov	r9d, DWORD PTR q_$[rbp]
	mov	r8, rcx
	lea	rdx, QWORD PTR k$[rbp]
	movzx	ecx, BYTE PTR c$[rbp]
	call	_MULTIPLYX_DIGIT_UNIT_DIV
	mov	BYTE PTR c$[rbp], al

; 641  :         c = _MULTIPLYX_DIGIT_UNIT_DIV(c, &k, &v_ptr[28], q_, &u_ptr[28]);

	mov	eax, 4
	imul	rax, rax, 28
	mov	rcx, QWORD PTR u_ptr$[rbp]
	add	rcx, rax
	mov	rax, rcx
	mov	ecx, 4
	imul	rcx, rcx, 28
	mov	rdx, QWORD PTR v_ptr$[rbp]
	add	rdx, rcx
	mov	rcx, rdx
	mov	QWORD PTR [rsp+32], rax
	mov	r9d, DWORD PTR q_$[rbp]
	mov	r8, rcx
	lea	rdx, QWORD PTR k$[rbp]
	movzx	ecx, BYTE PTR c$[rbp]
	call	_MULTIPLYX_DIGIT_UNIT_DIV
	mov	BYTE PTR c$[rbp], al

; 642  :         c = _MULTIPLYX_DIGIT_UNIT_DIV(c, &k, &v_ptr[29], q_, &u_ptr[29]);

	mov	eax, 4
	imul	rax, rax, 29
	mov	rcx, QWORD PTR u_ptr$[rbp]
	add	rcx, rax
	mov	rax, rcx
	mov	ecx, 4
	imul	rcx, rcx, 29
	mov	rdx, QWORD PTR v_ptr$[rbp]
	add	rdx, rcx
	mov	rcx, rdx
	mov	QWORD PTR [rsp+32], rax
	mov	r9d, DWORD PTR q_$[rbp]
	mov	r8, rcx
	lea	rdx, QWORD PTR k$[rbp]
	movzx	ecx, BYTE PTR c$[rbp]
	call	_MULTIPLYX_DIGIT_UNIT_DIV
	mov	BYTE PTR c$[rbp], al

; 643  :         c = _MULTIPLYX_DIGIT_UNIT_DIV(c, &k, &v_ptr[30], q_, &u_ptr[30]);

	mov	eax, 4
	imul	rax, rax, 30
	mov	rcx, QWORD PTR u_ptr$[rbp]
	add	rcx, rax
	mov	rax, rcx
	mov	ecx, 4
	imul	rcx, rcx, 30
	mov	rdx, QWORD PTR v_ptr$[rbp]
	add	rdx, rcx
	mov	rcx, rdx
	mov	QWORD PTR [rsp+32], rax
	mov	r9d, DWORD PTR q_$[rbp]
	mov	r8, rcx
	lea	rdx, QWORD PTR k$[rbp]
	movzx	ecx, BYTE PTR c$[rbp]
	call	_MULTIPLYX_DIGIT_UNIT_DIV
	mov	BYTE PTR c$[rbp], al

; 644  :         c = _MULTIPLYX_DIGIT_UNIT_DIV(c, &k, &v_ptr[31], q_, &u_ptr[31]);

	mov	eax, 4
	imul	rax, rax, 31
	mov	rcx, QWORD PTR u_ptr$[rbp]
	add	rcx, rax
	mov	rax, rcx
	mov	ecx, 4
	imul	rcx, rcx, 31
	mov	rdx, QWORD PTR v_ptr$[rbp]
	add	rdx, rcx
	mov	rcx, rdx
	mov	QWORD PTR [rsp+32], rax
	mov	r9d, DWORD PTR q_$[rbp]
	mov	r8, rcx
	lea	rdx, QWORD PTR k$[rbp]
	movzx	ecx, BYTE PTR c$[rbp]
	call	_MULTIPLYX_DIGIT_UNIT_DIV
	mov	BYTE PTR c$[rbp], al

; 645  :         u_ptr += 32;

	mov	rax, QWORD PTR u_ptr$[rbp]
	add	rax, 128				; 00000080H
	mov	QWORD PTR u_ptr$[rbp], rax

; 646  :         v_ptr += 32;

	mov	rax, QWORD PTR v_ptr$[rbp]
	add	rax, 128				; 00000080H
	mov	QWORD PTR v_ptr$[rbp], rax

; 647  :         --count;

	mov	rax, QWORD PTR count$[rbp]
	dec	rax
	mov	QWORD PTR count$[rbp], rax

; 648  : #ifdef ENABLED_PERFORMANCE_COUNTER
; 649  :         if (sizeof(k) == sizeof(_UINT64_T))

	xor	eax, eax
	test	eax, eax
	je	SHORT $LN4@SubtructOn

; 650  :             AddToMULTI64Counter(32);

	mov	ecx, 32					; 00000020H
	call	AddToMULTI64Counter
	jmp	SHORT $LN5@SubtructOn
$LN4@SubtructOn:

; 651  :         else
; 652  :             AddToMULTI32Counter(32);

	mov	ecx, 32					; 00000020H
	call	AddToMULTI32Counter
$LN5@SubtructOn:

; 653  : #endif
; 654  :     }

	jmp	$LN2@SubtructOn
$LN3@SubtructOn:

; 655  : 
; 656  :     if (v_count & 0x10)

	mov	rax, QWORD PTR v_count$[rbp]
	and	rax, 16
	test	rax, rax
	je	$LN6@SubtructOn

; 657  :     {
; 658  :         c = _MULTIPLYX_DIGIT_UNIT_DIV(c, &k, &v_ptr[0], q_, &u_ptr[0]);

	mov	eax, 4
	imul	rax, rax, 0
	mov	rcx, QWORD PTR u_ptr$[rbp]
	add	rcx, rax
	mov	rax, rcx
	mov	ecx, 4
	imul	rcx, rcx, 0
	mov	rdx, QWORD PTR v_ptr$[rbp]
	add	rdx, rcx
	mov	rcx, rdx
	mov	QWORD PTR [rsp+32], rax
	mov	r9d, DWORD PTR q_$[rbp]
	mov	r8, rcx
	lea	rdx, QWORD PTR k$[rbp]
	movzx	ecx, BYTE PTR c$[rbp]
	call	_MULTIPLYX_DIGIT_UNIT_DIV
	mov	BYTE PTR c$[rbp], al

; 659  :         c = _MULTIPLYX_DIGIT_UNIT_DIV(c, &k, &v_ptr[1], q_, &u_ptr[1]);

	mov	eax, 4
	imul	rax, rax, 1
	mov	rcx, QWORD PTR u_ptr$[rbp]
	add	rcx, rax
	mov	rax, rcx
	mov	ecx, 4
	imul	rcx, rcx, 1
	mov	rdx, QWORD PTR v_ptr$[rbp]
	add	rdx, rcx
	mov	rcx, rdx
	mov	QWORD PTR [rsp+32], rax
	mov	r9d, DWORD PTR q_$[rbp]
	mov	r8, rcx
	lea	rdx, QWORD PTR k$[rbp]
	movzx	ecx, BYTE PTR c$[rbp]
	call	_MULTIPLYX_DIGIT_UNIT_DIV
	mov	BYTE PTR c$[rbp], al

; 660  :         c = _MULTIPLYX_DIGIT_UNIT_DIV(c, &k, &v_ptr[2], q_, &u_ptr[2]);

	mov	eax, 4
	imul	rax, rax, 2
	mov	rcx, QWORD PTR u_ptr$[rbp]
	add	rcx, rax
	mov	rax, rcx
	mov	ecx, 4
	imul	rcx, rcx, 2
	mov	rdx, QWORD PTR v_ptr$[rbp]
	add	rdx, rcx
	mov	rcx, rdx
	mov	QWORD PTR [rsp+32], rax
	mov	r9d, DWORD PTR q_$[rbp]
	mov	r8, rcx
	lea	rdx, QWORD PTR k$[rbp]
	movzx	ecx, BYTE PTR c$[rbp]
	call	_MULTIPLYX_DIGIT_UNIT_DIV
	mov	BYTE PTR c$[rbp], al

; 661  :         c = _MULTIPLYX_DIGIT_UNIT_DIV(c, &k, &v_ptr[3], q_, &u_ptr[3]);

	mov	eax, 4
	imul	rax, rax, 3
	mov	rcx, QWORD PTR u_ptr$[rbp]
	add	rcx, rax
	mov	rax, rcx
	mov	ecx, 4
	imul	rcx, rcx, 3
	mov	rdx, QWORD PTR v_ptr$[rbp]
	add	rdx, rcx
	mov	rcx, rdx
	mov	QWORD PTR [rsp+32], rax
	mov	r9d, DWORD PTR q_$[rbp]
	mov	r8, rcx
	lea	rdx, QWORD PTR k$[rbp]
	movzx	ecx, BYTE PTR c$[rbp]
	call	_MULTIPLYX_DIGIT_UNIT_DIV
	mov	BYTE PTR c$[rbp], al

; 662  :         c = _MULTIPLYX_DIGIT_UNIT_DIV(c, &k, &v_ptr[4], q_, &u_ptr[4]);

	mov	eax, 4
	imul	rax, rax, 4
	mov	rcx, QWORD PTR u_ptr$[rbp]
	add	rcx, rax
	mov	rax, rcx
	mov	ecx, 4
	imul	rcx, rcx, 4
	mov	rdx, QWORD PTR v_ptr$[rbp]
	add	rdx, rcx
	mov	rcx, rdx
	mov	QWORD PTR [rsp+32], rax
	mov	r9d, DWORD PTR q_$[rbp]
	mov	r8, rcx
	lea	rdx, QWORD PTR k$[rbp]
	movzx	ecx, BYTE PTR c$[rbp]
	call	_MULTIPLYX_DIGIT_UNIT_DIV
	mov	BYTE PTR c$[rbp], al

; 663  :         c = _MULTIPLYX_DIGIT_UNIT_DIV(c, &k, &v_ptr[5], q_, &u_ptr[5]);

	mov	eax, 4
	imul	rax, rax, 5
	mov	rcx, QWORD PTR u_ptr$[rbp]
	add	rcx, rax
	mov	rax, rcx
	mov	ecx, 4
	imul	rcx, rcx, 5
	mov	rdx, QWORD PTR v_ptr$[rbp]
	add	rdx, rcx
	mov	rcx, rdx
	mov	QWORD PTR [rsp+32], rax
	mov	r9d, DWORD PTR q_$[rbp]
	mov	r8, rcx
	lea	rdx, QWORD PTR k$[rbp]
	movzx	ecx, BYTE PTR c$[rbp]
	call	_MULTIPLYX_DIGIT_UNIT_DIV
	mov	BYTE PTR c$[rbp], al

; 664  :         c = _MULTIPLYX_DIGIT_UNIT_DIV(c, &k, &v_ptr[6], q_, &u_ptr[6]);

	mov	eax, 4
	imul	rax, rax, 6
	mov	rcx, QWORD PTR u_ptr$[rbp]
	add	rcx, rax
	mov	rax, rcx
	mov	ecx, 4
	imul	rcx, rcx, 6
	mov	rdx, QWORD PTR v_ptr$[rbp]
	add	rdx, rcx
	mov	rcx, rdx
	mov	QWORD PTR [rsp+32], rax
	mov	r9d, DWORD PTR q_$[rbp]
	mov	r8, rcx
	lea	rdx, QWORD PTR k$[rbp]
	movzx	ecx, BYTE PTR c$[rbp]
	call	_MULTIPLYX_DIGIT_UNIT_DIV
	mov	BYTE PTR c$[rbp], al

; 665  :         c = _MULTIPLYX_DIGIT_UNIT_DIV(c, &k, &v_ptr[7], q_, &u_ptr[7]);

	mov	eax, 4
	imul	rax, rax, 7
	mov	rcx, QWORD PTR u_ptr$[rbp]
	add	rcx, rax
	mov	rax, rcx
	mov	ecx, 4
	imul	rcx, rcx, 7
	mov	rdx, QWORD PTR v_ptr$[rbp]
	add	rdx, rcx
	mov	rcx, rdx
	mov	QWORD PTR [rsp+32], rax
	mov	r9d, DWORD PTR q_$[rbp]
	mov	r8, rcx
	lea	rdx, QWORD PTR k$[rbp]
	movzx	ecx, BYTE PTR c$[rbp]
	call	_MULTIPLYX_DIGIT_UNIT_DIV
	mov	BYTE PTR c$[rbp], al

; 666  :         c = _MULTIPLYX_DIGIT_UNIT_DIV(c, &k, &v_ptr[8], q_, &u_ptr[8]);

	mov	eax, 4
	imul	rax, rax, 8
	mov	rcx, QWORD PTR u_ptr$[rbp]
	add	rcx, rax
	mov	rax, rcx
	mov	ecx, 4
	imul	rcx, rcx, 8
	mov	rdx, QWORD PTR v_ptr$[rbp]
	add	rdx, rcx
	mov	rcx, rdx
	mov	QWORD PTR [rsp+32], rax
	mov	r9d, DWORD PTR q_$[rbp]
	mov	r8, rcx
	lea	rdx, QWORD PTR k$[rbp]
	movzx	ecx, BYTE PTR c$[rbp]
	call	_MULTIPLYX_DIGIT_UNIT_DIV
	mov	BYTE PTR c$[rbp], al

; 667  :         c = _MULTIPLYX_DIGIT_UNIT_DIV(c, &k, &v_ptr[9], q_, &u_ptr[9]);

	mov	eax, 4
	imul	rax, rax, 9
	mov	rcx, QWORD PTR u_ptr$[rbp]
	add	rcx, rax
	mov	rax, rcx
	mov	ecx, 4
	imul	rcx, rcx, 9
	mov	rdx, QWORD PTR v_ptr$[rbp]
	add	rdx, rcx
	mov	rcx, rdx
	mov	QWORD PTR [rsp+32], rax
	mov	r9d, DWORD PTR q_$[rbp]
	mov	r8, rcx
	lea	rdx, QWORD PTR k$[rbp]
	movzx	ecx, BYTE PTR c$[rbp]
	call	_MULTIPLYX_DIGIT_UNIT_DIV
	mov	BYTE PTR c$[rbp], al

; 668  :         c = _MULTIPLYX_DIGIT_UNIT_DIV(c, &k, &v_ptr[10], q_, &u_ptr[10]);

	mov	eax, 4
	imul	rax, rax, 10
	mov	rcx, QWORD PTR u_ptr$[rbp]
	add	rcx, rax
	mov	rax, rcx
	mov	ecx, 4
	imul	rcx, rcx, 10
	mov	rdx, QWORD PTR v_ptr$[rbp]
	add	rdx, rcx
	mov	rcx, rdx
	mov	QWORD PTR [rsp+32], rax
	mov	r9d, DWORD PTR q_$[rbp]
	mov	r8, rcx
	lea	rdx, QWORD PTR k$[rbp]
	movzx	ecx, BYTE PTR c$[rbp]
	call	_MULTIPLYX_DIGIT_UNIT_DIV
	mov	BYTE PTR c$[rbp], al

; 669  :         c = _MULTIPLYX_DIGIT_UNIT_DIV(c, &k, &v_ptr[11], q_, &u_ptr[11]);

	mov	eax, 4
	imul	rax, rax, 11
	mov	rcx, QWORD PTR u_ptr$[rbp]
	add	rcx, rax
	mov	rax, rcx
	mov	ecx, 4
	imul	rcx, rcx, 11
	mov	rdx, QWORD PTR v_ptr$[rbp]
	add	rdx, rcx
	mov	rcx, rdx
	mov	QWORD PTR [rsp+32], rax
	mov	r9d, DWORD PTR q_$[rbp]
	mov	r8, rcx
	lea	rdx, QWORD PTR k$[rbp]
	movzx	ecx, BYTE PTR c$[rbp]
	call	_MULTIPLYX_DIGIT_UNIT_DIV
	mov	BYTE PTR c$[rbp], al

; 670  :         c = _MULTIPLYX_DIGIT_UNIT_DIV(c, &k, &v_ptr[12], q_, &u_ptr[12]);

	mov	eax, 4
	imul	rax, rax, 12
	mov	rcx, QWORD PTR u_ptr$[rbp]
	add	rcx, rax
	mov	rax, rcx
	mov	ecx, 4
	imul	rcx, rcx, 12
	mov	rdx, QWORD PTR v_ptr$[rbp]
	add	rdx, rcx
	mov	rcx, rdx
	mov	QWORD PTR [rsp+32], rax
	mov	r9d, DWORD PTR q_$[rbp]
	mov	r8, rcx
	lea	rdx, QWORD PTR k$[rbp]
	movzx	ecx, BYTE PTR c$[rbp]
	call	_MULTIPLYX_DIGIT_UNIT_DIV
	mov	BYTE PTR c$[rbp], al

; 671  :         c = _MULTIPLYX_DIGIT_UNIT_DIV(c, &k, &v_ptr[13], q_, &u_ptr[13]);

	mov	eax, 4
	imul	rax, rax, 13
	mov	rcx, QWORD PTR u_ptr$[rbp]
	add	rcx, rax
	mov	rax, rcx
	mov	ecx, 4
	imul	rcx, rcx, 13
	mov	rdx, QWORD PTR v_ptr$[rbp]
	add	rdx, rcx
	mov	rcx, rdx
	mov	QWORD PTR [rsp+32], rax
	mov	r9d, DWORD PTR q_$[rbp]
	mov	r8, rcx
	lea	rdx, QWORD PTR k$[rbp]
	movzx	ecx, BYTE PTR c$[rbp]
	call	_MULTIPLYX_DIGIT_UNIT_DIV
	mov	BYTE PTR c$[rbp], al

; 672  :         c = _MULTIPLYX_DIGIT_UNIT_DIV(c, &k, &v_ptr[14], q_, &u_ptr[14]);

	mov	eax, 4
	imul	rax, rax, 14
	mov	rcx, QWORD PTR u_ptr$[rbp]
	add	rcx, rax
	mov	rax, rcx
	mov	ecx, 4
	imul	rcx, rcx, 14
	mov	rdx, QWORD PTR v_ptr$[rbp]
	add	rdx, rcx
	mov	rcx, rdx
	mov	QWORD PTR [rsp+32], rax
	mov	r9d, DWORD PTR q_$[rbp]
	mov	r8, rcx
	lea	rdx, QWORD PTR k$[rbp]
	movzx	ecx, BYTE PTR c$[rbp]
	call	_MULTIPLYX_DIGIT_UNIT_DIV
	mov	BYTE PTR c$[rbp], al

; 673  :         c = _MULTIPLYX_DIGIT_UNIT_DIV(c, &k, &v_ptr[15], q_, &u_ptr[15]);

	mov	eax, 4
	imul	rax, rax, 15
	mov	rcx, QWORD PTR u_ptr$[rbp]
	add	rcx, rax
	mov	rax, rcx
	mov	ecx, 4
	imul	rcx, rcx, 15
	mov	rdx, QWORD PTR v_ptr$[rbp]
	add	rdx, rcx
	mov	rcx, rdx
	mov	QWORD PTR [rsp+32], rax
	mov	r9d, DWORD PTR q_$[rbp]
	mov	r8, rcx
	lea	rdx, QWORD PTR k$[rbp]
	movzx	ecx, BYTE PTR c$[rbp]
	call	_MULTIPLYX_DIGIT_UNIT_DIV
	mov	BYTE PTR c$[rbp], al

; 674  :         u_ptr += 16;

	mov	rax, QWORD PTR u_ptr$[rbp]
	add	rax, 64					; 00000040H
	mov	QWORD PTR u_ptr$[rbp], rax

; 675  :         v_ptr += 16;

	mov	rax, QWORD PTR v_ptr$[rbp]
	add	rax, 64					; 00000040H
	mov	QWORD PTR v_ptr$[rbp], rax

; 676  : #ifdef ENABLED_PERFORMANCE_COUNTER
; 677  :         if (sizeof(k) == sizeof(_UINT64_T))

	xor	eax, eax
	test	eax, eax
	je	SHORT $LN7@SubtructOn

; 678  :             AddToMULTI64Counter(16);

	mov	ecx, 16
	call	AddToMULTI64Counter
	jmp	SHORT $LN8@SubtructOn
$LN7@SubtructOn:

; 679  :         else
; 680  :             AddToMULTI32Counter(16);

	mov	ecx, 16
	call	AddToMULTI32Counter
$LN8@SubtructOn:
$LN6@SubtructOn:

; 681  : #endif
; 682  :     }
; 683  : 
; 684  :     if (v_count & 0x8)

	mov	rax, QWORD PTR v_count$[rbp]
	and	rax, 8
	test	rax, rax
	je	$LN9@SubtructOn

; 685  :     {
; 686  :         c = _MULTIPLYX_DIGIT_UNIT_DIV(c, &k, &v_ptr[0], q_, &u_ptr[0]);

	mov	eax, 4
	imul	rax, rax, 0
	mov	rcx, QWORD PTR u_ptr$[rbp]
	add	rcx, rax
	mov	rax, rcx
	mov	ecx, 4
	imul	rcx, rcx, 0
	mov	rdx, QWORD PTR v_ptr$[rbp]
	add	rdx, rcx
	mov	rcx, rdx
	mov	QWORD PTR [rsp+32], rax
	mov	r9d, DWORD PTR q_$[rbp]
	mov	r8, rcx
	lea	rdx, QWORD PTR k$[rbp]
	movzx	ecx, BYTE PTR c$[rbp]
	call	_MULTIPLYX_DIGIT_UNIT_DIV
	mov	BYTE PTR c$[rbp], al

; 687  :         c = _MULTIPLYX_DIGIT_UNIT_DIV(c, &k, &v_ptr[1], q_, &u_ptr[1]);

	mov	eax, 4
	imul	rax, rax, 1
	mov	rcx, QWORD PTR u_ptr$[rbp]
	add	rcx, rax
	mov	rax, rcx
	mov	ecx, 4
	imul	rcx, rcx, 1
	mov	rdx, QWORD PTR v_ptr$[rbp]
	add	rdx, rcx
	mov	rcx, rdx
	mov	QWORD PTR [rsp+32], rax
	mov	r9d, DWORD PTR q_$[rbp]
	mov	r8, rcx
	lea	rdx, QWORD PTR k$[rbp]
	movzx	ecx, BYTE PTR c$[rbp]
	call	_MULTIPLYX_DIGIT_UNIT_DIV
	mov	BYTE PTR c$[rbp], al

; 688  :         c = _MULTIPLYX_DIGIT_UNIT_DIV(c, &k, &v_ptr[2], q_, &u_ptr[2]);

	mov	eax, 4
	imul	rax, rax, 2
	mov	rcx, QWORD PTR u_ptr$[rbp]
	add	rcx, rax
	mov	rax, rcx
	mov	ecx, 4
	imul	rcx, rcx, 2
	mov	rdx, QWORD PTR v_ptr$[rbp]
	add	rdx, rcx
	mov	rcx, rdx
	mov	QWORD PTR [rsp+32], rax
	mov	r9d, DWORD PTR q_$[rbp]
	mov	r8, rcx
	lea	rdx, QWORD PTR k$[rbp]
	movzx	ecx, BYTE PTR c$[rbp]
	call	_MULTIPLYX_DIGIT_UNIT_DIV
	mov	BYTE PTR c$[rbp], al

; 689  :         c = _MULTIPLYX_DIGIT_UNIT_DIV(c, &k, &v_ptr[3], q_, &u_ptr[3]);

	mov	eax, 4
	imul	rax, rax, 3
	mov	rcx, QWORD PTR u_ptr$[rbp]
	add	rcx, rax
	mov	rax, rcx
	mov	ecx, 4
	imul	rcx, rcx, 3
	mov	rdx, QWORD PTR v_ptr$[rbp]
	add	rdx, rcx
	mov	rcx, rdx
	mov	QWORD PTR [rsp+32], rax
	mov	r9d, DWORD PTR q_$[rbp]
	mov	r8, rcx
	lea	rdx, QWORD PTR k$[rbp]
	movzx	ecx, BYTE PTR c$[rbp]
	call	_MULTIPLYX_DIGIT_UNIT_DIV
	mov	BYTE PTR c$[rbp], al

; 690  :         c = _MULTIPLYX_DIGIT_UNIT_DIV(c, &k, &v_ptr[4], q_, &u_ptr[4]);

	mov	eax, 4
	imul	rax, rax, 4
	mov	rcx, QWORD PTR u_ptr$[rbp]
	add	rcx, rax
	mov	rax, rcx
	mov	ecx, 4
	imul	rcx, rcx, 4
	mov	rdx, QWORD PTR v_ptr$[rbp]
	add	rdx, rcx
	mov	rcx, rdx
	mov	QWORD PTR [rsp+32], rax
	mov	r9d, DWORD PTR q_$[rbp]
	mov	r8, rcx
	lea	rdx, QWORD PTR k$[rbp]
	movzx	ecx, BYTE PTR c$[rbp]
	call	_MULTIPLYX_DIGIT_UNIT_DIV
	mov	BYTE PTR c$[rbp], al

; 691  :         c = _MULTIPLYX_DIGIT_UNIT_DIV(c, &k, &v_ptr[5], q_, &u_ptr[5]);

	mov	eax, 4
	imul	rax, rax, 5
	mov	rcx, QWORD PTR u_ptr$[rbp]
	add	rcx, rax
	mov	rax, rcx
	mov	ecx, 4
	imul	rcx, rcx, 5
	mov	rdx, QWORD PTR v_ptr$[rbp]
	add	rdx, rcx
	mov	rcx, rdx
	mov	QWORD PTR [rsp+32], rax
	mov	r9d, DWORD PTR q_$[rbp]
	mov	r8, rcx
	lea	rdx, QWORD PTR k$[rbp]
	movzx	ecx, BYTE PTR c$[rbp]
	call	_MULTIPLYX_DIGIT_UNIT_DIV
	mov	BYTE PTR c$[rbp], al

; 692  :         c = _MULTIPLYX_DIGIT_UNIT_DIV(c, &k, &v_ptr[6], q_, &u_ptr[6]);

	mov	eax, 4
	imul	rax, rax, 6
	mov	rcx, QWORD PTR u_ptr$[rbp]
	add	rcx, rax
	mov	rax, rcx
	mov	ecx, 4
	imul	rcx, rcx, 6
	mov	rdx, QWORD PTR v_ptr$[rbp]
	add	rdx, rcx
	mov	rcx, rdx
	mov	QWORD PTR [rsp+32], rax
	mov	r9d, DWORD PTR q_$[rbp]
	mov	r8, rcx
	lea	rdx, QWORD PTR k$[rbp]
	movzx	ecx, BYTE PTR c$[rbp]
	call	_MULTIPLYX_DIGIT_UNIT_DIV
	mov	BYTE PTR c$[rbp], al

; 693  :         c = _MULTIPLYX_DIGIT_UNIT_DIV(c, &k, &v_ptr[7], q_, &u_ptr[7]);

	mov	eax, 4
	imul	rax, rax, 7
	mov	rcx, QWORD PTR u_ptr$[rbp]
	add	rcx, rax
	mov	rax, rcx
	mov	ecx, 4
	imul	rcx, rcx, 7
	mov	rdx, QWORD PTR v_ptr$[rbp]
	add	rdx, rcx
	mov	rcx, rdx
	mov	QWORD PTR [rsp+32], rax
	mov	r9d, DWORD PTR q_$[rbp]
	mov	r8, rcx
	lea	rdx, QWORD PTR k$[rbp]
	movzx	ecx, BYTE PTR c$[rbp]
	call	_MULTIPLYX_DIGIT_UNIT_DIV
	mov	BYTE PTR c$[rbp], al

; 694  :         u_ptr += 8;

	mov	rax, QWORD PTR u_ptr$[rbp]
	add	rax, 32					; 00000020H
	mov	QWORD PTR u_ptr$[rbp], rax

; 695  :         v_ptr += 8;

	mov	rax, QWORD PTR v_ptr$[rbp]
	add	rax, 32					; 00000020H
	mov	QWORD PTR v_ptr$[rbp], rax

; 696  : #ifdef ENABLED_PERFORMANCE_COUNTER
; 697  :         if (sizeof(k) == sizeof(_UINT64_T))

	xor	eax, eax
	test	eax, eax
	je	SHORT $LN10@SubtructOn

; 698  :             AddToMULTI64Counter(8);

	mov	ecx, 8
	call	AddToMULTI64Counter
	jmp	SHORT $LN11@SubtructOn
$LN10@SubtructOn:

; 699  :         else
; 700  :             AddToMULTI32Counter(8);

	mov	ecx, 8
	call	AddToMULTI32Counter
$LN11@SubtructOn:
$LN9@SubtructOn:

; 701  : #endif
; 702  :     }
; 703  : 
; 704  :     if (v_count & 0x4)

	mov	rax, QWORD PTR v_count$[rbp]
	and	rax, 4
	test	rax, rax
	je	$LN12@SubtructOn

; 705  :     {
; 706  :         c = _MULTIPLYX_DIGIT_UNIT_DIV(c, &k, &v_ptr[0], q_, &u_ptr[0]);

	mov	eax, 4
	imul	rax, rax, 0
	mov	rcx, QWORD PTR u_ptr$[rbp]
	add	rcx, rax
	mov	rax, rcx
	mov	ecx, 4
	imul	rcx, rcx, 0
	mov	rdx, QWORD PTR v_ptr$[rbp]
	add	rdx, rcx
	mov	rcx, rdx
	mov	QWORD PTR [rsp+32], rax
	mov	r9d, DWORD PTR q_$[rbp]
	mov	r8, rcx
	lea	rdx, QWORD PTR k$[rbp]
	movzx	ecx, BYTE PTR c$[rbp]
	call	_MULTIPLYX_DIGIT_UNIT_DIV
	mov	BYTE PTR c$[rbp], al

; 707  :         c = _MULTIPLYX_DIGIT_UNIT_DIV(c, &k, &v_ptr[1], q_, &u_ptr[1]);

	mov	eax, 4
	imul	rax, rax, 1
	mov	rcx, QWORD PTR u_ptr$[rbp]
	add	rcx, rax
	mov	rax, rcx
	mov	ecx, 4
	imul	rcx, rcx, 1
	mov	rdx, QWORD PTR v_ptr$[rbp]
	add	rdx, rcx
	mov	rcx, rdx
	mov	QWORD PTR [rsp+32], rax
	mov	r9d, DWORD PTR q_$[rbp]
	mov	r8, rcx
	lea	rdx, QWORD PTR k$[rbp]
	movzx	ecx, BYTE PTR c$[rbp]
	call	_MULTIPLYX_DIGIT_UNIT_DIV
	mov	BYTE PTR c$[rbp], al

; 708  :         c = _MULTIPLYX_DIGIT_UNIT_DIV(c, &k, &v_ptr[2], q_, &u_ptr[2]);

	mov	eax, 4
	imul	rax, rax, 2
	mov	rcx, QWORD PTR u_ptr$[rbp]
	add	rcx, rax
	mov	rax, rcx
	mov	ecx, 4
	imul	rcx, rcx, 2
	mov	rdx, QWORD PTR v_ptr$[rbp]
	add	rdx, rcx
	mov	rcx, rdx
	mov	QWORD PTR [rsp+32], rax
	mov	r9d, DWORD PTR q_$[rbp]
	mov	r8, rcx
	lea	rdx, QWORD PTR k$[rbp]
	movzx	ecx, BYTE PTR c$[rbp]
	call	_MULTIPLYX_DIGIT_UNIT_DIV
	mov	BYTE PTR c$[rbp], al

; 709  :         c = _MULTIPLYX_DIGIT_UNIT_DIV(c, &k, &v_ptr[3], q_, &u_ptr[3]);

	mov	eax, 4
	imul	rax, rax, 3
	mov	rcx, QWORD PTR u_ptr$[rbp]
	add	rcx, rax
	mov	rax, rcx
	mov	ecx, 4
	imul	rcx, rcx, 3
	mov	rdx, QWORD PTR v_ptr$[rbp]
	add	rdx, rcx
	mov	rcx, rdx
	mov	QWORD PTR [rsp+32], rax
	mov	r9d, DWORD PTR q_$[rbp]
	mov	r8, rcx
	lea	rdx, QWORD PTR k$[rbp]
	movzx	ecx, BYTE PTR c$[rbp]
	call	_MULTIPLYX_DIGIT_UNIT_DIV
	mov	BYTE PTR c$[rbp], al

; 710  :         u_ptr += 4;

	mov	rax, QWORD PTR u_ptr$[rbp]
	add	rax, 16
	mov	QWORD PTR u_ptr$[rbp], rax

; 711  :         v_ptr += 4;

	mov	rax, QWORD PTR v_ptr$[rbp]
	add	rax, 16
	mov	QWORD PTR v_ptr$[rbp], rax

; 712  : #ifdef ENABLED_PERFORMANCE_COUNTER
; 713  :         if (sizeof(k) == sizeof(_UINT64_T))

	xor	eax, eax
	test	eax, eax
	je	SHORT $LN13@SubtructOn

; 714  :             AddToMULTI64Counter(4);

	mov	ecx, 4
	call	AddToMULTI64Counter
	jmp	SHORT $LN14@SubtructOn
$LN13@SubtructOn:

; 715  :         else
; 716  :             AddToMULTI32Counter(4);

	mov	ecx, 4
	call	AddToMULTI32Counter
$LN14@SubtructOn:
$LN12@SubtructOn:

; 717  : #endif
; 718  :     }
; 719  : 
; 720  :     if (v_count & 0x2)

	mov	rax, QWORD PTR v_count$[rbp]
	and	rax, 2
	test	rax, rax
	je	$LN15@SubtructOn

; 721  :     {
; 722  :         c = _MULTIPLYX_DIGIT_UNIT_DIV(c, &k, &v_ptr[0], q_, &u_ptr[0]);

	mov	eax, 4
	imul	rax, rax, 0
	mov	rcx, QWORD PTR u_ptr$[rbp]
	add	rcx, rax
	mov	rax, rcx
	mov	ecx, 4
	imul	rcx, rcx, 0
	mov	rdx, QWORD PTR v_ptr$[rbp]
	add	rdx, rcx
	mov	rcx, rdx
	mov	QWORD PTR [rsp+32], rax
	mov	r9d, DWORD PTR q_$[rbp]
	mov	r8, rcx
	lea	rdx, QWORD PTR k$[rbp]
	movzx	ecx, BYTE PTR c$[rbp]
	call	_MULTIPLYX_DIGIT_UNIT_DIV
	mov	BYTE PTR c$[rbp], al

; 723  :         c = _MULTIPLYX_DIGIT_UNIT_DIV(c, &k, &v_ptr[1], q_, &u_ptr[1]);

	mov	eax, 4
	imul	rax, rax, 1
	mov	rcx, QWORD PTR u_ptr$[rbp]
	add	rcx, rax
	mov	rax, rcx
	mov	ecx, 4
	imul	rcx, rcx, 1
	mov	rdx, QWORD PTR v_ptr$[rbp]
	add	rdx, rcx
	mov	rcx, rdx
	mov	QWORD PTR [rsp+32], rax
	mov	r9d, DWORD PTR q_$[rbp]
	mov	r8, rcx
	lea	rdx, QWORD PTR k$[rbp]
	movzx	ecx, BYTE PTR c$[rbp]
	call	_MULTIPLYX_DIGIT_UNIT_DIV
	mov	BYTE PTR c$[rbp], al

; 724  :         u_ptr += 2;

	mov	rax, QWORD PTR u_ptr$[rbp]
	add	rax, 8
	mov	QWORD PTR u_ptr$[rbp], rax

; 725  :         v_ptr += 2;

	mov	rax, QWORD PTR v_ptr$[rbp]
	add	rax, 8
	mov	QWORD PTR v_ptr$[rbp], rax

; 726  : #ifdef ENABLED_PERFORMANCE_COUNTER
; 727  :         if (sizeof(k) == sizeof(_UINT64_T))

	xor	eax, eax
	test	eax, eax
	je	SHORT $LN16@SubtructOn

; 728  :             AddToMULTI64Counter(2);

	mov	ecx, 2
	call	AddToMULTI64Counter
	jmp	SHORT $LN17@SubtructOn
$LN16@SubtructOn:

; 729  :         else
; 730  :             AddToMULTI32Counter(2);

	mov	ecx, 2
	call	AddToMULTI32Counter
$LN17@SubtructOn:
$LN15@SubtructOn:

; 731  : #endif
; 732  :     }
; 733  : 
; 734  :     if (v_count & 0x1)

	mov	rax, QWORD PTR v_count$[rbp]
	and	rax, 1
	test	rax, rax
	je	SHORT $LN18@SubtructOn

; 735  :     {
; 736  :         c = _MULTIPLYX_DIGIT_UNIT_DIV(c, &k, &v_ptr[0], q_, &u_ptr[0]);

	mov	eax, 4
	imul	rax, rax, 0
	mov	rcx, QWORD PTR u_ptr$[rbp]
	add	rcx, rax
	mov	rax, rcx
	mov	ecx, 4
	imul	rcx, rcx, 0
	mov	rdx, QWORD PTR v_ptr$[rbp]
	add	rdx, rcx
	mov	rcx, rdx
	mov	QWORD PTR [rsp+32], rax
	mov	r9d, DWORD PTR q_$[rbp]
	mov	r8, rcx
	lea	rdx, QWORD PTR k$[rbp]
	movzx	ecx, BYTE PTR c$[rbp]
	call	_MULTIPLYX_DIGIT_UNIT_DIV
	mov	BYTE PTR c$[rbp], al

; 737  :         u_ptr += 1;

	mov	rax, QWORD PTR u_ptr$[rbp]
	add	rax, 4
	mov	QWORD PTR u_ptr$[rbp], rax

; 738  :         v_ptr += 1;

	mov	rax, QWORD PTR v_ptr$[rbp]
	add	rax, 4
	mov	QWORD PTR v_ptr$[rbp], rax

; 739  : #ifdef ENABLED_PERFORMANCE_COUNTER
; 740  :         if (sizeof(k) == sizeof(_UINT64_T))

	xor	eax, eax
	test	eax, eax
	je	SHORT $LN19@SubtructOn

; 741  :             IncrementMULTI64Counter();

	call	IncrementMULTI64Counter
	jmp	SHORT $LN20@SubtructOn
$LN19@SubtructOn:

; 742  :         else
; 743  :             IncrementMULTI32Counter();

	call	IncrementMULTI32Counter
$LN20@SubtructOn:
$LN18@SubtructOn:

; 744  : #endif
; 745  :     }
; 746  : 
; 747  :     c = _SUBTRUCT_UNIT_DIV(c, *u_ptr, k, u_ptr);

	mov	r9, QWORD PTR u_ptr$[rbp]
	mov	r8d, DWORD PTR k$[rbp]
	mov	rax, QWORD PTR u_ptr$[rbp]
	mov	edx, DWORD PTR [rax]
	movzx	ecx, BYTE PTR c$[rbp]
	call	_SUBTRUCT_UNIT_DIV
	mov	BYTE PTR c$[rbp], al

; 748  :     u_ptr += 1;

	mov	rax, QWORD PTR u_ptr$[rbp]
	add	rax, 4
	mov	QWORD PTR u_ptr$[rbp], rax

; 749  : 
; 750  :     return (DoBorrow(c, u_ptr, u_buf + u_buf_len + 1 - u_ptr));

	mov	rax, QWORD PTR u_buf$[rbp]
	mov	rcx, QWORD PTR u_buf_len$[rbp]
	lea	rax, QWORD PTR [rax+rcx*4+4]
	sub	rax, QWORD PTR u_ptr$[rbp]
	sar	rax, 2
	mov	r8, rax
	mov	rdx, QWORD PTR u_ptr$[rbp]
	movzx	ecx, BYTE PTR c$[rbp]
	call	DoBorrow

; 751  : }

	mov	rdi, rax
	lea	rcx, QWORD PTR [rbp-48]
	lea	rdx, OFFSET FLAT:SubtructOneLineX$rtcFrameData
	call	_RTC_CheckStackVars
	mov	rax, rdi
	lea	rsp, QWORD PTR [rbp+392]
	pop	rdi
	pop	rbp
	ret	0
SubtructOneLineX ENDP
_TEXT	ENDS
; Function compile flags: /Odtp /RTCsu /ZI
; File z:\sources\lunor\repos\rougemeilland\palmtree.math.core.implements\palmtree.math.core.implements\pmc_divrem.c
;	COMDAT SubtructOneLine
_TEXT	SEGMENT
u_ptr$ = 8
v_ptr$ = 40
v_count$ = 72
k$ = 100
c$ = 132
count$ = 168
u_buf$ = 416
u_buf_len$ = 424
v_buf$ = 432
v_buf_len$ = 440
q_index$ = 448
q_$ = 456
SubtructOneLine PROC					; COMDAT

; 452  : {

	mov	QWORD PTR [rsp+32], r9
	mov	QWORD PTR [rsp+24], r8
	mov	QWORD PTR [rsp+16], rdx
	mov	QWORD PTR [rsp+8], rcx
	push	rbp
	push	rdi
	sub	rsp, 440				; 000001b8H
	lea	rbp, QWORD PTR [rsp+48]
	mov	rdi, rsp
	mov	ecx, 110				; 0000006eH
	mov	eax, -858993460				; ccccccccH
	rep stosd
	mov	rcx, QWORD PTR [rsp+472]
	lea	rcx, OFFSET FLAT:__62F961D6_pmc_divrem@c
	call	__CheckForDebuggerJustMyCode

; 453  :     __UNIT_TYPE_DIV* u_ptr = &u_buf[q_index];

	mov	rax, QWORD PTR u_buf$[rbp]
	mov	rcx, QWORD PTR q_index$[rbp]
	lea	rax, QWORD PTR [rax+rcx*4]
	mov	QWORD PTR u_ptr$[rbp], rax

; 454  :     __UNIT_TYPE_DIV* v_ptr = &v_buf[0];

	mov	eax, 4
	imul	rax, rax, 0
	mov	rcx, QWORD PTR v_buf$[rbp]
	add	rcx, rax
	mov	rax, rcx
	mov	QWORD PTR v_ptr$[rbp], rax

; 455  :     __UNIT_TYPE v_count = v_buf_len;

	mov	rax, QWORD PTR v_buf_len$[rbp]
	mov	QWORD PTR v_count$[rbp], rax

; 456  :     __UNIT_TYPE_DIV k = 0;

	mov	DWORD PTR k$[rbp], 0

; 457  :     char c = 0;

	mov	BYTE PTR c$[rbp], 0

; 458  : 
; 459  :     __UNIT_TYPE count = v_count >> 5;

	mov	rax, QWORD PTR v_count$[rbp]
	shr	rax, 5
	mov	QWORD PTR count$[rbp], rax
$LN2@SubtructOn:

; 460  :     while (count != 0)

	cmp	QWORD PTR count$[rbp], 0
	je	$LN3@SubtructOn

; 461  :     {
; 462  :         c = _MULTIPLY_DIGIT_UNIT_DIV(c, &k, &v_ptr[0], q_, &u_ptr[0]);

	mov	eax, 4
	imul	rax, rax, 0
	mov	rcx, QWORD PTR u_ptr$[rbp]
	add	rcx, rax
	mov	rax, rcx
	mov	ecx, 4
	imul	rcx, rcx, 0
	mov	rdx, QWORD PTR v_ptr$[rbp]
	add	rdx, rcx
	mov	rcx, rdx
	mov	QWORD PTR [rsp+32], rax
	mov	r9d, DWORD PTR q_$[rbp]
	mov	r8, rcx
	lea	rdx, QWORD PTR k$[rbp]
	movzx	ecx, BYTE PTR c$[rbp]
	call	_MULTIPLY_DIGIT_UNIT_DIV
	mov	BYTE PTR c$[rbp], al

; 463  :         c = _MULTIPLY_DIGIT_UNIT_DIV(c, &k, &v_ptr[1], q_, &u_ptr[1]);

	mov	eax, 4
	imul	rax, rax, 1
	mov	rcx, QWORD PTR u_ptr$[rbp]
	add	rcx, rax
	mov	rax, rcx
	mov	ecx, 4
	imul	rcx, rcx, 1
	mov	rdx, QWORD PTR v_ptr$[rbp]
	add	rdx, rcx
	mov	rcx, rdx
	mov	QWORD PTR [rsp+32], rax
	mov	r9d, DWORD PTR q_$[rbp]
	mov	r8, rcx
	lea	rdx, QWORD PTR k$[rbp]
	movzx	ecx, BYTE PTR c$[rbp]
	call	_MULTIPLY_DIGIT_UNIT_DIV
	mov	BYTE PTR c$[rbp], al

; 464  :         c = _MULTIPLY_DIGIT_UNIT_DIV(c, &k, &v_ptr[2], q_, &u_ptr[2]);

	mov	eax, 4
	imul	rax, rax, 2
	mov	rcx, QWORD PTR u_ptr$[rbp]
	add	rcx, rax
	mov	rax, rcx
	mov	ecx, 4
	imul	rcx, rcx, 2
	mov	rdx, QWORD PTR v_ptr$[rbp]
	add	rdx, rcx
	mov	rcx, rdx
	mov	QWORD PTR [rsp+32], rax
	mov	r9d, DWORD PTR q_$[rbp]
	mov	r8, rcx
	lea	rdx, QWORD PTR k$[rbp]
	movzx	ecx, BYTE PTR c$[rbp]
	call	_MULTIPLY_DIGIT_UNIT_DIV
	mov	BYTE PTR c$[rbp], al

; 465  :         c = _MULTIPLY_DIGIT_UNIT_DIV(c, &k, &v_ptr[3], q_, &u_ptr[3]);

	mov	eax, 4
	imul	rax, rax, 3
	mov	rcx, QWORD PTR u_ptr$[rbp]
	add	rcx, rax
	mov	rax, rcx
	mov	ecx, 4
	imul	rcx, rcx, 3
	mov	rdx, QWORD PTR v_ptr$[rbp]
	add	rdx, rcx
	mov	rcx, rdx
	mov	QWORD PTR [rsp+32], rax
	mov	r9d, DWORD PTR q_$[rbp]
	mov	r8, rcx
	lea	rdx, QWORD PTR k$[rbp]
	movzx	ecx, BYTE PTR c$[rbp]
	call	_MULTIPLY_DIGIT_UNIT_DIV
	mov	BYTE PTR c$[rbp], al

; 466  :         c = _MULTIPLY_DIGIT_UNIT_DIV(c, &k, &v_ptr[4], q_, &u_ptr[4]);

	mov	eax, 4
	imul	rax, rax, 4
	mov	rcx, QWORD PTR u_ptr$[rbp]
	add	rcx, rax
	mov	rax, rcx
	mov	ecx, 4
	imul	rcx, rcx, 4
	mov	rdx, QWORD PTR v_ptr$[rbp]
	add	rdx, rcx
	mov	rcx, rdx
	mov	QWORD PTR [rsp+32], rax
	mov	r9d, DWORD PTR q_$[rbp]
	mov	r8, rcx
	lea	rdx, QWORD PTR k$[rbp]
	movzx	ecx, BYTE PTR c$[rbp]
	call	_MULTIPLY_DIGIT_UNIT_DIV
	mov	BYTE PTR c$[rbp], al

; 467  :         c = _MULTIPLY_DIGIT_UNIT_DIV(c, &k, &v_ptr[5], q_, &u_ptr[5]);

	mov	eax, 4
	imul	rax, rax, 5
	mov	rcx, QWORD PTR u_ptr$[rbp]
	add	rcx, rax
	mov	rax, rcx
	mov	ecx, 4
	imul	rcx, rcx, 5
	mov	rdx, QWORD PTR v_ptr$[rbp]
	add	rdx, rcx
	mov	rcx, rdx
	mov	QWORD PTR [rsp+32], rax
	mov	r9d, DWORD PTR q_$[rbp]
	mov	r8, rcx
	lea	rdx, QWORD PTR k$[rbp]
	movzx	ecx, BYTE PTR c$[rbp]
	call	_MULTIPLY_DIGIT_UNIT_DIV
	mov	BYTE PTR c$[rbp], al

; 468  :         c = _MULTIPLY_DIGIT_UNIT_DIV(c, &k, &v_ptr[6], q_, &u_ptr[6]);

	mov	eax, 4
	imul	rax, rax, 6
	mov	rcx, QWORD PTR u_ptr$[rbp]
	add	rcx, rax
	mov	rax, rcx
	mov	ecx, 4
	imul	rcx, rcx, 6
	mov	rdx, QWORD PTR v_ptr$[rbp]
	add	rdx, rcx
	mov	rcx, rdx
	mov	QWORD PTR [rsp+32], rax
	mov	r9d, DWORD PTR q_$[rbp]
	mov	r8, rcx
	lea	rdx, QWORD PTR k$[rbp]
	movzx	ecx, BYTE PTR c$[rbp]
	call	_MULTIPLY_DIGIT_UNIT_DIV
	mov	BYTE PTR c$[rbp], al

; 469  :         c = _MULTIPLY_DIGIT_UNIT_DIV(c, &k, &v_ptr[7], q_, &u_ptr[7]);

	mov	eax, 4
	imul	rax, rax, 7
	mov	rcx, QWORD PTR u_ptr$[rbp]
	add	rcx, rax
	mov	rax, rcx
	mov	ecx, 4
	imul	rcx, rcx, 7
	mov	rdx, QWORD PTR v_ptr$[rbp]
	add	rdx, rcx
	mov	rcx, rdx
	mov	QWORD PTR [rsp+32], rax
	mov	r9d, DWORD PTR q_$[rbp]
	mov	r8, rcx
	lea	rdx, QWORD PTR k$[rbp]
	movzx	ecx, BYTE PTR c$[rbp]
	call	_MULTIPLY_DIGIT_UNIT_DIV
	mov	BYTE PTR c$[rbp], al

; 470  :         c = _MULTIPLY_DIGIT_UNIT_DIV(c, &k, &v_ptr[8], q_, &u_ptr[8]);

	mov	eax, 4
	imul	rax, rax, 8
	mov	rcx, QWORD PTR u_ptr$[rbp]
	add	rcx, rax
	mov	rax, rcx
	mov	ecx, 4
	imul	rcx, rcx, 8
	mov	rdx, QWORD PTR v_ptr$[rbp]
	add	rdx, rcx
	mov	rcx, rdx
	mov	QWORD PTR [rsp+32], rax
	mov	r9d, DWORD PTR q_$[rbp]
	mov	r8, rcx
	lea	rdx, QWORD PTR k$[rbp]
	movzx	ecx, BYTE PTR c$[rbp]
	call	_MULTIPLY_DIGIT_UNIT_DIV
	mov	BYTE PTR c$[rbp], al

; 471  :         c = _MULTIPLY_DIGIT_UNIT_DIV(c, &k, &v_ptr[9], q_, &u_ptr[9]);

	mov	eax, 4
	imul	rax, rax, 9
	mov	rcx, QWORD PTR u_ptr$[rbp]
	add	rcx, rax
	mov	rax, rcx
	mov	ecx, 4
	imul	rcx, rcx, 9
	mov	rdx, QWORD PTR v_ptr$[rbp]
	add	rdx, rcx
	mov	rcx, rdx
	mov	QWORD PTR [rsp+32], rax
	mov	r9d, DWORD PTR q_$[rbp]
	mov	r8, rcx
	lea	rdx, QWORD PTR k$[rbp]
	movzx	ecx, BYTE PTR c$[rbp]
	call	_MULTIPLY_DIGIT_UNIT_DIV
	mov	BYTE PTR c$[rbp], al

; 472  :         c = _MULTIPLY_DIGIT_UNIT_DIV(c, &k, &v_ptr[10], q_, &u_ptr[10]);

	mov	eax, 4
	imul	rax, rax, 10
	mov	rcx, QWORD PTR u_ptr$[rbp]
	add	rcx, rax
	mov	rax, rcx
	mov	ecx, 4
	imul	rcx, rcx, 10
	mov	rdx, QWORD PTR v_ptr$[rbp]
	add	rdx, rcx
	mov	rcx, rdx
	mov	QWORD PTR [rsp+32], rax
	mov	r9d, DWORD PTR q_$[rbp]
	mov	r8, rcx
	lea	rdx, QWORD PTR k$[rbp]
	movzx	ecx, BYTE PTR c$[rbp]
	call	_MULTIPLY_DIGIT_UNIT_DIV
	mov	BYTE PTR c$[rbp], al

; 473  :         c = _MULTIPLY_DIGIT_UNIT_DIV(c, &k, &v_ptr[11], q_, &u_ptr[11]);

	mov	eax, 4
	imul	rax, rax, 11
	mov	rcx, QWORD PTR u_ptr$[rbp]
	add	rcx, rax
	mov	rax, rcx
	mov	ecx, 4
	imul	rcx, rcx, 11
	mov	rdx, QWORD PTR v_ptr$[rbp]
	add	rdx, rcx
	mov	rcx, rdx
	mov	QWORD PTR [rsp+32], rax
	mov	r9d, DWORD PTR q_$[rbp]
	mov	r8, rcx
	lea	rdx, QWORD PTR k$[rbp]
	movzx	ecx, BYTE PTR c$[rbp]
	call	_MULTIPLY_DIGIT_UNIT_DIV
	mov	BYTE PTR c$[rbp], al

; 474  :         c = _MULTIPLY_DIGIT_UNIT_DIV(c, &k, &v_ptr[12], q_, &u_ptr[12]);

	mov	eax, 4
	imul	rax, rax, 12
	mov	rcx, QWORD PTR u_ptr$[rbp]
	add	rcx, rax
	mov	rax, rcx
	mov	ecx, 4
	imul	rcx, rcx, 12
	mov	rdx, QWORD PTR v_ptr$[rbp]
	add	rdx, rcx
	mov	rcx, rdx
	mov	QWORD PTR [rsp+32], rax
	mov	r9d, DWORD PTR q_$[rbp]
	mov	r8, rcx
	lea	rdx, QWORD PTR k$[rbp]
	movzx	ecx, BYTE PTR c$[rbp]
	call	_MULTIPLY_DIGIT_UNIT_DIV
	mov	BYTE PTR c$[rbp], al

; 475  :         c = _MULTIPLY_DIGIT_UNIT_DIV(c, &k, &v_ptr[13], q_, &u_ptr[13]);

	mov	eax, 4
	imul	rax, rax, 13
	mov	rcx, QWORD PTR u_ptr$[rbp]
	add	rcx, rax
	mov	rax, rcx
	mov	ecx, 4
	imul	rcx, rcx, 13
	mov	rdx, QWORD PTR v_ptr$[rbp]
	add	rdx, rcx
	mov	rcx, rdx
	mov	QWORD PTR [rsp+32], rax
	mov	r9d, DWORD PTR q_$[rbp]
	mov	r8, rcx
	lea	rdx, QWORD PTR k$[rbp]
	movzx	ecx, BYTE PTR c$[rbp]
	call	_MULTIPLY_DIGIT_UNIT_DIV
	mov	BYTE PTR c$[rbp], al

; 476  :         c = _MULTIPLY_DIGIT_UNIT_DIV(c, &k, &v_ptr[14], q_, &u_ptr[14]);

	mov	eax, 4
	imul	rax, rax, 14
	mov	rcx, QWORD PTR u_ptr$[rbp]
	add	rcx, rax
	mov	rax, rcx
	mov	ecx, 4
	imul	rcx, rcx, 14
	mov	rdx, QWORD PTR v_ptr$[rbp]
	add	rdx, rcx
	mov	rcx, rdx
	mov	QWORD PTR [rsp+32], rax
	mov	r9d, DWORD PTR q_$[rbp]
	mov	r8, rcx
	lea	rdx, QWORD PTR k$[rbp]
	movzx	ecx, BYTE PTR c$[rbp]
	call	_MULTIPLY_DIGIT_UNIT_DIV
	mov	BYTE PTR c$[rbp], al

; 477  :         c = _MULTIPLY_DIGIT_UNIT_DIV(c, &k, &v_ptr[15], q_, &u_ptr[15]);

	mov	eax, 4
	imul	rax, rax, 15
	mov	rcx, QWORD PTR u_ptr$[rbp]
	add	rcx, rax
	mov	rax, rcx
	mov	ecx, 4
	imul	rcx, rcx, 15
	mov	rdx, QWORD PTR v_ptr$[rbp]
	add	rdx, rcx
	mov	rcx, rdx
	mov	QWORD PTR [rsp+32], rax
	mov	r9d, DWORD PTR q_$[rbp]
	mov	r8, rcx
	lea	rdx, QWORD PTR k$[rbp]
	movzx	ecx, BYTE PTR c$[rbp]
	call	_MULTIPLY_DIGIT_UNIT_DIV
	mov	BYTE PTR c$[rbp], al

; 478  :         c = _MULTIPLY_DIGIT_UNIT_DIV(c, &k, &v_ptr[16], q_, &u_ptr[16]);

	mov	eax, 4
	imul	rax, rax, 16
	mov	rcx, QWORD PTR u_ptr$[rbp]
	add	rcx, rax
	mov	rax, rcx
	mov	ecx, 4
	imul	rcx, rcx, 16
	mov	rdx, QWORD PTR v_ptr$[rbp]
	add	rdx, rcx
	mov	rcx, rdx
	mov	QWORD PTR [rsp+32], rax
	mov	r9d, DWORD PTR q_$[rbp]
	mov	r8, rcx
	lea	rdx, QWORD PTR k$[rbp]
	movzx	ecx, BYTE PTR c$[rbp]
	call	_MULTIPLY_DIGIT_UNIT_DIV
	mov	BYTE PTR c$[rbp], al

; 479  :         c = _MULTIPLY_DIGIT_UNIT_DIV(c, &k, &v_ptr[17], q_, &u_ptr[17]);

	mov	eax, 4
	imul	rax, rax, 17
	mov	rcx, QWORD PTR u_ptr$[rbp]
	add	rcx, rax
	mov	rax, rcx
	mov	ecx, 4
	imul	rcx, rcx, 17
	mov	rdx, QWORD PTR v_ptr$[rbp]
	add	rdx, rcx
	mov	rcx, rdx
	mov	QWORD PTR [rsp+32], rax
	mov	r9d, DWORD PTR q_$[rbp]
	mov	r8, rcx
	lea	rdx, QWORD PTR k$[rbp]
	movzx	ecx, BYTE PTR c$[rbp]
	call	_MULTIPLY_DIGIT_UNIT_DIV
	mov	BYTE PTR c$[rbp], al

; 480  :         c = _MULTIPLY_DIGIT_UNIT_DIV(c, &k, &v_ptr[18], q_, &u_ptr[18]);

	mov	eax, 4
	imul	rax, rax, 18
	mov	rcx, QWORD PTR u_ptr$[rbp]
	add	rcx, rax
	mov	rax, rcx
	mov	ecx, 4
	imul	rcx, rcx, 18
	mov	rdx, QWORD PTR v_ptr$[rbp]
	add	rdx, rcx
	mov	rcx, rdx
	mov	QWORD PTR [rsp+32], rax
	mov	r9d, DWORD PTR q_$[rbp]
	mov	r8, rcx
	lea	rdx, QWORD PTR k$[rbp]
	movzx	ecx, BYTE PTR c$[rbp]
	call	_MULTIPLY_DIGIT_UNIT_DIV
	mov	BYTE PTR c$[rbp], al

; 481  :         c = _MULTIPLY_DIGIT_UNIT_DIV(c, &k, &v_ptr[19], q_, &u_ptr[19]);

	mov	eax, 4
	imul	rax, rax, 19
	mov	rcx, QWORD PTR u_ptr$[rbp]
	add	rcx, rax
	mov	rax, rcx
	mov	ecx, 4
	imul	rcx, rcx, 19
	mov	rdx, QWORD PTR v_ptr$[rbp]
	add	rdx, rcx
	mov	rcx, rdx
	mov	QWORD PTR [rsp+32], rax
	mov	r9d, DWORD PTR q_$[rbp]
	mov	r8, rcx
	lea	rdx, QWORD PTR k$[rbp]
	movzx	ecx, BYTE PTR c$[rbp]
	call	_MULTIPLY_DIGIT_UNIT_DIV
	mov	BYTE PTR c$[rbp], al

; 482  :         c = _MULTIPLY_DIGIT_UNIT_DIV(c, &k, &v_ptr[20], q_, &u_ptr[20]);

	mov	eax, 4
	imul	rax, rax, 20
	mov	rcx, QWORD PTR u_ptr$[rbp]
	add	rcx, rax
	mov	rax, rcx
	mov	ecx, 4
	imul	rcx, rcx, 20
	mov	rdx, QWORD PTR v_ptr$[rbp]
	add	rdx, rcx
	mov	rcx, rdx
	mov	QWORD PTR [rsp+32], rax
	mov	r9d, DWORD PTR q_$[rbp]
	mov	r8, rcx
	lea	rdx, QWORD PTR k$[rbp]
	movzx	ecx, BYTE PTR c$[rbp]
	call	_MULTIPLY_DIGIT_UNIT_DIV
	mov	BYTE PTR c$[rbp], al

; 483  :         c = _MULTIPLY_DIGIT_UNIT_DIV(c, &k, &v_ptr[21], q_, &u_ptr[21]);

	mov	eax, 4
	imul	rax, rax, 21
	mov	rcx, QWORD PTR u_ptr$[rbp]
	add	rcx, rax
	mov	rax, rcx
	mov	ecx, 4
	imul	rcx, rcx, 21
	mov	rdx, QWORD PTR v_ptr$[rbp]
	add	rdx, rcx
	mov	rcx, rdx
	mov	QWORD PTR [rsp+32], rax
	mov	r9d, DWORD PTR q_$[rbp]
	mov	r8, rcx
	lea	rdx, QWORD PTR k$[rbp]
	movzx	ecx, BYTE PTR c$[rbp]
	call	_MULTIPLY_DIGIT_UNIT_DIV
	mov	BYTE PTR c$[rbp], al

; 484  :         c = _MULTIPLY_DIGIT_UNIT_DIV(c, &k, &v_ptr[22], q_, &u_ptr[22]);

	mov	eax, 4
	imul	rax, rax, 22
	mov	rcx, QWORD PTR u_ptr$[rbp]
	add	rcx, rax
	mov	rax, rcx
	mov	ecx, 4
	imul	rcx, rcx, 22
	mov	rdx, QWORD PTR v_ptr$[rbp]
	add	rdx, rcx
	mov	rcx, rdx
	mov	QWORD PTR [rsp+32], rax
	mov	r9d, DWORD PTR q_$[rbp]
	mov	r8, rcx
	lea	rdx, QWORD PTR k$[rbp]
	movzx	ecx, BYTE PTR c$[rbp]
	call	_MULTIPLY_DIGIT_UNIT_DIV
	mov	BYTE PTR c$[rbp], al

; 485  :         c = _MULTIPLY_DIGIT_UNIT_DIV(c, &k, &v_ptr[23], q_, &u_ptr[23]);

	mov	eax, 4
	imul	rax, rax, 23
	mov	rcx, QWORD PTR u_ptr$[rbp]
	add	rcx, rax
	mov	rax, rcx
	mov	ecx, 4
	imul	rcx, rcx, 23
	mov	rdx, QWORD PTR v_ptr$[rbp]
	add	rdx, rcx
	mov	rcx, rdx
	mov	QWORD PTR [rsp+32], rax
	mov	r9d, DWORD PTR q_$[rbp]
	mov	r8, rcx
	lea	rdx, QWORD PTR k$[rbp]
	movzx	ecx, BYTE PTR c$[rbp]
	call	_MULTIPLY_DIGIT_UNIT_DIV
	mov	BYTE PTR c$[rbp], al

; 486  :         c = _MULTIPLY_DIGIT_UNIT_DIV(c, &k, &v_ptr[24], q_, &u_ptr[24]);

	mov	eax, 4
	imul	rax, rax, 24
	mov	rcx, QWORD PTR u_ptr$[rbp]
	add	rcx, rax
	mov	rax, rcx
	mov	ecx, 4
	imul	rcx, rcx, 24
	mov	rdx, QWORD PTR v_ptr$[rbp]
	add	rdx, rcx
	mov	rcx, rdx
	mov	QWORD PTR [rsp+32], rax
	mov	r9d, DWORD PTR q_$[rbp]
	mov	r8, rcx
	lea	rdx, QWORD PTR k$[rbp]
	movzx	ecx, BYTE PTR c$[rbp]
	call	_MULTIPLY_DIGIT_UNIT_DIV
	mov	BYTE PTR c$[rbp], al

; 487  :         c = _MULTIPLY_DIGIT_UNIT_DIV(c, &k, &v_ptr[25], q_, &u_ptr[25]);

	mov	eax, 4
	imul	rax, rax, 25
	mov	rcx, QWORD PTR u_ptr$[rbp]
	add	rcx, rax
	mov	rax, rcx
	mov	ecx, 4
	imul	rcx, rcx, 25
	mov	rdx, QWORD PTR v_ptr$[rbp]
	add	rdx, rcx
	mov	rcx, rdx
	mov	QWORD PTR [rsp+32], rax
	mov	r9d, DWORD PTR q_$[rbp]
	mov	r8, rcx
	lea	rdx, QWORD PTR k$[rbp]
	movzx	ecx, BYTE PTR c$[rbp]
	call	_MULTIPLY_DIGIT_UNIT_DIV
	mov	BYTE PTR c$[rbp], al

; 488  :         c = _MULTIPLY_DIGIT_UNIT_DIV(c, &k, &v_ptr[26], q_, &u_ptr[26]);

	mov	eax, 4
	imul	rax, rax, 26
	mov	rcx, QWORD PTR u_ptr$[rbp]
	add	rcx, rax
	mov	rax, rcx
	mov	ecx, 4
	imul	rcx, rcx, 26
	mov	rdx, QWORD PTR v_ptr$[rbp]
	add	rdx, rcx
	mov	rcx, rdx
	mov	QWORD PTR [rsp+32], rax
	mov	r9d, DWORD PTR q_$[rbp]
	mov	r8, rcx
	lea	rdx, QWORD PTR k$[rbp]
	movzx	ecx, BYTE PTR c$[rbp]
	call	_MULTIPLY_DIGIT_UNIT_DIV
	mov	BYTE PTR c$[rbp], al

; 489  :         c = _MULTIPLY_DIGIT_UNIT_DIV(c, &k, &v_ptr[27], q_, &u_ptr[27]);

	mov	eax, 4
	imul	rax, rax, 27
	mov	rcx, QWORD PTR u_ptr$[rbp]
	add	rcx, rax
	mov	rax, rcx
	mov	ecx, 4
	imul	rcx, rcx, 27
	mov	rdx, QWORD PTR v_ptr$[rbp]
	add	rdx, rcx
	mov	rcx, rdx
	mov	QWORD PTR [rsp+32], rax
	mov	r9d, DWORD PTR q_$[rbp]
	mov	r8, rcx
	lea	rdx, QWORD PTR k$[rbp]
	movzx	ecx, BYTE PTR c$[rbp]
	call	_MULTIPLY_DIGIT_UNIT_DIV
	mov	BYTE PTR c$[rbp], al

; 490  :         c = _MULTIPLY_DIGIT_UNIT_DIV(c, &k, &v_ptr[28], q_, &u_ptr[28]);

	mov	eax, 4
	imul	rax, rax, 28
	mov	rcx, QWORD PTR u_ptr$[rbp]
	add	rcx, rax
	mov	rax, rcx
	mov	ecx, 4
	imul	rcx, rcx, 28
	mov	rdx, QWORD PTR v_ptr$[rbp]
	add	rdx, rcx
	mov	rcx, rdx
	mov	QWORD PTR [rsp+32], rax
	mov	r9d, DWORD PTR q_$[rbp]
	mov	r8, rcx
	lea	rdx, QWORD PTR k$[rbp]
	movzx	ecx, BYTE PTR c$[rbp]
	call	_MULTIPLY_DIGIT_UNIT_DIV
	mov	BYTE PTR c$[rbp], al

; 491  :         c = _MULTIPLY_DIGIT_UNIT_DIV(c, &k, &v_ptr[29], q_, &u_ptr[29]);

	mov	eax, 4
	imul	rax, rax, 29
	mov	rcx, QWORD PTR u_ptr$[rbp]
	add	rcx, rax
	mov	rax, rcx
	mov	ecx, 4
	imul	rcx, rcx, 29
	mov	rdx, QWORD PTR v_ptr$[rbp]
	add	rdx, rcx
	mov	rcx, rdx
	mov	QWORD PTR [rsp+32], rax
	mov	r9d, DWORD PTR q_$[rbp]
	mov	r8, rcx
	lea	rdx, QWORD PTR k$[rbp]
	movzx	ecx, BYTE PTR c$[rbp]
	call	_MULTIPLY_DIGIT_UNIT_DIV
	mov	BYTE PTR c$[rbp], al

; 492  :         c = _MULTIPLY_DIGIT_UNIT_DIV(c, &k, &v_ptr[30], q_, &u_ptr[30]);

	mov	eax, 4
	imul	rax, rax, 30
	mov	rcx, QWORD PTR u_ptr$[rbp]
	add	rcx, rax
	mov	rax, rcx
	mov	ecx, 4
	imul	rcx, rcx, 30
	mov	rdx, QWORD PTR v_ptr$[rbp]
	add	rdx, rcx
	mov	rcx, rdx
	mov	QWORD PTR [rsp+32], rax
	mov	r9d, DWORD PTR q_$[rbp]
	mov	r8, rcx
	lea	rdx, QWORD PTR k$[rbp]
	movzx	ecx, BYTE PTR c$[rbp]
	call	_MULTIPLY_DIGIT_UNIT_DIV
	mov	BYTE PTR c$[rbp], al

; 493  :         c = _MULTIPLY_DIGIT_UNIT_DIV(c, &k, &v_ptr[31], q_, &u_ptr[31]);

	mov	eax, 4
	imul	rax, rax, 31
	mov	rcx, QWORD PTR u_ptr$[rbp]
	add	rcx, rax
	mov	rax, rcx
	mov	ecx, 4
	imul	rcx, rcx, 31
	mov	rdx, QWORD PTR v_ptr$[rbp]
	add	rdx, rcx
	mov	rcx, rdx
	mov	QWORD PTR [rsp+32], rax
	mov	r9d, DWORD PTR q_$[rbp]
	mov	r8, rcx
	lea	rdx, QWORD PTR k$[rbp]
	movzx	ecx, BYTE PTR c$[rbp]
	call	_MULTIPLY_DIGIT_UNIT_DIV
	mov	BYTE PTR c$[rbp], al

; 494  :         u_ptr += 32;

	mov	rax, QWORD PTR u_ptr$[rbp]
	add	rax, 128				; 00000080H
	mov	QWORD PTR u_ptr$[rbp], rax

; 495  :         v_ptr += 32;

	mov	rax, QWORD PTR v_ptr$[rbp]
	add	rax, 128				; 00000080H
	mov	QWORD PTR v_ptr$[rbp], rax

; 496  :         --count;

	mov	rax, QWORD PTR count$[rbp]
	dec	rax
	mov	QWORD PTR count$[rbp], rax

; 497  : #ifdef ENABLED_PERFORMANCE_COUNTER
; 498  :         if (sizeof(k) == sizeof(_UINT64_T))

	xor	eax, eax
	test	eax, eax
	je	SHORT $LN4@SubtructOn

; 499  :             AddToMULTI64Counter(32);

	mov	ecx, 32					; 00000020H
	call	AddToMULTI64Counter
	jmp	SHORT $LN5@SubtructOn
$LN4@SubtructOn:

; 500  :         else
; 501  :             AddToMULTI32Counter(32);

	mov	ecx, 32					; 00000020H
	call	AddToMULTI32Counter
$LN5@SubtructOn:

; 502  : #endif
; 503  :     }

	jmp	$LN2@SubtructOn
$LN3@SubtructOn:

; 504  : 
; 505  :     if (v_count & 0x10)

	mov	rax, QWORD PTR v_count$[rbp]
	and	rax, 16
	test	rax, rax
	je	$LN6@SubtructOn

; 506  :     {
; 507  :         c = _MULTIPLY_DIGIT_UNIT_DIV(c, &k, &v_ptr[0], q_, &u_ptr[0]);

	mov	eax, 4
	imul	rax, rax, 0
	mov	rcx, QWORD PTR u_ptr$[rbp]
	add	rcx, rax
	mov	rax, rcx
	mov	ecx, 4
	imul	rcx, rcx, 0
	mov	rdx, QWORD PTR v_ptr$[rbp]
	add	rdx, rcx
	mov	rcx, rdx
	mov	QWORD PTR [rsp+32], rax
	mov	r9d, DWORD PTR q_$[rbp]
	mov	r8, rcx
	lea	rdx, QWORD PTR k$[rbp]
	movzx	ecx, BYTE PTR c$[rbp]
	call	_MULTIPLY_DIGIT_UNIT_DIV
	mov	BYTE PTR c$[rbp], al

; 508  :         c = _MULTIPLY_DIGIT_UNIT_DIV(c, &k, &v_ptr[1], q_, &u_ptr[1]);

	mov	eax, 4
	imul	rax, rax, 1
	mov	rcx, QWORD PTR u_ptr$[rbp]
	add	rcx, rax
	mov	rax, rcx
	mov	ecx, 4
	imul	rcx, rcx, 1
	mov	rdx, QWORD PTR v_ptr$[rbp]
	add	rdx, rcx
	mov	rcx, rdx
	mov	QWORD PTR [rsp+32], rax
	mov	r9d, DWORD PTR q_$[rbp]
	mov	r8, rcx
	lea	rdx, QWORD PTR k$[rbp]
	movzx	ecx, BYTE PTR c$[rbp]
	call	_MULTIPLY_DIGIT_UNIT_DIV
	mov	BYTE PTR c$[rbp], al

; 509  :         c = _MULTIPLY_DIGIT_UNIT_DIV(c, &k, &v_ptr[2], q_, &u_ptr[2]);

	mov	eax, 4
	imul	rax, rax, 2
	mov	rcx, QWORD PTR u_ptr$[rbp]
	add	rcx, rax
	mov	rax, rcx
	mov	ecx, 4
	imul	rcx, rcx, 2
	mov	rdx, QWORD PTR v_ptr$[rbp]
	add	rdx, rcx
	mov	rcx, rdx
	mov	QWORD PTR [rsp+32], rax
	mov	r9d, DWORD PTR q_$[rbp]
	mov	r8, rcx
	lea	rdx, QWORD PTR k$[rbp]
	movzx	ecx, BYTE PTR c$[rbp]
	call	_MULTIPLY_DIGIT_UNIT_DIV
	mov	BYTE PTR c$[rbp], al

; 510  :         c = _MULTIPLY_DIGIT_UNIT_DIV(c, &k, &v_ptr[3], q_, &u_ptr[3]);

	mov	eax, 4
	imul	rax, rax, 3
	mov	rcx, QWORD PTR u_ptr$[rbp]
	add	rcx, rax
	mov	rax, rcx
	mov	ecx, 4
	imul	rcx, rcx, 3
	mov	rdx, QWORD PTR v_ptr$[rbp]
	add	rdx, rcx
	mov	rcx, rdx
	mov	QWORD PTR [rsp+32], rax
	mov	r9d, DWORD PTR q_$[rbp]
	mov	r8, rcx
	lea	rdx, QWORD PTR k$[rbp]
	movzx	ecx, BYTE PTR c$[rbp]
	call	_MULTIPLY_DIGIT_UNIT_DIV
	mov	BYTE PTR c$[rbp], al

; 511  :         c = _MULTIPLY_DIGIT_UNIT_DIV(c, &k, &v_ptr[4], q_, &u_ptr[4]);

	mov	eax, 4
	imul	rax, rax, 4
	mov	rcx, QWORD PTR u_ptr$[rbp]
	add	rcx, rax
	mov	rax, rcx
	mov	ecx, 4
	imul	rcx, rcx, 4
	mov	rdx, QWORD PTR v_ptr$[rbp]
	add	rdx, rcx
	mov	rcx, rdx
	mov	QWORD PTR [rsp+32], rax
	mov	r9d, DWORD PTR q_$[rbp]
	mov	r8, rcx
	lea	rdx, QWORD PTR k$[rbp]
	movzx	ecx, BYTE PTR c$[rbp]
	call	_MULTIPLY_DIGIT_UNIT_DIV
	mov	BYTE PTR c$[rbp], al

; 512  :         c = _MULTIPLY_DIGIT_UNIT_DIV(c, &k, &v_ptr[5], q_, &u_ptr[5]);

	mov	eax, 4
	imul	rax, rax, 5
	mov	rcx, QWORD PTR u_ptr$[rbp]
	add	rcx, rax
	mov	rax, rcx
	mov	ecx, 4
	imul	rcx, rcx, 5
	mov	rdx, QWORD PTR v_ptr$[rbp]
	add	rdx, rcx
	mov	rcx, rdx
	mov	QWORD PTR [rsp+32], rax
	mov	r9d, DWORD PTR q_$[rbp]
	mov	r8, rcx
	lea	rdx, QWORD PTR k$[rbp]
	movzx	ecx, BYTE PTR c$[rbp]
	call	_MULTIPLY_DIGIT_UNIT_DIV
	mov	BYTE PTR c$[rbp], al

; 513  :         c = _MULTIPLY_DIGIT_UNIT_DIV(c, &k, &v_ptr[6], q_, &u_ptr[6]);

	mov	eax, 4
	imul	rax, rax, 6
	mov	rcx, QWORD PTR u_ptr$[rbp]
	add	rcx, rax
	mov	rax, rcx
	mov	ecx, 4
	imul	rcx, rcx, 6
	mov	rdx, QWORD PTR v_ptr$[rbp]
	add	rdx, rcx
	mov	rcx, rdx
	mov	QWORD PTR [rsp+32], rax
	mov	r9d, DWORD PTR q_$[rbp]
	mov	r8, rcx
	lea	rdx, QWORD PTR k$[rbp]
	movzx	ecx, BYTE PTR c$[rbp]
	call	_MULTIPLY_DIGIT_UNIT_DIV
	mov	BYTE PTR c$[rbp], al

; 514  :         c = _MULTIPLY_DIGIT_UNIT_DIV(c, &k, &v_ptr[7], q_, &u_ptr[7]);

	mov	eax, 4
	imul	rax, rax, 7
	mov	rcx, QWORD PTR u_ptr$[rbp]
	add	rcx, rax
	mov	rax, rcx
	mov	ecx, 4
	imul	rcx, rcx, 7
	mov	rdx, QWORD PTR v_ptr$[rbp]
	add	rdx, rcx
	mov	rcx, rdx
	mov	QWORD PTR [rsp+32], rax
	mov	r9d, DWORD PTR q_$[rbp]
	mov	r8, rcx
	lea	rdx, QWORD PTR k$[rbp]
	movzx	ecx, BYTE PTR c$[rbp]
	call	_MULTIPLY_DIGIT_UNIT_DIV
	mov	BYTE PTR c$[rbp], al

; 515  :         c = _MULTIPLY_DIGIT_UNIT_DIV(c, &k, &v_ptr[8], q_, &u_ptr[8]);

	mov	eax, 4
	imul	rax, rax, 8
	mov	rcx, QWORD PTR u_ptr$[rbp]
	add	rcx, rax
	mov	rax, rcx
	mov	ecx, 4
	imul	rcx, rcx, 8
	mov	rdx, QWORD PTR v_ptr$[rbp]
	add	rdx, rcx
	mov	rcx, rdx
	mov	QWORD PTR [rsp+32], rax
	mov	r9d, DWORD PTR q_$[rbp]
	mov	r8, rcx
	lea	rdx, QWORD PTR k$[rbp]
	movzx	ecx, BYTE PTR c$[rbp]
	call	_MULTIPLY_DIGIT_UNIT_DIV
	mov	BYTE PTR c$[rbp], al

; 516  :         c = _MULTIPLY_DIGIT_UNIT_DIV(c, &k, &v_ptr[9], q_, &u_ptr[9]);

	mov	eax, 4
	imul	rax, rax, 9
	mov	rcx, QWORD PTR u_ptr$[rbp]
	add	rcx, rax
	mov	rax, rcx
	mov	ecx, 4
	imul	rcx, rcx, 9
	mov	rdx, QWORD PTR v_ptr$[rbp]
	add	rdx, rcx
	mov	rcx, rdx
	mov	QWORD PTR [rsp+32], rax
	mov	r9d, DWORD PTR q_$[rbp]
	mov	r8, rcx
	lea	rdx, QWORD PTR k$[rbp]
	movzx	ecx, BYTE PTR c$[rbp]
	call	_MULTIPLY_DIGIT_UNIT_DIV
	mov	BYTE PTR c$[rbp], al

; 517  :         c = _MULTIPLY_DIGIT_UNIT_DIV(c, &k, &v_ptr[10], q_, &u_ptr[10]);

	mov	eax, 4
	imul	rax, rax, 10
	mov	rcx, QWORD PTR u_ptr$[rbp]
	add	rcx, rax
	mov	rax, rcx
	mov	ecx, 4
	imul	rcx, rcx, 10
	mov	rdx, QWORD PTR v_ptr$[rbp]
	add	rdx, rcx
	mov	rcx, rdx
	mov	QWORD PTR [rsp+32], rax
	mov	r9d, DWORD PTR q_$[rbp]
	mov	r8, rcx
	lea	rdx, QWORD PTR k$[rbp]
	movzx	ecx, BYTE PTR c$[rbp]
	call	_MULTIPLY_DIGIT_UNIT_DIV
	mov	BYTE PTR c$[rbp], al

; 518  :         c = _MULTIPLY_DIGIT_UNIT_DIV(c, &k, &v_ptr[11], q_, &u_ptr[11]);

	mov	eax, 4
	imul	rax, rax, 11
	mov	rcx, QWORD PTR u_ptr$[rbp]
	add	rcx, rax
	mov	rax, rcx
	mov	ecx, 4
	imul	rcx, rcx, 11
	mov	rdx, QWORD PTR v_ptr$[rbp]
	add	rdx, rcx
	mov	rcx, rdx
	mov	QWORD PTR [rsp+32], rax
	mov	r9d, DWORD PTR q_$[rbp]
	mov	r8, rcx
	lea	rdx, QWORD PTR k$[rbp]
	movzx	ecx, BYTE PTR c$[rbp]
	call	_MULTIPLY_DIGIT_UNIT_DIV
	mov	BYTE PTR c$[rbp], al

; 519  :         c = _MULTIPLY_DIGIT_UNIT_DIV(c, &k, &v_ptr[12], q_, &u_ptr[12]);

	mov	eax, 4
	imul	rax, rax, 12
	mov	rcx, QWORD PTR u_ptr$[rbp]
	add	rcx, rax
	mov	rax, rcx
	mov	ecx, 4
	imul	rcx, rcx, 12
	mov	rdx, QWORD PTR v_ptr$[rbp]
	add	rdx, rcx
	mov	rcx, rdx
	mov	QWORD PTR [rsp+32], rax
	mov	r9d, DWORD PTR q_$[rbp]
	mov	r8, rcx
	lea	rdx, QWORD PTR k$[rbp]
	movzx	ecx, BYTE PTR c$[rbp]
	call	_MULTIPLY_DIGIT_UNIT_DIV
	mov	BYTE PTR c$[rbp], al

; 520  :         c = _MULTIPLY_DIGIT_UNIT_DIV(c, &k, &v_ptr[13], q_, &u_ptr[13]);

	mov	eax, 4
	imul	rax, rax, 13
	mov	rcx, QWORD PTR u_ptr$[rbp]
	add	rcx, rax
	mov	rax, rcx
	mov	ecx, 4
	imul	rcx, rcx, 13
	mov	rdx, QWORD PTR v_ptr$[rbp]
	add	rdx, rcx
	mov	rcx, rdx
	mov	QWORD PTR [rsp+32], rax
	mov	r9d, DWORD PTR q_$[rbp]
	mov	r8, rcx
	lea	rdx, QWORD PTR k$[rbp]
	movzx	ecx, BYTE PTR c$[rbp]
	call	_MULTIPLY_DIGIT_UNIT_DIV
	mov	BYTE PTR c$[rbp], al

; 521  :         c = _MULTIPLY_DIGIT_UNIT_DIV(c, &k, &v_ptr[14], q_, &u_ptr[14]);

	mov	eax, 4
	imul	rax, rax, 14
	mov	rcx, QWORD PTR u_ptr$[rbp]
	add	rcx, rax
	mov	rax, rcx
	mov	ecx, 4
	imul	rcx, rcx, 14
	mov	rdx, QWORD PTR v_ptr$[rbp]
	add	rdx, rcx
	mov	rcx, rdx
	mov	QWORD PTR [rsp+32], rax
	mov	r9d, DWORD PTR q_$[rbp]
	mov	r8, rcx
	lea	rdx, QWORD PTR k$[rbp]
	movzx	ecx, BYTE PTR c$[rbp]
	call	_MULTIPLY_DIGIT_UNIT_DIV
	mov	BYTE PTR c$[rbp], al

; 522  :         c = _MULTIPLY_DIGIT_UNIT_DIV(c, &k, &v_ptr[15], q_, &u_ptr[15]);

	mov	eax, 4
	imul	rax, rax, 15
	mov	rcx, QWORD PTR u_ptr$[rbp]
	add	rcx, rax
	mov	rax, rcx
	mov	ecx, 4
	imul	rcx, rcx, 15
	mov	rdx, QWORD PTR v_ptr$[rbp]
	add	rdx, rcx
	mov	rcx, rdx
	mov	QWORD PTR [rsp+32], rax
	mov	r9d, DWORD PTR q_$[rbp]
	mov	r8, rcx
	lea	rdx, QWORD PTR k$[rbp]
	movzx	ecx, BYTE PTR c$[rbp]
	call	_MULTIPLY_DIGIT_UNIT_DIV
	mov	BYTE PTR c$[rbp], al

; 523  :         u_ptr += 16;

	mov	rax, QWORD PTR u_ptr$[rbp]
	add	rax, 64					; 00000040H
	mov	QWORD PTR u_ptr$[rbp], rax

; 524  :         v_ptr += 16;

	mov	rax, QWORD PTR v_ptr$[rbp]
	add	rax, 64					; 00000040H
	mov	QWORD PTR v_ptr$[rbp], rax

; 525  : #ifdef ENABLED_PERFORMANCE_COUNTER
; 526  :         if (sizeof(k) == sizeof(_UINT64_T))

	xor	eax, eax
	test	eax, eax
	je	SHORT $LN7@SubtructOn

; 527  :             AddToMULTI64Counter(16);

	mov	ecx, 16
	call	AddToMULTI64Counter
	jmp	SHORT $LN8@SubtructOn
$LN7@SubtructOn:

; 528  :         else
; 529  :             AddToMULTI32Counter(16);

	mov	ecx, 16
	call	AddToMULTI32Counter
$LN8@SubtructOn:
$LN6@SubtructOn:

; 530  : #endif
; 531  :     }
; 532  : 
; 533  :     if (v_count & 0x8)

	mov	rax, QWORD PTR v_count$[rbp]
	and	rax, 8
	test	rax, rax
	je	$LN9@SubtructOn

; 534  :     {
; 535  :         c = _MULTIPLY_DIGIT_UNIT_DIV(c, &k, &v_ptr[0], q_, &u_ptr[0]);

	mov	eax, 4
	imul	rax, rax, 0
	mov	rcx, QWORD PTR u_ptr$[rbp]
	add	rcx, rax
	mov	rax, rcx
	mov	ecx, 4
	imul	rcx, rcx, 0
	mov	rdx, QWORD PTR v_ptr$[rbp]
	add	rdx, rcx
	mov	rcx, rdx
	mov	QWORD PTR [rsp+32], rax
	mov	r9d, DWORD PTR q_$[rbp]
	mov	r8, rcx
	lea	rdx, QWORD PTR k$[rbp]
	movzx	ecx, BYTE PTR c$[rbp]
	call	_MULTIPLY_DIGIT_UNIT_DIV
	mov	BYTE PTR c$[rbp], al

; 536  :         c = _MULTIPLY_DIGIT_UNIT_DIV(c, &k, &v_ptr[1], q_, &u_ptr[1]);

	mov	eax, 4
	imul	rax, rax, 1
	mov	rcx, QWORD PTR u_ptr$[rbp]
	add	rcx, rax
	mov	rax, rcx
	mov	ecx, 4
	imul	rcx, rcx, 1
	mov	rdx, QWORD PTR v_ptr$[rbp]
	add	rdx, rcx
	mov	rcx, rdx
	mov	QWORD PTR [rsp+32], rax
	mov	r9d, DWORD PTR q_$[rbp]
	mov	r8, rcx
	lea	rdx, QWORD PTR k$[rbp]
	movzx	ecx, BYTE PTR c$[rbp]
	call	_MULTIPLY_DIGIT_UNIT_DIV
	mov	BYTE PTR c$[rbp], al

; 537  :         c = _MULTIPLY_DIGIT_UNIT_DIV(c, &k, &v_ptr[2], q_, &u_ptr[2]);

	mov	eax, 4
	imul	rax, rax, 2
	mov	rcx, QWORD PTR u_ptr$[rbp]
	add	rcx, rax
	mov	rax, rcx
	mov	ecx, 4
	imul	rcx, rcx, 2
	mov	rdx, QWORD PTR v_ptr$[rbp]
	add	rdx, rcx
	mov	rcx, rdx
	mov	QWORD PTR [rsp+32], rax
	mov	r9d, DWORD PTR q_$[rbp]
	mov	r8, rcx
	lea	rdx, QWORD PTR k$[rbp]
	movzx	ecx, BYTE PTR c$[rbp]
	call	_MULTIPLY_DIGIT_UNIT_DIV
	mov	BYTE PTR c$[rbp], al

; 538  :         c = _MULTIPLY_DIGIT_UNIT_DIV(c, &k, &v_ptr[3], q_, &u_ptr[3]);

	mov	eax, 4
	imul	rax, rax, 3
	mov	rcx, QWORD PTR u_ptr$[rbp]
	add	rcx, rax
	mov	rax, rcx
	mov	ecx, 4
	imul	rcx, rcx, 3
	mov	rdx, QWORD PTR v_ptr$[rbp]
	add	rdx, rcx
	mov	rcx, rdx
	mov	QWORD PTR [rsp+32], rax
	mov	r9d, DWORD PTR q_$[rbp]
	mov	r8, rcx
	lea	rdx, QWORD PTR k$[rbp]
	movzx	ecx, BYTE PTR c$[rbp]
	call	_MULTIPLY_DIGIT_UNIT_DIV
	mov	BYTE PTR c$[rbp], al

; 539  :         c = _MULTIPLY_DIGIT_UNIT_DIV(c, &k, &v_ptr[4], q_, &u_ptr[4]);

	mov	eax, 4
	imul	rax, rax, 4
	mov	rcx, QWORD PTR u_ptr$[rbp]
	add	rcx, rax
	mov	rax, rcx
	mov	ecx, 4
	imul	rcx, rcx, 4
	mov	rdx, QWORD PTR v_ptr$[rbp]
	add	rdx, rcx
	mov	rcx, rdx
	mov	QWORD PTR [rsp+32], rax
	mov	r9d, DWORD PTR q_$[rbp]
	mov	r8, rcx
	lea	rdx, QWORD PTR k$[rbp]
	movzx	ecx, BYTE PTR c$[rbp]
	call	_MULTIPLY_DIGIT_UNIT_DIV
	mov	BYTE PTR c$[rbp], al

; 540  :         c = _MULTIPLY_DIGIT_UNIT_DIV(c, &k, &v_ptr[5], q_, &u_ptr[5]);

	mov	eax, 4
	imul	rax, rax, 5
	mov	rcx, QWORD PTR u_ptr$[rbp]
	add	rcx, rax
	mov	rax, rcx
	mov	ecx, 4
	imul	rcx, rcx, 5
	mov	rdx, QWORD PTR v_ptr$[rbp]
	add	rdx, rcx
	mov	rcx, rdx
	mov	QWORD PTR [rsp+32], rax
	mov	r9d, DWORD PTR q_$[rbp]
	mov	r8, rcx
	lea	rdx, QWORD PTR k$[rbp]
	movzx	ecx, BYTE PTR c$[rbp]
	call	_MULTIPLY_DIGIT_UNIT_DIV
	mov	BYTE PTR c$[rbp], al

; 541  :         c = _MULTIPLY_DIGIT_UNIT_DIV(c, &k, &v_ptr[6], q_, &u_ptr[6]);

	mov	eax, 4
	imul	rax, rax, 6
	mov	rcx, QWORD PTR u_ptr$[rbp]
	add	rcx, rax
	mov	rax, rcx
	mov	ecx, 4
	imul	rcx, rcx, 6
	mov	rdx, QWORD PTR v_ptr$[rbp]
	add	rdx, rcx
	mov	rcx, rdx
	mov	QWORD PTR [rsp+32], rax
	mov	r9d, DWORD PTR q_$[rbp]
	mov	r8, rcx
	lea	rdx, QWORD PTR k$[rbp]
	movzx	ecx, BYTE PTR c$[rbp]
	call	_MULTIPLY_DIGIT_UNIT_DIV
	mov	BYTE PTR c$[rbp], al

; 542  :         c = _MULTIPLY_DIGIT_UNIT_DIV(c, &k, &v_ptr[7], q_, &u_ptr[7]);

	mov	eax, 4
	imul	rax, rax, 7
	mov	rcx, QWORD PTR u_ptr$[rbp]
	add	rcx, rax
	mov	rax, rcx
	mov	ecx, 4
	imul	rcx, rcx, 7
	mov	rdx, QWORD PTR v_ptr$[rbp]
	add	rdx, rcx
	mov	rcx, rdx
	mov	QWORD PTR [rsp+32], rax
	mov	r9d, DWORD PTR q_$[rbp]
	mov	r8, rcx
	lea	rdx, QWORD PTR k$[rbp]
	movzx	ecx, BYTE PTR c$[rbp]
	call	_MULTIPLY_DIGIT_UNIT_DIV
	mov	BYTE PTR c$[rbp], al

; 543  :         u_ptr += 8;

	mov	rax, QWORD PTR u_ptr$[rbp]
	add	rax, 32					; 00000020H
	mov	QWORD PTR u_ptr$[rbp], rax

; 544  :         v_ptr += 8;

	mov	rax, QWORD PTR v_ptr$[rbp]
	add	rax, 32					; 00000020H
	mov	QWORD PTR v_ptr$[rbp], rax

; 545  : #ifdef ENABLED_PERFORMANCE_COUNTER
; 546  :         if (sizeof(k) == sizeof(_UINT64_T))

	xor	eax, eax
	test	eax, eax
	je	SHORT $LN10@SubtructOn

; 547  :             AddToMULTI64Counter(8);

	mov	ecx, 8
	call	AddToMULTI64Counter
	jmp	SHORT $LN11@SubtructOn
$LN10@SubtructOn:

; 548  :         else
; 549  :             AddToMULTI32Counter(8);

	mov	ecx, 8
	call	AddToMULTI32Counter
$LN11@SubtructOn:
$LN9@SubtructOn:

; 550  : #endif
; 551  :     }
; 552  : 
; 553  :     if (v_count & 0x4)

	mov	rax, QWORD PTR v_count$[rbp]
	and	rax, 4
	test	rax, rax
	je	$LN12@SubtructOn

; 554  :     {
; 555  :         c = _MULTIPLY_DIGIT_UNIT_DIV(c, &k, &v_ptr[0], q_, &u_ptr[0]);

	mov	eax, 4
	imul	rax, rax, 0
	mov	rcx, QWORD PTR u_ptr$[rbp]
	add	rcx, rax
	mov	rax, rcx
	mov	ecx, 4
	imul	rcx, rcx, 0
	mov	rdx, QWORD PTR v_ptr$[rbp]
	add	rdx, rcx
	mov	rcx, rdx
	mov	QWORD PTR [rsp+32], rax
	mov	r9d, DWORD PTR q_$[rbp]
	mov	r8, rcx
	lea	rdx, QWORD PTR k$[rbp]
	movzx	ecx, BYTE PTR c$[rbp]
	call	_MULTIPLY_DIGIT_UNIT_DIV
	mov	BYTE PTR c$[rbp], al

; 556  :         c = _MULTIPLY_DIGIT_UNIT_DIV(c, &k, &v_ptr[1], q_, &u_ptr[1]);

	mov	eax, 4
	imul	rax, rax, 1
	mov	rcx, QWORD PTR u_ptr$[rbp]
	add	rcx, rax
	mov	rax, rcx
	mov	ecx, 4
	imul	rcx, rcx, 1
	mov	rdx, QWORD PTR v_ptr$[rbp]
	add	rdx, rcx
	mov	rcx, rdx
	mov	QWORD PTR [rsp+32], rax
	mov	r9d, DWORD PTR q_$[rbp]
	mov	r8, rcx
	lea	rdx, QWORD PTR k$[rbp]
	movzx	ecx, BYTE PTR c$[rbp]
	call	_MULTIPLY_DIGIT_UNIT_DIV
	mov	BYTE PTR c$[rbp], al

; 557  :         c = _MULTIPLY_DIGIT_UNIT_DIV(c, &k, &v_ptr[2], q_, &u_ptr[2]);

	mov	eax, 4
	imul	rax, rax, 2
	mov	rcx, QWORD PTR u_ptr$[rbp]
	add	rcx, rax
	mov	rax, rcx
	mov	ecx, 4
	imul	rcx, rcx, 2
	mov	rdx, QWORD PTR v_ptr$[rbp]
	add	rdx, rcx
	mov	rcx, rdx
	mov	QWORD PTR [rsp+32], rax
	mov	r9d, DWORD PTR q_$[rbp]
	mov	r8, rcx
	lea	rdx, QWORD PTR k$[rbp]
	movzx	ecx, BYTE PTR c$[rbp]
	call	_MULTIPLY_DIGIT_UNIT_DIV
	mov	BYTE PTR c$[rbp], al

; 558  :         c = _MULTIPLY_DIGIT_UNIT_DIV(c, &k, &v_ptr[3], q_, &u_ptr[3]);

	mov	eax, 4
	imul	rax, rax, 3
	mov	rcx, QWORD PTR u_ptr$[rbp]
	add	rcx, rax
	mov	rax, rcx
	mov	ecx, 4
	imul	rcx, rcx, 3
	mov	rdx, QWORD PTR v_ptr$[rbp]
	add	rdx, rcx
	mov	rcx, rdx
	mov	QWORD PTR [rsp+32], rax
	mov	r9d, DWORD PTR q_$[rbp]
	mov	r8, rcx
	lea	rdx, QWORD PTR k$[rbp]
	movzx	ecx, BYTE PTR c$[rbp]
	call	_MULTIPLY_DIGIT_UNIT_DIV
	mov	BYTE PTR c$[rbp], al

; 559  :         u_ptr += 4;

	mov	rax, QWORD PTR u_ptr$[rbp]
	add	rax, 16
	mov	QWORD PTR u_ptr$[rbp], rax

; 560  :         v_ptr += 4;

	mov	rax, QWORD PTR v_ptr$[rbp]
	add	rax, 16
	mov	QWORD PTR v_ptr$[rbp], rax

; 561  : #ifdef ENABLED_PERFORMANCE_COUNTER
; 562  :         if (sizeof(k) == sizeof(_UINT64_T))

	xor	eax, eax
	test	eax, eax
	je	SHORT $LN13@SubtructOn

; 563  :             AddToMULTI64Counter(4);

	mov	ecx, 4
	call	AddToMULTI64Counter
	jmp	SHORT $LN14@SubtructOn
$LN13@SubtructOn:

; 564  :         else
; 565  :             AddToMULTI32Counter(4);

	mov	ecx, 4
	call	AddToMULTI32Counter
$LN14@SubtructOn:
$LN12@SubtructOn:

; 566  : #endif
; 567  :     }
; 568  : 
; 569  :     if (v_count & 0x2)

	mov	rax, QWORD PTR v_count$[rbp]
	and	rax, 2
	test	rax, rax
	je	$LN15@SubtructOn

; 570  :     {
; 571  :         c = _MULTIPLY_DIGIT_UNIT_DIV(c, &k, &v_ptr[0], q_, &u_ptr[0]);

	mov	eax, 4
	imul	rax, rax, 0
	mov	rcx, QWORD PTR u_ptr$[rbp]
	add	rcx, rax
	mov	rax, rcx
	mov	ecx, 4
	imul	rcx, rcx, 0
	mov	rdx, QWORD PTR v_ptr$[rbp]
	add	rdx, rcx
	mov	rcx, rdx
	mov	QWORD PTR [rsp+32], rax
	mov	r9d, DWORD PTR q_$[rbp]
	mov	r8, rcx
	lea	rdx, QWORD PTR k$[rbp]
	movzx	ecx, BYTE PTR c$[rbp]
	call	_MULTIPLY_DIGIT_UNIT_DIV
	mov	BYTE PTR c$[rbp], al

; 572  :         c = _MULTIPLY_DIGIT_UNIT_DIV(c, &k, &v_ptr[1], q_, &u_ptr[1]);

	mov	eax, 4
	imul	rax, rax, 1
	mov	rcx, QWORD PTR u_ptr$[rbp]
	add	rcx, rax
	mov	rax, rcx
	mov	ecx, 4
	imul	rcx, rcx, 1
	mov	rdx, QWORD PTR v_ptr$[rbp]
	add	rdx, rcx
	mov	rcx, rdx
	mov	QWORD PTR [rsp+32], rax
	mov	r9d, DWORD PTR q_$[rbp]
	mov	r8, rcx
	lea	rdx, QWORD PTR k$[rbp]
	movzx	ecx, BYTE PTR c$[rbp]
	call	_MULTIPLY_DIGIT_UNIT_DIV
	mov	BYTE PTR c$[rbp], al

; 573  :         u_ptr += 2;

	mov	rax, QWORD PTR u_ptr$[rbp]
	add	rax, 8
	mov	QWORD PTR u_ptr$[rbp], rax

; 574  :         v_ptr += 2;

	mov	rax, QWORD PTR v_ptr$[rbp]
	add	rax, 8
	mov	QWORD PTR v_ptr$[rbp], rax

; 575  : #ifdef ENABLED_PERFORMANCE_COUNTER
; 576  :         if (sizeof(k) == sizeof(_UINT64_T))

	xor	eax, eax
	test	eax, eax
	je	SHORT $LN16@SubtructOn

; 577  :             AddToMULTI64Counter(2);

	mov	ecx, 2
	call	AddToMULTI64Counter
	jmp	SHORT $LN17@SubtructOn
$LN16@SubtructOn:

; 578  :         else
; 579  :             AddToMULTI32Counter(2);

	mov	ecx, 2
	call	AddToMULTI32Counter
$LN17@SubtructOn:
$LN15@SubtructOn:

; 580  : #endif
; 581  :     }
; 582  : 
; 583  :     if (v_count & 0x1)

	mov	rax, QWORD PTR v_count$[rbp]
	and	rax, 1
	test	rax, rax
	je	SHORT $LN18@SubtructOn

; 584  :     {
; 585  :         c = _MULTIPLY_DIGIT_UNIT_DIV(c, &k, &v_ptr[0], q_, &u_ptr[0]);

	mov	eax, 4
	imul	rax, rax, 0
	mov	rcx, QWORD PTR u_ptr$[rbp]
	add	rcx, rax
	mov	rax, rcx
	mov	ecx, 4
	imul	rcx, rcx, 0
	mov	rdx, QWORD PTR v_ptr$[rbp]
	add	rdx, rcx
	mov	rcx, rdx
	mov	QWORD PTR [rsp+32], rax
	mov	r9d, DWORD PTR q_$[rbp]
	mov	r8, rcx
	lea	rdx, QWORD PTR k$[rbp]
	movzx	ecx, BYTE PTR c$[rbp]
	call	_MULTIPLY_DIGIT_UNIT_DIV
	mov	BYTE PTR c$[rbp], al

; 586  :         u_ptr += 1;

	mov	rax, QWORD PTR u_ptr$[rbp]
	add	rax, 4
	mov	QWORD PTR u_ptr$[rbp], rax

; 587  :         v_ptr += 1;

	mov	rax, QWORD PTR v_ptr$[rbp]
	add	rax, 4
	mov	QWORD PTR v_ptr$[rbp], rax

; 588  : #ifdef ENABLED_PERFORMANCE_COUNTER
; 589  :         if (sizeof(k) == sizeof(_UINT64_T))

	xor	eax, eax
	test	eax, eax
	je	SHORT $LN19@SubtructOn

; 590  :             IncrementMULTI64Counter();

	call	IncrementMULTI64Counter
	jmp	SHORT $LN20@SubtructOn
$LN19@SubtructOn:

; 591  :         else
; 592  :             IncrementMULTI32Counter();

	call	IncrementMULTI32Counter
$LN20@SubtructOn:
$LN18@SubtructOn:

; 593  : #endif
; 594  :     }
; 595  : 
; 596  :     c = _SUBTRUCT_UNIT_DIV(c, *u_ptr, k, u_ptr);

	mov	r9, QWORD PTR u_ptr$[rbp]
	mov	r8d, DWORD PTR k$[rbp]
	mov	rax, QWORD PTR u_ptr$[rbp]
	mov	edx, DWORD PTR [rax]
	movzx	ecx, BYTE PTR c$[rbp]
	call	_SUBTRUCT_UNIT_DIV
	mov	BYTE PTR c$[rbp], al

; 597  :     u_ptr += 1;

	mov	rax, QWORD PTR u_ptr$[rbp]
	add	rax, 4
	mov	QWORD PTR u_ptr$[rbp], rax

; 598  : 
; 599  :     return (DoBorrow(c, u_ptr, u_buf + u_buf_len + 1 - u_ptr));

	mov	rax, QWORD PTR u_buf$[rbp]
	mov	rcx, QWORD PTR u_buf_len$[rbp]
	lea	rax, QWORD PTR [rax+rcx*4+4]
	sub	rax, QWORD PTR u_ptr$[rbp]
	sar	rax, 2
	mov	r8, rax
	mov	rdx, QWORD PTR u_ptr$[rbp]
	movzx	ecx, BYTE PTR c$[rbp]
	call	DoBorrow

; 600  : }

	mov	rdi, rax
	lea	rcx, QWORD PTR [rbp-48]
	lea	rdx, OFFSET FLAT:SubtructOneLine$rtcFrameData
	call	_RTC_CheckStackVars
	mov	rax, rdi
	lea	rsp, QWORD PTR [rbp+392]
	pop	rdi
	pop	rbp
	ret	0
SubtructOneLine ENDP
_TEXT	ENDS
; Function compile flags: /Odtp /RTCsu /ZI
; File z:\sources\lunor\repos\rougemeilland\palmtree.math.core.implements\palmtree.math.core.implements\pmc_divrem.c
;	COMDAT _MULTIPLYX_DIGIT_UNIT_DIV
_TEXT	SEGMENT
t_hi$ = 4
t_lo$ = 36
c$ = 288
k$ = 296
vp$ = 304
q_$ = 312
up$ = 320
_MULTIPLYX_DIGIT_UNIT_DIV PROC				; COMDAT

; 441  : {

	mov	DWORD PTR [rsp+32], r9d
	mov	QWORD PTR [rsp+24], r8
	mov	QWORD PTR [rsp+16], rdx
	mov	BYTE PTR [rsp+8], cl
	push	rbp
	push	rdi
	sub	rsp, 296				; 00000128H
	lea	rbp, QWORD PTR [rsp+32]
	mov	rdi, rsp
	mov	ecx, 74					; 0000004aH
	mov	eax, -858993460				; ccccccccH
	rep stosd
	movzx	ecx, BYTE PTR [rsp+328]
	lea	rcx, OFFSET FLAT:__62F961D6_pmc_divrem@c
	call	__CheckForDebuggerJustMyCode

; 442  :     __UNIT_TYPE_DIV t_hi;
; 443  :     __UNIT_TYPE_DIV t_lo;
; 444  :     t_lo = _MULTIPLYX_UNIT_DIV(*vp, q_, &t_hi);

	lea	r8, QWORD PTR t_hi$[rbp]
	mov	edx, DWORD PTR q_$[rbp]
	mov	rax, QWORD PTR vp$[rbp]
	mov	ecx, DWORD PTR [rax]
	call	_MULTIPLYX_UNIT_DIV
	mov	DWORD PTR t_lo$[rbp], eax

; 445  :     _ADDX_UNIT_DIV(_ADDX_UNIT_DIV(0, t_lo, *k, &t_lo), t_hi, 0, &t_hi);

	lea	r9, QWORD PTR t_lo$[rbp]
	mov	rax, QWORD PTR k$[rbp]
	mov	r8d, DWORD PTR [rax]
	mov	edx, DWORD PTR t_lo$[rbp]
	xor	ecx, ecx
	call	_ADDX_UNIT_DIV
	lea	r9, QWORD PTR t_hi$[rbp]
	xor	r8d, r8d
	mov	edx, DWORD PTR t_hi$[rbp]
	movzx	ecx, al
	call	_ADDX_UNIT_DIV

; 446  :     c = _SUBTRUCT_UNIT_DIV(c, *up, t_lo, up);

	mov	r9, QWORD PTR up$[rbp]
	mov	r8d, DWORD PTR t_lo$[rbp]
	mov	rax, QWORD PTR up$[rbp]
	mov	edx, DWORD PTR [rax]
	movzx	ecx, BYTE PTR c$[rbp]
	call	_SUBTRUCT_UNIT_DIV
	mov	BYTE PTR c$[rbp], al

; 447  :     *k = t_hi;

	mov	rax, QWORD PTR k$[rbp]
	mov	ecx, DWORD PTR t_hi$[rbp]
	mov	DWORD PTR [rax], ecx

; 448  :     return (c);

	movzx	eax, BYTE PTR c$[rbp]

; 449  : }

	mov	edi, eax
	lea	rcx, QWORD PTR [rbp-32]
	lea	rdx, OFFSET FLAT:_MULTIPLYX_DIGIT_UNIT_DIV$rtcFrameData
	call	_RTC_CheckStackVars
	mov	eax, edi
	lea	rsp, QWORD PTR [rbp+264]
	pop	rdi
	pop	rbp
	ret	0
_MULTIPLYX_DIGIT_UNIT_DIV ENDP
_TEXT	ENDS
; Function compile flags: /Odtp /RTCsu /ZI
; File z:\sources\lunor\repos\rougemeilland\palmtree.math.core.implements\palmtree.math.core.implements\pmc_divrem.c
;	COMDAT _MULTIPLY_DIGIT_UNIT_DIV
_TEXT	SEGMENT
t_hi$ = 4
t_lo$ = 36
c$ = 288
k$ = 296
vp$ = 304
q_$ = 312
up$ = 320
_MULTIPLY_DIGIT_UNIT_DIV PROC				; COMDAT

; 430  : {

	mov	DWORD PTR [rsp+32], r9d
	mov	QWORD PTR [rsp+24], r8
	mov	QWORD PTR [rsp+16], rdx
	mov	BYTE PTR [rsp+8], cl
	push	rbp
	push	rdi
	sub	rsp, 296				; 00000128H
	lea	rbp, QWORD PTR [rsp+32]
	mov	rdi, rsp
	mov	ecx, 74					; 0000004aH
	mov	eax, -858993460				; ccccccccH
	rep stosd
	movzx	ecx, BYTE PTR [rsp+328]
	lea	rcx, OFFSET FLAT:__62F961D6_pmc_divrem@c
	call	__CheckForDebuggerJustMyCode

; 431  :     __UNIT_TYPE_DIV t_hi;
; 432  :     __UNIT_TYPE_DIV t_lo;
; 433  :     t_lo = _MULTIPLY_UNIT_DIV(*vp, q_, &t_hi);

	lea	r8, QWORD PTR t_hi$[rbp]
	mov	edx, DWORD PTR q_$[rbp]
	mov	rax, QWORD PTR vp$[rbp]
	mov	ecx, DWORD PTR [rax]
	call	_MULTIPLY_UNIT_DIV
	mov	DWORD PTR t_lo$[rbp], eax

; 434  :     _ADD_UNIT_DIV(_ADD_UNIT_DIV(0, t_lo, *k, &t_lo), t_hi, 0, &t_hi);

	lea	r9, QWORD PTR t_lo$[rbp]
	mov	rax, QWORD PTR k$[rbp]
	mov	r8d, DWORD PTR [rax]
	mov	edx, DWORD PTR t_lo$[rbp]
	xor	ecx, ecx
	call	_ADD_UNIT_DIV
	lea	r9, QWORD PTR t_hi$[rbp]
	xor	r8d, r8d
	mov	edx, DWORD PTR t_hi$[rbp]
	movzx	ecx, al
	call	_ADD_UNIT_DIV

; 435  :     c = _SUBTRUCT_UNIT_DIV(c, *up, t_lo, up);

	mov	r9, QWORD PTR up$[rbp]
	mov	r8d, DWORD PTR t_lo$[rbp]
	mov	rax, QWORD PTR up$[rbp]
	mov	edx, DWORD PTR [rax]
	movzx	ecx, BYTE PTR c$[rbp]
	call	_SUBTRUCT_UNIT_DIV
	mov	BYTE PTR c$[rbp], al

; 436  :     *k = t_hi;

	mov	rax, QWORD PTR k$[rbp]
	mov	ecx, DWORD PTR t_hi$[rbp]
	mov	DWORD PTR [rax], ecx

; 437  :     return (c);

	movzx	eax, BYTE PTR c$[rbp]

; 438  : }

	mov	edi, eax
	lea	rcx, QWORD PTR [rbp-32]
	lea	rdx, OFFSET FLAT:_MULTIPLY_DIGIT_UNIT_DIV$rtcFrameData
	call	_RTC_CheckStackVars
	mov	eax, edi
	lea	rsp, QWORD PTR [rbp+264]
	pop	rdi
	pop	rbp
	ret	0
_MULTIPLY_DIGIT_UNIT_DIV ENDP
_TEXT	ENDS
; Function compile flags: /Odtp /RTCsu /ZI
; File z:\sources\lunor\repos\rougemeilland\palmtree.math.core.implements\palmtree.math.core.implements\pmc_divrem.c
;	COMDAT DoBorrow
_TEXT	SEGMENT
c$ = 224
up$ = 232
u_count$ = 240
DoBorrow PROC						; COMDAT

; 390  : {

	mov	QWORD PTR [rsp+24], r8
	mov	QWORD PTR [rsp+16], rdx
	mov	BYTE PTR [rsp+8], cl
	push	rbp
	push	rdi
	sub	rsp, 232				; 000000e8H
	lea	rbp, QWORD PTR [rsp+32]
	mov	rdi, rsp
	mov	ecx, 58					; 0000003aH
	mov	eax, -858993460				; ccccccccH
	rep stosd
	movzx	ecx, BYTE PTR [rsp+264]
	lea	rcx, OFFSET FLAT:__62F961D6_pmc_divrem@c
	call	__CheckForDebuggerJustMyCode
$LN2@DoBorrow:

; 391  :     // 桁借りを続く限り行う
; 392  :     for (;;)
; 393  :     {
; 394  :         if (u_count <= 0)

	cmp	QWORD PTR u_count$[rbp], 0
	ja	SHORT $LN5@DoBorrow

; 395  :         {
; 396  :             // u の最上位まで達してしまった場合
; 397  : 
; 398  :             if (c)

	movsx	eax, BYTE PTR c$[rbp]
	test	eax, eax
	je	SHORT $LN7@DoBorrow

; 399  :             {
; 400  :                 // かつそれでも桁借りを行う必要がある場合
; 401  : 
; 402  :                 // 減算結果が負になってしまったので呼び出し元に通知する。
; 403  :                 return (TRUE);

	mov	eax, 1
	jmp	SHORT $LN1@DoBorrow
$LN7@DoBorrow:

; 404  :             }
; 405  : 
; 406  :             // u の最上位に達してしまった場合はいずれにしろループを中断して正常復帰する。
; 407  : 
; 408  :             return (FALSE);

	xor	eax, eax
	jmp	SHORT $LN1@DoBorrow

; 409  :         }

	jmp	SHORT $LN6@DoBorrow
$LN5@DoBorrow:

; 410  :         else if (c)

	movsx	eax, BYTE PTR c$[rbp]
	test	eax, eax
	je	SHORT $LN8@DoBorrow

; 411  :         {
; 412  :             // u の最上位に達しておらず、かつボローが立っている場合
; 413  : 
; 414  :             // 桁借りを継続する
; 415  :             c = _SUBTRUCT_UNIT_DIV(c, *up, 0, up);

	mov	r9, QWORD PTR up$[rbp]
	xor	r8d, r8d
	mov	rax, QWORD PTR up$[rbp]
	mov	edx, DWORD PTR [rax]
	movzx	ecx, BYTE PTR c$[rbp]
	call	_SUBTRUCT_UNIT_DIV
	mov	BYTE PTR c$[rbp], al

; 416  :             ++up;

	mov	rax, QWORD PTR up$[rbp]
	add	rax, 4
	mov	QWORD PTR up$[rbp], rax

; 417  :             --u_count;

	mov	rax, QWORD PTR u_count$[rbp]
	dec	rax
	mov	QWORD PTR u_count$[rbp], rax

; 418  :         }

	jmp	SHORT $LN9@DoBorrow
$LN8@DoBorrow:

; 419  :         else
; 420  :         {
; 421  :             // u の最上位に達しておらず、かつボローが立っていない場合
; 422  : 
; 423  :             // 桁借りを中断し復帰する。
; 424  :             return (FALSE);

	xor	eax, eax
	jmp	SHORT $LN1@DoBorrow
$LN9@DoBorrow:
$LN6@DoBorrow:

; 425  :         }
; 426  :     }

	jmp	SHORT $LN2@DoBorrow
$LN1@DoBorrow:

; 427  : }

	lea	rsp, QWORD PTR [rbp+200]
	pop	rdi
	pop	rbp
	ret	0
DoBorrow ENDP
_TEXT	ENDS
; Function compile flags: /Odtp /RTCsu /ZI
; File z:\sources\lunor\repos\rougemeilland\palmtree.math.core.implements\palmtree.math.core.implements\pmc_divrem.c
;	COMDAT CalculateQ_X
_TEXT	SEGMENT
u_index$ = 8
uj$ = 36
uj_1$ = 68
uj_2$ = 100
v1$ = 132
v2$ = 164
q_$ = 196
u_buf$ = 448
v_buf$ = 456
v_buf_len$ = 464
q_index$ = 472
CalculateQ_X PROC					; COMDAT

; 365  : {

	mov	QWORD PTR [rsp+32], r9
	mov	QWORD PTR [rsp+24], r8
	mov	QWORD PTR [rsp+16], rdx
	mov	QWORD PTR [rsp+8], rcx
	push	rbp
	push	rdi
	sub	rsp, 472				; 000001d8H
	lea	rbp, QWORD PTR [rsp+48]
	mov	rdi, rsp
	mov	ecx, 118				; 00000076H
	mov	eax, -858993460				; ccccccccH
	rep stosd
	mov	rcx, QWORD PTR [rsp+504]
	lea	rcx, OFFSET FLAT:__62F961D6_pmc_divrem@c
	call	__CheckForDebuggerJustMyCode

; 366  :     __UNIT_TYPE u_index = q_index + v_buf_len;

	mov	rax, QWORD PTR v_buf_len$[rbp]
	mov	rcx, QWORD PTR q_index$[rbp]
	add	rcx, rax
	mov	rax, rcx
	mov	QWORD PTR u_index$[rbp], rax

; 367  :     __UNIT_TYPE_DIV uj = u_buf[u_index];

	mov	rax, QWORD PTR u_buf$[rbp]
	mov	rcx, QWORD PTR u_index$[rbp]
	mov	eax, DWORD PTR [rax+rcx*4]
	mov	DWORD PTR uj$[rbp], eax

; 368  :     __UNIT_TYPE_DIV uj_1 = u_buf[u_index - 1];

	mov	rax, QWORD PTR u_buf$[rbp]
	mov	rcx, QWORD PTR u_index$[rbp]
	mov	eax, DWORD PTR [rax+rcx*4-4]
	mov	DWORD PTR uj_1$[rbp], eax

; 369  :     __UNIT_TYPE_DIV uj_2 = u_buf[u_index - 2];

	mov	rax, QWORD PTR u_buf$[rbp]
	mov	rcx, QWORD PTR u_index$[rbp]
	mov	eax, DWORD PTR [rax+rcx*4-8]
	mov	DWORD PTR uj_2$[rbp], eax

; 370  :     __UNIT_TYPE_DIV v1 = v_buf[v_buf_len - 1];

	mov	rax, QWORD PTR v_buf$[rbp]
	mov	rcx, QWORD PTR v_buf_len$[rbp]
	mov	eax, DWORD PTR [rax+rcx*4-4]
	mov	DWORD PTR v1$[rbp], eax

; 371  :     __UNIT_TYPE_DIV v2 = v_buf[v_buf_len - 2];

	mov	rax, QWORD PTR v_buf$[rbp]
	mov	rcx, QWORD PTR v_buf_len$[rbp]
	mov	eax, DWORD PTR [rax+rcx*4-8]
	mov	DWORD PTR v2$[rbp], eax

; 372  :     __UNIT_TYPE_DIV q_ = AsumeQ_(uj, uj_1, v1);

	mov	r8d, DWORD PTR v1$[rbp]
	mov	edx, DWORD PTR uj_1$[rbp]
	mov	ecx, DWORD PTR uj$[rbp]
	call	AsumeQ_
	mov	DWORD PTR q_$[rbp], eax

; 373  : #ifdef DO_TRACE
; 374  :     ReportLabel("q_ の計算");
; 375  :     ReportVar("uj", uj);
; 376  :     ReportVar("uj1", uj_1);
; 377  :     ReportVar("v1", v1);
; 378  :     ReportVar("q_", q_);
; 379  : #endif
; 380  :     if (!CheckQ_X(q_, uj, uj_1, uj_2, v1, v2))

	mov	eax, DWORD PTR v2$[rbp]
	mov	DWORD PTR [rsp+40], eax
	mov	eax, DWORD PTR v1$[rbp]
	mov	DWORD PTR [rsp+32], eax
	mov	r9d, DWORD PTR uj_2$[rbp]
	mov	r8d, DWORD PTR uj_1$[rbp]
	mov	edx, DWORD PTR uj$[rbp]
	mov	ecx, DWORD PTR q_$[rbp]
	call	CheckQ_X
	test	eax, eax
	jne	SHORT $LN2@CalculateQ

; 381  :         return (q_);

	mov	eax, DWORD PTR q_$[rbp]
	jmp	SHORT $LN1@CalculateQ
$LN2@CalculateQ:

; 382  :     --q_;

	mov	eax, DWORD PTR q_$[rbp]
	dec	eax
	mov	DWORD PTR q_$[rbp], eax

; 383  :     if (!CheckQ_X(q_, uj, uj_1, uj_2, v1, v2))

	mov	eax, DWORD PTR v2$[rbp]
	mov	DWORD PTR [rsp+40], eax
	mov	eax, DWORD PTR v1$[rbp]
	mov	DWORD PTR [rsp+32], eax
	mov	r9d, DWORD PTR uj_2$[rbp]
	mov	r8d, DWORD PTR uj_1$[rbp]
	mov	edx, DWORD PTR uj$[rbp]
	mov	ecx, DWORD PTR q_$[rbp]
	call	CheckQ_X
	test	eax, eax
	jne	SHORT $LN3@CalculateQ

; 384  :         return (q_);

	mov	eax, DWORD PTR q_$[rbp]
	jmp	SHORT $LN1@CalculateQ
$LN3@CalculateQ:

; 385  :     --q_;

	mov	eax, DWORD PTR q_$[rbp]
	dec	eax
	mov	DWORD PTR q_$[rbp], eax

; 386  :     return (q_);

	mov	eax, DWORD PTR q_$[rbp]
$LN1@CalculateQ:

; 387  : }

	lea	rsp, QWORD PTR [rbp+424]
	pop	rdi
	pop	rbp
	ret	0
CalculateQ_X ENDP
_TEXT	ENDS
; Function compile flags: /Odtp /RTCsu /ZI
; File z:\sources\lunor\repos\rougemeilland\palmtree.math.core.implements\palmtree.math.core.implements\pmc_divrem.c
;	COMDAT CalculateQ_
_TEXT	SEGMENT
u_index$ = 8
uj$ = 36
uj_1$ = 68
uj_2$ = 100
v1$ = 132
v2$ = 164
q_$ = 196
u_buf$ = 448
v_buf$ = 456
v_buf_len$ = 464
q_index$ = 472
CalculateQ_ PROC					; COMDAT

; 347  : {

	mov	QWORD PTR [rsp+32], r9
	mov	QWORD PTR [rsp+24], r8
	mov	QWORD PTR [rsp+16], rdx
	mov	QWORD PTR [rsp+8], rcx
	push	rbp
	push	rdi
	sub	rsp, 472				; 000001d8H
	lea	rbp, QWORD PTR [rsp+48]
	mov	rdi, rsp
	mov	ecx, 118				; 00000076H
	mov	eax, -858993460				; ccccccccH
	rep stosd
	mov	rcx, QWORD PTR [rsp+504]
	lea	rcx, OFFSET FLAT:__62F961D6_pmc_divrem@c
	call	__CheckForDebuggerJustMyCode

; 348  :     __UNIT_TYPE u_index = q_index + v_buf_len;

	mov	rax, QWORD PTR v_buf_len$[rbp]
	mov	rcx, QWORD PTR q_index$[rbp]
	add	rcx, rax
	mov	rax, rcx
	mov	QWORD PTR u_index$[rbp], rax

; 349  :     __UNIT_TYPE_DIV uj = u_buf[u_index];

	mov	rax, QWORD PTR u_buf$[rbp]
	mov	rcx, QWORD PTR u_index$[rbp]
	mov	eax, DWORD PTR [rax+rcx*4]
	mov	DWORD PTR uj$[rbp], eax

; 350  :     __UNIT_TYPE_DIV uj_1 = u_buf[u_index - 1];

	mov	rax, QWORD PTR u_buf$[rbp]
	mov	rcx, QWORD PTR u_index$[rbp]
	mov	eax, DWORD PTR [rax+rcx*4-4]
	mov	DWORD PTR uj_1$[rbp], eax

; 351  :     __UNIT_TYPE_DIV uj_2 = u_buf[u_index - 2];

	mov	rax, QWORD PTR u_buf$[rbp]
	mov	rcx, QWORD PTR u_index$[rbp]
	mov	eax, DWORD PTR [rax+rcx*4-8]
	mov	DWORD PTR uj_2$[rbp], eax

; 352  :     __UNIT_TYPE_DIV v1 = v_buf[v_buf_len - 1];

	mov	rax, QWORD PTR v_buf$[rbp]
	mov	rcx, QWORD PTR v_buf_len$[rbp]
	mov	eax, DWORD PTR [rax+rcx*4-4]
	mov	DWORD PTR v1$[rbp], eax

; 353  :     __UNIT_TYPE_DIV v2 = v_buf[v_buf_len - 2];

	mov	rax, QWORD PTR v_buf$[rbp]
	mov	rcx, QWORD PTR v_buf_len$[rbp]
	mov	eax, DWORD PTR [rax+rcx*4-8]
	mov	DWORD PTR v2$[rbp], eax

; 354  :     __UNIT_TYPE_DIV q_ = AsumeQ_(uj, uj_1, v1);

	mov	r8d, DWORD PTR v1$[rbp]
	mov	edx, DWORD PTR uj_1$[rbp]
	mov	ecx, DWORD PTR uj$[rbp]
	call	AsumeQ_
	mov	DWORD PTR q_$[rbp], eax

; 355  :     if (!CheckQ_(q_, uj, uj_1, uj_2, v1, v2))

	mov	eax, DWORD PTR v2$[rbp]
	mov	DWORD PTR [rsp+40], eax
	mov	eax, DWORD PTR v1$[rbp]
	mov	DWORD PTR [rsp+32], eax
	mov	r9d, DWORD PTR uj_2$[rbp]
	mov	r8d, DWORD PTR uj_1$[rbp]
	mov	edx, DWORD PTR uj$[rbp]
	mov	ecx, DWORD PTR q_$[rbp]
	call	CheckQ_
	test	eax, eax
	jne	SHORT $LN2@CalculateQ

; 356  :         return (q_);

	mov	eax, DWORD PTR q_$[rbp]
	jmp	SHORT $LN1@CalculateQ
$LN2@CalculateQ:

; 357  :     --q_;

	mov	eax, DWORD PTR q_$[rbp]
	dec	eax
	mov	DWORD PTR q_$[rbp], eax

; 358  :     if (!CheckQ_(q_, uj, uj_1, uj_2, v1, v2))

	mov	eax, DWORD PTR v2$[rbp]
	mov	DWORD PTR [rsp+40], eax
	mov	eax, DWORD PTR v1$[rbp]
	mov	DWORD PTR [rsp+32], eax
	mov	r9d, DWORD PTR uj_2$[rbp]
	mov	r8d, DWORD PTR uj_1$[rbp]
	mov	edx, DWORD PTR uj$[rbp]
	mov	ecx, DWORD PTR q_$[rbp]
	call	CheckQ_
	test	eax, eax
	jne	SHORT $LN3@CalculateQ

; 359  :         return (q_);

	mov	eax, DWORD PTR q_$[rbp]
	jmp	SHORT $LN1@CalculateQ
$LN3@CalculateQ:

; 360  :     --q_;

	mov	eax, DWORD PTR q_$[rbp]
	dec	eax
	mov	DWORD PTR q_$[rbp], eax

; 361  :     return (q_);

	mov	eax, DWORD PTR q_$[rbp]
$LN1@CalculateQ:

; 362  : }

	lea	rsp, QWORD PTR [rbp+424]
	pop	rdi
	pop	rbp
	ret	0
CalculateQ_ ENDP
_TEXT	ENDS
; Function compile flags: /Odtp /RTCsu /ZI
; File z:\sources\lunor\repos\rougemeilland\palmtree.math.core.implements\palmtree.math.core.implements\pmc_divrem.c
;	COMDAT CheckQ_X
_TEXT	SEGMENT
lh_mi$ = 4
lh_lo$ = 36
rh_hi$ = 68
rh_mi$ = 100
rh_lo$ = 132
t_hi$ = 164
t_mi$ = 196
tv88 = 404
q_$ = 448
uj$ = 456
uj_1$ = 464
uj_2$ = 472
v1$ = 480
v2$ = 488
CheckQ_X PROC						; COMDAT

; 290  : {

	mov	DWORD PTR [rsp+32], r9d
	mov	DWORD PTR [rsp+24], r8d
	mov	DWORD PTR [rsp+16], edx
	mov	DWORD PTR [rsp+8], ecx
	push	rbp
	push	rdi
	sub	rsp, 456				; 000001c8H
	lea	rbp, QWORD PTR [rsp+32]
	mov	rdi, rsp
	mov	ecx, 114				; 00000072H
	mov	eax, -858993460				; ccccccccH
	rep stosd
	mov	ecx, DWORD PTR [rsp+488]
	lea	rcx, OFFSET FLAT:__62F961D6_pmc_divrem@c
	call	__CheckForDebuggerJustMyCode

; 291  : #ifdef DO_TRACE
; 292  :     ReportLabel("q_ の検査");
; 293  :     ReportVar("q_", q_);
; 294  :     ReportVar("uj", uj);
; 295  :     ReportVar("uj1", uj_1);
; 296  :     ReportVar("uj2", uj_2);
; 297  :     ReportVar("v1", v1);
; 298  :     ReportVar("v2", v2);
; 299  : #endif
; 300  :     __UNIT_TYPE_DIV lh_mi;
; 301  :     __UNIT_TYPE_DIV lh_lo = _MULTIPLYX_UNIT_DIV(v2, q_, &lh_mi);

	lea	r8, QWORD PTR lh_mi$[rbp]
	mov	edx, DWORD PTR q_$[rbp]
	mov	ecx, DWORD PTR v2$[rbp]
	call	_MULTIPLYX_UNIT_DIV
	mov	DWORD PTR lh_lo$[rbp], eax

; 302  :     __UNIT_TYPE_DIV rh_hi;
; 303  :     __UNIT_TYPE_DIV rh_mi;
; 304  :     __UNIT_TYPE_DIV rh_lo = uj_2;

	mov	eax, DWORD PTR uj_2$[rbp]
	mov	DWORD PTR rh_lo$[rbp], eax

; 305  :     __UNIT_TYPE_DIV t_hi;
; 306  :     __UNIT_TYPE_DIV t_mi = _MULTIPLYX_UNIT_DIV(q_, v1, &t_hi);

	lea	r8, QWORD PTR t_hi$[rbp]
	mov	edx, DWORD PTR v1$[rbp]
	mov	ecx, DWORD PTR q_$[rbp]
	call	_MULTIPLYX_UNIT_DIV
	mov	DWORD PTR t_mi$[rbp], eax

; 307  : 
; 308  :     _SUBTRUCT_UNIT_DIV(_SUBTRUCT_UNIT_DIV(0, uj_1, t_mi, &rh_mi), uj, t_hi, &rh_hi);

	lea	r9, QWORD PTR rh_mi$[rbp]
	mov	r8d, DWORD PTR t_mi$[rbp]
	mov	edx, DWORD PTR uj_1$[rbp]
	xor	ecx, ecx
	call	_SUBTRUCT_UNIT_DIV
	lea	r9, QWORD PTR rh_hi$[rbp]
	mov	r8d, DWORD PTR t_hi$[rbp]
	mov	edx, DWORD PTR uj$[rbp]
	movzx	ecx, al
	call	_SUBTRUCT_UNIT_DIV

; 309  : 
; 310  : #ifdef ENABLED_PERFORMANCE_COUNTER
; 311  :     if (sizeof(q_) == sizeof(_UINT64_T))

	xor	eax, eax
	test	eax, eax
	je	SHORT $LN2@CheckQ_X

; 312  :         AddToMULTI64Counter(2);

	mov	ecx, 2
	call	AddToMULTI64Counter
	jmp	SHORT $LN3@CheckQ_X
$LN2@CheckQ_X:

; 313  :     else
; 314  :         AddToMULTI32Counter(2);

	mov	ecx, 2
	call	AddToMULTI32Counter
$LN3@CheckQ_X:

; 315  : #endif
; 316  :     if (rh_hi > 0)

	cmp	DWORD PTR rh_hi$[rbp], 0
	jbe	SHORT $LN4@CheckQ_X

; 317  :     {
; 318  : #ifdef DO_TRACE
; 319  :         ReportVar("result", 0);
; 320  : #endif
; 321  :         return (FALSE);

	xor	eax, eax
	jmp	SHORT $LN1@CheckQ_X

; 322  :     }

	jmp	SHORT $LN5@CheckQ_X
$LN4@CheckQ_X:

; 323  :     else if (lh_mi > rh_mi)

	mov	eax, DWORD PTR rh_mi$[rbp]
	cmp	DWORD PTR lh_mi$[rbp], eax
	jbe	SHORT $LN6@CheckQ_X

; 324  :     {
; 325  : #ifdef DO_TRACE
; 326  :         ReportVar("result", 1);
; 327  : #endif
; 328  :         return (TRUE);

	mov	eax, 1
	jmp	SHORT $LN1@CheckQ_X

; 329  :     }

	jmp	SHORT $LN7@CheckQ_X
$LN6@CheckQ_X:

; 330  :     else if (lh_mi < rh_mi)

	mov	eax, DWORD PTR rh_mi$[rbp]
	cmp	DWORD PTR lh_mi$[rbp], eax
	jae	SHORT $LN8@CheckQ_X

; 331  :     {
; 332  : #ifdef DO_TRACE
; 333  :         ReportVar("result", 0);
; 334  : #endif
; 335  :         return (FALSE);

	xor	eax, eax
	jmp	SHORT $LN1@CheckQ_X

; 336  :     }

	jmp	SHORT $LN9@CheckQ_X
$LN8@CheckQ_X:

; 337  :     else
; 338  :     {
; 339  : #ifdef DO_TRACE
; 340  :         ReportVar("result", lh_lo > rh_lo);
; 341  : #endif
; 342  :         return (lh_lo > rh_lo);

	mov	eax, DWORD PTR rh_lo$[rbp]
	cmp	DWORD PTR lh_lo$[rbp], eax
	jbe	SHORT $LN11@CheckQ_X
	mov	DWORD PTR tv88[rbp], 1
	jmp	SHORT $LN12@CheckQ_X
$LN11@CheckQ_X:
	mov	DWORD PTR tv88[rbp], 0
$LN12@CheckQ_X:
	mov	eax, DWORD PTR tv88[rbp]
$LN9@CheckQ_X:
$LN7@CheckQ_X:
$LN5@CheckQ_X:
$LN1@CheckQ_X:

; 343  :     }
; 344  : }

	mov	rdi, rax
	lea	rcx, QWORD PTR [rbp-32]
	lea	rdx, OFFSET FLAT:CheckQ_X$rtcFrameData
	call	_RTC_CheckStackVars
	mov	rax, rdi
	lea	rsp, QWORD PTR [rbp+424]
	pop	rdi
	pop	rbp
	ret	0
CheckQ_X ENDP
_TEXT	ENDS
; Function compile flags: /Odtp /RTCsu /ZI
; File z:\sources\lunor\repos\rougemeilland\palmtree.math.core.implements\palmtree.math.core.implements\pmc_divrem.c
;	COMDAT CheckQ_
_TEXT	SEGMENT
lh_mi$ = 4
lh_lo$ = 36
rh_hi$ = 68
rh_mi$ = 100
rh_lo$ = 132
t_hi$ = 164
t_mi$ = 196
tv88 = 404
q_$ = 448
uj$ = 456
uj_1$ = 464
uj_2$ = 472
v1$ = 480
v2$ = 488
CheckQ_	PROC						; COMDAT

; 263  : {

	mov	DWORD PTR [rsp+32], r9d
	mov	DWORD PTR [rsp+24], r8d
	mov	DWORD PTR [rsp+16], edx
	mov	DWORD PTR [rsp+8], ecx
	push	rbp
	push	rdi
	sub	rsp, 456				; 000001c8H
	lea	rbp, QWORD PTR [rsp+32]
	mov	rdi, rsp
	mov	ecx, 114				; 00000072H
	mov	eax, -858993460				; ccccccccH
	rep stosd
	mov	ecx, DWORD PTR [rsp+488]
	lea	rcx, OFFSET FLAT:__62F961D6_pmc_divrem@c
	call	__CheckForDebuggerJustMyCode

; 264  :     __UNIT_TYPE_DIV lh_mi;
; 265  :     __UNIT_TYPE_DIV lh_lo = _MULTIPLY_UNIT_DIV(v2, q_, &lh_mi);

	lea	r8, QWORD PTR lh_mi$[rbp]
	mov	edx, DWORD PTR q_$[rbp]
	mov	ecx, DWORD PTR v2$[rbp]
	call	_MULTIPLY_UNIT_DIV
	mov	DWORD PTR lh_lo$[rbp], eax

; 266  :     __UNIT_TYPE_DIV rh_hi;
; 267  :     __UNIT_TYPE_DIV rh_mi;
; 268  :     __UNIT_TYPE_DIV rh_lo = uj_2;

	mov	eax, DWORD PTR uj_2$[rbp]
	mov	DWORD PTR rh_lo$[rbp], eax

; 269  :     __UNIT_TYPE_DIV t_hi;
; 270  :     __UNIT_TYPE_DIV t_mi = _MULTIPLY_UNIT_DIV(q_, v1, &t_hi);

	lea	r8, QWORD PTR t_hi$[rbp]
	mov	edx, DWORD PTR v1$[rbp]
	mov	ecx, DWORD PTR q_$[rbp]
	call	_MULTIPLY_UNIT_DIV
	mov	DWORD PTR t_mi$[rbp], eax

; 271  :     _SUBTRUCT_UNIT_DIV(_SUBTRUCT_UNIT_DIV(0, uj_1, t_mi, &rh_mi), uj, t_hi, &rh_hi);

	lea	r9, QWORD PTR rh_mi$[rbp]
	mov	r8d, DWORD PTR t_mi$[rbp]
	mov	edx, DWORD PTR uj_1$[rbp]
	xor	ecx, ecx
	call	_SUBTRUCT_UNIT_DIV
	lea	r9, QWORD PTR rh_hi$[rbp]
	mov	r8d, DWORD PTR t_hi$[rbp]
	mov	edx, DWORD PTR uj$[rbp]
	movzx	ecx, al
	call	_SUBTRUCT_UNIT_DIV

; 272  : 
; 273  : #ifdef ENABLED_PERFORMANCE_COUNTER
; 274  :     if (sizeof(q_) == sizeof(_UINT64_T))

	xor	eax, eax
	test	eax, eax
	je	SHORT $LN2@CheckQ_

; 275  :         AddToMULTI64Counter(2);

	mov	ecx, 2
	call	AddToMULTI64Counter
	jmp	SHORT $LN3@CheckQ_
$LN2@CheckQ_:

; 276  :     else
; 277  :         AddToMULTI32Counter(2);

	mov	ecx, 2
	call	AddToMULTI32Counter
$LN3@CheckQ_:

; 278  : #endif
; 279  :     if (rh_hi > 0)

	cmp	DWORD PTR rh_hi$[rbp], 0
	jbe	SHORT $LN4@CheckQ_

; 280  :         return (FALSE);

	xor	eax, eax
	jmp	SHORT $LN1@CheckQ_
	jmp	SHORT $LN5@CheckQ_
$LN4@CheckQ_:

; 281  :     else if (lh_mi > rh_mi)

	mov	eax, DWORD PTR rh_mi$[rbp]
	cmp	DWORD PTR lh_mi$[rbp], eax
	jbe	SHORT $LN6@CheckQ_

; 282  :         return (TRUE);

	mov	eax, 1
	jmp	SHORT $LN1@CheckQ_
	jmp	SHORT $LN7@CheckQ_
$LN6@CheckQ_:

; 283  :     else if (lh_mi < rh_mi)

	mov	eax, DWORD PTR rh_mi$[rbp]
	cmp	DWORD PTR lh_mi$[rbp], eax
	jae	SHORT $LN8@CheckQ_

; 284  :         return (FALSE);

	xor	eax, eax
	jmp	SHORT $LN1@CheckQ_
	jmp	SHORT $LN9@CheckQ_
$LN8@CheckQ_:

; 285  :     else
; 286  :         return (lh_lo > rh_lo);

	mov	eax, DWORD PTR rh_lo$[rbp]
	cmp	DWORD PTR lh_lo$[rbp], eax
	jbe	SHORT $LN11@CheckQ_
	mov	DWORD PTR tv88[rbp], 1
	jmp	SHORT $LN12@CheckQ_
$LN11@CheckQ_:
	mov	DWORD PTR tv88[rbp], 0
$LN12@CheckQ_:
	mov	eax, DWORD PTR tv88[rbp]
$LN9@CheckQ_:
$LN7@CheckQ_:
$LN5@CheckQ_:
$LN1@CheckQ_:

; 287  : }

	mov	rdi, rax
	lea	rcx, QWORD PTR [rbp-32]
	lea	rdx, OFFSET FLAT:CheckQ_$rtcFrameData
	call	_RTC_CheckStackVars
	mov	rax, rdi
	lea	rsp, QWORD PTR [rbp+424]
	pop	rdi
	pop	rbp
	ret	0
CheckQ_	ENDP
_TEXT	ENDS
; Function compile flags: /Odtp /RTCsu /ZI
; File z:\sources\lunor\repos\rougemeilland\palmtree.math.core.implements\palmtree.math.core.implements\pmc_divrem.c
;	COMDAT AsumeQ_
_TEXT	SEGMENT
r$ = 4
q$ = 36
uj$ = 288
uj_1$ = 296
v1$ = 304
AsumeQ_	PROC						; COMDAT

; 248  : {

	mov	DWORD PTR [rsp+24], r8d
	mov	DWORD PTR [rsp+16], edx
	mov	DWORD PTR [rsp+8], ecx
	push	rbp
	push	rdi
	sub	rsp, 296				; 00000128H
	lea	rbp, QWORD PTR [rsp+32]
	mov	rdi, rsp
	mov	ecx, 74					; 0000004aH
	mov	eax, -858993460				; ccccccccH
	rep stosd
	mov	ecx, DWORD PTR [rsp+328]
	lea	rcx, OFFSET FLAT:__62F961D6_pmc_divrem@c
	call	__CheckForDebuggerJustMyCode

; 249  :     if (uj == v1)

	mov	eax, DWORD PTR v1$[rbp]
	cmp	DWORD PTR uj$[rbp], eax
	jne	SHORT $LN2@AsumeQ_

; 250  :         return (-1);

	mov	eax, -1					; ffffffffH
	jmp	SHORT $LN1@AsumeQ_
$LN2@AsumeQ_:

; 251  :     __UNIT_TYPE_DIV r;
; 252  :     __UNIT_TYPE_DIV q = _DIVREM_UNIT(uj, uj_1, v1, &r);

	lea	r9, QWORD PTR r$[rbp]
	mov	r8d, DWORD PTR v1$[rbp]
	mov	edx, DWORD PTR uj_1$[rbp]
	mov	ecx, DWORD PTR uj$[rbp]
	call	_DIVREM_UNIT
	mov	DWORD PTR q$[rbp], eax

; 253  : #ifdef ENABLED_PERFORMANCE_COUNTER
; 254  :     if (sizeof(v1) == sizeof(_UINT64_T))

	xor	eax, eax
	test	eax, eax
	je	SHORT $LN3@AsumeQ_

; 255  :         IncrementDIV64Counter();

	call	IncrementDIV64Counter
	jmp	SHORT $LN4@AsumeQ_
$LN3@AsumeQ_:

; 256  :     else
; 257  :         IncrementDIV32Counter();

	call	IncrementDIV32Counter
$LN4@AsumeQ_:

; 258  : #endif
; 259  :     return (q);

	mov	eax, DWORD PTR q$[rbp]
$LN1@AsumeQ_:

; 260  : }

	mov	rdi, rax
	lea	rcx, QWORD PTR [rbp-32]
	lea	rdx, OFFSET FLAT:AsumeQ_$rtcFrameData
	call	_RTC_CheckStackVars
	mov	rax, rdi
	lea	rsp, QWORD PTR [rbp+264]
	pop	rdi
	pop	rbp
	ret	0
AsumeQ_	ENDP
_TEXT	ENDS
; Function compile flags: /Odtp /RTCsu /ZI
; File z:\sources\lunor\repos\rougemeilland\palmtree.math.core.implements\palmtree.math.core.implements\autogenerated_inline_func.h
;	COMDAT _ADD_2WORDS_ADCX_DIV
_TEXT	SEGMENT
c$ = 224
xp$ = 232
yp$ = 240
zp$ = 248
_ADD_2WORDS_ADCX_DIV PROC				; COMDAT

; 4548 : {

	mov	QWORD PTR [rsp+32], r9
	mov	QWORD PTR [rsp+24], r8
	mov	QWORD PTR [rsp+16], rdx
	mov	BYTE PTR [rsp+8], cl
	push	rbp
	push	rdi
	sub	rsp, 232				; 000000e8H
	lea	rbp, QWORD PTR [rsp+32]
	mov	rdi, rsp
	mov	ecx, 58					; 0000003aH
	mov	eax, -858993460				; ccccccccH
	rep stosd
	movzx	ecx, BYTE PTR [rsp+264]
	lea	rcx, OFFSET FLAT:__89DB6AB9_autogenerated_inline_func@h
	call	__CheckForDebuggerJustMyCode

; 4549 : #ifdef _MSC_VER
; 4550 :     c = _ADDX_UNIT_DIV(c, xp[0], yp[0], &zp[0]);

	mov	eax, 4
	imul	rax, rax, 0
	mov	rcx, QWORD PTR zp$[rbp]
	add	rcx, rax
	mov	rax, rcx
	mov	ecx, 4
	imul	rcx, rcx, 0
	mov	edx, 4
	imul	rdx, rdx, 0
	mov	r9, rax
	mov	rax, QWORD PTR yp$[rbp]
	mov	r8d, DWORD PTR [rax+rcx]
	mov	rax, QWORD PTR xp$[rbp]
	mov	edx, DWORD PTR [rax+rdx]
	movzx	ecx, BYTE PTR c$[rbp]
	call	_ADDX_UNIT_DIV
	mov	BYTE PTR c$[rbp], al

; 4551 :     c = _ADDX_UNIT_DIV(c, xp[1], yp[1], &zp[1]);

	mov	eax, 4
	imul	rax, rax, 1
	mov	rcx, QWORD PTR zp$[rbp]
	add	rcx, rax
	mov	rax, rcx
	mov	ecx, 4
	imul	rcx, rcx, 1
	mov	edx, 4
	imul	rdx, rdx, 1
	mov	r9, rax
	mov	rax, QWORD PTR yp$[rbp]
	mov	r8d, DWORD PTR [rax+rcx]
	mov	rax, QWORD PTR xp$[rbp]
	mov	edx, DWORD PTR [rax+rdx]
	movzx	ecx, BYTE PTR c$[rbp]
	call	_ADDX_UNIT_DIV
	mov	BYTE PTR c$[rbp], al

; 4552 : #elif defined(__GNUC__)
; 4553 : #ifdef _M_IX86
; 4554 :     __asm__ volatile (
; 4555 :         "addb\t$-1, %0\n\t"
; 4556 :         "movl\t(%1), %%ecx\n\t"
; 4557 :         "adcxl\t(%2), %%ecx\n\t"
; 4558 :         "movl\t%%ecx, (%3)\n\t"
; 4559 :         "movl\t4(%1), %%ecx\n\t"
; 4560 :         "adcxl\t4(%2), %%ecx\n\t"
; 4561 :         "movl\t%%ecx, 4(%3)\n\t"
; 4562 :         "setc\t%0"
; 4563 :         : "+r"(c), "+r"(xp), "+r"(yp), "+r"(zp)
; 4564 :         :
; 4565 :         : "cc", "memory", "%ecx"
; 4566 : );
; 4567 : #elif defined(_M_IX64)
; 4568 :     __asm__ volatile (
; 4569 :         "addb\t$-1, %0\n\t"
; 4570 :         "movq\t(%1), %%rcx\n\t"
; 4571 :         "adcxq\t(%2), %%rcx\n\t"
; 4572 :         "movq\t%%rcx, (%3)\n\t"
; 4573 :         "movq\t8(%1), %%rcx\n\t"
; 4574 :         "adcxq\t8(%2), %%rcx\n\t"
; 4575 :         "movq\t%%rcx, 8(%3)\n\t"
; 4576 :         "setc\t%0"
; 4577 :         : "+r"(c), "+r"(xp), "+r"(yp), "+r"(zp)
; 4578 :         :
; 4579 :         : "cc", "memory", "%rcx"
; 4580 : );
; 4581 : #else
; 4582 : #error unknown platform
; 4583 : #endif
; 4584 : #else
; 4585 : #error unknown compiler
; 4586 : #endif
; 4587 :     return (c);

	movzx	eax, BYTE PTR c$[rbp]

; 4588 : }

	lea	rsp, QWORD PTR [rbp+200]
	pop	rdi
	pop	rbp
	ret	0
_ADD_2WORDS_ADCX_DIV ENDP
_TEXT	ENDS
; Function compile flags: /Odtp /RTCsu /ZI
; File z:\sources\lunor\repos\rougemeilland\palmtree.math.core.implements\palmtree.math.core.implements\autogenerated_inline_func.h
;	COMDAT _ADD_2WORDS_ADC_DIV
_TEXT	SEGMENT
c$ = 224
xp$ = 232
yp$ = 240
zp$ = 248
_ADD_2WORDS_ADC_DIV PROC				; COMDAT

; 4505 : {

	mov	QWORD PTR [rsp+32], r9
	mov	QWORD PTR [rsp+24], r8
	mov	QWORD PTR [rsp+16], rdx
	mov	BYTE PTR [rsp+8], cl
	push	rbp
	push	rdi
	sub	rsp, 232				; 000000e8H
	lea	rbp, QWORD PTR [rsp+32]
	mov	rdi, rsp
	mov	ecx, 58					; 0000003aH
	mov	eax, -858993460				; ccccccccH
	rep stosd
	movzx	ecx, BYTE PTR [rsp+264]
	lea	rcx, OFFSET FLAT:__89DB6AB9_autogenerated_inline_func@h
	call	__CheckForDebuggerJustMyCode

; 4506 : #ifdef _MSC_VER
; 4507 :     c = _ADD_UNIT_DIV(c, xp[0], yp[0], &zp[0]);

	mov	eax, 4
	imul	rax, rax, 0
	mov	rcx, QWORD PTR zp$[rbp]
	add	rcx, rax
	mov	rax, rcx
	mov	ecx, 4
	imul	rcx, rcx, 0
	mov	edx, 4
	imul	rdx, rdx, 0
	mov	r9, rax
	mov	rax, QWORD PTR yp$[rbp]
	mov	r8d, DWORD PTR [rax+rcx]
	mov	rax, QWORD PTR xp$[rbp]
	mov	edx, DWORD PTR [rax+rdx]
	movzx	ecx, BYTE PTR c$[rbp]
	call	_ADD_UNIT_DIV
	mov	BYTE PTR c$[rbp], al

; 4508 :     c = _ADD_UNIT_DIV(c, xp[1], yp[1], &zp[1]);

	mov	eax, 4
	imul	rax, rax, 1
	mov	rcx, QWORD PTR zp$[rbp]
	add	rcx, rax
	mov	rax, rcx
	mov	ecx, 4
	imul	rcx, rcx, 1
	mov	edx, 4
	imul	rdx, rdx, 1
	mov	r9, rax
	mov	rax, QWORD PTR yp$[rbp]
	mov	r8d, DWORD PTR [rax+rcx]
	mov	rax, QWORD PTR xp$[rbp]
	mov	edx, DWORD PTR [rax+rdx]
	movzx	ecx, BYTE PTR c$[rbp]
	call	_ADD_UNIT_DIV
	mov	BYTE PTR c$[rbp], al

; 4509 : #elif defined(__GNUC__)
; 4510 : #ifdef _M_IX86
; 4511 :     __asm__ volatile (
; 4512 :         "addb\t$-1, %0\n\t"
; 4513 :         "movl\t(%1), %%ecx\n\t"
; 4514 :         "adcl\t(%2), %%ecx\n\t"
; 4515 :         "movl\t%%ecx, (%3)\n\t"
; 4516 :         "movl\t4(%1), %%ecx\n\t"
; 4517 :         "adcl\t4(%2), %%ecx\n\t"
; 4518 :         "movl\t%%ecx, 4(%3)\n\t"
; 4519 :         "setc\t%0"
; 4520 :         : "+r"(c), "+r"(xp), "+r"(yp), "+r"(zp)
; 4521 :         :
; 4522 :         : "cc", "memory", "%ecx"
; 4523 : );
; 4524 : #elif defined(_M_IX64)
; 4525 :     __asm__ volatile (
; 4526 :         "addb\t$-1, %0\n\t"
; 4527 :         "movq\t(%1), %%rcx\n\t"
; 4528 :         "adcq\t(%2), %%rcx\n\t"
; 4529 :         "movq\t%%rcx, (%3)\n\t"
; 4530 :         "movq\t8(%1), %%rcx\n\t"
; 4531 :         "adcq\t8(%2), %%rcx\n\t"
; 4532 :         "movq\t%%rcx, 8(%3)\n\t"
; 4533 :         "setc\t%0"
; 4534 :         : "+r"(c), "+r"(xp), "+r"(yp), "+r"(zp)
; 4535 :         :
; 4536 :         : "cc", "memory", "%rcx"
; 4537 : );
; 4538 : #else
; 4539 : #error unknown platform
; 4540 : #endif
; 4541 : #else
; 4542 : #error unknown compiler
; 4543 : #endif
; 4544 :     return (c);

	movzx	eax, BYTE PTR c$[rbp]

; 4545 : }

	lea	rsp, QWORD PTR [rbp+200]
	pop	rdi
	pop	rbp
	ret	0
_ADD_2WORDS_ADC_DIV ENDP
_TEXT	ENDS
; Function compile flags: /Odtp /RTCsu /ZI
; File z:\sources\lunor\repos\rougemeilland\palmtree.math.core.implements\palmtree.math.core.implements\autogenerated_inline_func.h
;	COMDAT _ADD_4WORDS_ADCX_DIV
_TEXT	SEGMENT
c$ = 224
xp$ = 232
yp$ = 240
zp$ = 248
_ADD_4WORDS_ADCX_DIV PROC				; COMDAT

; 4162 : {

	mov	QWORD PTR [rsp+32], r9
	mov	QWORD PTR [rsp+24], r8
	mov	QWORD PTR [rsp+16], rdx
	mov	BYTE PTR [rsp+8], cl
	push	rbp
	push	rdi
	sub	rsp, 232				; 000000e8H
	lea	rbp, QWORD PTR [rsp+32]
	mov	rdi, rsp
	mov	ecx, 58					; 0000003aH
	mov	eax, -858993460				; ccccccccH
	rep stosd
	movzx	ecx, BYTE PTR [rsp+264]
	lea	rcx, OFFSET FLAT:__89DB6AB9_autogenerated_inline_func@h
	call	__CheckForDebuggerJustMyCode

; 4163 : #ifdef _MSC_VER
; 4164 :     c = _ADDX_UNIT_DIV(c, xp[0], yp[0], &zp[0]);

	mov	eax, 4
	imul	rax, rax, 0
	mov	rcx, QWORD PTR zp$[rbp]
	add	rcx, rax
	mov	rax, rcx
	mov	ecx, 4
	imul	rcx, rcx, 0
	mov	edx, 4
	imul	rdx, rdx, 0
	mov	r9, rax
	mov	rax, QWORD PTR yp$[rbp]
	mov	r8d, DWORD PTR [rax+rcx]
	mov	rax, QWORD PTR xp$[rbp]
	mov	edx, DWORD PTR [rax+rdx]
	movzx	ecx, BYTE PTR c$[rbp]
	call	_ADDX_UNIT_DIV
	mov	BYTE PTR c$[rbp], al

; 4165 :     c = _ADDX_UNIT_DIV(c, xp[1], yp[1], &zp[1]);

	mov	eax, 4
	imul	rax, rax, 1
	mov	rcx, QWORD PTR zp$[rbp]
	add	rcx, rax
	mov	rax, rcx
	mov	ecx, 4
	imul	rcx, rcx, 1
	mov	edx, 4
	imul	rdx, rdx, 1
	mov	r9, rax
	mov	rax, QWORD PTR yp$[rbp]
	mov	r8d, DWORD PTR [rax+rcx]
	mov	rax, QWORD PTR xp$[rbp]
	mov	edx, DWORD PTR [rax+rdx]
	movzx	ecx, BYTE PTR c$[rbp]
	call	_ADDX_UNIT_DIV
	mov	BYTE PTR c$[rbp], al

; 4166 :     c = _ADDX_UNIT_DIV(c, xp[2], yp[2], &zp[2]);

	mov	eax, 4
	imul	rax, rax, 2
	mov	rcx, QWORD PTR zp$[rbp]
	add	rcx, rax
	mov	rax, rcx
	mov	ecx, 4
	imul	rcx, rcx, 2
	mov	edx, 4
	imul	rdx, rdx, 2
	mov	r9, rax
	mov	rax, QWORD PTR yp$[rbp]
	mov	r8d, DWORD PTR [rax+rcx]
	mov	rax, QWORD PTR xp$[rbp]
	mov	edx, DWORD PTR [rax+rdx]
	movzx	ecx, BYTE PTR c$[rbp]
	call	_ADDX_UNIT_DIV
	mov	BYTE PTR c$[rbp], al

; 4167 :     c = _ADDX_UNIT_DIV(c, xp[3], yp[3], &zp[3]);

	mov	eax, 4
	imul	rax, rax, 3
	mov	rcx, QWORD PTR zp$[rbp]
	add	rcx, rax
	mov	rax, rcx
	mov	ecx, 4
	imul	rcx, rcx, 3
	mov	edx, 4
	imul	rdx, rdx, 3
	mov	r9, rax
	mov	rax, QWORD PTR yp$[rbp]
	mov	r8d, DWORD PTR [rax+rcx]
	mov	rax, QWORD PTR xp$[rbp]
	mov	edx, DWORD PTR [rax+rdx]
	movzx	ecx, BYTE PTR c$[rbp]
	call	_ADDX_UNIT_DIV
	mov	BYTE PTR c$[rbp], al

; 4168 : #elif defined(__GNUC__)
; 4169 : #ifdef _M_IX86
; 4170 :     __asm__ volatile (
; 4171 :         "addb\t$-1, %0\n\t"
; 4172 :         "movl\t(%1), %%ecx\n\t"
; 4173 :         "adcxl\t(%2), %%ecx\n\t"
; 4174 :         "movl\t%%ecx, (%3)\n\t"
; 4175 :         "movl\t4(%1), %%ecx\n\t"
; 4176 :         "adcxl\t4(%2), %%ecx\n\t"
; 4177 :         "movl\t%%ecx, 4(%3)\n\t"
; 4178 :         "movl\t8(%1), %%ecx\n\t"
; 4179 :         "adcxl\t8(%2), %%ecx\n\t"
; 4180 :         "movl\t%%ecx, 8(%3)\n\t"
; 4181 :         "movl\t12(%1), %%ecx\n\t"
; 4182 :         "adcxl\t12(%2), %%ecx\n\t"
; 4183 :         "movl\t%%ecx, 12(%3)\n\t"
; 4184 :         "setc\t%0"
; 4185 :         : "+r"(c), "+r"(xp), "+r"(yp), "+r"(zp)
; 4186 :         :
; 4187 :         : "cc", "memory", "%ecx"
; 4188 : );
; 4189 : #elif defined(_M_IX64)
; 4190 :     __asm__ volatile (
; 4191 :         "addb\t$-1, %0\n\t"
; 4192 :         "movq\t(%1), %%rcx\n\t"
; 4193 :         "adcxq\t(%2), %%rcx\n\t"
; 4194 :         "movq\t%%rcx, (%3)\n\t"
; 4195 :         "movq\t8(%1), %%rcx\n\t"
; 4196 :         "adcxq\t8(%2), %%rcx\n\t"
; 4197 :         "movq\t%%rcx, 8(%3)\n\t"
; 4198 :         "movq\t16(%1), %%rcx\n\t"
; 4199 :         "adcxq\t16(%2), %%rcx\n\t"
; 4200 :         "movq\t%%rcx, 16(%3)\n\t"
; 4201 :         "movq\t24(%1), %%rcx\n\t"
; 4202 :         "adcxq\t24(%2), %%rcx\n\t"
; 4203 :         "movq\t%%rcx, 24(%3)\n\t"
; 4204 :         "setc\t%0"
; 4205 :         : "+r"(c), "+r"(xp), "+r"(yp), "+r"(zp)
; 4206 :         :
; 4207 :         : "cc", "memory", "%rcx"
; 4208 : );
; 4209 : #else
; 4210 : #error unknown platform
; 4211 : #endif
; 4212 : #else
; 4213 : #error unknown compiler
; 4214 : #endif
; 4215 :     return (c);

	movzx	eax, BYTE PTR c$[rbp]

; 4216 : }

	lea	rsp, QWORD PTR [rbp+200]
	pop	rdi
	pop	rbp
	ret	0
_ADD_4WORDS_ADCX_DIV ENDP
_TEXT	ENDS
; Function compile flags: /Odtp /RTCsu /ZI
; File z:\sources\lunor\repos\rougemeilland\palmtree.math.core.implements\palmtree.math.core.implements\autogenerated_inline_func.h
;	COMDAT _ADD_4WORDS_ADC_DIV
_TEXT	SEGMENT
c$ = 224
xp$ = 232
yp$ = 240
zp$ = 248
_ADD_4WORDS_ADC_DIV PROC				; COMDAT

; 4105 : {

	mov	QWORD PTR [rsp+32], r9
	mov	QWORD PTR [rsp+24], r8
	mov	QWORD PTR [rsp+16], rdx
	mov	BYTE PTR [rsp+8], cl
	push	rbp
	push	rdi
	sub	rsp, 232				; 000000e8H
	lea	rbp, QWORD PTR [rsp+32]
	mov	rdi, rsp
	mov	ecx, 58					; 0000003aH
	mov	eax, -858993460				; ccccccccH
	rep stosd
	movzx	ecx, BYTE PTR [rsp+264]
	lea	rcx, OFFSET FLAT:__89DB6AB9_autogenerated_inline_func@h
	call	__CheckForDebuggerJustMyCode

; 4106 : #ifdef _MSC_VER
; 4107 :     c = _ADD_UNIT_DIV(c, xp[0], yp[0], &zp[0]);

	mov	eax, 4
	imul	rax, rax, 0
	mov	rcx, QWORD PTR zp$[rbp]
	add	rcx, rax
	mov	rax, rcx
	mov	ecx, 4
	imul	rcx, rcx, 0
	mov	edx, 4
	imul	rdx, rdx, 0
	mov	r9, rax
	mov	rax, QWORD PTR yp$[rbp]
	mov	r8d, DWORD PTR [rax+rcx]
	mov	rax, QWORD PTR xp$[rbp]
	mov	edx, DWORD PTR [rax+rdx]
	movzx	ecx, BYTE PTR c$[rbp]
	call	_ADD_UNIT_DIV
	mov	BYTE PTR c$[rbp], al

; 4108 :     c = _ADD_UNIT_DIV(c, xp[1], yp[1], &zp[1]);

	mov	eax, 4
	imul	rax, rax, 1
	mov	rcx, QWORD PTR zp$[rbp]
	add	rcx, rax
	mov	rax, rcx
	mov	ecx, 4
	imul	rcx, rcx, 1
	mov	edx, 4
	imul	rdx, rdx, 1
	mov	r9, rax
	mov	rax, QWORD PTR yp$[rbp]
	mov	r8d, DWORD PTR [rax+rcx]
	mov	rax, QWORD PTR xp$[rbp]
	mov	edx, DWORD PTR [rax+rdx]
	movzx	ecx, BYTE PTR c$[rbp]
	call	_ADD_UNIT_DIV
	mov	BYTE PTR c$[rbp], al

; 4109 :     c = _ADD_UNIT_DIV(c, xp[2], yp[2], &zp[2]);

	mov	eax, 4
	imul	rax, rax, 2
	mov	rcx, QWORD PTR zp$[rbp]
	add	rcx, rax
	mov	rax, rcx
	mov	ecx, 4
	imul	rcx, rcx, 2
	mov	edx, 4
	imul	rdx, rdx, 2
	mov	r9, rax
	mov	rax, QWORD PTR yp$[rbp]
	mov	r8d, DWORD PTR [rax+rcx]
	mov	rax, QWORD PTR xp$[rbp]
	mov	edx, DWORD PTR [rax+rdx]
	movzx	ecx, BYTE PTR c$[rbp]
	call	_ADD_UNIT_DIV
	mov	BYTE PTR c$[rbp], al

; 4110 :     c = _ADD_UNIT_DIV(c, xp[3], yp[3], &zp[3]);

	mov	eax, 4
	imul	rax, rax, 3
	mov	rcx, QWORD PTR zp$[rbp]
	add	rcx, rax
	mov	rax, rcx
	mov	ecx, 4
	imul	rcx, rcx, 3
	mov	edx, 4
	imul	rdx, rdx, 3
	mov	r9, rax
	mov	rax, QWORD PTR yp$[rbp]
	mov	r8d, DWORD PTR [rax+rcx]
	mov	rax, QWORD PTR xp$[rbp]
	mov	edx, DWORD PTR [rax+rdx]
	movzx	ecx, BYTE PTR c$[rbp]
	call	_ADD_UNIT_DIV
	mov	BYTE PTR c$[rbp], al

; 4111 : #elif defined(__GNUC__)
; 4112 : #ifdef _M_IX86
; 4113 :     __asm__ volatile (
; 4114 :         "addb\t$-1, %0\n\t"
; 4115 :         "movl\t(%1), %%ecx\n\t"
; 4116 :         "adcl\t(%2), %%ecx\n\t"
; 4117 :         "movl\t%%ecx, (%3)\n\t"
; 4118 :         "movl\t4(%1), %%ecx\n\t"
; 4119 :         "adcl\t4(%2), %%ecx\n\t"
; 4120 :         "movl\t%%ecx, 4(%3)\n\t"
; 4121 :         "movl\t8(%1), %%ecx\n\t"
; 4122 :         "adcl\t8(%2), %%ecx\n\t"
; 4123 :         "movl\t%%ecx, 8(%3)\n\t"
; 4124 :         "movl\t12(%1), %%ecx\n\t"
; 4125 :         "adcl\t12(%2), %%ecx\n\t"
; 4126 :         "movl\t%%ecx, 12(%3)\n\t"
; 4127 :         "setc\t%0"
; 4128 :         : "+r"(c), "+r"(xp), "+r"(yp), "+r"(zp)
; 4129 :         :
; 4130 :         : "cc", "memory", "%ecx"
; 4131 : );
; 4132 : #elif defined(_M_IX64)
; 4133 :     __asm__ volatile (
; 4134 :         "addb\t$-1, %0\n\t"
; 4135 :         "movq\t(%1), %%rcx\n\t"
; 4136 :         "adcq\t(%2), %%rcx\n\t"
; 4137 :         "movq\t%%rcx, (%3)\n\t"
; 4138 :         "movq\t8(%1), %%rcx\n\t"
; 4139 :         "adcq\t8(%2), %%rcx\n\t"
; 4140 :         "movq\t%%rcx, 8(%3)\n\t"
; 4141 :         "movq\t16(%1), %%rcx\n\t"
; 4142 :         "adcq\t16(%2), %%rcx\n\t"
; 4143 :         "movq\t%%rcx, 16(%3)\n\t"
; 4144 :         "movq\t24(%1), %%rcx\n\t"
; 4145 :         "adcq\t24(%2), %%rcx\n\t"
; 4146 :         "movq\t%%rcx, 24(%3)\n\t"
; 4147 :         "setc\t%0"
; 4148 :         : "+r"(c), "+r"(xp), "+r"(yp), "+r"(zp)
; 4149 :         :
; 4150 :         : "cc", "memory", "%rcx"
; 4151 : );
; 4152 : #else
; 4153 : #error unknown platform
; 4154 : #endif
; 4155 : #else
; 4156 : #error unknown compiler
; 4157 : #endif
; 4158 :     return (c);

	movzx	eax, BYTE PTR c$[rbp]

; 4159 : }

	lea	rsp, QWORD PTR [rbp+200]
	pop	rdi
	pop	rbp
	ret	0
_ADD_4WORDS_ADC_DIV ENDP
_TEXT	ENDS
; Function compile flags: /Odtp /RTCsu /ZI
; File z:\sources\lunor\repos\rougemeilland\palmtree.math.core.implements\palmtree.math.core.implements\autogenerated_inline_func.h
;	COMDAT _ADD_8WORDS_ADCX_DIV
_TEXT	SEGMENT
c$ = 224
xp$ = 232
yp$ = 240
zp$ = 248
_ADD_8WORDS_ADCX_DIV PROC				; COMDAT

; 3622 : {

	mov	QWORD PTR [rsp+32], r9
	mov	QWORD PTR [rsp+24], r8
	mov	QWORD PTR [rsp+16], rdx
	mov	BYTE PTR [rsp+8], cl
	push	rbp
	push	rdi
	sub	rsp, 232				; 000000e8H
	lea	rbp, QWORD PTR [rsp+32]
	mov	rdi, rsp
	mov	ecx, 58					; 0000003aH
	mov	eax, -858993460				; ccccccccH
	rep stosd
	movzx	ecx, BYTE PTR [rsp+264]
	lea	rcx, OFFSET FLAT:__89DB6AB9_autogenerated_inline_func@h
	call	__CheckForDebuggerJustMyCode

; 3623 : #ifdef _MSC_VER
; 3624 :     c = _ADDX_UNIT_DIV(c, xp[0], yp[0], &zp[0]);

	mov	eax, 4
	imul	rax, rax, 0
	mov	rcx, QWORD PTR zp$[rbp]
	add	rcx, rax
	mov	rax, rcx
	mov	ecx, 4
	imul	rcx, rcx, 0
	mov	edx, 4
	imul	rdx, rdx, 0
	mov	r9, rax
	mov	rax, QWORD PTR yp$[rbp]
	mov	r8d, DWORD PTR [rax+rcx]
	mov	rax, QWORD PTR xp$[rbp]
	mov	edx, DWORD PTR [rax+rdx]
	movzx	ecx, BYTE PTR c$[rbp]
	call	_ADDX_UNIT_DIV
	mov	BYTE PTR c$[rbp], al

; 3625 :     c = _ADDX_UNIT_DIV(c, xp[1], yp[1], &zp[1]);

	mov	eax, 4
	imul	rax, rax, 1
	mov	rcx, QWORD PTR zp$[rbp]
	add	rcx, rax
	mov	rax, rcx
	mov	ecx, 4
	imul	rcx, rcx, 1
	mov	edx, 4
	imul	rdx, rdx, 1
	mov	r9, rax
	mov	rax, QWORD PTR yp$[rbp]
	mov	r8d, DWORD PTR [rax+rcx]
	mov	rax, QWORD PTR xp$[rbp]
	mov	edx, DWORD PTR [rax+rdx]
	movzx	ecx, BYTE PTR c$[rbp]
	call	_ADDX_UNIT_DIV
	mov	BYTE PTR c$[rbp], al

; 3626 :     c = _ADDX_UNIT_DIV(c, xp[2], yp[2], &zp[2]);

	mov	eax, 4
	imul	rax, rax, 2
	mov	rcx, QWORD PTR zp$[rbp]
	add	rcx, rax
	mov	rax, rcx
	mov	ecx, 4
	imul	rcx, rcx, 2
	mov	edx, 4
	imul	rdx, rdx, 2
	mov	r9, rax
	mov	rax, QWORD PTR yp$[rbp]
	mov	r8d, DWORD PTR [rax+rcx]
	mov	rax, QWORD PTR xp$[rbp]
	mov	edx, DWORD PTR [rax+rdx]
	movzx	ecx, BYTE PTR c$[rbp]
	call	_ADDX_UNIT_DIV
	mov	BYTE PTR c$[rbp], al

; 3627 :     c = _ADDX_UNIT_DIV(c, xp[3], yp[3], &zp[3]);

	mov	eax, 4
	imul	rax, rax, 3
	mov	rcx, QWORD PTR zp$[rbp]
	add	rcx, rax
	mov	rax, rcx
	mov	ecx, 4
	imul	rcx, rcx, 3
	mov	edx, 4
	imul	rdx, rdx, 3
	mov	r9, rax
	mov	rax, QWORD PTR yp$[rbp]
	mov	r8d, DWORD PTR [rax+rcx]
	mov	rax, QWORD PTR xp$[rbp]
	mov	edx, DWORD PTR [rax+rdx]
	movzx	ecx, BYTE PTR c$[rbp]
	call	_ADDX_UNIT_DIV
	mov	BYTE PTR c$[rbp], al

; 3628 :     c = _ADDX_UNIT_DIV(c, xp[4], yp[4], &zp[4]);

	mov	eax, 4
	imul	rax, rax, 4
	mov	rcx, QWORD PTR zp$[rbp]
	add	rcx, rax
	mov	rax, rcx
	mov	ecx, 4
	imul	rcx, rcx, 4
	mov	edx, 4
	imul	rdx, rdx, 4
	mov	r9, rax
	mov	rax, QWORD PTR yp$[rbp]
	mov	r8d, DWORD PTR [rax+rcx]
	mov	rax, QWORD PTR xp$[rbp]
	mov	edx, DWORD PTR [rax+rdx]
	movzx	ecx, BYTE PTR c$[rbp]
	call	_ADDX_UNIT_DIV
	mov	BYTE PTR c$[rbp], al

; 3629 :     c = _ADDX_UNIT_DIV(c, xp[5], yp[5], &zp[5]);

	mov	eax, 4
	imul	rax, rax, 5
	mov	rcx, QWORD PTR zp$[rbp]
	add	rcx, rax
	mov	rax, rcx
	mov	ecx, 4
	imul	rcx, rcx, 5
	mov	edx, 4
	imul	rdx, rdx, 5
	mov	r9, rax
	mov	rax, QWORD PTR yp$[rbp]
	mov	r8d, DWORD PTR [rax+rcx]
	mov	rax, QWORD PTR xp$[rbp]
	mov	edx, DWORD PTR [rax+rdx]
	movzx	ecx, BYTE PTR c$[rbp]
	call	_ADDX_UNIT_DIV
	mov	BYTE PTR c$[rbp], al

; 3630 :     c = _ADDX_UNIT_DIV(c, xp[6], yp[6], &zp[6]);

	mov	eax, 4
	imul	rax, rax, 6
	mov	rcx, QWORD PTR zp$[rbp]
	add	rcx, rax
	mov	rax, rcx
	mov	ecx, 4
	imul	rcx, rcx, 6
	mov	edx, 4
	imul	rdx, rdx, 6
	mov	r9, rax
	mov	rax, QWORD PTR yp$[rbp]
	mov	r8d, DWORD PTR [rax+rcx]
	mov	rax, QWORD PTR xp$[rbp]
	mov	edx, DWORD PTR [rax+rdx]
	movzx	ecx, BYTE PTR c$[rbp]
	call	_ADDX_UNIT_DIV
	mov	BYTE PTR c$[rbp], al

; 3631 :     c = _ADDX_UNIT_DIV(c, xp[7], yp[7], &zp[7]);

	mov	eax, 4
	imul	rax, rax, 7
	mov	rcx, QWORD PTR zp$[rbp]
	add	rcx, rax
	mov	rax, rcx
	mov	ecx, 4
	imul	rcx, rcx, 7
	mov	edx, 4
	imul	rdx, rdx, 7
	mov	r9, rax
	mov	rax, QWORD PTR yp$[rbp]
	mov	r8d, DWORD PTR [rax+rcx]
	mov	rax, QWORD PTR xp$[rbp]
	mov	edx, DWORD PTR [rax+rdx]
	movzx	ecx, BYTE PTR c$[rbp]
	call	_ADDX_UNIT_DIV
	mov	BYTE PTR c$[rbp], al

; 3632 : #elif defined(__GNUC__)
; 3633 : #ifdef _M_IX86
; 3634 :     __asm__ volatile (
; 3635 :         "addb\t$-1, %0\n\t"
; 3636 :         "movl\t(%1), %%ecx\n\t"
; 3637 :         "adcxl\t(%2), %%ecx\n\t"
; 3638 :         "movl\t%%ecx, (%3)\n\t"
; 3639 :         "movl\t4(%1), %%ecx\n\t"
; 3640 :         "adcxl\t4(%2), %%ecx\n\t"
; 3641 :         "movl\t%%ecx, 4(%3)\n\t"
; 3642 :         "movl\t8(%1), %%ecx\n\t"
; 3643 :         "adcxl\t8(%2), %%ecx\n\t"
; 3644 :         "movl\t%%ecx, 8(%3)\n\t"
; 3645 :         "movl\t12(%1), %%ecx\n\t"
; 3646 :         "adcxl\t12(%2), %%ecx\n\t"
; 3647 :         "movl\t%%ecx, 12(%3)\n\t"
; 3648 :         "movl\t16(%1), %%ecx\n\t"
; 3649 :         "adcxl\t16(%2), %%ecx\n\t"
; 3650 :         "movl\t%%ecx, 16(%3)\n\t"
; 3651 :         "movl\t20(%1), %%ecx\n\t"
; 3652 :         "adcxl\t20(%2), %%ecx\n\t"
; 3653 :         "movl\t%%ecx, 20(%3)\n\t"
; 3654 :         "movl\t24(%1), %%ecx\n\t"
; 3655 :         "adcxl\t24(%2), %%ecx\n\t"
; 3656 :         "movl\t%%ecx, 24(%3)\n\t"
; 3657 :         "movl\t28(%1), %%ecx\n\t"
; 3658 :         "adcxl\t28(%2), %%ecx\n\t"
; 3659 :         "movl\t%%ecx, 28(%3)\n\t"
; 3660 :         "setc\t%0"
; 3661 :         : "+r"(c), "+r"(xp), "+r"(yp), "+r"(zp)
; 3662 :         :
; 3663 :         : "cc", "memory", "%ecx"
; 3664 : );
; 3665 : #elif defined(_M_IX64)
; 3666 :     __asm__ volatile (
; 3667 :         "addb\t$-1, %0\n\t"
; 3668 :         "movq\t(%1), %%rcx\n\t"
; 3669 :         "adcxq\t(%2), %%rcx\n\t"
; 3670 :         "movq\t%%rcx, (%3)\n\t"
; 3671 :         "movq\t8(%1), %%rcx\n\t"
; 3672 :         "adcxq\t8(%2), %%rcx\n\t"
; 3673 :         "movq\t%%rcx, 8(%3)\n\t"
; 3674 :         "movq\t16(%1), %%rcx\n\t"
; 3675 :         "adcxq\t16(%2), %%rcx\n\t"
; 3676 :         "movq\t%%rcx, 16(%3)\n\t"
; 3677 :         "movq\t24(%1), %%rcx\n\t"
; 3678 :         "adcxq\t24(%2), %%rcx\n\t"
; 3679 :         "movq\t%%rcx, 24(%3)\n\t"
; 3680 :         "movq\t32(%1), %%rcx\n\t"
; 3681 :         "adcxq\t32(%2), %%rcx\n\t"
; 3682 :         "movq\t%%rcx, 32(%3)\n\t"
; 3683 :         "movq\t40(%1), %%rcx\n\t"
; 3684 :         "adcxq\t40(%2), %%rcx\n\t"
; 3685 :         "movq\t%%rcx, 40(%3)\n\t"
; 3686 :         "movq\t48(%1), %%rcx\n\t"
; 3687 :         "adcxq\t48(%2), %%rcx\n\t"
; 3688 :         "movq\t%%rcx, 48(%3)\n\t"
; 3689 :         "movq\t56(%1), %%rcx\n\t"
; 3690 :         "adcxq\t56(%2), %%rcx\n\t"
; 3691 :         "movq\t%%rcx, 56(%3)\n\t"
; 3692 :         "setc\t%0"
; 3693 :         : "+r"(c), "+r"(xp), "+r"(yp), "+r"(zp)
; 3694 :         :
; 3695 :         : "cc", "memory", "%rcx"
; 3696 : );
; 3697 : #else
; 3698 : #error unknown platform
; 3699 : #endif
; 3700 : #else
; 3701 : #error unknown compiler
; 3702 : #endif
; 3703 :     return (c);

	movzx	eax, BYTE PTR c$[rbp]

; 3704 : }

	lea	rsp, QWORD PTR [rbp+200]
	pop	rdi
	pop	rbp
	ret	0
_ADD_8WORDS_ADCX_DIV ENDP
_TEXT	ENDS
; Function compile flags: /Odtp /RTCsu /ZI
; File z:\sources\lunor\repos\rougemeilland\palmtree.math.core.implements\palmtree.math.core.implements\autogenerated_inline_func.h
;	COMDAT _ADD_8WORDS_ADC_DIV
_TEXT	SEGMENT
c$ = 224
xp$ = 232
yp$ = 240
zp$ = 248
_ADD_8WORDS_ADC_DIV PROC				; COMDAT

; 3537 : {

	mov	QWORD PTR [rsp+32], r9
	mov	QWORD PTR [rsp+24], r8
	mov	QWORD PTR [rsp+16], rdx
	mov	BYTE PTR [rsp+8], cl
	push	rbp
	push	rdi
	sub	rsp, 232				; 000000e8H
	lea	rbp, QWORD PTR [rsp+32]
	mov	rdi, rsp
	mov	ecx, 58					; 0000003aH
	mov	eax, -858993460				; ccccccccH
	rep stosd
	movzx	ecx, BYTE PTR [rsp+264]
	lea	rcx, OFFSET FLAT:__89DB6AB9_autogenerated_inline_func@h
	call	__CheckForDebuggerJustMyCode

; 3538 : #ifdef _MSC_VER
; 3539 :     c = _ADD_UNIT_DIV(c, xp[0], yp[0], &zp[0]);

	mov	eax, 4
	imul	rax, rax, 0
	mov	rcx, QWORD PTR zp$[rbp]
	add	rcx, rax
	mov	rax, rcx
	mov	ecx, 4
	imul	rcx, rcx, 0
	mov	edx, 4
	imul	rdx, rdx, 0
	mov	r9, rax
	mov	rax, QWORD PTR yp$[rbp]
	mov	r8d, DWORD PTR [rax+rcx]
	mov	rax, QWORD PTR xp$[rbp]
	mov	edx, DWORD PTR [rax+rdx]
	movzx	ecx, BYTE PTR c$[rbp]
	call	_ADD_UNIT_DIV
	mov	BYTE PTR c$[rbp], al

; 3540 :     c = _ADD_UNIT_DIV(c, xp[1], yp[1], &zp[1]);

	mov	eax, 4
	imul	rax, rax, 1
	mov	rcx, QWORD PTR zp$[rbp]
	add	rcx, rax
	mov	rax, rcx
	mov	ecx, 4
	imul	rcx, rcx, 1
	mov	edx, 4
	imul	rdx, rdx, 1
	mov	r9, rax
	mov	rax, QWORD PTR yp$[rbp]
	mov	r8d, DWORD PTR [rax+rcx]
	mov	rax, QWORD PTR xp$[rbp]
	mov	edx, DWORD PTR [rax+rdx]
	movzx	ecx, BYTE PTR c$[rbp]
	call	_ADD_UNIT_DIV
	mov	BYTE PTR c$[rbp], al

; 3541 :     c = _ADD_UNIT_DIV(c, xp[2], yp[2], &zp[2]);

	mov	eax, 4
	imul	rax, rax, 2
	mov	rcx, QWORD PTR zp$[rbp]
	add	rcx, rax
	mov	rax, rcx
	mov	ecx, 4
	imul	rcx, rcx, 2
	mov	edx, 4
	imul	rdx, rdx, 2
	mov	r9, rax
	mov	rax, QWORD PTR yp$[rbp]
	mov	r8d, DWORD PTR [rax+rcx]
	mov	rax, QWORD PTR xp$[rbp]
	mov	edx, DWORD PTR [rax+rdx]
	movzx	ecx, BYTE PTR c$[rbp]
	call	_ADD_UNIT_DIV
	mov	BYTE PTR c$[rbp], al

; 3542 :     c = _ADD_UNIT_DIV(c, xp[3], yp[3], &zp[3]);

	mov	eax, 4
	imul	rax, rax, 3
	mov	rcx, QWORD PTR zp$[rbp]
	add	rcx, rax
	mov	rax, rcx
	mov	ecx, 4
	imul	rcx, rcx, 3
	mov	edx, 4
	imul	rdx, rdx, 3
	mov	r9, rax
	mov	rax, QWORD PTR yp$[rbp]
	mov	r8d, DWORD PTR [rax+rcx]
	mov	rax, QWORD PTR xp$[rbp]
	mov	edx, DWORD PTR [rax+rdx]
	movzx	ecx, BYTE PTR c$[rbp]
	call	_ADD_UNIT_DIV
	mov	BYTE PTR c$[rbp], al

; 3543 :     c = _ADD_UNIT_DIV(c, xp[4], yp[4], &zp[4]);

	mov	eax, 4
	imul	rax, rax, 4
	mov	rcx, QWORD PTR zp$[rbp]
	add	rcx, rax
	mov	rax, rcx
	mov	ecx, 4
	imul	rcx, rcx, 4
	mov	edx, 4
	imul	rdx, rdx, 4
	mov	r9, rax
	mov	rax, QWORD PTR yp$[rbp]
	mov	r8d, DWORD PTR [rax+rcx]
	mov	rax, QWORD PTR xp$[rbp]
	mov	edx, DWORD PTR [rax+rdx]
	movzx	ecx, BYTE PTR c$[rbp]
	call	_ADD_UNIT_DIV
	mov	BYTE PTR c$[rbp], al

; 3544 :     c = _ADD_UNIT_DIV(c, xp[5], yp[5], &zp[5]);

	mov	eax, 4
	imul	rax, rax, 5
	mov	rcx, QWORD PTR zp$[rbp]
	add	rcx, rax
	mov	rax, rcx
	mov	ecx, 4
	imul	rcx, rcx, 5
	mov	edx, 4
	imul	rdx, rdx, 5
	mov	r9, rax
	mov	rax, QWORD PTR yp$[rbp]
	mov	r8d, DWORD PTR [rax+rcx]
	mov	rax, QWORD PTR xp$[rbp]
	mov	edx, DWORD PTR [rax+rdx]
	movzx	ecx, BYTE PTR c$[rbp]
	call	_ADD_UNIT_DIV
	mov	BYTE PTR c$[rbp], al

; 3545 :     c = _ADD_UNIT_DIV(c, xp[6], yp[6], &zp[6]);

	mov	eax, 4
	imul	rax, rax, 6
	mov	rcx, QWORD PTR zp$[rbp]
	add	rcx, rax
	mov	rax, rcx
	mov	ecx, 4
	imul	rcx, rcx, 6
	mov	edx, 4
	imul	rdx, rdx, 6
	mov	r9, rax
	mov	rax, QWORD PTR yp$[rbp]
	mov	r8d, DWORD PTR [rax+rcx]
	mov	rax, QWORD PTR xp$[rbp]
	mov	edx, DWORD PTR [rax+rdx]
	movzx	ecx, BYTE PTR c$[rbp]
	call	_ADD_UNIT_DIV
	mov	BYTE PTR c$[rbp], al

; 3546 :     c = _ADD_UNIT_DIV(c, xp[7], yp[7], &zp[7]);

	mov	eax, 4
	imul	rax, rax, 7
	mov	rcx, QWORD PTR zp$[rbp]
	add	rcx, rax
	mov	rax, rcx
	mov	ecx, 4
	imul	rcx, rcx, 7
	mov	edx, 4
	imul	rdx, rdx, 7
	mov	r9, rax
	mov	rax, QWORD PTR yp$[rbp]
	mov	r8d, DWORD PTR [rax+rcx]
	mov	rax, QWORD PTR xp$[rbp]
	mov	edx, DWORD PTR [rax+rdx]
	movzx	ecx, BYTE PTR c$[rbp]
	call	_ADD_UNIT_DIV
	mov	BYTE PTR c$[rbp], al

; 3547 : #elif defined(__GNUC__)
; 3548 : #ifdef _M_IX86
; 3549 :     __asm__ volatile (
; 3550 :         "addb\t$-1, %0\n\t"
; 3551 :         "movl\t(%1), %%ecx\n\t"
; 3552 :         "adcl\t(%2), %%ecx\n\t"
; 3553 :         "movl\t%%ecx, (%3)\n\t"
; 3554 :         "movl\t4(%1), %%ecx\n\t"
; 3555 :         "adcl\t4(%2), %%ecx\n\t"
; 3556 :         "movl\t%%ecx, 4(%3)\n\t"
; 3557 :         "movl\t8(%1), %%ecx\n\t"
; 3558 :         "adcl\t8(%2), %%ecx\n\t"
; 3559 :         "movl\t%%ecx, 8(%3)\n\t"
; 3560 :         "movl\t12(%1), %%ecx\n\t"
; 3561 :         "adcl\t12(%2), %%ecx\n\t"
; 3562 :         "movl\t%%ecx, 12(%3)\n\t"
; 3563 :         "movl\t16(%1), %%ecx\n\t"
; 3564 :         "adcl\t16(%2), %%ecx\n\t"
; 3565 :         "movl\t%%ecx, 16(%3)\n\t"
; 3566 :         "movl\t20(%1), %%ecx\n\t"
; 3567 :         "adcl\t20(%2), %%ecx\n\t"
; 3568 :         "movl\t%%ecx, 20(%3)\n\t"
; 3569 :         "movl\t24(%1), %%ecx\n\t"
; 3570 :         "adcl\t24(%2), %%ecx\n\t"
; 3571 :         "movl\t%%ecx, 24(%3)\n\t"
; 3572 :         "movl\t28(%1), %%ecx\n\t"
; 3573 :         "adcl\t28(%2), %%ecx\n\t"
; 3574 :         "movl\t%%ecx, 28(%3)\n\t"
; 3575 :         "setc\t%0"
; 3576 :         : "+r"(c), "+r"(xp), "+r"(yp), "+r"(zp)
; 3577 :         :
; 3578 :         : "cc", "memory", "%ecx"
; 3579 : );
; 3580 : #elif defined(_M_IX64)
; 3581 :     __asm__ volatile (
; 3582 :         "addb\t$-1, %0\n\t"
; 3583 :         "movq\t(%1), %%rcx\n\t"
; 3584 :         "adcq\t(%2), %%rcx\n\t"
; 3585 :         "movq\t%%rcx, (%3)\n\t"
; 3586 :         "movq\t8(%1), %%rcx\n\t"
; 3587 :         "adcq\t8(%2), %%rcx\n\t"
; 3588 :         "movq\t%%rcx, 8(%3)\n\t"
; 3589 :         "movq\t16(%1), %%rcx\n\t"
; 3590 :         "adcq\t16(%2), %%rcx\n\t"
; 3591 :         "movq\t%%rcx, 16(%3)\n\t"
; 3592 :         "movq\t24(%1), %%rcx\n\t"
; 3593 :         "adcq\t24(%2), %%rcx\n\t"
; 3594 :         "movq\t%%rcx, 24(%3)\n\t"
; 3595 :         "movq\t32(%1), %%rcx\n\t"
; 3596 :         "adcq\t32(%2), %%rcx\n\t"
; 3597 :         "movq\t%%rcx, 32(%3)\n\t"
; 3598 :         "movq\t40(%1), %%rcx\n\t"
; 3599 :         "adcq\t40(%2), %%rcx\n\t"
; 3600 :         "movq\t%%rcx, 40(%3)\n\t"
; 3601 :         "movq\t48(%1), %%rcx\n\t"
; 3602 :         "adcq\t48(%2), %%rcx\n\t"
; 3603 :         "movq\t%%rcx, 48(%3)\n\t"
; 3604 :         "movq\t56(%1), %%rcx\n\t"
; 3605 :         "adcq\t56(%2), %%rcx\n\t"
; 3606 :         "movq\t%%rcx, 56(%3)\n\t"
; 3607 :         "setc\t%0"
; 3608 :         : "+r"(c), "+r"(xp), "+r"(yp), "+r"(zp)
; 3609 :         :
; 3610 :         : "cc", "memory", "%rcx"
; 3611 : );
; 3612 : #else
; 3613 : #error unknown platform
; 3614 : #endif
; 3615 : #else
; 3616 : #error unknown compiler
; 3617 : #endif
; 3618 :     return (c);

	movzx	eax, BYTE PTR c$[rbp]

; 3619 : }

	lea	rsp, QWORD PTR [rbp+200]
	pop	rdi
	pop	rbp
	ret	0
_ADD_8WORDS_ADC_DIV ENDP
_TEXT	ENDS
; Function compile flags: /Odtp /RTCsu /ZI
; File z:\sources\lunor\repos\rougemeilland\palmtree.math.core.implements\palmtree.math.core.implements\autogenerated_inline_func.h
;	COMDAT _ADD_16WORDS_ADCX_DIV
_TEXT	SEGMENT
c$ = 224
xp$ = 232
yp$ = 240
zp$ = 248
_ADD_16WORDS_ADCX_DIV PROC				; COMDAT

; 2774 : {

	mov	QWORD PTR [rsp+32], r9
	mov	QWORD PTR [rsp+24], r8
	mov	QWORD PTR [rsp+16], rdx
	mov	BYTE PTR [rsp+8], cl
	push	rbp
	push	rdi
	sub	rsp, 232				; 000000e8H
	lea	rbp, QWORD PTR [rsp+32]
	mov	rdi, rsp
	mov	ecx, 58					; 0000003aH
	mov	eax, -858993460				; ccccccccH
	rep stosd
	movzx	ecx, BYTE PTR [rsp+264]
	lea	rcx, OFFSET FLAT:__89DB6AB9_autogenerated_inline_func@h
	call	__CheckForDebuggerJustMyCode

; 2775 : #ifdef _MSC_VER
; 2776 :     c = _ADDX_UNIT_DIV(c, xp[0], yp[0], &zp[0]);

	mov	eax, 4
	imul	rax, rax, 0
	mov	rcx, QWORD PTR zp$[rbp]
	add	rcx, rax
	mov	rax, rcx
	mov	ecx, 4
	imul	rcx, rcx, 0
	mov	edx, 4
	imul	rdx, rdx, 0
	mov	r9, rax
	mov	rax, QWORD PTR yp$[rbp]
	mov	r8d, DWORD PTR [rax+rcx]
	mov	rax, QWORD PTR xp$[rbp]
	mov	edx, DWORD PTR [rax+rdx]
	movzx	ecx, BYTE PTR c$[rbp]
	call	_ADDX_UNIT_DIV
	mov	BYTE PTR c$[rbp], al

; 2777 :     c = _ADDX_UNIT_DIV(c, xp[1], yp[1], &zp[1]);

	mov	eax, 4
	imul	rax, rax, 1
	mov	rcx, QWORD PTR zp$[rbp]
	add	rcx, rax
	mov	rax, rcx
	mov	ecx, 4
	imul	rcx, rcx, 1
	mov	edx, 4
	imul	rdx, rdx, 1
	mov	r9, rax
	mov	rax, QWORD PTR yp$[rbp]
	mov	r8d, DWORD PTR [rax+rcx]
	mov	rax, QWORD PTR xp$[rbp]
	mov	edx, DWORD PTR [rax+rdx]
	movzx	ecx, BYTE PTR c$[rbp]
	call	_ADDX_UNIT_DIV
	mov	BYTE PTR c$[rbp], al

; 2778 :     c = _ADDX_UNIT_DIV(c, xp[2], yp[2], &zp[2]);

	mov	eax, 4
	imul	rax, rax, 2
	mov	rcx, QWORD PTR zp$[rbp]
	add	rcx, rax
	mov	rax, rcx
	mov	ecx, 4
	imul	rcx, rcx, 2
	mov	edx, 4
	imul	rdx, rdx, 2
	mov	r9, rax
	mov	rax, QWORD PTR yp$[rbp]
	mov	r8d, DWORD PTR [rax+rcx]
	mov	rax, QWORD PTR xp$[rbp]
	mov	edx, DWORD PTR [rax+rdx]
	movzx	ecx, BYTE PTR c$[rbp]
	call	_ADDX_UNIT_DIV
	mov	BYTE PTR c$[rbp], al

; 2779 :     c = _ADDX_UNIT_DIV(c, xp[3], yp[3], &zp[3]);

	mov	eax, 4
	imul	rax, rax, 3
	mov	rcx, QWORD PTR zp$[rbp]
	add	rcx, rax
	mov	rax, rcx
	mov	ecx, 4
	imul	rcx, rcx, 3
	mov	edx, 4
	imul	rdx, rdx, 3
	mov	r9, rax
	mov	rax, QWORD PTR yp$[rbp]
	mov	r8d, DWORD PTR [rax+rcx]
	mov	rax, QWORD PTR xp$[rbp]
	mov	edx, DWORD PTR [rax+rdx]
	movzx	ecx, BYTE PTR c$[rbp]
	call	_ADDX_UNIT_DIV
	mov	BYTE PTR c$[rbp], al

; 2780 :     c = _ADDX_UNIT_DIV(c, xp[4], yp[4], &zp[4]);

	mov	eax, 4
	imul	rax, rax, 4
	mov	rcx, QWORD PTR zp$[rbp]
	add	rcx, rax
	mov	rax, rcx
	mov	ecx, 4
	imul	rcx, rcx, 4
	mov	edx, 4
	imul	rdx, rdx, 4
	mov	r9, rax
	mov	rax, QWORD PTR yp$[rbp]
	mov	r8d, DWORD PTR [rax+rcx]
	mov	rax, QWORD PTR xp$[rbp]
	mov	edx, DWORD PTR [rax+rdx]
	movzx	ecx, BYTE PTR c$[rbp]
	call	_ADDX_UNIT_DIV
	mov	BYTE PTR c$[rbp], al

; 2781 :     c = _ADDX_UNIT_DIV(c, xp[5], yp[5], &zp[5]);

	mov	eax, 4
	imul	rax, rax, 5
	mov	rcx, QWORD PTR zp$[rbp]
	add	rcx, rax
	mov	rax, rcx
	mov	ecx, 4
	imul	rcx, rcx, 5
	mov	edx, 4
	imul	rdx, rdx, 5
	mov	r9, rax
	mov	rax, QWORD PTR yp$[rbp]
	mov	r8d, DWORD PTR [rax+rcx]
	mov	rax, QWORD PTR xp$[rbp]
	mov	edx, DWORD PTR [rax+rdx]
	movzx	ecx, BYTE PTR c$[rbp]
	call	_ADDX_UNIT_DIV
	mov	BYTE PTR c$[rbp], al

; 2782 :     c = _ADDX_UNIT_DIV(c, xp[6], yp[6], &zp[6]);

	mov	eax, 4
	imul	rax, rax, 6
	mov	rcx, QWORD PTR zp$[rbp]
	add	rcx, rax
	mov	rax, rcx
	mov	ecx, 4
	imul	rcx, rcx, 6
	mov	edx, 4
	imul	rdx, rdx, 6
	mov	r9, rax
	mov	rax, QWORD PTR yp$[rbp]
	mov	r8d, DWORD PTR [rax+rcx]
	mov	rax, QWORD PTR xp$[rbp]
	mov	edx, DWORD PTR [rax+rdx]
	movzx	ecx, BYTE PTR c$[rbp]
	call	_ADDX_UNIT_DIV
	mov	BYTE PTR c$[rbp], al

; 2783 :     c = _ADDX_UNIT_DIV(c, xp[7], yp[7], &zp[7]);

	mov	eax, 4
	imul	rax, rax, 7
	mov	rcx, QWORD PTR zp$[rbp]
	add	rcx, rax
	mov	rax, rcx
	mov	ecx, 4
	imul	rcx, rcx, 7
	mov	edx, 4
	imul	rdx, rdx, 7
	mov	r9, rax
	mov	rax, QWORD PTR yp$[rbp]
	mov	r8d, DWORD PTR [rax+rcx]
	mov	rax, QWORD PTR xp$[rbp]
	mov	edx, DWORD PTR [rax+rdx]
	movzx	ecx, BYTE PTR c$[rbp]
	call	_ADDX_UNIT_DIV
	mov	BYTE PTR c$[rbp], al

; 2784 :     c = _ADDX_UNIT_DIV(c, xp[8], yp[8], &zp[8]);

	mov	eax, 4
	imul	rax, rax, 8
	mov	rcx, QWORD PTR zp$[rbp]
	add	rcx, rax
	mov	rax, rcx
	mov	ecx, 4
	imul	rcx, rcx, 8
	mov	edx, 4
	imul	rdx, rdx, 8
	mov	r9, rax
	mov	rax, QWORD PTR yp$[rbp]
	mov	r8d, DWORD PTR [rax+rcx]
	mov	rax, QWORD PTR xp$[rbp]
	mov	edx, DWORD PTR [rax+rdx]
	movzx	ecx, BYTE PTR c$[rbp]
	call	_ADDX_UNIT_DIV
	mov	BYTE PTR c$[rbp], al

; 2785 :     c = _ADDX_UNIT_DIV(c, xp[9], yp[9], &zp[9]);

	mov	eax, 4
	imul	rax, rax, 9
	mov	rcx, QWORD PTR zp$[rbp]
	add	rcx, rax
	mov	rax, rcx
	mov	ecx, 4
	imul	rcx, rcx, 9
	mov	edx, 4
	imul	rdx, rdx, 9
	mov	r9, rax
	mov	rax, QWORD PTR yp$[rbp]
	mov	r8d, DWORD PTR [rax+rcx]
	mov	rax, QWORD PTR xp$[rbp]
	mov	edx, DWORD PTR [rax+rdx]
	movzx	ecx, BYTE PTR c$[rbp]
	call	_ADDX_UNIT_DIV
	mov	BYTE PTR c$[rbp], al

; 2786 :     c = _ADDX_UNIT_DIV(c, xp[10], yp[10], &zp[10]);

	mov	eax, 4
	imul	rax, rax, 10
	mov	rcx, QWORD PTR zp$[rbp]
	add	rcx, rax
	mov	rax, rcx
	mov	ecx, 4
	imul	rcx, rcx, 10
	mov	edx, 4
	imul	rdx, rdx, 10
	mov	r9, rax
	mov	rax, QWORD PTR yp$[rbp]
	mov	r8d, DWORD PTR [rax+rcx]
	mov	rax, QWORD PTR xp$[rbp]
	mov	edx, DWORD PTR [rax+rdx]
	movzx	ecx, BYTE PTR c$[rbp]
	call	_ADDX_UNIT_DIV
	mov	BYTE PTR c$[rbp], al

; 2787 :     c = _ADDX_UNIT_DIV(c, xp[11], yp[11], &zp[11]);

	mov	eax, 4
	imul	rax, rax, 11
	mov	rcx, QWORD PTR zp$[rbp]
	add	rcx, rax
	mov	rax, rcx
	mov	ecx, 4
	imul	rcx, rcx, 11
	mov	edx, 4
	imul	rdx, rdx, 11
	mov	r9, rax
	mov	rax, QWORD PTR yp$[rbp]
	mov	r8d, DWORD PTR [rax+rcx]
	mov	rax, QWORD PTR xp$[rbp]
	mov	edx, DWORD PTR [rax+rdx]
	movzx	ecx, BYTE PTR c$[rbp]
	call	_ADDX_UNIT_DIV
	mov	BYTE PTR c$[rbp], al

; 2788 :     c = _ADDX_UNIT_DIV(c, xp[12], yp[12], &zp[12]);

	mov	eax, 4
	imul	rax, rax, 12
	mov	rcx, QWORD PTR zp$[rbp]
	add	rcx, rax
	mov	rax, rcx
	mov	ecx, 4
	imul	rcx, rcx, 12
	mov	edx, 4
	imul	rdx, rdx, 12
	mov	r9, rax
	mov	rax, QWORD PTR yp$[rbp]
	mov	r8d, DWORD PTR [rax+rcx]
	mov	rax, QWORD PTR xp$[rbp]
	mov	edx, DWORD PTR [rax+rdx]
	movzx	ecx, BYTE PTR c$[rbp]
	call	_ADDX_UNIT_DIV
	mov	BYTE PTR c$[rbp], al

; 2789 :     c = _ADDX_UNIT_DIV(c, xp[13], yp[13], &zp[13]);

	mov	eax, 4
	imul	rax, rax, 13
	mov	rcx, QWORD PTR zp$[rbp]
	add	rcx, rax
	mov	rax, rcx
	mov	ecx, 4
	imul	rcx, rcx, 13
	mov	edx, 4
	imul	rdx, rdx, 13
	mov	r9, rax
	mov	rax, QWORD PTR yp$[rbp]
	mov	r8d, DWORD PTR [rax+rcx]
	mov	rax, QWORD PTR xp$[rbp]
	mov	edx, DWORD PTR [rax+rdx]
	movzx	ecx, BYTE PTR c$[rbp]
	call	_ADDX_UNIT_DIV
	mov	BYTE PTR c$[rbp], al

; 2790 :     c = _ADDX_UNIT_DIV(c, xp[14], yp[14], &zp[14]);

	mov	eax, 4
	imul	rax, rax, 14
	mov	rcx, QWORD PTR zp$[rbp]
	add	rcx, rax
	mov	rax, rcx
	mov	ecx, 4
	imul	rcx, rcx, 14
	mov	edx, 4
	imul	rdx, rdx, 14
	mov	r9, rax
	mov	rax, QWORD PTR yp$[rbp]
	mov	r8d, DWORD PTR [rax+rcx]
	mov	rax, QWORD PTR xp$[rbp]
	mov	edx, DWORD PTR [rax+rdx]
	movzx	ecx, BYTE PTR c$[rbp]
	call	_ADDX_UNIT_DIV
	mov	BYTE PTR c$[rbp], al

; 2791 :     c = _ADDX_UNIT_DIV(c, xp[15], yp[15], &zp[15]);

	mov	eax, 4
	imul	rax, rax, 15
	mov	rcx, QWORD PTR zp$[rbp]
	add	rcx, rax
	mov	rax, rcx
	mov	ecx, 4
	imul	rcx, rcx, 15
	mov	edx, 4
	imul	rdx, rdx, 15
	mov	r9, rax
	mov	rax, QWORD PTR yp$[rbp]
	mov	r8d, DWORD PTR [rax+rcx]
	mov	rax, QWORD PTR xp$[rbp]
	mov	edx, DWORD PTR [rax+rdx]
	movzx	ecx, BYTE PTR c$[rbp]
	call	_ADDX_UNIT_DIV
	mov	BYTE PTR c$[rbp], al

; 2792 : #elif defined(__GNUC__)
; 2793 : #ifdef _M_IX86
; 2794 :     __asm__ volatile (
; 2795 :         "addb\t$-1, %0\n\t"
; 2796 :         "movl\t(%1), %%ecx\n\t"
; 2797 :         "adcxl\t(%2), %%ecx\n\t"
; 2798 :         "movl\t%%ecx, (%3)\n\t"
; 2799 :         "movl\t4(%1), %%ecx\n\t"
; 2800 :         "adcxl\t4(%2), %%ecx\n\t"
; 2801 :         "movl\t%%ecx, 4(%3)\n\t"
; 2802 :         "movl\t8(%1), %%ecx\n\t"
; 2803 :         "adcxl\t8(%2), %%ecx\n\t"
; 2804 :         "movl\t%%ecx, 8(%3)\n\t"
; 2805 :         "movl\t12(%1), %%ecx\n\t"
; 2806 :         "adcxl\t12(%2), %%ecx\n\t"
; 2807 :         "movl\t%%ecx, 12(%3)\n\t"
; 2808 :         "movl\t16(%1), %%ecx\n\t"
; 2809 :         "adcxl\t16(%2), %%ecx\n\t"
; 2810 :         "movl\t%%ecx, 16(%3)\n\t"
; 2811 :         "movl\t20(%1), %%ecx\n\t"
; 2812 :         "adcxl\t20(%2), %%ecx\n\t"
; 2813 :         "movl\t%%ecx, 20(%3)\n\t"
; 2814 :         "movl\t24(%1), %%ecx\n\t"
; 2815 :         "adcxl\t24(%2), %%ecx\n\t"
; 2816 :         "movl\t%%ecx, 24(%3)\n\t"
; 2817 :         "movl\t28(%1), %%ecx\n\t"
; 2818 :         "adcxl\t28(%2), %%ecx\n\t"
; 2819 :         "movl\t%%ecx, 28(%3)\n\t"
; 2820 :         "movl\t32(%1), %%ecx\n\t"
; 2821 :         "adcxl\t32(%2), %%ecx\n\t"
; 2822 :         "movl\t%%ecx, 32(%3)\n\t"
; 2823 :         "movl\t36(%1), %%ecx\n\t"
; 2824 :         "adcxl\t36(%2), %%ecx\n\t"
; 2825 :         "movl\t%%ecx, 36(%3)\n\t"
; 2826 :         "movl\t40(%1), %%ecx\n\t"
; 2827 :         "adcxl\t40(%2), %%ecx\n\t"
; 2828 :         "movl\t%%ecx, 40(%3)\n\t"
; 2829 :         "movl\t44(%1), %%ecx\n\t"
; 2830 :         "adcxl\t44(%2), %%ecx\n\t"
; 2831 :         "movl\t%%ecx, 44(%3)\n\t"
; 2832 :         "movl\t48(%1), %%ecx\n\t"
; 2833 :         "adcxl\t48(%2), %%ecx\n\t"
; 2834 :         "movl\t%%ecx, 48(%3)\n\t"
; 2835 :         "movl\t52(%1), %%ecx\n\t"
; 2836 :         "adcxl\t52(%2), %%ecx\n\t"
; 2837 :         "movl\t%%ecx, 52(%3)\n\t"
; 2838 :         "movl\t56(%1), %%ecx\n\t"
; 2839 :         "adcxl\t56(%2), %%ecx\n\t"
; 2840 :         "movl\t%%ecx, 56(%3)\n\t"
; 2841 :         "movl\t60(%1), %%ecx\n\t"
; 2842 :         "adcxl\t60(%2), %%ecx\n\t"
; 2843 :         "movl\t%%ecx, 60(%3)\n\t"
; 2844 :         "setc\t%0"
; 2845 :         : "+r"(c), "+r"(xp), "+r"(yp), "+r"(zp)
; 2846 :         :
; 2847 :         : "cc", "memory", "%ecx"
; 2848 : );
; 2849 : #elif defined(_M_IX64)
; 2850 :     __asm__ volatile (
; 2851 :         "addb\t$-1, %0\n\t"
; 2852 :         "movq\t(%1), %%rcx\n\t"
; 2853 :         "adcxq\t(%2), %%rcx\n\t"
; 2854 :         "movq\t%%rcx, (%3)\n\t"
; 2855 :         "movq\t8(%1), %%rcx\n\t"
; 2856 :         "adcxq\t8(%2), %%rcx\n\t"
; 2857 :         "movq\t%%rcx, 8(%3)\n\t"
; 2858 :         "movq\t16(%1), %%rcx\n\t"
; 2859 :         "adcxq\t16(%2), %%rcx\n\t"
; 2860 :         "movq\t%%rcx, 16(%3)\n\t"
; 2861 :         "movq\t24(%1), %%rcx\n\t"
; 2862 :         "adcxq\t24(%2), %%rcx\n\t"
; 2863 :         "movq\t%%rcx, 24(%3)\n\t"
; 2864 :         "movq\t32(%1), %%rcx\n\t"
; 2865 :         "adcxq\t32(%2), %%rcx\n\t"
; 2866 :         "movq\t%%rcx, 32(%3)\n\t"
; 2867 :         "movq\t40(%1), %%rcx\n\t"
; 2868 :         "adcxq\t40(%2), %%rcx\n\t"
; 2869 :         "movq\t%%rcx, 40(%3)\n\t"
; 2870 :         "movq\t48(%1), %%rcx\n\t"
; 2871 :         "adcxq\t48(%2), %%rcx\n\t"
; 2872 :         "movq\t%%rcx, 48(%3)\n\t"
; 2873 :         "movq\t56(%1), %%rcx\n\t"
; 2874 :         "adcxq\t56(%2), %%rcx\n\t"
; 2875 :         "movq\t%%rcx, 56(%3)\n\t"
; 2876 :         "movq\t64(%1), %%rcx\n\t"
; 2877 :         "adcxq\t64(%2), %%rcx\n\t"
; 2878 :         "movq\t%%rcx, 64(%3)\n\t"
; 2879 :         "movq\t72(%1), %%rcx\n\t"
; 2880 :         "adcxq\t72(%2), %%rcx\n\t"
; 2881 :         "movq\t%%rcx, 72(%3)\n\t"
; 2882 :         "movq\t80(%1), %%rcx\n\t"
; 2883 :         "adcxq\t80(%2), %%rcx\n\t"
; 2884 :         "movq\t%%rcx, 80(%3)\n\t"
; 2885 :         "movq\t88(%1), %%rcx\n\t"
; 2886 :         "adcxq\t88(%2), %%rcx\n\t"
; 2887 :         "movq\t%%rcx, 88(%3)\n\t"
; 2888 :         "movq\t96(%1), %%rcx\n\t"
; 2889 :         "adcxq\t96(%2), %%rcx\n\t"
; 2890 :         "movq\t%%rcx, 96(%3)\n\t"
; 2891 :         "movq\t104(%1), %%rcx\n\t"
; 2892 :         "adcxq\t104(%2), %%rcx\n\t"
; 2893 :         "movq\t%%rcx, 104(%3)\n\t"
; 2894 :         "movq\t112(%1), %%rcx\n\t"
; 2895 :         "adcxq\t112(%2), %%rcx\n\t"
; 2896 :         "movq\t%%rcx, 112(%3)\n\t"
; 2897 :         "movq\t120(%1), %%rcx\n\t"
; 2898 :         "adcxq\t120(%2), %%rcx\n\t"
; 2899 :         "movq\t%%rcx, 120(%3)\n\t"
; 2900 :         "setc\t%0"
; 2901 :         : "+r"(c), "+r"(xp), "+r"(yp), "+r"(zp)
; 2902 :         :
; 2903 :         : "cc", "memory", "%rcx"
; 2904 : );
; 2905 : #else
; 2906 : #error unknown platform
; 2907 : #endif
; 2908 : #else
; 2909 : #error unknown compiler
; 2910 : #endif
; 2911 :     return (c);

	movzx	eax, BYTE PTR c$[rbp]

; 2912 : }

	lea	rsp, QWORD PTR [rbp+200]
	pop	rdi
	pop	rbp
	ret	0
_ADD_16WORDS_ADCX_DIV ENDP
_TEXT	ENDS
; Function compile flags: /Odtp /RTCsu /ZI
; File z:\sources\lunor\repos\rougemeilland\palmtree.math.core.implements\palmtree.math.core.implements\autogenerated_inline_func.h
;	COMDAT _ADD_16WORDS_ADC_DIV
_TEXT	SEGMENT
c$ = 224
xp$ = 232
yp$ = 240
zp$ = 248
_ADD_16WORDS_ADC_DIV PROC				; COMDAT

; 2633 : {

	mov	QWORD PTR [rsp+32], r9
	mov	QWORD PTR [rsp+24], r8
	mov	QWORD PTR [rsp+16], rdx
	mov	BYTE PTR [rsp+8], cl
	push	rbp
	push	rdi
	sub	rsp, 232				; 000000e8H
	lea	rbp, QWORD PTR [rsp+32]
	mov	rdi, rsp
	mov	ecx, 58					; 0000003aH
	mov	eax, -858993460				; ccccccccH
	rep stosd
	movzx	ecx, BYTE PTR [rsp+264]
	lea	rcx, OFFSET FLAT:__89DB6AB9_autogenerated_inline_func@h
	call	__CheckForDebuggerJustMyCode

; 2634 : #ifdef _MSC_VER
; 2635 :     c = _ADD_UNIT_DIV(c, xp[0], yp[0], &zp[0]);

	mov	eax, 4
	imul	rax, rax, 0
	mov	rcx, QWORD PTR zp$[rbp]
	add	rcx, rax
	mov	rax, rcx
	mov	ecx, 4
	imul	rcx, rcx, 0
	mov	edx, 4
	imul	rdx, rdx, 0
	mov	r9, rax
	mov	rax, QWORD PTR yp$[rbp]
	mov	r8d, DWORD PTR [rax+rcx]
	mov	rax, QWORD PTR xp$[rbp]
	mov	edx, DWORD PTR [rax+rdx]
	movzx	ecx, BYTE PTR c$[rbp]
	call	_ADD_UNIT_DIV
	mov	BYTE PTR c$[rbp], al

; 2636 :     c = _ADD_UNIT_DIV(c, xp[1], yp[1], &zp[1]);

	mov	eax, 4
	imul	rax, rax, 1
	mov	rcx, QWORD PTR zp$[rbp]
	add	rcx, rax
	mov	rax, rcx
	mov	ecx, 4
	imul	rcx, rcx, 1
	mov	edx, 4
	imul	rdx, rdx, 1
	mov	r9, rax
	mov	rax, QWORD PTR yp$[rbp]
	mov	r8d, DWORD PTR [rax+rcx]
	mov	rax, QWORD PTR xp$[rbp]
	mov	edx, DWORD PTR [rax+rdx]
	movzx	ecx, BYTE PTR c$[rbp]
	call	_ADD_UNIT_DIV
	mov	BYTE PTR c$[rbp], al

; 2637 :     c = _ADD_UNIT_DIV(c, xp[2], yp[2], &zp[2]);

	mov	eax, 4
	imul	rax, rax, 2
	mov	rcx, QWORD PTR zp$[rbp]
	add	rcx, rax
	mov	rax, rcx
	mov	ecx, 4
	imul	rcx, rcx, 2
	mov	edx, 4
	imul	rdx, rdx, 2
	mov	r9, rax
	mov	rax, QWORD PTR yp$[rbp]
	mov	r8d, DWORD PTR [rax+rcx]
	mov	rax, QWORD PTR xp$[rbp]
	mov	edx, DWORD PTR [rax+rdx]
	movzx	ecx, BYTE PTR c$[rbp]
	call	_ADD_UNIT_DIV
	mov	BYTE PTR c$[rbp], al

; 2638 :     c = _ADD_UNIT_DIV(c, xp[3], yp[3], &zp[3]);

	mov	eax, 4
	imul	rax, rax, 3
	mov	rcx, QWORD PTR zp$[rbp]
	add	rcx, rax
	mov	rax, rcx
	mov	ecx, 4
	imul	rcx, rcx, 3
	mov	edx, 4
	imul	rdx, rdx, 3
	mov	r9, rax
	mov	rax, QWORD PTR yp$[rbp]
	mov	r8d, DWORD PTR [rax+rcx]
	mov	rax, QWORD PTR xp$[rbp]
	mov	edx, DWORD PTR [rax+rdx]
	movzx	ecx, BYTE PTR c$[rbp]
	call	_ADD_UNIT_DIV
	mov	BYTE PTR c$[rbp], al

; 2639 :     c = _ADD_UNIT_DIV(c, xp[4], yp[4], &zp[4]);

	mov	eax, 4
	imul	rax, rax, 4
	mov	rcx, QWORD PTR zp$[rbp]
	add	rcx, rax
	mov	rax, rcx
	mov	ecx, 4
	imul	rcx, rcx, 4
	mov	edx, 4
	imul	rdx, rdx, 4
	mov	r9, rax
	mov	rax, QWORD PTR yp$[rbp]
	mov	r8d, DWORD PTR [rax+rcx]
	mov	rax, QWORD PTR xp$[rbp]
	mov	edx, DWORD PTR [rax+rdx]
	movzx	ecx, BYTE PTR c$[rbp]
	call	_ADD_UNIT_DIV
	mov	BYTE PTR c$[rbp], al

; 2640 :     c = _ADD_UNIT_DIV(c, xp[5], yp[5], &zp[5]);

	mov	eax, 4
	imul	rax, rax, 5
	mov	rcx, QWORD PTR zp$[rbp]
	add	rcx, rax
	mov	rax, rcx
	mov	ecx, 4
	imul	rcx, rcx, 5
	mov	edx, 4
	imul	rdx, rdx, 5
	mov	r9, rax
	mov	rax, QWORD PTR yp$[rbp]
	mov	r8d, DWORD PTR [rax+rcx]
	mov	rax, QWORD PTR xp$[rbp]
	mov	edx, DWORD PTR [rax+rdx]
	movzx	ecx, BYTE PTR c$[rbp]
	call	_ADD_UNIT_DIV
	mov	BYTE PTR c$[rbp], al

; 2641 :     c = _ADD_UNIT_DIV(c, xp[6], yp[6], &zp[6]);

	mov	eax, 4
	imul	rax, rax, 6
	mov	rcx, QWORD PTR zp$[rbp]
	add	rcx, rax
	mov	rax, rcx
	mov	ecx, 4
	imul	rcx, rcx, 6
	mov	edx, 4
	imul	rdx, rdx, 6
	mov	r9, rax
	mov	rax, QWORD PTR yp$[rbp]
	mov	r8d, DWORD PTR [rax+rcx]
	mov	rax, QWORD PTR xp$[rbp]
	mov	edx, DWORD PTR [rax+rdx]
	movzx	ecx, BYTE PTR c$[rbp]
	call	_ADD_UNIT_DIV
	mov	BYTE PTR c$[rbp], al

; 2642 :     c = _ADD_UNIT_DIV(c, xp[7], yp[7], &zp[7]);

	mov	eax, 4
	imul	rax, rax, 7
	mov	rcx, QWORD PTR zp$[rbp]
	add	rcx, rax
	mov	rax, rcx
	mov	ecx, 4
	imul	rcx, rcx, 7
	mov	edx, 4
	imul	rdx, rdx, 7
	mov	r9, rax
	mov	rax, QWORD PTR yp$[rbp]
	mov	r8d, DWORD PTR [rax+rcx]
	mov	rax, QWORD PTR xp$[rbp]
	mov	edx, DWORD PTR [rax+rdx]
	movzx	ecx, BYTE PTR c$[rbp]
	call	_ADD_UNIT_DIV
	mov	BYTE PTR c$[rbp], al

; 2643 :     c = _ADD_UNIT_DIV(c, xp[8], yp[8], &zp[8]);

	mov	eax, 4
	imul	rax, rax, 8
	mov	rcx, QWORD PTR zp$[rbp]
	add	rcx, rax
	mov	rax, rcx
	mov	ecx, 4
	imul	rcx, rcx, 8
	mov	edx, 4
	imul	rdx, rdx, 8
	mov	r9, rax
	mov	rax, QWORD PTR yp$[rbp]
	mov	r8d, DWORD PTR [rax+rcx]
	mov	rax, QWORD PTR xp$[rbp]
	mov	edx, DWORD PTR [rax+rdx]
	movzx	ecx, BYTE PTR c$[rbp]
	call	_ADD_UNIT_DIV
	mov	BYTE PTR c$[rbp], al

; 2644 :     c = _ADD_UNIT_DIV(c, xp[9], yp[9], &zp[9]);

	mov	eax, 4
	imul	rax, rax, 9
	mov	rcx, QWORD PTR zp$[rbp]
	add	rcx, rax
	mov	rax, rcx
	mov	ecx, 4
	imul	rcx, rcx, 9
	mov	edx, 4
	imul	rdx, rdx, 9
	mov	r9, rax
	mov	rax, QWORD PTR yp$[rbp]
	mov	r8d, DWORD PTR [rax+rcx]
	mov	rax, QWORD PTR xp$[rbp]
	mov	edx, DWORD PTR [rax+rdx]
	movzx	ecx, BYTE PTR c$[rbp]
	call	_ADD_UNIT_DIV
	mov	BYTE PTR c$[rbp], al

; 2645 :     c = _ADD_UNIT_DIV(c, xp[10], yp[10], &zp[10]);

	mov	eax, 4
	imul	rax, rax, 10
	mov	rcx, QWORD PTR zp$[rbp]
	add	rcx, rax
	mov	rax, rcx
	mov	ecx, 4
	imul	rcx, rcx, 10
	mov	edx, 4
	imul	rdx, rdx, 10
	mov	r9, rax
	mov	rax, QWORD PTR yp$[rbp]
	mov	r8d, DWORD PTR [rax+rcx]
	mov	rax, QWORD PTR xp$[rbp]
	mov	edx, DWORD PTR [rax+rdx]
	movzx	ecx, BYTE PTR c$[rbp]
	call	_ADD_UNIT_DIV
	mov	BYTE PTR c$[rbp], al

; 2646 :     c = _ADD_UNIT_DIV(c, xp[11], yp[11], &zp[11]);

	mov	eax, 4
	imul	rax, rax, 11
	mov	rcx, QWORD PTR zp$[rbp]
	add	rcx, rax
	mov	rax, rcx
	mov	ecx, 4
	imul	rcx, rcx, 11
	mov	edx, 4
	imul	rdx, rdx, 11
	mov	r9, rax
	mov	rax, QWORD PTR yp$[rbp]
	mov	r8d, DWORD PTR [rax+rcx]
	mov	rax, QWORD PTR xp$[rbp]
	mov	edx, DWORD PTR [rax+rdx]
	movzx	ecx, BYTE PTR c$[rbp]
	call	_ADD_UNIT_DIV
	mov	BYTE PTR c$[rbp], al

; 2647 :     c = _ADD_UNIT_DIV(c, xp[12], yp[12], &zp[12]);

	mov	eax, 4
	imul	rax, rax, 12
	mov	rcx, QWORD PTR zp$[rbp]
	add	rcx, rax
	mov	rax, rcx
	mov	ecx, 4
	imul	rcx, rcx, 12
	mov	edx, 4
	imul	rdx, rdx, 12
	mov	r9, rax
	mov	rax, QWORD PTR yp$[rbp]
	mov	r8d, DWORD PTR [rax+rcx]
	mov	rax, QWORD PTR xp$[rbp]
	mov	edx, DWORD PTR [rax+rdx]
	movzx	ecx, BYTE PTR c$[rbp]
	call	_ADD_UNIT_DIV
	mov	BYTE PTR c$[rbp], al

; 2648 :     c = _ADD_UNIT_DIV(c, xp[13], yp[13], &zp[13]);

	mov	eax, 4
	imul	rax, rax, 13
	mov	rcx, QWORD PTR zp$[rbp]
	add	rcx, rax
	mov	rax, rcx
	mov	ecx, 4
	imul	rcx, rcx, 13
	mov	edx, 4
	imul	rdx, rdx, 13
	mov	r9, rax
	mov	rax, QWORD PTR yp$[rbp]
	mov	r8d, DWORD PTR [rax+rcx]
	mov	rax, QWORD PTR xp$[rbp]
	mov	edx, DWORD PTR [rax+rdx]
	movzx	ecx, BYTE PTR c$[rbp]
	call	_ADD_UNIT_DIV
	mov	BYTE PTR c$[rbp], al

; 2649 :     c = _ADD_UNIT_DIV(c, xp[14], yp[14], &zp[14]);

	mov	eax, 4
	imul	rax, rax, 14
	mov	rcx, QWORD PTR zp$[rbp]
	add	rcx, rax
	mov	rax, rcx
	mov	ecx, 4
	imul	rcx, rcx, 14
	mov	edx, 4
	imul	rdx, rdx, 14
	mov	r9, rax
	mov	rax, QWORD PTR yp$[rbp]
	mov	r8d, DWORD PTR [rax+rcx]
	mov	rax, QWORD PTR xp$[rbp]
	mov	edx, DWORD PTR [rax+rdx]
	movzx	ecx, BYTE PTR c$[rbp]
	call	_ADD_UNIT_DIV
	mov	BYTE PTR c$[rbp], al

; 2650 :     c = _ADD_UNIT_DIV(c, xp[15], yp[15], &zp[15]);

	mov	eax, 4
	imul	rax, rax, 15
	mov	rcx, QWORD PTR zp$[rbp]
	add	rcx, rax
	mov	rax, rcx
	mov	ecx, 4
	imul	rcx, rcx, 15
	mov	edx, 4
	imul	rdx, rdx, 15
	mov	r9, rax
	mov	rax, QWORD PTR yp$[rbp]
	mov	r8d, DWORD PTR [rax+rcx]
	mov	rax, QWORD PTR xp$[rbp]
	mov	edx, DWORD PTR [rax+rdx]
	movzx	ecx, BYTE PTR c$[rbp]
	call	_ADD_UNIT_DIV
	mov	BYTE PTR c$[rbp], al

; 2651 : #elif defined(__GNUC__)
; 2652 : #ifdef _M_IX86
; 2653 :     __asm__ volatile (
; 2654 :         "addb\t$-1, %0\n\t"
; 2655 :         "movl\t(%1), %%ecx\n\t"
; 2656 :         "adcl\t(%2), %%ecx\n\t"
; 2657 :         "movl\t%%ecx, (%3)\n\t"
; 2658 :         "movl\t4(%1), %%ecx\n\t"
; 2659 :         "adcl\t4(%2), %%ecx\n\t"
; 2660 :         "movl\t%%ecx, 4(%3)\n\t"
; 2661 :         "movl\t8(%1), %%ecx\n\t"
; 2662 :         "adcl\t8(%2), %%ecx\n\t"
; 2663 :         "movl\t%%ecx, 8(%3)\n\t"
; 2664 :         "movl\t12(%1), %%ecx\n\t"
; 2665 :         "adcl\t12(%2), %%ecx\n\t"
; 2666 :         "movl\t%%ecx, 12(%3)\n\t"
; 2667 :         "movl\t16(%1), %%ecx\n\t"
; 2668 :         "adcl\t16(%2), %%ecx\n\t"
; 2669 :         "movl\t%%ecx, 16(%3)\n\t"
; 2670 :         "movl\t20(%1), %%ecx\n\t"
; 2671 :         "adcl\t20(%2), %%ecx\n\t"
; 2672 :         "movl\t%%ecx, 20(%3)\n\t"
; 2673 :         "movl\t24(%1), %%ecx\n\t"
; 2674 :         "adcl\t24(%2), %%ecx\n\t"
; 2675 :         "movl\t%%ecx, 24(%3)\n\t"
; 2676 :         "movl\t28(%1), %%ecx\n\t"
; 2677 :         "adcl\t28(%2), %%ecx\n\t"
; 2678 :         "movl\t%%ecx, 28(%3)\n\t"
; 2679 :         "movl\t32(%1), %%ecx\n\t"
; 2680 :         "adcl\t32(%2), %%ecx\n\t"
; 2681 :         "movl\t%%ecx, 32(%3)\n\t"
; 2682 :         "movl\t36(%1), %%ecx\n\t"
; 2683 :         "adcl\t36(%2), %%ecx\n\t"
; 2684 :         "movl\t%%ecx, 36(%3)\n\t"
; 2685 :         "movl\t40(%1), %%ecx\n\t"
; 2686 :         "adcl\t40(%2), %%ecx\n\t"
; 2687 :         "movl\t%%ecx, 40(%3)\n\t"
; 2688 :         "movl\t44(%1), %%ecx\n\t"
; 2689 :         "adcl\t44(%2), %%ecx\n\t"
; 2690 :         "movl\t%%ecx, 44(%3)\n\t"
; 2691 :         "movl\t48(%1), %%ecx\n\t"
; 2692 :         "adcl\t48(%2), %%ecx\n\t"
; 2693 :         "movl\t%%ecx, 48(%3)\n\t"
; 2694 :         "movl\t52(%1), %%ecx\n\t"
; 2695 :         "adcl\t52(%2), %%ecx\n\t"
; 2696 :         "movl\t%%ecx, 52(%3)\n\t"
; 2697 :         "movl\t56(%1), %%ecx\n\t"
; 2698 :         "adcl\t56(%2), %%ecx\n\t"
; 2699 :         "movl\t%%ecx, 56(%3)\n\t"
; 2700 :         "movl\t60(%1), %%ecx\n\t"
; 2701 :         "adcl\t60(%2), %%ecx\n\t"
; 2702 :         "movl\t%%ecx, 60(%3)\n\t"
; 2703 :         "setc\t%0"
; 2704 :         : "+r"(c), "+r"(xp), "+r"(yp), "+r"(zp)
; 2705 :         :
; 2706 :         : "cc", "memory", "%ecx"
; 2707 : );
; 2708 : #elif defined(_M_IX64)
; 2709 :     __asm__ volatile (
; 2710 :         "addb\t$-1, %0\n\t"
; 2711 :         "movq\t(%1), %%rcx\n\t"
; 2712 :         "adcq\t(%2), %%rcx\n\t"
; 2713 :         "movq\t%%rcx, (%3)\n\t"
; 2714 :         "movq\t8(%1), %%rcx\n\t"
; 2715 :         "adcq\t8(%2), %%rcx\n\t"
; 2716 :         "movq\t%%rcx, 8(%3)\n\t"
; 2717 :         "movq\t16(%1), %%rcx\n\t"
; 2718 :         "adcq\t16(%2), %%rcx\n\t"
; 2719 :         "movq\t%%rcx, 16(%3)\n\t"
; 2720 :         "movq\t24(%1), %%rcx\n\t"
; 2721 :         "adcq\t24(%2), %%rcx\n\t"
; 2722 :         "movq\t%%rcx, 24(%3)\n\t"
; 2723 :         "movq\t32(%1), %%rcx\n\t"
; 2724 :         "adcq\t32(%2), %%rcx\n\t"
; 2725 :         "movq\t%%rcx, 32(%3)\n\t"
; 2726 :         "movq\t40(%1), %%rcx\n\t"
; 2727 :         "adcq\t40(%2), %%rcx\n\t"
; 2728 :         "movq\t%%rcx, 40(%3)\n\t"
; 2729 :         "movq\t48(%1), %%rcx\n\t"
; 2730 :         "adcq\t48(%2), %%rcx\n\t"
; 2731 :         "movq\t%%rcx, 48(%3)\n\t"
; 2732 :         "movq\t56(%1), %%rcx\n\t"
; 2733 :         "adcq\t56(%2), %%rcx\n\t"
; 2734 :         "movq\t%%rcx, 56(%3)\n\t"
; 2735 :         "movq\t64(%1), %%rcx\n\t"
; 2736 :         "adcq\t64(%2), %%rcx\n\t"
; 2737 :         "movq\t%%rcx, 64(%3)\n\t"
; 2738 :         "movq\t72(%1), %%rcx\n\t"
; 2739 :         "adcq\t72(%2), %%rcx\n\t"
; 2740 :         "movq\t%%rcx, 72(%3)\n\t"
; 2741 :         "movq\t80(%1), %%rcx\n\t"
; 2742 :         "adcq\t80(%2), %%rcx\n\t"
; 2743 :         "movq\t%%rcx, 80(%3)\n\t"
; 2744 :         "movq\t88(%1), %%rcx\n\t"
; 2745 :         "adcq\t88(%2), %%rcx\n\t"
; 2746 :         "movq\t%%rcx, 88(%3)\n\t"
; 2747 :         "movq\t96(%1), %%rcx\n\t"
; 2748 :         "adcq\t96(%2), %%rcx\n\t"
; 2749 :         "movq\t%%rcx, 96(%3)\n\t"
; 2750 :         "movq\t104(%1), %%rcx\n\t"
; 2751 :         "adcq\t104(%2), %%rcx\n\t"
; 2752 :         "movq\t%%rcx, 104(%3)\n\t"
; 2753 :         "movq\t112(%1), %%rcx\n\t"
; 2754 :         "adcq\t112(%2), %%rcx\n\t"
; 2755 :         "movq\t%%rcx, 112(%3)\n\t"
; 2756 :         "movq\t120(%1), %%rcx\n\t"
; 2757 :         "adcq\t120(%2), %%rcx\n\t"
; 2758 :         "movq\t%%rcx, 120(%3)\n\t"
; 2759 :         "setc\t%0"
; 2760 :         : "+r"(c), "+r"(xp), "+r"(yp), "+r"(zp)
; 2761 :         :
; 2762 :         : "cc", "memory", "%rcx"
; 2763 : );
; 2764 : #else
; 2765 : #error unknown platform
; 2766 : #endif
; 2767 : #else
; 2768 : #error unknown compiler
; 2769 : #endif
; 2770 :     return (c);

	movzx	eax, BYTE PTR c$[rbp]

; 2771 : }

	lea	rsp, QWORD PTR [rbp+200]
	pop	rdi
	pop	rbp
	ret	0
_ADD_16WORDS_ADC_DIV ENDP
_TEXT	ENDS
; Function compile flags: /Odtp /RTCsu /ZI
; File z:\sources\lunor\repos\rougemeilland\palmtree.math.core.implements\palmtree.math.core.implements\autogenerated_inline_func.h
;	COMDAT _ADD_32WORDS_ADCX_DIV
_TEXT	SEGMENT
c$ = 224
xp$ = 232
yp$ = 240
zp$ = 248
_ADD_32WORDS_ADCX_DIV PROC				; COMDAT

; 1310 : {

	mov	QWORD PTR [rsp+32], r9
	mov	QWORD PTR [rsp+24], r8
	mov	QWORD PTR [rsp+16], rdx
	mov	BYTE PTR [rsp+8], cl
	push	rbp
	push	rdi
	sub	rsp, 232				; 000000e8H
	lea	rbp, QWORD PTR [rsp+32]
	mov	rdi, rsp
	mov	ecx, 58					; 0000003aH
	mov	eax, -858993460				; ccccccccH
	rep stosd
	movzx	ecx, BYTE PTR [rsp+264]
	lea	rcx, OFFSET FLAT:__89DB6AB9_autogenerated_inline_func@h
	call	__CheckForDebuggerJustMyCode

; 1311 : #ifdef _MSC_VER
; 1312 :     c = _ADDX_UNIT_DIV(c, xp[0], yp[0], &zp[0]);

	mov	eax, 4
	imul	rax, rax, 0
	mov	rcx, QWORD PTR zp$[rbp]
	add	rcx, rax
	mov	rax, rcx
	mov	ecx, 4
	imul	rcx, rcx, 0
	mov	edx, 4
	imul	rdx, rdx, 0
	mov	r9, rax
	mov	rax, QWORD PTR yp$[rbp]
	mov	r8d, DWORD PTR [rax+rcx]
	mov	rax, QWORD PTR xp$[rbp]
	mov	edx, DWORD PTR [rax+rdx]
	movzx	ecx, BYTE PTR c$[rbp]
	call	_ADDX_UNIT_DIV
	mov	BYTE PTR c$[rbp], al

; 1313 :     c = _ADDX_UNIT_DIV(c, xp[1], yp[1], &zp[1]);

	mov	eax, 4
	imul	rax, rax, 1
	mov	rcx, QWORD PTR zp$[rbp]
	add	rcx, rax
	mov	rax, rcx
	mov	ecx, 4
	imul	rcx, rcx, 1
	mov	edx, 4
	imul	rdx, rdx, 1
	mov	r9, rax
	mov	rax, QWORD PTR yp$[rbp]
	mov	r8d, DWORD PTR [rax+rcx]
	mov	rax, QWORD PTR xp$[rbp]
	mov	edx, DWORD PTR [rax+rdx]
	movzx	ecx, BYTE PTR c$[rbp]
	call	_ADDX_UNIT_DIV
	mov	BYTE PTR c$[rbp], al

; 1314 :     c = _ADDX_UNIT_DIV(c, xp[2], yp[2], &zp[2]);

	mov	eax, 4
	imul	rax, rax, 2
	mov	rcx, QWORD PTR zp$[rbp]
	add	rcx, rax
	mov	rax, rcx
	mov	ecx, 4
	imul	rcx, rcx, 2
	mov	edx, 4
	imul	rdx, rdx, 2
	mov	r9, rax
	mov	rax, QWORD PTR yp$[rbp]
	mov	r8d, DWORD PTR [rax+rcx]
	mov	rax, QWORD PTR xp$[rbp]
	mov	edx, DWORD PTR [rax+rdx]
	movzx	ecx, BYTE PTR c$[rbp]
	call	_ADDX_UNIT_DIV
	mov	BYTE PTR c$[rbp], al

; 1315 :     c = _ADDX_UNIT_DIV(c, xp[3], yp[3], &zp[3]);

	mov	eax, 4
	imul	rax, rax, 3
	mov	rcx, QWORD PTR zp$[rbp]
	add	rcx, rax
	mov	rax, rcx
	mov	ecx, 4
	imul	rcx, rcx, 3
	mov	edx, 4
	imul	rdx, rdx, 3
	mov	r9, rax
	mov	rax, QWORD PTR yp$[rbp]
	mov	r8d, DWORD PTR [rax+rcx]
	mov	rax, QWORD PTR xp$[rbp]
	mov	edx, DWORD PTR [rax+rdx]
	movzx	ecx, BYTE PTR c$[rbp]
	call	_ADDX_UNIT_DIV
	mov	BYTE PTR c$[rbp], al

; 1316 :     c = _ADDX_UNIT_DIV(c, xp[4], yp[4], &zp[4]);

	mov	eax, 4
	imul	rax, rax, 4
	mov	rcx, QWORD PTR zp$[rbp]
	add	rcx, rax
	mov	rax, rcx
	mov	ecx, 4
	imul	rcx, rcx, 4
	mov	edx, 4
	imul	rdx, rdx, 4
	mov	r9, rax
	mov	rax, QWORD PTR yp$[rbp]
	mov	r8d, DWORD PTR [rax+rcx]
	mov	rax, QWORD PTR xp$[rbp]
	mov	edx, DWORD PTR [rax+rdx]
	movzx	ecx, BYTE PTR c$[rbp]
	call	_ADDX_UNIT_DIV
	mov	BYTE PTR c$[rbp], al

; 1317 :     c = _ADDX_UNIT_DIV(c, xp[5], yp[5], &zp[5]);

	mov	eax, 4
	imul	rax, rax, 5
	mov	rcx, QWORD PTR zp$[rbp]
	add	rcx, rax
	mov	rax, rcx
	mov	ecx, 4
	imul	rcx, rcx, 5
	mov	edx, 4
	imul	rdx, rdx, 5
	mov	r9, rax
	mov	rax, QWORD PTR yp$[rbp]
	mov	r8d, DWORD PTR [rax+rcx]
	mov	rax, QWORD PTR xp$[rbp]
	mov	edx, DWORD PTR [rax+rdx]
	movzx	ecx, BYTE PTR c$[rbp]
	call	_ADDX_UNIT_DIV
	mov	BYTE PTR c$[rbp], al

; 1318 :     c = _ADDX_UNIT_DIV(c, xp[6], yp[6], &zp[6]);

	mov	eax, 4
	imul	rax, rax, 6
	mov	rcx, QWORD PTR zp$[rbp]
	add	rcx, rax
	mov	rax, rcx
	mov	ecx, 4
	imul	rcx, rcx, 6
	mov	edx, 4
	imul	rdx, rdx, 6
	mov	r9, rax
	mov	rax, QWORD PTR yp$[rbp]
	mov	r8d, DWORD PTR [rax+rcx]
	mov	rax, QWORD PTR xp$[rbp]
	mov	edx, DWORD PTR [rax+rdx]
	movzx	ecx, BYTE PTR c$[rbp]
	call	_ADDX_UNIT_DIV
	mov	BYTE PTR c$[rbp], al

; 1319 :     c = _ADDX_UNIT_DIV(c, xp[7], yp[7], &zp[7]);

	mov	eax, 4
	imul	rax, rax, 7
	mov	rcx, QWORD PTR zp$[rbp]
	add	rcx, rax
	mov	rax, rcx
	mov	ecx, 4
	imul	rcx, rcx, 7
	mov	edx, 4
	imul	rdx, rdx, 7
	mov	r9, rax
	mov	rax, QWORD PTR yp$[rbp]
	mov	r8d, DWORD PTR [rax+rcx]
	mov	rax, QWORD PTR xp$[rbp]
	mov	edx, DWORD PTR [rax+rdx]
	movzx	ecx, BYTE PTR c$[rbp]
	call	_ADDX_UNIT_DIV
	mov	BYTE PTR c$[rbp], al

; 1320 :     c = _ADDX_UNIT_DIV(c, xp[8], yp[8], &zp[8]);

	mov	eax, 4
	imul	rax, rax, 8
	mov	rcx, QWORD PTR zp$[rbp]
	add	rcx, rax
	mov	rax, rcx
	mov	ecx, 4
	imul	rcx, rcx, 8
	mov	edx, 4
	imul	rdx, rdx, 8
	mov	r9, rax
	mov	rax, QWORD PTR yp$[rbp]
	mov	r8d, DWORD PTR [rax+rcx]
	mov	rax, QWORD PTR xp$[rbp]
	mov	edx, DWORD PTR [rax+rdx]
	movzx	ecx, BYTE PTR c$[rbp]
	call	_ADDX_UNIT_DIV
	mov	BYTE PTR c$[rbp], al

; 1321 :     c = _ADDX_UNIT_DIV(c, xp[9], yp[9], &zp[9]);

	mov	eax, 4
	imul	rax, rax, 9
	mov	rcx, QWORD PTR zp$[rbp]
	add	rcx, rax
	mov	rax, rcx
	mov	ecx, 4
	imul	rcx, rcx, 9
	mov	edx, 4
	imul	rdx, rdx, 9
	mov	r9, rax
	mov	rax, QWORD PTR yp$[rbp]
	mov	r8d, DWORD PTR [rax+rcx]
	mov	rax, QWORD PTR xp$[rbp]
	mov	edx, DWORD PTR [rax+rdx]
	movzx	ecx, BYTE PTR c$[rbp]
	call	_ADDX_UNIT_DIV
	mov	BYTE PTR c$[rbp], al

; 1322 :     c = _ADDX_UNIT_DIV(c, xp[10], yp[10], &zp[10]);

	mov	eax, 4
	imul	rax, rax, 10
	mov	rcx, QWORD PTR zp$[rbp]
	add	rcx, rax
	mov	rax, rcx
	mov	ecx, 4
	imul	rcx, rcx, 10
	mov	edx, 4
	imul	rdx, rdx, 10
	mov	r9, rax
	mov	rax, QWORD PTR yp$[rbp]
	mov	r8d, DWORD PTR [rax+rcx]
	mov	rax, QWORD PTR xp$[rbp]
	mov	edx, DWORD PTR [rax+rdx]
	movzx	ecx, BYTE PTR c$[rbp]
	call	_ADDX_UNIT_DIV
	mov	BYTE PTR c$[rbp], al

; 1323 :     c = _ADDX_UNIT_DIV(c, xp[11], yp[11], &zp[11]);

	mov	eax, 4
	imul	rax, rax, 11
	mov	rcx, QWORD PTR zp$[rbp]
	add	rcx, rax
	mov	rax, rcx
	mov	ecx, 4
	imul	rcx, rcx, 11
	mov	edx, 4
	imul	rdx, rdx, 11
	mov	r9, rax
	mov	rax, QWORD PTR yp$[rbp]
	mov	r8d, DWORD PTR [rax+rcx]
	mov	rax, QWORD PTR xp$[rbp]
	mov	edx, DWORD PTR [rax+rdx]
	movzx	ecx, BYTE PTR c$[rbp]
	call	_ADDX_UNIT_DIV
	mov	BYTE PTR c$[rbp], al

; 1324 :     c = _ADDX_UNIT_DIV(c, xp[12], yp[12], &zp[12]);

	mov	eax, 4
	imul	rax, rax, 12
	mov	rcx, QWORD PTR zp$[rbp]
	add	rcx, rax
	mov	rax, rcx
	mov	ecx, 4
	imul	rcx, rcx, 12
	mov	edx, 4
	imul	rdx, rdx, 12
	mov	r9, rax
	mov	rax, QWORD PTR yp$[rbp]
	mov	r8d, DWORD PTR [rax+rcx]
	mov	rax, QWORD PTR xp$[rbp]
	mov	edx, DWORD PTR [rax+rdx]
	movzx	ecx, BYTE PTR c$[rbp]
	call	_ADDX_UNIT_DIV
	mov	BYTE PTR c$[rbp], al

; 1325 :     c = _ADDX_UNIT_DIV(c, xp[13], yp[13], &zp[13]);

	mov	eax, 4
	imul	rax, rax, 13
	mov	rcx, QWORD PTR zp$[rbp]
	add	rcx, rax
	mov	rax, rcx
	mov	ecx, 4
	imul	rcx, rcx, 13
	mov	edx, 4
	imul	rdx, rdx, 13
	mov	r9, rax
	mov	rax, QWORD PTR yp$[rbp]
	mov	r8d, DWORD PTR [rax+rcx]
	mov	rax, QWORD PTR xp$[rbp]
	mov	edx, DWORD PTR [rax+rdx]
	movzx	ecx, BYTE PTR c$[rbp]
	call	_ADDX_UNIT_DIV
	mov	BYTE PTR c$[rbp], al

; 1326 :     c = _ADDX_UNIT_DIV(c, xp[14], yp[14], &zp[14]);

	mov	eax, 4
	imul	rax, rax, 14
	mov	rcx, QWORD PTR zp$[rbp]
	add	rcx, rax
	mov	rax, rcx
	mov	ecx, 4
	imul	rcx, rcx, 14
	mov	edx, 4
	imul	rdx, rdx, 14
	mov	r9, rax
	mov	rax, QWORD PTR yp$[rbp]
	mov	r8d, DWORD PTR [rax+rcx]
	mov	rax, QWORD PTR xp$[rbp]
	mov	edx, DWORD PTR [rax+rdx]
	movzx	ecx, BYTE PTR c$[rbp]
	call	_ADDX_UNIT_DIV
	mov	BYTE PTR c$[rbp], al

; 1327 :     c = _ADDX_UNIT_DIV(c, xp[15], yp[15], &zp[15]);

	mov	eax, 4
	imul	rax, rax, 15
	mov	rcx, QWORD PTR zp$[rbp]
	add	rcx, rax
	mov	rax, rcx
	mov	ecx, 4
	imul	rcx, rcx, 15
	mov	edx, 4
	imul	rdx, rdx, 15
	mov	r9, rax
	mov	rax, QWORD PTR yp$[rbp]
	mov	r8d, DWORD PTR [rax+rcx]
	mov	rax, QWORD PTR xp$[rbp]
	mov	edx, DWORD PTR [rax+rdx]
	movzx	ecx, BYTE PTR c$[rbp]
	call	_ADDX_UNIT_DIV
	mov	BYTE PTR c$[rbp], al

; 1328 :     c = _ADDX_UNIT_DIV(c, xp[16], yp[16], &zp[16]);

	mov	eax, 4
	imul	rax, rax, 16
	mov	rcx, QWORD PTR zp$[rbp]
	add	rcx, rax
	mov	rax, rcx
	mov	ecx, 4
	imul	rcx, rcx, 16
	mov	edx, 4
	imul	rdx, rdx, 16
	mov	r9, rax
	mov	rax, QWORD PTR yp$[rbp]
	mov	r8d, DWORD PTR [rax+rcx]
	mov	rax, QWORD PTR xp$[rbp]
	mov	edx, DWORD PTR [rax+rdx]
	movzx	ecx, BYTE PTR c$[rbp]
	call	_ADDX_UNIT_DIV
	mov	BYTE PTR c$[rbp], al

; 1329 :     c = _ADDX_UNIT_DIV(c, xp[17], yp[17], &zp[17]);

	mov	eax, 4
	imul	rax, rax, 17
	mov	rcx, QWORD PTR zp$[rbp]
	add	rcx, rax
	mov	rax, rcx
	mov	ecx, 4
	imul	rcx, rcx, 17
	mov	edx, 4
	imul	rdx, rdx, 17
	mov	r9, rax
	mov	rax, QWORD PTR yp$[rbp]
	mov	r8d, DWORD PTR [rax+rcx]
	mov	rax, QWORD PTR xp$[rbp]
	mov	edx, DWORD PTR [rax+rdx]
	movzx	ecx, BYTE PTR c$[rbp]
	call	_ADDX_UNIT_DIV
	mov	BYTE PTR c$[rbp], al

; 1330 :     c = _ADDX_UNIT_DIV(c, xp[18], yp[18], &zp[18]);

	mov	eax, 4
	imul	rax, rax, 18
	mov	rcx, QWORD PTR zp$[rbp]
	add	rcx, rax
	mov	rax, rcx
	mov	ecx, 4
	imul	rcx, rcx, 18
	mov	edx, 4
	imul	rdx, rdx, 18
	mov	r9, rax
	mov	rax, QWORD PTR yp$[rbp]
	mov	r8d, DWORD PTR [rax+rcx]
	mov	rax, QWORD PTR xp$[rbp]
	mov	edx, DWORD PTR [rax+rdx]
	movzx	ecx, BYTE PTR c$[rbp]
	call	_ADDX_UNIT_DIV
	mov	BYTE PTR c$[rbp], al

; 1331 :     c = _ADDX_UNIT_DIV(c, xp[19], yp[19], &zp[19]);

	mov	eax, 4
	imul	rax, rax, 19
	mov	rcx, QWORD PTR zp$[rbp]
	add	rcx, rax
	mov	rax, rcx
	mov	ecx, 4
	imul	rcx, rcx, 19
	mov	edx, 4
	imul	rdx, rdx, 19
	mov	r9, rax
	mov	rax, QWORD PTR yp$[rbp]
	mov	r8d, DWORD PTR [rax+rcx]
	mov	rax, QWORD PTR xp$[rbp]
	mov	edx, DWORD PTR [rax+rdx]
	movzx	ecx, BYTE PTR c$[rbp]
	call	_ADDX_UNIT_DIV
	mov	BYTE PTR c$[rbp], al

; 1332 :     c = _ADDX_UNIT_DIV(c, xp[20], yp[20], &zp[20]);

	mov	eax, 4
	imul	rax, rax, 20
	mov	rcx, QWORD PTR zp$[rbp]
	add	rcx, rax
	mov	rax, rcx
	mov	ecx, 4
	imul	rcx, rcx, 20
	mov	edx, 4
	imul	rdx, rdx, 20
	mov	r9, rax
	mov	rax, QWORD PTR yp$[rbp]
	mov	r8d, DWORD PTR [rax+rcx]
	mov	rax, QWORD PTR xp$[rbp]
	mov	edx, DWORD PTR [rax+rdx]
	movzx	ecx, BYTE PTR c$[rbp]
	call	_ADDX_UNIT_DIV
	mov	BYTE PTR c$[rbp], al

; 1333 :     c = _ADDX_UNIT_DIV(c, xp[21], yp[21], &zp[21]);

	mov	eax, 4
	imul	rax, rax, 21
	mov	rcx, QWORD PTR zp$[rbp]
	add	rcx, rax
	mov	rax, rcx
	mov	ecx, 4
	imul	rcx, rcx, 21
	mov	edx, 4
	imul	rdx, rdx, 21
	mov	r9, rax
	mov	rax, QWORD PTR yp$[rbp]
	mov	r8d, DWORD PTR [rax+rcx]
	mov	rax, QWORD PTR xp$[rbp]
	mov	edx, DWORD PTR [rax+rdx]
	movzx	ecx, BYTE PTR c$[rbp]
	call	_ADDX_UNIT_DIV
	mov	BYTE PTR c$[rbp], al

; 1334 :     c = _ADDX_UNIT_DIV(c, xp[22], yp[22], &zp[22]);

	mov	eax, 4
	imul	rax, rax, 22
	mov	rcx, QWORD PTR zp$[rbp]
	add	rcx, rax
	mov	rax, rcx
	mov	ecx, 4
	imul	rcx, rcx, 22
	mov	edx, 4
	imul	rdx, rdx, 22
	mov	r9, rax
	mov	rax, QWORD PTR yp$[rbp]
	mov	r8d, DWORD PTR [rax+rcx]
	mov	rax, QWORD PTR xp$[rbp]
	mov	edx, DWORD PTR [rax+rdx]
	movzx	ecx, BYTE PTR c$[rbp]
	call	_ADDX_UNIT_DIV
	mov	BYTE PTR c$[rbp], al

; 1335 :     c = _ADDX_UNIT_DIV(c, xp[23], yp[23], &zp[23]);

	mov	eax, 4
	imul	rax, rax, 23
	mov	rcx, QWORD PTR zp$[rbp]
	add	rcx, rax
	mov	rax, rcx
	mov	ecx, 4
	imul	rcx, rcx, 23
	mov	edx, 4
	imul	rdx, rdx, 23
	mov	r9, rax
	mov	rax, QWORD PTR yp$[rbp]
	mov	r8d, DWORD PTR [rax+rcx]
	mov	rax, QWORD PTR xp$[rbp]
	mov	edx, DWORD PTR [rax+rdx]
	movzx	ecx, BYTE PTR c$[rbp]
	call	_ADDX_UNIT_DIV
	mov	BYTE PTR c$[rbp], al

; 1336 :     c = _ADDX_UNIT_DIV(c, xp[24], yp[24], &zp[24]);

	mov	eax, 4
	imul	rax, rax, 24
	mov	rcx, QWORD PTR zp$[rbp]
	add	rcx, rax
	mov	rax, rcx
	mov	ecx, 4
	imul	rcx, rcx, 24
	mov	edx, 4
	imul	rdx, rdx, 24
	mov	r9, rax
	mov	rax, QWORD PTR yp$[rbp]
	mov	r8d, DWORD PTR [rax+rcx]
	mov	rax, QWORD PTR xp$[rbp]
	mov	edx, DWORD PTR [rax+rdx]
	movzx	ecx, BYTE PTR c$[rbp]
	call	_ADDX_UNIT_DIV
	mov	BYTE PTR c$[rbp], al

; 1337 :     c = _ADDX_UNIT_DIV(c, xp[25], yp[25], &zp[25]);

	mov	eax, 4
	imul	rax, rax, 25
	mov	rcx, QWORD PTR zp$[rbp]
	add	rcx, rax
	mov	rax, rcx
	mov	ecx, 4
	imul	rcx, rcx, 25
	mov	edx, 4
	imul	rdx, rdx, 25
	mov	r9, rax
	mov	rax, QWORD PTR yp$[rbp]
	mov	r8d, DWORD PTR [rax+rcx]
	mov	rax, QWORD PTR xp$[rbp]
	mov	edx, DWORD PTR [rax+rdx]
	movzx	ecx, BYTE PTR c$[rbp]
	call	_ADDX_UNIT_DIV
	mov	BYTE PTR c$[rbp], al

; 1338 :     c = _ADDX_UNIT_DIV(c, xp[26], yp[26], &zp[26]);

	mov	eax, 4
	imul	rax, rax, 26
	mov	rcx, QWORD PTR zp$[rbp]
	add	rcx, rax
	mov	rax, rcx
	mov	ecx, 4
	imul	rcx, rcx, 26
	mov	edx, 4
	imul	rdx, rdx, 26
	mov	r9, rax
	mov	rax, QWORD PTR yp$[rbp]
	mov	r8d, DWORD PTR [rax+rcx]
	mov	rax, QWORD PTR xp$[rbp]
	mov	edx, DWORD PTR [rax+rdx]
	movzx	ecx, BYTE PTR c$[rbp]
	call	_ADDX_UNIT_DIV
	mov	BYTE PTR c$[rbp], al

; 1339 :     c = _ADDX_UNIT_DIV(c, xp[27], yp[27], &zp[27]);

	mov	eax, 4
	imul	rax, rax, 27
	mov	rcx, QWORD PTR zp$[rbp]
	add	rcx, rax
	mov	rax, rcx
	mov	ecx, 4
	imul	rcx, rcx, 27
	mov	edx, 4
	imul	rdx, rdx, 27
	mov	r9, rax
	mov	rax, QWORD PTR yp$[rbp]
	mov	r8d, DWORD PTR [rax+rcx]
	mov	rax, QWORD PTR xp$[rbp]
	mov	edx, DWORD PTR [rax+rdx]
	movzx	ecx, BYTE PTR c$[rbp]
	call	_ADDX_UNIT_DIV
	mov	BYTE PTR c$[rbp], al

; 1340 :     c = _ADDX_UNIT_DIV(c, xp[28], yp[28], &zp[28]);

	mov	eax, 4
	imul	rax, rax, 28
	mov	rcx, QWORD PTR zp$[rbp]
	add	rcx, rax
	mov	rax, rcx
	mov	ecx, 4
	imul	rcx, rcx, 28
	mov	edx, 4
	imul	rdx, rdx, 28
	mov	r9, rax
	mov	rax, QWORD PTR yp$[rbp]
	mov	r8d, DWORD PTR [rax+rcx]
	mov	rax, QWORD PTR xp$[rbp]
	mov	edx, DWORD PTR [rax+rdx]
	movzx	ecx, BYTE PTR c$[rbp]
	call	_ADDX_UNIT_DIV
	mov	BYTE PTR c$[rbp], al

; 1341 :     c = _ADDX_UNIT_DIV(c, xp[29], yp[29], &zp[29]);

	mov	eax, 4
	imul	rax, rax, 29
	mov	rcx, QWORD PTR zp$[rbp]
	add	rcx, rax
	mov	rax, rcx
	mov	ecx, 4
	imul	rcx, rcx, 29
	mov	edx, 4
	imul	rdx, rdx, 29
	mov	r9, rax
	mov	rax, QWORD PTR yp$[rbp]
	mov	r8d, DWORD PTR [rax+rcx]
	mov	rax, QWORD PTR xp$[rbp]
	mov	edx, DWORD PTR [rax+rdx]
	movzx	ecx, BYTE PTR c$[rbp]
	call	_ADDX_UNIT_DIV
	mov	BYTE PTR c$[rbp], al

; 1342 :     c = _ADDX_UNIT_DIV(c, xp[30], yp[30], &zp[30]);

	mov	eax, 4
	imul	rax, rax, 30
	mov	rcx, QWORD PTR zp$[rbp]
	add	rcx, rax
	mov	rax, rcx
	mov	ecx, 4
	imul	rcx, rcx, 30
	mov	edx, 4
	imul	rdx, rdx, 30
	mov	r9, rax
	mov	rax, QWORD PTR yp$[rbp]
	mov	r8d, DWORD PTR [rax+rcx]
	mov	rax, QWORD PTR xp$[rbp]
	mov	edx, DWORD PTR [rax+rdx]
	movzx	ecx, BYTE PTR c$[rbp]
	call	_ADDX_UNIT_DIV
	mov	BYTE PTR c$[rbp], al

; 1343 :     c = _ADDX_UNIT_DIV(c, xp[31], yp[31], &zp[31]);

	mov	eax, 4
	imul	rax, rax, 31
	mov	rcx, QWORD PTR zp$[rbp]
	add	rcx, rax
	mov	rax, rcx
	mov	ecx, 4
	imul	rcx, rcx, 31
	mov	edx, 4
	imul	rdx, rdx, 31
	mov	r9, rax
	mov	rax, QWORD PTR yp$[rbp]
	mov	r8d, DWORD PTR [rax+rcx]
	mov	rax, QWORD PTR xp$[rbp]
	mov	edx, DWORD PTR [rax+rdx]
	movzx	ecx, BYTE PTR c$[rbp]
	call	_ADDX_UNIT_DIV
	mov	BYTE PTR c$[rbp], al

; 1344 : #elif defined(__GNUC__)
; 1345 : #ifdef _M_IX86
; 1346 :     __asm__ volatile (
; 1347 :         "addb\t$-1, %0\n\t"
; 1348 :         "movl\t(%1), %%ecx\n\t"
; 1349 :         "adcxl\t(%2), %%ecx\n\t"
; 1350 :         "movl\t%%ecx, (%3)\n\t"
; 1351 :         "movl\t4(%1), %%ecx\n\t"
; 1352 :         "adcxl\t4(%2), %%ecx\n\t"
; 1353 :         "movl\t%%ecx, 4(%3)\n\t"
; 1354 :         "movl\t8(%1), %%ecx\n\t"
; 1355 :         "adcxl\t8(%2), %%ecx\n\t"
; 1356 :         "movl\t%%ecx, 8(%3)\n\t"
; 1357 :         "movl\t12(%1), %%ecx\n\t"
; 1358 :         "adcxl\t12(%2), %%ecx\n\t"
; 1359 :         "movl\t%%ecx, 12(%3)\n\t"
; 1360 :         "movl\t16(%1), %%ecx\n\t"
; 1361 :         "adcxl\t16(%2), %%ecx\n\t"
; 1362 :         "movl\t%%ecx, 16(%3)\n\t"
; 1363 :         "movl\t20(%1), %%ecx\n\t"
; 1364 :         "adcxl\t20(%2), %%ecx\n\t"
; 1365 :         "movl\t%%ecx, 20(%3)\n\t"
; 1366 :         "movl\t24(%1), %%ecx\n\t"
; 1367 :         "adcxl\t24(%2), %%ecx\n\t"
; 1368 :         "movl\t%%ecx, 24(%3)\n\t"
; 1369 :         "movl\t28(%1), %%ecx\n\t"
; 1370 :         "adcxl\t28(%2), %%ecx\n\t"
; 1371 :         "movl\t%%ecx, 28(%3)\n\t"
; 1372 :         "movl\t32(%1), %%ecx\n\t"
; 1373 :         "adcxl\t32(%2), %%ecx\n\t"
; 1374 :         "movl\t%%ecx, 32(%3)\n\t"
; 1375 :         "movl\t36(%1), %%ecx\n\t"
; 1376 :         "adcxl\t36(%2), %%ecx\n\t"
; 1377 :         "movl\t%%ecx, 36(%3)\n\t"
; 1378 :         "movl\t40(%1), %%ecx\n\t"
; 1379 :         "adcxl\t40(%2), %%ecx\n\t"
; 1380 :         "movl\t%%ecx, 40(%3)\n\t"
; 1381 :         "movl\t44(%1), %%ecx\n\t"
; 1382 :         "adcxl\t44(%2), %%ecx\n\t"
; 1383 :         "movl\t%%ecx, 44(%3)\n\t"
; 1384 :         "movl\t48(%1), %%ecx\n\t"
; 1385 :         "adcxl\t48(%2), %%ecx\n\t"
; 1386 :         "movl\t%%ecx, 48(%3)\n\t"
; 1387 :         "movl\t52(%1), %%ecx\n\t"
; 1388 :         "adcxl\t52(%2), %%ecx\n\t"
; 1389 :         "movl\t%%ecx, 52(%3)\n\t"
; 1390 :         "movl\t56(%1), %%ecx\n\t"
; 1391 :         "adcxl\t56(%2), %%ecx\n\t"
; 1392 :         "movl\t%%ecx, 56(%3)\n\t"
; 1393 :         "movl\t60(%1), %%ecx\n\t"
; 1394 :         "adcxl\t60(%2), %%ecx\n\t"
; 1395 :         "movl\t%%ecx, 60(%3)\n\t"
; 1396 :         "movl\t64(%1), %%ecx\n\t"
; 1397 :         "adcxl\t64(%2), %%ecx\n\t"
; 1398 :         "movl\t%%ecx, 64(%3)\n\t"
; 1399 :         "movl\t68(%1), %%ecx\n\t"
; 1400 :         "adcxl\t68(%2), %%ecx\n\t"
; 1401 :         "movl\t%%ecx, 68(%3)\n\t"
; 1402 :         "movl\t72(%1), %%ecx\n\t"
; 1403 :         "adcxl\t72(%2), %%ecx\n\t"
; 1404 :         "movl\t%%ecx, 72(%3)\n\t"
; 1405 :         "movl\t76(%1), %%ecx\n\t"
; 1406 :         "adcxl\t76(%2), %%ecx\n\t"
; 1407 :         "movl\t%%ecx, 76(%3)\n\t"
; 1408 :         "movl\t80(%1), %%ecx\n\t"
; 1409 :         "adcxl\t80(%2), %%ecx\n\t"
; 1410 :         "movl\t%%ecx, 80(%3)\n\t"
; 1411 :         "movl\t84(%1), %%ecx\n\t"
; 1412 :         "adcxl\t84(%2), %%ecx\n\t"
; 1413 :         "movl\t%%ecx, 84(%3)\n\t"
; 1414 :         "movl\t88(%1), %%ecx\n\t"
; 1415 :         "adcxl\t88(%2), %%ecx\n\t"
; 1416 :         "movl\t%%ecx, 88(%3)\n\t"
; 1417 :         "movl\t92(%1), %%ecx\n\t"
; 1418 :         "adcxl\t92(%2), %%ecx\n\t"
; 1419 :         "movl\t%%ecx, 92(%3)\n\t"
; 1420 :         "movl\t96(%1), %%ecx\n\t"
; 1421 :         "adcxl\t96(%2), %%ecx\n\t"
; 1422 :         "movl\t%%ecx, 96(%3)\n\t"
; 1423 :         "movl\t100(%1), %%ecx\n\t"
; 1424 :         "adcxl\t100(%2), %%ecx\n\t"
; 1425 :         "movl\t%%ecx, 100(%3)\n\t"
; 1426 :         "movl\t104(%1), %%ecx\n\t"
; 1427 :         "adcxl\t104(%2), %%ecx\n\t"
; 1428 :         "movl\t%%ecx, 104(%3)\n\t"
; 1429 :         "movl\t108(%1), %%ecx\n\t"
; 1430 :         "adcxl\t108(%2), %%ecx\n\t"
; 1431 :         "movl\t%%ecx, 108(%3)\n\t"
; 1432 :         "movl\t112(%1), %%ecx\n\t"
; 1433 :         "adcxl\t112(%2), %%ecx\n\t"
; 1434 :         "movl\t%%ecx, 112(%3)\n\t"
; 1435 :         "movl\t116(%1), %%ecx\n\t"
; 1436 :         "adcxl\t116(%2), %%ecx\n\t"
; 1437 :         "movl\t%%ecx, 116(%3)\n\t"
; 1438 :         "movl\t120(%1), %%ecx\n\t"
; 1439 :         "adcxl\t120(%2), %%ecx\n\t"
; 1440 :         "movl\t%%ecx, 120(%3)\n\t"
; 1441 :         "movl\t124(%1), %%ecx\n\t"
; 1442 :         "adcxl\t124(%2), %%ecx\n\t"
; 1443 :         "movl\t%%ecx, 124(%3)\n\t"
; 1444 :         "setc\t%0"
; 1445 :         : "+r"(c), "+r"(xp), "+r"(yp), "+r"(zp)
; 1446 :         :
; 1447 :         : "cc", "memory", "%ecx"
; 1448 : );
; 1449 : #elif defined(_M_IX64)
; 1450 :     __asm__ volatile (
; 1451 :         "addb\t$-1, %0\n\t"
; 1452 :         "movq\t(%1), %%rcx\n\t"
; 1453 :         "adcxq\t(%2), %%rcx\n\t"
; 1454 :         "movq\t%%rcx, (%3)\n\t"
; 1455 :         "movq\t8(%1), %%rcx\n\t"
; 1456 :         "adcxq\t8(%2), %%rcx\n\t"
; 1457 :         "movq\t%%rcx, 8(%3)\n\t"
; 1458 :         "movq\t16(%1), %%rcx\n\t"
; 1459 :         "adcxq\t16(%2), %%rcx\n\t"
; 1460 :         "movq\t%%rcx, 16(%3)\n\t"
; 1461 :         "movq\t24(%1), %%rcx\n\t"
; 1462 :         "adcxq\t24(%2), %%rcx\n\t"
; 1463 :         "movq\t%%rcx, 24(%3)\n\t"
; 1464 :         "movq\t32(%1), %%rcx\n\t"
; 1465 :         "adcxq\t32(%2), %%rcx\n\t"
; 1466 :         "movq\t%%rcx, 32(%3)\n\t"
; 1467 :         "movq\t40(%1), %%rcx\n\t"
; 1468 :         "adcxq\t40(%2), %%rcx\n\t"
; 1469 :         "movq\t%%rcx, 40(%3)\n\t"
; 1470 :         "movq\t48(%1), %%rcx\n\t"
; 1471 :         "adcxq\t48(%2), %%rcx\n\t"
; 1472 :         "movq\t%%rcx, 48(%3)\n\t"
; 1473 :         "movq\t56(%1), %%rcx\n\t"
; 1474 :         "adcxq\t56(%2), %%rcx\n\t"
; 1475 :         "movq\t%%rcx, 56(%3)\n\t"
; 1476 :         "movq\t64(%1), %%rcx\n\t"
; 1477 :         "adcxq\t64(%2), %%rcx\n\t"
; 1478 :         "movq\t%%rcx, 64(%3)\n\t"
; 1479 :         "movq\t72(%1), %%rcx\n\t"
; 1480 :         "adcxq\t72(%2), %%rcx\n\t"
; 1481 :         "movq\t%%rcx, 72(%3)\n\t"
; 1482 :         "movq\t80(%1), %%rcx\n\t"
; 1483 :         "adcxq\t80(%2), %%rcx\n\t"
; 1484 :         "movq\t%%rcx, 80(%3)\n\t"
; 1485 :         "movq\t88(%1), %%rcx\n\t"
; 1486 :         "adcxq\t88(%2), %%rcx\n\t"
; 1487 :         "movq\t%%rcx, 88(%3)\n\t"
; 1488 :         "movq\t96(%1), %%rcx\n\t"
; 1489 :         "adcxq\t96(%2), %%rcx\n\t"
; 1490 :         "movq\t%%rcx, 96(%3)\n\t"
; 1491 :         "movq\t104(%1), %%rcx\n\t"
; 1492 :         "adcxq\t104(%2), %%rcx\n\t"
; 1493 :         "movq\t%%rcx, 104(%3)\n\t"
; 1494 :         "movq\t112(%1), %%rcx\n\t"
; 1495 :         "adcxq\t112(%2), %%rcx\n\t"
; 1496 :         "movq\t%%rcx, 112(%3)\n\t"
; 1497 :         "movq\t120(%1), %%rcx\n\t"
; 1498 :         "adcxq\t120(%2), %%rcx\n\t"
; 1499 :         "movq\t%%rcx, 120(%3)\n\t"
; 1500 :         "movq\t128(%1), %%rcx\n\t"
; 1501 :         "adcxq\t128(%2), %%rcx\n\t"
; 1502 :         "movq\t%%rcx, 128(%3)\n\t"
; 1503 :         "movq\t136(%1), %%rcx\n\t"
; 1504 :         "adcxq\t136(%2), %%rcx\n\t"
; 1505 :         "movq\t%%rcx, 136(%3)\n\t"
; 1506 :         "movq\t144(%1), %%rcx\n\t"
; 1507 :         "adcxq\t144(%2), %%rcx\n\t"
; 1508 :         "movq\t%%rcx, 144(%3)\n\t"
; 1509 :         "movq\t152(%1), %%rcx\n\t"
; 1510 :         "adcxq\t152(%2), %%rcx\n\t"
; 1511 :         "movq\t%%rcx, 152(%3)\n\t"
; 1512 :         "movq\t160(%1), %%rcx\n\t"
; 1513 :         "adcxq\t160(%2), %%rcx\n\t"
; 1514 :         "movq\t%%rcx, 160(%3)\n\t"
; 1515 :         "movq\t168(%1), %%rcx\n\t"
; 1516 :         "adcxq\t168(%2), %%rcx\n\t"
; 1517 :         "movq\t%%rcx, 168(%3)\n\t"
; 1518 :         "movq\t176(%1), %%rcx\n\t"
; 1519 :         "adcxq\t176(%2), %%rcx\n\t"
; 1520 :         "movq\t%%rcx, 176(%3)\n\t"
; 1521 :         "movq\t184(%1), %%rcx\n\t"
; 1522 :         "adcxq\t184(%2), %%rcx\n\t"
; 1523 :         "movq\t%%rcx, 184(%3)\n\t"
; 1524 :         "movq\t192(%1), %%rcx\n\t"
; 1525 :         "adcxq\t192(%2), %%rcx\n\t"
; 1526 :         "movq\t%%rcx, 192(%3)\n\t"
; 1527 :         "movq\t200(%1), %%rcx\n\t"
; 1528 :         "adcxq\t200(%2), %%rcx\n\t"
; 1529 :         "movq\t%%rcx, 200(%3)\n\t"
; 1530 :         "movq\t208(%1), %%rcx\n\t"
; 1531 :         "adcxq\t208(%2), %%rcx\n\t"
; 1532 :         "movq\t%%rcx, 208(%3)\n\t"
; 1533 :         "movq\t216(%1), %%rcx\n\t"
; 1534 :         "adcxq\t216(%2), %%rcx\n\t"
; 1535 :         "movq\t%%rcx, 216(%3)\n\t"
; 1536 :         "movq\t224(%1), %%rcx\n\t"
; 1537 :         "adcxq\t224(%2), %%rcx\n\t"
; 1538 :         "movq\t%%rcx, 224(%3)\n\t"
; 1539 :         "movq\t232(%1), %%rcx\n\t"
; 1540 :         "adcxq\t232(%2), %%rcx\n\t"
; 1541 :         "movq\t%%rcx, 232(%3)\n\t"
; 1542 :         "movq\t240(%1), %%rcx\n\t"
; 1543 :         "adcxq\t240(%2), %%rcx\n\t"
; 1544 :         "movq\t%%rcx, 240(%3)\n\t"
; 1545 :         "movq\t248(%1), %%rcx\n\t"
; 1546 :         "adcxq\t248(%2), %%rcx\n\t"
; 1547 :         "movq\t%%rcx, 248(%3)\n\t"
; 1548 :         "setc\t%0"
; 1549 :         : "+r"(c), "+r"(xp), "+r"(yp), "+r"(zp)
; 1550 :         :
; 1551 :         : "cc", "memory", "%rcx"
; 1552 : );
; 1553 : #else
; 1554 : #error unknown platform
; 1555 : #endif
; 1556 : #else
; 1557 : #error unknown compiler
; 1558 : #endif
; 1559 :     return (c);

	movzx	eax, BYTE PTR c$[rbp]

; 1560 : }

	lea	rsp, QWORD PTR [rbp+200]
	pop	rdi
	pop	rbp
	ret	0
_ADD_32WORDS_ADCX_DIV ENDP
_TEXT	ENDS
; Function compile flags: /Odtp /RTCsu /ZI
; File z:\sources\lunor\repos\rougemeilland\palmtree.math.core.implements\palmtree.math.core.implements\autogenerated_inline_func.h
;	COMDAT _ADD_32WORDS_ADC_DIV
_TEXT	SEGMENT
c$ = 224
xp$ = 232
yp$ = 240
zp$ = 248
_ADD_32WORDS_ADC_DIV PROC				; COMDAT

; 1057 : {

	mov	QWORD PTR [rsp+32], r9
	mov	QWORD PTR [rsp+24], r8
	mov	QWORD PTR [rsp+16], rdx
	mov	BYTE PTR [rsp+8], cl
	push	rbp
	push	rdi
	sub	rsp, 232				; 000000e8H
	lea	rbp, QWORD PTR [rsp+32]
	mov	rdi, rsp
	mov	ecx, 58					; 0000003aH
	mov	eax, -858993460				; ccccccccH
	rep stosd
	movzx	ecx, BYTE PTR [rsp+264]
	lea	rcx, OFFSET FLAT:__89DB6AB9_autogenerated_inline_func@h
	call	__CheckForDebuggerJustMyCode

; 1058 : #ifdef _MSC_VER
; 1059 :     c = _ADD_UNIT_DIV(c, xp[0], yp[0], &zp[0]);

	mov	eax, 4
	imul	rax, rax, 0
	mov	rcx, QWORD PTR zp$[rbp]
	add	rcx, rax
	mov	rax, rcx
	mov	ecx, 4
	imul	rcx, rcx, 0
	mov	edx, 4
	imul	rdx, rdx, 0
	mov	r9, rax
	mov	rax, QWORD PTR yp$[rbp]
	mov	r8d, DWORD PTR [rax+rcx]
	mov	rax, QWORD PTR xp$[rbp]
	mov	edx, DWORD PTR [rax+rdx]
	movzx	ecx, BYTE PTR c$[rbp]
	call	_ADD_UNIT_DIV
	mov	BYTE PTR c$[rbp], al

; 1060 :     c = _ADD_UNIT_DIV(c, xp[1], yp[1], &zp[1]);

	mov	eax, 4
	imul	rax, rax, 1
	mov	rcx, QWORD PTR zp$[rbp]
	add	rcx, rax
	mov	rax, rcx
	mov	ecx, 4
	imul	rcx, rcx, 1
	mov	edx, 4
	imul	rdx, rdx, 1
	mov	r9, rax
	mov	rax, QWORD PTR yp$[rbp]
	mov	r8d, DWORD PTR [rax+rcx]
	mov	rax, QWORD PTR xp$[rbp]
	mov	edx, DWORD PTR [rax+rdx]
	movzx	ecx, BYTE PTR c$[rbp]
	call	_ADD_UNIT_DIV
	mov	BYTE PTR c$[rbp], al

; 1061 :     c = _ADD_UNIT_DIV(c, xp[2], yp[2], &zp[2]);

	mov	eax, 4
	imul	rax, rax, 2
	mov	rcx, QWORD PTR zp$[rbp]
	add	rcx, rax
	mov	rax, rcx
	mov	ecx, 4
	imul	rcx, rcx, 2
	mov	edx, 4
	imul	rdx, rdx, 2
	mov	r9, rax
	mov	rax, QWORD PTR yp$[rbp]
	mov	r8d, DWORD PTR [rax+rcx]
	mov	rax, QWORD PTR xp$[rbp]
	mov	edx, DWORD PTR [rax+rdx]
	movzx	ecx, BYTE PTR c$[rbp]
	call	_ADD_UNIT_DIV
	mov	BYTE PTR c$[rbp], al

; 1062 :     c = _ADD_UNIT_DIV(c, xp[3], yp[3], &zp[3]);

	mov	eax, 4
	imul	rax, rax, 3
	mov	rcx, QWORD PTR zp$[rbp]
	add	rcx, rax
	mov	rax, rcx
	mov	ecx, 4
	imul	rcx, rcx, 3
	mov	edx, 4
	imul	rdx, rdx, 3
	mov	r9, rax
	mov	rax, QWORD PTR yp$[rbp]
	mov	r8d, DWORD PTR [rax+rcx]
	mov	rax, QWORD PTR xp$[rbp]
	mov	edx, DWORD PTR [rax+rdx]
	movzx	ecx, BYTE PTR c$[rbp]
	call	_ADD_UNIT_DIV
	mov	BYTE PTR c$[rbp], al

; 1063 :     c = _ADD_UNIT_DIV(c, xp[4], yp[4], &zp[4]);

	mov	eax, 4
	imul	rax, rax, 4
	mov	rcx, QWORD PTR zp$[rbp]
	add	rcx, rax
	mov	rax, rcx
	mov	ecx, 4
	imul	rcx, rcx, 4
	mov	edx, 4
	imul	rdx, rdx, 4
	mov	r9, rax
	mov	rax, QWORD PTR yp$[rbp]
	mov	r8d, DWORD PTR [rax+rcx]
	mov	rax, QWORD PTR xp$[rbp]
	mov	edx, DWORD PTR [rax+rdx]
	movzx	ecx, BYTE PTR c$[rbp]
	call	_ADD_UNIT_DIV
	mov	BYTE PTR c$[rbp], al

; 1064 :     c = _ADD_UNIT_DIV(c, xp[5], yp[5], &zp[5]);

	mov	eax, 4
	imul	rax, rax, 5
	mov	rcx, QWORD PTR zp$[rbp]
	add	rcx, rax
	mov	rax, rcx
	mov	ecx, 4
	imul	rcx, rcx, 5
	mov	edx, 4
	imul	rdx, rdx, 5
	mov	r9, rax
	mov	rax, QWORD PTR yp$[rbp]
	mov	r8d, DWORD PTR [rax+rcx]
	mov	rax, QWORD PTR xp$[rbp]
	mov	edx, DWORD PTR [rax+rdx]
	movzx	ecx, BYTE PTR c$[rbp]
	call	_ADD_UNIT_DIV
	mov	BYTE PTR c$[rbp], al

; 1065 :     c = _ADD_UNIT_DIV(c, xp[6], yp[6], &zp[6]);

	mov	eax, 4
	imul	rax, rax, 6
	mov	rcx, QWORD PTR zp$[rbp]
	add	rcx, rax
	mov	rax, rcx
	mov	ecx, 4
	imul	rcx, rcx, 6
	mov	edx, 4
	imul	rdx, rdx, 6
	mov	r9, rax
	mov	rax, QWORD PTR yp$[rbp]
	mov	r8d, DWORD PTR [rax+rcx]
	mov	rax, QWORD PTR xp$[rbp]
	mov	edx, DWORD PTR [rax+rdx]
	movzx	ecx, BYTE PTR c$[rbp]
	call	_ADD_UNIT_DIV
	mov	BYTE PTR c$[rbp], al

; 1066 :     c = _ADD_UNIT_DIV(c, xp[7], yp[7], &zp[7]);

	mov	eax, 4
	imul	rax, rax, 7
	mov	rcx, QWORD PTR zp$[rbp]
	add	rcx, rax
	mov	rax, rcx
	mov	ecx, 4
	imul	rcx, rcx, 7
	mov	edx, 4
	imul	rdx, rdx, 7
	mov	r9, rax
	mov	rax, QWORD PTR yp$[rbp]
	mov	r8d, DWORD PTR [rax+rcx]
	mov	rax, QWORD PTR xp$[rbp]
	mov	edx, DWORD PTR [rax+rdx]
	movzx	ecx, BYTE PTR c$[rbp]
	call	_ADD_UNIT_DIV
	mov	BYTE PTR c$[rbp], al

; 1067 :     c = _ADD_UNIT_DIV(c, xp[8], yp[8], &zp[8]);

	mov	eax, 4
	imul	rax, rax, 8
	mov	rcx, QWORD PTR zp$[rbp]
	add	rcx, rax
	mov	rax, rcx
	mov	ecx, 4
	imul	rcx, rcx, 8
	mov	edx, 4
	imul	rdx, rdx, 8
	mov	r9, rax
	mov	rax, QWORD PTR yp$[rbp]
	mov	r8d, DWORD PTR [rax+rcx]
	mov	rax, QWORD PTR xp$[rbp]
	mov	edx, DWORD PTR [rax+rdx]
	movzx	ecx, BYTE PTR c$[rbp]
	call	_ADD_UNIT_DIV
	mov	BYTE PTR c$[rbp], al

; 1068 :     c = _ADD_UNIT_DIV(c, xp[9], yp[9], &zp[9]);

	mov	eax, 4
	imul	rax, rax, 9
	mov	rcx, QWORD PTR zp$[rbp]
	add	rcx, rax
	mov	rax, rcx
	mov	ecx, 4
	imul	rcx, rcx, 9
	mov	edx, 4
	imul	rdx, rdx, 9
	mov	r9, rax
	mov	rax, QWORD PTR yp$[rbp]
	mov	r8d, DWORD PTR [rax+rcx]
	mov	rax, QWORD PTR xp$[rbp]
	mov	edx, DWORD PTR [rax+rdx]
	movzx	ecx, BYTE PTR c$[rbp]
	call	_ADD_UNIT_DIV
	mov	BYTE PTR c$[rbp], al

; 1069 :     c = _ADD_UNIT_DIV(c, xp[10], yp[10], &zp[10]);

	mov	eax, 4
	imul	rax, rax, 10
	mov	rcx, QWORD PTR zp$[rbp]
	add	rcx, rax
	mov	rax, rcx
	mov	ecx, 4
	imul	rcx, rcx, 10
	mov	edx, 4
	imul	rdx, rdx, 10
	mov	r9, rax
	mov	rax, QWORD PTR yp$[rbp]
	mov	r8d, DWORD PTR [rax+rcx]
	mov	rax, QWORD PTR xp$[rbp]
	mov	edx, DWORD PTR [rax+rdx]
	movzx	ecx, BYTE PTR c$[rbp]
	call	_ADD_UNIT_DIV
	mov	BYTE PTR c$[rbp], al

; 1070 :     c = _ADD_UNIT_DIV(c, xp[11], yp[11], &zp[11]);

	mov	eax, 4
	imul	rax, rax, 11
	mov	rcx, QWORD PTR zp$[rbp]
	add	rcx, rax
	mov	rax, rcx
	mov	ecx, 4
	imul	rcx, rcx, 11
	mov	edx, 4
	imul	rdx, rdx, 11
	mov	r9, rax
	mov	rax, QWORD PTR yp$[rbp]
	mov	r8d, DWORD PTR [rax+rcx]
	mov	rax, QWORD PTR xp$[rbp]
	mov	edx, DWORD PTR [rax+rdx]
	movzx	ecx, BYTE PTR c$[rbp]
	call	_ADD_UNIT_DIV
	mov	BYTE PTR c$[rbp], al

; 1071 :     c = _ADD_UNIT_DIV(c, xp[12], yp[12], &zp[12]);

	mov	eax, 4
	imul	rax, rax, 12
	mov	rcx, QWORD PTR zp$[rbp]
	add	rcx, rax
	mov	rax, rcx
	mov	ecx, 4
	imul	rcx, rcx, 12
	mov	edx, 4
	imul	rdx, rdx, 12
	mov	r9, rax
	mov	rax, QWORD PTR yp$[rbp]
	mov	r8d, DWORD PTR [rax+rcx]
	mov	rax, QWORD PTR xp$[rbp]
	mov	edx, DWORD PTR [rax+rdx]
	movzx	ecx, BYTE PTR c$[rbp]
	call	_ADD_UNIT_DIV
	mov	BYTE PTR c$[rbp], al

; 1072 :     c = _ADD_UNIT_DIV(c, xp[13], yp[13], &zp[13]);

	mov	eax, 4
	imul	rax, rax, 13
	mov	rcx, QWORD PTR zp$[rbp]
	add	rcx, rax
	mov	rax, rcx
	mov	ecx, 4
	imul	rcx, rcx, 13
	mov	edx, 4
	imul	rdx, rdx, 13
	mov	r9, rax
	mov	rax, QWORD PTR yp$[rbp]
	mov	r8d, DWORD PTR [rax+rcx]
	mov	rax, QWORD PTR xp$[rbp]
	mov	edx, DWORD PTR [rax+rdx]
	movzx	ecx, BYTE PTR c$[rbp]
	call	_ADD_UNIT_DIV
	mov	BYTE PTR c$[rbp], al

; 1073 :     c = _ADD_UNIT_DIV(c, xp[14], yp[14], &zp[14]);

	mov	eax, 4
	imul	rax, rax, 14
	mov	rcx, QWORD PTR zp$[rbp]
	add	rcx, rax
	mov	rax, rcx
	mov	ecx, 4
	imul	rcx, rcx, 14
	mov	edx, 4
	imul	rdx, rdx, 14
	mov	r9, rax
	mov	rax, QWORD PTR yp$[rbp]
	mov	r8d, DWORD PTR [rax+rcx]
	mov	rax, QWORD PTR xp$[rbp]
	mov	edx, DWORD PTR [rax+rdx]
	movzx	ecx, BYTE PTR c$[rbp]
	call	_ADD_UNIT_DIV
	mov	BYTE PTR c$[rbp], al

; 1074 :     c = _ADD_UNIT_DIV(c, xp[15], yp[15], &zp[15]);

	mov	eax, 4
	imul	rax, rax, 15
	mov	rcx, QWORD PTR zp$[rbp]
	add	rcx, rax
	mov	rax, rcx
	mov	ecx, 4
	imul	rcx, rcx, 15
	mov	edx, 4
	imul	rdx, rdx, 15
	mov	r9, rax
	mov	rax, QWORD PTR yp$[rbp]
	mov	r8d, DWORD PTR [rax+rcx]
	mov	rax, QWORD PTR xp$[rbp]
	mov	edx, DWORD PTR [rax+rdx]
	movzx	ecx, BYTE PTR c$[rbp]
	call	_ADD_UNIT_DIV
	mov	BYTE PTR c$[rbp], al

; 1075 :     c = _ADD_UNIT_DIV(c, xp[16], yp[16], &zp[16]);

	mov	eax, 4
	imul	rax, rax, 16
	mov	rcx, QWORD PTR zp$[rbp]
	add	rcx, rax
	mov	rax, rcx
	mov	ecx, 4
	imul	rcx, rcx, 16
	mov	edx, 4
	imul	rdx, rdx, 16
	mov	r9, rax
	mov	rax, QWORD PTR yp$[rbp]
	mov	r8d, DWORD PTR [rax+rcx]
	mov	rax, QWORD PTR xp$[rbp]
	mov	edx, DWORD PTR [rax+rdx]
	movzx	ecx, BYTE PTR c$[rbp]
	call	_ADD_UNIT_DIV
	mov	BYTE PTR c$[rbp], al

; 1076 :     c = _ADD_UNIT_DIV(c, xp[17], yp[17], &zp[17]);

	mov	eax, 4
	imul	rax, rax, 17
	mov	rcx, QWORD PTR zp$[rbp]
	add	rcx, rax
	mov	rax, rcx
	mov	ecx, 4
	imul	rcx, rcx, 17
	mov	edx, 4
	imul	rdx, rdx, 17
	mov	r9, rax
	mov	rax, QWORD PTR yp$[rbp]
	mov	r8d, DWORD PTR [rax+rcx]
	mov	rax, QWORD PTR xp$[rbp]
	mov	edx, DWORD PTR [rax+rdx]
	movzx	ecx, BYTE PTR c$[rbp]
	call	_ADD_UNIT_DIV
	mov	BYTE PTR c$[rbp], al

; 1077 :     c = _ADD_UNIT_DIV(c, xp[18], yp[18], &zp[18]);

	mov	eax, 4
	imul	rax, rax, 18
	mov	rcx, QWORD PTR zp$[rbp]
	add	rcx, rax
	mov	rax, rcx
	mov	ecx, 4
	imul	rcx, rcx, 18
	mov	edx, 4
	imul	rdx, rdx, 18
	mov	r9, rax
	mov	rax, QWORD PTR yp$[rbp]
	mov	r8d, DWORD PTR [rax+rcx]
	mov	rax, QWORD PTR xp$[rbp]
	mov	edx, DWORD PTR [rax+rdx]
	movzx	ecx, BYTE PTR c$[rbp]
	call	_ADD_UNIT_DIV
	mov	BYTE PTR c$[rbp], al

; 1078 :     c = _ADD_UNIT_DIV(c, xp[19], yp[19], &zp[19]);

	mov	eax, 4
	imul	rax, rax, 19
	mov	rcx, QWORD PTR zp$[rbp]
	add	rcx, rax
	mov	rax, rcx
	mov	ecx, 4
	imul	rcx, rcx, 19
	mov	edx, 4
	imul	rdx, rdx, 19
	mov	r9, rax
	mov	rax, QWORD PTR yp$[rbp]
	mov	r8d, DWORD PTR [rax+rcx]
	mov	rax, QWORD PTR xp$[rbp]
	mov	edx, DWORD PTR [rax+rdx]
	movzx	ecx, BYTE PTR c$[rbp]
	call	_ADD_UNIT_DIV
	mov	BYTE PTR c$[rbp], al

; 1079 :     c = _ADD_UNIT_DIV(c, xp[20], yp[20], &zp[20]);

	mov	eax, 4
	imul	rax, rax, 20
	mov	rcx, QWORD PTR zp$[rbp]
	add	rcx, rax
	mov	rax, rcx
	mov	ecx, 4
	imul	rcx, rcx, 20
	mov	edx, 4
	imul	rdx, rdx, 20
	mov	r9, rax
	mov	rax, QWORD PTR yp$[rbp]
	mov	r8d, DWORD PTR [rax+rcx]
	mov	rax, QWORD PTR xp$[rbp]
	mov	edx, DWORD PTR [rax+rdx]
	movzx	ecx, BYTE PTR c$[rbp]
	call	_ADD_UNIT_DIV
	mov	BYTE PTR c$[rbp], al

; 1080 :     c = _ADD_UNIT_DIV(c, xp[21], yp[21], &zp[21]);

	mov	eax, 4
	imul	rax, rax, 21
	mov	rcx, QWORD PTR zp$[rbp]
	add	rcx, rax
	mov	rax, rcx
	mov	ecx, 4
	imul	rcx, rcx, 21
	mov	edx, 4
	imul	rdx, rdx, 21
	mov	r9, rax
	mov	rax, QWORD PTR yp$[rbp]
	mov	r8d, DWORD PTR [rax+rcx]
	mov	rax, QWORD PTR xp$[rbp]
	mov	edx, DWORD PTR [rax+rdx]
	movzx	ecx, BYTE PTR c$[rbp]
	call	_ADD_UNIT_DIV
	mov	BYTE PTR c$[rbp], al

; 1081 :     c = _ADD_UNIT_DIV(c, xp[22], yp[22], &zp[22]);

	mov	eax, 4
	imul	rax, rax, 22
	mov	rcx, QWORD PTR zp$[rbp]
	add	rcx, rax
	mov	rax, rcx
	mov	ecx, 4
	imul	rcx, rcx, 22
	mov	edx, 4
	imul	rdx, rdx, 22
	mov	r9, rax
	mov	rax, QWORD PTR yp$[rbp]
	mov	r8d, DWORD PTR [rax+rcx]
	mov	rax, QWORD PTR xp$[rbp]
	mov	edx, DWORD PTR [rax+rdx]
	movzx	ecx, BYTE PTR c$[rbp]
	call	_ADD_UNIT_DIV
	mov	BYTE PTR c$[rbp], al

; 1082 :     c = _ADD_UNIT_DIV(c, xp[23], yp[23], &zp[23]);

	mov	eax, 4
	imul	rax, rax, 23
	mov	rcx, QWORD PTR zp$[rbp]
	add	rcx, rax
	mov	rax, rcx
	mov	ecx, 4
	imul	rcx, rcx, 23
	mov	edx, 4
	imul	rdx, rdx, 23
	mov	r9, rax
	mov	rax, QWORD PTR yp$[rbp]
	mov	r8d, DWORD PTR [rax+rcx]
	mov	rax, QWORD PTR xp$[rbp]
	mov	edx, DWORD PTR [rax+rdx]
	movzx	ecx, BYTE PTR c$[rbp]
	call	_ADD_UNIT_DIV
	mov	BYTE PTR c$[rbp], al

; 1083 :     c = _ADD_UNIT_DIV(c, xp[24], yp[24], &zp[24]);

	mov	eax, 4
	imul	rax, rax, 24
	mov	rcx, QWORD PTR zp$[rbp]
	add	rcx, rax
	mov	rax, rcx
	mov	ecx, 4
	imul	rcx, rcx, 24
	mov	edx, 4
	imul	rdx, rdx, 24
	mov	r9, rax
	mov	rax, QWORD PTR yp$[rbp]
	mov	r8d, DWORD PTR [rax+rcx]
	mov	rax, QWORD PTR xp$[rbp]
	mov	edx, DWORD PTR [rax+rdx]
	movzx	ecx, BYTE PTR c$[rbp]
	call	_ADD_UNIT_DIV
	mov	BYTE PTR c$[rbp], al

; 1084 :     c = _ADD_UNIT_DIV(c, xp[25], yp[25], &zp[25]);

	mov	eax, 4
	imul	rax, rax, 25
	mov	rcx, QWORD PTR zp$[rbp]
	add	rcx, rax
	mov	rax, rcx
	mov	ecx, 4
	imul	rcx, rcx, 25
	mov	edx, 4
	imul	rdx, rdx, 25
	mov	r9, rax
	mov	rax, QWORD PTR yp$[rbp]
	mov	r8d, DWORD PTR [rax+rcx]
	mov	rax, QWORD PTR xp$[rbp]
	mov	edx, DWORD PTR [rax+rdx]
	movzx	ecx, BYTE PTR c$[rbp]
	call	_ADD_UNIT_DIV
	mov	BYTE PTR c$[rbp], al

; 1085 :     c = _ADD_UNIT_DIV(c, xp[26], yp[26], &zp[26]);

	mov	eax, 4
	imul	rax, rax, 26
	mov	rcx, QWORD PTR zp$[rbp]
	add	rcx, rax
	mov	rax, rcx
	mov	ecx, 4
	imul	rcx, rcx, 26
	mov	edx, 4
	imul	rdx, rdx, 26
	mov	r9, rax
	mov	rax, QWORD PTR yp$[rbp]
	mov	r8d, DWORD PTR [rax+rcx]
	mov	rax, QWORD PTR xp$[rbp]
	mov	edx, DWORD PTR [rax+rdx]
	movzx	ecx, BYTE PTR c$[rbp]
	call	_ADD_UNIT_DIV
	mov	BYTE PTR c$[rbp], al

; 1086 :     c = _ADD_UNIT_DIV(c, xp[27], yp[27], &zp[27]);

	mov	eax, 4
	imul	rax, rax, 27
	mov	rcx, QWORD PTR zp$[rbp]
	add	rcx, rax
	mov	rax, rcx
	mov	ecx, 4
	imul	rcx, rcx, 27
	mov	edx, 4
	imul	rdx, rdx, 27
	mov	r9, rax
	mov	rax, QWORD PTR yp$[rbp]
	mov	r8d, DWORD PTR [rax+rcx]
	mov	rax, QWORD PTR xp$[rbp]
	mov	edx, DWORD PTR [rax+rdx]
	movzx	ecx, BYTE PTR c$[rbp]
	call	_ADD_UNIT_DIV
	mov	BYTE PTR c$[rbp], al

; 1087 :     c = _ADD_UNIT_DIV(c, xp[28], yp[28], &zp[28]);

	mov	eax, 4
	imul	rax, rax, 28
	mov	rcx, QWORD PTR zp$[rbp]
	add	rcx, rax
	mov	rax, rcx
	mov	ecx, 4
	imul	rcx, rcx, 28
	mov	edx, 4
	imul	rdx, rdx, 28
	mov	r9, rax
	mov	rax, QWORD PTR yp$[rbp]
	mov	r8d, DWORD PTR [rax+rcx]
	mov	rax, QWORD PTR xp$[rbp]
	mov	edx, DWORD PTR [rax+rdx]
	movzx	ecx, BYTE PTR c$[rbp]
	call	_ADD_UNIT_DIV
	mov	BYTE PTR c$[rbp], al

; 1088 :     c = _ADD_UNIT_DIV(c, xp[29], yp[29], &zp[29]);

	mov	eax, 4
	imul	rax, rax, 29
	mov	rcx, QWORD PTR zp$[rbp]
	add	rcx, rax
	mov	rax, rcx
	mov	ecx, 4
	imul	rcx, rcx, 29
	mov	edx, 4
	imul	rdx, rdx, 29
	mov	r9, rax
	mov	rax, QWORD PTR yp$[rbp]
	mov	r8d, DWORD PTR [rax+rcx]
	mov	rax, QWORD PTR xp$[rbp]
	mov	edx, DWORD PTR [rax+rdx]
	movzx	ecx, BYTE PTR c$[rbp]
	call	_ADD_UNIT_DIV
	mov	BYTE PTR c$[rbp], al

; 1089 :     c = _ADD_UNIT_DIV(c, xp[30], yp[30], &zp[30]);

	mov	eax, 4
	imul	rax, rax, 30
	mov	rcx, QWORD PTR zp$[rbp]
	add	rcx, rax
	mov	rax, rcx
	mov	ecx, 4
	imul	rcx, rcx, 30
	mov	edx, 4
	imul	rdx, rdx, 30
	mov	r9, rax
	mov	rax, QWORD PTR yp$[rbp]
	mov	r8d, DWORD PTR [rax+rcx]
	mov	rax, QWORD PTR xp$[rbp]
	mov	edx, DWORD PTR [rax+rdx]
	movzx	ecx, BYTE PTR c$[rbp]
	call	_ADD_UNIT_DIV
	mov	BYTE PTR c$[rbp], al

; 1090 :     c = _ADD_UNIT_DIV(c, xp[31], yp[31], &zp[31]);

	mov	eax, 4
	imul	rax, rax, 31
	mov	rcx, QWORD PTR zp$[rbp]
	add	rcx, rax
	mov	rax, rcx
	mov	ecx, 4
	imul	rcx, rcx, 31
	mov	edx, 4
	imul	rdx, rdx, 31
	mov	r9, rax
	mov	rax, QWORD PTR yp$[rbp]
	mov	r8d, DWORD PTR [rax+rcx]
	mov	rax, QWORD PTR xp$[rbp]
	mov	edx, DWORD PTR [rax+rdx]
	movzx	ecx, BYTE PTR c$[rbp]
	call	_ADD_UNIT_DIV
	mov	BYTE PTR c$[rbp], al

; 1091 : #elif defined(__GNUC__)
; 1092 : #ifdef _M_IX86
; 1093 :     __asm__ volatile (
; 1094 :         "addb\t$-1, %0\n\t"
; 1095 :         "movl\t(%1), %%ecx\n\t"
; 1096 :         "adcl\t(%2), %%ecx\n\t"
; 1097 :         "movl\t%%ecx, (%3)\n\t"
; 1098 :         "movl\t4(%1), %%ecx\n\t"
; 1099 :         "adcl\t4(%2), %%ecx\n\t"
; 1100 :         "movl\t%%ecx, 4(%3)\n\t"
; 1101 :         "movl\t8(%1), %%ecx\n\t"
; 1102 :         "adcl\t8(%2), %%ecx\n\t"
; 1103 :         "movl\t%%ecx, 8(%3)\n\t"
; 1104 :         "movl\t12(%1), %%ecx\n\t"
; 1105 :         "adcl\t12(%2), %%ecx\n\t"
; 1106 :         "movl\t%%ecx, 12(%3)\n\t"
; 1107 :         "movl\t16(%1), %%ecx\n\t"
; 1108 :         "adcl\t16(%2), %%ecx\n\t"
; 1109 :         "movl\t%%ecx, 16(%3)\n\t"
; 1110 :         "movl\t20(%1), %%ecx\n\t"
; 1111 :         "adcl\t20(%2), %%ecx\n\t"
; 1112 :         "movl\t%%ecx, 20(%3)\n\t"
; 1113 :         "movl\t24(%1), %%ecx\n\t"
; 1114 :         "adcl\t24(%2), %%ecx\n\t"
; 1115 :         "movl\t%%ecx, 24(%3)\n\t"
; 1116 :         "movl\t28(%1), %%ecx\n\t"
; 1117 :         "adcl\t28(%2), %%ecx\n\t"
; 1118 :         "movl\t%%ecx, 28(%3)\n\t"
; 1119 :         "movl\t32(%1), %%ecx\n\t"
; 1120 :         "adcl\t32(%2), %%ecx\n\t"
; 1121 :         "movl\t%%ecx, 32(%3)\n\t"
; 1122 :         "movl\t36(%1), %%ecx\n\t"
; 1123 :         "adcl\t36(%2), %%ecx\n\t"
; 1124 :         "movl\t%%ecx, 36(%3)\n\t"
; 1125 :         "movl\t40(%1), %%ecx\n\t"
; 1126 :         "adcl\t40(%2), %%ecx\n\t"
; 1127 :         "movl\t%%ecx, 40(%3)\n\t"
; 1128 :         "movl\t44(%1), %%ecx\n\t"
; 1129 :         "adcl\t44(%2), %%ecx\n\t"
; 1130 :         "movl\t%%ecx, 44(%3)\n\t"
; 1131 :         "movl\t48(%1), %%ecx\n\t"
; 1132 :         "adcl\t48(%2), %%ecx\n\t"
; 1133 :         "movl\t%%ecx, 48(%3)\n\t"
; 1134 :         "movl\t52(%1), %%ecx\n\t"
; 1135 :         "adcl\t52(%2), %%ecx\n\t"
; 1136 :         "movl\t%%ecx, 52(%3)\n\t"
; 1137 :         "movl\t56(%1), %%ecx\n\t"
; 1138 :         "adcl\t56(%2), %%ecx\n\t"
; 1139 :         "movl\t%%ecx, 56(%3)\n\t"
; 1140 :         "movl\t60(%1), %%ecx\n\t"
; 1141 :         "adcl\t60(%2), %%ecx\n\t"
; 1142 :         "movl\t%%ecx, 60(%3)\n\t"
; 1143 :         "movl\t64(%1), %%ecx\n\t"
; 1144 :         "adcl\t64(%2), %%ecx\n\t"
; 1145 :         "movl\t%%ecx, 64(%3)\n\t"
; 1146 :         "movl\t68(%1), %%ecx\n\t"
; 1147 :         "adcl\t68(%2), %%ecx\n\t"
; 1148 :         "movl\t%%ecx, 68(%3)\n\t"
; 1149 :         "movl\t72(%1), %%ecx\n\t"
; 1150 :         "adcl\t72(%2), %%ecx\n\t"
; 1151 :         "movl\t%%ecx, 72(%3)\n\t"
; 1152 :         "movl\t76(%1), %%ecx\n\t"
; 1153 :         "adcl\t76(%2), %%ecx\n\t"
; 1154 :         "movl\t%%ecx, 76(%3)\n\t"
; 1155 :         "movl\t80(%1), %%ecx\n\t"
; 1156 :         "adcl\t80(%2), %%ecx\n\t"
; 1157 :         "movl\t%%ecx, 80(%3)\n\t"
; 1158 :         "movl\t84(%1), %%ecx\n\t"
; 1159 :         "adcl\t84(%2), %%ecx\n\t"
; 1160 :         "movl\t%%ecx, 84(%3)\n\t"
; 1161 :         "movl\t88(%1), %%ecx\n\t"
; 1162 :         "adcl\t88(%2), %%ecx\n\t"
; 1163 :         "movl\t%%ecx, 88(%3)\n\t"
; 1164 :         "movl\t92(%1), %%ecx\n\t"
; 1165 :         "adcl\t92(%2), %%ecx\n\t"
; 1166 :         "movl\t%%ecx, 92(%3)\n\t"
; 1167 :         "movl\t96(%1), %%ecx\n\t"
; 1168 :         "adcl\t96(%2), %%ecx\n\t"
; 1169 :         "movl\t%%ecx, 96(%3)\n\t"
; 1170 :         "movl\t100(%1), %%ecx\n\t"
; 1171 :         "adcl\t100(%2), %%ecx\n\t"
; 1172 :         "movl\t%%ecx, 100(%3)\n\t"
; 1173 :         "movl\t104(%1), %%ecx\n\t"
; 1174 :         "adcl\t104(%2), %%ecx\n\t"
; 1175 :         "movl\t%%ecx, 104(%3)\n\t"
; 1176 :         "movl\t108(%1), %%ecx\n\t"
; 1177 :         "adcl\t108(%2), %%ecx\n\t"
; 1178 :         "movl\t%%ecx, 108(%3)\n\t"
; 1179 :         "movl\t112(%1), %%ecx\n\t"
; 1180 :         "adcl\t112(%2), %%ecx\n\t"
; 1181 :         "movl\t%%ecx, 112(%3)\n\t"
; 1182 :         "movl\t116(%1), %%ecx\n\t"
; 1183 :         "adcl\t116(%2), %%ecx\n\t"
; 1184 :         "movl\t%%ecx, 116(%3)\n\t"
; 1185 :         "movl\t120(%1), %%ecx\n\t"
; 1186 :         "adcl\t120(%2), %%ecx\n\t"
; 1187 :         "movl\t%%ecx, 120(%3)\n\t"
; 1188 :         "movl\t124(%1), %%ecx\n\t"
; 1189 :         "adcl\t124(%2), %%ecx\n\t"
; 1190 :         "movl\t%%ecx, 124(%3)\n\t"
; 1191 :         "setc\t%0"
; 1192 :         : "+r"(c), "+r"(xp), "+r"(yp), "+r"(zp)
; 1193 :         :
; 1194 :         : "cc", "memory", "%ecx"
; 1195 : );
; 1196 : #elif defined(_M_IX64)
; 1197 :     __asm__ volatile (
; 1198 :         "addb\t$-1, %0\n\t"
; 1199 :         "movq\t(%1), %%rcx\n\t"
; 1200 :         "adcq\t(%2), %%rcx\n\t"
; 1201 :         "movq\t%%rcx, (%3)\n\t"
; 1202 :         "movq\t8(%1), %%rcx\n\t"
; 1203 :         "adcq\t8(%2), %%rcx\n\t"
; 1204 :         "movq\t%%rcx, 8(%3)\n\t"
; 1205 :         "movq\t16(%1), %%rcx\n\t"
; 1206 :         "adcq\t16(%2), %%rcx\n\t"
; 1207 :         "movq\t%%rcx, 16(%3)\n\t"
; 1208 :         "movq\t24(%1), %%rcx\n\t"
; 1209 :         "adcq\t24(%2), %%rcx\n\t"
; 1210 :         "movq\t%%rcx, 24(%3)\n\t"
; 1211 :         "movq\t32(%1), %%rcx\n\t"
; 1212 :         "adcq\t32(%2), %%rcx\n\t"
; 1213 :         "movq\t%%rcx, 32(%3)\n\t"
; 1214 :         "movq\t40(%1), %%rcx\n\t"
; 1215 :         "adcq\t40(%2), %%rcx\n\t"
; 1216 :         "movq\t%%rcx, 40(%3)\n\t"
; 1217 :         "movq\t48(%1), %%rcx\n\t"
; 1218 :         "adcq\t48(%2), %%rcx\n\t"
; 1219 :         "movq\t%%rcx, 48(%3)\n\t"
; 1220 :         "movq\t56(%1), %%rcx\n\t"
; 1221 :         "adcq\t56(%2), %%rcx\n\t"
; 1222 :         "movq\t%%rcx, 56(%3)\n\t"
; 1223 :         "movq\t64(%1), %%rcx\n\t"
; 1224 :         "adcq\t64(%2), %%rcx\n\t"
; 1225 :         "movq\t%%rcx, 64(%3)\n\t"
; 1226 :         "movq\t72(%1), %%rcx\n\t"
; 1227 :         "adcq\t72(%2), %%rcx\n\t"
; 1228 :         "movq\t%%rcx, 72(%3)\n\t"
; 1229 :         "movq\t80(%1), %%rcx\n\t"
; 1230 :         "adcq\t80(%2), %%rcx\n\t"
; 1231 :         "movq\t%%rcx, 80(%3)\n\t"
; 1232 :         "movq\t88(%1), %%rcx\n\t"
; 1233 :         "adcq\t88(%2), %%rcx\n\t"
; 1234 :         "movq\t%%rcx, 88(%3)\n\t"
; 1235 :         "movq\t96(%1), %%rcx\n\t"
; 1236 :         "adcq\t96(%2), %%rcx\n\t"
; 1237 :         "movq\t%%rcx, 96(%3)\n\t"
; 1238 :         "movq\t104(%1), %%rcx\n\t"
; 1239 :         "adcq\t104(%2), %%rcx\n\t"
; 1240 :         "movq\t%%rcx, 104(%3)\n\t"
; 1241 :         "movq\t112(%1), %%rcx\n\t"
; 1242 :         "adcq\t112(%2), %%rcx\n\t"
; 1243 :         "movq\t%%rcx, 112(%3)\n\t"
; 1244 :         "movq\t120(%1), %%rcx\n\t"
; 1245 :         "adcq\t120(%2), %%rcx\n\t"
; 1246 :         "movq\t%%rcx, 120(%3)\n\t"
; 1247 :         "movq\t128(%1), %%rcx\n\t"
; 1248 :         "adcq\t128(%2), %%rcx\n\t"
; 1249 :         "movq\t%%rcx, 128(%3)\n\t"
; 1250 :         "movq\t136(%1), %%rcx\n\t"
; 1251 :         "adcq\t136(%2), %%rcx\n\t"
; 1252 :         "movq\t%%rcx, 136(%3)\n\t"
; 1253 :         "movq\t144(%1), %%rcx\n\t"
; 1254 :         "adcq\t144(%2), %%rcx\n\t"
; 1255 :         "movq\t%%rcx, 144(%3)\n\t"
; 1256 :         "movq\t152(%1), %%rcx\n\t"
; 1257 :         "adcq\t152(%2), %%rcx\n\t"
; 1258 :         "movq\t%%rcx, 152(%3)\n\t"
; 1259 :         "movq\t160(%1), %%rcx\n\t"
; 1260 :         "adcq\t160(%2), %%rcx\n\t"
; 1261 :         "movq\t%%rcx, 160(%3)\n\t"
; 1262 :         "movq\t168(%1), %%rcx\n\t"
; 1263 :         "adcq\t168(%2), %%rcx\n\t"
; 1264 :         "movq\t%%rcx, 168(%3)\n\t"
; 1265 :         "movq\t176(%1), %%rcx\n\t"
; 1266 :         "adcq\t176(%2), %%rcx\n\t"
; 1267 :         "movq\t%%rcx, 176(%3)\n\t"
; 1268 :         "movq\t184(%1), %%rcx\n\t"
; 1269 :         "adcq\t184(%2), %%rcx\n\t"
; 1270 :         "movq\t%%rcx, 184(%3)\n\t"
; 1271 :         "movq\t192(%1), %%rcx\n\t"
; 1272 :         "adcq\t192(%2), %%rcx\n\t"
; 1273 :         "movq\t%%rcx, 192(%3)\n\t"
; 1274 :         "movq\t200(%1), %%rcx\n\t"
; 1275 :         "adcq\t200(%2), %%rcx\n\t"
; 1276 :         "movq\t%%rcx, 200(%3)\n\t"
; 1277 :         "movq\t208(%1), %%rcx\n\t"
; 1278 :         "adcq\t208(%2), %%rcx\n\t"
; 1279 :         "movq\t%%rcx, 208(%3)\n\t"
; 1280 :         "movq\t216(%1), %%rcx\n\t"
; 1281 :         "adcq\t216(%2), %%rcx\n\t"
; 1282 :         "movq\t%%rcx, 216(%3)\n\t"
; 1283 :         "movq\t224(%1), %%rcx\n\t"
; 1284 :         "adcq\t224(%2), %%rcx\n\t"
; 1285 :         "movq\t%%rcx, 224(%3)\n\t"
; 1286 :         "movq\t232(%1), %%rcx\n\t"
; 1287 :         "adcq\t232(%2), %%rcx\n\t"
; 1288 :         "movq\t%%rcx, 232(%3)\n\t"
; 1289 :         "movq\t240(%1), %%rcx\n\t"
; 1290 :         "adcq\t240(%2), %%rcx\n\t"
; 1291 :         "movq\t%%rcx, 240(%3)\n\t"
; 1292 :         "movq\t248(%1), %%rcx\n\t"
; 1293 :         "adcq\t248(%2), %%rcx\n\t"
; 1294 :         "movq\t%%rcx, 248(%3)\n\t"
; 1295 :         "setc\t%0"
; 1296 :         : "+r"(c), "+r"(xp), "+r"(yp), "+r"(zp)
; 1297 :         :
; 1298 :         : "cc", "memory", "%rcx"
; 1299 : );
; 1300 : #else
; 1301 : #error unknown platform
; 1302 : #endif
; 1303 : #else
; 1304 : #error unknown compiler
; 1305 : #endif
; 1306 :     return (c);

	movzx	eax, BYTE PTR c$[rbp]

; 1307 : }

	lea	rsp, QWORD PTR [rbp+200]
	pop	rdi
	pop	rbp
	ret	0
_ADD_32WORDS_ADC_DIV ENDP
_TEXT	ENDS
; Function compile flags: /Odtp /RTCsu /ZI
; File z:\sources\lunor\repos\rougemeilland\palmtree.math.core.implements\palmtree.math.core.implements\pmc_internal.h
;	COMDAT AddToMULTI64Counter
_TEXT	SEGMENT
value$ = 224
AddToMULTI64Counter PROC				; COMDAT

; 1112 : {

	mov	DWORD PTR [rsp+8], ecx
	push	rbp
	push	rdi
	sub	rsp, 232				; 000000e8H
	lea	rbp, QWORD PTR [rsp+32]
	mov	rdi, rsp
	mov	ecx, 58					; 0000003aH
	mov	eax, -858993460				; ccccccccH
	rep stosd
	mov	ecx, DWORD PTR [rsp+264]
	lea	rcx, OFFSET FLAT:__4522B509_pmc_internal@h
	call	__CheckForDebuggerJustMyCode

; 1113 :     _InterlockedExchangeAdd(&statistics_info.COUNT_MULTI64, value);

	lea	rax, OFFSET FLAT:statistics_info
	mov	ecx, DWORD PTR value$[rbp]
	lock add DWORD PTR [rax], ecx

; 1114 : }

	lea	rsp, QWORD PTR [rbp+200]
	pop	rdi
	pop	rbp
	ret	0
AddToMULTI64Counter ENDP
_TEXT	ENDS
; Function compile flags: /Odtp /RTCsu /ZI
; File z:\sources\lunor\repos\rougemeilland\palmtree.math.core.implements\palmtree.math.core.implements\pmc_internal.h
;	COMDAT AddToMULTI32Counter
_TEXT	SEGMENT
value$ = 224
AddToMULTI32Counter PROC				; COMDAT

; 1106 : {

	mov	DWORD PTR [rsp+8], ecx
	push	rbp
	push	rdi
	sub	rsp, 232				; 000000e8H
	lea	rbp, QWORD PTR [rsp+32]
	mov	rdi, rsp
	mov	ecx, 58					; 0000003aH
	mov	eax, -858993460				; ccccccccH
	rep stosd
	mov	ecx, DWORD PTR [rsp+264]
	lea	rcx, OFFSET FLAT:__4522B509_pmc_internal@h
	call	__CheckForDebuggerJustMyCode

; 1107 :     _InterlockedExchangeAdd(&statistics_info.COUNT_MULTI32, value);

	lea	rax, OFFSET FLAT:statistics_info+4
	mov	ecx, DWORD PTR value$[rbp]
	lock add DWORD PTR [rax], ecx

; 1108 : }

	lea	rsp, QWORD PTR [rbp+200]
	pop	rdi
	pop	rbp
	ret	0
AddToMULTI32Counter ENDP
_TEXT	ENDS
; Function compile flags: /Odtp /RTCsu /ZI
; File z:\sources\lunor\repos\rougemeilland\palmtree.math.core.implements\palmtree.math.core.implements\pmc_internal.h
;	COMDAT AddToDIV64Counter
_TEXT	SEGMENT
value$ = 224
AddToDIV64Counter PROC					; COMDAT

; 1100 : {

	mov	DWORD PTR [rsp+8], ecx
	push	rbp
	push	rdi
	sub	rsp, 232				; 000000e8H
	lea	rbp, QWORD PTR [rsp+32]
	mov	rdi, rsp
	mov	ecx, 58					; 0000003aH
	mov	eax, -858993460				; ccccccccH
	rep stosd
	mov	ecx, DWORD PTR [rsp+264]
	lea	rcx, OFFSET FLAT:__4522B509_pmc_internal@h
	call	__CheckForDebuggerJustMyCode

; 1101 :     _InterlockedExchangeAdd(&statistics_info.COUNT_DIV64, value);

	lea	rax, OFFSET FLAT:statistics_info+8
	mov	ecx, DWORD PTR value$[rbp]
	lock add DWORD PTR [rax], ecx

; 1102 : }

	lea	rsp, QWORD PTR [rbp+200]
	pop	rdi
	pop	rbp
	ret	0
AddToDIV64Counter ENDP
_TEXT	ENDS
; Function compile flags: /Odtp /RTCsu /ZI
; File z:\sources\lunor\repos\rougemeilland\palmtree.math.core.implements\palmtree.math.core.implements\pmc_internal.h
;	COMDAT AddToDIV32Counter
_TEXT	SEGMENT
value$ = 224
AddToDIV32Counter PROC					; COMDAT

; 1094 : {

	mov	DWORD PTR [rsp+8], ecx
	push	rbp
	push	rdi
	sub	rsp, 232				; 000000e8H
	lea	rbp, QWORD PTR [rsp+32]
	mov	rdi, rsp
	mov	ecx, 58					; 0000003aH
	mov	eax, -858993460				; ccccccccH
	rep stosd
	mov	ecx, DWORD PTR [rsp+264]
	lea	rcx, OFFSET FLAT:__4522B509_pmc_internal@h
	call	__CheckForDebuggerJustMyCode

; 1095 :     _InterlockedExchangeAdd(&statistics_info.COUNT_DIV32, value);

	lea	rax, OFFSET FLAT:statistics_info+12
	mov	ecx, DWORD PTR value$[rbp]
	lock add DWORD PTR [rax], ecx

; 1096 : }

	lea	rsp, QWORD PTR [rbp+200]
	pop	rdi
	pop	rbp
	ret	0
AddToDIV32Counter ENDP
_TEXT	ENDS
; Function compile flags: /Odtp /RTCsu /ZI
; File z:\sources\lunor\repos\rougemeilland\palmtree.math.core.implements\palmtree.math.core.implements\pmc_internal.h
;	COMDAT IncrementMULTI64Counter
_TEXT	SEGMENT
IncrementMULTI64Counter PROC				; COMDAT

; 1089 : {

	push	rbp
	push	rdi
	sub	rsp, 232				; 000000e8H
	lea	rbp, QWORD PTR [rsp+32]
	mov	rdi, rsp
	mov	ecx, 58					; 0000003aH
	mov	eax, -858993460				; ccccccccH
	rep stosd
	lea	rcx, OFFSET FLAT:__4522B509_pmc_internal@h
	call	__CheckForDebuggerJustMyCode

; 1090 :     _InterlockedIncrement(&statistics_info.COUNT_MULTI64);

	lea	rax, OFFSET FLAT:statistics_info
	lock inc DWORD PTR [rax]

; 1091 : }

	lea	rsp, QWORD PTR [rbp+200]
	pop	rdi
	pop	rbp
	ret	0
IncrementMULTI64Counter ENDP
_TEXT	ENDS
; Function compile flags: /Odtp /RTCsu /ZI
; File z:\sources\lunor\repos\rougemeilland\palmtree.math.core.implements\palmtree.math.core.implements\pmc_internal.h
;	COMDAT IncrementMULTI32Counter
_TEXT	SEGMENT
IncrementMULTI32Counter PROC				; COMDAT

; 1083 : {

	push	rbp
	push	rdi
	sub	rsp, 232				; 000000e8H
	lea	rbp, QWORD PTR [rsp+32]
	mov	rdi, rsp
	mov	ecx, 58					; 0000003aH
	mov	eax, -858993460				; ccccccccH
	rep stosd
	lea	rcx, OFFSET FLAT:__4522B509_pmc_internal@h
	call	__CheckForDebuggerJustMyCode

; 1084 :     _InterlockedIncrement(&statistics_info.COUNT_MULTI32);

	lea	rax, OFFSET FLAT:statistics_info+4
	lock inc DWORD PTR [rax]

; 1085 : }

	lea	rsp, QWORD PTR [rbp+200]
	pop	rdi
	pop	rbp
	ret	0
IncrementMULTI32Counter ENDP
_TEXT	ENDS
; Function compile flags: /Odtp /RTCsu /ZI
; File z:\sources\lunor\repos\rougemeilland\palmtree.math.core.implements\palmtree.math.core.implements\pmc_internal.h
;	COMDAT IncrementDIV64Counter
_TEXT	SEGMENT
IncrementDIV64Counter PROC				; COMDAT

; 1077 : {

	push	rbp
	push	rdi
	sub	rsp, 232				; 000000e8H
	lea	rbp, QWORD PTR [rsp+32]
	mov	rdi, rsp
	mov	ecx, 58					; 0000003aH
	mov	eax, -858993460				; ccccccccH
	rep stosd
	lea	rcx, OFFSET FLAT:__4522B509_pmc_internal@h
	call	__CheckForDebuggerJustMyCode

; 1078 :     _InterlockedIncrement(&statistics_info.COUNT_DIV64);

	lea	rax, OFFSET FLAT:statistics_info+8
	lock inc DWORD PTR [rax]

; 1079 : }

	lea	rsp, QWORD PTR [rbp+200]
	pop	rdi
	pop	rbp
	ret	0
IncrementDIV64Counter ENDP
_TEXT	ENDS
; Function compile flags: /Odtp /RTCsu /ZI
; File z:\sources\lunor\repos\rougemeilland\palmtree.math.core.implements\palmtree.math.core.implements\pmc_internal.h
;	COMDAT IncrementDIV32Counter
_TEXT	SEGMENT
IncrementDIV32Counter PROC				; COMDAT

; 1071 : {

	push	rbp
	push	rdi
	sub	rsp, 232				; 000000e8H
	lea	rbp, QWORD PTR [rsp+32]
	mov	rdi, rsp
	mov	ecx, 58					; 0000003aH
	mov	eax, -858993460				; ccccccccH
	rep stosd
	lea	rcx, OFFSET FLAT:__4522B509_pmc_internal@h
	call	__CheckForDebuggerJustMyCode

; 1072 :     _InterlockedIncrement(&statistics_info.COUNT_DIV32);

	lea	rax, OFFSET FLAT:statistics_info+12
	lock inc DWORD PTR [rax]

; 1073 : }

	lea	rsp, QWORD PTR [rbp+200]
	pop	rdi
	pop	rbp
	ret	0
IncrementDIV32Counter ENDP
_TEXT	ENDS
; Function compile flags: /Odtp /RTCsu /ZI
; File z:\sources\lunor\repos\rougemeilland\palmtree.math.core.implements\palmtree.math.core.implements\pmc_internal.h
;	COMDAT _LZCNT_ALT_UNIT_DIV
_TEXT	SEGMENT
pos$ = 4
x$ = 256
_LZCNT_ALT_UNIT_DIV PROC				; COMDAT

; 944  : {

	mov	DWORD PTR [rsp+8], ecx
	push	rbp
	push	rdi
	sub	rsp, 264				; 00000108H
	lea	rbp, QWORD PTR [rsp+32]
	mov	rdi, rsp
	mov	ecx, 66					; 00000042H
	mov	eax, -858993460				; ccccccccH
	rep stosd
	mov	ecx, DWORD PTR [rsp+296]
	lea	rcx, OFFSET FLAT:__4522B509_pmc_internal@h
	call	__CheckForDebuggerJustMyCode

; 945  :     if (x == 0)

	cmp	DWORD PTR x$[rbp], 0
	jne	SHORT $LN2@LZCNT_ALT_

; 946  :         return (sizeof(x) * 8);

	mov	eax, 32					; 00000020H
	jmp	SHORT $LN1@LZCNT_ALT_
$LN2@LZCNT_ALT_:

; 947  : #ifdef _M_IX86
; 948  :     _UINT32_T pos;
; 949  : #ifdef _MSC_VER
; 950  :     _BitScanReverse(&pos, x);
; 951  : #elif defined(__GNUC__)
; 952  :     __asm__("bsrl %1, %0" : "=r"(pos) : "rm"(x));
; 953  : #else
; 954  : #error unknown compiler
; 955  : #endif
; 956  : #elif defined(_M_X64)
; 957  : #ifdef _MSC_VER
; 958  :     _UINT32_T pos;
; 959  :     _BitScanReverse(&pos, x);

	mov	eax, DWORD PTR x$[rbp]
	bsr	eax, eax
	mov	DWORD PTR pos$[rbp], eax

; 960  : #elif defined(__GNUC__)
; 961  :     _UINT64_T pos;
; 962  :     __asm__("bsrq %1, %0" : "=r"(pos) : "rm"(x));
; 963  : #else
; 964  : #error unknown compiler
; 965  : #endif
; 966  : #else
; 967  : #error unknown platform
; 968  : #endif
; 969  :     return (sizeof(x) * 8 - 1 - pos);

	mov	eax, DWORD PTR pos$[rbp]
	mov	ecx, 31
	sub	rcx, rax
	mov	rax, rcx
$LN1@LZCNT_ALT_:

; 970  : }

	mov	rdi, rax
	lea	rcx, QWORD PTR [rbp-32]
	lea	rdx, OFFSET FLAT:_LZCNT_ALT_UNIT_DIV$rtcFrameData
	call	_RTC_CheckStackVars
	mov	rax, rdi
	lea	rsp, QWORD PTR [rbp+232]
	pop	rdi
	pop	rbp
	ret	0
_LZCNT_ALT_UNIT_DIV ENDP
_TEXT	ENDS
; Function compile flags: /Odtp /RTCsu /ZI
; File z:\sources\lunor\repos\rougemeilland\palmtree.math.core.implements\palmtree.math.core.implements\pmc_internal.h
;	COMDAT _LZCNT_ALT_UNIT
_TEXT	SEGMENT
pos$ = 4
x$ = 256
_LZCNT_ALT_UNIT PROC					; COMDAT

; 915  : {

	mov	QWORD PTR [rsp+8], rcx
	push	rbp
	push	rdi
	sub	rsp, 264				; 00000108H
	lea	rbp, QWORD PTR [rsp+32]
	mov	rdi, rsp
	mov	ecx, 66					; 00000042H
	mov	eax, -858993460				; ccccccccH
	rep stosd
	mov	rcx, QWORD PTR [rsp+296]
	lea	rcx, OFFSET FLAT:__4522B509_pmc_internal@h
	call	__CheckForDebuggerJustMyCode

; 916  :     if (x == 0)

	cmp	QWORD PTR x$[rbp], 0
	jne	SHORT $LN2@LZCNT_ALT_

; 917  :         return (sizeof(x) * 8);

	mov	eax, 64					; 00000040H
	jmp	SHORT $LN1@LZCNT_ALT_
$LN2@LZCNT_ALT_:

; 918  : #ifdef _M_IX86
; 919  :     _UINT32_T pos;
; 920  : #ifdef _MSC_VER
; 921  :     _BitScanReverse(&pos, x);
; 922  : #elif defined(__GNUC__)
; 923  :     __asm__("bsrl %1, %0" : "=r"(pos) : "rm"(x));
; 924  : #else
; 925  : #error unknown compiler
; 926  : #endif
; 927  : #elif defined(_M_X64)
; 928  : #ifdef _MSC_VER
; 929  :     _UINT32_T pos;
; 930  :     _BitScanReverse64(&pos, x);

	mov	rax, QWORD PTR x$[rbp]
	bsr	rax, rax
	mov	DWORD PTR pos$[rbp], eax

; 931  : #elif defined(__GNUC__)
; 932  :     _UINT64_T pos;
; 933  :     __asm__("bsrq %1, %0" : "=r"(pos) : "rm"(x));
; 934  : #else
; 935  : #error unknown compiler
; 936  : #endif
; 937  : #else
; 938  : #error unknown platform
; 939  : #endif
; 940  :     return (sizeof(x) * 8 - 1 - pos);

	mov	eax, DWORD PTR pos$[rbp]
	mov	ecx, 63					; 0000003fH
	sub	rcx, rax
	mov	rax, rcx
$LN1@LZCNT_ALT_:

; 941  : }

	mov	rdi, rax
	lea	rcx, QWORD PTR [rbp-32]
	lea	rdx, OFFSET FLAT:_LZCNT_ALT_UNIT$rtcFrameData
	call	_RTC_CheckStackVars
	mov	rax, rdi
	lea	rsp, QWORD PTR [rbp+232]
	pop	rdi
	pop	rbp
	ret	0
_LZCNT_ALT_UNIT ENDP
_TEXT	ENDS
; Function compile flags: /Odtp /RTCsu /ZI
; File z:\sources\lunor\repos\rougemeilland\palmtree.math.core.implements\palmtree.math.core.implements\pmc_internal.h
;	COMDAT _LZCNT_ALT_32
_TEXT	SEGMENT
pos$ = 4
x$ = 256
_LZCNT_ALT_32 PROC					; COMDAT

; 882  : {

	mov	DWORD PTR [rsp+8], ecx
	push	rbp
	push	rdi
	sub	rsp, 264				; 00000108H
	lea	rbp, QWORD PTR [rsp+32]
	mov	rdi, rsp
	mov	ecx, 66					; 00000042H
	mov	eax, -858993460				; ccccccccH
	rep stosd
	mov	ecx, DWORD PTR [rsp+296]
	lea	rcx, OFFSET FLAT:__4522B509_pmc_internal@h
	call	__CheckForDebuggerJustMyCode

; 883  :     if (x == 0)

	cmp	DWORD PTR x$[rbp], 0
	jne	SHORT $LN2@LZCNT_ALT_

; 884  :         return (sizeof(x) * 8);

	mov	eax, 32					; 00000020H
	jmp	SHORT $LN1@LZCNT_ALT_
$LN2@LZCNT_ALT_:

; 885  :     _UINT32_T pos;
; 886  : #ifdef _MSC_VER
; 887  :     _BitScanReverse(&pos, x);

	mov	eax, DWORD PTR x$[rbp]
	bsr	eax, eax
	mov	DWORD PTR pos$[rbp], eax

; 888  : #elif defined(__GNUC__)
; 889  :     __asm__( "bsrl %1, %0" : "=r"(pos) : "rm"(x) );
; 890  : #else
; 891  : #error unknown compiler
; 892  : #endif
; 893  :     return (sizeof(x) * 8 - 1 - pos);

	mov	eax, DWORD PTR pos$[rbp]
	mov	ecx, 31
	sub	rcx, rax
	mov	rax, rcx
$LN1@LZCNT_ALT_:

; 894  : }

	mov	rdi, rax
	lea	rcx, QWORD PTR [rbp-32]
	lea	rdx, OFFSET FLAT:_LZCNT_ALT_32$rtcFrameData
	call	_RTC_CheckStackVars
	mov	rax, rdi
	lea	rsp, QWORD PTR [rbp+232]
	pop	rdi
	pop	rbp
	ret	0
_LZCNT_ALT_32 ENDP
_TEXT	ENDS
; Function compile flags: /Odtp /RTCsu /ZI
; File z:\sources\lunor\repos\rougemeilland\palmtree.math.core.implements\palmtree.math.core.implements\pmc_internal.h
;	COMDAT _DIVREM_SINGLE_UNIT
_TEXT	SEGMENT
t$1 = 8
tv71 = 216
tv68 = 216
r$ = 256
u$ = 264
v$ = 272
q$ = 280
_DIVREM_SINGLE_UNIT PROC				; COMDAT

; 714  : {

	mov	QWORD PTR [rsp+32], r9
	mov	DWORD PTR [rsp+24], r8d
	mov	DWORD PTR [rsp+16], edx
	mov	DWORD PTR [rsp+8], ecx
	push	rbp
	push	rdi
	sub	rsp, 264				; 00000108H
	lea	rbp, QWORD PTR [rsp+32]
	mov	rdi, rsp
	mov	ecx, 66					; 00000042H
	mov	eax, -858993460				; ccccccccH
	rep stosd
	mov	ecx, DWORD PTR [rsp+296]
	lea	rcx, OFFSET FLAT:__4522B509_pmc_internal@h
	call	__CheckForDebuggerJustMyCode

; 715  : #ifdef _MSC_VER
; 716  :     if (sizeof(__UNIT_TYPE_DIV) == sizeof(_UINT32_T))

	xor	eax, eax
	cmp	eax, 1
	je	SHORT $LN2@DIVREM_SIN

; 717  :     {
; 718  :         // 64bit/32bitの除算を行う組み込み関数は実装されていない。
; 719  :         _UINT64_T t = _FROMWORDTODWORD(r, u);

	mov	edx, DWORD PTR u$[rbp]
	mov	ecx, DWORD PTR r$[rbp]
	call	_FROMWORDTODWORD
	mov	QWORD PTR t$1[rbp], rax

; 720  :         *q = (_UINT32_T)(t / v);

	mov	eax, DWORD PTR v$[rbp]
	mov	QWORD PTR tv68[rbp], rax
	xor	edx, edx
	mov	rax, QWORD PTR t$1[rbp]
	mov	rcx, QWORD PTR tv68[rbp]
	div	rcx
	mov	rcx, QWORD PTR q$[rbp]
	mov	DWORD PTR [rcx], eax

; 721  :         return ((_UINT32_T)(t % v));

	mov	eax, DWORD PTR v$[rbp]
	mov	QWORD PTR tv71[rbp], rax
	xor	edx, edx
	mov	rax, QWORD PTR t$1[rbp]
	mov	rcx, QWORD PTR tv71[rbp]
	div	rcx
	mov	rax, rdx
	jmp	SHORT $LN1@DIVREM_SIN

; 722  :     }

	jmp	SHORT $LN3@DIVREM_SIN
$LN2@DIVREM_SIN:

; 723  :     else if (sizeof(__UNIT_TYPE_DIV) == sizeof(_UINT64_T))

	xor	eax, eax
	test	eax, eax
	je	SHORT $LN4@DIVREM_SIN

; 724  :     {
; 725  :         // 以下の理由のため、MSVCでは 128bit/64bit の除算を実装できない。運用で回避すること。
; 726  :         // ・(x64 に限らず) 除算の組み込み関数が用意されていない。
; 727  :         // ・128bit 整数のデータ型が用意されていない。
; 728  :         // ・x64 ではインラインアセンブラがサポートされていない。
; 729  :         *q = 0;

	mov	rax, QWORD PTR q$[rbp]
	mov	DWORD PTR [rax], 0

; 730  :         return (0);

	xor	eax, eax
	jmp	SHORT $LN1@DIVREM_SIN

; 731  :     }

	jmp	SHORT $LN5@DIVREM_SIN
$LN4@DIVREM_SIN:

; 732  :     else
; 733  :     {
; 734  :         // 未知のプラットフォームの場合はとりあえず適当なものを返す。
; 735  :         *q = 0;

	mov	rax, QWORD PTR q$[rbp]
	mov	DWORD PTR [rax], 0

; 736  :         return (0);

	xor	eax, eax
$LN5@DIVREM_SIN:
$LN3@DIVREM_SIN:
$LN1@DIVREM_SIN:

; 737  :     }
; 738  : #elif defined(__GNUC__)
; 739  :     if (sizeof(__UNIT_TYPE_DIV) == sizeof(_UINT32_T))
; 740  :         __asm__("divl %4": "=a"(*q), "=d"(r) : "0"(u), "1"(r), "rm"(v));
; 741  :     else if (sizeof(__UNIT_TYPE_DIV) == sizeof(_UINT64_T))
; 742  :         __asm__("divq %4": "=a"(*q), "=d"(r) : "0"(u), "1"(r), "rm"(v));
; 743  :     else
; 744  :     {
; 745  :         // 未知のプラットフォームの場合はとりあえず適当なものを返す。
; 746  :         *q = 0;
; 747  :         r = 0;
; 748  :     }
; 749  :     return (r);
; 750  : #else
; 751  : #error unknown compiler
; 752  : #endif
; 753  : }

	lea	rsp, QWORD PTR [rbp+232]
	pop	rdi
	pop	rbp
	ret	0
_DIVREM_SINGLE_UNIT ENDP
_TEXT	ENDS
; Function compile flags: /Odtp /RTCsu /ZI
; File z:\sources\lunor\repos\rougemeilland\palmtree.math.core.implements\palmtree.math.core.implements\pmc_internal.h
;	COMDAT _DIVREM_UNIT
_TEXT	SEGMENT
t$1 = 8
tv71 = 216
tv68 = 216
u_high$ = 256
u_low$ = 264
v$ = 272
r$ = 280
_DIVREM_UNIT PROC					; COMDAT

; 670  : {

	mov	QWORD PTR [rsp+32], r9
	mov	DWORD PTR [rsp+24], r8d
	mov	DWORD PTR [rsp+16], edx
	mov	DWORD PTR [rsp+8], ecx
	push	rbp
	push	rdi
	sub	rsp, 264				; 00000108H
	lea	rbp, QWORD PTR [rsp+32]
	mov	rdi, rsp
	mov	ecx, 66					; 00000042H
	mov	eax, -858993460				; ccccccccH
	rep stosd
	mov	ecx, DWORD PTR [rsp+296]
	lea	rcx, OFFSET FLAT:__4522B509_pmc_internal@h
	call	__CheckForDebuggerJustMyCode

; 671  : #ifdef _MSC_VER
; 672  :     if (sizeof(__UNIT_TYPE_DIV) == sizeof(_UINT32_T))

	xor	eax, eax
	cmp	eax, 1
	je	SHORT $LN2@DIVREM_UNI

; 673  :     {
; 674  :         // 64bit/32bitの除算を行う組み込み関数は実装されていない。
; 675  :         _UINT64_T t = _FROMWORDTODWORD(u_high, u_low);

	mov	edx, DWORD PTR u_low$[rbp]
	mov	ecx, DWORD PTR u_high$[rbp]
	call	_FROMWORDTODWORD
	mov	QWORD PTR t$1[rbp], rax

; 676  :         *r = (_UINT32_T)(t % v);

	mov	eax, DWORD PTR v$[rbp]
	mov	QWORD PTR tv68[rbp], rax
	xor	edx, edx
	mov	rax, QWORD PTR t$1[rbp]
	mov	rcx, QWORD PTR tv68[rbp]
	div	rcx
	mov	rax, rdx
	mov	rcx, QWORD PTR r$[rbp]
	mov	DWORD PTR [rcx], eax

; 677  :         return ((_UINT32_T)(t / v));

	mov	eax, DWORD PTR v$[rbp]
	mov	QWORD PTR tv71[rbp], rax
	xor	edx, edx
	mov	rax, QWORD PTR t$1[rbp]
	mov	rcx, QWORD PTR tv71[rbp]
	div	rcx
	jmp	SHORT $LN1@DIVREM_UNI

; 678  :     }

	jmp	SHORT $LN3@DIVREM_UNI
$LN2@DIVREM_UNI:

; 679  :     else if (sizeof(__UNIT_TYPE_DIV) == sizeof(_UINT64_T))

	xor	eax, eax
	test	eax, eax
	je	SHORT $LN4@DIVREM_UNI

; 680  :     {
; 681  :         // 以下の理由のため、MSVCでは 128bit/64bit の除算を実装できない。運用で回避すること。
; 682  :         // ・(x64 に限らず) 除算の組み込み関数が用意されていない。
; 683  :         // ・128bit 整数のデータ型が用意されていない。
; 684  :         // ・x64 ではインラインアセンブラがサポートされていない。
; 685  :         *r = 0;

	mov	rax, QWORD PTR r$[rbp]
	mov	DWORD PTR [rax], 0

; 686  :         return (0);

	xor	eax, eax
	jmp	SHORT $LN1@DIVREM_UNI

; 687  :     }

	jmp	SHORT $LN5@DIVREM_UNI
$LN4@DIVREM_UNI:

; 688  :     else
; 689  :     {
; 690  :         // 未知のプラットフォームの場合はとりあえず適当なものを返す。
; 691  :         *r = 0;

	mov	rax, QWORD PTR r$[rbp]
	mov	DWORD PTR [rax], 0

; 692  :         return (0);

	xor	eax, eax
$LN5@DIVREM_UNI:
$LN3@DIVREM_UNI:
$LN1@DIVREM_UNI:

; 693  :     }
; 694  : #elif defined(__GNUC__)
; 695  :     __UNIT_TYPE q;
; 696  :     if (sizeof(__UNIT_TYPE_DIV) == sizeof(_UINT32_T))
; 697  :         __asm__("divl %4": "=a"(q), "=d"(*r) : "0"(u_low), "1"(u_high), "rm"(v));
; 698  :     else if (sizeof(__UNIT_TYPE_DIV) == sizeof(_UINT64_T))
; 699  :         __asm__("divq %4": "=a"(q), "=d"(*r) : "0"(u_low), "1"(u_high), "rm"(v));
; 700  :     else
; 701  :     {
; 702  :         // 未知のプラットフォームの場合はとりあえず適当なものを返す。
; 703  :         *r = 0;
; 704  :         q = 0;
; 705  :     }
; 706  :     return (q);
; 707  : #else
; 708  : #error unknown compiler
; 709  : #endif
; 710  : }

	lea	rsp, QWORD PTR [rbp+232]
	pop	rdi
	pop	rbp
	ret	0
_DIVREM_UNIT ENDP
_TEXT	ENDS
; Function compile flags: /Odtp /RTCsu /ZI
; File z:\sources\lunor\repos\rougemeilland\palmtree.math.core.implements\palmtree.math.core.implements\pmc_internal.h
;	COMDAT _MULTIPLYX_UNIT_DIV
_TEXT	SEGMENT
u$ = 224
v$ = 232
w_hi$ = 240
_MULTIPLYX_UNIT_DIV PROC				; COMDAT

; 648  : {

	mov	QWORD PTR [rsp+24], r8
	mov	DWORD PTR [rsp+16], edx
	mov	DWORD PTR [rsp+8], ecx
	push	rbp
	push	rdi
	sub	rsp, 232				; 000000e8H
	lea	rbp, QWORD PTR [rsp+32]
	mov	rdi, rsp
	mov	ecx, 58					; 0000003aH
	mov	eax, -858993460				; ccccccccH
	rep stosd
	mov	ecx, DWORD PTR [rsp+264]
	lea	rcx, OFFSET FLAT:__4522B509_pmc_internal@h
	call	__CheckForDebuggerJustMyCode

; 649  : #ifdef _MSC_VER
; 650  :     return (_FROMDWORDTOWORD((_UINT64_T)u * v, w_hi));

	mov	eax, DWORD PTR u$[rbp]
	mov	ecx, DWORD PTR v$[rbp]
	imul	rax, rcx
	mov	rdx, QWORD PTR w_hi$[rbp]
	mov	rcx, rax
	call	_FROMDWORDTOWORD

; 651  : #elif defined(__GNUC__)
; 652  : #ifdef _M_IX86
; 653  :     _UINT32_T w_lo;
; 654  :     __asm__("mulxl %3, %0, %1" : "=r"(w_lo), "=r"(*w_hi), "+d"(u) : "rm"(v));
; 655  :     return (w_lo);
; 656  : #elif defined(_M_X64)
; 657  :     _UINT64_T w_lo;
; 658  :     __asm__("mulxq %3, %0, %1" : "=r"(w_lo), "=r"(*w_hi), "+d"(u) : "rm"(v));
; 659  :     return (w_lo);
; 660  : #else
; 661  : #error unknown platform
; 662  : #endif
; 663  : #else
; 664  : #error unknown compiler
; 665  : #endif
; 666  : }

	lea	rsp, QWORD PTR [rbp+200]
	pop	rdi
	pop	rbp
	ret	0
_MULTIPLYX_UNIT_DIV ENDP
_TEXT	ENDS
; Function compile flags: /Odtp /RTCsu /ZI
; File z:\sources\lunor\repos\rougemeilland\palmtree.math.core.implements\palmtree.math.core.implements\pmc_internal.h
;	COMDAT _MULTIPLY_UNIT_DIV
_TEXT	SEGMENT
u$ = 224
v$ = 232
w_hi$ = 240
_MULTIPLY_UNIT_DIV PROC					; COMDAT

; 602  : {

	mov	QWORD PTR [rsp+24], r8
	mov	DWORD PTR [rsp+16], edx
	mov	DWORD PTR [rsp+8], ecx
	push	rbp
	push	rdi
	sub	rsp, 232				; 000000e8H
	lea	rbp, QWORD PTR [rsp+32]
	mov	rdi, rsp
	mov	ecx, 58					; 0000003aH
	mov	eax, -858993460				; ccccccccH
	rep stosd
	mov	ecx, DWORD PTR [rsp+264]
	lea	rcx, OFFSET FLAT:__4522B509_pmc_internal@h
	call	__CheckForDebuggerJustMyCode

; 603  : #ifdef _MSC_VER
; 604  :     return (_FROMDWORDTOWORD((_UINT64_T)u * v, w_hi));

	mov	eax, DWORD PTR u$[rbp]
	mov	ecx, DWORD PTR v$[rbp]
	imul	rax, rcx
	mov	rdx, QWORD PTR w_hi$[rbp]
	mov	rcx, rax
	call	_FROMDWORDTOWORD

; 605  : #elif defined(__GNUC__)
; 606  : #ifdef _M_IX86
; 607  :     _UINT32_T w_lo;
; 608  :     __asm__("mull %3": "=a"(w_lo), "=d"(*w_hi) : "0"(u), "rm"(v));
; 609  :     return (w_lo);
; 610  : #elif defined(_M_X64)
; 611  :     return (_umul128(u, v, w_hi));
; 612  : #else
; 613  : #error unknown platform
; 614  : #endif
; 615  : #else
; 616  : #error unknown compiler
; 617  : #endif
; 618  : }

	lea	rsp, QWORD PTR [rbp+200]
	pop	rdi
	pop	rbp
	ret	0
_MULTIPLY_UNIT_DIV ENDP
_TEXT	ENDS
; Function compile flags: /Odtp /RTCsu /ZI
; File z:\sources\lunor\repos\rougemeilland\palmtree.math.core.implements\palmtree.math.core.implements\pmc_internal.h
;	COMDAT _SUBTRUCT_UNIT_DIV
_TEXT	SEGMENT
borrow$ = 224
u$ = 232
v$ = 240
w$ = 248
_SUBTRUCT_UNIT_DIV PROC					; COMDAT

; 566  : {

	mov	QWORD PTR [rsp+32], r9
	mov	DWORD PTR [rsp+24], r8d
	mov	DWORD PTR [rsp+16], edx
	mov	BYTE PTR [rsp+8], cl
	push	rbp
	push	rdi
	sub	rsp, 232				; 000000e8H
	lea	rbp, QWORD PTR [rsp+32]
	mov	rdi, rsp
	mov	ecx, 58					; 0000003aH
	mov	eax, -858993460				; ccccccccH
	rep stosd
	movzx	ecx, BYTE PTR [rsp+264]
	lea	rcx, OFFSET FLAT:__4522B509_pmc_internal@h
	call	__CheckForDebuggerJustMyCode

; 567  : #ifdef _MSC_VER
; 568  :     return (_subborrow_u32(borrow, u, v, w));

	mov	eax, DWORD PTR u$[rbp]
	movzx	ecx, BYTE PTR borrow$[rbp]
	add	cl, -1
	sbb	eax, DWORD PTR v$[rbp]
	setb	cl
	mov	rdx, QWORD PTR w$[rbp]
	mov	DWORD PTR [rdx], eax
	movzx	eax, cl

; 569  : #elif defined(__GNUC__)
; 570  : #ifdef _M_IX86
; 571  :     return (_subborrow_u32(borrow, u, v, w));
; 572  : #elif defined(_M_X64)
; 573  :     return (_subborrow_u64(borrow, u, v, w));
; 574  : #else
; 575  : #error unknown platform
; 576  : #endif
; 577  : #else
; 578  : #error unknown compiler
; 579  : #endif
; 580  : }

	lea	rsp, QWORD PTR [rbp+200]
	pop	rdi
	pop	rbp
	ret	0
_SUBTRUCT_UNIT_DIV ENDP
_TEXT	ENDS
; Function compile flags: /Odtp /RTCsu /ZI
; File z:\sources\lunor\repos\rougemeilland\palmtree.math.core.implements\palmtree.math.core.implements\pmc_internal.h
;	COMDAT _ADDX_UNIT_DIV
_TEXT	SEGMENT
carry$ = 224
u$ = 232
v$ = 240
w$ = 248
_ADDX_UNIT_DIV PROC					; COMDAT

; 538  : {

	mov	QWORD PTR [rsp+32], r9
	mov	DWORD PTR [rsp+24], r8d
	mov	DWORD PTR [rsp+16], edx
	mov	BYTE PTR [rsp+8], cl
	push	rbp
	push	rdi
	sub	rsp, 232				; 000000e8H
	lea	rbp, QWORD PTR [rsp+32]
	mov	rdi, rsp
	mov	ecx, 58					; 0000003aH
	mov	eax, -858993460				; ccccccccH
	rep stosd
	movzx	ecx, BYTE PTR [rsp+264]
	lea	rcx, OFFSET FLAT:__4522B509_pmc_internal@h
	call	__CheckForDebuggerJustMyCode

; 539  : #ifdef _MSC_VER
; 540  :     return (_addcarryx_u32(carry, u, v, w));

	mov	eax, DWORD PTR u$[rbp]
	movzx	ecx, BYTE PTR carry$[rbp]
	add	cl, -1
	adcx	eax, DWORD PTR v$[rbp]
	setb	cl
	mov	rdx, QWORD PTR w$[rbp]
	mov	DWORD PTR [rdx], eax
	movzx	eax, cl

; 541  : #elif defined(__GNUC__)
; 542  : #ifdef _M_IX86
; 543  :     return (_addcarryx_u32(carry, u, v, w));
; 544  : #elif defined(_M_X64)
; 545  :     return (_addcarryx_u64(carry, u, v, w));
; 546  : #else
; 547  : #error unknown platform
; 548  : #endif
; 549  : #else
; 550  : #error unknown compiler
; 551  : #endif
; 552  : }

	lea	rsp, QWORD PTR [rbp+200]
	pop	rdi
	pop	rbp
	ret	0
_ADDX_UNIT_DIV ENDP
_TEXT	ENDS
; Function compile flags: /Odtp /RTCsu /ZI
; File z:\sources\lunor\repos\rougemeilland\palmtree.math.core.implements\palmtree.math.core.implements\pmc_internal.h
;	COMDAT _ADD_UNIT_DIV
_TEXT	SEGMENT
carry$ = 224
u$ = 232
v$ = 240
w$ = 248
_ADD_UNIT_DIV PROC					; COMDAT

; 510  : {

	mov	QWORD PTR [rsp+32], r9
	mov	DWORD PTR [rsp+24], r8d
	mov	DWORD PTR [rsp+16], edx
	mov	BYTE PTR [rsp+8], cl
	push	rbp
	push	rdi
	sub	rsp, 232				; 000000e8H
	lea	rbp, QWORD PTR [rsp+32]
	mov	rdi, rsp
	mov	ecx, 58					; 0000003aH
	mov	eax, -858993460				; ccccccccH
	rep stosd
	movzx	ecx, BYTE PTR [rsp+264]
	lea	rcx, OFFSET FLAT:__4522B509_pmc_internal@h
	call	__CheckForDebuggerJustMyCode

; 511  : #ifdef _MSC_VER
; 512  :     return (_addcarry_u32(carry, u, v, w));

	mov	eax, DWORD PTR u$[rbp]
	movzx	ecx, BYTE PTR carry$[rbp]
	add	cl, -1
	adc	eax, DWORD PTR v$[rbp]
	setb	cl
	mov	rdx, QWORD PTR w$[rbp]
	mov	DWORD PTR [rdx], eax
	movzx	eax, cl

; 513  : #elif defined(__GNUC__)
; 514  : #ifdef _M_IX86
; 515  :     return (_addcarry_u32(carry, u, v, w));
; 516  : #elif defined(_M_X64)
; 517  :     return (_addcarry_u64(carry, u, v, w));
; 518  : #else
; 519  : #error unknown platform
; 520  : #endif
; 521  : #else
; 522  : #error unknown compiler
; 523  : #endif
; 524  : }

	lea	rsp, QWORD PTR [rbp+200]
	pop	rdi
	pop	rbp
	ret	0
_ADD_UNIT_DIV ENDP
_TEXT	ENDS
; Function compile flags: /Odtp /RTCsu /ZI
; File z:\sources\lunor\repos\rougemeilland\palmtree.math.core.implements\palmtree.math.core.implements\pmc_internal.h
;	COMDAT _FROMDWORDTOWORD
_TEXT	SEGMENT
value$ = 224
result_high$ = 232
_FROMDWORDTOWORD PROC					; COMDAT

; 468  : {

	mov	QWORD PTR [rsp+16], rdx
	mov	QWORD PTR [rsp+8], rcx
	push	rbp
	push	rdi
	sub	rsp, 232				; 000000e8H
	lea	rbp, QWORD PTR [rsp+32]
	mov	rdi, rsp
	mov	ecx, 58					; 0000003aH
	mov	eax, -858993460				; ccccccccH
	rep stosd
	mov	rcx, QWORD PTR [rsp+264]
	lea	rcx, OFFSET FLAT:__4522B509_pmc_internal@h
	call	__CheckForDebuggerJustMyCode

; 469  :     *result_high = (_UINT32_T)(value >> 32);

	mov	rax, QWORD PTR value$[rbp]
	shr	rax, 32					; 00000020H
	mov	rcx, QWORD PTR result_high$[rbp]
	mov	DWORD PTR [rcx], eax

; 470  :     return ((_UINT32_T)value);

	mov	eax, DWORD PTR value$[rbp]

; 471  : }

	lea	rsp, QWORD PTR [rbp+200]
	pop	rdi
	pop	rbp
	ret	0
_FROMDWORDTOWORD ENDP
_TEXT	ENDS
; Function compile flags: /Odtp /RTCsu /ZI
; File z:\sources\lunor\repos\rougemeilland\palmtree.math.core.implements\palmtree.math.core.implements\pmc_internal.h
;	COMDAT _FROMWORDTODWORD
_TEXT	SEGMENT
value_high$ = 224
value_low$ = 232
_FROMWORDTODWORD PROC					; COMDAT

; 463  : {

	mov	DWORD PTR [rsp+16], edx
	mov	DWORD PTR [rsp+8], ecx
	push	rbp
	push	rdi
	sub	rsp, 232				; 000000e8H
	lea	rbp, QWORD PTR [rsp+32]
	mov	rdi, rsp
	mov	ecx, 58					; 0000003aH
	mov	eax, -858993460				; ccccccccH
	rep stosd
	mov	ecx, DWORD PTR [rsp+264]
	lea	rcx, OFFSET FLAT:__4522B509_pmc_internal@h
	call	__CheckForDebuggerJustMyCode

; 464  :     return (((_UINT64_T)value_high << 32) | value_low);

	mov	eax, DWORD PTR value_high$[rbp]
	shl	rax, 32					; 00000020H
	mov	ecx, DWORD PTR value_low$[rbp]
	or	rax, rcx

; 465  : }

	lea	rsp, QWORD PTR [rbp+200]
	pop	rdi
	pop	rbp
	ret	0
_FROMWORDTODWORD ENDP
_TEXT	ENDS
; Function compile flags: /Odtp /RTCsu /ZI
; File z:\sources\lunor\repos\rougemeilland\palmtree.math.core.implements\palmtree.math.core.implements\pmc_internal.h
;	COMDAT _COPY_MEMORY_UNIT_DIV
_TEXT	SEGMENT
d$ = 224
s$ = 232
count$ = 240
_COPY_MEMORY_UNIT_DIV PROC				; COMDAT

; 363  : {

	mov	QWORD PTR [rsp+24], r8
	mov	QWORD PTR [rsp+16], rdx
	mov	QWORD PTR [rsp+8], rcx
	push	rbp
	push	rsi
	push	rdi
	sub	rsp, 224				; 000000e0H
	lea	rbp, QWORD PTR [rsp+32]
	mov	rdi, rsp
	mov	ecx, 56					; 00000038H
	mov	eax, -858993460				; ccccccccH
	rep stosd
	mov	rcx, QWORD PTR [rsp+264]
	lea	rcx, OFFSET FLAT:__4522B509_pmc_internal@h
	call	__CheckForDebuggerJustMyCode

; 364  : #ifdef _M_IX86
; 365  :     __movsd((unsigned long *)d, (unsigned long *)s, (unsigned long)count);
; 366  : #elif defined(_M_X64)
; 367  : #ifdef _MSC_VER
; 368  :     __movsd((unsigned long *)d, (unsigned long *)s, (unsigned long)count);

	mov	eax, DWORD PTR count$[rbp]
	mov	rdi, QWORD PTR d$[rbp]
	mov	rsi, QWORD PTR s$[rbp]
	mov	ecx, eax
	rep movsd

; 369  : #elif defined(__GNUC__)
; 370  :     __movsq(d, s, count);
; 371  : #else
; 372  : #error unknown compiler
; 373  : #endif
; 374  : #else
; 375  : #error unknown platform
; 376  : #endif
; 377  : }

	lea	rsp, QWORD PTR [rbp+192]
	pop	rdi
	pop	rsi
	pop	rbp
	ret	0
_COPY_MEMORY_UNIT_DIV ENDP
_TEXT	ENDS
; Function compile flags: /Odtp /RTCsu /ZI
; File z:\sources\lunor\repos\rougemeilland\palmtree.math.core.implements\palmtree.math.core.implements\pmc_internal.h
;	COMDAT _COPY_MEMORY_UNIT
_TEXT	SEGMENT
d$ = 224
s$ = 232
count$ = 240
_COPY_MEMORY_UNIT PROC					; COMDAT

; 352  : {

	mov	QWORD PTR [rsp+24], r8
	mov	QWORD PTR [rsp+16], rdx
	mov	QWORD PTR [rsp+8], rcx
	push	rbp
	push	rsi
	push	rdi
	sub	rsp, 224				; 000000e0H
	lea	rbp, QWORD PTR [rsp+32]
	mov	rdi, rsp
	mov	ecx, 56					; 00000038H
	mov	eax, -858993460				; ccccccccH
	rep stosd
	mov	rcx, QWORD PTR [rsp+264]
	lea	rcx, OFFSET FLAT:__4522B509_pmc_internal@h
	call	__CheckForDebuggerJustMyCode

; 353  : #ifdef _M_IX86
; 354  :     __movsd((unsigned long *)d, (unsigned long *)s, (unsigned long)count);
; 355  : #elif defined(_M_X64)
; 356  :     __movsq(d, s, count);

	mov	rdi, QWORD PTR d$[rbp]
	mov	rsi, QWORD PTR s$[rbp]
	mov	rcx, QWORD PTR count$[rbp]
	rep movsq

; 357  : #else
; 358  : #error unknown platform
; 359  : #endif
; 360  : }

	lea	rsp, QWORD PTR [rbp+192]
	pop	rdi
	pop	rsi
	pop	rbp
	ret	0
_COPY_MEMORY_UNIT ENDP
_TEXT	ENDS
; Function compile flags: /Odtp /RTCsu /ZI
; File z:\sources\lunor\repos\rougemeilland\palmtree.math.core.implements\palmtree.math.core.implements\pmc_divrem.c
;	COMDAT PMC_DivRem_X_X
_TEXT	SEGMENT
nu$ = 8
nv$ = 40
result$ = 68
nq$ = 104
nr$ = 136
u_bit_count$11 = 168
v_bit_count$12 = 200
q_bit_count$13 = 232
nq_light_check_code$14 = 264
r_bit_count$15 = 296
nr_light_check_code$16 = 328
q_bit_count$17 = 360
r_bit_count$18 = 392
nq_light_check_code$19 = 424
nr_light_check_code$20 = 456
work_v_buf_code$21 = 488
work_v_buf_words$22 = 520
work_v_buf$23 = 552
tv210 = 952
tv149 = 952
tv153 = 960
u$ = 1008
v$ = 1016
q$ = 1024
r$ = 1032
PMC_DivRem_X_X PROC					; COMDAT

; 1591 : {

$LN36:
	mov	QWORD PTR [rsp+32], r9
	mov	QWORD PTR [rsp+24], r8
	mov	QWORD PTR [rsp+16], rdx
	mov	QWORD PTR [rsp+8], rcx
	push	rbp
	push	rdi
	sub	rsp, 1048				; 00000418H
	lea	rbp, QWORD PTR [rsp+64]
	mov	rdi, rsp
	mov	ecx, 262				; 00000106H
	mov	eax, -858993460				; ccccccccH
	rep stosd
	mov	rcx, QWORD PTR [rsp+1080]
	lea	rcx, OFFSET FLAT:__62F961D6_pmc_divrem@c
	call	__CheckForDebuggerJustMyCode

; 1592 :     if (u == NULL)

	cmp	QWORD PTR u$[rbp], 0
	jne	SHORT $LN2@PMC_DivRem

; 1593 :         return (PMC_STATUS_ARGUMENT_ERROR);

	mov	eax, -1
	jmp	$LN1@PMC_DivRem
$LN2@PMC_DivRem:

; 1594 :     if (v == NULL)

	cmp	QWORD PTR v$[rbp], 0
	jne	SHORT $LN3@PMC_DivRem

; 1595 :         return (PMC_STATUS_ARGUMENT_ERROR);

	mov	eax, -1
	jmp	$LN1@PMC_DivRem
$LN3@PMC_DivRem:

; 1596 :     if (q == NULL)

	cmp	QWORD PTR q$[rbp], 0
	jne	SHORT $LN4@PMC_DivRem

; 1597 :         return (PMC_STATUS_ARGUMENT_ERROR);

	mov	eax, -1
	jmp	$LN1@PMC_DivRem
$LN4@PMC_DivRem:

; 1598 :     if (r == NULL)

	cmp	QWORD PTR r$[rbp], 0
	jne	SHORT $LN5@PMC_DivRem

; 1599 :         return (PMC_STATUS_ARGUMENT_ERROR);

	mov	eax, -1
	jmp	$LN1@PMC_DivRem
$LN5@PMC_DivRem:

; 1600 :     NUMBER_HEADER* nu = (NUMBER_HEADER*)u;

	mov	rax, QWORD PTR u$[rbp]
	mov	QWORD PTR nu$[rbp], rax

; 1601 :     NUMBER_HEADER* nv = (NUMBER_HEADER*)v;

	mov	rax, QWORD PTR v$[rbp]
	mov	QWORD PTR nv$[rbp], rax

; 1602 :     PMC_STATUS_CODE result;
; 1603 :     if ((result = CheckNumber(nu)) != PMC_STATUS_OK)

	mov	rcx, QWORD PTR nu$[rbp]
	call	CheckNumber
	mov	DWORD PTR result$[rbp], eax
	cmp	DWORD PTR result$[rbp], 0
	je	SHORT $LN6@PMC_DivRem

; 1604 :         return (result);

	mov	eax, DWORD PTR result$[rbp]
	jmp	$LN1@PMC_DivRem
$LN6@PMC_DivRem:

; 1605 :     if ((result = CheckNumber(nv)) != PMC_STATUS_OK)

	mov	rcx, QWORD PTR nv$[rbp]
	call	CheckNumber
	mov	DWORD PTR result$[rbp], eax
	cmp	DWORD PTR result$[rbp], 0
	je	SHORT $LN7@PMC_DivRem

; 1606 :         return (result);

	mov	eax, DWORD PTR result$[rbp]
	jmp	$LN1@PMC_DivRem
$LN7@PMC_DivRem:

; 1607 :     if (nv->IS_ZERO)

	mov	rax, QWORD PTR nv$[rbp]
	mov	eax, DWORD PTR [rax+40]
	shr	eax, 1
	and	eax, 1
	test	eax, eax
	je	SHORT $LN8@PMC_DivRem

; 1608 :     {
; 1609 :         // v が 0 である場合
; 1610 : 
; 1611 :         // 0 による除算はエラーで返す
; 1612 :         return (PMC_STATUS_DIVISION_BY_ZERO);

	mov	eax, -3
	jmp	$LN1@PMC_DivRem
$LN8@PMC_DivRem:

; 1613 :     }
; 1614 :     NUMBER_HEADER* nq;
; 1615 :     NUMBER_HEADER* nr;
; 1616 :     if (nu->IS_ZERO)

	mov	rax, QWORD PTR nu$[rbp]
	mov	eax, DWORD PTR [rax+40]
	shr	eax, 1
	and	eax, 1
	test	eax, eax
	je	SHORT $LN9@PMC_DivRem

; 1617 :     {
; 1618 :         // u が 0 である場合
; 1619 : 
; 1620 :         // q = 0, r = 0 を返す
; 1621 :         nq = &number_zero;

	lea	rax, OFFSET FLAT:number_zero
	mov	QWORD PTR nq$[rbp], rax

; 1622 :         nr = &number_zero;

	lea	rax, OFFSET FLAT:number_zero
	mov	QWORD PTR nr$[rbp], rax

; 1623 :     }

	jmp	$LN10@PMC_DivRem
$LN9@PMC_DivRem:

; 1624 :     else
; 1625 :     {
; 1626 :         // u が 0 ではない場合
; 1627 : 
; 1628 :         if (nv->IS_ONE)

	mov	rax, QWORD PTR nv$[rbp]
	mov	eax, DWORD PTR [rax+40]
	shr	eax, 2
	and	eax, 1
	test	eax, eax
	je	SHORT $LN11@PMC_DivRem

; 1629 :         {
; 1630 :             // v が 1 である場合
; 1631 : 
; 1632 :             // q = u, r = 0 を返す
; 1633 :             if ((result = DuplicateNumber(nu, &nq)) != PMC_STATUS_OK)

	lea	rdx, QWORD PTR nq$[rbp]
	mov	rcx, QWORD PTR nu$[rbp]
	call	DuplicateNumber
	mov	DWORD PTR result$[rbp], eax
	cmp	DWORD PTR result$[rbp], 0
	je	SHORT $LN13@PMC_DivRem

; 1634 :                 return (result);

	mov	eax, DWORD PTR result$[rbp]
	jmp	$LN1@PMC_DivRem
$LN13@PMC_DivRem:

; 1635 :             nr = &number_zero;

	lea	rax, OFFSET FLAT:number_zero
	mov	QWORD PTR nr$[rbp], rax

; 1636 :         }

	jmp	$LN12@PMC_DivRem
$LN11@PMC_DivRem:

; 1637 :         else
; 1638 :         {
; 1639 :             // u > 0 かつ v > 1 である場合
; 1640 : 
; 1641 :             // x と y の商・剰余を計算する
; 1642 :             __UNIT_TYPE u_bit_count = nu->UNIT_BIT_COUNT;

	mov	rax, QWORD PTR nu$[rbp]
	mov	rax, QWORD PTR [rax+16]
	mov	QWORD PTR u_bit_count$11[rbp], rax

; 1643 :             __UNIT_TYPE v_bit_count = nv->UNIT_BIT_COUNT;

	mov	rax, QWORD PTR nv$[rbp]
	mov	rax, QWORD PTR [rax+16]
	mov	QWORD PTR v_bit_count$12[rbp], rax

; 1644 :             if (u_bit_count < v_bit_count)

	mov	rax, QWORD PTR v_bit_count$12[rbp]
	cmp	QWORD PTR u_bit_count$11[rbp], rax
	jae	SHORT $LN14@PMC_DivRem

; 1645 :             {
; 1646 :                 // 明らかに u < v である場合
; 1647 : 
; 1648 :                 // q = 0, r = u を返す。
; 1649 :                 nq = &number_zero;

	lea	rax, OFFSET FLAT:number_zero
	mov	QWORD PTR nq$[rbp], rax

; 1650 :                 if ((result = DuplicateNumber(nu, &nr)) != PMC_STATUS_OK)

	lea	rdx, QWORD PTR nr$[rbp]
	mov	rcx, QWORD PTR nu$[rbp]
	call	DuplicateNumber
	mov	DWORD PTR result$[rbp], eax
	cmp	DWORD PTR result$[rbp], 0
	je	SHORT $LN16@PMC_DivRem

; 1651 :                     return (result);

	mov	eax, DWORD PTR result$[rbp]
	jmp	$LN1@PMC_DivRem
$LN16@PMC_DivRem:

; 1652 :             }

	jmp	$LN15@PMC_DivRem
$LN14@PMC_DivRem:

; 1653 :             else if (v_bit_count <= sizeof(__UNIT_TYPE_DIV) * 8)

	cmp	QWORD PTR v_bit_count$12[rbp], 32	; 00000020H
	ja	$LN17@PMC_DivRem

; 1654 :             {
; 1655 :                 // 除数が 1 ワードで表現できる場合
; 1656 : 
; 1657 :                 __UNIT_TYPE q_bit_count = u_bit_count - v_bit_count + 1 + __UNIT_TYPE_BIT_COUNT; // 演算結果を格納するためには u_bit_count - v_bit_count + 1 だけあれば十分であるが、除算の作業用バッファも兼ねているので余分にとっている。

	mov	rax, QWORD PTR v_bit_count$12[rbp]
	mov	rcx, QWORD PTR u_bit_count$11[rbp]
	sub	rcx, rax
	mov	rax, rcx
	add	rax, 65					; 00000041H
	mov	QWORD PTR q_bit_count$13[rbp], rax

; 1658 :                 __UNIT_TYPE nq_light_check_code;
; 1659 :                 if ((result = AllocateNumber(&nq, q_bit_count, &nq_light_check_code)) != PMC_STATUS_OK)

	lea	r8, QWORD PTR nq_light_check_code$14[rbp]
	mov	rdx, QWORD PTR q_bit_count$13[rbp]
	lea	rcx, QWORD PTR nq$[rbp]
	call	AllocateNumber
	mov	DWORD PTR result$[rbp], eax
	cmp	DWORD PTR result$[rbp], 0
	je	SHORT $LN19@PMC_DivRem

; 1660 :                     return (result);

	mov	eax, DWORD PTR result$[rbp]
	jmp	$LN1@PMC_DivRem
$LN19@PMC_DivRem:

; 1661 :                 __UNIT_TYPE r_bit_count = sizeof(__UNIT_TYPE_DIV) * 8;

	mov	QWORD PTR r_bit_count$15[rbp], 32	; 00000020H

; 1662 :                 __UNIT_TYPE nr_light_check_code;
; 1663 :                 if ((result = AllocateNumber(&nr, r_bit_count, &nr_light_check_code)) != PMC_STATUS_OK)

	lea	r8, QWORD PTR nr_light_check_code$16[rbp]
	mov	rdx, QWORD PTR r_bit_count$15[rbp]
	lea	rcx, QWORD PTR nr$[rbp]
	call	AllocateNumber
	mov	DWORD PTR result$[rbp], eax
	cmp	DWORD PTR result$[rbp], 0
	je	SHORT $LN20@PMC_DivRem

; 1664 :                 {
; 1665 :                     DeallocateNumber(nq);

	mov	rcx, QWORD PTR nq$[rbp]
	call	DeallocateNumber

; 1666 :                     return (result);

	mov	eax, DWORD PTR result$[rbp]
	jmp	$LN1@PMC_DivRem
$LN20@PMC_DivRem:

; 1667 :                 }
; 1668 :                 DivRem_X_1W((__UNIT_TYPE_DIV*)nu->BLOCK, nu->UNIT_WORD_COUNT * sizeof(__UNIT_TYPE) / sizeof(__UNIT_TYPE_DIV), (__UNIT_TYPE_DIV)nv->BLOCK[0], (__UNIT_TYPE_DIV*)nq->BLOCK, (__UNIT_TYPE_DIV*)nr->BLOCK);

	mov	eax, 8
	imul	rax, rax, 0
	mov	QWORD PTR tv149[rbp], rax
	mov	rcx, QWORD PTR nv$[rbp]
	mov	rcx, QWORD PTR [rcx+56]
	mov	rdx, QWORD PTR nu$[rbp]
	mov	rdx, QWORD PTR [rdx+8]
	shl	rdx, 3
	mov	QWORD PTR tv153[rbp], rdx
	xor	edx, edx
	mov	r8, QWORD PTR tv153[rbp]
	mov	rax, r8
	mov	r8d, 4
	div	r8
	mov	rdx, QWORD PTR nr$[rbp]
	mov	rdx, QWORD PTR [rdx+56]
	mov	QWORD PTR [rsp+32], rdx
	mov	rdx, QWORD PTR nq$[rbp]
	mov	r9, QWORD PTR [rdx+56]
	mov	rdx, QWORD PTR tv149[rbp]
	mov	r8d, DWORD PTR [rcx+rdx]
	mov	rdx, rax
	mov	rax, QWORD PTR nu$[rbp]
	mov	rcx, QWORD PTR [rax+56]
	call	DivRem_X_1W

; 1669 :                 if ((result = CheckBlockLight(nq->BLOCK, nq_light_check_code)) != PMC_STATUS_OK)

	mov	rdx, QWORD PTR nq_light_check_code$14[rbp]
	mov	rax, QWORD PTR nq$[rbp]
	mov	rcx, QWORD PTR [rax+56]
	call	CheckBlockLight
	mov	DWORD PTR result$[rbp], eax
	cmp	DWORD PTR result$[rbp], 0
	je	SHORT $LN21@PMC_DivRem

; 1670 :                     return (result);

	mov	eax, DWORD PTR result$[rbp]
	jmp	$LN1@PMC_DivRem
$LN21@PMC_DivRem:

; 1671 :                 if ((result = CheckBlockLight(nr->BLOCK, nr_light_check_code)) != PMC_STATUS_OK)

	mov	rdx, QWORD PTR nr_light_check_code$16[rbp]
	mov	rax, QWORD PTR nr$[rbp]
	mov	rcx, QWORD PTR [rax+56]
	call	CheckBlockLight
	mov	DWORD PTR result$[rbp], eax
	cmp	DWORD PTR result$[rbp], 0
	je	SHORT $LN22@PMC_DivRem

; 1672 :                     return (result);

	mov	eax, DWORD PTR result$[rbp]
	jmp	$LN1@PMC_DivRem
$LN22@PMC_DivRem:

; 1673 :                 CommitNumber(nq);

	mov	rcx, QWORD PTR nq$[rbp]
	call	CommitNumber

; 1674 :                 CommitNumber(nr);

	mov	rcx, QWORD PTR nr$[rbp]
	call	CommitNumber

; 1675 :                 if (nq->IS_ZERO)

	mov	rax, QWORD PTR nq$[rbp]
	mov	eax, DWORD PTR [rax+40]
	shr	eax, 1
	and	eax, 1
	test	eax, eax
	je	SHORT $LN23@PMC_DivRem

; 1676 :                 {
; 1677 :                     DeallocateNumber(nq);

	mov	rcx, QWORD PTR nq$[rbp]
	call	DeallocateNumber

; 1678 :                     nq = &number_zero;

	lea	rax, OFFSET FLAT:number_zero
	mov	QWORD PTR nq$[rbp], rax
$LN23@PMC_DivRem:

; 1679 :                 }
; 1680 :                 if (nr->IS_ZERO)

	mov	rax, QWORD PTR nr$[rbp]
	mov	eax, DWORD PTR [rax+40]
	shr	eax, 1
	and	eax, 1
	test	eax, eax
	je	SHORT $LN24@PMC_DivRem

; 1681 :                 {
; 1682 :                     DeallocateNumber(nr);

	mov	rcx, QWORD PTR nr$[rbp]
	call	DeallocateNumber

; 1683 :                     nr = &number_zero;

	lea	rax, OFFSET FLAT:number_zero
	mov	QWORD PTR nr$[rbp], rax
$LN24@PMC_DivRem:

; 1684 :                 }
; 1685 :             }

	jmp	$LN18@PMC_DivRem
$LN17@PMC_DivRem:

; 1686 :             else
; 1687 :             {
; 1688 :                 // 除数を表現するのに 2 ワード以上必要な場合
; 1689 :                 __UNIT_TYPE q_bit_count = u_bit_count - v_bit_count + 1 + __UNIT_TYPE_BIT_COUNT; // 演算結果を格納するためには u_bit_count - v_bit_count + 1 だけあれば十分であるが、除算の作業用バッファも兼ねているので余分にとっている。

	mov	rax, QWORD PTR v_bit_count$12[rbp]
	mov	rcx, QWORD PTR u_bit_count$11[rbp]
	sub	rcx, rax
	mov	rax, rcx
	add	rax, 65					; 00000041H
	mov	QWORD PTR q_bit_count$17[rbp], rax

; 1690 :                 __UNIT_TYPE r_bit_count = u_bit_count + __UNIT_TYPE_BIT_COUNT; // 演算結果を格納するためには v_bit_count だけあれば十分であるが、除算の作業用バッファも兼ねているので余分にとっている。

	mov	rax, QWORD PTR u_bit_count$11[rbp]
	add	rax, 64					; 00000040H
	mov	QWORD PTR r_bit_count$18[rbp], rax

; 1691 :                 __UNIT_TYPE nq_light_check_code;
; 1692 :                 if ((result = AllocateNumber(&nq, q_bit_count, &nq_light_check_code)) != PMC_STATUS_OK)

	lea	r8, QWORD PTR nq_light_check_code$19[rbp]
	mov	rdx, QWORD PTR q_bit_count$17[rbp]
	lea	rcx, QWORD PTR nq$[rbp]
	call	AllocateNumber
	mov	DWORD PTR result$[rbp], eax
	cmp	DWORD PTR result$[rbp], 0
	je	SHORT $LN25@PMC_DivRem

; 1693 :                     return (result);

	mov	eax, DWORD PTR result$[rbp]
	jmp	$LN1@PMC_DivRem
$LN25@PMC_DivRem:

; 1694 :                 __UNIT_TYPE nr_light_check_code;
; 1695 :                 if ((result = AllocateNumber(&nr, r_bit_count, &nr_light_check_code)) != PMC_STATUS_OK)

	lea	r8, QWORD PTR nr_light_check_code$20[rbp]
	mov	rdx, QWORD PTR r_bit_count$18[rbp]
	lea	rcx, QWORD PTR nr$[rbp]
	call	AllocateNumber
	mov	DWORD PTR result$[rbp], eax
	cmp	DWORD PTR result$[rbp], 0
	je	SHORT $LN26@PMC_DivRem

; 1696 :                 {
; 1697 :                     DeallocateNumber(nq);

	mov	rcx, QWORD PTR nq$[rbp]
	call	DeallocateNumber

; 1698 :                     return (result);

	mov	eax, DWORD PTR result$[rbp]
	jmp	$LN1@PMC_DivRem
$LN26@PMC_DivRem:

; 1699 :                 }
; 1700 :                 __UNIT_TYPE work_v_buf_code;
; 1701 :                 __UNIT_TYPE work_v_buf_words;
; 1702 :                 __UNIT_TYPE_DIV* work_v_buf = (__UNIT_TYPE_DIV*)AllocateBlock(nv->UNIT_WORD_COUNT * __UNIT_TYPE_BIT_COUNT, &work_v_buf_words, &work_v_buf_code);

	mov	rax, QWORD PTR nv$[rbp]
	imul	rax, QWORD PTR [rax+8], 64		; 00000040H
	lea	r8, QWORD PTR work_v_buf_code$21[rbp]
	lea	rdx, QWORD PTR work_v_buf_words$22[rbp]
	mov	rcx, rax
	call	AllocateBlock
	mov	QWORD PTR work_v_buf$23[rbp], rax

; 1703 :                 if (work_v_buf == NULL)

	cmp	QWORD PTR work_v_buf$23[rbp], 0
	jne	SHORT $LN27@PMC_DivRem

; 1704 :                 {
; 1705 :                     DeallocateNumber(nq);

	mov	rcx, QWORD PTR nq$[rbp]
	call	DeallocateNumber

; 1706 :                     return (PMC_STATUS_NOT_ENOUGH_MEMORY);

	mov	eax, -5
	jmp	$LN1@PMC_DivRem
$LN27@PMC_DivRem:

; 1707 :                 }
; 1708 : 
; 1709 :                 (*fp_DivRem_X_X)((__UNIT_TYPE_DIV*)nu->BLOCK, nu->UNIT_WORD_COUNT * sizeof(__UNIT_TYPE) / sizeof(__UNIT_TYPE_DIV), (__UNIT_TYPE_DIV*)nv->BLOCK, nv->UNIT_WORD_COUNT * sizeof(__UNIT_TYPE) / sizeof(__UNIT_TYPE_DIV), work_v_buf, (__UNIT_TYPE_DIV*)nq->BLOCK, (__UNIT_TYPE_DIV*)nr->BLOCK);

	mov	rax, QWORD PTR nv$[rbp]
	mov	rax, QWORD PTR [rax+8]
	shl	rax, 3
	xor	edx, edx
	mov	ecx, 4
	div	rcx
	mov	QWORD PTR tv210[rbp], rax
	mov	rcx, QWORD PTR nu$[rbp]
	mov	rcx, QWORD PTR [rcx+8]
	shl	rcx, 3
	xor	edx, edx
	mov	rax, rcx
	mov	ecx, 4
	div	rcx
	mov	rcx, QWORD PTR nr$[rbp]
	mov	rcx, QWORD PTR [rcx+56]
	mov	QWORD PTR [rsp+48], rcx
	mov	rcx, QWORD PTR nq$[rbp]
	mov	rcx, QWORD PTR [rcx+56]
	mov	QWORD PTR [rsp+40], rcx
	mov	rcx, QWORD PTR work_v_buf$23[rbp]
	mov	QWORD PTR [rsp+32], rcx
	mov	rcx, QWORD PTR tv210[rbp]
	mov	r9, rcx
	mov	rcx, QWORD PTR nv$[rbp]
	mov	r8, QWORD PTR [rcx+56]
	mov	rdx, rax
	mov	rax, QWORD PTR nu$[rbp]
	mov	rcx, QWORD PTR [rax+56]
	call	QWORD PTR fp_DivRem_X_X

; 1710 :                 if ((result = CheckBlockLight((__UNIT_TYPE*)work_v_buf, work_v_buf_code)) != PMC_STATUS_OK)

	mov	rdx, QWORD PTR work_v_buf_code$21[rbp]
	mov	rcx, QWORD PTR work_v_buf$23[rbp]
	call	CheckBlockLight
	mov	DWORD PTR result$[rbp], eax
	cmp	DWORD PTR result$[rbp], 0
	je	SHORT $LN28@PMC_DivRem

; 1711 :                     return (result);

	mov	eax, DWORD PTR result$[rbp]
	jmp	$LN1@PMC_DivRem
$LN28@PMC_DivRem:

; 1712 :                 if ((result = CheckBlockLight(nq->BLOCK, nq_light_check_code)) != PMC_STATUS_OK)

	mov	rdx, QWORD PTR nq_light_check_code$19[rbp]
	mov	rax, QWORD PTR nq$[rbp]
	mov	rcx, QWORD PTR [rax+56]
	call	CheckBlockLight
	mov	DWORD PTR result$[rbp], eax
	cmp	DWORD PTR result$[rbp], 0
	je	SHORT $LN29@PMC_DivRem

; 1713 :                     return (result);

	mov	eax, DWORD PTR result$[rbp]
	jmp	$LN1@PMC_DivRem
$LN29@PMC_DivRem:

; 1714 :                 if ((result = CheckBlockLight(nq->BLOCK, nq_light_check_code)) != PMC_STATUS_OK)

	mov	rdx, QWORD PTR nq_light_check_code$19[rbp]
	mov	rax, QWORD PTR nq$[rbp]
	mov	rcx, QWORD PTR [rax+56]
	call	CheckBlockLight
	mov	DWORD PTR result$[rbp], eax
	cmp	DWORD PTR result$[rbp], 0
	je	SHORT $LN30@PMC_DivRem

; 1715 :                     return (result);

	mov	eax, DWORD PTR result$[rbp]
	jmp	$LN1@PMC_DivRem
$LN30@PMC_DivRem:

; 1716 :                 DeallocateBlock((__UNIT_TYPE*)work_v_buf, work_v_buf_words);

	mov	rdx, QWORD PTR work_v_buf_words$22[rbp]
	mov	rcx, QWORD PTR work_v_buf$23[rbp]
	call	DeallocateBlock

; 1717 :                 CommitNumber(nq);

	mov	rcx, QWORD PTR nq$[rbp]
	call	CommitNumber

; 1718 :                 CommitNumber(nr);

	mov	rcx, QWORD PTR nr$[rbp]
	call	CommitNumber

; 1719 :                 if (nq->IS_ZERO)

	mov	rax, QWORD PTR nq$[rbp]
	mov	eax, DWORD PTR [rax+40]
	shr	eax, 1
	and	eax, 1
	test	eax, eax
	je	SHORT $LN31@PMC_DivRem

; 1720 :                 {
; 1721 :                     DeallocateNumber(nq);

	mov	rcx, QWORD PTR nq$[rbp]
	call	DeallocateNumber

; 1722 :                     nq = &number_zero;

	lea	rax, OFFSET FLAT:number_zero
	mov	QWORD PTR nq$[rbp], rax
$LN31@PMC_DivRem:

; 1723 :                 }
; 1724 :                 if (nr->IS_ZERO)

	mov	rax, QWORD PTR nr$[rbp]
	mov	eax, DWORD PTR [rax+40]
	shr	eax, 1
	and	eax, 1
	test	eax, eax
	je	SHORT $LN32@PMC_DivRem

; 1725 :                 {
; 1726 :                     DeallocateNumber(nr);

	mov	rcx, QWORD PTR nr$[rbp]
	call	DeallocateNumber

; 1727 :                     nr = &number_zero;

	lea	rax, OFFSET FLAT:number_zero
	mov	QWORD PTR nr$[rbp], rax
$LN32@PMC_DivRem:
$LN18@PMC_DivRem:
$LN15@PMC_DivRem:
$LN12@PMC_DivRem:
$LN10@PMC_DivRem:

; 1728 :                 }
; 1729 :             }
; 1730 :         }
; 1731 :     }
; 1732 :     *q = nq;

	mov	rax, QWORD PTR q$[rbp]
	mov	rcx, QWORD PTR nq$[rbp]
	mov	QWORD PTR [rax], rcx

; 1733 :     *r = nr;

	mov	rax, QWORD PTR r$[rbp]
	mov	rcx, QWORD PTR nr$[rbp]
	mov	QWORD PTR [rax], rcx

; 1734 : #ifdef _DEBUG
; 1735 :     if ((result = CheckNumber(*q)) != PMC_STATUS_OK)

	mov	rax, QWORD PTR q$[rbp]
	mov	rcx, QWORD PTR [rax]
	call	CheckNumber
	mov	DWORD PTR result$[rbp], eax
	cmp	DWORD PTR result$[rbp], 0
	je	SHORT $LN33@PMC_DivRem

; 1736 :         return (result);

	mov	eax, DWORD PTR result$[rbp]
	jmp	SHORT $LN1@PMC_DivRem
$LN33@PMC_DivRem:

; 1737 :     if ((result = CheckNumber(*r)) != PMC_STATUS_OK)

	mov	rax, QWORD PTR r$[rbp]
	mov	rcx, QWORD PTR [rax]
	call	CheckNumber
	mov	DWORD PTR result$[rbp], eax
	cmp	DWORD PTR result$[rbp], 0
	je	SHORT $LN34@PMC_DivRem

; 1738 :         return (result);

	mov	eax, DWORD PTR result$[rbp]
	jmp	SHORT $LN1@PMC_DivRem
$LN34@PMC_DivRem:

; 1739 : #endif
; 1740 :     return (PMC_STATUS_OK);

	xor	eax, eax
$LN1@PMC_DivRem:

; 1741 : }

	mov	rdi, rax
	lea	rcx, QWORD PTR [rbp-64]
	lea	rdx, OFFSET FLAT:PMC_DivRem_X_X$rtcFrameData
	call	_RTC_CheckStackVars
	mov	rax, rdi
	lea	rsp, QWORD PTR [rbp+984]
	pop	rdi
	pop	rbp
	ret	0
PMC_DivRem_X_X ENDP
_TEXT	ENDS
; Function compile flags: /Odtp /RTCsu /ZI
; File z:\sources\lunor\repos\rougemeilland\palmtree.math.core.implements\palmtree.math.core.implements\pmc_divrem.c
;	COMDAT PMC_DivRem_X_L
_TEXT	SEGMENT
nu$ = 8
result$ = 36
nq$ = 72
u_bit_count$14 = 104
v_hi$15 = 132
v_lo$16 = 164
v_bit_count$17 = 200
q_bit_count$18 = 232
nq_light_check_code$19 = 264
r_buf$20 = 292
v_bit_count$21 = 328
r_lo$22 = 360
r_hi$23 = 392
q_bit_count$24 = 424
r_bit_count$25 = 456
nq_light_check_code$26 = 488
v_buf$27 = 520
work_v_buf$28 = 552
r_buf_code$29 = 584
r_buf_words$30 = 616
r_buf$31 = 648
u_bit_count$32 = 680
v_bit_count$33 = 712
q_bit_count$34 = 744
nq_light_check_code$35 = 776
r_buf$36 = 804
tv174 = 1208
u$ = 1248
v$ = 1256
q$ = 1264
r$ = 1272
PMC_DivRem_X_L PROC					; COMDAT

; 1406 : {

$LN40:
	mov	QWORD PTR [rsp+32], r9
	mov	QWORD PTR [rsp+24], r8
	mov	QWORD PTR [rsp+16], rdx
	mov	QWORD PTR [rsp+8], rcx
	push	rbp
	push	rdi
	sub	rsp, 1288				; 00000508H
	lea	rbp, QWORD PTR [rsp+64]
	mov	rdi, rsp
	mov	ecx, 322				; 00000142H
	mov	eax, -858993460				; ccccccccH
	rep stosd
	mov	rcx, QWORD PTR [rsp+1320]
	lea	rcx, OFFSET FLAT:__62F961D6_pmc_divrem@c
	call	__CheckForDebuggerJustMyCode

; 1407 :     if (sizeof(__UNIT_TYPE_DIV) * 2 < sizeof(v))

	xor	eax, eax
	test	eax, eax
	je	SHORT $LN2@PMC_DivRem

; 1408 :     {
; 1409 :         // _UINT64_T が 2 ワードで表現しきれない処理系には対応しない
; 1410 :         return (PMC_STATUS_INTERNAL_ERROR);

	mov	eax, -256				; ffffffffffffff00H
	jmp	$LN1@PMC_DivRem
$LN2@PMC_DivRem:

; 1411 :     }
; 1412 :     if (u == NULL)

	cmp	QWORD PTR u$[rbp], 0
	jne	SHORT $LN3@PMC_DivRem

; 1413 :         return (PMC_STATUS_ARGUMENT_ERROR);

	mov	eax, -1
	jmp	$LN1@PMC_DivRem
$LN3@PMC_DivRem:

; 1414 :     if (q == NULL)

	cmp	QWORD PTR q$[rbp], 0
	jne	SHORT $LN4@PMC_DivRem

; 1415 :         return (PMC_STATUS_ARGUMENT_ERROR);

	mov	eax, -1
	jmp	$LN1@PMC_DivRem
$LN4@PMC_DivRem:

; 1416 :     if (r == NULL)

	cmp	QWORD PTR r$[rbp], 0
	jne	SHORT $LN5@PMC_DivRem

; 1417 :         return (PMC_STATUS_ARGUMENT_ERROR);

	mov	eax, -1
	jmp	$LN1@PMC_DivRem
$LN5@PMC_DivRem:

; 1418 :     NUMBER_HEADER* nu = (NUMBER_HEADER*)u;

	mov	rax, QWORD PTR u$[rbp]
	mov	QWORD PTR nu$[rbp], rax

; 1419 :     PMC_STATUS_CODE result;
; 1420 :     if ((result = CheckNumber(nu)) != PMC_STATUS_OK)

	mov	rcx, QWORD PTR nu$[rbp]
	call	CheckNumber
	mov	DWORD PTR result$[rbp], eax
	cmp	DWORD PTR result$[rbp], 0
	je	SHORT $LN6@PMC_DivRem

; 1421 :         return (result);

	mov	eax, DWORD PTR result$[rbp]
	jmp	$LN1@PMC_DivRem
$LN6@PMC_DivRem:

; 1422 :     if (v == 0)

	cmp	QWORD PTR v$[rbp], 0
	jne	SHORT $LN7@PMC_DivRem

; 1423 :     {
; 1424 :         // v が 0 である場合
; 1425 : 
; 1426 :         // 0 による除算はエラーで返す
; 1427 :         return (PMC_STATUS_DIVISION_BY_ZERO);

	mov	eax, -3
	jmp	$LN1@PMC_DivRem
$LN7@PMC_DivRem:

; 1428 :     }
; 1429 :     NUMBER_HEADER* nq;
; 1430 :     if (nu->IS_ZERO)

	mov	rax, QWORD PTR nu$[rbp]
	mov	eax, DWORD PTR [rax+40]
	shr	eax, 1
	and	eax, 1
	test	eax, eax
	je	SHORT $LN8@PMC_DivRem

; 1431 :     {
; 1432 :         // x が 0 である場合
; 1433 : 
; 1434 :         // q = 0, r = 0 を返す
; 1435 :         nq = &number_zero;

	lea	rax, OFFSET FLAT:number_zero
	mov	QWORD PTR nq$[rbp], rax

; 1436 :         *r = 0;

	mov	rax, QWORD PTR r$[rbp]
	mov	QWORD PTR [rax], 0

; 1437 :     }

	jmp	$LN9@PMC_DivRem
$LN8@PMC_DivRem:

; 1438 :     else
; 1439 :     {
; 1440 :         // u が 0 ではない場合
; 1441 : 
; 1442 :         if (v == 1)

	cmp	QWORD PTR v$[rbp], 1
	jne	SHORT $LN10@PMC_DivRem

; 1443 :         {
; 1444 :             // v が 1 である場合
; 1445 : 
; 1446 :             // q = u, r = 0 を返す
; 1447 :             if ((result = DuplicateNumber(nu, &nq)) != PMC_STATUS_OK)

	lea	rdx, QWORD PTR nq$[rbp]
	mov	rcx, QWORD PTR nu$[rbp]
	call	DuplicateNumber
	mov	DWORD PTR result$[rbp], eax
	cmp	DWORD PTR result$[rbp], 0
	je	SHORT $LN12@PMC_DivRem

; 1448 :                 return (result);

	mov	eax, DWORD PTR result$[rbp]
	jmp	$LN1@PMC_DivRem
$LN12@PMC_DivRem:

; 1449 :             *r = 0;

	mov	rax, QWORD PTR r$[rbp]
	mov	QWORD PTR [rax], 0

; 1450 :         }

	jmp	$LN11@PMC_DivRem
$LN10@PMC_DivRem:

; 1451 :         else
; 1452 :         {
; 1453 :             // u > 0 かつ v > 1 である場合
; 1454 : 
; 1455 :             // u と v の商・剰余を計算する
; 1456 :             __UNIT_TYPE u_bit_count = nu->UNIT_BIT_COUNT;

	mov	rax, QWORD PTR nu$[rbp]
	mov	rax, QWORD PTR [rax+16]
	mov	QWORD PTR u_bit_count$14[rbp], rax

; 1457 :             if (sizeof(__UNIT_TYPE_DIV) < sizeof(v))

	xor	eax, eax
	cmp	eax, 1
	je	$LN13@PMC_DivRem

; 1458 :             {
; 1459 :                 // _UINT64_T が 1 ワードで表現しきれない場合
; 1460 :                 _UINT32_T v_hi;
; 1461 :                 _UINT32_T v_lo = _FROMDWORDTOWORD(v, &v_hi);

	lea	rdx, QWORD PTR v_hi$15[rbp]
	mov	rcx, QWORD PTR v$[rbp]
	call	_FROMDWORDTOWORD
	mov	DWORD PTR v_lo$16[rbp], eax

; 1462 :                 if (v_hi == 0)

	cmp	DWORD PTR v_hi$15[rbp], 0
	jne	$LN15@PMC_DivRem

; 1463 :                 {
; 1464 :                     // v の値が 32bit で表現可能な場合
; 1465 :                     __UNIT_TYPE v_bit_count = sizeof(v_lo) * 8 - _LZCNT_ALT_32(v_lo);

	mov	ecx, DWORD PTR v_lo$16[rbp]
	call	_LZCNT_ALT_32
	cdqe
	mov	ecx, 32					; 00000020H
	sub	rcx, rax
	mov	rax, rcx
	mov	QWORD PTR v_bit_count$17[rbp], rax

; 1466 :                     if (u_bit_count < v_bit_count)

	mov	rax, QWORD PTR v_bit_count$17[rbp]
	cmp	QWORD PTR u_bit_count$14[rbp], rax
	jae	SHORT $LN17@PMC_DivRem

; 1467 :                     {
; 1468 :                         // 明らかに u < v である場合
; 1469 : 
; 1470 :                         // q = 0, r = u を返す。
; 1471 :                         nq = &number_zero;

	lea	rax, OFFSET FLAT:number_zero
	mov	QWORD PTR nq$[rbp], rax

; 1472 :                         *r = nu->BLOCK[0];

	mov	eax, 8
	imul	rax, rax, 0
	mov	rcx, QWORD PTR nu$[rbp]
	mov	rcx, QWORD PTR [rcx+56]
	mov	rdx, QWORD PTR r$[rbp]
	mov	rax, QWORD PTR [rax+rcx]
	mov	QWORD PTR [rdx], rax

; 1473 :                     }

	jmp	$LN18@PMC_DivRem
$LN17@PMC_DivRem:

; 1474 :                     else
; 1475 :                     {
; 1476 :                         __UNIT_TYPE q_bit_count = u_bit_count - v_bit_count + 1 + __UNIT_TYPE_BIT_COUNT; // 演算結果を格納するためには u_bit_count - v_bit_count + 1 だけあれば十分であるが、除算の作業用バッファも兼ねているので余分にとっている。

	mov	rax, QWORD PTR v_bit_count$17[rbp]
	mov	rcx, QWORD PTR u_bit_count$14[rbp]
	sub	rcx, rax
	mov	rax, rcx
	add	rax, 65					; 00000041H
	mov	QWORD PTR q_bit_count$18[rbp], rax

; 1477 :                         __UNIT_TYPE nq_light_check_code;
; 1478 :                         if ((result = AllocateNumber(&nq, q_bit_count, &nq_light_check_code)) != PMC_STATUS_OK)

	lea	r8, QWORD PTR nq_light_check_code$19[rbp]
	mov	rdx, QWORD PTR q_bit_count$18[rbp]
	lea	rcx, QWORD PTR nq$[rbp]
	call	AllocateNumber
	mov	DWORD PTR result$[rbp], eax
	cmp	DWORD PTR result$[rbp], 0
	je	SHORT $LN19@PMC_DivRem

; 1479 :                             return (result);

	mov	eax, DWORD PTR result$[rbp]
	jmp	$LN1@PMC_DivRem
$LN19@PMC_DivRem:

; 1480 :                         __UNIT_TYPE_DIV r_buf = 0;

	mov	DWORD PTR r_buf$20[rbp], 0

; 1481 :                         DivRem_X_1W((__UNIT_TYPE_DIV*)nu->BLOCK, nu->UNIT_WORD_COUNT * sizeof(__UNIT_TYPE) / sizeof(__UNIT_TYPE_DIV), v_lo, (__UNIT_TYPE_DIV*)nq->BLOCK, &r_buf);

	mov	rax, QWORD PTR nu$[rbp]
	mov	rax, QWORD PTR [rax+8]
	shl	rax, 3
	xor	edx, edx
	mov	ecx, 4
	div	rcx
	lea	rcx, QWORD PTR r_buf$20[rbp]
	mov	QWORD PTR [rsp+32], rcx
	mov	rcx, QWORD PTR nq$[rbp]
	mov	r9, QWORD PTR [rcx+56]
	mov	r8d, DWORD PTR v_lo$16[rbp]
	mov	rdx, rax
	mov	rax, QWORD PTR nu$[rbp]
	mov	rcx, QWORD PTR [rax+56]
	call	DivRem_X_1W

; 1482 :                         if ((result = CheckBlockLight(nq->BLOCK, nq_light_check_code)) != PMC_STATUS_OK)

	mov	rdx, QWORD PTR nq_light_check_code$19[rbp]
	mov	rax, QWORD PTR nq$[rbp]
	mov	rcx, QWORD PTR [rax+56]
	call	CheckBlockLight
	mov	DWORD PTR result$[rbp], eax
	cmp	DWORD PTR result$[rbp], 0
	je	SHORT $LN20@PMC_DivRem

; 1483 :                             return (result);

	mov	eax, DWORD PTR result$[rbp]
	jmp	$LN1@PMC_DivRem
$LN20@PMC_DivRem:

; 1484 :                         CommitNumber(nq);

	mov	rcx, QWORD PTR nq$[rbp]
	call	CommitNumber

; 1485 :                         *r = r_buf;

	mov	eax, DWORD PTR r_buf$20[rbp]
	mov	rcx, QWORD PTR r$[rbp]
	mov	QWORD PTR [rcx], rax

; 1486 :                         if (nq->IS_ZERO)

	mov	rax, QWORD PTR nq$[rbp]
	mov	eax, DWORD PTR [rax+40]
	shr	eax, 1
	and	eax, 1
	test	eax, eax
	je	SHORT $LN21@PMC_DivRem

; 1487 :                         {
; 1488 :                             DeallocateNumber(nq);

	mov	rcx, QWORD PTR nq$[rbp]
	call	DeallocateNumber

; 1489 :                             nq = &number_zero;

	lea	rax, OFFSET FLAT:number_zero
	mov	QWORD PTR nq$[rbp], rax
$LN21@PMC_DivRem:
$LN18@PMC_DivRem:

; 1490 :                         }
; 1491 :                     }
; 1492 :                 }

	jmp	$LN16@PMC_DivRem
$LN15@PMC_DivRem:

; 1493 :                 else
; 1494 :                 {
; 1495 :                     // v の値が 32bit では表現できない場合
; 1496 :                     __UNIT_TYPE v_bit_count = sizeof(v) * 8 - _LZCNT_ALT_32(v_hi);

	mov	ecx, DWORD PTR v_hi$15[rbp]
	call	_LZCNT_ALT_32
	cdqe
	mov	ecx, 64					; 00000040H
	sub	rcx, rax
	mov	rax, rcx
	mov	QWORD PTR v_bit_count$21[rbp], rax

; 1497 :                     if (u_bit_count < v_bit_count)

	mov	rax, QWORD PTR v_bit_count$21[rbp]
	cmp	QWORD PTR u_bit_count$14[rbp], rax
	jae	$LN22@PMC_DivRem

; 1498 :                     {
; 1499 :                         // 明らかに u < v である場合
; 1500 : 
; 1501 :                         // q = 0, r = u を返す。
; 1502 :                         nq = &number_zero;

	lea	rax, OFFSET FLAT:number_zero
	mov	QWORD PTR nq$[rbp], rax

; 1503 :                         if (sizeof(v) == sizeof(__UNIT_TYPE))

	xor	eax, eax
	cmp	eax, 1
	je	SHORT $LN24@PMC_DivRem

; 1504 :                             *r = nu->BLOCK[0];

	mov	eax, 8
	imul	rax, rax, 0
	mov	rcx, QWORD PTR nu$[rbp]
	mov	rcx, QWORD PTR [rcx+56]
	mov	rdx, QWORD PTR r$[rbp]
	mov	rax, QWORD PTR [rax+rcx]
	mov	QWORD PTR [rdx], rax
	jmp	SHORT $LN25@PMC_DivRem
$LN24@PMC_DivRem:

; 1505 :                         else
; 1506 :                         {
; 1507 :                             __UNIT_TYPE r_lo = nu->BLOCK[0];

	mov	eax, 8
	imul	rax, rax, 0
	mov	rcx, QWORD PTR nu$[rbp]
	mov	rcx, QWORD PTR [rcx+56]
	mov	rax, QWORD PTR [rax+rcx]
	mov	QWORD PTR r_lo$22[rbp], rax

; 1508 :                             __UNIT_TYPE r_hi = nu->UNIT_WORD_COUNT > 1 ? nu->BLOCK[1] : 0;

	mov	rax, QWORD PTR nu$[rbp]
	cmp	QWORD PTR [rax+8], 1
	jbe	SHORT $LN38@PMC_DivRem
	mov	eax, 8
	imul	rax, rax, 1
	mov	rcx, QWORD PTR nu$[rbp]
	mov	rcx, QWORD PTR [rcx+56]
	mov	rax, QWORD PTR [rax+rcx]
	mov	QWORD PTR tv174[rbp], rax
	jmp	SHORT $LN39@PMC_DivRem
$LN38@PMC_DivRem:
	mov	QWORD PTR tv174[rbp], 0
$LN39@PMC_DivRem:
	mov	rax, QWORD PTR tv174[rbp]
	mov	QWORD PTR r_hi$23[rbp], rax

; 1509 :                             *r = _FROMWORDTODWORD((_UINT32_T)r_hi, (_UINT32_T)r_lo);

	mov	edx, DWORD PTR r_lo$22[rbp]
	mov	ecx, DWORD PTR r_hi$23[rbp]
	call	_FROMWORDTODWORD
	mov	rcx, QWORD PTR r$[rbp]
	mov	QWORD PTR [rcx], rax
$LN25@PMC_DivRem:

; 1510 :                         }
; 1511 :                     }

	jmp	$LN23@PMC_DivRem
$LN22@PMC_DivRem:

; 1512 :                     else
; 1513 :                     {
; 1514 :                         __UNIT_TYPE q_bit_count = u_bit_count - v_bit_count + 1 + __UNIT_TYPE_BIT_COUNT; // 演算結果を格納するためには u_bit_count - v_bit_count + 1 だけあれば十分であるが、除算の作業用バッファも兼ねているので余分にとっている。

	mov	rax, QWORD PTR v_bit_count$21[rbp]
	mov	rcx, QWORD PTR u_bit_count$14[rbp]
	sub	rcx, rax
	mov	rax, rcx
	add	rax, 65					; 00000041H
	mov	QWORD PTR q_bit_count$24[rbp], rax

; 1515 :                         __UNIT_TYPE r_bit_count = u_bit_count + __UNIT_TYPE_BIT_COUNT; // 演算結果を格納するためには v_bit_count だけあれば十分であるが、除算の作業用バッファも兼ねているので余分にとっている。

	mov	rax, QWORD PTR u_bit_count$14[rbp]
	add	rax, 64					; 00000040H
	mov	QWORD PTR r_bit_count$25[rbp], rax

; 1516 :                         __UNIT_TYPE nq_light_check_code;
; 1517 :                         if ((result = AllocateNumber(&nq, q_bit_count, &nq_light_check_code)) != PMC_STATUS_OK)

	lea	r8, QWORD PTR nq_light_check_code$26[rbp]
	mov	rdx, QWORD PTR q_bit_count$24[rbp]
	lea	rcx, QWORD PTR nq$[rbp]
	call	AllocateNumber
	mov	DWORD PTR result$[rbp], eax
	cmp	DWORD PTR result$[rbp], 0
	je	SHORT $LN26@PMC_DivRem

; 1518 :                             return (result);

	mov	eax, DWORD PTR result$[rbp]
	jmp	$LN1@PMC_DivRem
$LN26@PMC_DivRem:

; 1519 :                         __UNIT_TYPE_DIV v_buf[] = { v_lo, v_hi };

	mov	eax, DWORD PTR v_lo$16[rbp]
	mov	DWORD PTR v_buf$27[rbp], eax
	mov	eax, DWORD PTR v_hi$15[rbp]
	mov	DWORD PTR v_buf$27[rbp+4], eax

; 1520 :                         __UNIT_TYPE_DIV work_v_buf[] = { 0, 0 };

	mov	DWORD PTR work_v_buf$28[rbp], 0
	mov	DWORD PTR work_v_buf$28[rbp+4], 0

; 1521 :                         __UNIT_TYPE r_buf_code;
; 1522 :                         __UNIT_TYPE r_buf_words;
; 1523 :                         __UNIT_TYPE_DIV* r_buf = (__UNIT_TYPE_DIV*)AllocateBlock(r_bit_count, &r_buf_words, &r_buf_code);

	lea	r8, QWORD PTR r_buf_code$29[rbp]
	lea	rdx, QWORD PTR r_buf_words$30[rbp]
	mov	rcx, QWORD PTR r_bit_count$25[rbp]
	call	AllocateBlock
	mov	QWORD PTR r_buf$31[rbp], rax

; 1524 :                         if (r_buf == NULL)

	cmp	QWORD PTR r_buf$31[rbp], 0
	jne	SHORT $LN27@PMC_DivRem

; 1525 :                         {
; 1526 :                             DeallocateNumber(nq);

	mov	rcx, QWORD PTR nq$[rbp]
	call	DeallocateNumber

; 1527 :                             return (PMC_STATUS_NOT_ENOUGH_MEMORY);

	mov	eax, -5
	jmp	$LN1@PMC_DivRem
$LN27@PMC_DivRem:

; 1528 :                         }
; 1529 :                         (*fp_DivRem_X_X)((__UNIT_TYPE_DIV*)nu->BLOCK, nu->UNIT_WORD_COUNT * sizeof(__UNIT_TYPE) / sizeof(__UNIT_TYPE_DIV), v_buf, sizeof(v_buf) / sizeof(v_buf[0]), work_v_buf, (__UNIT_TYPE_DIV*)nq->BLOCK, r_buf);

	mov	rax, QWORD PTR nu$[rbp]
	mov	rax, QWORD PTR [rax+8]
	shl	rax, 3
	xor	edx, edx
	mov	ecx, 4
	div	rcx
	mov	rcx, QWORD PTR r_buf$31[rbp]
	mov	QWORD PTR [rsp+48], rcx
	mov	rcx, QWORD PTR nq$[rbp]
	mov	rcx, QWORD PTR [rcx+56]
	mov	QWORD PTR [rsp+40], rcx
	lea	rcx, QWORD PTR work_v_buf$28[rbp]
	mov	QWORD PTR [rsp+32], rcx
	mov	r9d, 2
	lea	r8, QWORD PTR v_buf$27[rbp]
	mov	rdx, rax
	mov	rax, QWORD PTR nu$[rbp]
	mov	rcx, QWORD PTR [rax+56]
	call	QWORD PTR fp_DivRem_X_X

; 1530 :                         if ((result = CheckBlockLight(nq->BLOCK, nq_light_check_code)) != PMC_STATUS_OK)

	mov	rdx, QWORD PTR nq_light_check_code$26[rbp]
	mov	rax, QWORD PTR nq$[rbp]
	mov	rcx, QWORD PTR [rax+56]
	call	CheckBlockLight
	mov	DWORD PTR result$[rbp], eax
	cmp	DWORD PTR result$[rbp], 0
	je	SHORT $LN28@PMC_DivRem

; 1531 :                             return (result);

	mov	eax, DWORD PTR result$[rbp]
	jmp	$LN1@PMC_DivRem
$LN28@PMC_DivRem:

; 1532 :                         if ((result = CheckBlockLight((__UNIT_TYPE*)r_buf, r_buf_code)) != PMC_STATUS_OK)

	mov	rdx, QWORD PTR r_buf_code$29[rbp]
	mov	rcx, QWORD PTR r_buf$31[rbp]
	call	CheckBlockLight
	mov	DWORD PTR result$[rbp], eax
	cmp	DWORD PTR result$[rbp], 0
	je	SHORT $LN29@PMC_DivRem

; 1533 :                             return (result);

	mov	eax, DWORD PTR result$[rbp]
	jmp	$LN1@PMC_DivRem
$LN29@PMC_DivRem:

; 1534 :                         CommitNumber(nq);

	mov	rcx, QWORD PTR nq$[rbp]
	call	CommitNumber

; 1535 :                         *r = _FROMWORDTODWORD((_UINT32_T)r_buf[1], (_UINT32_T)r_buf[0]);

	mov	eax, 4
	imul	rax, rax, 0
	mov	ecx, 4
	imul	rcx, rcx, 1
	mov	rdx, QWORD PTR r_buf$31[rbp]
	mov	edx, DWORD PTR [rdx+rax]
	mov	rax, QWORD PTR r_buf$31[rbp]
	mov	ecx, DWORD PTR [rax+rcx]
	call	_FROMWORDTODWORD
	mov	rcx, QWORD PTR r$[rbp]
	mov	QWORD PTR [rcx], rax

; 1536 :                         DeallocateBlock((__UNIT_TYPE*)r_buf, r_buf_words);

	mov	rdx, QWORD PTR r_buf_words$30[rbp]
	mov	rcx, QWORD PTR r_buf$31[rbp]
	call	DeallocateBlock

; 1537 :                         if (nq->IS_ZERO)

	mov	rax, QWORD PTR nq$[rbp]
	mov	eax, DWORD PTR [rax+40]
	shr	eax, 1
	and	eax, 1
	test	eax, eax
	je	SHORT $LN30@PMC_DivRem

; 1538 :                         {
; 1539 :                             DeallocateNumber(nq);

	mov	rcx, QWORD PTR nq$[rbp]
	call	DeallocateNumber

; 1540 :                             nq = &number_zero;

	lea	rax, OFFSET FLAT:number_zero
	mov	QWORD PTR nq$[rbp], rax
$LN30@PMC_DivRem:
$LN23@PMC_DivRem:
$LN16@PMC_DivRem:

; 1541 :                         }
; 1542 :                     }
; 1543 :                 }
; 1544 :             }

	jmp	$LN14@PMC_DivRem
$LN13@PMC_DivRem:

; 1545 :             else
; 1546 :             {
; 1547 :                 // _UINT64_T が 1 ワードで表現できる場合
; 1548 : 
; 1549 :                 // x と y の商・剰余を計算する
; 1550 :                 __UNIT_TYPE u_bit_count = nu->UNIT_BIT_COUNT;

	mov	rax, QWORD PTR nu$[rbp]
	mov	rax, QWORD PTR [rax+16]
	mov	QWORD PTR u_bit_count$32[rbp], rax

; 1551 :                 __UNIT_TYPE v_bit_count = sizeof(v) * 8 - _LZCNT_ALT_UNIT((__UNIT_TYPE)v);

	mov	rcx, QWORD PTR v$[rbp]
	call	_LZCNT_ALT_UNIT
	cdqe
	mov	ecx, 64					; 00000040H
	sub	rcx, rax
	mov	rax, rcx
	mov	QWORD PTR v_bit_count$33[rbp], rax

; 1552 :                 if (u_bit_count < v_bit_count)

	mov	rax, QWORD PTR v_bit_count$33[rbp]
	cmp	QWORD PTR u_bit_count$32[rbp], rax
	jae	SHORT $LN31@PMC_DivRem

; 1553 :                 {
; 1554 :                     // 明らかに u < v である場合
; 1555 : 
; 1556 :                     // q = 0, r = u を返す。
; 1557 :                     nq = &number_zero;

	lea	rax, OFFSET FLAT:number_zero
	mov	QWORD PTR nq$[rbp], rax

; 1558 :                     *r = nu->BLOCK[0];

	mov	eax, 8
	imul	rax, rax, 0
	mov	rcx, QWORD PTR nu$[rbp]
	mov	rcx, QWORD PTR [rcx+56]
	mov	rdx, QWORD PTR r$[rbp]
	mov	rax, QWORD PTR [rax+rcx]
	mov	QWORD PTR [rdx], rax

; 1559 :                 }

	jmp	$LN32@PMC_DivRem
$LN31@PMC_DivRem:

; 1560 :                 else
; 1561 :                 {
; 1562 :                     __UNIT_TYPE q_bit_count = u_bit_count - v_bit_count + 1 + __UNIT_TYPE_BIT_COUNT; // 演算結果を格納するためには u_bit_count - v_bit_count + 1 だけあれば十分であるが、除算の作業用バッファも兼ねているので余分にとっている。

	mov	rax, QWORD PTR v_bit_count$33[rbp]
	mov	rcx, QWORD PTR u_bit_count$32[rbp]
	sub	rcx, rax
	mov	rax, rcx
	add	rax, 65					; 00000041H
	mov	QWORD PTR q_bit_count$34[rbp], rax

; 1563 :                     __UNIT_TYPE nq_light_check_code;
; 1564 :                     if ((result = AllocateNumber(&nq, q_bit_count, &nq_light_check_code)) != PMC_STATUS_OK)

	lea	r8, QWORD PTR nq_light_check_code$35[rbp]
	mov	rdx, QWORD PTR q_bit_count$34[rbp]
	lea	rcx, QWORD PTR nq$[rbp]
	call	AllocateNumber
	mov	DWORD PTR result$[rbp], eax
	cmp	DWORD PTR result$[rbp], 0
	je	SHORT $LN33@PMC_DivRem

; 1565 :                         return (result);

	mov	eax, DWORD PTR result$[rbp]
	jmp	$LN1@PMC_DivRem
$LN33@PMC_DivRem:

; 1566 :                     __UNIT_TYPE_DIV r_buf = 0;

	mov	DWORD PTR r_buf$36[rbp], 0

; 1567 :                     DivRem_X_1W((__UNIT_TYPE_DIV*)nu->BLOCK, nu->UNIT_WORD_COUNT * sizeof(__UNIT_TYPE) / sizeof(__UNIT_TYPE_DIV), (__UNIT_TYPE_DIV)v, (__UNIT_TYPE_DIV*)nq->BLOCK, &r_buf);

	mov	rax, QWORD PTR nu$[rbp]
	mov	rax, QWORD PTR [rax+8]
	shl	rax, 3
	xor	edx, edx
	mov	ecx, 4
	div	rcx
	lea	rcx, QWORD PTR r_buf$36[rbp]
	mov	QWORD PTR [rsp+32], rcx
	mov	rcx, QWORD PTR nq$[rbp]
	mov	r9, QWORD PTR [rcx+56]
	mov	r8d, DWORD PTR v$[rbp]
	mov	rdx, rax
	mov	rax, QWORD PTR nu$[rbp]
	mov	rcx, QWORD PTR [rax+56]
	call	DivRem_X_1W

; 1568 :                     if ((result = CheckBlockLight(nq->BLOCK, nq_light_check_code)) != PMC_STATUS_OK)

	mov	rdx, QWORD PTR nq_light_check_code$35[rbp]
	mov	rax, QWORD PTR nq$[rbp]
	mov	rcx, QWORD PTR [rax+56]
	call	CheckBlockLight
	mov	DWORD PTR result$[rbp], eax
	cmp	DWORD PTR result$[rbp], 0
	je	SHORT $LN34@PMC_DivRem

; 1569 :                         return (result);

	mov	eax, DWORD PTR result$[rbp]
	jmp	SHORT $LN1@PMC_DivRem
$LN34@PMC_DivRem:

; 1570 :                     CommitNumber(nq);

	mov	rcx, QWORD PTR nq$[rbp]
	call	CommitNumber

; 1571 :                     *r = r_buf;

	mov	eax, DWORD PTR r_buf$36[rbp]
	mov	rcx, QWORD PTR r$[rbp]
	mov	QWORD PTR [rcx], rax

; 1572 :                     if (nq->IS_ZERO)

	mov	rax, QWORD PTR nq$[rbp]
	mov	eax, DWORD PTR [rax+40]
	shr	eax, 1
	and	eax, 1
	test	eax, eax
	je	SHORT $LN35@PMC_DivRem

; 1573 :                     {
; 1574 :                         DeallocateNumber(nq);

	mov	rcx, QWORD PTR nq$[rbp]
	call	DeallocateNumber

; 1575 :                         nq = &number_zero;

	lea	rax, OFFSET FLAT:number_zero
	mov	QWORD PTR nq$[rbp], rax
$LN35@PMC_DivRem:
$LN32@PMC_DivRem:
$LN14@PMC_DivRem:
$LN11@PMC_DivRem:
$LN9@PMC_DivRem:

; 1576 :                     }
; 1577 :                 }
; 1578 :             }
; 1579 : 
; 1580 :         }
; 1581 :     }
; 1582 :     *q = nq;

	mov	rax, QWORD PTR q$[rbp]
	mov	rcx, QWORD PTR nq$[rbp]
	mov	QWORD PTR [rax], rcx

; 1583 : #ifdef _DEBUG
; 1584 :     if ((result = CheckNumber(nq)) != PMC_STATUS_OK)

	mov	rcx, QWORD PTR nq$[rbp]
	call	CheckNumber
	mov	DWORD PTR result$[rbp], eax
	cmp	DWORD PTR result$[rbp], 0
	je	SHORT $LN36@PMC_DivRem

; 1585 :         return (result);

	mov	eax, DWORD PTR result$[rbp]
	jmp	SHORT $LN1@PMC_DivRem
$LN36@PMC_DivRem:

; 1586 : #endif
; 1587 :     return (PMC_STATUS_OK);

	xor	eax, eax
$LN1@PMC_DivRem:

; 1588 : }

	mov	rdi, rax
	lea	rcx, QWORD PTR [rbp-64]
	lea	rdx, OFFSET FLAT:PMC_DivRem_X_L$rtcFrameData
	call	_RTC_CheckStackVars
	mov	rax, rdi
	lea	rsp, QWORD PTR [rbp+1224]
	pop	rdi
	pop	rbp
	ret	0
PMC_DivRem_X_L ENDP
_TEXT	ENDS
; Function compile flags: /Odtp /RTCsu /ZI
; File z:\sources\lunor\repos\rougemeilland\palmtree.math.core.implements\palmtree.math.core.implements\pmc_divrem.c
;	COMDAT PMC_DivRem_X_I
_TEXT	SEGMENT
nu$ = 8
result$ = 36
nq$ = 72
u_bit_count$6 = 104
v_bit_count$7 = 136
q_bit_count$8 = 168
nq_light_check_code$9 = 200
r_buf$10 = 228
u$ = 480
v$ = 488
q$ = 496
r$ = 504
PMC_DivRem_X_I PROC					; COMDAT

; 1151 : {

$LN20:
	mov	QWORD PTR [rsp+32], r9
	mov	QWORD PTR [rsp+24], r8
	mov	DWORD PTR [rsp+16], edx
	mov	QWORD PTR [rsp+8], rcx
	push	rbp
	push	rdi
	sub	rsp, 504				; 000001f8H
	lea	rbp, QWORD PTR [rsp+48]
	mov	rdi, rsp
	mov	ecx, 126				; 0000007eH
	mov	eax, -858993460				; ccccccccH
	rep stosd
	mov	rcx, QWORD PTR [rsp+536]
	lea	rcx, OFFSET FLAT:__62F961D6_pmc_divrem@c
	call	__CheckForDebuggerJustMyCode

; 1152 :     if (sizeof(__UNIT_TYPE_DIV) < sizeof(v))

	xor	eax, eax
	test	eax, eax
	je	SHORT $LN2@PMC_DivRem

; 1153 :     {
; 1154 :         // _UINT32_T が 1 ワードで表現しきれない処理系には対応しない
; 1155 :         return (PMC_STATUS_INTERNAL_ERROR);

	mov	eax, -256				; ffffffffffffff00H
	jmp	$LN1@PMC_DivRem
$LN2@PMC_DivRem:

; 1156 :     }
; 1157 :     if (u == NULL)

	cmp	QWORD PTR u$[rbp], 0
	jne	SHORT $LN3@PMC_DivRem

; 1158 :         return (PMC_STATUS_ARGUMENT_ERROR);

	mov	eax, -1
	jmp	$LN1@PMC_DivRem
$LN3@PMC_DivRem:

; 1159 :     if (q == NULL)

	cmp	QWORD PTR q$[rbp], 0
	jne	SHORT $LN4@PMC_DivRem

; 1160 :         return (PMC_STATUS_ARGUMENT_ERROR);

	mov	eax, -1
	jmp	$LN1@PMC_DivRem
$LN4@PMC_DivRem:

; 1161 :     if (r == NULL)

	cmp	QWORD PTR r$[rbp], 0
	jne	SHORT $LN5@PMC_DivRem

; 1162 :         return (PMC_STATUS_ARGUMENT_ERROR);

	mov	eax, -1
	jmp	$LN1@PMC_DivRem
$LN5@PMC_DivRem:

; 1163 :     NUMBER_HEADER* nu = (NUMBER_HEADER*)u;

	mov	rax, QWORD PTR u$[rbp]
	mov	QWORD PTR nu$[rbp], rax

; 1164 :     PMC_STATUS_CODE result;
; 1165 :     if ((result = CheckNumber(nu)) != PMC_STATUS_OK)

	mov	rcx, QWORD PTR nu$[rbp]
	call	CheckNumber
	mov	DWORD PTR result$[rbp], eax
	cmp	DWORD PTR result$[rbp], 0
	je	SHORT $LN6@PMC_DivRem

; 1166 :         return (result);

	mov	eax, DWORD PTR result$[rbp]
	jmp	$LN1@PMC_DivRem
$LN6@PMC_DivRem:

; 1167 :     if (v == 0)

	cmp	DWORD PTR v$[rbp], 0
	jne	SHORT $LN7@PMC_DivRem

; 1168 :     {
; 1169 :         // v が 0 である場合
; 1170 : 
; 1171 :         // 0 による除算はエラーで返す
; 1172 :         return (PMC_STATUS_DIVISION_BY_ZERO);

	mov	eax, -3
	jmp	$LN1@PMC_DivRem
$LN7@PMC_DivRem:

; 1173 :     }
; 1174 :     NUMBER_HEADER* nq;
; 1175 :     if (nu->IS_ZERO)

	mov	rax, QWORD PTR nu$[rbp]
	mov	eax, DWORD PTR [rax+40]
	shr	eax, 1
	and	eax, 1
	test	eax, eax
	je	SHORT $LN8@PMC_DivRem

; 1176 :     {
; 1177 :         // u が 0 である場合
; 1178 : 
; 1179 :         // q = 0, r = 0 を返す
; 1180 :         nq = &number_zero;

	lea	rax, OFFSET FLAT:number_zero
	mov	QWORD PTR nq$[rbp], rax

; 1181 :         *r = 0;

	mov	rax, QWORD PTR r$[rbp]
	mov	DWORD PTR [rax], 0

; 1182 :     }

	jmp	$LN9@PMC_DivRem
$LN8@PMC_DivRem:

; 1183 :     else
; 1184 :     {
; 1185 :         // u が 0 ではない場合
; 1186 : 
; 1187 :         if (v == 1)

	cmp	DWORD PTR v$[rbp], 1
	jne	SHORT $LN10@PMC_DivRem

; 1188 :         {
; 1189 :             // v が 1 である場合
; 1190 : 
; 1191 :             // q = u, r = 0 を返す
; 1192 :             if ((result = DuplicateNumber(nu, &nq)) != PMC_STATUS_OK)

	lea	rdx, QWORD PTR nq$[rbp]
	mov	rcx, QWORD PTR nu$[rbp]
	call	DuplicateNumber
	mov	DWORD PTR result$[rbp], eax
	cmp	DWORD PTR result$[rbp], 0
	je	SHORT $LN12@PMC_DivRem

; 1193 :                 return (result);

	mov	eax, DWORD PTR result$[rbp]
	jmp	$LN1@PMC_DivRem
$LN12@PMC_DivRem:

; 1194 :             *r = 0;

	mov	rax, QWORD PTR r$[rbp]
	mov	DWORD PTR [rax], 0

; 1195 :         }

	jmp	$LN11@PMC_DivRem
$LN10@PMC_DivRem:

; 1196 :         else
; 1197 :         {
; 1198 :             // u と v がともに 0 ではない場合
; 1199 : 
; 1200 :             // x と y の商・剰余を計算する
; 1201 :             __UNIT_TYPE u_bit_count = nu->UNIT_BIT_COUNT;

	mov	rax, QWORD PTR nu$[rbp]
	mov	rax, QWORD PTR [rax+16]
	mov	QWORD PTR u_bit_count$6[rbp], rax

; 1202 :             __UNIT_TYPE v_bit_count = sizeof(v) * 8 - _LZCNT_ALT_32(v);

	mov	ecx, DWORD PTR v$[rbp]
	call	_LZCNT_ALT_32
	cdqe
	mov	ecx, 32					; 00000020H
	sub	rcx, rax
	mov	rax, rcx
	mov	QWORD PTR v_bit_count$7[rbp], rax

; 1203 :             if (u_bit_count < v_bit_count)

	mov	rax, QWORD PTR v_bit_count$7[rbp]
	cmp	QWORD PTR u_bit_count$6[rbp], rax
	jae	SHORT $LN13@PMC_DivRem

; 1204 :             {
; 1205 :                 // 明らかに u < v である場合
; 1206 : 
; 1207 :                 // q = 0, r = u を返す。
; 1208 :                 nq = &number_zero;

	lea	rax, OFFSET FLAT:number_zero
	mov	QWORD PTR nq$[rbp], rax

; 1209 :                 *r = (_UINT32_T)nu->BLOCK[0];

	mov	eax, 8
	imul	rax, rax, 0
	mov	rcx, QWORD PTR nu$[rbp]
	mov	rcx, QWORD PTR [rcx+56]
	mov	rdx, QWORD PTR r$[rbp]
	mov	eax, DWORD PTR [rax+rcx]
	mov	DWORD PTR [rdx], eax

; 1210 :             }

	jmp	$LN14@PMC_DivRem
$LN13@PMC_DivRem:

; 1211 :             else
; 1212 :             {
; 1213 :                 __UNIT_TYPE q_bit_count = u_bit_count - v_bit_count + 1 + __UNIT_TYPE_BIT_COUNT; // 演算結果を格納するためには u_bit_count - v_bit_count + 1 だけあれば十分であるが、除算の作業用バッファも兼ねているので余分にとっている。

	mov	rax, QWORD PTR v_bit_count$7[rbp]
	mov	rcx, QWORD PTR u_bit_count$6[rbp]
	sub	rcx, rax
	mov	rax, rcx
	add	rax, 65					; 00000041H
	mov	QWORD PTR q_bit_count$8[rbp], rax

; 1214 :                 __UNIT_TYPE nq_light_check_code;
; 1215 :                 if ((result = AllocateNumber(&nq, q_bit_count, &nq_light_check_code)) != PMC_STATUS_OK)

	lea	r8, QWORD PTR nq_light_check_code$9[rbp]
	mov	rdx, QWORD PTR q_bit_count$8[rbp]
	lea	rcx, QWORD PTR nq$[rbp]
	call	AllocateNumber
	mov	DWORD PTR result$[rbp], eax
	cmp	DWORD PTR result$[rbp], 0
	je	SHORT $LN15@PMC_DivRem

; 1216 :                     return (result);

	mov	eax, DWORD PTR result$[rbp]
	jmp	$LN1@PMC_DivRem
$LN15@PMC_DivRem:

; 1217 :                 __UNIT_TYPE_DIV r_buf = 0;

	mov	DWORD PTR r_buf$10[rbp], 0

; 1218 :                 DivRem_X_1W((__UNIT_TYPE_DIV*)nu->BLOCK, nu->UNIT_WORD_COUNT * sizeof(__UNIT_TYPE) / sizeof(__UNIT_TYPE_DIV), v, (__UNIT_TYPE_DIV*)nq->BLOCK, &r_buf);

	mov	rax, QWORD PTR nu$[rbp]
	mov	rax, QWORD PTR [rax+8]
	shl	rax, 3
	xor	edx, edx
	mov	ecx, 4
	div	rcx
	lea	rcx, QWORD PTR r_buf$10[rbp]
	mov	QWORD PTR [rsp+32], rcx
	mov	rcx, QWORD PTR nq$[rbp]
	mov	r9, QWORD PTR [rcx+56]
	mov	r8d, DWORD PTR v$[rbp]
	mov	rdx, rax
	mov	rax, QWORD PTR nu$[rbp]
	mov	rcx, QWORD PTR [rax+56]
	call	DivRem_X_1W

; 1219 :                 if ((result = CheckBlockLight(nq->BLOCK, nq_light_check_code)) != PMC_STATUS_OK)

	mov	rdx, QWORD PTR nq_light_check_code$9[rbp]
	mov	rax, QWORD PTR nq$[rbp]
	mov	rcx, QWORD PTR [rax+56]
	call	CheckBlockLight
	mov	DWORD PTR result$[rbp], eax
	cmp	DWORD PTR result$[rbp], 0
	je	SHORT $LN16@PMC_DivRem

; 1220 :                     return (result);

	mov	eax, DWORD PTR result$[rbp]
	jmp	SHORT $LN1@PMC_DivRem
$LN16@PMC_DivRem:

; 1221 :                 CommitNumber(nq);

	mov	rcx, QWORD PTR nq$[rbp]
	call	CommitNumber

; 1222 :                 *r = (_UINT32_T)r_buf;

	mov	rax, QWORD PTR r$[rbp]
	mov	ecx, DWORD PTR r_buf$10[rbp]
	mov	DWORD PTR [rax], ecx

; 1223 :                 if (nq->IS_ZERO)

	mov	rax, QWORD PTR nq$[rbp]
	mov	eax, DWORD PTR [rax+40]
	shr	eax, 1
	and	eax, 1
	test	eax, eax
	je	SHORT $LN17@PMC_DivRem

; 1224 :                 {
; 1225 :                     DeallocateNumber(nq);

	mov	rcx, QWORD PTR nq$[rbp]
	call	DeallocateNumber

; 1226 :                     nq = &number_zero;

	lea	rax, OFFSET FLAT:number_zero
	mov	QWORD PTR nq$[rbp], rax
$LN17@PMC_DivRem:
$LN14@PMC_DivRem:
$LN11@PMC_DivRem:
$LN9@PMC_DivRem:

; 1227 :                 }
; 1228 :             }
; 1229 :         }
; 1230 :     }
; 1231 :     *q = nq;

	mov	rax, QWORD PTR q$[rbp]
	mov	rcx, QWORD PTR nq$[rbp]
	mov	QWORD PTR [rax], rcx

; 1232 : #ifdef _DEBUG
; 1233 :     if ((result = CheckNumber(nq)) != PMC_STATUS_OK)

	mov	rcx, QWORD PTR nq$[rbp]
	call	CheckNumber
	mov	DWORD PTR result$[rbp], eax
	cmp	DWORD PTR result$[rbp], 0
	je	SHORT $LN18@PMC_DivRem

; 1234 :         return (result);

	mov	eax, DWORD PTR result$[rbp]
	jmp	SHORT $LN1@PMC_DivRem
$LN18@PMC_DivRem:

; 1235 : #endif
; 1236 :     return (PMC_STATUS_OK);

	xor	eax, eax
$LN1@PMC_DivRem:

; 1237 : }

	mov	rdi, rax
	lea	rcx, QWORD PTR [rbp-48]
	lea	rdx, OFFSET FLAT:PMC_DivRem_X_I$rtcFrameData
	call	_RTC_CheckStackVars
	mov	rax, rdi
	lea	rsp, QWORD PTR [rbp+456]
	pop	rdi
	pop	rbp
	ret	0
PMC_DivRem_X_I ENDP
_TEXT	ENDS
; Function compile flags: /Odtp /RTCsu /ZI
; File z:\sources\lunor\repos\rougemeilland\palmtree.math.core.implements\palmtree.math.core.implements\pmc_divrem.c
;	COMDAT PMC_DivRem_L_X
_TEXT	SEGMENT
nv$ = 8
result$ = 36
u_hi$13 = 68
u_lo$14 = 100
u_bit_count$15 = 136
v_bit_count$16 = 168
temp_r$17 = 196
u_bit_count$18 = 232
v_bit_count$19 = 264
u_buf$20 = 296
q_buf$21 = 328
r_buf$22 = 372
u_buf$23 = 408
q_buf$24 = 440
r_buf$25 = 488
work_v_buf$26 = 536
u_bit_count$27 = 568
v_bit_count$28 = 600
temp_r$29 = 628
__$ArrayPad$ = 1032
u$ = 1072
v$ = 1080
q$ = 1088
r$ = 1096
PMC_DivRem_L_X PROC					; COMDAT

; 1240 : {

$LN29:
	mov	QWORD PTR [rsp+32], r9
	mov	QWORD PTR [rsp+24], r8
	mov	QWORD PTR [rsp+16], rdx
	mov	QWORD PTR [rsp+8], rcx
	push	rbp
	push	rdi
	sub	rsp, 1112				; 00000458H
	lea	rbp, QWORD PTR [rsp+64]
	mov	rdi, rsp
	mov	ecx, 278				; 00000116H
	mov	eax, -858993460				; ccccccccH
	rep stosd
	mov	rcx, QWORD PTR [rsp+1144]
	mov	rax, QWORD PTR __security_cookie
	xor	rax, rbp
	mov	QWORD PTR __$ArrayPad$[rbp], rax
	lea	rcx, OFFSET FLAT:__62F961D6_pmc_divrem@c
	call	__CheckForDebuggerJustMyCode

; 1241 :     if (sizeof(__UNIT_TYPE_DIV) * 2 < sizeof(u))

	xor	eax, eax
	test	eax, eax
	je	SHORT $LN2@PMC_DivRem

; 1242 :     {
; 1243 :         // _UINT64_T が 2 ワードで表現しきれない処理系には対応しない
; 1244 :         return (PMC_STATUS_INTERNAL_ERROR);

	mov	eax, -256				; ffffffffffffff00H
	jmp	$LN1@PMC_DivRem
$LN2@PMC_DivRem:

; 1245 :     }
; 1246 :     if (v == NULL)

	cmp	QWORD PTR v$[rbp], 0
	jne	SHORT $LN3@PMC_DivRem

; 1247 :         return (PMC_STATUS_ARGUMENT_ERROR);

	mov	eax, -1
	jmp	$LN1@PMC_DivRem
$LN3@PMC_DivRem:

; 1248 :     if (q == NULL)

	cmp	QWORD PTR q$[rbp], 0
	jne	SHORT $LN4@PMC_DivRem

; 1249 :         return (PMC_STATUS_ARGUMENT_ERROR);

	mov	eax, -1
	jmp	$LN1@PMC_DivRem
$LN4@PMC_DivRem:

; 1250 :     if (r == NULL)

	cmp	QWORD PTR r$[rbp], 0
	jne	SHORT $LN5@PMC_DivRem

; 1251 :         return (PMC_STATUS_ARGUMENT_ERROR);

	mov	eax, -1
	jmp	$LN1@PMC_DivRem
$LN5@PMC_DivRem:

; 1252 :     NUMBER_HEADER* nv = (NUMBER_HEADER*)v;

	mov	rax, QWORD PTR v$[rbp]
	mov	QWORD PTR nv$[rbp], rax

; 1253 :     PMC_STATUS_CODE result;
; 1254 :     if ((result = CheckNumber(nv)) != PMC_STATUS_OK)

	mov	rcx, QWORD PTR nv$[rbp]
	call	CheckNumber
	mov	DWORD PTR result$[rbp], eax
	cmp	DWORD PTR result$[rbp], 0
	je	SHORT $LN6@PMC_DivRem

; 1255 :         return (result);

	mov	eax, DWORD PTR result$[rbp]
	jmp	$LN1@PMC_DivRem
$LN6@PMC_DivRem:

; 1256 :     if (nv->IS_ZERO)

	mov	rax, QWORD PTR nv$[rbp]
	mov	eax, DWORD PTR [rax+40]
	shr	eax, 1
	and	eax, 1
	test	eax, eax
	je	SHORT $LN7@PMC_DivRem

; 1257 :     {
; 1258 :         // v が 0 である場合
; 1259 : 
; 1260 :         // 0 による除算はエラーで返す
; 1261 :         return (PMC_STATUS_DIVISION_BY_ZERO);

	mov	eax, -3
	jmp	$LN1@PMC_DivRem
$LN7@PMC_DivRem:

; 1262 :     }
; 1263 :     if (u == 0)

	cmp	QWORD PTR u$[rbp], 0
	jne	SHORT $LN8@PMC_DivRem

; 1264 :     {
; 1265 :         // x が 0 である場合
; 1266 : 
; 1267 :         // q = 0, r = 0 を返す
; 1268 :         *q = 0;

	mov	rax, QWORD PTR q$[rbp]
	mov	QWORD PTR [rax], 0

; 1269 :         *r = 0;

	mov	rax, QWORD PTR r$[rbp]
	mov	QWORD PTR [rax], 0

; 1270 :     }

	jmp	$LN9@PMC_DivRem
$LN8@PMC_DivRem:

; 1271 :     else
; 1272 :     {
; 1273 :         // u が 0 ではない場合
; 1274 : 
; 1275 :         if (nv->IS_ONE)

	mov	rax, QWORD PTR nv$[rbp]
	mov	eax, DWORD PTR [rax+40]
	shr	eax, 2
	and	eax, 1
	test	eax, eax
	je	SHORT $LN10@PMC_DivRem

; 1276 :         {
; 1277 :             // v が 1 である場合
; 1278 : 
; 1279 :             // q = u, r = 0 を返す
; 1280 :             *q = u;

	mov	rax, QWORD PTR q$[rbp]
	mov	rcx, QWORD PTR u$[rbp]
	mov	QWORD PTR [rax], rcx

; 1281 :             *r = 0;

	mov	rax, QWORD PTR r$[rbp]
	mov	QWORD PTR [rax], 0

; 1282 :         }

	jmp	$LN11@PMC_DivRem
$LN10@PMC_DivRem:

; 1283 :         else
; 1284 :         {
; 1285 :             // u > 0 かつ v > 1 である場合
; 1286 : 
; 1287 :             // u と v の商・剰余を計算する
; 1288 :             if (sizeof(__UNIT_TYPE_DIV) < sizeof(u))

	xor	eax, eax
	cmp	eax, 1
	je	$LN12@PMC_DivRem

; 1289 :             {
; 1290 :                 // _UINT64_T が 1 ワードで表現しきれない場合
; 1291 :                 _UINT32_T u_hi;
; 1292 :                 _UINT32_T u_lo = _FROMDWORDTOWORD(u, &u_hi);

	lea	rdx, QWORD PTR u_hi$13[rbp]
	mov	rcx, QWORD PTR u$[rbp]
	call	_FROMDWORDTOWORD
	mov	DWORD PTR u_lo$14[rbp], eax

; 1293 :                 if (u_hi == 0)

	cmp	DWORD PTR u_hi$13[rbp], 0
	jne	$LN14@PMC_DivRem

; 1294 :                 {
; 1295 :                     // u の値が 32bit で表現可能な場合
; 1296 :                     __UNIT_TYPE u_bit_count = sizeof(u_lo) * 8 - _LZCNT_ALT_32(u_lo);

	mov	ecx, DWORD PTR u_lo$14[rbp]
	call	_LZCNT_ALT_32
	cdqe
	mov	ecx, 32					; 00000020H
	sub	rcx, rax
	mov	rax, rcx
	mov	QWORD PTR u_bit_count$15[rbp], rax

; 1297 :                     __UNIT_TYPE v_bit_count = nv->UNIT_BIT_COUNT;

	mov	rax, QWORD PTR nv$[rbp]
	mov	rax, QWORD PTR [rax+16]
	mov	QWORD PTR v_bit_count$16[rbp], rax

; 1298 :                     if (u_bit_count < v_bit_count)

	mov	rax, QWORD PTR v_bit_count$16[rbp]
	cmp	QWORD PTR u_bit_count$15[rbp], rax
	jae	SHORT $LN16@PMC_DivRem

; 1299 :                     {
; 1300 :                         // 明らかに u < v である場合
; 1301 : 
; 1302 :                         // q = 0, r = u を返す。
; 1303 :                         *q = 0;

	mov	rax, QWORD PTR q$[rbp]
	mov	QWORD PTR [rax], 0

; 1304 :                         *r = u_lo;

	mov	eax, DWORD PTR u_lo$14[rbp]
	mov	rcx, QWORD PTR r$[rbp]
	mov	QWORD PTR [rcx], rax

; 1305 :                     }

	jmp	SHORT $LN17@PMC_DivRem
$LN16@PMC_DivRem:

; 1306 :                     else
; 1307 :                     {
; 1308 :                         // u のビット数が v のビット数以上である場合
; 1309 : 
; 1310 :                         // u は 32bit で表現できるので、v も 32bit で表現できる。
; 1311 :                         __UNIT_TYPE_DIV temp_r;
; 1312 :                         *q = _DIVREM_UNIT(0, u_lo, (__UNIT_TYPE_DIV)nv->BLOCK[0], &temp_r);

	mov	eax, 8
	imul	rax, rax, 0
	mov	rcx, QWORD PTR nv$[rbp]
	mov	rcx, QWORD PTR [rcx+56]
	lea	r9, QWORD PTR temp_r$17[rbp]
	mov	r8d, DWORD PTR [rcx+rax]
	mov	edx, DWORD PTR u_lo$14[rbp]
	xor	ecx, ecx
	call	_DIVREM_UNIT
	mov	eax, eax
	mov	rcx, QWORD PTR q$[rbp]
	mov	QWORD PTR [rcx], rax

; 1313 :                         *r = temp_r;

	mov	eax, DWORD PTR temp_r$17[rbp]
	mov	rcx, QWORD PTR r$[rbp]
	mov	QWORD PTR [rcx], rax

; 1314 : #ifdef ENABLED_PERFORMANCE_COUNTER
; 1315 :                         if (sizeof(r) == sizeof(_UINT64_T))

	xor	eax, eax
	cmp	eax, 1
	je	SHORT $LN18@PMC_DivRem

; 1316 :                             IncrementDIV64Counter();

	call	IncrementDIV64Counter
	jmp	SHORT $LN19@PMC_DivRem
$LN18@PMC_DivRem:

; 1317 :                         else
; 1318 :                             IncrementDIV32Counter();

	call	IncrementDIV32Counter
$LN19@PMC_DivRem:
$LN17@PMC_DivRem:

; 1319 : #endif
; 1320 :                     }
; 1321 :                 }

	jmp	$LN15@PMC_DivRem
$LN14@PMC_DivRem:

; 1322 :                 else
; 1323 :                 {
; 1324 :                     // v の値が 32bit では表現できない場合
; 1325 :                     __UNIT_TYPE u_bit_count = sizeof(u) * 8 - _LZCNT_ALT_32(u_hi);

	mov	ecx, DWORD PTR u_hi$13[rbp]
	call	_LZCNT_ALT_32
	cdqe
	mov	ecx, 64					; 00000040H
	sub	rcx, rax
	mov	rax, rcx
	mov	QWORD PTR u_bit_count$18[rbp], rax

; 1326 :                     __UNIT_TYPE v_bit_count = nv->UNIT_BIT_COUNT;

	mov	rax, QWORD PTR nv$[rbp]
	mov	rax, QWORD PTR [rax+16]
	mov	QWORD PTR v_bit_count$19[rbp], rax

; 1327 :                     if (u_bit_count < v_bit_count)

	mov	rax, QWORD PTR v_bit_count$19[rbp]
	cmp	QWORD PTR u_bit_count$18[rbp], rax
	jae	SHORT $LN20@PMC_DivRem

; 1328 :                     {
; 1329 :                         // 明らかに u < v である場合
; 1330 : 
; 1331 :                         // q = 0, r = u を返す。
; 1332 :                         *q = 0;

	mov	rax, QWORD PTR q$[rbp]
	mov	QWORD PTR [rax], 0

; 1333 :                         *r = u;

	mov	rax, QWORD PTR r$[rbp]
	mov	rcx, QWORD PTR u$[rbp]
	mov	QWORD PTR [rax], rcx

; 1334 :                     }

	jmp	$LN21@PMC_DivRem
$LN20@PMC_DivRem:

; 1335 :                     else
; 1336 :                     {
; 1337 :                         // u のビット長が 33 以上 64 以下であり、かつ、u のビット長が v のビット長以上(v のビット長は多くとも64以下)である場合
; 1338 : 
; 1339 :                         if (nv->UNIT_BIT_COUNT <= sizeof(__UNIT_TYPE_DIV) * 8)

	mov	rax, QWORD PTR nv$[rbp]
	cmp	QWORD PTR [rax+16], 32			; 00000020H
	ja	$LN22@PMC_DivRem

; 1340 :                         {
; 1341 :                             // v が 32bit で表現できる場合
; 1342 : 
; 1343 :                             __UNIT_TYPE_DIV u_buf[] = { u_lo, u_hi };

	mov	eax, DWORD PTR u_lo$14[rbp]
	mov	DWORD PTR u_buf$20[rbp], eax
	mov	eax, DWORD PTR u_hi$13[rbp]
	mov	DWORD PTR u_buf$20[rbp+4], eax

; 1344 :                             __UNIT_TYPE_DIV q_buf[] = { 0, 0, 0 };

	mov	DWORD PTR q_buf$21[rbp], 0
	mov	DWORD PTR q_buf$21[rbp+4], 0
	mov	DWORD PTR q_buf$21[rbp+8], 0

; 1345 :                             __UNIT_TYPE_DIV r_buf;
; 1346 : 
; 1347 :                             DivRem_X_1W(u_buf, countof(u_buf), (__UNIT_TYPE_DIV)nv->BLOCK[0], q_buf, &r_buf);

	mov	eax, 8
	imul	rax, rax, 0
	mov	rcx, QWORD PTR nv$[rbp]
	mov	rcx, QWORD PTR [rcx+56]
	lea	rdx, QWORD PTR r_buf$22[rbp]
	mov	QWORD PTR [rsp+32], rdx
	lea	r9, QWORD PTR q_buf$21[rbp]
	mov	r8d, DWORD PTR [rcx+rax]
	mov	edx, 2
	lea	rcx, QWORD PTR u_buf$20[rbp]
	call	DivRem_X_1W

; 1348 : 
; 1349 :                             *q = _FROMWORDTODWORD(q_buf[1], q_buf[0]);

	mov	eax, 4
	imul	rax, rax, 0
	mov	ecx, 4
	imul	rcx, rcx, 1
	mov	edx, DWORD PTR q_buf$21[rbp+rax]
	mov	ecx, DWORD PTR q_buf$21[rbp+rcx]
	call	_FROMWORDTODWORD
	mov	rcx, QWORD PTR q$[rbp]
	mov	QWORD PTR [rcx], rax

; 1350 :                             *r = r_buf;

	mov	eax, DWORD PTR r_buf$22[rbp]
	mov	rcx, QWORD PTR r$[rbp]
	mov	QWORD PTR [rcx], rax

; 1351 :                         }

	jmp	$LN23@PMC_DivRem
$LN22@PMC_DivRem:

; 1352 :                         else
; 1353 :                         {
; 1354 :                             // v が 32bit では表現できない場合
; 1355 : 
; 1356 :                             // この場合、2 ワード / 2 ワード の除算となるため、_DIVREM_UNIT 単発では計算できない。
; 1357 :                             __UNIT_TYPE_DIV u_buf[] = { u_lo, u_hi };

	mov	eax, DWORD PTR u_lo$14[rbp]
	mov	DWORD PTR u_buf$23[rbp], eax
	mov	eax, DWORD PTR u_hi$13[rbp]
	mov	DWORD PTR u_buf$23[rbp+4], eax

; 1358 :                             __UNIT_TYPE_DIV q_buf[] = { 0, 0, 0 };// 演算結果を格納するためには u のビット数 - v のビット数 + 1 ビットだけあれば十分であるが、除算の作業用バッファも兼ねているので余分にとっている。

	mov	DWORD PTR q_buf$24[rbp], 0
	mov	DWORD PTR q_buf$24[rbp+4], 0
	mov	DWORD PTR q_buf$24[rbp+8], 0

; 1359 :                             __UNIT_TYPE_DIV r_buf[] = { 0, 0, 0 }; // 演算結果を格納するためには v と同じ大きさだけあれば十分であるが、除算の作業用バッファも兼ねているので余分にとっている。

	mov	DWORD PTR r_buf$25[rbp], 0
	mov	DWORD PTR r_buf$25[rbp+4], 0
	mov	DWORD PTR r_buf$25[rbp+8], 0

; 1360 :                             __UNIT_TYPE_DIV work_v_buf[] = { 0, 0 };

	mov	DWORD PTR work_v_buf$26[rbp], 0
	mov	DWORD PTR work_v_buf$26[rbp+4], 0

; 1361 :                             (*fp_DivRem_X_X)(u_buf, countof(u_buf), (__UNIT_TYPE_DIV*)nv->BLOCK, nv->UNIT_WORD_COUNT * sizeof(__UNIT_TYPE) / sizeof(__UNIT_TYPE_DIV), work_v_buf, q_buf, r_buf);

	mov	rax, QWORD PTR nv$[rbp]
	mov	rax, QWORD PTR [rax+8]
	shl	rax, 3
	xor	edx, edx
	mov	ecx, 4
	div	rcx
	lea	rcx, QWORD PTR r_buf$25[rbp]
	mov	QWORD PTR [rsp+48], rcx
	lea	rcx, QWORD PTR q_buf$24[rbp]
	mov	QWORD PTR [rsp+40], rcx
	lea	rcx, QWORD PTR work_v_buf$26[rbp]
	mov	QWORD PTR [rsp+32], rcx
	mov	r9, rax
	mov	rax, QWORD PTR nv$[rbp]
	mov	r8, QWORD PTR [rax+56]
	mov	edx, 2
	lea	rcx, QWORD PTR u_buf$23[rbp]
	call	QWORD PTR fp_DivRem_X_X

; 1362 :                             *q = _FROMWORDTODWORD((_UINT32_T)q_buf[1], (_UINT32_T)q_buf[0]);

	mov	eax, 4
	imul	rax, rax, 0
	mov	ecx, 4
	imul	rcx, rcx, 1
	mov	edx, DWORD PTR q_buf$24[rbp+rax]
	mov	ecx, DWORD PTR q_buf$24[rbp+rcx]
	call	_FROMWORDTODWORD
	mov	rcx, QWORD PTR q$[rbp]
	mov	QWORD PTR [rcx], rax

; 1363 :                             *r = _FROMWORDTODWORD((_UINT32_T)r_buf[1], (_UINT32_T)r_buf[0]);

	mov	eax, 4
	imul	rax, rax, 0
	mov	ecx, 4
	imul	rcx, rcx, 1
	mov	edx, DWORD PTR r_buf$25[rbp+rax]
	mov	ecx, DWORD PTR r_buf$25[rbp+rcx]
	call	_FROMWORDTODWORD
	mov	rcx, QWORD PTR r$[rbp]
	mov	QWORD PTR [rcx], rax
$LN23@PMC_DivRem:
$LN21@PMC_DivRem:
$LN15@PMC_DivRem:

; 1364 :                         }
; 1365 :                     }
; 1366 :                 }
; 1367 :             }

	jmp	$LN13@PMC_DivRem
$LN12@PMC_DivRem:

; 1368 :             else
; 1369 :             {
; 1370 :                 // _UINT64_T が 1 ワードで表現できる場合
; 1371 : 
; 1372 :                 // x と y の商・剰余を計算する
; 1373 :                 __UNIT_TYPE u_bit_count = sizeof(u) * 8 - _LZCNT_ALT_UNIT((__UNIT_TYPE)u);

	mov	rcx, QWORD PTR u$[rbp]
	call	_LZCNT_ALT_UNIT
	cdqe
	mov	ecx, 64					; 00000040H
	sub	rcx, rax
	mov	rax, rcx
	mov	QWORD PTR u_bit_count$27[rbp], rax

; 1374 :                 __UNIT_TYPE v_bit_count = nv->UNIT_BIT_COUNT;

	mov	rax, QWORD PTR nv$[rbp]
	mov	rax, QWORD PTR [rax+16]
	mov	QWORD PTR v_bit_count$28[rbp], rax

; 1375 :                 if (u_bit_count < v_bit_count)

	mov	rax, QWORD PTR v_bit_count$28[rbp]
	cmp	QWORD PTR u_bit_count$27[rbp], rax
	jae	SHORT $LN24@PMC_DivRem

; 1376 :                 {
; 1377 :                     // 明らかに u < v である場合
; 1378 : 
; 1379 :                     // q = 0, r = u を返す。
; 1380 :                     *q = 0;

	mov	rax, QWORD PTR q$[rbp]
	mov	QWORD PTR [rax], 0

; 1381 :                     *r = u;

	mov	rax, QWORD PTR r$[rbp]
	mov	rcx, QWORD PTR u$[rbp]
	mov	QWORD PTR [rax], rcx

; 1382 :                 }

	jmp	SHORT $LN25@PMC_DivRem
$LN24@PMC_DivRem:

; 1383 :                 else
; 1384 :                 {
; 1385 :                     // u のビット数が v のビット数以上である場合
; 1386 : 
; 1387 :                     // u は 1 ワードで表現できるので、v も 1 ワードで表現できる。
; 1388 :                     __UNIT_TYPE_DIV temp_r;
; 1389 :                     *q = _DIVREM_UNIT(0, (__UNIT_TYPE_DIV)u, (__UNIT_TYPE_DIV)nv->BLOCK[0], &temp_r);

	mov	eax, 8
	imul	rax, rax, 0
	mov	rcx, QWORD PTR nv$[rbp]
	mov	rcx, QWORD PTR [rcx+56]
	lea	r9, QWORD PTR temp_r$29[rbp]
	mov	r8d, DWORD PTR [rcx+rax]
	mov	edx, DWORD PTR u$[rbp]
	xor	ecx, ecx
	call	_DIVREM_UNIT
	mov	eax, eax
	mov	rcx, QWORD PTR q$[rbp]
	mov	QWORD PTR [rcx], rax

; 1390 :                     *r = temp_r;

	mov	eax, DWORD PTR temp_r$29[rbp]
	mov	rcx, QWORD PTR r$[rbp]
	mov	QWORD PTR [rcx], rax

; 1391 : #ifdef ENABLED_PERFORMANCE_COUNTER
; 1392 :                     if (sizeof(r) == sizeof(_UINT64_T))

	xor	eax, eax
	cmp	eax, 1
	je	SHORT $LN26@PMC_DivRem

; 1393 :                         IncrementDIV64Counter();

	call	IncrementDIV64Counter
	jmp	SHORT $LN27@PMC_DivRem
$LN26@PMC_DivRem:

; 1394 :                     else
; 1395 :                         IncrementDIV32Counter();

	call	IncrementDIV32Counter
$LN27@PMC_DivRem:
$LN25@PMC_DivRem:
$LN13@PMC_DivRem:
$LN11@PMC_DivRem:
$LN9@PMC_DivRem:

; 1396 : #endif
; 1397 :                 }
; 1398 :             }
; 1399 : 
; 1400 :         }
; 1401 :     }
; 1402 :     return (PMC_STATUS_OK);

	xor	eax, eax
$LN1@PMC_DivRem:

; 1403 : }

	mov	rdi, rax
	lea	rcx, QWORD PTR [rbp-64]
	lea	rdx, OFFSET FLAT:PMC_DivRem_L_X$rtcFrameData
	call	_RTC_CheckStackVars
	mov	rax, rdi
	mov	rcx, QWORD PTR __$ArrayPad$[rbp]
	xor	rcx, rbp
	call	__security_check_cookie
	lea	rsp, QWORD PTR [rbp+1048]
	pop	rdi
	pop	rbp
	ret	0
PMC_DivRem_L_X ENDP
_TEXT	ENDS
; Function compile flags: /Odtp /RTCsu /ZI
; File z:\sources\lunor\repos\rougemeilland\palmtree.math.core.implements\palmtree.math.core.implements\pmc_divrem.c
;	COMDAT PMC_DivRem_I_X
_TEXT	SEGMENT
nv$ = 8
result$ = 36
u_bit_count$4 = 72
v_bit_count$5 = 104
temp_r$6 = 132
u$ = 384
v$ = 392
q$ = 400
r$ = 408
PMC_DivRem_I_X PROC					; COMDAT

; 1072 : {

$LN17:
	mov	QWORD PTR [rsp+32], r9
	mov	QWORD PTR [rsp+24], r8
	mov	QWORD PTR [rsp+16], rdx
	mov	DWORD PTR [rsp+8], ecx
	push	rbp
	push	rdi
	sub	rsp, 392				; 00000188H
	lea	rbp, QWORD PTR [rsp+32]
	mov	rdi, rsp
	mov	ecx, 98					; 00000062H
	mov	eax, -858993460				; ccccccccH
	rep stosd
	mov	ecx, DWORD PTR [rsp+424]
	lea	rcx, OFFSET FLAT:__62F961D6_pmc_divrem@c
	call	__CheckForDebuggerJustMyCode

; 1073 :     if (sizeof(__UNIT_TYPE_DIV) < sizeof(u))

	xor	eax, eax
	test	eax, eax
	je	SHORT $LN2@PMC_DivRem

; 1074 :     {
; 1075 :         // _UINT32_T が 1 ワードで表現しきれない処理系には対応しない
; 1076 :         return (PMC_STATUS_INTERNAL_ERROR);

	mov	eax, -256				; ffffffffffffff00H
	jmp	$LN1@PMC_DivRem
$LN2@PMC_DivRem:

; 1077 :     }
; 1078 :     if (v == NULL)

	cmp	QWORD PTR v$[rbp], 0
	jne	SHORT $LN3@PMC_DivRem

; 1079 :         return (PMC_STATUS_ARGUMENT_ERROR);

	mov	eax, -1
	jmp	$LN1@PMC_DivRem
$LN3@PMC_DivRem:

; 1080 :     if (q == NULL)

	cmp	QWORD PTR q$[rbp], 0
	jne	SHORT $LN4@PMC_DivRem

; 1081 :         return (PMC_STATUS_ARGUMENT_ERROR);

	mov	eax, -1
	jmp	$LN1@PMC_DivRem
$LN4@PMC_DivRem:

; 1082 :     if (r == NULL)

	cmp	QWORD PTR r$[rbp], 0
	jne	SHORT $LN5@PMC_DivRem

; 1083 :         return (PMC_STATUS_ARGUMENT_ERROR);

	mov	eax, -1
	jmp	$LN1@PMC_DivRem
$LN5@PMC_DivRem:

; 1084 :     NUMBER_HEADER* nv = (NUMBER_HEADER*)v;

	mov	rax, QWORD PTR v$[rbp]
	mov	QWORD PTR nv$[rbp], rax

; 1085 :     PMC_STATUS_CODE result;
; 1086 :     if ((result = CheckNumber(nv)) != PMC_STATUS_OK)

	mov	rcx, QWORD PTR nv$[rbp]
	call	CheckNumber
	mov	DWORD PTR result$[rbp], eax
	cmp	DWORD PTR result$[rbp], 0
	je	SHORT $LN6@PMC_DivRem

; 1087 :         return (result);

	mov	eax, DWORD PTR result$[rbp]
	jmp	$LN1@PMC_DivRem
$LN6@PMC_DivRem:

; 1088 :     if (nv->IS_ZERO)

	mov	rax, QWORD PTR nv$[rbp]
	mov	eax, DWORD PTR [rax+40]
	shr	eax, 1
	and	eax, 1
	test	eax, eax
	je	SHORT $LN7@PMC_DivRem

; 1089 :     {
; 1090 :         // v が 0 である場合
; 1091 : 
; 1092 :         // 0 による除算はエラーで返す
; 1093 :         return (PMC_STATUS_DIVISION_BY_ZERO);

	mov	eax, -3
	jmp	$LN1@PMC_DivRem
$LN7@PMC_DivRem:

; 1094 :     }
; 1095 :     if (u == 0)

	cmp	DWORD PTR u$[rbp], 0
	jne	SHORT $LN8@PMC_DivRem

; 1096 :     {
; 1097 :         // u が 0 である場合
; 1098 : 
; 1099 :         // q = 0, r = 0 を返す
; 1100 :         *q = 0;

	mov	rax, QWORD PTR q$[rbp]
	mov	DWORD PTR [rax], 0

; 1101 :         *r = 0;

	mov	rax, QWORD PTR r$[rbp]
	mov	DWORD PTR [rax], 0

; 1102 :     }

	jmp	$LN9@PMC_DivRem
$LN8@PMC_DivRem:

; 1103 :     else
; 1104 :     {
; 1105 :         // u が 0 ではない場合
; 1106 : 
; 1107 :         if (nv->IS_ONE)

	mov	rax, QWORD PTR nv$[rbp]
	mov	eax, DWORD PTR [rax+40]
	shr	eax, 2
	and	eax, 1
	test	eax, eax
	je	SHORT $LN10@PMC_DivRem

; 1108 :         {
; 1109 :             // v が 1 である場合
; 1110 : 
; 1111 :             // q = u, r = 0 を返す
; 1112 :             *q = u;

	mov	rax, QWORD PTR q$[rbp]
	mov	ecx, DWORD PTR u$[rbp]
	mov	DWORD PTR [rax], ecx

; 1113 :             *r = 0;

	mov	rax, QWORD PTR r$[rbp]
	mov	DWORD PTR [rax], 0

; 1114 :         }

	jmp	$LN11@PMC_DivRem
$LN10@PMC_DivRem:

; 1115 :         else
; 1116 :         {
; 1117 :             // u と v がともに 0 ではない場合
; 1118 : 
; 1119 :             // x と y の商・剰余を計算する
; 1120 :             __UNIT_TYPE u_bit_count = sizeof(u) * 8 - _LZCNT_ALT_32(u);

	mov	ecx, DWORD PTR u$[rbp]
	call	_LZCNT_ALT_32
	cdqe
	mov	ecx, 32					; 00000020H
	sub	rcx, rax
	mov	rax, rcx
	mov	QWORD PTR u_bit_count$4[rbp], rax

; 1121 :             __UNIT_TYPE v_bit_count = nv->UNIT_BIT_COUNT;

	mov	rax, QWORD PTR nv$[rbp]
	mov	rax, QWORD PTR [rax+16]
	mov	QWORD PTR v_bit_count$5[rbp], rax

; 1122 :             if (u_bit_count < v_bit_count)

	mov	rax, QWORD PTR v_bit_count$5[rbp]
	cmp	QWORD PTR u_bit_count$4[rbp], rax
	jae	SHORT $LN12@PMC_DivRem

; 1123 :             {
; 1124 :                 // 明らかに u < v である場合
; 1125 : 
; 1126 :                 // q = 0, r = u を返す。
; 1127 :                 *q = 0;

	mov	rax, QWORD PTR q$[rbp]
	mov	DWORD PTR [rax], 0

; 1128 :                 *r = u;

	mov	rax, QWORD PTR r$[rbp]
	mov	ecx, DWORD PTR u$[rbp]
	mov	DWORD PTR [rax], ecx

; 1129 :             }

	jmp	SHORT $LN13@PMC_DivRem
$LN12@PMC_DivRem:

; 1130 :             else
; 1131 :             {
; 1132 :                 // u のビット数が v のビット数以上である場合
; 1133 :                 
; 1134 :                 // u は 1 ワードで表現できるので、v も 1 ワードで表現できる。
; 1135 :                 __UNIT_TYPE_DIV temp_r;
; 1136 :                 *q = _DIVREM_UNIT(0, u, (__UNIT_TYPE_DIV)nv->BLOCK[0], &temp_r);

	mov	eax, 8
	imul	rax, rax, 0
	mov	rcx, QWORD PTR nv$[rbp]
	mov	rcx, QWORD PTR [rcx+56]
	lea	r9, QWORD PTR temp_r$6[rbp]
	mov	r8d, DWORD PTR [rcx+rax]
	mov	edx, DWORD PTR u$[rbp]
	xor	ecx, ecx
	call	_DIVREM_UNIT
	mov	rcx, QWORD PTR q$[rbp]
	mov	DWORD PTR [rcx], eax

; 1137 :                 *r = temp_r;

	mov	rax, QWORD PTR r$[rbp]
	mov	ecx, DWORD PTR temp_r$6[rbp]
	mov	DWORD PTR [rax], ecx

; 1138 : #ifdef ENABLED_PERFORMANCE_COUNTER
; 1139 :                 if (sizeof(r) == sizeof(_UINT64_T))

	xor	eax, eax
	cmp	eax, 1
	je	SHORT $LN14@PMC_DivRem

; 1140 :                     IncrementDIV64Counter();

	call	IncrementDIV64Counter
	jmp	SHORT $LN15@PMC_DivRem
$LN14@PMC_DivRem:

; 1141 :                 else
; 1142 :                     IncrementDIV32Counter();

	call	IncrementDIV32Counter
$LN15@PMC_DivRem:
$LN13@PMC_DivRem:
$LN11@PMC_DivRem:
$LN9@PMC_DivRem:

; 1143 : #endif
; 1144 :             }
; 1145 :         }
; 1146 :     }
; 1147 :     return (PMC_STATUS_OK);

	xor	eax, eax
$LN1@PMC_DivRem:

; 1148 : }

	mov	rdi, rax
	lea	rcx, QWORD PTR [rbp-32]
	lea	rdx, OFFSET FLAT:PMC_DivRem_I_X$rtcFrameData
	call	_RTC_CheckStackVars
	mov	rax, rdi
	lea	rsp, QWORD PTR [rbp+360]
	pop	rdi
	pop	rbp
	ret	0
PMC_DivRem_I_X ENDP
_TEXT	ENDS
; Function compile flags: /Odtp /RTCsu /ZI
; File z:\sources\lunor\repos\rougemeilland\palmtree.math.core.implements\palmtree.math.core.implements\pmc_divrem.c
;	COMDAT Initialize_DivRem
_TEXT	SEGMENT
tv72 = 192
feature$ = 240
Initialize_DivRem PROC					; COMDAT

; 1744 : {

$LN5:
	mov	QWORD PTR [rsp+8], rcx
	push	rbp
	push	rdi
	sub	rsp, 248				; 000000f8H
	lea	rbp, QWORD PTR [rsp+32]
	mov	rdi, rsp
	mov	ecx, 62					; 0000003eH
	mov	eax, -858993460				; ccccccccH
	rep stosd
	mov	rcx, QWORD PTR [rsp+280]
	lea	rcx, OFFSET FLAT:__62F961D6_pmc_divrem@c
	call	__CheckForDebuggerJustMyCode

; 1745 :     fp_DivRem_X_X = feature->PROCESSOR_FEATURE_ADX && feature->PROCESSOR_FEATURE_BMI2 ? DivRem_X_X_using_ADX_MULX : DivRem_X_X_using_ADC_MUL;

	mov	rax, QWORD PTR feature$[rbp]
	mov	eax, DWORD PTR [rax]
	shr	eax, 1
	and	eax, 1
	test	eax, eax
	je	SHORT $LN3@Initialize
	mov	rax, QWORD PTR feature$[rbp]
	mov	eax, DWORD PTR [rax]
	shr	eax, 3
	and	eax, 1
	test	eax, eax
	je	SHORT $LN3@Initialize
	lea	rax, OFFSET FLAT:DivRem_X_X_using_ADX_MULX
	mov	QWORD PTR tv72[rbp], rax
	jmp	SHORT $LN4@Initialize
$LN3@Initialize:
	lea	rax, OFFSET FLAT:DivRem_X_X_using_ADC_MUL
	mov	QWORD PTR tv72[rbp], rax
$LN4@Initialize:
	mov	rax, QWORD PTR tv72[rbp]
	mov	QWORD PTR fp_DivRem_X_X, rax

; 1746 :     return (PMC_STATUS_OK);

	xor	eax, eax

; 1747 : }

	lea	rsp, QWORD PTR [rbp+216]
	pop	rdi
	pop	rbp
	ret	0
Initialize_DivRem ENDP
_TEXT	ENDS
; Function compile flags: /Odtp /RTCsu /ZI
; File z:\sources\lunor\repos\rougemeilland\palmtree.math.core.implements\palmtree.math.core.implements\pmc_divrem.c
;	COMDAT DivRem_X_X
_TEXT	SEGMENT
u_buf_2$ = 8
u_count_2$ = 40
v_buf_2$ = 72
v_count_2$ = 104
r$5 = 132
q$6 = 164
r$7 = 196
u_buf$ = 448
u_count$ = 456
v_buf$ = 464
v_count$ = 472
work_v_buf$ = 480
q_buf$ = 488
r_buf$ = 496
DivRem_X_X PROC						; COMDAT

; 45   : {

$LN14:
	mov	QWORD PTR [rsp+32], r9
	mov	QWORD PTR [rsp+24], r8
	mov	QWORD PTR [rsp+16], rdx
	mov	QWORD PTR [rsp+8], rcx
	push	rbp
	push	rdi
	sub	rsp, 488				; 000001e8H
	lea	rbp, QWORD PTR [rsp+64]
	mov	rdi, rsp
	mov	ecx, 122				; 0000007aH
	mov	eax, -858993460				; ccccccccH
	rep stosd
	mov	rcx, QWORD PTR [rsp+520]
	lea	rcx, OFFSET FLAT:__62F961D6_pmc_divrem@c
	call	__CheckForDebuggerJustMyCode

; 46   :     __UNIT_TYPE_DIV* u_buf_2 = (__UNIT_TYPE_DIV*)u_buf;

	mov	rax, QWORD PTR u_buf$[rbp]
	mov	QWORD PTR u_buf_2$[rbp], rax

; 47   :     __UNIT_TYPE u_count_2 = u_count * (sizeof(__UNIT_TYPE) / sizeof(__UNIT_TYPE_DIV));

	mov	rax, QWORD PTR u_count$[rbp]
	shl	rax, 1
	mov	QWORD PTR u_count_2$[rbp], rax

; 48   :     __UNIT_TYPE_DIV* v_buf_2 = (__UNIT_TYPE_DIV*)v_buf;

	mov	rax, QWORD PTR v_buf$[rbp]
	mov	QWORD PTR v_buf_2$[rbp], rax

; 49   :     __UNIT_TYPE v_count_2 = v_count * (sizeof(__UNIT_TYPE) / sizeof(__UNIT_TYPE_DIV));

	mov	rax, QWORD PTR v_count$[rbp]
	shl	rax, 1
	mov	QWORD PTR v_count_2$[rbp], rax

; 50   :     if (sizeof(__UNIT_TYPE) != sizeof(__UNIT_TYPE_DIV))

	xor	eax, eax
	cmp	eax, 1
	je	SHORT $LN2@DivRem_X_X

; 51   :     {
; 52   :         if (u_buf_2[u_count_2 - 1] == 0)

	mov	rax, QWORD PTR u_buf_2$[rbp]
	mov	rcx, QWORD PTR u_count_2$[rbp]
	cmp	DWORD PTR [rax+rcx*4-4], 0
	jne	SHORT $LN3@DivRem_X_X

; 53   :             --u_count_2;

	mov	rax, QWORD PTR u_count_2$[rbp]
	dec	rax
	mov	QWORD PTR u_count_2$[rbp], rax
$LN3@DivRem_X_X:

; 54   :         if (v_buf_2[v_count_2 - 1] == 0)

	mov	rax, QWORD PTR v_buf_2$[rbp]
	mov	rcx, QWORD PTR v_count_2$[rbp]
	cmp	DWORD PTR [rax+rcx*4-4], 0
	jne	SHORT $LN4@DivRem_X_X

; 55   :             --v_count_2;

	mov	rax, QWORD PTR v_count_2$[rbp]
	dec	rax
	mov	QWORD PTR v_count_2$[rbp], rax
$LN4@DivRem_X_X:
$LN2@DivRem_X_X:

; 56   :     }
; 57   :     if (v_count_2 == 1)

	cmp	QWORD PTR v_count_2$[rbp], 1
	jne	$LN5@DivRem_X_X

; 58   :     {
; 59   :         if (u_count_2 == 1)

	cmp	QWORD PTR u_count_2$[rbp], 1
	jne	SHORT $LN7@DivRem_X_X

; 60   :         {
; 61   :             __UNIT_TYPE_DIV r;
; 62   :             __UNIT_TYPE_DIV q = _DIVREM_UNIT(0, u_buf_2[0], v_buf_2[0], &r);

	mov	eax, 4
	imul	rax, rax, 0
	mov	ecx, 4
	imul	rcx, rcx, 0
	lea	r9, QWORD PTR r$5[rbp]
	mov	rdx, QWORD PTR v_buf_2$[rbp]
	mov	r8d, DWORD PTR [rdx+rax]
	mov	rax, QWORD PTR u_buf_2$[rbp]
	mov	edx, DWORD PTR [rax+rcx]
	xor	ecx, ecx
	call	_DIVREM_UNIT
	mov	DWORD PTR q$6[rbp], eax

; 63   :             q_buf[0] = q;

	mov	eax, 8
	imul	rax, rax, 0
	mov	ecx, DWORD PTR q$6[rbp]
	mov	rdx, QWORD PTR q_buf$[rbp]
	mov	QWORD PTR [rdx+rax], rcx

; 64   :             r_buf[0] = r;

	mov	eax, 8
	imul	rax, rax, 0
	mov	ecx, DWORD PTR r$5[rbp]
	mov	rdx, QWORD PTR r_buf$[rbp]
	mov	QWORD PTR [rdx+rax], rcx

; 65   : #ifdef ENABLED_PERFORMANCE_COUNTER
; 66   :             if (sizeof(r) == sizeof(_UINT64_T))

	xor	eax, eax
	test	eax, eax
	je	SHORT $LN9@DivRem_X_X

; 67   :                 IncrementDIV64Counter();

	call	IncrementDIV64Counter
	jmp	SHORT $LN10@DivRem_X_X
$LN9@DivRem_X_X:

; 68   :             else
; 69   :                 IncrementDIV32Counter();

	call	IncrementDIV32Counter
$LN10@DivRem_X_X:

; 70   : #endif
; 71   :         }

	jmp	SHORT $LN8@DivRem_X_X
$LN7@DivRem_X_X:

; 72   :         else
; 73   :         {
; 74   :             __UNIT_TYPE_DIV r;
; 75   :             DivRem_X_1W(u_buf_2, u_count_2, v_buf_2[0], (__UNIT_TYPE_DIV*)q_buf, &r);

	mov	eax, 4
	imul	rax, rax, 0
	lea	rcx, QWORD PTR r$7[rbp]
	mov	QWORD PTR [rsp+32], rcx
	mov	r9, QWORD PTR q_buf$[rbp]
	mov	rcx, QWORD PTR v_buf_2$[rbp]
	mov	r8d, DWORD PTR [rcx+rax]
	mov	rdx, QWORD PTR u_count_2$[rbp]
	mov	rcx, QWORD PTR u_buf_2$[rbp]
	call	DivRem_X_1W

; 76   :             r_buf[0] = r;

	mov	eax, 8
	imul	rax, rax, 0
	mov	ecx, DWORD PTR r$7[rbp]
	mov	rdx, QWORD PTR r_buf$[rbp]
	mov	QWORD PTR [rdx+rax], rcx
$LN8@DivRem_X_X:

; 77   :         }
; 78   :     }

	jmp	SHORT $LN6@DivRem_X_X
$LN5@DivRem_X_X:

; 79   :     else
; 80   :     {
; 81   :         if (u_count_2 < v_count_2)

	mov	rax, QWORD PTR v_count_2$[rbp]
	cmp	QWORD PTR u_count_2$[rbp], rax
	jae	SHORT $LN11@DivRem_X_X

; 82   :         {
; 83   :             q_buf[0] = 0;

	mov	eax, 8
	imul	rax, rax, 0
	mov	rcx, QWORD PTR q_buf$[rbp]
	mov	QWORD PTR [rcx+rax], 0

; 84   :             _COPY_MEMORY_UNIT(r_buf, u_buf, u_count);

	mov	r8, QWORD PTR u_count$[rbp]
	mov	rdx, QWORD PTR u_buf$[rbp]
	mov	rcx, QWORD PTR r_buf$[rbp]
	call	_COPY_MEMORY_UNIT

; 85   :         }

	jmp	SHORT $LN12@DivRem_X_X
$LN11@DivRem_X_X:

; 86   :         else
; 87   :             (*fp_DivRem_X_X)(u_buf_2, u_count_2, v_buf_2, v_count_2, (__UNIT_TYPE_DIV*)work_v_buf, (__UNIT_TYPE_DIV*)q_buf, (__UNIT_TYPE_DIV*)r_buf);

	mov	rax, QWORD PTR r_buf$[rbp]
	mov	QWORD PTR [rsp+48], rax
	mov	rax, QWORD PTR q_buf$[rbp]
	mov	QWORD PTR [rsp+40], rax
	mov	rax, QWORD PTR work_v_buf$[rbp]
	mov	QWORD PTR [rsp+32], rax
	mov	r9, QWORD PTR v_count_2$[rbp]
	mov	r8, QWORD PTR v_buf_2$[rbp]
	mov	rdx, QWORD PTR u_count_2$[rbp]
	mov	rcx, QWORD PTR u_buf_2$[rbp]
	call	QWORD PTR fp_DivRem_X_X
$LN12@DivRem_X_X:
$LN6@DivRem_X_X:

; 88   :     }
; 89   : }

	lea	rcx, QWORD PTR [rbp-64]
	lea	rdx, OFFSET FLAT:DivRem_X_X$rtcFrameData
	call	_RTC_CheckStackVars
	lea	rsp, QWORD PTR [rbp+424]
	pop	rdi
	pop	rbp
	ret	0
DivRem_X_X ENDP
_TEXT	ENDS
; Function compile flags: /Odtp /RTCsu /ZI
; File z:\sources\lunor\repos\rougemeilland\palmtree.math.core.implements\palmtree.math.core.implements\pmc_divrem.c
;	COMDAT DivRem_X_1W
_TEXT	SEGMENT
up$ = 8
qp$ = 40
u_count$ = 72
r$ = 100
count$ = 136
u_buf$ = 384
u_buf_len$ = 392
v$ = 400
q_buf$ = 408
r_buf$ = 416
DivRem_X_1W PROC					; COMDAT

; 92   : {

$LN25:
	mov	QWORD PTR [rsp+32], r9
	mov	DWORD PTR [rsp+24], r8d
	mov	QWORD PTR [rsp+16], rdx
	mov	QWORD PTR [rsp+8], rcx
	push	rbp
	push	rdi
	sub	rsp, 392				; 00000188H
	lea	rbp, QWORD PTR [rsp+32]
	mov	rdi, rsp
	mov	ecx, 98					; 00000062H
	mov	eax, -858993460				; ccccccccH
	rep stosd
	mov	rcx, QWORD PTR [rsp+424]
	lea	rcx, OFFSET FLAT:__62F961D6_pmc_divrem@c
	call	__CheckForDebuggerJustMyCode

; 93   :     // u の最上位ワードは 0 でありうることに注意すること。
; 94   :     __UNIT_TYPE_DIV* up = u_buf + u_buf_len - 1;

	mov	rax, QWORD PTR u_buf$[rbp]
	mov	rcx, QWORD PTR u_buf_len$[rbp]
	lea	rax, QWORD PTR [rax+rcx*4-4]
	mov	QWORD PTR up$[rbp], rax

; 95   :     __UNIT_TYPE_DIV* qp = q_buf + u_buf_len - 1;

	mov	rax, QWORD PTR q_buf$[rbp]
	mov	rcx, QWORD PTR u_buf_len$[rbp]
	lea	rax, QWORD PTR [rax+rcx*4-4]
	mov	QWORD PTR qp$[rbp], rax

; 96   :     __UNIT_TYPE u_count = u_buf_len;

	mov	rax, QWORD PTR u_buf_len$[rbp]
	mov	QWORD PTR u_count$[rbp], rax

; 97   :     if (sizeof(__UNIT_TYPE) != sizeof(__UNIT_TYPE_DIV))

	xor	eax, eax
	cmp	eax, 1
	je	SHORT $LN6@DivRem_X_1
$LN2@DivRem_X_1:

; 98   :     {
; 99   :         while (*up == 0)

	mov	rax, QWORD PTR up$[rbp]
	cmp	DWORD PTR [rax], 0
	jne	SHORT $LN3@DivRem_X_1

; 100  :         {
; 101  :             --up;

	mov	rax, QWORD PTR up$[rbp]
	sub	rax, 4
	mov	QWORD PTR up$[rbp], rax

; 102  :             --qp;

	mov	rax, QWORD PTR qp$[rbp]
	sub	rax, 4
	mov	QWORD PTR qp$[rbp], rax

; 103  :             --u_count;

	mov	rax, QWORD PTR u_count$[rbp]
	dec	rax
	mov	QWORD PTR u_count$[rbp], rax

; 104  :         }

	jmp	SHORT $LN2@DivRem_X_1
$LN3@DivRem_X_1:
$LN6@DivRem_X_1:

; 105  :     }
; 106  :     __UNIT_TYPE_DIV r = 0;

	mov	DWORD PTR r$[rbp], 0

; 107  :     __UNIT_TYPE count = u_count >> 5;

	mov	rax, QWORD PTR u_count$[rbp]
	shr	rax, 5
	mov	QWORD PTR count$[rbp], rax
$LN4@DivRem_X_1:

; 108  :     while (count != 0)

	cmp	QWORD PTR count$[rbp], 0
	je	$LN5@DivRem_X_1

; 109  :     {
; 110  :         r = _DIVREM_SINGLE_UNIT(r, up[-0], v, &qp[-0]);

	mov	eax, 4
	imul	rax, rax, 0
	mov	rcx, QWORD PTR qp$[rbp]
	add	rcx, rax
	mov	rax, rcx
	mov	ecx, 4
	imul	rcx, rcx, 0
	mov	r9, rax
	mov	r8d, DWORD PTR v$[rbp]
	mov	rax, QWORD PTR up$[rbp]
	mov	edx, DWORD PTR [rax+rcx]
	mov	ecx, DWORD PTR r$[rbp]
	call	_DIVREM_SINGLE_UNIT
	mov	DWORD PTR r$[rbp], eax

; 111  :         r = _DIVREM_SINGLE_UNIT(r, up[-1], v, &qp[-1]);

	mov	eax, 4
	imul	rax, rax, -1
	mov	rcx, QWORD PTR qp$[rbp]
	add	rcx, rax
	mov	rax, rcx
	mov	ecx, 4
	imul	rcx, rcx, -1
	mov	r9, rax
	mov	r8d, DWORD PTR v$[rbp]
	mov	rax, QWORD PTR up$[rbp]
	mov	edx, DWORD PTR [rax+rcx]
	mov	ecx, DWORD PTR r$[rbp]
	call	_DIVREM_SINGLE_UNIT
	mov	DWORD PTR r$[rbp], eax

; 112  :         r = _DIVREM_SINGLE_UNIT(r, up[-2], v, &qp[-2]);

	mov	eax, 4
	imul	rax, rax, -2
	mov	rcx, QWORD PTR qp$[rbp]
	add	rcx, rax
	mov	rax, rcx
	mov	ecx, 4
	imul	rcx, rcx, -2
	mov	r9, rax
	mov	r8d, DWORD PTR v$[rbp]
	mov	rax, QWORD PTR up$[rbp]
	mov	edx, DWORD PTR [rax+rcx]
	mov	ecx, DWORD PTR r$[rbp]
	call	_DIVREM_SINGLE_UNIT
	mov	DWORD PTR r$[rbp], eax

; 113  :         r = _DIVREM_SINGLE_UNIT(r, up[-3], v, &qp[-3]);

	mov	eax, 4
	imul	rax, rax, -3
	mov	rcx, QWORD PTR qp$[rbp]
	add	rcx, rax
	mov	rax, rcx
	mov	ecx, 4
	imul	rcx, rcx, -3
	mov	r9, rax
	mov	r8d, DWORD PTR v$[rbp]
	mov	rax, QWORD PTR up$[rbp]
	mov	edx, DWORD PTR [rax+rcx]
	mov	ecx, DWORD PTR r$[rbp]
	call	_DIVREM_SINGLE_UNIT
	mov	DWORD PTR r$[rbp], eax

; 114  :         r = _DIVREM_SINGLE_UNIT(r, up[-4], v, &qp[-4]);

	mov	eax, 4
	imul	rax, rax, -4
	mov	rcx, QWORD PTR qp$[rbp]
	add	rcx, rax
	mov	rax, rcx
	mov	ecx, 4
	imul	rcx, rcx, -4
	mov	r9, rax
	mov	r8d, DWORD PTR v$[rbp]
	mov	rax, QWORD PTR up$[rbp]
	mov	edx, DWORD PTR [rax+rcx]
	mov	ecx, DWORD PTR r$[rbp]
	call	_DIVREM_SINGLE_UNIT
	mov	DWORD PTR r$[rbp], eax

; 115  :         r = _DIVREM_SINGLE_UNIT(r, up[-5], v, &qp[-5]);

	mov	eax, 4
	imul	rax, rax, -5
	mov	rcx, QWORD PTR qp$[rbp]
	add	rcx, rax
	mov	rax, rcx
	mov	ecx, 4
	imul	rcx, rcx, -5
	mov	r9, rax
	mov	r8d, DWORD PTR v$[rbp]
	mov	rax, QWORD PTR up$[rbp]
	mov	edx, DWORD PTR [rax+rcx]
	mov	ecx, DWORD PTR r$[rbp]
	call	_DIVREM_SINGLE_UNIT
	mov	DWORD PTR r$[rbp], eax

; 116  :         r = _DIVREM_SINGLE_UNIT(r, up[-6], v, &qp[-6]);

	mov	eax, 4
	imul	rax, rax, -6
	mov	rcx, QWORD PTR qp$[rbp]
	add	rcx, rax
	mov	rax, rcx
	mov	ecx, 4
	imul	rcx, rcx, -6
	mov	r9, rax
	mov	r8d, DWORD PTR v$[rbp]
	mov	rax, QWORD PTR up$[rbp]
	mov	edx, DWORD PTR [rax+rcx]
	mov	ecx, DWORD PTR r$[rbp]
	call	_DIVREM_SINGLE_UNIT
	mov	DWORD PTR r$[rbp], eax

; 117  :         r = _DIVREM_SINGLE_UNIT(r, up[-7], v, &qp[-7]);

	mov	eax, 4
	imul	rax, rax, -7
	mov	rcx, QWORD PTR qp$[rbp]
	add	rcx, rax
	mov	rax, rcx
	mov	ecx, 4
	imul	rcx, rcx, -7
	mov	r9, rax
	mov	r8d, DWORD PTR v$[rbp]
	mov	rax, QWORD PTR up$[rbp]
	mov	edx, DWORD PTR [rax+rcx]
	mov	ecx, DWORD PTR r$[rbp]
	call	_DIVREM_SINGLE_UNIT
	mov	DWORD PTR r$[rbp], eax

; 118  :         r = _DIVREM_SINGLE_UNIT(r, up[-8], v, &qp[-8]);

	mov	eax, 4
	imul	rax, rax, -8
	mov	rcx, QWORD PTR qp$[rbp]
	add	rcx, rax
	mov	rax, rcx
	mov	ecx, 4
	imul	rcx, rcx, -8
	mov	r9, rax
	mov	r8d, DWORD PTR v$[rbp]
	mov	rax, QWORD PTR up$[rbp]
	mov	edx, DWORD PTR [rax+rcx]
	mov	ecx, DWORD PTR r$[rbp]
	call	_DIVREM_SINGLE_UNIT
	mov	DWORD PTR r$[rbp], eax

; 119  :         r = _DIVREM_SINGLE_UNIT(r, up[-9], v, &qp[-9]);

	mov	eax, 4
	imul	rax, rax, -9
	mov	rcx, QWORD PTR qp$[rbp]
	add	rcx, rax
	mov	rax, rcx
	mov	ecx, 4
	imul	rcx, rcx, -9
	mov	r9, rax
	mov	r8d, DWORD PTR v$[rbp]
	mov	rax, QWORD PTR up$[rbp]
	mov	edx, DWORD PTR [rax+rcx]
	mov	ecx, DWORD PTR r$[rbp]
	call	_DIVREM_SINGLE_UNIT
	mov	DWORD PTR r$[rbp], eax

; 120  :         r = _DIVREM_SINGLE_UNIT(r, up[-10], v, &qp[-10]);

	mov	eax, 4
	imul	rax, rax, -10
	mov	rcx, QWORD PTR qp$[rbp]
	add	rcx, rax
	mov	rax, rcx
	mov	ecx, 4
	imul	rcx, rcx, -10
	mov	r9, rax
	mov	r8d, DWORD PTR v$[rbp]
	mov	rax, QWORD PTR up$[rbp]
	mov	edx, DWORD PTR [rax+rcx]
	mov	ecx, DWORD PTR r$[rbp]
	call	_DIVREM_SINGLE_UNIT
	mov	DWORD PTR r$[rbp], eax

; 121  :         r = _DIVREM_SINGLE_UNIT(r, up[-11], v, &qp[-11]);

	mov	eax, 4
	imul	rax, rax, -11
	mov	rcx, QWORD PTR qp$[rbp]
	add	rcx, rax
	mov	rax, rcx
	mov	ecx, 4
	imul	rcx, rcx, -11
	mov	r9, rax
	mov	r8d, DWORD PTR v$[rbp]
	mov	rax, QWORD PTR up$[rbp]
	mov	edx, DWORD PTR [rax+rcx]
	mov	ecx, DWORD PTR r$[rbp]
	call	_DIVREM_SINGLE_UNIT
	mov	DWORD PTR r$[rbp], eax

; 122  :         r = _DIVREM_SINGLE_UNIT(r, up[-12], v, &qp[-12]);

	mov	eax, 4
	imul	rax, rax, -12
	mov	rcx, QWORD PTR qp$[rbp]
	add	rcx, rax
	mov	rax, rcx
	mov	ecx, 4
	imul	rcx, rcx, -12
	mov	r9, rax
	mov	r8d, DWORD PTR v$[rbp]
	mov	rax, QWORD PTR up$[rbp]
	mov	edx, DWORD PTR [rax+rcx]
	mov	ecx, DWORD PTR r$[rbp]
	call	_DIVREM_SINGLE_UNIT
	mov	DWORD PTR r$[rbp], eax

; 123  :         r = _DIVREM_SINGLE_UNIT(r, up[-13], v, &qp[-13]);

	mov	eax, 4
	imul	rax, rax, -13
	mov	rcx, QWORD PTR qp$[rbp]
	add	rcx, rax
	mov	rax, rcx
	mov	ecx, 4
	imul	rcx, rcx, -13
	mov	r9, rax
	mov	r8d, DWORD PTR v$[rbp]
	mov	rax, QWORD PTR up$[rbp]
	mov	edx, DWORD PTR [rax+rcx]
	mov	ecx, DWORD PTR r$[rbp]
	call	_DIVREM_SINGLE_UNIT
	mov	DWORD PTR r$[rbp], eax

; 124  :         r = _DIVREM_SINGLE_UNIT(r, up[-14], v, &qp[-14]);

	mov	eax, 4
	imul	rax, rax, -14
	mov	rcx, QWORD PTR qp$[rbp]
	add	rcx, rax
	mov	rax, rcx
	mov	ecx, 4
	imul	rcx, rcx, -14
	mov	r9, rax
	mov	r8d, DWORD PTR v$[rbp]
	mov	rax, QWORD PTR up$[rbp]
	mov	edx, DWORD PTR [rax+rcx]
	mov	ecx, DWORD PTR r$[rbp]
	call	_DIVREM_SINGLE_UNIT
	mov	DWORD PTR r$[rbp], eax

; 125  :         r = _DIVREM_SINGLE_UNIT(r, up[-15], v, &qp[-15]);

	mov	eax, 4
	imul	rax, rax, -15
	mov	rcx, QWORD PTR qp$[rbp]
	add	rcx, rax
	mov	rax, rcx
	mov	ecx, 4
	imul	rcx, rcx, -15
	mov	r9, rax
	mov	r8d, DWORD PTR v$[rbp]
	mov	rax, QWORD PTR up$[rbp]
	mov	edx, DWORD PTR [rax+rcx]
	mov	ecx, DWORD PTR r$[rbp]
	call	_DIVREM_SINGLE_UNIT
	mov	DWORD PTR r$[rbp], eax

; 126  :         r = _DIVREM_SINGLE_UNIT(r, up[-16], v, &qp[-16]);

	mov	eax, 4
	imul	rax, rax, -16
	mov	rcx, QWORD PTR qp$[rbp]
	add	rcx, rax
	mov	rax, rcx
	mov	ecx, 4
	imul	rcx, rcx, -16
	mov	r9, rax
	mov	r8d, DWORD PTR v$[rbp]
	mov	rax, QWORD PTR up$[rbp]
	mov	edx, DWORD PTR [rax+rcx]
	mov	ecx, DWORD PTR r$[rbp]
	call	_DIVREM_SINGLE_UNIT
	mov	DWORD PTR r$[rbp], eax

; 127  :         r = _DIVREM_SINGLE_UNIT(r, up[-17], v, &qp[-17]);

	mov	eax, 4
	imul	rax, rax, -17
	mov	rcx, QWORD PTR qp$[rbp]
	add	rcx, rax
	mov	rax, rcx
	mov	ecx, 4
	imul	rcx, rcx, -17
	mov	r9, rax
	mov	r8d, DWORD PTR v$[rbp]
	mov	rax, QWORD PTR up$[rbp]
	mov	edx, DWORD PTR [rax+rcx]
	mov	ecx, DWORD PTR r$[rbp]
	call	_DIVREM_SINGLE_UNIT
	mov	DWORD PTR r$[rbp], eax

; 128  :         r = _DIVREM_SINGLE_UNIT(r, up[-18], v, &qp[-18]);

	mov	eax, 4
	imul	rax, rax, -18
	mov	rcx, QWORD PTR qp$[rbp]
	add	rcx, rax
	mov	rax, rcx
	mov	ecx, 4
	imul	rcx, rcx, -18
	mov	r9, rax
	mov	r8d, DWORD PTR v$[rbp]
	mov	rax, QWORD PTR up$[rbp]
	mov	edx, DWORD PTR [rax+rcx]
	mov	ecx, DWORD PTR r$[rbp]
	call	_DIVREM_SINGLE_UNIT
	mov	DWORD PTR r$[rbp], eax

; 129  :         r = _DIVREM_SINGLE_UNIT(r, up[-19], v, &qp[-19]);

	mov	eax, 4
	imul	rax, rax, -19
	mov	rcx, QWORD PTR qp$[rbp]
	add	rcx, rax
	mov	rax, rcx
	mov	ecx, 4
	imul	rcx, rcx, -19
	mov	r9, rax
	mov	r8d, DWORD PTR v$[rbp]
	mov	rax, QWORD PTR up$[rbp]
	mov	edx, DWORD PTR [rax+rcx]
	mov	ecx, DWORD PTR r$[rbp]
	call	_DIVREM_SINGLE_UNIT
	mov	DWORD PTR r$[rbp], eax

; 130  :         r = _DIVREM_SINGLE_UNIT(r, up[-20], v, &qp[-20]);

	mov	eax, 4
	imul	rax, rax, -20
	mov	rcx, QWORD PTR qp$[rbp]
	add	rcx, rax
	mov	rax, rcx
	mov	ecx, 4
	imul	rcx, rcx, -20
	mov	r9, rax
	mov	r8d, DWORD PTR v$[rbp]
	mov	rax, QWORD PTR up$[rbp]
	mov	edx, DWORD PTR [rax+rcx]
	mov	ecx, DWORD PTR r$[rbp]
	call	_DIVREM_SINGLE_UNIT
	mov	DWORD PTR r$[rbp], eax

; 131  :         r = _DIVREM_SINGLE_UNIT(r, up[-21], v, &qp[-21]);

	mov	eax, 4
	imul	rax, rax, -21
	mov	rcx, QWORD PTR qp$[rbp]
	add	rcx, rax
	mov	rax, rcx
	mov	ecx, 4
	imul	rcx, rcx, -21
	mov	r9, rax
	mov	r8d, DWORD PTR v$[rbp]
	mov	rax, QWORD PTR up$[rbp]
	mov	edx, DWORD PTR [rax+rcx]
	mov	ecx, DWORD PTR r$[rbp]
	call	_DIVREM_SINGLE_UNIT
	mov	DWORD PTR r$[rbp], eax

; 132  :         r = _DIVREM_SINGLE_UNIT(r, up[-22], v, &qp[-22]);

	mov	eax, 4
	imul	rax, rax, -22
	mov	rcx, QWORD PTR qp$[rbp]
	add	rcx, rax
	mov	rax, rcx
	mov	ecx, 4
	imul	rcx, rcx, -22
	mov	r9, rax
	mov	r8d, DWORD PTR v$[rbp]
	mov	rax, QWORD PTR up$[rbp]
	mov	edx, DWORD PTR [rax+rcx]
	mov	ecx, DWORD PTR r$[rbp]
	call	_DIVREM_SINGLE_UNIT
	mov	DWORD PTR r$[rbp], eax

; 133  :         r = _DIVREM_SINGLE_UNIT(r, up[-23], v, &qp[-23]);

	mov	eax, 4
	imul	rax, rax, -23
	mov	rcx, QWORD PTR qp$[rbp]
	add	rcx, rax
	mov	rax, rcx
	mov	ecx, 4
	imul	rcx, rcx, -23
	mov	r9, rax
	mov	r8d, DWORD PTR v$[rbp]
	mov	rax, QWORD PTR up$[rbp]
	mov	edx, DWORD PTR [rax+rcx]
	mov	ecx, DWORD PTR r$[rbp]
	call	_DIVREM_SINGLE_UNIT
	mov	DWORD PTR r$[rbp], eax

; 134  :         r = _DIVREM_SINGLE_UNIT(r, up[-24], v, &qp[-24]);

	mov	eax, 4
	imul	rax, rax, -24
	mov	rcx, QWORD PTR qp$[rbp]
	add	rcx, rax
	mov	rax, rcx
	mov	ecx, 4
	imul	rcx, rcx, -24
	mov	r9, rax
	mov	r8d, DWORD PTR v$[rbp]
	mov	rax, QWORD PTR up$[rbp]
	mov	edx, DWORD PTR [rax+rcx]
	mov	ecx, DWORD PTR r$[rbp]
	call	_DIVREM_SINGLE_UNIT
	mov	DWORD PTR r$[rbp], eax

; 135  :         r = _DIVREM_SINGLE_UNIT(r, up[-25], v, &qp[-25]);

	mov	eax, 4
	imul	rax, rax, -25
	mov	rcx, QWORD PTR qp$[rbp]
	add	rcx, rax
	mov	rax, rcx
	mov	ecx, 4
	imul	rcx, rcx, -25
	mov	r9, rax
	mov	r8d, DWORD PTR v$[rbp]
	mov	rax, QWORD PTR up$[rbp]
	mov	edx, DWORD PTR [rax+rcx]
	mov	ecx, DWORD PTR r$[rbp]
	call	_DIVREM_SINGLE_UNIT
	mov	DWORD PTR r$[rbp], eax

; 136  :         r = _DIVREM_SINGLE_UNIT(r, up[-26], v, &qp[-26]);

	mov	eax, 4
	imul	rax, rax, -26
	mov	rcx, QWORD PTR qp$[rbp]
	add	rcx, rax
	mov	rax, rcx
	mov	ecx, 4
	imul	rcx, rcx, -26
	mov	r9, rax
	mov	r8d, DWORD PTR v$[rbp]
	mov	rax, QWORD PTR up$[rbp]
	mov	edx, DWORD PTR [rax+rcx]
	mov	ecx, DWORD PTR r$[rbp]
	call	_DIVREM_SINGLE_UNIT
	mov	DWORD PTR r$[rbp], eax

; 137  :         r = _DIVREM_SINGLE_UNIT(r, up[-27], v, &qp[-27]);

	mov	eax, 4
	imul	rax, rax, -27
	mov	rcx, QWORD PTR qp$[rbp]
	add	rcx, rax
	mov	rax, rcx
	mov	ecx, 4
	imul	rcx, rcx, -27
	mov	r9, rax
	mov	r8d, DWORD PTR v$[rbp]
	mov	rax, QWORD PTR up$[rbp]
	mov	edx, DWORD PTR [rax+rcx]
	mov	ecx, DWORD PTR r$[rbp]
	call	_DIVREM_SINGLE_UNIT
	mov	DWORD PTR r$[rbp], eax

; 138  :         r = _DIVREM_SINGLE_UNIT(r, up[-28], v, &qp[-28]);

	mov	eax, 4
	imul	rax, rax, -28
	mov	rcx, QWORD PTR qp$[rbp]
	add	rcx, rax
	mov	rax, rcx
	mov	ecx, 4
	imul	rcx, rcx, -28
	mov	r9, rax
	mov	r8d, DWORD PTR v$[rbp]
	mov	rax, QWORD PTR up$[rbp]
	mov	edx, DWORD PTR [rax+rcx]
	mov	ecx, DWORD PTR r$[rbp]
	call	_DIVREM_SINGLE_UNIT
	mov	DWORD PTR r$[rbp], eax

; 139  :         r = _DIVREM_SINGLE_UNIT(r, up[-29], v, &qp[-29]);

	mov	eax, 4
	imul	rax, rax, -29
	mov	rcx, QWORD PTR qp$[rbp]
	add	rcx, rax
	mov	rax, rcx
	mov	ecx, 4
	imul	rcx, rcx, -29
	mov	r9, rax
	mov	r8d, DWORD PTR v$[rbp]
	mov	rax, QWORD PTR up$[rbp]
	mov	edx, DWORD PTR [rax+rcx]
	mov	ecx, DWORD PTR r$[rbp]
	call	_DIVREM_SINGLE_UNIT
	mov	DWORD PTR r$[rbp], eax

; 140  :         r = _DIVREM_SINGLE_UNIT(r, up[-30], v, &qp[-30]);

	mov	eax, 4
	imul	rax, rax, -30
	mov	rcx, QWORD PTR qp$[rbp]
	add	rcx, rax
	mov	rax, rcx
	mov	ecx, 4
	imul	rcx, rcx, -30
	mov	r9, rax
	mov	r8d, DWORD PTR v$[rbp]
	mov	rax, QWORD PTR up$[rbp]
	mov	edx, DWORD PTR [rax+rcx]
	mov	ecx, DWORD PTR r$[rbp]
	call	_DIVREM_SINGLE_UNIT
	mov	DWORD PTR r$[rbp], eax

; 141  :         r = _DIVREM_SINGLE_UNIT(r, up[-31], v, &qp[-31]);

	mov	eax, 4
	imul	rax, rax, -31
	mov	rcx, QWORD PTR qp$[rbp]
	add	rcx, rax
	mov	rax, rcx
	mov	ecx, 4
	imul	rcx, rcx, -31
	mov	r9, rax
	mov	r8d, DWORD PTR v$[rbp]
	mov	rax, QWORD PTR up$[rbp]
	mov	edx, DWORD PTR [rax+rcx]
	mov	ecx, DWORD PTR r$[rbp]
	call	_DIVREM_SINGLE_UNIT
	mov	DWORD PTR r$[rbp], eax

; 142  :         up -= 32;

	mov	rax, QWORD PTR up$[rbp]
	sub	rax, 128				; 00000080H
	mov	QWORD PTR up$[rbp], rax

; 143  :         qp -= 32;

	mov	rax, QWORD PTR qp$[rbp]
	sub	rax, 128				; 00000080H
	mov	QWORD PTR qp$[rbp], rax

; 144  :         --count;

	mov	rax, QWORD PTR count$[rbp]
	dec	rax
	mov	QWORD PTR count$[rbp], rax

; 145  : #ifdef ENABLED_PERFORMANCE_COUNTER
; 146  :         if (sizeof(r) == sizeof(_UINT64_T))

	xor	eax, eax
	test	eax, eax
	je	SHORT $LN7@DivRem_X_1

; 147  :             AddToDIV64Counter(32);

	mov	ecx, 32					; 00000020H
	call	AddToDIV64Counter
	jmp	SHORT $LN8@DivRem_X_1
$LN7@DivRem_X_1:

; 148  :         else
; 149  :             AddToDIV32Counter(32);

	mov	ecx, 32					; 00000020H
	call	AddToDIV32Counter
$LN8@DivRem_X_1:

; 150  : #endif
; 151  :     }

	jmp	$LN4@DivRem_X_1
$LN5@DivRem_X_1:

; 152  : 
; 153  :     if (u_count & 0x10)

	mov	rax, QWORD PTR u_count$[rbp]
	and	rax, 16
	test	rax, rax
	je	$LN9@DivRem_X_1

; 154  :     {
; 155  :         r = _DIVREM_SINGLE_UNIT(r, up[-0], v, &qp[-0]);

	mov	eax, 4
	imul	rax, rax, 0
	mov	rcx, QWORD PTR qp$[rbp]
	add	rcx, rax
	mov	rax, rcx
	mov	ecx, 4
	imul	rcx, rcx, 0
	mov	r9, rax
	mov	r8d, DWORD PTR v$[rbp]
	mov	rax, QWORD PTR up$[rbp]
	mov	edx, DWORD PTR [rax+rcx]
	mov	ecx, DWORD PTR r$[rbp]
	call	_DIVREM_SINGLE_UNIT
	mov	DWORD PTR r$[rbp], eax

; 156  :         r = _DIVREM_SINGLE_UNIT(r, up[-1], v, &qp[-1]);

	mov	eax, 4
	imul	rax, rax, -1
	mov	rcx, QWORD PTR qp$[rbp]
	add	rcx, rax
	mov	rax, rcx
	mov	ecx, 4
	imul	rcx, rcx, -1
	mov	r9, rax
	mov	r8d, DWORD PTR v$[rbp]
	mov	rax, QWORD PTR up$[rbp]
	mov	edx, DWORD PTR [rax+rcx]
	mov	ecx, DWORD PTR r$[rbp]
	call	_DIVREM_SINGLE_UNIT
	mov	DWORD PTR r$[rbp], eax

; 157  :         r = _DIVREM_SINGLE_UNIT(r, up[-2], v, &qp[-2]);

	mov	eax, 4
	imul	rax, rax, -2
	mov	rcx, QWORD PTR qp$[rbp]
	add	rcx, rax
	mov	rax, rcx
	mov	ecx, 4
	imul	rcx, rcx, -2
	mov	r9, rax
	mov	r8d, DWORD PTR v$[rbp]
	mov	rax, QWORD PTR up$[rbp]
	mov	edx, DWORD PTR [rax+rcx]
	mov	ecx, DWORD PTR r$[rbp]
	call	_DIVREM_SINGLE_UNIT
	mov	DWORD PTR r$[rbp], eax

; 158  :         r = _DIVREM_SINGLE_UNIT(r, up[-3], v, &qp[-3]);

	mov	eax, 4
	imul	rax, rax, -3
	mov	rcx, QWORD PTR qp$[rbp]
	add	rcx, rax
	mov	rax, rcx
	mov	ecx, 4
	imul	rcx, rcx, -3
	mov	r9, rax
	mov	r8d, DWORD PTR v$[rbp]
	mov	rax, QWORD PTR up$[rbp]
	mov	edx, DWORD PTR [rax+rcx]
	mov	ecx, DWORD PTR r$[rbp]
	call	_DIVREM_SINGLE_UNIT
	mov	DWORD PTR r$[rbp], eax

; 159  :         r = _DIVREM_SINGLE_UNIT(r, up[-4], v, &qp[-4]);

	mov	eax, 4
	imul	rax, rax, -4
	mov	rcx, QWORD PTR qp$[rbp]
	add	rcx, rax
	mov	rax, rcx
	mov	ecx, 4
	imul	rcx, rcx, -4
	mov	r9, rax
	mov	r8d, DWORD PTR v$[rbp]
	mov	rax, QWORD PTR up$[rbp]
	mov	edx, DWORD PTR [rax+rcx]
	mov	ecx, DWORD PTR r$[rbp]
	call	_DIVREM_SINGLE_UNIT
	mov	DWORD PTR r$[rbp], eax

; 160  :         r = _DIVREM_SINGLE_UNIT(r, up[-5], v, &qp[-5]);

	mov	eax, 4
	imul	rax, rax, -5
	mov	rcx, QWORD PTR qp$[rbp]
	add	rcx, rax
	mov	rax, rcx
	mov	ecx, 4
	imul	rcx, rcx, -5
	mov	r9, rax
	mov	r8d, DWORD PTR v$[rbp]
	mov	rax, QWORD PTR up$[rbp]
	mov	edx, DWORD PTR [rax+rcx]
	mov	ecx, DWORD PTR r$[rbp]
	call	_DIVREM_SINGLE_UNIT
	mov	DWORD PTR r$[rbp], eax

; 161  :         r = _DIVREM_SINGLE_UNIT(r, up[-6], v, &qp[-6]);

	mov	eax, 4
	imul	rax, rax, -6
	mov	rcx, QWORD PTR qp$[rbp]
	add	rcx, rax
	mov	rax, rcx
	mov	ecx, 4
	imul	rcx, rcx, -6
	mov	r9, rax
	mov	r8d, DWORD PTR v$[rbp]
	mov	rax, QWORD PTR up$[rbp]
	mov	edx, DWORD PTR [rax+rcx]
	mov	ecx, DWORD PTR r$[rbp]
	call	_DIVREM_SINGLE_UNIT
	mov	DWORD PTR r$[rbp], eax

; 162  :         r = _DIVREM_SINGLE_UNIT(r, up[-7], v, &qp[-7]);

	mov	eax, 4
	imul	rax, rax, -7
	mov	rcx, QWORD PTR qp$[rbp]
	add	rcx, rax
	mov	rax, rcx
	mov	ecx, 4
	imul	rcx, rcx, -7
	mov	r9, rax
	mov	r8d, DWORD PTR v$[rbp]
	mov	rax, QWORD PTR up$[rbp]
	mov	edx, DWORD PTR [rax+rcx]
	mov	ecx, DWORD PTR r$[rbp]
	call	_DIVREM_SINGLE_UNIT
	mov	DWORD PTR r$[rbp], eax

; 163  :         r = _DIVREM_SINGLE_UNIT(r, up[-8], v, &qp[-8]);

	mov	eax, 4
	imul	rax, rax, -8
	mov	rcx, QWORD PTR qp$[rbp]
	add	rcx, rax
	mov	rax, rcx
	mov	ecx, 4
	imul	rcx, rcx, -8
	mov	r9, rax
	mov	r8d, DWORD PTR v$[rbp]
	mov	rax, QWORD PTR up$[rbp]
	mov	edx, DWORD PTR [rax+rcx]
	mov	ecx, DWORD PTR r$[rbp]
	call	_DIVREM_SINGLE_UNIT
	mov	DWORD PTR r$[rbp], eax

; 164  :         r = _DIVREM_SINGLE_UNIT(r, up[-9], v, &qp[-9]);

	mov	eax, 4
	imul	rax, rax, -9
	mov	rcx, QWORD PTR qp$[rbp]
	add	rcx, rax
	mov	rax, rcx
	mov	ecx, 4
	imul	rcx, rcx, -9
	mov	r9, rax
	mov	r8d, DWORD PTR v$[rbp]
	mov	rax, QWORD PTR up$[rbp]
	mov	edx, DWORD PTR [rax+rcx]
	mov	ecx, DWORD PTR r$[rbp]
	call	_DIVREM_SINGLE_UNIT
	mov	DWORD PTR r$[rbp], eax

; 165  :         r = _DIVREM_SINGLE_UNIT(r, up[-10], v, &qp[-10]);

	mov	eax, 4
	imul	rax, rax, -10
	mov	rcx, QWORD PTR qp$[rbp]
	add	rcx, rax
	mov	rax, rcx
	mov	ecx, 4
	imul	rcx, rcx, -10
	mov	r9, rax
	mov	r8d, DWORD PTR v$[rbp]
	mov	rax, QWORD PTR up$[rbp]
	mov	edx, DWORD PTR [rax+rcx]
	mov	ecx, DWORD PTR r$[rbp]
	call	_DIVREM_SINGLE_UNIT
	mov	DWORD PTR r$[rbp], eax

; 166  :         r = _DIVREM_SINGLE_UNIT(r, up[-11], v, &qp[-11]);

	mov	eax, 4
	imul	rax, rax, -11
	mov	rcx, QWORD PTR qp$[rbp]
	add	rcx, rax
	mov	rax, rcx
	mov	ecx, 4
	imul	rcx, rcx, -11
	mov	r9, rax
	mov	r8d, DWORD PTR v$[rbp]
	mov	rax, QWORD PTR up$[rbp]
	mov	edx, DWORD PTR [rax+rcx]
	mov	ecx, DWORD PTR r$[rbp]
	call	_DIVREM_SINGLE_UNIT
	mov	DWORD PTR r$[rbp], eax

; 167  :         r = _DIVREM_SINGLE_UNIT(r, up[-12], v, &qp[-12]);

	mov	eax, 4
	imul	rax, rax, -12
	mov	rcx, QWORD PTR qp$[rbp]
	add	rcx, rax
	mov	rax, rcx
	mov	ecx, 4
	imul	rcx, rcx, -12
	mov	r9, rax
	mov	r8d, DWORD PTR v$[rbp]
	mov	rax, QWORD PTR up$[rbp]
	mov	edx, DWORD PTR [rax+rcx]
	mov	ecx, DWORD PTR r$[rbp]
	call	_DIVREM_SINGLE_UNIT
	mov	DWORD PTR r$[rbp], eax

; 168  :         r = _DIVREM_SINGLE_UNIT(r, up[-13], v, &qp[-13]);

	mov	eax, 4
	imul	rax, rax, -13
	mov	rcx, QWORD PTR qp$[rbp]
	add	rcx, rax
	mov	rax, rcx
	mov	ecx, 4
	imul	rcx, rcx, -13
	mov	r9, rax
	mov	r8d, DWORD PTR v$[rbp]
	mov	rax, QWORD PTR up$[rbp]
	mov	edx, DWORD PTR [rax+rcx]
	mov	ecx, DWORD PTR r$[rbp]
	call	_DIVREM_SINGLE_UNIT
	mov	DWORD PTR r$[rbp], eax

; 169  :         r = _DIVREM_SINGLE_UNIT(r, up[-14], v, &qp[-14]);

	mov	eax, 4
	imul	rax, rax, -14
	mov	rcx, QWORD PTR qp$[rbp]
	add	rcx, rax
	mov	rax, rcx
	mov	ecx, 4
	imul	rcx, rcx, -14
	mov	r9, rax
	mov	r8d, DWORD PTR v$[rbp]
	mov	rax, QWORD PTR up$[rbp]
	mov	edx, DWORD PTR [rax+rcx]
	mov	ecx, DWORD PTR r$[rbp]
	call	_DIVREM_SINGLE_UNIT
	mov	DWORD PTR r$[rbp], eax

; 170  :         r = _DIVREM_SINGLE_UNIT(r, up[-15], v, &qp[-15]);

	mov	eax, 4
	imul	rax, rax, -15
	mov	rcx, QWORD PTR qp$[rbp]
	add	rcx, rax
	mov	rax, rcx
	mov	ecx, 4
	imul	rcx, rcx, -15
	mov	r9, rax
	mov	r8d, DWORD PTR v$[rbp]
	mov	rax, QWORD PTR up$[rbp]
	mov	edx, DWORD PTR [rax+rcx]
	mov	ecx, DWORD PTR r$[rbp]
	call	_DIVREM_SINGLE_UNIT
	mov	DWORD PTR r$[rbp], eax

; 171  :         up -= 16;

	mov	rax, QWORD PTR up$[rbp]
	sub	rax, 64					; 00000040H
	mov	QWORD PTR up$[rbp], rax

; 172  :         qp -= 16;

	mov	rax, QWORD PTR qp$[rbp]
	sub	rax, 64					; 00000040H
	mov	QWORD PTR qp$[rbp], rax

; 173  : #ifdef ENABLED_PERFORMANCE_COUNTER
; 174  :         if (sizeof(r) == sizeof(_UINT64_T))

	xor	eax, eax
	test	eax, eax
	je	SHORT $LN10@DivRem_X_1

; 175  :             AddToDIV64Counter(16);

	mov	ecx, 16
	call	AddToDIV64Counter
	jmp	SHORT $LN11@DivRem_X_1
$LN10@DivRem_X_1:

; 176  :         else
; 177  :             AddToDIV32Counter(16);

	mov	ecx, 16
	call	AddToDIV32Counter
$LN11@DivRem_X_1:
$LN9@DivRem_X_1:

; 178  : #endif
; 179  :     }
; 180  : 
; 181  :     if (u_count & 0x8)

	mov	rax, QWORD PTR u_count$[rbp]
	and	rax, 8
	test	rax, rax
	je	$LN12@DivRem_X_1

; 182  :     {
; 183  :         r = _DIVREM_SINGLE_UNIT(r, up[-0], v, &qp[-0]);

	mov	eax, 4
	imul	rax, rax, 0
	mov	rcx, QWORD PTR qp$[rbp]
	add	rcx, rax
	mov	rax, rcx
	mov	ecx, 4
	imul	rcx, rcx, 0
	mov	r9, rax
	mov	r8d, DWORD PTR v$[rbp]
	mov	rax, QWORD PTR up$[rbp]
	mov	edx, DWORD PTR [rax+rcx]
	mov	ecx, DWORD PTR r$[rbp]
	call	_DIVREM_SINGLE_UNIT
	mov	DWORD PTR r$[rbp], eax

; 184  :         r = _DIVREM_SINGLE_UNIT(r, up[-1], v, &qp[-1]);

	mov	eax, 4
	imul	rax, rax, -1
	mov	rcx, QWORD PTR qp$[rbp]
	add	rcx, rax
	mov	rax, rcx
	mov	ecx, 4
	imul	rcx, rcx, -1
	mov	r9, rax
	mov	r8d, DWORD PTR v$[rbp]
	mov	rax, QWORD PTR up$[rbp]
	mov	edx, DWORD PTR [rax+rcx]
	mov	ecx, DWORD PTR r$[rbp]
	call	_DIVREM_SINGLE_UNIT
	mov	DWORD PTR r$[rbp], eax

; 185  :         r = _DIVREM_SINGLE_UNIT(r, up[-2], v, &qp[-2]);

	mov	eax, 4
	imul	rax, rax, -2
	mov	rcx, QWORD PTR qp$[rbp]
	add	rcx, rax
	mov	rax, rcx
	mov	ecx, 4
	imul	rcx, rcx, -2
	mov	r9, rax
	mov	r8d, DWORD PTR v$[rbp]
	mov	rax, QWORD PTR up$[rbp]
	mov	edx, DWORD PTR [rax+rcx]
	mov	ecx, DWORD PTR r$[rbp]
	call	_DIVREM_SINGLE_UNIT
	mov	DWORD PTR r$[rbp], eax

; 186  :         r = _DIVREM_SINGLE_UNIT(r, up[-3], v, &qp[-3]);

	mov	eax, 4
	imul	rax, rax, -3
	mov	rcx, QWORD PTR qp$[rbp]
	add	rcx, rax
	mov	rax, rcx
	mov	ecx, 4
	imul	rcx, rcx, -3
	mov	r9, rax
	mov	r8d, DWORD PTR v$[rbp]
	mov	rax, QWORD PTR up$[rbp]
	mov	edx, DWORD PTR [rax+rcx]
	mov	ecx, DWORD PTR r$[rbp]
	call	_DIVREM_SINGLE_UNIT
	mov	DWORD PTR r$[rbp], eax

; 187  :         r = _DIVREM_SINGLE_UNIT(r, up[-4], v, &qp[-4]);

	mov	eax, 4
	imul	rax, rax, -4
	mov	rcx, QWORD PTR qp$[rbp]
	add	rcx, rax
	mov	rax, rcx
	mov	ecx, 4
	imul	rcx, rcx, -4
	mov	r9, rax
	mov	r8d, DWORD PTR v$[rbp]
	mov	rax, QWORD PTR up$[rbp]
	mov	edx, DWORD PTR [rax+rcx]
	mov	ecx, DWORD PTR r$[rbp]
	call	_DIVREM_SINGLE_UNIT
	mov	DWORD PTR r$[rbp], eax

; 188  :         r = _DIVREM_SINGLE_UNIT(r, up[-5], v, &qp[-5]);

	mov	eax, 4
	imul	rax, rax, -5
	mov	rcx, QWORD PTR qp$[rbp]
	add	rcx, rax
	mov	rax, rcx
	mov	ecx, 4
	imul	rcx, rcx, -5
	mov	r9, rax
	mov	r8d, DWORD PTR v$[rbp]
	mov	rax, QWORD PTR up$[rbp]
	mov	edx, DWORD PTR [rax+rcx]
	mov	ecx, DWORD PTR r$[rbp]
	call	_DIVREM_SINGLE_UNIT
	mov	DWORD PTR r$[rbp], eax

; 189  :         r = _DIVREM_SINGLE_UNIT(r, up[-6], v, &qp[-6]);

	mov	eax, 4
	imul	rax, rax, -6
	mov	rcx, QWORD PTR qp$[rbp]
	add	rcx, rax
	mov	rax, rcx
	mov	ecx, 4
	imul	rcx, rcx, -6
	mov	r9, rax
	mov	r8d, DWORD PTR v$[rbp]
	mov	rax, QWORD PTR up$[rbp]
	mov	edx, DWORD PTR [rax+rcx]
	mov	ecx, DWORD PTR r$[rbp]
	call	_DIVREM_SINGLE_UNIT
	mov	DWORD PTR r$[rbp], eax

; 190  :         r = _DIVREM_SINGLE_UNIT(r, up[-7], v, &qp[-7]);

	mov	eax, 4
	imul	rax, rax, -7
	mov	rcx, QWORD PTR qp$[rbp]
	add	rcx, rax
	mov	rax, rcx
	mov	ecx, 4
	imul	rcx, rcx, -7
	mov	r9, rax
	mov	r8d, DWORD PTR v$[rbp]
	mov	rax, QWORD PTR up$[rbp]
	mov	edx, DWORD PTR [rax+rcx]
	mov	ecx, DWORD PTR r$[rbp]
	call	_DIVREM_SINGLE_UNIT
	mov	DWORD PTR r$[rbp], eax

; 191  :         up -= 8;

	mov	rax, QWORD PTR up$[rbp]
	sub	rax, 32					; 00000020H
	mov	QWORD PTR up$[rbp], rax

; 192  :         qp -= 8;

	mov	rax, QWORD PTR qp$[rbp]
	sub	rax, 32					; 00000020H
	mov	QWORD PTR qp$[rbp], rax

; 193  : #ifdef ENABLED_PERFORMANCE_COUNTER
; 194  :         if (sizeof(r) == sizeof(_UINT64_T))

	xor	eax, eax
	test	eax, eax
	je	SHORT $LN13@DivRem_X_1

; 195  :             AddToDIV64Counter(8);

	mov	ecx, 8
	call	AddToDIV64Counter
	jmp	SHORT $LN14@DivRem_X_1
$LN13@DivRem_X_1:

; 196  :         else
; 197  :             AddToDIV32Counter(8);

	mov	ecx, 8
	call	AddToDIV32Counter
$LN14@DivRem_X_1:
$LN12@DivRem_X_1:

; 198  : #endif
; 199  :     }
; 200  : 
; 201  :     if (u_count & 0x4)

	mov	rax, QWORD PTR u_count$[rbp]
	and	rax, 4
	test	rax, rax
	je	$LN15@DivRem_X_1

; 202  :     {
; 203  :         r = _DIVREM_SINGLE_UNIT(r, up[-0], v, &qp[-0]);

	mov	eax, 4
	imul	rax, rax, 0
	mov	rcx, QWORD PTR qp$[rbp]
	add	rcx, rax
	mov	rax, rcx
	mov	ecx, 4
	imul	rcx, rcx, 0
	mov	r9, rax
	mov	r8d, DWORD PTR v$[rbp]
	mov	rax, QWORD PTR up$[rbp]
	mov	edx, DWORD PTR [rax+rcx]
	mov	ecx, DWORD PTR r$[rbp]
	call	_DIVREM_SINGLE_UNIT
	mov	DWORD PTR r$[rbp], eax

; 204  :         r = _DIVREM_SINGLE_UNIT(r, up[-1], v, &qp[-1]);

	mov	eax, 4
	imul	rax, rax, -1
	mov	rcx, QWORD PTR qp$[rbp]
	add	rcx, rax
	mov	rax, rcx
	mov	ecx, 4
	imul	rcx, rcx, -1
	mov	r9, rax
	mov	r8d, DWORD PTR v$[rbp]
	mov	rax, QWORD PTR up$[rbp]
	mov	edx, DWORD PTR [rax+rcx]
	mov	ecx, DWORD PTR r$[rbp]
	call	_DIVREM_SINGLE_UNIT
	mov	DWORD PTR r$[rbp], eax

; 205  :         r = _DIVREM_SINGLE_UNIT(r, up[-2], v, &qp[-2]);

	mov	eax, 4
	imul	rax, rax, -2
	mov	rcx, QWORD PTR qp$[rbp]
	add	rcx, rax
	mov	rax, rcx
	mov	ecx, 4
	imul	rcx, rcx, -2
	mov	r9, rax
	mov	r8d, DWORD PTR v$[rbp]
	mov	rax, QWORD PTR up$[rbp]
	mov	edx, DWORD PTR [rax+rcx]
	mov	ecx, DWORD PTR r$[rbp]
	call	_DIVREM_SINGLE_UNIT
	mov	DWORD PTR r$[rbp], eax

; 206  :         r = _DIVREM_SINGLE_UNIT(r, up[-3], v, &qp[-3]);

	mov	eax, 4
	imul	rax, rax, -3
	mov	rcx, QWORD PTR qp$[rbp]
	add	rcx, rax
	mov	rax, rcx
	mov	ecx, 4
	imul	rcx, rcx, -3
	mov	r9, rax
	mov	r8d, DWORD PTR v$[rbp]
	mov	rax, QWORD PTR up$[rbp]
	mov	edx, DWORD PTR [rax+rcx]
	mov	ecx, DWORD PTR r$[rbp]
	call	_DIVREM_SINGLE_UNIT
	mov	DWORD PTR r$[rbp], eax

; 207  :         up -= 4;

	mov	rax, QWORD PTR up$[rbp]
	sub	rax, 16
	mov	QWORD PTR up$[rbp], rax

; 208  :         qp -= 4;

	mov	rax, QWORD PTR qp$[rbp]
	sub	rax, 16
	mov	QWORD PTR qp$[rbp], rax

; 209  : #ifdef ENABLED_PERFORMANCE_COUNTER
; 210  :         if (sizeof(r) == sizeof(_UINT64_T))

	xor	eax, eax
	test	eax, eax
	je	SHORT $LN16@DivRem_X_1

; 211  :             AddToDIV64Counter(4);

	mov	ecx, 4
	call	AddToDIV64Counter
	jmp	SHORT $LN17@DivRem_X_1
$LN16@DivRem_X_1:

; 212  :         else
; 213  :             AddToDIV32Counter(4);

	mov	ecx, 4
	call	AddToDIV32Counter
$LN17@DivRem_X_1:
$LN15@DivRem_X_1:

; 214  : #endif
; 215  :     }
; 216  : 
; 217  :     if (u_count & 0x2)

	mov	rax, QWORD PTR u_count$[rbp]
	and	rax, 2
	test	rax, rax
	je	$LN18@DivRem_X_1

; 218  :     {
; 219  :         r = _DIVREM_SINGLE_UNIT(r, up[-0], v, &qp[-0]);

	mov	eax, 4
	imul	rax, rax, 0
	mov	rcx, QWORD PTR qp$[rbp]
	add	rcx, rax
	mov	rax, rcx
	mov	ecx, 4
	imul	rcx, rcx, 0
	mov	r9, rax
	mov	r8d, DWORD PTR v$[rbp]
	mov	rax, QWORD PTR up$[rbp]
	mov	edx, DWORD PTR [rax+rcx]
	mov	ecx, DWORD PTR r$[rbp]
	call	_DIVREM_SINGLE_UNIT
	mov	DWORD PTR r$[rbp], eax

; 220  :         r = _DIVREM_SINGLE_UNIT(r, up[-1], v, &qp[-1]);

	mov	eax, 4
	imul	rax, rax, -1
	mov	rcx, QWORD PTR qp$[rbp]
	add	rcx, rax
	mov	rax, rcx
	mov	ecx, 4
	imul	rcx, rcx, -1
	mov	r9, rax
	mov	r8d, DWORD PTR v$[rbp]
	mov	rax, QWORD PTR up$[rbp]
	mov	edx, DWORD PTR [rax+rcx]
	mov	ecx, DWORD PTR r$[rbp]
	call	_DIVREM_SINGLE_UNIT
	mov	DWORD PTR r$[rbp], eax

; 221  :         up -= 2;

	mov	rax, QWORD PTR up$[rbp]
	sub	rax, 8
	mov	QWORD PTR up$[rbp], rax

; 222  :         qp -= 2;

	mov	rax, QWORD PTR qp$[rbp]
	sub	rax, 8
	mov	QWORD PTR qp$[rbp], rax

; 223  : #ifdef ENABLED_PERFORMANCE_COUNTER
; 224  :         if (sizeof(r) == sizeof(_UINT64_T))

	xor	eax, eax
	test	eax, eax
	je	SHORT $LN19@DivRem_X_1

; 225  :             AddToDIV64Counter(2);

	mov	ecx, 2
	call	AddToDIV64Counter
	jmp	SHORT $LN20@DivRem_X_1
$LN19@DivRem_X_1:

; 226  :         else
; 227  :             AddToDIV32Counter(2);

	mov	ecx, 2
	call	AddToDIV32Counter
$LN20@DivRem_X_1:
$LN18@DivRem_X_1:

; 228  : #endif
; 229  :     }
; 230  : 
; 231  :     if (u_count & 0x1)

	mov	rax, QWORD PTR u_count$[rbp]
	and	rax, 1
	test	rax, rax
	je	SHORT $LN21@DivRem_X_1

; 232  :     {
; 233  :         r = _DIVREM_SINGLE_UNIT(r, up[-0], v, &qp[-0]);

	mov	eax, 4
	imul	rax, rax, 0
	mov	rcx, QWORD PTR qp$[rbp]
	add	rcx, rax
	mov	rax, rcx
	mov	ecx, 4
	imul	rcx, rcx, 0
	mov	r9, rax
	mov	r8d, DWORD PTR v$[rbp]
	mov	rax, QWORD PTR up$[rbp]
	mov	edx, DWORD PTR [rax+rcx]
	mov	ecx, DWORD PTR r$[rbp]
	call	_DIVREM_SINGLE_UNIT
	mov	DWORD PTR r$[rbp], eax

; 234  :         up -= 1;

	mov	rax, QWORD PTR up$[rbp]
	sub	rax, 4
	mov	QWORD PTR up$[rbp], rax

; 235  :         qp -= 1;

	mov	rax, QWORD PTR qp$[rbp]
	sub	rax, 4
	mov	QWORD PTR qp$[rbp], rax

; 236  : #ifdef ENABLED_PERFORMANCE_COUNTER
; 237  :         if (sizeof(r) == sizeof(_UINT64_T))

	xor	eax, eax
	test	eax, eax
	je	SHORT $LN22@DivRem_X_1

; 238  :             IncrementDIV64Counter();

	call	IncrementDIV64Counter
	jmp	SHORT $LN23@DivRem_X_1
$LN22@DivRem_X_1:

; 239  :         else
; 240  :             IncrementDIV32Counter();

	call	IncrementDIV32Counter
$LN23@DivRem_X_1:
$LN21@DivRem_X_1:

; 241  : #endif
; 242  :     }
; 243  : 
; 244  :     *r_buf = r;

	mov	rax, QWORD PTR r_buf$[rbp]
	mov	ecx, DWORD PTR r$[rbp]
	mov	DWORD PTR [rax], ecx

; 245  : }

	lea	rsp, QWORD PTR [rbp+360]
	pop	rdi
	pop	rbp
	ret	0
DivRem_X_1W ENDP
_TEXT	ENDS
END
