; Listing generated by Microsoft (R) Optimizing Compiler Version 19.16.27026.1 

include listing.inc

INCLUDELIB MSVCRTD
INCLUDELIB OLDNAMES

msvcjmc	SEGMENT
__7B7A869E_ctype@h DB 01H
__457DD326_basetsd@h DB 01H
__4384A2D9_corecrt_memcpy_s@h DB 01H
__4E51A221_corecrt_wstring@h DB 01H
__2140C079_string@h DB 01H
__1887E595_winnt@h DB 01H
__9FC7C64B_processthreadsapi@h DB 01H
__FA470AEC_memoryapi@h DB 01H
__F37DAFF1_winerror@h DB 01H
__7A450CCC_winbase@h DB 01H
__B4B40122_winioctl@h DB 01H
__86261D59_stralign@h DB 01H
__4522B509_pmc_internal@h DB 01H
__F5940173_pmc_compare@c DB 01H
msvcjmc	ENDS
PUBLIC	Compare_Imp
PUBLIC	Initialize_Compare
PUBLIC	PMC_Compare_X_I
PUBLIC	PMC_Compare_X_L
PUBLIC	PMC_Compare_X_X
PUBLIC	__JustMyCode_Default
EXTRN	CheckNumber:PROC
EXTRN	_RTC_CheckStackVars:PROC
EXTRN	_RTC_InitBase:PROC
EXTRN	_RTC_Shutdown:PROC
EXTRN	__CheckForDebuggerJustMyCode:PROC
;	COMDAT pdata
pdata	SEGMENT
$pdata$Compare_Imp DD imagerel $LN9
	DD	imagerel $LN9+251
	DD	imagerel $unwind$Compare_Imp
pdata	ENDS
;	COMDAT pdata
pdata	SEGMENT
$pdata$Initialize_Compare DD imagerel $LN3
	DD	imagerel $LN3+66
	DD	imagerel $unwind$Initialize_Compare
pdata	ENDS
;	COMDAT pdata
pdata	SEGMENT
$pdata$PMC_Compare_X_I DD imagerel $LN21
	DD	imagerel $LN21+444
	DD	imagerel $unwind$PMC_Compare_X_I
pdata	ENDS
;	COMDAT pdata
pdata	SEGMENT
$pdata$PMC_Compare_X_L DD imagerel $LN45
	DD	imagerel $LN45+1022
	DD	imagerel $unwind$PMC_Compare_X_L
pdata	ENDS
;	COMDAT pdata
pdata	SEGMENT
$pdata$PMC_Compare_X_X DD imagerel $LN18
	DD	imagerel $LN18+435
	DD	imagerel $unwind$PMC_Compare_X_X
pdata	ENDS
;	COMDAT pdata
pdata	SEGMENT
$pdata$_FROMDWORDTOWORD DD imagerel _FROMDWORDTOWORD
	DD	imagerel _FROMDWORDTOWORD+95
	DD	imagerel $unwind$_FROMDWORDTOWORD
pdata	ENDS
;	COMDAT pdata
pdata	SEGMENT
$pdata$_LZCNT_ALT_32 DD imagerel _LZCNT_ALT_32
	DD	imagerel _LZCNT_ALT_32+126
	DD	imagerel $unwind$_LZCNT_ALT_32
pdata	ENDS
;	COMDAT pdata
pdata	SEGMENT
$pdata$_LZCNT_ALT_UNIT DD imagerel _LZCNT_ALT_UNIT
	DD	imagerel _LZCNT_ALT_UNIT+131
	DD	imagerel $unwind$_LZCNT_ALT_UNIT
pdata	ENDS
;	COMDAT rtc$TMZ
rtc$TMZ	SEGMENT
_RTC_Shutdown.rtc$TMZ DQ FLAT:_RTC_Shutdown
rtc$TMZ	ENDS
;	COMDAT rtc$IMZ
rtc$IMZ	SEGMENT
_RTC_InitBase.rtc$IMZ DQ FLAT:_RTC_InitBase
rtc$IMZ	ENDS
;	COMDAT xdata
xdata	SEGMENT
$unwind$_LZCNT_ALT_UNIT DD 025052a01H
	DD	010e2313H
	DD	070070021H
	DD	05006H
xdata	ENDS
;	COMDAT CONST
CONST	SEGMENT
_LZCNT_ALT_UNIT$rtcName$0 DB 070H
	DB	06fH
	DB	073H
	DB	00H
	ORG $+12
_LZCNT_ALT_UNIT$rtcVarDesc DD 024H
	DD	04H
	DQ	FLAT:_LZCNT_ALT_UNIT$rtcName$0
	ORG $+48
_LZCNT_ALT_UNIT$rtcFrameData DD 01H
	DD	00H
	DQ	FLAT:_LZCNT_ALT_UNIT$rtcVarDesc
CONST	ENDS
;	COMDAT xdata
xdata	SEGMENT
$unwind$_LZCNT_ALT_32 DD 025052801H
	DD	010d2312H
	DD	070060021H
	DD	05005H
xdata	ENDS
;	COMDAT CONST
CONST	SEGMENT
_LZCNT_ALT_32$rtcName$0 DB 070H
	DB	06fH
	DB	073H
	DB	00H
	ORG $+12
_LZCNT_ALT_32$rtcVarDesc DD 024H
	DD	04H
	DQ	FLAT:_LZCNT_ALT_32$rtcName$0
	ORG $+48
_LZCNT_ALT_32$rtcFrameData DD 01H
	DD	00H
	DQ	FLAT:_LZCNT_ALT_32$rtcVarDesc
CONST	ENDS
;	COMDAT xdata
xdata	SEGMENT
$unwind$_FROMDWORDTOWORD DD 025052f01H
	DD	01132318H
	DD	0700c001dH
	DD	0500bH
xdata	ENDS
;	COMDAT xdata
xdata	SEGMENT
$unwind$PMC_Compare_X_X DD 025053401H
	DD	0118231dH
	DD	070110031H
	DD	05010H
xdata	ENDS
;	COMDAT xdata
xdata	SEGMENT
$unwind$PMC_Compare_X_L DD 025053401H
	DD	0118231dH
	DD	070110041H
	DD	05010H
xdata	ENDS
;	COMDAT CONST
CONST	SEGMENT
PMC_Compare_X_L$rtcName$0 DB 076H
	DB	05fH
	DB	068H
	DB	069H
	DB	00H
	ORG $+11
PMC_Compare_X_L$rtcVarDesc DD 084H
	DD	04H
	DQ	FLAT:PMC_Compare_X_L$rtcName$0
	ORG $+48
PMC_Compare_X_L$rtcFrameData DD 01H
	DD	00H
	DQ	FLAT:PMC_Compare_X_L$rtcVarDesc
CONST	ENDS
;	COMDAT xdata
xdata	SEGMENT
$unwind$PMC_Compare_X_I DD 025053301H
	DD	0117231cH
	DD	07010002dH
	DD	0500fH
xdata	ENDS
;	COMDAT xdata
xdata	SEGMENT
$unwind$Initialize_Compare DD 025052a01H
	DD	010e2313H
	DD	07007001dH
	DD	05006H
xdata	ENDS
;	COMDAT xdata
xdata	SEGMENT
$unwind$Compare_Imp DD 025053401H
	DD	0118231dH
	DD	07011001dH
	DD	05010H
xdata	ENDS
; Function compile flags: /Odt
;	COMDAT __JustMyCode_Default
_TEXT	SEGMENT
__JustMyCode_Default PROC				; COMDAT
	ret	0
__JustMyCode_Default ENDP
_TEXT	ENDS
; Function compile flags: /Odtp /RTCsu /ZI
; File z:\sources\lunor\repos\rougemeilland\palmtree.math.core.implements\palmtree.math.core.implements\pmc_internal.h
;	COMDAT _LZCNT_ALT_UNIT
_TEXT	SEGMENT
pos$ = 4
x$ = 256
_LZCNT_ALT_UNIT PROC					; COMDAT

; 859  : {

	mov	QWORD PTR [rsp+8], rcx
	push	rbp
	push	rdi
	sub	rsp, 264				; 00000108H
	lea	rbp, QWORD PTR [rsp+32]
	mov	rdi, rsp
	mov	ecx, 66					; 00000042H
	mov	eax, -858993460				; ccccccccH
	rep stosd
	mov	rcx, QWORD PTR [rsp+296]
	lea	rcx, OFFSET FLAT:__4522B509_pmc_internal@h
	call	__CheckForDebuggerJustMyCode

; 860  :     if (x == 0)

	cmp	QWORD PTR x$[rbp], 0
	jne	SHORT $LN2@LZCNT_ALT_

; 861  :         return (sizeof(x) * 8);

	mov	eax, 64					; 00000040H
	jmp	SHORT $LN1@LZCNT_ALT_
$LN2@LZCNT_ALT_:

; 862  : #ifdef _M_IX86
; 863  :     _UINT32_T pos;
; 864  : #ifdef _MSC_VER
; 865  :     _BitScanReverse(&pos, x);
; 866  : #elif defined(__GNUC__)
; 867  :     __asm__("bsrl %1, %0" : "=r"(pos) : "rm"(x));
; 868  : #else
; 869  : #error unknown compiler
; 870  : #endif
; 871  : #elif defined(_M_X64)
; 872  : #ifdef _MSC_VER
; 873  :     _UINT32_T pos;
; 874  :     _BitScanReverse64(&pos, x);

	mov	rax, QWORD PTR x$[rbp]
	bsr	rax, rax
	mov	DWORD PTR pos$[rbp], eax

; 875  : #elif defined(__GNUC__)
; 876  :     _UINT64_T pos;
; 877  :     __asm__("bsrq %1, %0" : "=r"(pos) : "rm"(x));
; 878  : #else
; 879  : #error unknown compiler
; 880  : #endif
; 881  : #else
; 882  : #error unknown platform
; 883  : #endif
; 884  :     return (sizeof(x) * 8 - 1 - pos);

	mov	eax, DWORD PTR pos$[rbp]
	mov	ecx, 63					; 0000003fH
	sub	rcx, rax
	mov	rax, rcx
$LN1@LZCNT_ALT_:

; 885  : }

	mov	rdi, rax
	lea	rcx, QWORD PTR [rbp-32]
	lea	rdx, OFFSET FLAT:_LZCNT_ALT_UNIT$rtcFrameData
	call	_RTC_CheckStackVars
	mov	rax, rdi
	lea	rsp, QWORD PTR [rbp+232]
	pop	rdi
	pop	rbp
	ret	0
_LZCNT_ALT_UNIT ENDP
_TEXT	ENDS
; Function compile flags: /Odtp /RTCsu /ZI
; File z:\sources\lunor\repos\rougemeilland\palmtree.math.core.implements\palmtree.math.core.implements\pmc_internal.h
;	COMDAT _LZCNT_ALT_32
_TEXT	SEGMENT
pos$ = 4
x$ = 256
_LZCNT_ALT_32 PROC					; COMDAT

; 826  : {

	mov	DWORD PTR [rsp+8], ecx
	push	rbp
	push	rdi
	sub	rsp, 264				; 00000108H
	lea	rbp, QWORD PTR [rsp+32]
	mov	rdi, rsp
	mov	ecx, 66					; 00000042H
	mov	eax, -858993460				; ccccccccH
	rep stosd
	mov	ecx, DWORD PTR [rsp+296]
	lea	rcx, OFFSET FLAT:__4522B509_pmc_internal@h
	call	__CheckForDebuggerJustMyCode

; 827  :     if (x == 0)

	cmp	DWORD PTR x$[rbp], 0
	jne	SHORT $LN2@LZCNT_ALT_

; 828  :         return (sizeof(x) * 8);

	mov	eax, 32					; 00000020H
	jmp	SHORT $LN1@LZCNT_ALT_
$LN2@LZCNT_ALT_:

; 829  :     _UINT32_T pos;
; 830  : #ifdef _MSC_VER
; 831  :     _BitScanReverse(&pos, x);

	mov	eax, DWORD PTR x$[rbp]
	bsr	eax, eax
	mov	DWORD PTR pos$[rbp], eax

; 832  : #elif defined(__GNUC__)
; 833  :     __asm__( "bsrl %1, %0" : "=r"(pos) : "rm"(x) );
; 834  : #else
; 835  : #error unknown compiler
; 836  : #endif
; 837  :     return (sizeof(x) * 8 - 1 - pos);

	mov	eax, DWORD PTR pos$[rbp]
	mov	ecx, 31
	sub	rcx, rax
	mov	rax, rcx
$LN1@LZCNT_ALT_:

; 838  : }

	mov	rdi, rax
	lea	rcx, QWORD PTR [rbp-32]
	lea	rdx, OFFSET FLAT:_LZCNT_ALT_32$rtcFrameData
	call	_RTC_CheckStackVars
	mov	rax, rdi
	lea	rsp, QWORD PTR [rbp+232]
	pop	rdi
	pop	rbp
	ret	0
_LZCNT_ALT_32 ENDP
_TEXT	ENDS
; Function compile flags: /Odtp /RTCsu /ZI
; File z:\sources\lunor\repos\rougemeilland\palmtree.math.core.implements\palmtree.math.core.implements\pmc_internal.h
;	COMDAT _FROMDWORDTOWORD
_TEXT	SEGMENT
value$ = 224
result_high$ = 232
_FROMDWORDTOWORD PROC					; COMDAT

; 412  : {

	mov	QWORD PTR [rsp+16], rdx
	mov	QWORD PTR [rsp+8], rcx
	push	rbp
	push	rdi
	sub	rsp, 232				; 000000e8H
	lea	rbp, QWORD PTR [rsp+32]
	mov	rdi, rsp
	mov	ecx, 58					; 0000003aH
	mov	eax, -858993460				; ccccccccH
	rep stosd
	mov	rcx, QWORD PTR [rsp+264]
	lea	rcx, OFFSET FLAT:__4522B509_pmc_internal@h
	call	__CheckForDebuggerJustMyCode

; 413  :     *result_high = (_UINT32_T)(value >> 32);

	mov	rax, QWORD PTR value$[rbp]
	shr	rax, 32					; 00000020H
	mov	rcx, QWORD PTR result_high$[rbp]
	mov	DWORD PTR [rcx], eax

; 414  :     return ((_UINT32_T)value);

	mov	eax, DWORD PTR value$[rbp]

; 415  : }

	lea	rsp, QWORD PTR [rbp+200]
	pop	rdi
	pop	rbp
	ret	0
_FROMDWORDTOWORD ENDP
_TEXT	ENDS
; Function compile flags: /Odtp /RTCsu /ZI
; File z:\sources\lunor\repos\rougemeilland\palmtree.math.core.implements\palmtree.math.core.implements\pmc_compare.c
;	COMDAT PMC_Compare_X_X
_TEXT	SEGMENT
nu$ = 8
nv$ = 40
result$ = 68
u_bit_count$1 = 104
v_bit_count$2 = 136
tv81 = 340
u$ = 384
v$ = 392
w$ = 400
PMC_Compare_X_X PROC					; COMDAT

; 257  : {

$LN18:
	mov	QWORD PTR [rsp+24], r8
	mov	QWORD PTR [rsp+16], rdx
	mov	QWORD PTR [rsp+8], rcx
	push	rbp
	push	rdi
	sub	rsp, 392				; 00000188H
	lea	rbp, QWORD PTR [rsp+32]
	mov	rdi, rsp
	mov	ecx, 98					; 00000062H
	mov	eax, -858993460				; ccccccccH
	rep stosd
	mov	rcx, QWORD PTR [rsp+424]
	lea	rcx, OFFSET FLAT:__F5940173_pmc_compare@c
	call	__CheckForDebuggerJustMyCode

; 258  :     if (u == NULL)

	cmp	QWORD PTR u$[rbp], 0
	jne	SHORT $LN2@PMC_Compar

; 259  :         return (PMC_STATUS_ARGUMENT_ERROR);

	mov	eax, -1
	jmp	$LN1@PMC_Compar
$LN2@PMC_Compar:

; 260  :     if (v == NULL)

	cmp	QWORD PTR v$[rbp], 0
	jne	SHORT $LN3@PMC_Compar

; 261  :         return (PMC_STATUS_ARGUMENT_ERROR);

	mov	eax, -1
	jmp	$LN1@PMC_Compar
$LN3@PMC_Compar:

; 262  :     if (w == NULL)

	cmp	QWORD PTR w$[rbp], 0
	jne	SHORT $LN4@PMC_Compar

; 263  :         return (PMC_STATUS_ARGUMENT_ERROR);

	mov	eax, -1
	jmp	$LN1@PMC_Compar
$LN4@PMC_Compar:

; 264  :     NUMBER_HEADER* nu = (NUMBER_HEADER*)u;

	mov	rax, QWORD PTR u$[rbp]
	mov	QWORD PTR nu$[rbp], rax

; 265  :     NUMBER_HEADER* nv = (NUMBER_HEADER*)v;

	mov	rax, QWORD PTR v$[rbp]
	mov	QWORD PTR nv$[rbp], rax

; 266  :     PMC_STATUS_CODE result;
; 267  :     if ((result = CheckNumber(nu)) != PMC_STATUS_OK)

	mov	rcx, QWORD PTR nu$[rbp]
	call	CheckNumber
	mov	DWORD PTR result$[rbp], eax
	cmp	DWORD PTR result$[rbp], 0
	je	SHORT $LN5@PMC_Compar

; 268  :         return (result);

	mov	eax, DWORD PTR result$[rbp]
	jmp	$LN1@PMC_Compar
$LN5@PMC_Compar:

; 269  :     if ((result = CheckNumber(nv)) != PMC_STATUS_OK)

	mov	rcx, QWORD PTR nv$[rbp]
	call	CheckNumber
	mov	DWORD PTR result$[rbp], eax
	cmp	DWORD PTR result$[rbp], 0
	je	SHORT $LN6@PMC_Compar

; 270  :         return (result);

	mov	eax, DWORD PTR result$[rbp]
	jmp	$LN1@PMC_Compar
$LN6@PMC_Compar:

; 271  :     if (nu->IS_ZERO)

	mov	rax, QWORD PTR nu$[rbp]
	mov	eax, DWORD PTR [rax+32]
	shr	eax, 1
	and	eax, 1
	test	eax, eax
	je	SHORT $LN7@PMC_Compar

; 272  :     {
; 273  :         *w = nv->IS_ZERO ? 0 : -1;

	mov	rax, QWORD PTR nv$[rbp]
	mov	eax, DWORD PTR [rax+32]
	shr	eax, 1
	and	eax, 1
	test	eax, eax
	je	SHORT $LN16@PMC_Compar
	mov	DWORD PTR tv81[rbp], 0
	jmp	SHORT $LN17@PMC_Compar
$LN16@PMC_Compar:
	mov	DWORD PTR tv81[rbp], -1
$LN17@PMC_Compar:
	mov	rax, QWORD PTR w$[rbp]
	mov	ecx, DWORD PTR tv81[rbp]
	mov	DWORD PTR [rax], ecx

; 274  :     }

	jmp	$LN8@PMC_Compar
$LN7@PMC_Compar:

; 275  :     else if (nv->IS_ZERO)

	mov	rax, QWORD PTR nv$[rbp]
	mov	eax, DWORD PTR [rax+32]
	shr	eax, 1
	and	eax, 1
	test	eax, eax
	je	SHORT $LN9@PMC_Compar

; 276  :     {
; 277  :         *w = 1;

	mov	rax, QWORD PTR w$[rbp]
	mov	DWORD PTR [rax], 1

; 278  :     }

	jmp	SHORT $LN10@PMC_Compar
$LN9@PMC_Compar:

; 279  :     else
; 280  :     {
; 281  :         __UNIT_TYPE u_bit_count = nu->UNIT_BIT_COUNT;

	mov	rax, QWORD PTR nu$[rbp]
	mov	rax, QWORD PTR [rax+8]
	mov	QWORD PTR u_bit_count$1[rbp], rax

; 282  :         __UNIT_TYPE v_bit_count = nv->UNIT_BIT_COUNT;

	mov	rax, QWORD PTR nv$[rbp]
	mov	rax, QWORD PTR [rax+8]
	mov	QWORD PTR v_bit_count$2[rbp], rax

; 283  :         if (u_bit_count > v_bit_count)

	mov	rax, QWORD PTR v_bit_count$2[rbp]
	cmp	QWORD PTR u_bit_count$1[rbp], rax
	jbe	SHORT $LN11@PMC_Compar

; 284  :         {
; 285  :             // 明らかに u > v である場合
; 286  :             *w = 1;

	mov	rax, QWORD PTR w$[rbp]
	mov	DWORD PTR [rax], 1

; 287  :         }

	jmp	SHORT $LN12@PMC_Compar
$LN11@PMC_Compar:

; 288  :         else if (u_bit_count < v_bit_count)

	mov	rax, QWORD PTR v_bit_count$2[rbp]
	cmp	QWORD PTR u_bit_count$1[rbp], rax
	jae	SHORT $LN13@PMC_Compar

; 289  :         {
; 290  :             // 明らかに u < v である場合
; 291  :             *w = -1;

	mov	rax, QWORD PTR w$[rbp]
	mov	DWORD PTR [rax], -1

; 292  :         }

	jmp	SHORT $LN14@PMC_Compar
$LN13@PMC_Compar:

; 293  :         else
; 294  :         {
; 295  :             // u > 0 && v > 0 かつ u のビット長と v のビット長が等しい場合
; 296  :             *w = Compare_Imp(nu->BLOCK, nv->BLOCK, nu->UNIT_WORD_COUNT);

	mov	rax, QWORD PTR nu$[rbp]
	mov	r8, QWORD PTR [rax]
	mov	rax, QWORD PTR nv$[rbp]
	mov	rdx, QWORD PTR [rax+48]
	mov	rax, QWORD PTR nu$[rbp]
	mov	rcx, QWORD PTR [rax+48]
	call	Compare_Imp
	mov	rcx, QWORD PTR w$[rbp]
	mov	DWORD PTR [rcx], eax
$LN14@PMC_Compar:
$LN12@PMC_Compar:
$LN10@PMC_Compar:
$LN8@PMC_Compar:

; 297  :         }
; 298  :     }
; 299  :     return (PMC_STATUS_OK);

	xor	eax, eax
$LN1@PMC_Compar:

; 300  : }

	lea	rsp, QWORD PTR [rbp+360]
	pop	rdi
	pop	rbp
	ret	0
PMC_Compare_X_X ENDP
_TEXT	ENDS
; Function compile flags: /Odtp /RTCsu /ZI
; File z:\sources\lunor\repos\rougemeilland\palmtree.math.core.implements\palmtree.math.core.implements\pmc_compare.c
;	COMDAT PMC_Compare_X_L
_TEXT	SEGMENT
nu$ = 8
result$ = 36
u_bit_count$4 = 72
v_hi$5 = 100
v_lo$6 = 132
v_bit_count$7 = 168
v_bit_count$8 = 200
u_bit_count$9 = 232
v_bit_count$10 = 264
u$ = 512
v$ = 520
w$ = 528
PMC_Compare_X_L PROC					; COMDAT

; 124  : {

$LN45:
	mov	QWORD PTR [rsp+24], r8
	mov	QWORD PTR [rsp+16], rdx
	mov	QWORD PTR [rsp+8], rcx
	push	rbp
	push	rdi
	sub	rsp, 520				; 00000208H
	lea	rbp, QWORD PTR [rsp+32]
	mov	rdi, rsp
	mov	ecx, 130				; 00000082H
	mov	eax, -858993460				; ccccccccH
	rep stosd
	mov	rcx, QWORD PTR [rsp+552]
	lea	rcx, OFFSET FLAT:__F5940173_pmc_compare@c
	call	__CheckForDebuggerJustMyCode

; 125  :     if (__UNIT_TYPE_BIT_COUNT * 2 < sizeof(v) * 8)

	xor	eax, eax
	test	eax, eax
	je	SHORT $LN2@PMC_Compar

; 126  :     {
; 127  :         // _UINT64_T が 2 ワードで表現しきれない処理系には対応しない
; 128  :         return (PMC_STATUS_INTERNAL_ERROR);

	mov	eax, -256				; ffffffffffffff00H
	jmp	$LN1@PMC_Compar
$LN2@PMC_Compar:

; 129  :     }
; 130  :     if (u == NULL)

	cmp	QWORD PTR u$[rbp], 0
	jne	SHORT $LN3@PMC_Compar

; 131  :         return (PMC_STATUS_ARGUMENT_ERROR);

	mov	eax, -1
	jmp	$LN1@PMC_Compar
$LN3@PMC_Compar:

; 132  :     if (w == NULL)

	cmp	QWORD PTR w$[rbp], 0
	jne	SHORT $LN4@PMC_Compar

; 133  :         return (PMC_STATUS_ARGUMENT_ERROR);

	mov	eax, -1
	jmp	$LN1@PMC_Compar
$LN4@PMC_Compar:

; 134  :     NUMBER_HEADER* nu = (NUMBER_HEADER*)u;

	mov	rax, QWORD PTR u$[rbp]
	mov	QWORD PTR nu$[rbp], rax

; 135  :     PMC_STATUS_CODE result;
; 136  :     if ((result = CheckNumber(nu)) != PMC_STATUS_OK)

	mov	rcx, QWORD PTR nu$[rbp]
	call	CheckNumber
	mov	DWORD PTR result$[rbp], eax
	cmp	DWORD PTR result$[rbp], 0
	je	SHORT $LN5@PMC_Compar

; 137  :         return (result);

	mov	eax, DWORD PTR result$[rbp]
	jmp	$LN1@PMC_Compar
$LN5@PMC_Compar:

; 138  :     if (nu->IS_ZERO)

	mov	rax, QWORD PTR nu$[rbp]
	mov	eax, DWORD PTR [rax+32]
	shr	eax, 1
	and	eax, 1
	test	eax, eax
	je	SHORT $LN6@PMC_Compar

; 139  :     {
; 140  :         // u が 0 である場合
; 141  :         if (v == 0)

	cmp	QWORD PTR v$[rbp], 0
	jne	SHORT $LN8@PMC_Compar

; 142  :         {
; 143  :             // v が 0 である場合
; 144  :             *w = 0;

	mov	rax, QWORD PTR w$[rbp]
	mov	DWORD PTR [rax], 0

; 145  :         }

	jmp	SHORT $LN9@PMC_Compar
$LN8@PMC_Compar:

; 146  :         else
; 147  :         {
; 148  :             // v が 0 でない場合
; 149  :             *w = -1;

	mov	rax, QWORD PTR w$[rbp]
	mov	DWORD PTR [rax], -1
$LN9@PMC_Compar:

; 150  :         }
; 151  :     }

	jmp	$LN7@PMC_Compar
$LN6@PMC_Compar:

; 152  :     else if (v == 0)

	cmp	QWORD PTR v$[rbp], 0
	jne	SHORT $LN10@PMC_Compar

; 153  :     {
; 154  :         // v が 0 である場合
; 155  :         *w = 1;

	mov	rax, QWORD PTR w$[rbp]
	mov	DWORD PTR [rax], 1

; 156  :     }

	jmp	$LN11@PMC_Compar
$LN10@PMC_Compar:

; 157  :     else
; 158  :     {
; 159  :         // u と v がともに 0 ではない場合
; 160  :         if (__UNIT_TYPE_BIT_COUNT < sizeof(v) * 8)

	xor	eax, eax
	test	eax, eax
	je	$LN12@PMC_Compar

; 161  :         {
; 162  :             // _UINT64_T が 1 ワードで表現しきれない場合
; 163  :             __UNIT_TYPE u_bit_count = nu->UNIT_BIT_COUNT;

	mov	rax, QWORD PTR nu$[rbp]
	mov	rax, QWORD PTR [rax+8]
	mov	QWORD PTR u_bit_count$4[rbp], rax

; 164  :             _UINT32_T v_hi;
; 165  :             _UINT32_T v_lo = _FROMDWORDTOWORD(v, &v_hi);

	lea	rdx, QWORD PTR v_hi$5[rbp]
	mov	rcx, QWORD PTR v$[rbp]
	call	_FROMDWORDTOWORD
	mov	DWORD PTR v_lo$6[rbp], eax

; 166  :             if (v_hi == 0)

	cmp	DWORD PTR v_hi$5[rbp], 0
	jne	$LN14@PMC_Compar

; 167  :             {
; 168  :                 // v の値が 32bit では表現できる場合
; 169  :                 __UNIT_TYPE v_bit_count = sizeof(v_lo) * 8 - _LZCNT_ALT_32(v_lo);

	mov	ecx, DWORD PTR v_lo$6[rbp]
	call	_LZCNT_ALT_32
	mov	eax, eax
	mov	ecx, 32					; 00000020H
	sub	rcx, rax
	mov	rax, rcx
	mov	QWORD PTR v_bit_count$7[rbp], rax

; 170  :                 if (u_bit_count > v_bit_count)

	mov	rax, QWORD PTR v_bit_count$7[rbp]
	cmp	QWORD PTR u_bit_count$4[rbp], rax
	jbe	SHORT $LN16@PMC_Compar

; 171  :                 {
; 172  :                     // 明らかに u > v である場合
; 173  :                     *w = 1;

	mov	rax, QWORD PTR w$[rbp]
	mov	DWORD PTR [rax], 1

; 174  :                 }

	jmp	$LN17@PMC_Compar
$LN16@PMC_Compar:

; 175  :                 else if (u_bit_count < v_bit_count)

	mov	rax, QWORD PTR v_bit_count$7[rbp]
	cmp	QWORD PTR u_bit_count$4[rbp], rax
	jae	SHORT $LN18@PMC_Compar

; 176  :                 {
; 177  :                     // 明らかに u < v である場合
; 178  :                     *w = -1;

	mov	rax, QWORD PTR w$[rbp]
	mov	DWORD PTR [rax], -1

; 179  :                 }

	jmp	SHORT $LN19@PMC_Compar
$LN18@PMC_Compar:

; 180  :                 else
; 181  :                 {
; 182  :                     // u > 0 && v > 0 かつ u のビット長と v のビット長が等しく、かつ v が 1 ワードで表現できる場合
; 183  :                     // ⇒ u と v はともに 1 ワードで表現できる
; 184  :                     if (nu->BLOCK[0] > v_lo)

	mov	eax, 8
	imul	rax, rax, 0
	mov	rcx, QWORD PTR nu$[rbp]
	mov	rcx, QWORD PTR [rcx+48]
	mov	edx, DWORD PTR v_lo$6[rbp]
	cmp	QWORD PTR [rax+rcx], rdx
	jbe	SHORT $LN20@PMC_Compar

; 185  :                         *w = 1;

	mov	rax, QWORD PTR w$[rbp]
	mov	DWORD PTR [rax], 1
	jmp	SHORT $LN21@PMC_Compar
$LN20@PMC_Compar:

; 186  :                     else if (nu->BLOCK[0] < v_lo)

	mov	eax, 8
	imul	rax, rax, 0
	mov	rcx, QWORD PTR nu$[rbp]
	mov	rcx, QWORD PTR [rcx+48]
	mov	edx, DWORD PTR v_lo$6[rbp]
	cmp	QWORD PTR [rax+rcx], rdx
	jae	SHORT $LN22@PMC_Compar

; 187  :                         *w = -1;

	mov	rax, QWORD PTR w$[rbp]
	mov	DWORD PTR [rax], -1
	jmp	SHORT $LN23@PMC_Compar
$LN22@PMC_Compar:

; 188  :                     else
; 189  :                         *w = 0;

	mov	rax, QWORD PTR w$[rbp]
	mov	DWORD PTR [rax], 0
$LN23@PMC_Compar:
$LN21@PMC_Compar:
$LN19@PMC_Compar:
$LN17@PMC_Compar:

; 190  :                 }
; 191  :             }

	jmp	$LN15@PMC_Compar
$LN14@PMC_Compar:

; 192  :             else
; 193  :             {
; 194  :                 // v の値が 32bit では表現できない場合
; 195  :                 __UNIT_TYPE v_bit_count = sizeof(v) * 8 - _LZCNT_ALT_32(v_hi);

	mov	ecx, DWORD PTR v_hi$5[rbp]
	call	_LZCNT_ALT_32
	mov	eax, eax
	mov	ecx, 64					; 00000040H
	sub	rcx, rax
	mov	rax, rcx
	mov	QWORD PTR v_bit_count$8[rbp], rax

; 196  :                 if (u_bit_count > v_bit_count)

	mov	rax, QWORD PTR v_bit_count$8[rbp]
	cmp	QWORD PTR u_bit_count$4[rbp], rax
	jbe	SHORT $LN24@PMC_Compar

; 197  :                 {
; 198  :                     // 明らかに u > v である場合
; 199  :                     *w = 1;

	mov	rax, QWORD PTR w$[rbp]
	mov	DWORD PTR [rax], 1

; 200  :                 }

	jmp	$LN25@PMC_Compar
$LN24@PMC_Compar:

; 201  :                 else if (u_bit_count < v_bit_count)

	mov	rax, QWORD PTR v_bit_count$8[rbp]
	cmp	QWORD PTR u_bit_count$4[rbp], rax
	jae	SHORT $LN26@PMC_Compar

; 202  :                 {
; 203  :                     // 明らかに u < v である場合
; 204  :                     *w = -1;

	mov	rax, QWORD PTR w$[rbp]
	mov	DWORD PTR [rax], -1

; 205  :                 }

	jmp	$LN27@PMC_Compar
$LN26@PMC_Compar:

; 206  :                 else
; 207  :                 {
; 208  :                     // u > 0 && v > 0 かつ u のビット長と v のビット長が等しく、かつ v が 2 ワードで表現できる場合
; 209  :                     // ⇒ u と v はともに 2 ワードで表現できる
; 210  :                     if (nu->BLOCK[1] > v_hi)

	mov	eax, 8
	imul	rax, rax, 1
	mov	rcx, QWORD PTR nu$[rbp]
	mov	rcx, QWORD PTR [rcx+48]
	mov	edx, DWORD PTR v_hi$5[rbp]
	cmp	QWORD PTR [rax+rcx], rdx
	jbe	SHORT $LN28@PMC_Compar

; 211  :                         *w = 1;

	mov	rax, QWORD PTR w$[rbp]
	mov	DWORD PTR [rax], 1
	jmp	$LN29@PMC_Compar
$LN28@PMC_Compar:

; 212  :                     else if (nu->BLOCK[1] < v_hi)

	mov	eax, 8
	imul	rax, rax, 1
	mov	rcx, QWORD PTR nu$[rbp]
	mov	rcx, QWORD PTR [rcx+48]
	mov	edx, DWORD PTR v_hi$5[rbp]
	cmp	QWORD PTR [rax+rcx], rdx
	jae	SHORT $LN30@PMC_Compar

; 213  :                         *w = -1;

	mov	rax, QWORD PTR w$[rbp]
	mov	DWORD PTR [rax], -1
	jmp	SHORT $LN31@PMC_Compar
$LN30@PMC_Compar:

; 214  :                     else if (nu->BLOCK[0] > v_lo)

	mov	eax, 8
	imul	rax, rax, 0
	mov	rcx, QWORD PTR nu$[rbp]
	mov	rcx, QWORD PTR [rcx+48]
	mov	edx, DWORD PTR v_lo$6[rbp]
	cmp	QWORD PTR [rax+rcx], rdx
	jbe	SHORT $LN32@PMC_Compar

; 215  :                         *w = 1;

	mov	rax, QWORD PTR w$[rbp]
	mov	DWORD PTR [rax], 1
	jmp	SHORT $LN33@PMC_Compar
$LN32@PMC_Compar:

; 216  :                     else if (nu->BLOCK[0] < v_lo)

	mov	eax, 8
	imul	rax, rax, 0
	mov	rcx, QWORD PTR nu$[rbp]
	mov	rcx, QWORD PTR [rcx+48]
	mov	edx, DWORD PTR v_lo$6[rbp]
	cmp	QWORD PTR [rax+rcx], rdx
	jae	SHORT $LN34@PMC_Compar

; 217  :                         *w = -1;

	mov	rax, QWORD PTR w$[rbp]
	mov	DWORD PTR [rax], -1
	jmp	SHORT $LN35@PMC_Compar
$LN34@PMC_Compar:

; 218  :                     else
; 219  :                         *w = 0;

	mov	rax, QWORD PTR w$[rbp]
	mov	DWORD PTR [rax], 0
$LN35@PMC_Compar:
$LN33@PMC_Compar:
$LN31@PMC_Compar:
$LN29@PMC_Compar:
$LN27@PMC_Compar:
$LN25@PMC_Compar:
$LN15@PMC_Compar:

; 220  :                 }
; 221  :             }
; 222  :         }

	jmp	$LN13@PMC_Compar
$LN12@PMC_Compar:

; 223  :         else
; 224  :         {
; 225  :             // _UINT64_T が 1 ワードで表現できる場合
; 226  : 
; 227  :             __UNIT_TYPE u_bit_count = nu->UNIT_BIT_COUNT;

	mov	rax, QWORD PTR nu$[rbp]
	mov	rax, QWORD PTR [rax+8]
	mov	QWORD PTR u_bit_count$9[rbp], rax

; 228  :             __UNIT_TYPE v_bit_count = sizeof(v) * 8 - _LZCNT_ALT_UNIT((__UNIT_TYPE)v);

	mov	rcx, QWORD PTR v$[rbp]
	call	_LZCNT_ALT_UNIT
	mov	ecx, 64					; 00000040H
	sub	rcx, rax
	mov	rax, rcx
	mov	QWORD PTR v_bit_count$10[rbp], rax

; 229  :             if (u_bit_count > v_bit_count)

	mov	rax, QWORD PTR v_bit_count$10[rbp]
	cmp	QWORD PTR u_bit_count$9[rbp], rax
	jbe	SHORT $LN36@PMC_Compar

; 230  :             {
; 231  :                 // 明らかに u > v である場合
; 232  :                 *w = 1;

	mov	rax, QWORD PTR w$[rbp]
	mov	DWORD PTR [rax], 1

; 233  :             }

	jmp	$LN37@PMC_Compar
$LN36@PMC_Compar:

; 234  :             else if (u_bit_count < v_bit_count)

	mov	rax, QWORD PTR v_bit_count$10[rbp]
	cmp	QWORD PTR u_bit_count$9[rbp], rax
	jae	SHORT $LN38@PMC_Compar

; 235  :             {
; 236  :                 // 明らかに u < v である場合
; 237  :                 *w = -1;

	mov	rax, QWORD PTR w$[rbp]
	mov	DWORD PTR [rax], -1

; 238  :             }

	jmp	SHORT $LN39@PMC_Compar
$LN38@PMC_Compar:

; 239  :             else
; 240  :             {
; 241  :                 // u > 0 && v > 0 かつ u のビット長と v のビット長が等しく、かつ v が 1 ワードで表現できる場合
; 242  :                 // ⇒ u と v はともに 1 ワードで表現できる
; 243  :                 if (nu->BLOCK[0] > v)

	mov	eax, 8
	imul	rax, rax, 0
	mov	rcx, QWORD PTR nu$[rbp]
	mov	rcx, QWORD PTR [rcx+48]
	mov	rdx, QWORD PTR v$[rbp]
	cmp	QWORD PTR [rax+rcx], rdx
	jbe	SHORT $LN40@PMC_Compar

; 244  :                     *w = 1;

	mov	rax, QWORD PTR w$[rbp]
	mov	DWORD PTR [rax], 1
	jmp	SHORT $LN41@PMC_Compar
$LN40@PMC_Compar:

; 245  :                 else if (nu->BLOCK[0] < v)

	mov	eax, 8
	imul	rax, rax, 0
	mov	rcx, QWORD PTR nu$[rbp]
	mov	rcx, QWORD PTR [rcx+48]
	mov	rdx, QWORD PTR v$[rbp]
	cmp	QWORD PTR [rax+rcx], rdx
	jae	SHORT $LN42@PMC_Compar

; 246  :                     *w = -1;

	mov	rax, QWORD PTR w$[rbp]
	mov	DWORD PTR [rax], -1
	jmp	SHORT $LN43@PMC_Compar
$LN42@PMC_Compar:

; 247  :                 else
; 248  :                     *w = 0;

	mov	rax, QWORD PTR w$[rbp]
	mov	DWORD PTR [rax], 0
$LN43@PMC_Compar:
$LN41@PMC_Compar:
$LN39@PMC_Compar:
$LN37@PMC_Compar:
$LN13@PMC_Compar:
$LN11@PMC_Compar:
$LN7@PMC_Compar:

; 249  :             }
; 250  :         }
; 251  : 
; 252  :     }
; 253  :     return (PMC_STATUS_OK);

	xor	eax, eax
$LN1@PMC_Compar:

; 254  : }

	mov	rdi, rax
	lea	rcx, QWORD PTR [rbp-32]
	lea	rdx, OFFSET FLAT:PMC_Compare_X_L$rtcFrameData
	call	_RTC_CheckStackVars
	mov	rax, rdi
	lea	rsp, QWORD PTR [rbp+488]
	pop	rdi
	pop	rbp
	ret	0
PMC_Compare_X_L ENDP
_TEXT	ENDS
; Function compile flags: /Odtp /RTCsu /ZI
; File z:\sources\lunor\repos\rougemeilland\palmtree.math.core.implements\palmtree.math.core.implements\pmc_compare.c
;	COMDAT PMC_Compare_X_I
_TEXT	SEGMENT
nu$ = 8
result$ = 36
u_bit_count$1 = 72
v_bit_count$2 = 104
u$ = 352
v$ = 360
w$ = 368
PMC_Compare_X_I PROC					; COMDAT

; 60   : {

$LN21:
	mov	QWORD PTR [rsp+24], r8
	mov	DWORD PTR [rsp+16], edx
	mov	QWORD PTR [rsp+8], rcx
	push	rbp
	push	rdi
	sub	rsp, 360				; 00000168H
	lea	rbp, QWORD PTR [rsp+32]
	mov	rdi, rsp
	mov	ecx, 90					; 0000005aH
	mov	eax, -858993460				; ccccccccH
	rep stosd
	mov	rcx, QWORD PTR [rsp+392]
	lea	rcx, OFFSET FLAT:__F5940173_pmc_compare@c
	call	__CheckForDebuggerJustMyCode

; 61   :     if (__UNIT_TYPE_BIT_COUNT < sizeof(v) * 8)

	xor	eax, eax
	test	eax, eax
	je	SHORT $LN2@PMC_Compar

; 62   :     {
; 63   :         // _UINT32_T が 1 ワードで表現しきれない処理系には対応しない
; 64   :         return (PMC_STATUS_INTERNAL_ERROR);

	mov	eax, -256				; ffffffffffffff00H
	jmp	$LN1@PMC_Compar
$LN2@PMC_Compar:

; 65   :     }
; 66   :     if (u == NULL)

	cmp	QWORD PTR u$[rbp], 0
	jne	SHORT $LN3@PMC_Compar

; 67   :         return (PMC_STATUS_ARGUMENT_ERROR);

	mov	eax, -1
	jmp	$LN1@PMC_Compar
$LN3@PMC_Compar:

; 68   :     if (w == NULL)

	cmp	QWORD PTR w$[rbp], 0
	jne	SHORT $LN4@PMC_Compar

; 69   :         return (PMC_STATUS_ARGUMENT_ERROR);

	mov	eax, -1
	jmp	$LN1@PMC_Compar
$LN4@PMC_Compar:

; 70   :     NUMBER_HEADER* nu = (NUMBER_HEADER*)u;

	mov	rax, QWORD PTR u$[rbp]
	mov	QWORD PTR nu$[rbp], rax

; 71   :     PMC_STATUS_CODE result;
; 72   :     if ((result = CheckNumber(nu)) != PMC_STATUS_OK)

	mov	rcx, QWORD PTR nu$[rbp]
	call	CheckNumber
	mov	DWORD PTR result$[rbp], eax
	cmp	DWORD PTR result$[rbp], 0
	je	SHORT $LN5@PMC_Compar

; 73   :         return (result);

	mov	eax, DWORD PTR result$[rbp]
	jmp	$LN1@PMC_Compar
$LN5@PMC_Compar:

; 74   :     if (nu->IS_ZERO)

	mov	rax, QWORD PTR nu$[rbp]
	mov	eax, DWORD PTR [rax+32]
	shr	eax, 1
	and	eax, 1
	test	eax, eax
	je	SHORT $LN6@PMC_Compar

; 75   :     {
; 76   :         // u が 0 である場合
; 77   :         if (v == 0)

	cmp	DWORD PTR v$[rbp], 0
	jne	SHORT $LN8@PMC_Compar

; 78   :         {
; 79   :             // v が 0 である場合
; 80   :             *w = 0;

	mov	rax, QWORD PTR w$[rbp]
	mov	DWORD PTR [rax], 0

; 81   :         }

	jmp	SHORT $LN9@PMC_Compar
$LN8@PMC_Compar:

; 82   :         else
; 83   :         {
; 84   :             // v が 0 でない場合
; 85   :             *w = -1;

	mov	rax, QWORD PTR w$[rbp]
	mov	DWORD PTR [rax], -1
$LN9@PMC_Compar:

; 86   :         }
; 87   :     }

	jmp	$LN7@PMC_Compar
$LN6@PMC_Compar:

; 88   :     else if (v == 0)

	cmp	DWORD PTR v$[rbp], 0
	jne	SHORT $LN10@PMC_Compar

; 89   :     {
; 90   :         // v が 0 である場合
; 91   :         *w = 1;

	mov	rax, QWORD PTR w$[rbp]
	mov	DWORD PTR [rax], 1

; 92   :     }

	jmp	$LN11@PMC_Compar
$LN10@PMC_Compar:

; 93   :     else
; 94   :     {
; 95   :         // x と y がともに 0 ではない場合
; 96   :         __UNIT_TYPE u_bit_count = nu->UNIT_BIT_COUNT;

	mov	rax, QWORD PTR nu$[rbp]
	mov	rax, QWORD PTR [rax+8]
	mov	QWORD PTR u_bit_count$1[rbp], rax

; 97   :         __UNIT_TYPE v_bit_count = sizeof(v) * 8 - _LZCNT_ALT_32(v);

	mov	ecx, DWORD PTR v$[rbp]
	call	_LZCNT_ALT_32
	mov	eax, eax
	mov	ecx, 32					; 00000020H
	sub	rcx, rax
	mov	rax, rcx
	mov	QWORD PTR v_bit_count$2[rbp], rax

; 98   :         if (u_bit_count > v_bit_count)

	mov	rax, QWORD PTR v_bit_count$2[rbp]
	cmp	QWORD PTR u_bit_count$1[rbp], rax
	jbe	SHORT $LN12@PMC_Compar

; 99   :         {
; 100  :             // 明らかに u > v である場合
; 101  :             *w = 1;

	mov	rax, QWORD PTR w$[rbp]
	mov	DWORD PTR [rax], 1

; 102  :         }

	jmp	SHORT $LN13@PMC_Compar
$LN12@PMC_Compar:

; 103  :         else if (u_bit_count < v_bit_count)

	mov	rax, QWORD PTR v_bit_count$2[rbp]
	cmp	QWORD PTR u_bit_count$1[rbp], rax
	jae	SHORT $LN14@PMC_Compar

; 104  :         {
; 105  :             // 明らかに u < v である場合
; 106  :             *w = -1;

	mov	rax, QWORD PTR w$[rbp]
	mov	DWORD PTR [rax], -1

; 107  :         }

	jmp	SHORT $LN15@PMC_Compar
$LN14@PMC_Compar:

; 108  :         else
; 109  :         {
; 110  :             // u > 0 && v > 0 かつ u のビット長と v のビット長が等しい場合
; 111  :             // ⇒ u と v はともに 1 ワードで表現できる
; 112  :             if (nu->BLOCK[0] > v)

	mov	eax, 8
	imul	rax, rax, 0
	mov	rcx, QWORD PTR nu$[rbp]
	mov	rcx, QWORD PTR [rcx+48]
	mov	edx, DWORD PTR v$[rbp]
	cmp	QWORD PTR [rax+rcx], rdx
	jbe	SHORT $LN16@PMC_Compar

; 113  :                 *w = 1;

	mov	rax, QWORD PTR w$[rbp]
	mov	DWORD PTR [rax], 1
	jmp	SHORT $LN17@PMC_Compar
$LN16@PMC_Compar:

; 114  :             else if (nu->BLOCK[0] < v)

	mov	eax, 8
	imul	rax, rax, 0
	mov	rcx, QWORD PTR nu$[rbp]
	mov	rcx, QWORD PTR [rcx+48]
	mov	edx, DWORD PTR v$[rbp]
	cmp	QWORD PTR [rax+rcx], rdx
	jae	SHORT $LN18@PMC_Compar

; 115  :                 *w = -1;

	mov	rax, QWORD PTR w$[rbp]
	mov	DWORD PTR [rax], -1
	jmp	SHORT $LN19@PMC_Compar
$LN18@PMC_Compar:

; 116  :             else
; 117  :                 *w = 0;

	mov	rax, QWORD PTR w$[rbp]
	mov	DWORD PTR [rax], 0
$LN19@PMC_Compar:
$LN17@PMC_Compar:
$LN15@PMC_Compar:
$LN13@PMC_Compar:
$LN11@PMC_Compar:
$LN7@PMC_Compar:

; 118  :         }
; 119  :     }
; 120  :     return (PMC_STATUS_OK);

	xor	eax, eax
$LN1@PMC_Compar:

; 121  : }

	lea	rsp, QWORD PTR [rbp+328]
	pop	rdi
	pop	rbp
	ret	0
PMC_Compare_X_I ENDP
_TEXT	ENDS
; Function compile flags: /Odtp /RTCsu /ZI
; File z:\sources\lunor\repos\rougemeilland\palmtree.math.core.implements\palmtree.math.core.implements\pmc_compare.c
;	COMDAT Initialize_Compare
_TEXT	SEGMENT
feature$ = 224
Initialize_Compare PROC					; COMDAT

; 303  : {

$LN3:
	mov	QWORD PTR [rsp+8], rcx
	push	rbp
	push	rdi
	sub	rsp, 232				; 000000e8H
	lea	rbp, QWORD PTR [rsp+32]
	mov	rdi, rsp
	mov	ecx, 58					; 0000003aH
	mov	eax, -858993460				; ccccccccH
	rep stosd
	mov	rcx, QWORD PTR [rsp+264]
	lea	rcx, OFFSET FLAT:__F5940173_pmc_compare@c
	call	__CheckForDebuggerJustMyCode

; 304  :     return (PMC_STATUS_OK);

	xor	eax, eax

; 305  : }

	lea	rsp, QWORD PTR [rbp+200]
	pop	rdi
	pop	rbp
	ret	0
Initialize_Compare ENDP
_TEXT	ENDS
; Function compile flags: /Odtp /RTCsu /ZI
; File z:\sources\lunor\repos\rougemeilland\palmtree.math.core.implements\palmtree.math.core.implements\pmc_compare.c
;	COMDAT Compare_Imp
_TEXT	SEGMENT
u$ = 224
v$ = 232
count$ = 240
Compare_Imp PROC					; COMDAT

; 38   : {

$LN9:
	mov	QWORD PTR [rsp+24], r8
	mov	QWORD PTR [rsp+16], rdx
	mov	QWORD PTR [rsp+8], rcx
	push	rbp
	push	rdi
	sub	rsp, 232				; 000000e8H
	lea	rbp, QWORD PTR [rsp+32]
	mov	rdi, rsp
	mov	ecx, 58					; 0000003aH
	mov	eax, -858993460				; ccccccccH
	rep stosd
	mov	rcx, QWORD PTR [rsp+264]
	lea	rcx, OFFSET FLAT:__F5940173_pmc_compare@c
	call	__CheckForDebuggerJustMyCode

; 39   :     u += count;

	mov	rax, QWORD PTR u$[rbp]
	mov	rcx, QWORD PTR count$[rbp]
	lea	rax, QWORD PTR [rax+rcx*8]
	mov	QWORD PTR u$[rbp], rax

; 40   :     v += count;

	mov	rax, QWORD PTR v$[rbp]
	mov	rcx, QWORD PTR count$[rbp]
	lea	rax, QWORD PTR [rax+rcx*8]
	mov	QWORD PTR v$[rbp], rax
$LN2@Compare_Im:

; 41   :     while (count > 0)

	cmp	QWORD PTR count$[rbp], 0
	jbe	SHORT $LN3@Compare_Im

; 42   :     {
; 43   :         --u;

	mov	rax, QWORD PTR u$[rbp]
	sub	rax, 8
	mov	QWORD PTR u$[rbp], rax

; 44   :         --v;

	mov	rax, QWORD PTR v$[rbp]
	sub	rax, 8
	mov	QWORD PTR v$[rbp], rax

; 45   :         --count;

	mov	rax, QWORD PTR count$[rbp]
	dec	rax
	mov	QWORD PTR count$[rbp], rax

; 46   : 
; 47   :         if (*u > *v)

	mov	rax, QWORD PTR u$[rbp]
	mov	rcx, QWORD PTR v$[rbp]
	mov	rcx, QWORD PTR [rcx]
	cmp	QWORD PTR [rax], rcx
	jbe	SHORT $LN4@Compare_Im

; 48   :             return (1);

	mov	eax, 1
	jmp	SHORT $LN1@Compare_Im
	jmp	SHORT $LN5@Compare_Im
$LN4@Compare_Im:

; 49   :         else if (*u < *v)

	mov	rax, QWORD PTR u$[rbp]
	mov	rcx, QWORD PTR v$[rbp]
	mov	rcx, QWORD PTR [rcx]
	cmp	QWORD PTR [rax], rcx
	jae	SHORT $LN6@Compare_Im

; 50   :             return (-1);

	mov	eax, -1
	jmp	SHORT $LN1@Compare_Im
$LN6@Compare_Im:
$LN5@Compare_Im:

; 51   :         else
; 52   :         {
; 53   :         }
; 54   :     }

	jmp	SHORT $LN2@Compare_Im
$LN3@Compare_Im:

; 55   :     return (0);

	xor	eax, eax
$LN1@Compare_Im:

; 56   : }

	lea	rsp, QWORD PTR [rbp+200]
	pop	rdi
	pop	rbp
	ret	0
Compare_Imp ENDP
_TEXT	ENDS
END
