; Listing generated by Microsoft (R) Optimizing Compiler Version 19.16.27026.1 

include listing.inc

INCLUDELIB MSVCRTD
INCLUDELIB OLDNAMES

msvcjmc	SEGMENT
__7B7A869E_ctype@h DB 01H
__457DD326_basetsd@h DB 01H
__4384A2D9_corecrt_memcpy_s@h DB 01H
__4E51A221_corecrt_wstring@h DB 01H
__2140C079_string@h DB 01H
__1887E595_winnt@h DB 01H
__9FC7C64B_processthreadsapi@h DB 01H
__FA470AEC_memoryapi@h DB 01H
__F37DAFF1_winerror@h DB 01H
__7A450CCC_winbase@h DB 01H
__B4B40122_winioctl@h DB 01H
__86261D59_stralign@h DB 01H
__1C66ECB2_pmc_debug@h DB 01H
__6DA55234_test_op_tostringd@c DB 01H
msvcjmc	ENDS
PUBLIC	TEST_PMC_ToStringD
PUBLIC	__JustMyCode_Default
PUBLIC	??_C@_13DEFPDAGF@?$AA?0@			; `string'
PUBLIC	??_C@_01EKENIIDA@3@				; `string'
PUBLIC	??_C@_13JOFGPIOO@?$AA?4@			; `string'
PUBLIC	??_C@_13KJIIAINM@?$AA?$CL@			; `string'
PUBLIC	??_C@_13IMODFHAA@?$AA?9@			; `string'
PUBLIC	??_C@_0CN@LDAEIIBE@PMC_From_B?$IC?L?$JF?$JM?$ILA?$IDR?$IB?$FL?$IDh?$IC?$KK?$IK?z?$JB?R?$JC?J?$IC@ ; `string'
PUBLIC	??_C@_0BC@DGAJMCCO@ToStringD?5?$CI?$CFd?4?$CFd?$CJ@ ; `string'
PUBLIC	??_C@_0CP@LPHACLNN@PMC_ToString?$IC?L?$JF?$JM?$ILA?$IDR?$IB?$FL?$IDh?$IC?$KK?$IK?z?$JB?R?$JC@ ; `string'
PUBLIC	??_C@_0BJ@JGINKGIA@?$IDf?$IB?$FL?$ID?$FO?$IC?L?$JD?$OA?$JHe?$IC?$KK?$II?j?$JCv?$IC?$LF?$IC?H?$IC?$KC@ ; `string'
EXTRN	__imp_lstrcmpW:PROC
EXTRN	__imp_lstrcpyA:PROC
EXTRN	__imp_lstrcpyW:PROC
EXTRN	TEST_Assert:PROC
EXTRN	FormatTestLabel:PROC
EXTRN	FormatTestMesssage:PROC
EXTRN	_RTC_CheckStackVars:PROC
EXTRN	_RTC_InitBase:PROC
EXTRN	_RTC_Shutdown:PROC
EXTRN	__CheckForDebuggerJustMyCode:PROC
EXTRN	__GSHandlerCheck:PROC
EXTRN	__security_check_cookie:PROC
EXTRN	__security_cookie:QWORD
_BSS	SEGMENT
?actual_str_buffer@?1??TEST_PMC_ToStringD@@9@9 DW 01000H DUP (?) ; `TEST_PMC_ToStringD'::`2'::actual_str_buffer
_BSS	ENDS
;	COMDAT pdata
pdata	SEGMENT
$pdata$TEST_PMC_ToStringD DD imagerel $LN10
	DD	imagerel $LN10+644
	DD	imagerel $unwind$TEST_PMC_ToStringD
pdata	ENDS
;	COMDAT rtc$TMZ
rtc$TMZ	SEGMENT
_RTC_Shutdown.rtc$TMZ DQ FLAT:_RTC_Shutdown
rtc$TMZ	ENDS
;	COMDAT rtc$IMZ
rtc$IMZ	SEGMENT
_RTC_InitBase.rtc$IMZ DQ FLAT:_RTC_InitBase
rtc$IMZ	ENDS
;	COMDAT ??_C@_0BJ@JGINKGIA@?$IDf?$IB?$FL?$ID?$FO?$IC?L?$JD?$OA?$JHe?$IC?$KK?$II?j?$JCv?$IC?$LF?$IC?H?$IC?$KC@
CONST	SEGMENT
??_C@_0BJ@JGINKGIA@?$IDf?$IB?$FL?$ID?$FO?$IC?L?$JD?$OA?$JHe?$IC?$KK?$II?j?$JCv?$IC?$LF?$IC?H?$IC?$KC@ DB 083H
	DB	'f', 081H, '[', 083H, '^', 082H, 0ccH, 093H, 0e0H, 097H, 'e', 082H
	DB	0aaH, 088H, 0eaH, 092H, 'v', 082H, 0b5H, 082H, 0c8H, 082H, 0a2H
	DB	00H						; `string'
CONST	ENDS
;	COMDAT ??_C@_0CP@LPHACLNN@PMC_ToString?$IC?L?$JF?$JM?$ILA?$IDR?$IB?$FL?$IDh?$IC?$KK?$IK?z?$JB?R?$JC@
CONST	SEGMENT
??_C@_0CP@LPHACLNN@PMC_ToString?$IC?L?$JF?$JM?$ILA?$IDR?$IB?$FL?$IDh?$IC?$KK?$IK?z?$JB?R?$JC@ DB 'P'
	DB	'MC_ToString', 082H, 0ccH, 095H, 09cH, 08bH, 'A', 083H, 'R', 081H
	DB	'[', 083H, 'h', 082H, 0aaH, 08aH, 0faH, 091H, 0d2H, 092H, 0caH
	DB	082H, 0e8H, 082H, 0c5H, 082H, 0cdH, 082H, 0c8H, 082H, 0a2H, '('
	DB	'%d)', 00H					; `string'
CONST	ENDS
;	COMDAT ??_C@_0BC@DGAJMCCO@ToStringD?5?$CI?$CFd?4?$CFd?$CJ@
CONST	SEGMENT
??_C@_0BC@DGAJMCCO@ToStringD?5?$CI?$CFd?4?$CFd?$CJ@ DB 'ToStringD (%d.%d)'
	DB	00H						; `string'
CONST	ENDS
;	COMDAT ??_C@_0CN@LDAEIIBE@PMC_From_B?$IC?L?$JF?$JM?$ILA?$IDR?$IB?$FL?$IDh?$IC?$KK?$IK?z?$JB?R?$JC?J?$IC@
CONST	SEGMENT
??_C@_0CN@LDAEIIBE@PMC_From_B?$IC?L?$JF?$JM?$ILA?$IDR?$IB?$FL?$IDh?$IC?$KK?$IK?z?$JB?R?$JC?J?$IC@ DB 'P'
	DB	'MC_From_B', 082H, 0ccH, 095H, 09cH, 08bH, 'A', 083H, 'R', 081H
	DB	'[', 083H, 'h', 082H, 0aaH, 08aH, 0faH, 091H, 0d2H, 092H, 0caH
	DB	082H, 0e8H, 082H, 0c5H, 082H, 0cdH, 082H, 0c8H, 082H, 0a2H, '('
	DB	'%d)', 00H					; `string'
CONST	ENDS
;	COMDAT ??_C@_13IMODFHAA@?$AA?9@
CONST	SEGMENT
??_C@_13IMODFHAA@?$AA?9@ DB '-', 00H, 00H, 00H		; `string'
CONST	ENDS
;	COMDAT ??_C@_13KJIIAINM@?$AA?$CL@
CONST	SEGMENT
??_C@_13KJIIAINM@?$AA?$CL@ DB '+', 00H, 00H, 00H	; `string'
CONST	ENDS
;	COMDAT ??_C@_13JOFGPIOO@?$AA?4@
CONST	SEGMENT
??_C@_13JOFGPIOO@?$AA?4@ DB '.', 00H, 00H, 00H		; `string'
CONST	ENDS
;	COMDAT ??_C@_01EKENIIDA@3@
CONST	SEGMENT
??_C@_01EKENIIDA@3@ DB '3', 00H				; `string'
CONST	ENDS
;	COMDAT ??_C@_13DEFPDAGF@?$AA?0@
CONST	SEGMENT
??_C@_13DEFPDAGF@?$AA?0@ DB ',', 00H, 00H, 00H		; `string'
CONST	ENDS
;	COMDAT xdata
xdata	SEGMENT
$unwind$TEST_PMC_ToStringD DD 035054a19H
	DD	011d3322H
	DD	070160035H
	DD	05015H
	DD	imagerel __GSHandlerCheck
	DD	0190H
xdata	ENDS
;	COMDAT CONST
CONST	SEGMENT
TEST_PMC_ToStringD$rtcName$0 DB 078H
	DB	00H
	ORG $+2
TEST_PMC_ToStringD$rtcName$1 DB 06fH
	DB	070H
	DB	074H
	DB	00H
	ORG $+8
TEST_PMC_ToStringD$rtcVarDesc DD 098H
	DD	028H
	DQ	FLAT:TEST_PMC_ToStringD$rtcName$1
	DD	038H
	DD	08H
	DQ	FLAT:TEST_PMC_ToStringD$rtcName$0
	ORG $+96
TEST_PMC_ToStringD$rtcFrameData DD 02H
	DD	00H
	DQ	FLAT:TEST_PMC_ToStringD$rtcVarDesc
CONST	ENDS
; Function compile flags: /Odt
;	COMDAT __JustMyCode_Default
_TEXT	SEGMENT
__JustMyCode_Default PROC				; COMDAT
	ret	0
__JustMyCode_Default ENDP
_TEXT	ENDS
; Function compile flags: /Odtp /RTCsu /ZI
; File z:\sources\lunor\repos\rougemeilland\palmtree.math.core.implements\palmtree.math.core.implements\test_op_tostringd.c
;	COMDAT TEST_PMC_ToStringD
_TEXT	SEGMENT
x$ = 8
result$ = 36
x_result$ = 68
opt$ = 104
tv150 = 340
tv137 = 340
tv84 = 340
tv92 = 344
tv64 = 344
__$ArrayPad$ = 352
env$ = 400
ep$ = 408
no$ = 416
buf$ = 424
buf_size$ = 432
format_spec$ = 440
min_width$ = 448
desired_str$ = 456
TEST_PMC_ToStringD PROC					; COMDAT

; 39   : {

$LN10:
	mov	QWORD PTR [rsp+32], r9
	mov	DWORD PTR [rsp+24], r8d
	mov	QWORD PTR [rsp+16], rdx
	mov	QWORD PTR [rsp+8], rcx
	push	rbp
	push	rdi
	sub	rsp, 424				; 000001a8H
	lea	rbp, QWORD PTR [rsp+48]
	mov	rdi, rsp
	mov	ecx, 106				; 0000006aH
	mov	eax, -858993460				; ccccccccH
	rep stosd
	mov	rcx, QWORD PTR [rsp+456]
	mov	rax, QWORD PTR __security_cookie
	xor	rax, rbp
	mov	QWORD PTR __$ArrayPad$[rbp], rax
	lea	rcx, OFFSET FLAT:__6DA55234_test_op_tostringd@c
	call	__CheckForDebuggerJustMyCode

; 40   :     HANDLE x;
; 41   :     static wchar_t actual_str_buffer[4096];
; 42   :     PMC_STATUS_CODE result;
; 43   :     PMC_STATUS_CODE x_result;
; 44   :     PMC_NUMBER_FORMAT_OPTION opt;
; 45   :     lstrcpyW(opt.GroupSeparator, L",");

	lea	rdx, OFFSET FLAT:??_C@_13DEFPDAGF@?$AA?0@
	lea	rcx, QWORD PTR opt$[rbp+4]
	call	QWORD PTR __imp_lstrcpyW

; 46   :     lstrcpy(opt.GroupSizes, "3");

	lea	rdx, OFFSET FLAT:??_C@_01EKENIIDA@3@
	lea	rcx, QWORD PTR opt$[rbp+28]
	call	QWORD PTR __imp_lstrcpyA

; 47   :     lstrcpyW(opt.DecimalSeparator, L".");

	lea	rdx, OFFSET FLAT:??_C@_13JOFGPIOO@?$AA?4@
	lea	rcx, QWORD PTR opt$[rbp+10]
	call	QWORD PTR __imp_lstrcpyW

; 48   :     opt.DecimalDigits = 2;

	mov	DWORD PTR opt$[rbp], 2

; 49   :     lstrcpyW(opt.PositiveSign, L"+");

	lea	rdx, OFFSET FLAT:??_C@_13KJIIAINM@?$AA?$CL@
	lea	rcx, QWORD PTR opt$[rbp+16]
	call	QWORD PTR __imp_lstrcpyW

; 50   :     lstrcpyW(opt.NegativeSign, L"-");

	lea	rdx, OFFSET FLAT:??_C@_13IMODFHAA@?$AA?9@
	lea	rcx, QWORD PTR opt$[rbp+22]
	call	QWORD PTR __imp_lstrcpyW

; 51   :     TEST_Assert(env, FormatTestLabel("ToStringD (%d.%d)", no, 1), (x_result = ep->PMC_From_B(buf, buf_size, &x)) == PMC_STATUS_OK, FormatTestMesssage("PMC_From_Bの復帰コードが期待通りではない(%d)", x_result));

	lea	r8, QWORD PTR x$[rbp]
	mov	rdx, QWORD PTR buf_size$[rbp]
	mov	rcx, QWORD PTR buf$[rbp]
	mov	rax, QWORD PTR ep$[rbp]
	call	QWORD PTR [rax+32]
	mov	DWORD PTR x_result$[rbp], eax
	cmp	DWORD PTR x_result$[rbp], 0
	jne	SHORT $LN4@TEST_PMC_T
	mov	DWORD PTR tv84[rbp], 1
	jmp	SHORT $LN5@TEST_PMC_T
$LN4@TEST_PMC_T:
	mov	DWORD PTR tv84[rbp], 0
$LN5@TEST_PMC_T:
	mov	edx, DWORD PTR x_result$[rbp]
	lea	rcx, OFFSET FLAT:??_C@_0CN@LDAEIIBE@PMC_From_B?$IC?L?$JF?$JM?$ILA?$IDR?$IB?$FL?$IDh?$IC?$KK?$IK?z?$JB?R?$JC?J?$IC@
	call	FormatTestMesssage
	mov	QWORD PTR tv64[rbp], rax
	mov	r8d, 1
	mov	edx, DWORD PTR no$[rbp]
	lea	rcx, OFFSET FLAT:??_C@_0BC@DGAJMCCO@ToStringD?5?$CI?$CFd?4?$CFd?$CJ@
	call	FormatTestLabel
	mov	rcx, QWORD PTR tv64[rbp]
	mov	r9, rcx
	mov	r8d, DWORD PTR tv84[rbp]
	mov	rdx, rax
	mov	rcx, QWORD PTR env$[rbp]
	call	TEST_Assert

; 52   :     TEST_Assert(env, FormatTestLabel("ToStringD (%d.%d)", no, 2), (result = ep->PMC_ToString(x, actual_str_buffer, sizeof(actual_str_buffer), format_spec, min_width, &opt)) == PMC_STATUS_OK, FormatTestMesssage("PMC_ToStringの復帰コードが期待通りではない(%d)", result));

	lea	rax, QWORD PTR opt$[rbp]
	mov	QWORD PTR [rsp+40], rax
	mov	eax, DWORD PTR min_width$[rbp]
	mov	DWORD PTR [rsp+32], eax
	movzx	r9d, BYTE PTR format_spec$[rbp]
	mov	r8d, 8192				; 00002000H
	lea	rdx, OFFSET FLAT:?actual_str_buffer@?1??TEST_PMC_ToStringD@@9@9
	mov	rcx, QWORD PTR x$[rbp]
	mov	rax, QWORD PTR ep$[rbp]
	call	QWORD PTR [rax+320]
	mov	DWORD PTR result$[rbp], eax
	cmp	DWORD PTR result$[rbp], 0
	jne	SHORT $LN6@TEST_PMC_T
	mov	DWORD PTR tv137[rbp], 1
	jmp	SHORT $LN7@TEST_PMC_T
$LN6@TEST_PMC_T:
	mov	DWORD PTR tv137[rbp], 0
$LN7@TEST_PMC_T:
	mov	edx, DWORD PTR result$[rbp]
	lea	rcx, OFFSET FLAT:??_C@_0CP@LPHACLNN@PMC_ToString?$IC?L?$JF?$JM?$ILA?$IDR?$IB?$FL?$IDh?$IC?$KK?$IK?z?$JB?R?$JC@
	call	FormatTestMesssage
	mov	QWORD PTR tv92[rbp], rax
	mov	r8d, 2
	mov	edx, DWORD PTR no$[rbp]
	lea	rcx, OFFSET FLAT:??_C@_0BC@DGAJMCCO@ToStringD?5?$CI?$CFd?4?$CFd?$CJ@
	call	FormatTestLabel
	mov	rcx, QWORD PTR tv92[rbp]
	mov	r9, rcx
	mov	r8d, DWORD PTR tv137[rbp]
	mov	rdx, rax
	mov	rcx, QWORD PTR env$[rbp]
	call	TEST_Assert

; 53   :     TEST_Assert(env, FormatTestLabel("ToStringD (%d.%d)", no, 3), lstrcmpW(actual_str_buffer, desired_str) == 0, "データの内容が一致しない");

	mov	rdx, QWORD PTR desired_str$[rbp]
	lea	rcx, OFFSET FLAT:?actual_str_buffer@?1??TEST_PMC_ToStringD@@9@9
	call	QWORD PTR __imp_lstrcmpW
	test	eax, eax
	jne	SHORT $LN8@TEST_PMC_T
	mov	DWORD PTR tv150[rbp], 1
	jmp	SHORT $LN9@TEST_PMC_T
$LN8@TEST_PMC_T:
	mov	DWORD PTR tv150[rbp], 0
$LN9@TEST_PMC_T:
	mov	r8d, 3
	mov	edx, DWORD PTR no$[rbp]
	lea	rcx, OFFSET FLAT:??_C@_0BC@DGAJMCCO@ToStringD?5?$CI?$CFd?4?$CFd?$CJ@
	call	FormatTestLabel
	lea	r9, OFFSET FLAT:??_C@_0BJ@JGINKGIA@?$IDf?$IB?$FL?$ID?$FO?$IC?L?$JD?$OA?$JHe?$IC?$KK?$II?j?$JCv?$IC?$LF?$IC?H?$IC?$KC@
	mov	r8d, DWORD PTR tv150[rbp]
	mov	rdx, rax
	mov	rcx, QWORD PTR env$[rbp]
	call	TEST_Assert

; 54   :     if (x_result == PMC_STATUS_OK)

	cmp	DWORD PTR x_result$[rbp], 0
	jne	SHORT $LN2@TEST_PMC_T

; 55   :         ep->PMC_Dispose(x);

	mov	rcx, QWORD PTR x$[rbp]
	mov	rax, QWORD PTR ep$[rbp]
	call	QWORD PTR [rax+40]
$LN2@TEST_PMC_T:

; 56   : }

	lea	rcx, QWORD PTR [rbp-48]
	lea	rdx, OFFSET FLAT:TEST_PMC_ToStringD$rtcFrameData
	call	_RTC_CheckStackVars
	mov	rcx, QWORD PTR __$ArrayPad$[rbp]
	xor	rcx, rbp
	call	__security_check_cookie
	lea	rsp, QWORD PTR [rbp+376]
	pop	rdi
	pop	rbp
	ret	0
TEST_PMC_ToStringD ENDP
_TEXT	ENDS
END
