; Listing generated by Microsoft (R) Optimizing Compiler Version 19.16.27026.1 

include listing.inc

INCLUDELIB MSVCRTD
INCLUDELIB OLDNAMES

msvcjmc	SEGMENT
__7B7A869E_ctype@h DB 01H
__457DD326_basetsd@h DB 01H
__4384A2D9_corecrt_memcpy_s@h DB 01H
__4E51A221_corecrt_wstring@h DB 01H
__2140C079_string@h DB 01H
__1887E595_winnt@h DB 01H
__9FC7C64B_processthreadsapi@h DB 01H
__FA470AEC_memoryapi@h DB 01H
__F37DAFF1_winerror@h DB 01H
__7A450CCC_winbase@h DB 01H
__B4B40122_winioctl@h DB 01H
__86261D59_stralign@h DB 01H
__1C66ECB2_pmc_debug@h DB 01H
__750650AD_test_op_from_to@c DB 01H
msvcjmc	ENDS
PUBLIC	TEST_PMC_From_I
PUBLIC	TEST_PMC_From_L
PUBLIC	TEST_PMC_To_X_I
PUBLIC	TEST_PMC_To_X_L
PUBLIC	__JustMyCode_Default
PUBLIC	??_C@_0CN@KHEEECME@PMC_From_I?$IC?L?$JF?$JM?$ILA?$IDR?$IB?$FL?$IDh?$IC?$KK?$IK?z?$JB?R?$JC?J?$IC@ ; `string'
PUBLIC	??_C@_0BD@MLGEOCDM@PMC_From_I?5?$CI?$CFd?4?$CFd?$CJ@ ; `string'
PUBLIC	??_C@_0CN@JELPCGPD@PMC_To_X_B?$IC?L?$JF?$JM?$ILA?$IDR?$IB?$FL?$IDh?$IC?$KK?$IK?z?$JB?R?$JC?J?$IC@ ; `string'
PUBLIC	??_C@_0BJ@JGINKGIA@?$IDf?$IB?$FL?$ID?$FO?$IC?L?$JD?$OA?$JHe?$IC?$KK?$II?j?$JCv?$IC?$LF?$IC?H?$IC?$KC@ ; `string'
PUBLIC	??_C@_0CN@KGEMOMG@PMC_From_L?$IC?L?$JF?$JM?$ILA?$IDR?$IB?$FL?$IDh?$IC?$KK?$IK?z?$JB?R?$JC?J?$IC@ ; `string'
PUBLIC	??_C@_0BD@CNENCJHI@PMC_From_L?5?$CI?$CFd?4?$CFd?$CJ@ ; `string'
PUBLIC	??_C@_0CN@LDAEIIBE@PMC_From_B?$IC?L?$JF?$JM?$ILA?$IDR?$IB?$FL?$IDh?$IC?$KK?$IK?z?$JB?R?$JC?J?$IC@ ; `string'
PUBLIC	??_C@_0BD@HNDLCMOO@PMC_To_X_I?5?$CI?$CFd?4?$CFd?$CJ@ ; `string'
PUBLIC	??_C@_0CN@IAPPOMCD@PMC_To_X_I?$IC?L?$JF?$JM?$ILA?$IDR?$IB?$FL?$IDh?$IC?$KK?$IK?z?$JB?R?$JC?J?$IC@ ; `string'
PUBLIC	??_C@_0BD@JLBCOHKK@PMC_To_X_L?5?$CI?$CFd?4?$CFd?$CJ@ ; `string'
EXTRN	TEST_Assert:PROC
EXTRN	FormatTestLabel:PROC
EXTRN	FormatTestMesssage:PROC
EXTRN	_RTC_CheckStackVars:PROC
EXTRN	_RTC_InitBase:PROC
EXTRN	_RTC_Shutdown:PROC
EXTRN	__CheckForDebuggerJustMyCode:PROC
EXTRN	__GSHandlerCheck:PROC
EXTRN	__security_check_cookie:PROC
EXTRN	__security_cookie:QWORD
;	COMDAT pdata
pdata	SEGMENT
$pdata$TEST_PMC_From_I DD imagerel $LN10
	DD	imagerel $LN10+546
	DD	imagerel $unwind$TEST_PMC_From_I
pdata	ENDS
;	COMDAT pdata
pdata	SEGMENT
$pdata$TEST_PMC_From_L DD imagerel $LN10
	DD	imagerel $LN10+547
	DD	imagerel $unwind$TEST_PMC_From_L
pdata	ENDS
;	COMDAT pdata
pdata	SEGMENT
$pdata$TEST_PMC_To_X_I DD imagerel $LN11
	DD	imagerel $LN11+479
	DD	imagerel $unwind$TEST_PMC_To_X_I
pdata	ENDS
;	COMDAT pdata
pdata	SEGMENT
$pdata$TEST_PMC_To_X_L DD imagerel $LN11
	DD	imagerel $LN11+481
	DD	imagerel $unwind$TEST_PMC_To_X_L
pdata	ENDS
;	COMDAT pdata
pdata	SEGMENT
$pdata$_EQUALS_MEMORY DD imagerel _EQUALS_MEMORY
	DD	imagerel _EQUALS_MEMORY+198
	DD	imagerel $unwind$_EQUALS_MEMORY
pdata	ENDS
;	COMDAT rtc$TMZ
rtc$TMZ	SEGMENT
_RTC_Shutdown.rtc$TMZ DQ FLAT:_RTC_Shutdown
rtc$TMZ	ENDS
;	COMDAT rtc$IMZ
rtc$IMZ	SEGMENT
_RTC_InitBase.rtc$IMZ DQ FLAT:_RTC_InitBase
rtc$IMZ	ENDS
;	COMDAT ??_C@_0BD@JLBCOHKK@PMC_To_X_L?5?$CI?$CFd?4?$CFd?$CJ@
CONST	SEGMENT
??_C@_0BD@JLBCOHKK@PMC_To_X_L?5?$CI?$CFd?4?$CFd?$CJ@ DB 'PMC_To_X_L (%d.%'
	DB	'd)', 00H					; `string'
CONST	ENDS
;	COMDAT ??_C@_0CN@IAPPOMCD@PMC_To_X_I?$IC?L?$JF?$JM?$ILA?$IDR?$IB?$FL?$IDh?$IC?$KK?$IK?z?$JB?R?$JC?J?$IC@
CONST	SEGMENT
??_C@_0CN@IAPPOMCD@PMC_To_X_I?$IC?L?$JF?$JM?$ILA?$IDR?$IB?$FL?$IDh?$IC?$KK?$IK?z?$JB?R?$JC?J?$IC@ DB 'P'
	DB	'MC_To_X_I', 082H, 0ccH, 095H, 09cH, 08bH, 'A', 083H, 'R', 081H
	DB	'[', 083H, 'h', 082H, 0aaH, 08aH, 0faH, 091H, 0d2H, 092H, 0caH
	DB	082H, 0e8H, 082H, 0c5H, 082H, 0cdH, 082H, 0c8H, 082H, 0a2H, '('
	DB	'%d)', 00H					; `string'
CONST	ENDS
;	COMDAT ??_C@_0BD@HNDLCMOO@PMC_To_X_I?5?$CI?$CFd?4?$CFd?$CJ@
CONST	SEGMENT
??_C@_0BD@HNDLCMOO@PMC_To_X_I?5?$CI?$CFd?4?$CFd?$CJ@ DB 'PMC_To_X_I (%d.%'
	DB	'd)', 00H					; `string'
CONST	ENDS
;	COMDAT ??_C@_0CN@LDAEIIBE@PMC_From_B?$IC?L?$JF?$JM?$ILA?$IDR?$IB?$FL?$IDh?$IC?$KK?$IK?z?$JB?R?$JC?J?$IC@
CONST	SEGMENT
??_C@_0CN@LDAEIIBE@PMC_From_B?$IC?L?$JF?$JM?$ILA?$IDR?$IB?$FL?$IDh?$IC?$KK?$IK?z?$JB?R?$JC?J?$IC@ DB 'P'
	DB	'MC_From_B', 082H, 0ccH, 095H, 09cH, 08bH, 'A', 083H, 'R', 081H
	DB	'[', 083H, 'h', 082H, 0aaH, 08aH, 0faH, 091H, 0d2H, 092H, 0caH
	DB	082H, 0e8H, 082H, 0c5H, 082H, 0cdH, 082H, 0c8H, 082H, 0a2H, '('
	DB	'%d)', 00H					; `string'
CONST	ENDS
;	COMDAT ??_C@_0BD@CNENCJHI@PMC_From_L?5?$CI?$CFd?4?$CFd?$CJ@
CONST	SEGMENT
??_C@_0BD@CNENCJHI@PMC_From_L?5?$CI?$CFd?4?$CFd?$CJ@ DB 'PMC_From_L (%d.%'
	DB	'd)', 00H					; `string'
CONST	ENDS
;	COMDAT ??_C@_0CN@KGEMOMG@PMC_From_L?$IC?L?$JF?$JM?$ILA?$IDR?$IB?$FL?$IDh?$IC?$KK?$IK?z?$JB?R?$JC?J?$IC@
CONST	SEGMENT
??_C@_0CN@KGEMOMG@PMC_From_L?$IC?L?$JF?$JM?$ILA?$IDR?$IB?$FL?$IDh?$IC?$KK?$IK?z?$JB?R?$JC?J?$IC@ DB 'P'
	DB	'MC_From_L', 082H, 0ccH, 095H, 09cH, 08bH, 'A', 083H, 'R', 081H
	DB	'[', 083H, 'h', 082H, 0aaH, 08aH, 0faH, 091H, 0d2H, 092H, 0caH
	DB	082H, 0e8H, 082H, 0c5H, 082H, 0cdH, 082H, 0c8H, 082H, 0a2H, '('
	DB	'%d)', 00H					; `string'
CONST	ENDS
;	COMDAT ??_C@_0BJ@JGINKGIA@?$IDf?$IB?$FL?$ID?$FO?$IC?L?$JD?$OA?$JHe?$IC?$KK?$II?j?$JCv?$IC?$LF?$IC?H?$IC?$KC@
CONST	SEGMENT
??_C@_0BJ@JGINKGIA@?$IDf?$IB?$FL?$ID?$FO?$IC?L?$JD?$OA?$JHe?$IC?$KK?$II?j?$JCv?$IC?$LF?$IC?H?$IC?$KC@ DB 083H
	DB	'f', 081H, '[', 083H, '^', 082H, 0ccH, 093H, 0e0H, 097H, 'e', 082H
	DB	0aaH, 088H, 0eaH, 092H, 'v', 082H, 0b5H, 082H, 0c8H, 082H, 0a2H
	DB	00H						; `string'
CONST	ENDS
;	COMDAT ??_C@_0CN@JELPCGPD@PMC_To_X_B?$IC?L?$JF?$JM?$ILA?$IDR?$IB?$FL?$IDh?$IC?$KK?$IK?z?$JB?R?$JC?J?$IC@
CONST	SEGMENT
??_C@_0CN@JELPCGPD@PMC_To_X_B?$IC?L?$JF?$JM?$ILA?$IDR?$IB?$FL?$IDh?$IC?$KK?$IK?z?$JB?R?$JC?J?$IC@ DB 'P'
	DB	'MC_To_X_B', 082H, 0ccH, 095H, 09cH, 08bH, 'A', 083H, 'R', 081H
	DB	'[', 083H, 'h', 082H, 0aaH, 08aH, 0faH, 091H, 0d2H, 092H, 0caH
	DB	082H, 0e8H, 082H, 0c5H, 082H, 0cdH, 082H, 0c8H, 082H, 0a2H, '('
	DB	'%d)', 00H					; `string'
CONST	ENDS
;	COMDAT ??_C@_0BD@MLGEOCDM@PMC_From_I?5?$CI?$CFd?4?$CFd?$CJ@
CONST	SEGMENT
??_C@_0BD@MLGEOCDM@PMC_From_I?5?$CI?$CFd?4?$CFd?$CJ@ DB 'PMC_From_I (%d.%'
	DB	'd)', 00H					; `string'
CONST	ENDS
;	COMDAT ??_C@_0CN@KHEEECME@PMC_From_I?$IC?L?$JF?$JM?$ILA?$IDR?$IB?$FL?$IDh?$IC?$KK?$IK?z?$JB?R?$JC?J?$IC@
CONST	SEGMENT
??_C@_0CN@KHEEECME@PMC_From_I?$IC?L?$JF?$JM?$ILA?$IDR?$IB?$FL?$IDh?$IC?$KK?$IK?z?$JB?R?$JC?J?$IC@ DB 'P'
	DB	'MC_From_I', 082H, 0ccH, 095H, 09cH, 08bH, 'A', 083H, 'R', 081H
	DB	'[', 083H, 'h', 082H, 0aaH, 08aH, 0faH, 091H, 0d2H, 092H, 0caH
	DB	082H, 0e8H, 082H, 0c5H, 082H, 0cdH, 082H, 0c8H, 082H, 0a2H, '('
	DB	'%d)', 00H					; `string'
CONST	ENDS
;	COMDAT xdata
xdata	SEGMENT
$unwind$_EQUALS_MEMORY DD 025053901H
	DD	011d2322H
	DD	07016001dH
	DD	05015H
xdata	ENDS
;	COMDAT xdata
xdata	SEGMENT
$unwind$TEST_PMC_To_X_L DD 025053901H
	DD	011d2322H
	DD	07016002dH
	DD	05015H
xdata	ENDS
;	COMDAT CONST
CONST	SEGMENT
TEST_PMC_To_X_L$rtcName$0 DB 078H
	DB	00H
	ORG $+2
TEST_PMC_To_X_L$rtcName$1 DB 072H
	DB	076H
	DB	061H
	DB	06cH
	DB	075H
	DB	065H
	DB	00H
	ORG $+5
TEST_PMC_To_X_L$rtcVarDesc DD 048H
	DD	08H
	DQ	FLAT:TEST_PMC_To_X_L$rtcName$1
	DD	028H
	DD	08H
	DQ	FLAT:TEST_PMC_To_X_L$rtcName$0
	ORG $+96
TEST_PMC_To_X_L$rtcFrameData DD 02H
	DD	00H
	DQ	FLAT:TEST_PMC_To_X_L$rtcVarDesc
CONST	ENDS
;	COMDAT xdata
xdata	SEGMENT
$unwind$TEST_PMC_To_X_I DD 025053901H
	DD	011d2322H
	DD	07016002dH
	DD	05015H
xdata	ENDS
;	COMDAT CONST
CONST	SEGMENT
TEST_PMC_To_X_I$rtcName$0 DB 078H
	DB	00H
	ORG $+2
TEST_PMC_To_X_I$rtcName$1 DB 072H
	DB	076H
	DB	061H
	DB	06cH
	DB	075H
	DB	065H
	DB	00H
	ORG $+5
TEST_PMC_To_X_I$rtcVarDesc DD 044H
	DD	04H
	DQ	FLAT:TEST_PMC_To_X_I$rtcName$1
	DD	028H
	DD	08H
	DQ	FLAT:TEST_PMC_To_X_I$rtcName$0
	ORG $+96
TEST_PMC_To_X_I$rtcFrameData DD 02H
	DD	00H
	DQ	FLAT:TEST_PMC_To_X_I$rtcVarDesc
CONST	ENDS
;	COMDAT xdata
xdata	SEGMENT
$unwind$TEST_PMC_From_L DD 025054a19H
	DD	011d2322H
	DD	070160053H
	DD	05015H
	DD	imagerel __GSHandlerCheck
	DD	0280H
xdata	ENDS
;	COMDAT CONST
CONST	SEGMENT
TEST_PMC_From_L$rtcName$0 DB 078H
	DB	00H
	ORG $+6
TEST_PMC_From_L$rtcName$1 DB 072H
	DB	062H
	DB	075H
	DB	066H
	DB	066H
	DB	065H
	DB	072H
	DB	00H
TEST_PMC_From_L$rtcName$2 DB 072H
	DB	06cH
	DB	065H
	DB	06eH
	DB	067H
	DB	074H
	DB	068H
	DB	00H
	ORG $+8
TEST_PMC_From_L$rtcVarDesc DD 0168H
	DD	08H
	DQ	FLAT:TEST_PMC_From_L$rtcName$2
	DD	050H
	DD	0100H
	DQ	FLAT:TEST_PMC_From_L$rtcName$1
	DD	028H
	DD	08H
	DQ	FLAT:TEST_PMC_From_L$rtcName$0
	ORG $+144
TEST_PMC_From_L$rtcFrameData DD 03H
	DD	00H
	DQ	FLAT:TEST_PMC_From_L$rtcVarDesc
CONST	ENDS
;	COMDAT xdata
xdata	SEGMENT
$unwind$TEST_PMC_From_I DD 025054a19H
	DD	011d2322H
	DD	070160053H
	DD	05015H
	DD	imagerel __GSHandlerCheck
	DD	0280H
xdata	ENDS
;	COMDAT CONST
CONST	SEGMENT
TEST_PMC_From_I$rtcName$0 DB 078H
	DB	00H
	ORG $+6
TEST_PMC_From_I$rtcName$1 DB 072H
	DB	062H
	DB	075H
	DB	066H
	DB	066H
	DB	065H
	DB	072H
	DB	00H
TEST_PMC_From_I$rtcName$2 DB 072H
	DB	06cH
	DB	065H
	DB	06eH
	DB	067H
	DB	074H
	DB	068H
	DB	00H
	ORG $+8
TEST_PMC_From_I$rtcVarDesc DD 0168H
	DD	08H
	DQ	FLAT:TEST_PMC_From_I$rtcName$2
	DD	050H
	DD	0100H
	DQ	FLAT:TEST_PMC_From_I$rtcName$1
	DD	028H
	DD	08H
	DQ	FLAT:TEST_PMC_From_I$rtcName$0
	ORG $+144
TEST_PMC_From_I$rtcFrameData DD 03H
	DD	00H
	DQ	FLAT:TEST_PMC_From_I$rtcVarDesc
CONST	ENDS
; Function compile flags: /Odt
;	COMDAT __JustMyCode_Default
_TEXT	SEGMENT
__JustMyCode_Default PROC				; COMDAT
	ret	0
__JustMyCode_Default ENDP
_TEXT	ENDS
; Function compile flags: /Odtp /RTCsu /ZI
; File z:\sources\lunor\repos\rougemeilland\palmtree.math.core.implements\palmtree.math.core.implements\pmc_debug.h
;	COMDAT _EQUALS_MEMORY
_TEXT	SEGMENT
buffer1$ = 224
count1$ = 232
buffer2$ = 240
count2$ = 248
_EQUALS_MEMORY PROC					; COMDAT

; 102  : {

	mov	QWORD PTR [rsp+32], r9
	mov	QWORD PTR [rsp+24], r8
	mov	QWORD PTR [rsp+16], rdx
	mov	QWORD PTR [rsp+8], rcx
	push	rbp
	push	rdi
	sub	rsp, 232				; 000000e8H
	lea	rbp, QWORD PTR [rsp+32]
	mov	rdi, rsp
	mov	ecx, 58					; 0000003aH
	mov	eax, -858993460				; ccccccccH
	rep stosd
	mov	rcx, QWORD PTR [rsp+264]
	lea	rcx, OFFSET FLAT:__1C66ECB2_pmc_debug@h
	call	__CheckForDebuggerJustMyCode

; 103  :     if (count1 != count2)

	mov	rax, QWORD PTR count2$[rbp]
	cmp	QWORD PTR count1$[rbp], rax
	je	SHORT $LN4@EQUALS_MEM

; 104  :         return (-1);

	mov	eax, -1
	jmp	SHORT $LN1@EQUALS_MEM
$LN4@EQUALS_MEM:
$LN2@EQUALS_MEM:

; 105  :     while (count1 > 0)

	cmp	QWORD PTR count1$[rbp], 0
	jbe	SHORT $LN3@EQUALS_MEM

; 106  :     {
; 107  :         if (*buffer1 != *buffer2)

	mov	rax, QWORD PTR buffer1$[rbp]
	movzx	eax, BYTE PTR [rax]
	mov	rcx, QWORD PTR buffer2$[rbp]
	movzx	ecx, BYTE PTR [rcx]
	cmp	eax, ecx
	je	SHORT $LN5@EQUALS_MEM

; 108  :             return (-1);

	mov	eax, -1
	jmp	SHORT $LN1@EQUALS_MEM
$LN5@EQUALS_MEM:

; 109  :         ++buffer1;

	mov	rax, QWORD PTR buffer1$[rbp]
	inc	rax
	mov	QWORD PTR buffer1$[rbp], rax

; 110  :         ++buffer2;

	mov	rax, QWORD PTR buffer2$[rbp]
	inc	rax
	mov	QWORD PTR buffer2$[rbp], rax

; 111  :         --count1;

	mov	rax, QWORD PTR count1$[rbp]
	dec	rax
	mov	QWORD PTR count1$[rbp], rax

; 112  :     }

	jmp	SHORT $LN2@EQUALS_MEM
$LN3@EQUALS_MEM:

; 113  :     return (0);

	xor	eax, eax
$LN1@EQUALS_MEM:

; 114  : }

	lea	rsp, QWORD PTR [rbp+200]
	pop	rdi
	pop	rbp
	ret	0
_EQUALS_MEMORY ENDP
_TEXT	ENDS
; Function compile flags: /Odtp /RTCsu /ZI
; File z:\sources\lunor\repos\rougemeilland\palmtree.math.core.implements\palmtree.math.core.implements\test_op_from_to.c
;	COMDAT TEST_PMC_To_X_L
_TEXT	SEGMENT
x$ = 8
rvalue$ = 40
result$ = 68
x_result$ = 100
tv134 = 308
tv91 = 308
tv74 = 308
tv82 = 312
tv64 = 312
env$ = 352
ep$ = 360
no$ = 368
buf$ = 376
buf_size$ = 384
desired_result_code$ = 392
desired_rvalue$ = 400
TEST_PMC_To_X_L PROC					; COMDAT

; 81   : {

$LN11:
	mov	QWORD PTR [rsp+32], r9
	mov	DWORD PTR [rsp+24], r8d
	mov	QWORD PTR [rsp+16], rdx
	mov	QWORD PTR [rsp+8], rcx
	push	rbp
	push	rdi
	sub	rsp, 360				; 00000168H
	lea	rbp, QWORD PTR [rsp+32]
	mov	rdi, rsp
	mov	ecx, 90					; 0000005aH
	mov	eax, -858993460				; ccccccccH
	rep stosd
	mov	rcx, QWORD PTR [rsp+392]
	lea	rcx, OFFSET FLAT:__750650AD_test_op_from_to@c
	call	__CheckForDebuggerJustMyCode

; 82   :     HANDLE x;
; 83   :     unsigned __int64 rvalue;
; 84   :     PMC_STATUS_CODE result;
; 85   :     PMC_STATUS_CODE x_result;
; 86   :     TEST_Assert(env, FormatTestLabel("PMC_To_X_L (%d.%d)", no, 1), (x_result = ep->PMC_From_B(buf, buf_size, &x)) == PMC_STATUS_OK, FormatTestMesssage("PMC_From_Bの復帰コードが期待通りではない(%d)", x_result));

	lea	r8, QWORD PTR x$[rbp]
	mov	rdx, QWORD PTR buf_size$[rbp]
	mov	rcx, QWORD PTR buf$[rbp]
	mov	rax, QWORD PTR ep$[rbp]
	call	QWORD PTR [rax+32]
	mov	DWORD PTR x_result$[rbp], eax
	cmp	DWORD PTR x_result$[rbp], 0
	jne	SHORT $LN5@TEST_PMC_T
	mov	DWORD PTR tv74[rbp], 1
	jmp	SHORT $LN6@TEST_PMC_T
$LN5@TEST_PMC_T:
	mov	DWORD PTR tv74[rbp], 0
$LN6@TEST_PMC_T:
	mov	edx, DWORD PTR x_result$[rbp]
	lea	rcx, OFFSET FLAT:??_C@_0CN@LDAEIIBE@PMC_From_B?$IC?L?$JF?$JM?$ILA?$IDR?$IB?$FL?$IDh?$IC?$KK?$IK?z?$JB?R?$JC?J?$IC@
	call	FormatTestMesssage
	mov	QWORD PTR tv64[rbp], rax
	mov	r8d, 1
	mov	edx, DWORD PTR no$[rbp]
	lea	rcx, OFFSET FLAT:??_C@_0BD@JLBCOHKK@PMC_To_X_L?5?$CI?$CFd?4?$CFd?$CJ@
	call	FormatTestLabel
	mov	rcx, QWORD PTR tv64[rbp]
	mov	r9, rcx
	mov	r8d, DWORD PTR tv74[rbp]
	mov	rdx, rax
	mov	rcx, QWORD PTR env$[rbp]
	call	TEST_Assert

; 87   :     TEST_Assert(env, FormatTestLabel("PMC_To_X_L (%d.%d)", no, 2), (result = ep->PMC_To_X_L(x, &rvalue)) == desired_result_code, FormatTestMesssage("PMC_To_X_Iの復帰コードが期待通りではない(%d)", result));

	lea	rdx, QWORD PTR rvalue$[rbp]
	mov	rcx, QWORD PTR x$[rbp]
	mov	rax, QWORD PTR ep$[rbp]
	call	QWORD PTR [rax+56]
	mov	DWORD PTR result$[rbp], eax
	mov	eax, DWORD PTR desired_result_code$[rbp]
	cmp	DWORD PTR result$[rbp], eax
	jne	SHORT $LN7@TEST_PMC_T
	mov	DWORD PTR tv91[rbp], 1
	jmp	SHORT $LN8@TEST_PMC_T
$LN7@TEST_PMC_T:
	mov	DWORD PTR tv91[rbp], 0
$LN8@TEST_PMC_T:
	mov	edx, DWORD PTR result$[rbp]
	lea	rcx, OFFSET FLAT:??_C@_0CN@IAPPOMCD@PMC_To_X_I?$IC?L?$JF?$JM?$ILA?$IDR?$IB?$FL?$IDh?$IC?$KK?$IK?z?$JB?R?$JC?J?$IC@
	call	FormatTestMesssage
	mov	QWORD PTR tv82[rbp], rax
	mov	r8d, 2
	mov	edx, DWORD PTR no$[rbp]
	lea	rcx, OFFSET FLAT:??_C@_0BD@JLBCOHKK@PMC_To_X_L?5?$CI?$CFd?4?$CFd?$CJ@
	call	FormatTestLabel
	mov	rcx, QWORD PTR tv82[rbp]
	mov	r9, rcx
	mov	r8d, DWORD PTR tv91[rbp]
	mov	rdx, rax
	mov	rcx, QWORD PTR env$[rbp]
	call	TEST_Assert

; 88   :     if (desired_result_code == PMC_STATUS_OK)

	cmp	DWORD PTR desired_result_code$[rbp], 0
	jne	SHORT $LN2@TEST_PMC_T

; 89   :         TEST_Assert(env, FormatTestLabel("PMC_To_X_L (%d.%d)", no, 3), rvalue == desired_rvalue, "データの内容が一致しない");

	mov	rax, QWORD PTR desired_rvalue$[rbp]
	cmp	QWORD PTR rvalue$[rbp], rax
	jne	SHORT $LN9@TEST_PMC_T
	mov	DWORD PTR tv134[rbp], 1
	jmp	SHORT $LN10@TEST_PMC_T
$LN9@TEST_PMC_T:
	mov	DWORD PTR tv134[rbp], 0
$LN10@TEST_PMC_T:
	mov	r8d, 3
	mov	edx, DWORD PTR no$[rbp]
	lea	rcx, OFFSET FLAT:??_C@_0BD@JLBCOHKK@PMC_To_X_L?5?$CI?$CFd?4?$CFd?$CJ@
	call	FormatTestLabel
	lea	r9, OFFSET FLAT:??_C@_0BJ@JGINKGIA@?$IDf?$IB?$FL?$ID?$FO?$IC?L?$JD?$OA?$JHe?$IC?$KK?$II?j?$JCv?$IC?$LF?$IC?H?$IC?$KC@
	mov	r8d, DWORD PTR tv134[rbp]
	mov	rdx, rax
	mov	rcx, QWORD PTR env$[rbp]
	call	TEST_Assert
$LN2@TEST_PMC_T:

; 90   :     if (x_result == PMC_STATUS_OK)

	cmp	DWORD PTR x_result$[rbp], 0
	jne	SHORT $LN3@TEST_PMC_T

; 91   :         ep->PMC_Dispose(x);

	mov	rcx, QWORD PTR x$[rbp]
	mov	rax, QWORD PTR ep$[rbp]
	call	QWORD PTR [rax+40]
$LN3@TEST_PMC_T:

; 92   : }

	lea	rcx, QWORD PTR [rbp-32]
	lea	rdx, OFFSET FLAT:TEST_PMC_To_X_L$rtcFrameData
	call	_RTC_CheckStackVars
	lea	rsp, QWORD PTR [rbp+328]
	pop	rdi
	pop	rbp
	ret	0
TEST_PMC_To_X_L ENDP
_TEXT	ENDS
; Function compile flags: /Odtp /RTCsu /ZI
; File z:\sources\lunor\repos\rougemeilland\palmtree.math.core.implements\palmtree.math.core.implements\test_op_from_to.c
;	COMDAT TEST_PMC_To_X_I
_TEXT	SEGMENT
x$ = 8
rvalue$ = 36
result$ = 68
x_result$ = 100
tv134 = 308
tv91 = 308
tv74 = 308
tv82 = 312
tv64 = 312
env$ = 352
ep$ = 360
no$ = 368
buf$ = 376
buf_size$ = 384
desired_result_code$ = 392
desired_rvalue$ = 400
TEST_PMC_To_X_I PROC					; COMDAT

; 67   : {

$LN11:
	mov	QWORD PTR [rsp+32], r9
	mov	DWORD PTR [rsp+24], r8d
	mov	QWORD PTR [rsp+16], rdx
	mov	QWORD PTR [rsp+8], rcx
	push	rbp
	push	rdi
	sub	rsp, 360				; 00000168H
	lea	rbp, QWORD PTR [rsp+32]
	mov	rdi, rsp
	mov	ecx, 90					; 0000005aH
	mov	eax, -858993460				; ccccccccH
	rep stosd
	mov	rcx, QWORD PTR [rsp+392]
	lea	rcx, OFFSET FLAT:__750650AD_test_op_from_to@c
	call	__CheckForDebuggerJustMyCode

; 68   :     HANDLE x;
; 69   :     unsigned __int32 rvalue;
; 70   :     PMC_STATUS_CODE result;
; 71   :     PMC_STATUS_CODE x_result;
; 72   :     TEST_Assert(env, FormatTestLabel("PMC_To_X_I (%d.%d)", no, 1), (x_result = ep->PMC_From_B(buf, buf_size, &x)) == PMC_STATUS_OK, FormatTestMesssage("PMC_From_Bの復帰コードが期待通りではない(%d)", x_result));

	lea	r8, QWORD PTR x$[rbp]
	mov	rdx, QWORD PTR buf_size$[rbp]
	mov	rcx, QWORD PTR buf$[rbp]
	mov	rax, QWORD PTR ep$[rbp]
	call	QWORD PTR [rax+32]
	mov	DWORD PTR x_result$[rbp], eax
	cmp	DWORD PTR x_result$[rbp], 0
	jne	SHORT $LN5@TEST_PMC_T
	mov	DWORD PTR tv74[rbp], 1
	jmp	SHORT $LN6@TEST_PMC_T
$LN5@TEST_PMC_T:
	mov	DWORD PTR tv74[rbp], 0
$LN6@TEST_PMC_T:
	mov	edx, DWORD PTR x_result$[rbp]
	lea	rcx, OFFSET FLAT:??_C@_0CN@LDAEIIBE@PMC_From_B?$IC?L?$JF?$JM?$ILA?$IDR?$IB?$FL?$IDh?$IC?$KK?$IK?z?$JB?R?$JC?J?$IC@
	call	FormatTestMesssage
	mov	QWORD PTR tv64[rbp], rax
	mov	r8d, 1
	mov	edx, DWORD PTR no$[rbp]
	lea	rcx, OFFSET FLAT:??_C@_0BD@HNDLCMOO@PMC_To_X_I?5?$CI?$CFd?4?$CFd?$CJ@
	call	FormatTestLabel
	mov	rcx, QWORD PTR tv64[rbp]
	mov	r9, rcx
	mov	r8d, DWORD PTR tv74[rbp]
	mov	rdx, rax
	mov	rcx, QWORD PTR env$[rbp]
	call	TEST_Assert

; 73   :     TEST_Assert(env, FormatTestLabel("PMC_To_X_I (%d.%d)", no, 2), (result = ep->PMC_To_X_I(x, &rvalue)) == desired_result_code, FormatTestMesssage("PMC_To_X_Iの復帰コードが期待通りではない(%d)", result));

	lea	rdx, QWORD PTR rvalue$[rbp]
	mov	rcx, QWORD PTR x$[rbp]
	mov	rax, QWORD PTR ep$[rbp]
	call	QWORD PTR [rax+48]
	mov	DWORD PTR result$[rbp], eax
	mov	eax, DWORD PTR desired_result_code$[rbp]
	cmp	DWORD PTR result$[rbp], eax
	jne	SHORT $LN7@TEST_PMC_T
	mov	DWORD PTR tv91[rbp], 1
	jmp	SHORT $LN8@TEST_PMC_T
$LN7@TEST_PMC_T:
	mov	DWORD PTR tv91[rbp], 0
$LN8@TEST_PMC_T:
	mov	edx, DWORD PTR result$[rbp]
	lea	rcx, OFFSET FLAT:??_C@_0CN@IAPPOMCD@PMC_To_X_I?$IC?L?$JF?$JM?$ILA?$IDR?$IB?$FL?$IDh?$IC?$KK?$IK?z?$JB?R?$JC?J?$IC@
	call	FormatTestMesssage
	mov	QWORD PTR tv82[rbp], rax
	mov	r8d, 2
	mov	edx, DWORD PTR no$[rbp]
	lea	rcx, OFFSET FLAT:??_C@_0BD@HNDLCMOO@PMC_To_X_I?5?$CI?$CFd?4?$CFd?$CJ@
	call	FormatTestLabel
	mov	rcx, QWORD PTR tv82[rbp]
	mov	r9, rcx
	mov	r8d, DWORD PTR tv91[rbp]
	mov	rdx, rax
	mov	rcx, QWORD PTR env$[rbp]
	call	TEST_Assert

; 74   :     if (desired_result_code == PMC_STATUS_OK)

	cmp	DWORD PTR desired_result_code$[rbp], 0
	jne	SHORT $LN2@TEST_PMC_T

; 75   :         TEST_Assert(env, FormatTestLabel("PMC_To_X_I (%d.%d)", no, 3), rvalue == desired_rvalue, "データの内容が一致しない");

	mov	eax, DWORD PTR desired_rvalue$[rbp]
	cmp	DWORD PTR rvalue$[rbp], eax
	jne	SHORT $LN9@TEST_PMC_T
	mov	DWORD PTR tv134[rbp], 1
	jmp	SHORT $LN10@TEST_PMC_T
$LN9@TEST_PMC_T:
	mov	DWORD PTR tv134[rbp], 0
$LN10@TEST_PMC_T:
	mov	r8d, 3
	mov	edx, DWORD PTR no$[rbp]
	lea	rcx, OFFSET FLAT:??_C@_0BD@HNDLCMOO@PMC_To_X_I?5?$CI?$CFd?4?$CFd?$CJ@
	call	FormatTestLabel
	lea	r9, OFFSET FLAT:??_C@_0BJ@JGINKGIA@?$IDf?$IB?$FL?$ID?$FO?$IC?L?$JD?$OA?$JHe?$IC?$KK?$II?j?$JCv?$IC?$LF?$IC?H?$IC?$KC@
	mov	r8d, DWORD PTR tv134[rbp]
	mov	rdx, rax
	mov	rcx, QWORD PTR env$[rbp]
	call	TEST_Assert
$LN2@TEST_PMC_T:

; 76   :     if (x_result == PMC_STATUS_OK)

	cmp	DWORD PTR x_result$[rbp], 0
	jne	SHORT $LN3@TEST_PMC_T

; 77   :         ep->PMC_Dispose(x);

	mov	rcx, QWORD PTR x$[rbp]
	mov	rax, QWORD PTR ep$[rbp]
	call	QWORD PTR [rax+40]
$LN3@TEST_PMC_T:

; 78   : }

	lea	rcx, QWORD PTR [rbp-32]
	lea	rdx, OFFSET FLAT:TEST_PMC_To_X_I$rtcFrameData
	call	_RTC_CheckStackVars
	lea	rsp, QWORD PTR [rbp+328]
	pop	rdi
	pop	rbp
	ret	0
TEST_PMC_To_X_I ENDP
_TEXT	ENDS
; Function compile flags: /Odtp /RTCsu /ZI
; File z:\sources\lunor\repos\rougemeilland\palmtree.math.core.implements\palmtree.math.core.implements\test_op_from_to.c
;	COMDAT TEST_PMC_From_L
_TEXT	SEGMENT
x$ = 8
rbuffer$ = 48
rlength$ = 328
result$ = 356
x_result$ = 388
tv139 = 596
tv92 = 596
tv73 = 596
tv81 = 600
tv64 = 600
__$ArrayPad$ = 608
env$ = 656
ep$ = 664
no$ = 672
v$ = 680
buf$ = 688
buf_size$ = 696
TEST_PMC_From_L PROC					; COMDAT

; 53   : {

$LN10:
	mov	QWORD PTR [rsp+32], r9
	mov	DWORD PTR [rsp+24], r8d
	mov	QWORD PTR [rsp+16], rdx
	mov	QWORD PTR [rsp+8], rcx
	push	rbp
	push	rdi
	sub	rsp, 664				; 00000298H
	lea	rbp, QWORD PTR [rsp+32]
	mov	rdi, rsp
	mov	ecx, 166				; 000000a6H
	mov	eax, -858993460				; ccccccccH
	rep stosd
	mov	rcx, QWORD PTR [rsp+696]
	mov	rax, QWORD PTR __security_cookie
	xor	rax, rbp
	mov	QWORD PTR __$ArrayPad$[rbp], rax
	lea	rcx, OFFSET FLAT:__750650AD_test_op_from_to@c
	call	__CheckForDebuggerJustMyCode

; 54   :     HANDLE x;
; 55   :     unsigned char rbuffer[256];
; 56   :     size_t rlength;
; 57   :     PMC_STATUS_CODE result;
; 58   :     PMC_STATUS_CODE x_result;
; 59   :     TEST_Assert(env, FormatTestLabel("PMC_From_L (%d.%d)", no, 1), (x_result = ep->PMC_From_L(v, &x)) == PMC_STATUS_OK, FormatTestMesssage("PMC_From_Lの復帰コードが期待通りではない(%d)", x_result));

	lea	rdx, QWORD PTR x$[rbp]
	mov	rcx, QWORD PTR v$[rbp]
	mov	rax, QWORD PTR ep$[rbp]
	call	QWORD PTR [rax+24]
	mov	DWORD PTR x_result$[rbp], eax
	cmp	DWORD PTR x_result$[rbp], 0
	jne	SHORT $LN4@TEST_PMC_F
	mov	DWORD PTR tv73[rbp], 1
	jmp	SHORT $LN5@TEST_PMC_F
$LN4@TEST_PMC_F:
	mov	DWORD PTR tv73[rbp], 0
$LN5@TEST_PMC_F:
	mov	edx, DWORD PTR x_result$[rbp]
	lea	rcx, OFFSET FLAT:??_C@_0CN@KGEMOMG@PMC_From_L?$IC?L?$JF?$JM?$ILA?$IDR?$IB?$FL?$IDh?$IC?$KK?$IK?z?$JB?R?$JC?J?$IC@
	call	FormatTestMesssage
	mov	QWORD PTR tv64[rbp], rax
	mov	r8d, 1
	mov	edx, DWORD PTR no$[rbp]
	lea	rcx, OFFSET FLAT:??_C@_0BD@CNENCJHI@PMC_From_L?5?$CI?$CFd?4?$CFd?$CJ@
	call	FormatTestLabel
	mov	rcx, QWORD PTR tv64[rbp]
	mov	r9, rcx
	mov	r8d, DWORD PTR tv73[rbp]
	mov	rdx, rax
	mov	rcx, QWORD PTR env$[rbp]
	call	TEST_Assert

; 60   :     TEST_Assert(env, FormatTestLabel("PMC_From_L (%d.%d)", no, 2), (result = ep->PMC_To_X_B(x, rbuffer, sizeof(rbuffer), &rlength)) == PMC_STATUS_OK, FormatTestMesssage("PMC_To_X_Bの復帰コードが期待通りではない(%d)", result));

	lea	r9, QWORD PTR rlength$[rbp]
	mov	r8d, 256				; 00000100H
	lea	rdx, QWORD PTR rbuffer$[rbp]
	mov	rcx, QWORD PTR x$[rbp]
	mov	rax, QWORD PTR ep$[rbp]
	call	QWORD PTR [rax+64]
	mov	DWORD PTR result$[rbp], eax
	cmp	DWORD PTR result$[rbp], 0
	jne	SHORT $LN6@TEST_PMC_F
	mov	DWORD PTR tv92[rbp], 1
	jmp	SHORT $LN7@TEST_PMC_F
$LN6@TEST_PMC_F:
	mov	DWORD PTR tv92[rbp], 0
$LN7@TEST_PMC_F:
	mov	edx, DWORD PTR result$[rbp]
	lea	rcx, OFFSET FLAT:??_C@_0CN@JELPCGPD@PMC_To_X_B?$IC?L?$JF?$JM?$ILA?$IDR?$IB?$FL?$IDh?$IC?$KK?$IK?z?$JB?R?$JC?J?$IC@
	call	FormatTestMesssage
	mov	QWORD PTR tv81[rbp], rax
	mov	r8d, 2
	mov	edx, DWORD PTR no$[rbp]
	lea	rcx, OFFSET FLAT:??_C@_0BD@CNENCJHI@PMC_From_L?5?$CI?$CFd?4?$CFd?$CJ@
	call	FormatTestLabel
	mov	rcx, QWORD PTR tv81[rbp]
	mov	r9, rcx
	mov	r8d, DWORD PTR tv92[rbp]
	mov	rdx, rax
	mov	rcx, QWORD PTR env$[rbp]
	call	TEST_Assert

; 61   :     TEST_Assert(env, FormatTestLabel("PMC_From_L (%d.%d)", no, 3), _EQUALS_MEMORY(rbuffer, rlength, buf, buf_size) == 0, "データの内容が一致しない");

	mov	r9, QWORD PTR buf_size$[rbp]
	mov	r8, QWORD PTR buf$[rbp]
	mov	rdx, QWORD PTR rlength$[rbp]
	lea	rcx, QWORD PTR rbuffer$[rbp]
	call	_EQUALS_MEMORY
	test	eax, eax
	jne	SHORT $LN8@TEST_PMC_F
	mov	DWORD PTR tv139[rbp], 1
	jmp	SHORT $LN9@TEST_PMC_F
$LN8@TEST_PMC_F:
	mov	DWORD PTR tv139[rbp], 0
$LN9@TEST_PMC_F:
	mov	r8d, 3
	mov	edx, DWORD PTR no$[rbp]
	lea	rcx, OFFSET FLAT:??_C@_0BD@CNENCJHI@PMC_From_L?5?$CI?$CFd?4?$CFd?$CJ@
	call	FormatTestLabel
	lea	r9, OFFSET FLAT:??_C@_0BJ@JGINKGIA@?$IDf?$IB?$FL?$ID?$FO?$IC?L?$JD?$OA?$JHe?$IC?$KK?$II?j?$JCv?$IC?$LF?$IC?H?$IC?$KC@
	mov	r8d, DWORD PTR tv139[rbp]
	mov	rdx, rax
	mov	rcx, QWORD PTR env$[rbp]
	call	TEST_Assert

; 62   :     if (x_result == PMC_STATUS_OK)

	cmp	DWORD PTR x_result$[rbp], 0
	jne	SHORT $LN2@TEST_PMC_F

; 63   :         ep->PMC_Dispose(x);

	mov	rcx, QWORD PTR x$[rbp]
	mov	rax, QWORD PTR ep$[rbp]
	call	QWORD PTR [rax+40]
$LN2@TEST_PMC_F:

; 64   : }

	lea	rcx, QWORD PTR [rbp-32]
	lea	rdx, OFFSET FLAT:TEST_PMC_From_L$rtcFrameData
	call	_RTC_CheckStackVars
	mov	rcx, QWORD PTR __$ArrayPad$[rbp]
	xor	rcx, rbp
	call	__security_check_cookie
	lea	rsp, QWORD PTR [rbp+632]
	pop	rdi
	pop	rbp
	ret	0
TEST_PMC_From_L ENDP
_TEXT	ENDS
; Function compile flags: /Odtp /RTCsu /ZI
; File z:\sources\lunor\repos\rougemeilland\palmtree.math.core.implements\palmtree.math.core.implements\test_op_from_to.c
;	COMDAT TEST_PMC_From_I
_TEXT	SEGMENT
x$ = 8
rbuffer$ = 48
rlength$ = 328
result$ = 356
x_result$ = 388
tv139 = 596
tv92 = 596
tv73 = 596
tv81 = 600
tv64 = 600
__$ArrayPad$ = 608
env$ = 656
ep$ = 664
no$ = 672
v$ = 680
buf$ = 688
buf_size$ = 696
TEST_PMC_From_I PROC					; COMDAT

; 39   : {

$LN10:
	mov	DWORD PTR [rsp+32], r9d
	mov	DWORD PTR [rsp+24], r8d
	mov	QWORD PTR [rsp+16], rdx
	mov	QWORD PTR [rsp+8], rcx
	push	rbp
	push	rdi
	sub	rsp, 664				; 00000298H
	lea	rbp, QWORD PTR [rsp+32]
	mov	rdi, rsp
	mov	ecx, 166				; 000000a6H
	mov	eax, -858993460				; ccccccccH
	rep stosd
	mov	rcx, QWORD PTR [rsp+696]
	mov	rax, QWORD PTR __security_cookie
	xor	rax, rbp
	mov	QWORD PTR __$ArrayPad$[rbp], rax
	lea	rcx, OFFSET FLAT:__750650AD_test_op_from_to@c
	call	__CheckForDebuggerJustMyCode

; 40   :     HANDLE x;
; 41   :     unsigned char rbuffer[256];
; 42   :     size_t rlength;
; 43   :     PMC_STATUS_CODE result;
; 44   :     PMC_STATUS_CODE x_result;
; 45   :     TEST_Assert(env, FormatTestLabel("PMC_From_I (%d.%d)", no, 1), (x_result = ep->PMC_From_I(v, &x)) == PMC_STATUS_OK, FormatTestMesssage("PMC_From_Iの復帰コードが期待通りではない(%d)", x_result));

	lea	rdx, QWORD PTR x$[rbp]
	mov	ecx, DWORD PTR v$[rbp]
	mov	rax, QWORD PTR ep$[rbp]
	call	QWORD PTR [rax+16]
	mov	DWORD PTR x_result$[rbp], eax
	cmp	DWORD PTR x_result$[rbp], 0
	jne	SHORT $LN4@TEST_PMC_F
	mov	DWORD PTR tv73[rbp], 1
	jmp	SHORT $LN5@TEST_PMC_F
$LN4@TEST_PMC_F:
	mov	DWORD PTR tv73[rbp], 0
$LN5@TEST_PMC_F:
	mov	edx, DWORD PTR x_result$[rbp]
	lea	rcx, OFFSET FLAT:??_C@_0CN@KHEEECME@PMC_From_I?$IC?L?$JF?$JM?$ILA?$IDR?$IB?$FL?$IDh?$IC?$KK?$IK?z?$JB?R?$JC?J?$IC@
	call	FormatTestMesssage
	mov	QWORD PTR tv64[rbp], rax
	mov	r8d, 1
	mov	edx, DWORD PTR no$[rbp]
	lea	rcx, OFFSET FLAT:??_C@_0BD@MLGEOCDM@PMC_From_I?5?$CI?$CFd?4?$CFd?$CJ@
	call	FormatTestLabel
	mov	rcx, QWORD PTR tv64[rbp]
	mov	r9, rcx
	mov	r8d, DWORD PTR tv73[rbp]
	mov	rdx, rax
	mov	rcx, QWORD PTR env$[rbp]
	call	TEST_Assert

; 46   :     TEST_Assert(env, FormatTestLabel("PMC_From_I (%d.%d)", no, 2), (result = ep->PMC_To_X_B(x, rbuffer, sizeof(rbuffer), &rlength)) == PMC_STATUS_OK, FormatTestMesssage("PMC_To_X_Bの復帰コードが期待通りではない(%d)", result));

	lea	r9, QWORD PTR rlength$[rbp]
	mov	r8d, 256				; 00000100H
	lea	rdx, QWORD PTR rbuffer$[rbp]
	mov	rcx, QWORD PTR x$[rbp]
	mov	rax, QWORD PTR ep$[rbp]
	call	QWORD PTR [rax+64]
	mov	DWORD PTR result$[rbp], eax
	cmp	DWORD PTR result$[rbp], 0
	jne	SHORT $LN6@TEST_PMC_F
	mov	DWORD PTR tv92[rbp], 1
	jmp	SHORT $LN7@TEST_PMC_F
$LN6@TEST_PMC_F:
	mov	DWORD PTR tv92[rbp], 0
$LN7@TEST_PMC_F:
	mov	edx, DWORD PTR result$[rbp]
	lea	rcx, OFFSET FLAT:??_C@_0CN@JELPCGPD@PMC_To_X_B?$IC?L?$JF?$JM?$ILA?$IDR?$IB?$FL?$IDh?$IC?$KK?$IK?z?$JB?R?$JC?J?$IC@
	call	FormatTestMesssage
	mov	QWORD PTR tv81[rbp], rax
	mov	r8d, 2
	mov	edx, DWORD PTR no$[rbp]
	lea	rcx, OFFSET FLAT:??_C@_0BD@MLGEOCDM@PMC_From_I?5?$CI?$CFd?4?$CFd?$CJ@
	call	FormatTestLabel
	mov	rcx, QWORD PTR tv81[rbp]
	mov	r9, rcx
	mov	r8d, DWORD PTR tv92[rbp]
	mov	rdx, rax
	mov	rcx, QWORD PTR env$[rbp]
	call	TEST_Assert

; 47   :     TEST_Assert(env, FormatTestLabel("PMC_From_I (%d.%d)", no, 3), _EQUALS_MEMORY(rbuffer, rlength, buf, buf_size) == 0, "データの内容が一致しない");

	mov	r9, QWORD PTR buf_size$[rbp]
	mov	r8, QWORD PTR buf$[rbp]
	mov	rdx, QWORD PTR rlength$[rbp]
	lea	rcx, QWORD PTR rbuffer$[rbp]
	call	_EQUALS_MEMORY
	test	eax, eax
	jne	SHORT $LN8@TEST_PMC_F
	mov	DWORD PTR tv139[rbp], 1
	jmp	SHORT $LN9@TEST_PMC_F
$LN8@TEST_PMC_F:
	mov	DWORD PTR tv139[rbp], 0
$LN9@TEST_PMC_F:
	mov	r8d, 3
	mov	edx, DWORD PTR no$[rbp]
	lea	rcx, OFFSET FLAT:??_C@_0BD@MLGEOCDM@PMC_From_I?5?$CI?$CFd?4?$CFd?$CJ@
	call	FormatTestLabel
	lea	r9, OFFSET FLAT:??_C@_0BJ@JGINKGIA@?$IDf?$IB?$FL?$ID?$FO?$IC?L?$JD?$OA?$JHe?$IC?$KK?$II?j?$JCv?$IC?$LF?$IC?H?$IC?$KC@
	mov	r8d, DWORD PTR tv139[rbp]
	mov	rdx, rax
	mov	rcx, QWORD PTR env$[rbp]
	call	TEST_Assert

; 48   :     if (x_result == PMC_STATUS_OK)

	cmp	DWORD PTR x_result$[rbp], 0
	jne	SHORT $LN2@TEST_PMC_F

; 49   :         ep->PMC_Dispose(x);

	mov	rcx, QWORD PTR x$[rbp]
	mov	rax, QWORD PTR ep$[rbp]
	call	QWORD PTR [rax+40]
$LN2@TEST_PMC_F:

; 50   : }

	lea	rcx, QWORD PTR [rbp-32]
	lea	rdx, OFFSET FLAT:TEST_PMC_From_I$rtcFrameData
	call	_RTC_CheckStackVars
	mov	rcx, QWORD PTR __$ArrayPad$[rbp]
	xor	rcx, rbp
	call	__security_check_cookie
	lea	rsp, QWORD PTR [rbp+632]
	pop	rdi
	pop	rbp
	ret	0
TEST_PMC_From_I ENDP
_TEXT	ENDS
END
