	.file	"pmc_divrem.c"
	.text
Ltext0:
	.def	__COPY_MEMORY_UNIT_DIV;	.scl	3;	.type	32;	.endef
__COPY_MEMORY_UNIT_DIV:
LFB4185:
	.file 1 "pmc_internal.h"
	.loc 1 288 1
	.cfi_startproc
	pushl	%ebp
	.cfi_def_cfa_offset 8
	.cfi_offset 5, -8
	movl	%esp, %ebp
	.cfi_def_cfa_register 5
	pushl	%edi
	pushl	%esi
	pushl	%ebx
	subl	$16, %esp
	.cfi_offset 7, -12
	.cfi_offset 6, -16
	.cfi_offset 3, -20
	movl	8(%ebp), %eax
	movl	%eax, -16(%ebp)
	movl	12(%ebp), %eax
	movl	%eax, -20(%ebp)
	movl	16(%ebp), %eax
	movl	%eax, -24(%ebp)
LBB18:
LBB19:
	.file 2 "C:/GNU/MINGW64/i686-8.1.0-win32-dwarf-rt_v6-rev0/mingw32/i686-w64-mingw32/include/psdk_inc/intrin-impl.h"
	.loc 2 1773 87
	movl	-16(%ebp), %ecx
	movl	-20(%ebp), %edx
	movl	-24(%ebp), %eax
	movl	%ecx, %ebx
	movl	%ebx, %edi
	movl	%edx, %esi
	movl	%eax, %ecx
/APP
 # 1773 "C:/GNU/MINGW64/i686-8.1.0-win32-dwarf-rt_v6-rev0/mingw32/i686-w64-mingw32/include/psdk_inc/intrin-impl.h" 1
	rep movsd
 # 0 "" 2
/NO_APP
	movl	%ecx, %eax
	movl	%esi, %edx
	movl	%edi, %ebx
	movl	%ebx, -16(%ebp)
	movl	%edx, -20(%ebp)
	movl	%eax, -24(%ebp)
LBE19:
LBE18:
	.loc 1 302 1
	nop
	addl	$16, %esp
	popl	%ebx
	.cfi_restore 3
	popl	%esi
	.cfi_restore 6
	popl	%edi
	.cfi_restore 7
	popl	%ebp
	.cfi_restore 5
	.cfi_def_cfa 4, 4
	ret
	.cfi_endproc
LFE4185:
	.def	__FROMWORDTODWORD;	.scl	3;	.type	32;	.endef
__FROMWORDTODWORD:
LFB4195:
	.loc 1 388 1
	.cfi_startproc
	pushl	%ebp
	.cfi_def_cfa_offset 8
	.cfi_offset 5, -8
	movl	%esp, %ebp
	.cfi_def_cfa_register 5
	pushl	%edi
	pushl	%esi
	pushl	%ebx
	subl	$12, %esp
	.cfi_offset 7, -12
	.cfi_offset 6, -16
	.cfi_offset 3, -20
	.loc 1 389 14
	movl	8(%ebp), %eax
	movl	$0, %edx
	.loc 1 389 36
	movl	%eax, %edx
	movl	$0, %eax
	.loc 1 389 43
	movl	12(%ebp), %esi
	movl	$0, %edi
	movl	%eax, -24(%ebp)
	movl	%edx, -20(%ebp)
	orl	%esi, %eax
	movl	%eax, %ecx
	movl	-20(%ebp), %eax
	orl	%edi, %eax
	movl	%eax, %ebx
	movl	%ecx, %eax
	movl	%ebx, %edx
	.loc 1 390 1
	addl	$12, %esp
	popl	%ebx
	.cfi_restore 3
	popl	%esi
	.cfi_restore 6
	popl	%edi
	.cfi_restore 7
	popl	%ebp
	.cfi_restore 5
	.cfi_def_cfa 4, 4
	ret
	.cfi_endproc
LFE4195:
	.def	__FROMDWORDTOWORD;	.scl	3;	.type	32;	.endef
__FROMDWORDTOWORD:
LFB4196:
	.loc 1 393 1
	.cfi_startproc
	pushl	%ebp
	.cfi_def_cfa_offset 8
	.cfi_offset 5, -8
	movl	%esp, %ebp
	.cfi_def_cfa_register 5
	pushl	%ebx
	subl	$12, %esp
	.cfi_offset 3, -12
	movl	8(%ebp), %eax
	movl	%eax, -16(%ebp)
	movl	12(%ebp), %eax
	movl	%eax, -12(%ebp)
	.loc 1 394 38
	movl	-16(%ebp), %eax
	movl	-12(%ebp), %edx
	movl	%edx, %eax
	xorl	%edx, %edx
	movl	%eax, %ecx
	movl	%edx, %ebx
	.loc 1 394 20
	movl	%ecx, %edx
	.loc 1 394 18
	movl	16(%ebp), %eax
	movl	%edx, (%eax)
	.loc 1 395 13
	movl	-16(%ebp), %eax
	.loc 1 396 1
	addl	$12, %esp
	popl	%ebx
	.cfi_restore 3
	popl	%ebp
	.cfi_restore 5
	.cfi_def_cfa 4, 4
	ret
	.cfi_endproc
LFE4196:
	.def	__ADD_UNIT_DIV;	.scl	3;	.type	32;	.endef
__ADD_UNIT_DIV:
LFB4203:
	.loc 1 435 1
	.cfi_startproc
	pushl	%ebp
	.cfi_def_cfa_offset 8
	.cfi_offset 5, -8
	movl	%esp, %ebp
	.cfi_def_cfa_register 5
	pushl	%ebx
	subl	$20, %esp
	.cfi_offset 3, -12
	movl	8(%ebp), %eax
	movb	%al, -24(%ebp)
	.loc 1 440 13
	movzbl	-24(%ebp), %eax
	movzbl	%al, %eax
	movb	%al, -5(%ebp)
	movl	12(%ebp), %eax
	movl	%eax, -12(%ebp)
	movl	16(%ebp), %eax
	movl	%eax, -16(%ebp)
	movl	20(%ebp), %eax
	movl	%eax, -20(%ebp)
LBB20:
LBB21:
	.file 3 "C:/GNU/MINGW64/i686-8.1.0-win32-dwarf-rt_v6-rev0/mingw32/lib/gcc/i686-w64-mingw32/8.1.0/include/adxintrin.h"
	.loc 3 44 10
	movzbl	-5(%ebp), %eax
	movl	%eax, %ebx
	movl	-12(%ebp), %ecx
	movl	-16(%ebp), %eax
	movl	-20(%ebp), %edx
	addb	$-1, %bl
	adcl	%ecx, %eax
	setc	%cl
	movl	%eax, (%edx)
LBE21:
LBE20:
	.loc 1 440 13
	movl	%ecx, %eax
	.loc 1 449 1
	addl	$20, %esp
	popl	%ebx
	.cfi_restore 3
	popl	%ebp
	.cfi_restore 5
	.cfi_def_cfa 4, 4
	ret
	.cfi_endproc
LFE4203:
	.def	__ADDX_UNIT_DIV;	.scl	3;	.type	32;	.endef
__ADDX_UNIT_DIV:
LFB4205:
	.loc 1 463 1
	.cfi_startproc
	pushl	%ebp
	.cfi_def_cfa_offset 8
	.cfi_offset 5, -8
	movl	%esp, %ebp
	.cfi_def_cfa_register 5
	pushl	%ebx
	subl	$20, %esp
	.cfi_offset 3, -12
	movl	8(%ebp), %eax
	movb	%al, -24(%ebp)
	.loc 1 468 13
	movzbl	-24(%ebp), %eax
	movzbl	%al, %eax
	movb	%al, -5(%ebp)
	movl	12(%ebp), %eax
	movl	%eax, -12(%ebp)
	movl	16(%ebp), %eax
	movl	%eax, -16(%ebp)
	movl	20(%ebp), %eax
	movl	%eax, -20(%ebp)
LBB22:
LBB23:
	.loc 3 52 10
	movzbl	-5(%ebp), %eax
	movl	%eax, %ebx
	movl	-12(%ebp), %ecx
	movl	-16(%ebp), %eax
	movl	-20(%ebp), %edx
	addb	$-1, %bl
	adcl	%ecx, %eax
	setc	%cl
	movl	%eax, (%edx)
LBE23:
LBE22:
	.loc 1 468 13
	movl	%ecx, %eax
	.loc 1 477 1
	addl	$20, %esp
	popl	%ebx
	.cfi_restore 3
	popl	%ebp
	.cfi_restore 5
	.cfi_def_cfa 4, 4
	ret
	.cfi_endproc
LFE4205:
	.def	__SUBTRUCT_UNIT_DIV;	.scl	3;	.type	32;	.endef
__SUBTRUCT_UNIT_DIV:
LFB4207:
	.loc 1 491 1
	.cfi_startproc
	pushl	%ebp
	.cfi_def_cfa_offset 8
	.cfi_offset 5, -8
	movl	%esp, %ebp
	.cfi_def_cfa_register 5
	pushl	%ebx
	subl	$20, %esp
	.cfi_offset 3, -12
	movl	8(%ebp), %eax
	movb	%al, -24(%ebp)
	.loc 1 496 13
	movzbl	-24(%ebp), %eax
	movzbl	%al, %eax
	movb	%al, -5(%ebp)
	movl	12(%ebp), %eax
	movl	%eax, -12(%ebp)
	movl	16(%ebp), %eax
	movl	%eax, -16(%ebp)
	movl	20(%ebp), %eax
	movl	%eax, -20(%ebp)
LBB24:
LBB25:
	.loc 3 36 10
	movzbl	-5(%ebp), %eax
	movl	%eax, %ebx
	movl	-12(%ebp), %edx
	movl	-16(%ebp), %ecx
	movl	-20(%ebp), %eax
	addb	$-1, %bl
	sbbl	%ecx, %edx
	setc	%cl
	movl	%edx, (%eax)
LBE25:
LBE24:
	.loc 1 496 13
	movl	%ecx, %eax
	.loc 1 505 1
	addl	$20, %esp
	popl	%ebx
	.cfi_restore 3
	popl	%ebp
	.cfi_restore 5
	.cfi_def_cfa 4, 4
	ret
	.cfi_endproc
LFE4207:
	.def	__MULTIPLY_UNIT_DIV;	.scl	3;	.type	32;	.endef
__MULTIPLY_UNIT_DIV:
LFB4209:
	.loc 1 527 1
	.cfi_startproc
	pushl	%ebp
	.cfi_def_cfa_offset 8
	.cfi_offset 5, -8
	movl	%esp, %ebp
	.cfi_def_cfa_register 5
	subl	$16, %esp
	.loc 1 533 5
	movl	8(%ebp), %eax
/APP
 # 533 "pmc_internal.h" 1
	mull 12(%ebp)
 # 0 "" 2
/NO_APP
	movl	%eax, -4(%ebp)
	movl	16(%ebp), %eax
	movl	%edx, (%eax)
	.loc 1 534 12
	movl	-4(%ebp), %eax
	.loc 1 543 1
	leave
	.cfi_restore 5
	.cfi_def_cfa 4, 4
	ret
	.cfi_endproc
LFE4209:
	.def	__MULTIPLYX_UNIT_DIV;	.scl	3;	.type	32;	.endef
__MULTIPLYX_UNIT_DIV:
LFB4211:
	.loc 1 573 1
	.cfi_startproc
	pushl	%ebp
	.cfi_def_cfa_offset 8
	.cfi_offset 5, -8
	movl	%esp, %ebp
	.cfi_def_cfa_register 5
	pushl	%ebx
	subl	$16, %esp
	.cfi_offset 3, -12
	.loc 1 579 5
	movl	8(%ebp), %eax
	movl	%eax, %edx
/APP
 # 579 "pmc_internal.h" 1
	mulxl 12(%ebp), %ebx, %ecx
 # 0 "" 2
/NO_APP
	movl	%edx, %eax
	movl	%ebx, -8(%ebp)
	movl	16(%ebp), %edx
	movl	%ecx, (%edx)
	movl	%eax, 8(%ebp)
	.loc 1 580 12
	movl	-8(%ebp), %eax
	.loc 1 591 1
	addl	$16, %esp
	popl	%ebx
	.cfi_restore 3
	popl	%ebp
	.cfi_restore 5
	.cfi_def_cfa 4, 4
	ret
	.cfi_endproc
LFE4211:
	.def	__DIVREM_UNIT;	.scl	3;	.type	32;	.endef
__DIVREM_UNIT:
LFB4212:
	.loc 1 595 1
	.cfi_startproc
	pushl	%ebp
	.cfi_def_cfa_offset 8
	.cfi_offset 5, -8
	movl	%esp, %ebp
	.cfi_def_cfa_register 5
	subl	$16, %esp
	.loc 1 622 9
	movl	12(%ebp), %eax
	movl	8(%ebp), %edx
/APP
 # 622 "pmc_internal.h" 1
	divl 16(%ebp)
 # 0 "" 2
/NO_APP
	movl	%eax, -4(%ebp)
	movl	20(%ebp), %eax
	movl	%edx, (%eax)
	.loc 1 631 12
	movl	-4(%ebp), %eax
	.loc 1 635 1
	leave
	.cfi_restore 5
	.cfi_def_cfa 4, 4
	ret
	.cfi_endproc
LFE4212:
	.def	__DIVREM_SINGLE_UNIT;	.scl	3;	.type	32;	.endef
__DIVREM_SINGLE_UNIT:
LFB4213:
	.loc 1 639 1
	.cfi_startproc
	pushl	%ebp
	.cfi_def_cfa_offset 8
	.cfi_offset 5, -8
	movl	%esp, %ebp
	.cfi_def_cfa_register 5
	.loc 1 665 9
	movl	12(%ebp), %eax
	movl	8(%ebp), %edx
/APP
 # 665 "pmc_internal.h" 1
	divl 16(%ebp)
 # 0 "" 2
/NO_APP
	movl	20(%ebp), %ecx
	movl	%eax, (%ecx)
	movl	%edx, 8(%ebp)
	.loc 1 674 12
	movl	8(%ebp), %eax
	.loc 1 678 1
	popl	%ebp
	.cfi_restore 5
	.cfi_def_cfa 4, 4
	ret
	.cfi_endproc
LFE4213:
	.def	__LZCNT_ALT_32;	.scl	3;	.type	32;	.endef
__LZCNT_ALT_32:
LFB4223:
	.loc 1 807 1
	.cfi_startproc
	pushl	%ebp
	.cfi_def_cfa_offset 8
	.cfi_offset 5, -8
	movl	%esp, %ebp
	.cfi_def_cfa_register 5
	subl	$16, %esp
	.loc 1 808 8
	cmpl	$0, 8(%ebp)
	jne	L24
	.loc 1 809 16
	movl	$32, %eax
	jmp	L25
L24:
	.loc 1 814 5
/APP
 # 814 "pmc_internal.h" 1
	bsrl 8(%ebp), %eax
 # 0 "" 2
/NO_APP
	movl	%eax, -4(%ebp)
	.loc 1 818 31
	movl	$31, %eax
	subl	-4(%ebp), %eax
L25:
	.loc 1 819 1
	leave
	.cfi_restore 5
	.cfi_def_cfa 4, 4
	ret
	.cfi_endproc
LFE4223:
	.def	__LZCNT_ALT_UNIT_DIV;	.scl	3;	.type	32;	.endef
__LZCNT_ALT_UNIT_DIV:
LFB4225:
	.loc 1 869 1
	.cfi_startproc
	pushl	%ebp
	.cfi_def_cfa_offset 8
	.cfi_offset 5, -8
	movl	%esp, %ebp
	.cfi_def_cfa_register 5
	subl	$16, %esp
	.loc 1 870 8
	cmpl	$0, 8(%ebp)
	jne	L27
	.loc 1 871 16
	movl	$32, %eax
	jmp	L28
L27:
	.loc 1 877 5
/APP
 # 877 "pmc_internal.h" 1
	bsrl 8(%ebp), %eax
 # 0 "" 2
/NO_APP
	movl	%eax, -4(%ebp)
	.loc 1 894 31
	movl	$31, %eax
	subl	-4(%ebp), %eax
L28:
	.loc 1 895 1
	leave
	.cfi_restore 5
	.cfi_def_cfa 4, 4
	ret
	.cfi_endproc
LFE4225:
	.def	_IncrementDIV32Counter;	.scl	3;	.type	32;	.endef
_IncrementDIV32Counter:
LFB4229:
	.loc 1 949 1
	.cfi_startproc
	pushl	%ebp
	.cfi_def_cfa_offset 8
	.cfi_offset 5, -8
	movl	%esp, %ebp
	.cfi_def_cfa_register 5
	subl	$16, %esp
	movl	$_statistics_info+12, -4(%ebp)
LBB26:
LBB27:
	.loc 2 1343 11
	movl	-4(%ebp), %eax
	movl	$1, %edx
	lock xaddl	%edx, (%eax)
LBE27:
LBE26:
	.loc 1 951 1
	nop
	leave
	.cfi_restore 5
	.cfi_def_cfa 4, 4
	ret
	.cfi_endproc
LFE4229:
	.def	_IncrementMULTI32Counter;	.scl	3;	.type	32;	.endef
_IncrementMULTI32Counter:
LFB4231:
	.loc 1 961 1
	.cfi_startproc
	pushl	%ebp
	.cfi_def_cfa_offset 8
	.cfi_offset 5, -8
	movl	%esp, %ebp
	.cfi_def_cfa_register 5
	subl	$16, %esp
	movl	$_statistics_info+4, -4(%ebp)
LBB28:
LBB29:
	.loc 2 1343 11
	movl	-4(%ebp), %eax
	movl	$1, %edx
	lock xaddl	%edx, (%eax)
LBE29:
LBE28:
	.loc 1 963 1
	nop
	leave
	.cfi_restore 5
	.cfi_def_cfa 4, 4
	ret
	.cfi_endproc
LFE4231:
	.def	_AddToDIV32Counter;	.scl	3;	.type	32;	.endef
_AddToDIV32Counter:
LFB4233:
	.loc 1 972 1
	.cfi_startproc
	pushl	%ebp
	.cfi_def_cfa_offset 8
	.cfi_offset 5, -8
	movl	%esp, %ebp
	.cfi_def_cfa_register 5
	subl	$16, %esp
	movl	$_statistics_info+12, -4(%ebp)
	movl	8(%ebp), %eax
	movl	%eax, -8(%ebp)
LBB30:
LBB31:
	.loc 2 1321 12
	movl	-8(%ebp), %edx
	movl	-4(%ebp), %eax
	lock xaddl	%edx, (%eax)
LBE31:
LBE30:
	.loc 1 974 1
	nop
	leave
	.cfi_restore 5
	.cfi_def_cfa 4, 4
	ret
	.cfi_endproc
LFE4233:
	.def	_AddToMULTI32Counter;	.scl	3;	.type	32;	.endef
_AddToMULTI32Counter:
LFB4235:
	.loc 1 984 1
	.cfi_startproc
	pushl	%ebp
	.cfi_def_cfa_offset 8
	.cfi_offset 5, -8
	movl	%esp, %ebp
	.cfi_def_cfa_register 5
	subl	$16, %esp
	movl	$_statistics_info+4, -4(%ebp)
	movl	8(%ebp), %eax
	movl	%eax, -8(%ebp)
LBB32:
LBB33:
	.loc 2 1321 12
	movl	-8(%ebp), %edx
	movl	-4(%ebp), %eax
	lock xaddl	%edx, (%eax)
LBE33:
LBE32:
	.loc 1 986 1
	nop
	leave
	.cfi_restore 5
	.cfi_def_cfa 4, 4
	ret
	.cfi_endproc
LFE4235:
	.def	__ADD_32WORDS_ADC_DIV;	.scl	3;	.type	32;	.endef
__ADD_32WORDS_ADC_DIV:
LFB4241:
	.file 4 "autogenerated_inline_func.h"
	.loc 4 1057 1
	.cfi_startproc
	pushl	%ebp
	.cfi_def_cfa_offset 8
	.cfi_offset 5, -8
	movl	%esp, %ebp
	.cfi_def_cfa_register 5
	pushl	%esi
	pushl	%ebx
	subl	$4, %esp
	.cfi_offset 6, -12
	.cfi_offset 3, -16
	movl	8(%ebp), %eax
	movb	%al, -12(%ebp)
	.loc 4 1093 5
	movzbl	-12(%ebp), %eax
	movl	12(%ebp), %ebx
	movl	16(%ebp), %ecx
	movl	20(%ebp), %edx
	movl	%ebx, %esi
	movl	%ecx, %ebx
/APP
 # 1093 "autogenerated_inline_func.h" 1
	addb	$-1, %al
	movl	(%esi), %ecx
	adcl	(%ebx), %ecx
	movl	%ecx, (%edx)
	movl	4(%esi), %ecx
	adcl	4(%ebx), %ecx
	movl	%ecx, 4(%edx)
	movl	8(%esi), %ecx
	adcl	8(%ebx), %ecx
	movl	%ecx, 8(%edx)
	movl	12(%esi), %ecx
	adcl	12(%ebx), %ecx
	movl	%ecx, 12(%edx)
	movl	16(%esi), %ecx
	adcl	16(%ebx), %ecx
	movl	%ecx, 16(%edx)
	movl	20(%esi), %ecx
	adcl	20(%ebx), %ecx
	movl	%ecx, 20(%edx)
	movl	24(%esi), %ecx
	adcl	24(%ebx), %ecx
	movl	%ecx, 24(%edx)
	movl	28(%esi), %ecx
	adcl	28(%ebx), %ecx
	movl	%ecx, 28(%edx)
	movl	32(%esi), %ecx
	adcl	32(%ebx), %ecx
	movl	%ecx, 32(%edx)
	movl	36(%esi), %ecx
	adcl	36(%ebx), %ecx
	movl	%ecx, 36(%edx)
	movl	40(%esi), %ecx
	adcl	40(%ebx), %ecx
	movl	%ecx, 40(%edx)
	movl	44(%esi), %ecx
	adcl	44(%ebx), %ecx
	movl	%ecx, 44(%edx)
	movl	48(%esi), %ecx
	adcl	48(%ebx), %ecx
	movl	%ecx, 48(%edx)
	movl	52(%esi), %ecx
	adcl	52(%ebx), %ecx
	movl	%ecx, 52(%edx)
	movl	56(%esi), %ecx
	adcl	56(%ebx), %ecx
	movl	%ecx, 56(%edx)
	movl	60(%esi), %ecx
	adcl	60(%ebx), %ecx
	movl	%ecx, 60(%edx)
	movl	64(%esi), %ecx
	adcl	64(%ebx), %ecx
	movl	%ecx, 64(%edx)
	movl	68(%esi), %ecx
	adcl	68(%ebx), %ecx
	movl	%ecx, 68(%edx)
	movl	72(%esi), %ecx
	adcl	72(%ebx), %ecx
	movl	%ecx, 72(%edx)
	movl	76(%esi), %ecx
	adcl	76(%ebx), %ecx
	movl	%ecx, 76(%edx)
	movl	80(%esi), %ecx
	adcl	80(%ebx), %ecx
	movl	%ecx, 80(%edx)
	movl	84(%esi), %ecx
	adcl	84(%ebx), %ecx
	movl	%ecx, 84(%edx)
	movl	88(%esi), %ecx
	adcl	88(%ebx), %ecx
	movl	%ecx, 88(%edx)
	movl	92(%esi), %ecx
	adcl	92(%ebx), %ecx
	movl	%ecx, 92(%edx)
	movl	96(%esi), %ecx
	adcl	96(%ebx), %ecx
	movl	%ecx, 96(%edx)
	movl	100(%esi), %ecx
	adcl	100(%ebx), %ecx
	movl	%ecx, 100(%edx)
	movl	104(%esi), %ecx
	adcl	104(%ebx), %ecx
	movl	%ecx, 104(%edx)
	movl	108(%esi), %ecx
	adcl	108(%ebx), %ecx
	movl	%ecx, 108(%edx)
	movl	112(%esi), %ecx
	adcl	112(%ebx), %ecx
	movl	%ecx, 112(%edx)
	movl	116(%esi), %ecx
	adcl	116(%ebx), %ecx
	movl	%ecx, 116(%edx)
	movl	120(%esi), %ecx
	adcl	120(%ebx), %ecx
	movl	%ecx, 120(%edx)
	movl	124(%esi), %ecx
	adcl	124(%ebx), %ecx
	movl	%ecx, 124(%edx)
	setc	%al
 # 0 "" 2
/NO_APP
	movb	%al, -12(%ebp)
	movl	%esi, 12(%ebp)
	movl	%ebx, 16(%ebp)
	movl	%edx, 20(%ebp)
	.loc 4 1306 12
	movzbl	-12(%ebp), %eax
	.loc 4 1307 1
	addl	$4, %esp
	popl	%ebx
	.cfi_restore 3
	popl	%esi
	.cfi_restore 6
	popl	%ebp
	.cfi_restore 5
	.cfi_def_cfa 4, 4
	ret
	.cfi_endproc
LFE4241:
	.def	__ADD_32WORDS_ADCX_DIV;	.scl	3;	.type	32;	.endef
__ADD_32WORDS_ADCX_DIV:
LFB4242:
	.loc 4 1310 1
	.cfi_startproc
	pushl	%ebp
	.cfi_def_cfa_offset 8
	.cfi_offset 5, -8
	movl	%esp, %ebp
	.cfi_def_cfa_register 5
	pushl	%esi
	pushl	%ebx
	subl	$4, %esp
	.cfi_offset 6, -12
	.cfi_offset 3, -16
	movl	8(%ebp), %eax
	movb	%al, -12(%ebp)
	.loc 4 1346 5
	movzbl	-12(%ebp), %eax
	movl	12(%ebp), %ebx
	movl	16(%ebp), %ecx
	movl	20(%ebp), %edx
	movl	%ebx, %esi
	movl	%ecx, %ebx
/APP
 # 1346 "autogenerated_inline_func.h" 1
	addb	$-1, %al
	movl	(%esi), %ecx
	adcxl	(%ebx), %ecx
	movl	%ecx, (%edx)
	movl	4(%esi), %ecx
	adcxl	4(%ebx), %ecx
	movl	%ecx, 4(%edx)
	movl	8(%esi), %ecx
	adcxl	8(%ebx), %ecx
	movl	%ecx, 8(%edx)
	movl	12(%esi), %ecx
	adcxl	12(%ebx), %ecx
	movl	%ecx, 12(%edx)
	movl	16(%esi), %ecx
	adcxl	16(%ebx), %ecx
	movl	%ecx, 16(%edx)
	movl	20(%esi), %ecx
	adcxl	20(%ebx), %ecx
	movl	%ecx, 20(%edx)
	movl	24(%esi), %ecx
	adcxl	24(%ebx), %ecx
	movl	%ecx, 24(%edx)
	movl	28(%esi), %ecx
	adcxl	28(%ebx), %ecx
	movl	%ecx, 28(%edx)
	movl	32(%esi), %ecx
	adcxl	32(%ebx), %ecx
	movl	%ecx, 32(%edx)
	movl	36(%esi), %ecx
	adcxl	36(%ebx), %ecx
	movl	%ecx, 36(%edx)
	movl	40(%esi), %ecx
	adcxl	40(%ebx), %ecx
	movl	%ecx, 40(%edx)
	movl	44(%esi), %ecx
	adcxl	44(%ebx), %ecx
	movl	%ecx, 44(%edx)
	movl	48(%esi), %ecx
	adcxl	48(%ebx), %ecx
	movl	%ecx, 48(%edx)
	movl	52(%esi), %ecx
	adcxl	52(%ebx), %ecx
	movl	%ecx, 52(%edx)
	movl	56(%esi), %ecx
	adcxl	56(%ebx), %ecx
	movl	%ecx, 56(%edx)
	movl	60(%esi), %ecx
	adcxl	60(%ebx), %ecx
	movl	%ecx, 60(%edx)
	movl	64(%esi), %ecx
	adcxl	64(%ebx), %ecx
	movl	%ecx, 64(%edx)
	movl	68(%esi), %ecx
	adcxl	68(%ebx), %ecx
	movl	%ecx, 68(%edx)
	movl	72(%esi), %ecx
	adcxl	72(%ebx), %ecx
	movl	%ecx, 72(%edx)
	movl	76(%esi), %ecx
	adcxl	76(%ebx), %ecx
	movl	%ecx, 76(%edx)
	movl	80(%esi), %ecx
	adcxl	80(%ebx), %ecx
	movl	%ecx, 80(%edx)
	movl	84(%esi), %ecx
	adcxl	84(%ebx), %ecx
	movl	%ecx, 84(%edx)
	movl	88(%esi), %ecx
	adcxl	88(%ebx), %ecx
	movl	%ecx, 88(%edx)
	movl	92(%esi), %ecx
	adcxl	92(%ebx), %ecx
	movl	%ecx, 92(%edx)
	movl	96(%esi), %ecx
	adcxl	96(%ebx), %ecx
	movl	%ecx, 96(%edx)
	movl	100(%esi), %ecx
	adcxl	100(%ebx), %ecx
	movl	%ecx, 100(%edx)
	movl	104(%esi), %ecx
	adcxl	104(%ebx), %ecx
	movl	%ecx, 104(%edx)
	movl	108(%esi), %ecx
	adcxl	108(%ebx), %ecx
	movl	%ecx, 108(%edx)
	movl	112(%esi), %ecx
	adcxl	112(%ebx), %ecx
	movl	%ecx, 112(%edx)
	movl	116(%esi), %ecx
	adcxl	116(%ebx), %ecx
	movl	%ecx, 116(%edx)
	movl	120(%esi), %ecx
	adcxl	120(%ebx), %ecx
	movl	%ecx, 120(%edx)
	movl	124(%esi), %ecx
	adcxl	124(%ebx), %ecx
	movl	%ecx, 124(%edx)
	setc	%al
 # 0 "" 2
/NO_APP
	movb	%al, -12(%ebp)
	movl	%esi, 12(%ebp)
	movl	%ebx, 16(%ebp)
	movl	%edx, 20(%ebp)
	.loc 4 1559 12
	movzbl	-12(%ebp), %eax
	.loc 4 1560 1
	addl	$4, %esp
	popl	%ebx
	.cfi_restore 3
	popl	%esi
	.cfi_restore 6
	popl	%ebp
	.cfi_restore 5
	.cfi_def_cfa 4, 4
	ret
	.cfi_endproc
LFE4242:
	.def	__ADD_16WORDS_ADC_DIV;	.scl	3;	.type	32;	.endef
__ADD_16WORDS_ADC_DIV:
LFB4249:
	.loc 4 2633 1
	.cfi_startproc
	pushl	%ebp
	.cfi_def_cfa_offset 8
	.cfi_offset 5, -8
	movl	%esp, %ebp
	.cfi_def_cfa_register 5
	pushl	%esi
	pushl	%ebx
	subl	$4, %esp
	.cfi_offset 6, -12
	.cfi_offset 3, -16
	movl	8(%ebp), %eax
	movb	%al, -12(%ebp)
	.loc 4 2653 5
	movzbl	-12(%ebp), %eax
	movl	12(%ebp), %ebx
	movl	16(%ebp), %ecx
	movl	20(%ebp), %edx
	movl	%ebx, %esi
	movl	%ecx, %ebx
/APP
 # 2653 "autogenerated_inline_func.h" 1
	addb	$-1, %al
	movl	(%esi), %ecx
	adcl	(%ebx), %ecx
	movl	%ecx, (%edx)
	movl	4(%esi), %ecx
	adcl	4(%ebx), %ecx
	movl	%ecx, 4(%edx)
	movl	8(%esi), %ecx
	adcl	8(%ebx), %ecx
	movl	%ecx, 8(%edx)
	movl	12(%esi), %ecx
	adcl	12(%ebx), %ecx
	movl	%ecx, 12(%edx)
	movl	16(%esi), %ecx
	adcl	16(%ebx), %ecx
	movl	%ecx, 16(%edx)
	movl	20(%esi), %ecx
	adcl	20(%ebx), %ecx
	movl	%ecx, 20(%edx)
	movl	24(%esi), %ecx
	adcl	24(%ebx), %ecx
	movl	%ecx, 24(%edx)
	movl	28(%esi), %ecx
	adcl	28(%ebx), %ecx
	movl	%ecx, 28(%edx)
	movl	32(%esi), %ecx
	adcl	32(%ebx), %ecx
	movl	%ecx, 32(%edx)
	movl	36(%esi), %ecx
	adcl	36(%ebx), %ecx
	movl	%ecx, 36(%edx)
	movl	40(%esi), %ecx
	adcl	40(%ebx), %ecx
	movl	%ecx, 40(%edx)
	movl	44(%esi), %ecx
	adcl	44(%ebx), %ecx
	movl	%ecx, 44(%edx)
	movl	48(%esi), %ecx
	adcl	48(%ebx), %ecx
	movl	%ecx, 48(%edx)
	movl	52(%esi), %ecx
	adcl	52(%ebx), %ecx
	movl	%ecx, 52(%edx)
	movl	56(%esi), %ecx
	adcl	56(%ebx), %ecx
	movl	%ecx, 56(%edx)
	movl	60(%esi), %ecx
	adcl	60(%ebx), %ecx
	movl	%ecx, 60(%edx)
	setc	%al
 # 0 "" 2
/NO_APP
	movb	%al, -12(%ebp)
	movl	%esi, 12(%ebp)
	movl	%ebx, 16(%ebp)
	movl	%edx, 20(%ebp)
	.loc 4 2770 12
	movzbl	-12(%ebp), %eax
	.loc 4 2771 1
	addl	$4, %esp
	popl	%ebx
	.cfi_restore 3
	popl	%esi
	.cfi_restore 6
	popl	%ebp
	.cfi_restore 5
	.cfi_def_cfa 4, 4
	ret
	.cfi_endproc
LFE4249:
	.def	__ADD_16WORDS_ADCX_DIV;	.scl	3;	.type	32;	.endef
__ADD_16WORDS_ADCX_DIV:
LFB4250:
	.loc 4 2774 1
	.cfi_startproc
	pushl	%ebp
	.cfi_def_cfa_offset 8
	.cfi_offset 5, -8
	movl	%esp, %ebp
	.cfi_def_cfa_register 5
	pushl	%esi
	pushl	%ebx
	subl	$4, %esp
	.cfi_offset 6, -12
	.cfi_offset 3, -16
	movl	8(%ebp), %eax
	movb	%al, -12(%ebp)
	.loc 4 2794 5
	movzbl	-12(%ebp), %eax
	movl	12(%ebp), %ebx
	movl	16(%ebp), %ecx
	movl	20(%ebp), %edx
	movl	%ebx, %esi
	movl	%ecx, %ebx
/APP
 # 2794 "autogenerated_inline_func.h" 1
	addb	$-1, %al
	movl	(%esi), %ecx
	adcxl	(%ebx), %ecx
	movl	%ecx, (%edx)
	movl	4(%esi), %ecx
	adcxl	4(%ebx), %ecx
	movl	%ecx, 4(%edx)
	movl	8(%esi), %ecx
	adcxl	8(%ebx), %ecx
	movl	%ecx, 8(%edx)
	movl	12(%esi), %ecx
	adcxl	12(%ebx), %ecx
	movl	%ecx, 12(%edx)
	movl	16(%esi), %ecx
	adcxl	16(%ebx), %ecx
	movl	%ecx, 16(%edx)
	movl	20(%esi), %ecx
	adcxl	20(%ebx), %ecx
	movl	%ecx, 20(%edx)
	movl	24(%esi), %ecx
	adcxl	24(%ebx), %ecx
	movl	%ecx, 24(%edx)
	movl	28(%esi), %ecx
	adcxl	28(%ebx), %ecx
	movl	%ecx, 28(%edx)
	movl	32(%esi), %ecx
	adcxl	32(%ebx), %ecx
	movl	%ecx, 32(%edx)
	movl	36(%esi), %ecx
	adcxl	36(%ebx), %ecx
	movl	%ecx, 36(%edx)
	movl	40(%esi), %ecx
	adcxl	40(%ebx), %ecx
	movl	%ecx, 40(%edx)
	movl	44(%esi), %ecx
	adcxl	44(%ebx), %ecx
	movl	%ecx, 44(%edx)
	movl	48(%esi), %ecx
	adcxl	48(%ebx), %ecx
	movl	%ecx, 48(%edx)
	movl	52(%esi), %ecx
	adcxl	52(%ebx), %ecx
	movl	%ecx, 52(%edx)
	movl	56(%esi), %ecx
	adcxl	56(%ebx), %ecx
	movl	%ecx, 56(%edx)
	movl	60(%esi), %ecx
	adcxl	60(%ebx), %ecx
	movl	%ecx, 60(%edx)
	setc	%al
 # 0 "" 2
/NO_APP
	movb	%al, -12(%ebp)
	movl	%esi, 12(%ebp)
	movl	%ebx, 16(%ebp)
	movl	%edx, 20(%ebp)
	.loc 4 2911 12
	movzbl	-12(%ebp), %eax
	.loc 4 2912 1
	addl	$4, %esp
	popl	%ebx
	.cfi_restore 3
	popl	%esi
	.cfi_restore 6
	popl	%ebp
	.cfi_restore 5
	.cfi_def_cfa 4, 4
	ret
	.cfi_endproc
LFE4250:
	.def	__ADD_8WORDS_ADC_DIV;	.scl	3;	.type	32;	.endef
__ADD_8WORDS_ADC_DIV:
LFB4257:
	.loc 4 3537 1
	.cfi_startproc
	pushl	%ebp
	.cfi_def_cfa_offset 8
	.cfi_offset 5, -8
	movl	%esp, %ebp
	.cfi_def_cfa_register 5
	pushl	%esi
	pushl	%ebx
	subl	$4, %esp
	.cfi_offset 6, -12
	.cfi_offset 3, -16
	movl	8(%ebp), %eax
	movb	%al, -12(%ebp)
	.loc 4 3549 5
	movzbl	-12(%ebp), %eax
	movl	12(%ebp), %ebx
	movl	16(%ebp), %ecx
	movl	20(%ebp), %edx
	movl	%ebx, %esi
	movl	%ecx, %ebx
/APP
 # 3549 "autogenerated_inline_func.h" 1
	addb	$-1, %al
	movl	(%esi), %ecx
	adcl	(%ebx), %ecx
	movl	%ecx, (%edx)
	movl	4(%esi), %ecx
	adcl	4(%ebx), %ecx
	movl	%ecx, 4(%edx)
	movl	8(%esi), %ecx
	adcl	8(%ebx), %ecx
	movl	%ecx, 8(%edx)
	movl	12(%esi), %ecx
	adcl	12(%ebx), %ecx
	movl	%ecx, 12(%edx)
	movl	16(%esi), %ecx
	adcl	16(%ebx), %ecx
	movl	%ecx, 16(%edx)
	movl	20(%esi), %ecx
	adcl	20(%ebx), %ecx
	movl	%ecx, 20(%edx)
	movl	24(%esi), %ecx
	adcl	24(%ebx), %ecx
	movl	%ecx, 24(%edx)
	movl	28(%esi), %ecx
	adcl	28(%ebx), %ecx
	movl	%ecx, 28(%edx)
	setc	%al
 # 0 "" 2
/NO_APP
	movb	%al, -12(%ebp)
	movl	%esi, 12(%ebp)
	movl	%ebx, 16(%ebp)
	movl	%edx, 20(%ebp)
	.loc 4 3618 12
	movzbl	-12(%ebp), %eax
	.loc 4 3619 1
	addl	$4, %esp
	popl	%ebx
	.cfi_restore 3
	popl	%esi
	.cfi_restore 6
	popl	%ebp
	.cfi_restore 5
	.cfi_def_cfa 4, 4
	ret
	.cfi_endproc
LFE4257:
	.def	__ADD_8WORDS_ADCX_DIV;	.scl	3;	.type	32;	.endef
__ADD_8WORDS_ADCX_DIV:
LFB4258:
	.loc 4 3622 1
	.cfi_startproc
	pushl	%ebp
	.cfi_def_cfa_offset 8
	.cfi_offset 5, -8
	movl	%esp, %ebp
	.cfi_def_cfa_register 5
	pushl	%esi
	pushl	%ebx
	subl	$4, %esp
	.cfi_offset 6, -12
	.cfi_offset 3, -16
	movl	8(%ebp), %eax
	movb	%al, -12(%ebp)
	.loc 4 3634 5
	movzbl	-12(%ebp), %eax
	movl	12(%ebp), %ebx
	movl	16(%ebp), %ecx
	movl	20(%ebp), %edx
	movl	%ebx, %esi
	movl	%ecx, %ebx
/APP
 # 3634 "autogenerated_inline_func.h" 1
	addb	$-1, %al
	movl	(%esi), %ecx
	adcxl	(%ebx), %ecx
	movl	%ecx, (%edx)
	movl	4(%esi), %ecx
	adcxl	4(%ebx), %ecx
	movl	%ecx, 4(%edx)
	movl	8(%esi), %ecx
	adcxl	8(%ebx), %ecx
	movl	%ecx, 8(%edx)
	movl	12(%esi), %ecx
	adcxl	12(%ebx), %ecx
	movl	%ecx, 12(%edx)
	movl	16(%esi), %ecx
	adcxl	16(%ebx), %ecx
	movl	%ecx, 16(%edx)
	movl	20(%esi), %ecx
	adcxl	20(%ebx), %ecx
	movl	%ecx, 20(%edx)
	movl	24(%esi), %ecx
	adcxl	24(%ebx), %ecx
	movl	%ecx, 24(%edx)
	movl	28(%esi), %ecx
	adcxl	28(%ebx), %ecx
	movl	%ecx, 28(%edx)
	setc	%al
 # 0 "" 2
/NO_APP
	movb	%al, -12(%ebp)
	movl	%esi, 12(%ebp)
	movl	%ebx, 16(%ebp)
	movl	%edx, 20(%ebp)
	.loc 4 3703 12
	movzbl	-12(%ebp), %eax
	.loc 4 3704 1
	addl	$4, %esp
	popl	%ebx
	.cfi_restore 3
	popl	%esi
	.cfi_restore 6
	popl	%ebp
	.cfi_restore 5
	.cfi_def_cfa 4, 4
	ret
	.cfi_endproc
LFE4258:
	.def	__ADD_4WORDS_ADC_DIV;	.scl	3;	.type	32;	.endef
__ADD_4WORDS_ADC_DIV:
LFB4265:
	.loc 4 4105 1
	.cfi_startproc
	pushl	%ebp
	.cfi_def_cfa_offset 8
	.cfi_offset 5, -8
	movl	%esp, %ebp
	.cfi_def_cfa_register 5
	pushl	%esi
	pushl	%ebx
	subl	$4, %esp
	.cfi_offset 6, -12
	.cfi_offset 3, -16
	movl	8(%ebp), %eax
	movb	%al, -12(%ebp)
	.loc 4 4113 5
	movzbl	-12(%ebp), %eax
	movl	12(%ebp), %ebx
	movl	16(%ebp), %ecx
	movl	20(%ebp), %edx
	movl	%ebx, %esi
	movl	%ecx, %ebx
/APP
 # 4113 "autogenerated_inline_func.h" 1
	addb	$-1, %al
	movl	(%esi), %ecx
	adcl	(%ebx), %ecx
	movl	%ecx, (%edx)
	movl	4(%esi), %ecx
	adcl	4(%ebx), %ecx
	movl	%ecx, 4(%edx)
	movl	8(%esi), %ecx
	adcl	8(%ebx), %ecx
	movl	%ecx, 8(%edx)
	movl	12(%esi), %ecx
	adcl	12(%ebx), %ecx
	movl	%ecx, 12(%edx)
	setc	%al
 # 0 "" 2
/NO_APP
	movb	%al, -12(%ebp)
	movl	%esi, 12(%ebp)
	movl	%ebx, 16(%ebp)
	movl	%edx, 20(%ebp)
	.loc 4 4158 12
	movzbl	-12(%ebp), %eax
	.loc 4 4159 1
	addl	$4, %esp
	popl	%ebx
	.cfi_restore 3
	popl	%esi
	.cfi_restore 6
	popl	%ebp
	.cfi_restore 5
	.cfi_def_cfa 4, 4
	ret
	.cfi_endproc
LFE4265:
	.def	__ADD_4WORDS_ADCX_DIV;	.scl	3;	.type	32;	.endef
__ADD_4WORDS_ADCX_DIV:
LFB4266:
	.loc 4 4162 1
	.cfi_startproc
	pushl	%ebp
	.cfi_def_cfa_offset 8
	.cfi_offset 5, -8
	movl	%esp, %ebp
	.cfi_def_cfa_register 5
	pushl	%esi
	pushl	%ebx
	subl	$4, %esp
	.cfi_offset 6, -12
	.cfi_offset 3, -16
	movl	8(%ebp), %eax
	movb	%al, -12(%ebp)
	.loc 4 4170 5
	movzbl	-12(%ebp), %eax
	movl	12(%ebp), %ebx
	movl	16(%ebp), %ecx
	movl	20(%ebp), %edx
	movl	%ebx, %esi
	movl	%ecx, %ebx
/APP
 # 4170 "autogenerated_inline_func.h" 1
	addb	$-1, %al
	movl	(%esi), %ecx
	adcxl	(%ebx), %ecx
	movl	%ecx, (%edx)
	movl	4(%esi), %ecx
	adcxl	4(%ebx), %ecx
	movl	%ecx, 4(%edx)
	movl	8(%esi), %ecx
	adcxl	8(%ebx), %ecx
	movl	%ecx, 8(%edx)
	movl	12(%esi), %ecx
	adcxl	12(%ebx), %ecx
	movl	%ecx, 12(%edx)
	setc	%al
 # 0 "" 2
/NO_APP
	movb	%al, -12(%ebp)
	movl	%esi, 12(%ebp)
	movl	%ebx, 16(%ebp)
	movl	%edx, 20(%ebp)
	.loc 4 4215 12
	movzbl	-12(%ebp), %eax
	.loc 4 4216 1
	addl	$4, %esp
	popl	%ebx
	.cfi_restore 3
	popl	%esi
	.cfi_restore 6
	popl	%ebp
	.cfi_restore 5
	.cfi_def_cfa 4, 4
	ret
	.cfi_endproc
LFE4266:
	.def	__ADD_2WORDS_ADC_DIV;	.scl	3;	.type	32;	.endef
__ADD_2WORDS_ADC_DIV:
LFB4273:
	.loc 4 4505 1
	.cfi_startproc
	pushl	%ebp
	.cfi_def_cfa_offset 8
	.cfi_offset 5, -8
	movl	%esp, %ebp
	.cfi_def_cfa_register 5
	pushl	%esi
	pushl	%ebx
	subl	$4, %esp
	.cfi_offset 6, -12
	.cfi_offset 3, -16
	movl	8(%ebp), %eax
	movb	%al, -12(%ebp)
	.loc 4 4511 5
	movzbl	-12(%ebp), %eax
	movl	12(%ebp), %ebx
	movl	16(%ebp), %ecx
	movl	20(%ebp), %edx
	movl	%ebx, %esi
	movl	%ecx, %ebx
/APP
 # 4511 "autogenerated_inline_func.h" 1
	addb	$-1, %al
	movl	(%esi), %ecx
	adcl	(%ebx), %ecx
	movl	%ecx, (%edx)
	movl	4(%esi), %ecx
	adcl	4(%ebx), %ecx
	movl	%ecx, 4(%edx)
	setc	%al
 # 0 "" 2
/NO_APP
	movb	%al, -12(%ebp)
	movl	%esi, 12(%ebp)
	movl	%ebx, 16(%ebp)
	movl	%edx, 20(%ebp)
	.loc 4 4544 12
	movzbl	-12(%ebp), %eax
	.loc 4 4545 1
	addl	$4, %esp
	popl	%ebx
	.cfi_restore 3
	popl	%esi
	.cfi_restore 6
	popl	%ebp
	.cfi_restore 5
	.cfi_def_cfa 4, 4
	ret
	.cfi_endproc
LFE4273:
	.def	__ADD_2WORDS_ADCX_DIV;	.scl	3;	.type	32;	.endef
__ADD_2WORDS_ADCX_DIV:
LFB4274:
	.loc 4 4548 1
	.cfi_startproc
	pushl	%ebp
	.cfi_def_cfa_offset 8
	.cfi_offset 5, -8
	movl	%esp, %ebp
	.cfi_def_cfa_register 5
	pushl	%esi
	pushl	%ebx
	subl	$4, %esp
	.cfi_offset 6, -12
	.cfi_offset 3, -16
	movl	8(%ebp), %eax
	movb	%al, -12(%ebp)
	.loc 4 4554 5
	movzbl	-12(%ebp), %eax
	movl	12(%ebp), %ebx
	movl	16(%ebp), %ecx
	movl	20(%ebp), %edx
	movl	%ebx, %esi
	movl	%ecx, %ebx
/APP
 # 4554 "autogenerated_inline_func.h" 1
	addb	$-1, %al
	movl	(%esi), %ecx
	adcxl	(%ebx), %ecx
	movl	%ecx, (%edx)
	movl	4(%esi), %ecx
	adcxl	4(%ebx), %ecx
	movl	%ecx, 4(%edx)
	setc	%al
 # 0 "" 2
/NO_APP
	movb	%al, -12(%ebp)
	movl	%esi, 12(%ebp)
	movl	%ebx, 16(%ebp)
	movl	%edx, 20(%ebp)
	.loc 4 4587 12
	movzbl	-12(%ebp), %eax
	.loc 4 4588 1
	addl	$4, %esp
	popl	%ebx
	.cfi_restore 3
	popl	%esi
	.cfi_restore 6
	popl	%ebp
	.cfi_restore 5
	.cfi_def_cfa 4, 4
	ret
	.cfi_endproc
LFE4274:
.lcomm _fp_DivRem_X_X,4,4
	.globl	_DivRem_X_1W
	.def	_DivRem_X_1W;	.scl	2;	.type	32;	.endef
_DivRem_X_1W:
LFB4277:
	.file 5 "pmc_divrem.c"
	.loc 5 42 1
	.cfi_startproc
	pushl	%ebp
	.cfi_def_cfa_offset 8
	.cfi_offset 5, -8
	movl	%esp, %ebp
	.cfi_def_cfa_register 5
	subl	$56, %esp
	.loc 5 44 45
	movl	12(%ebp), %eax
	addl	$1073741823, %eax
	leal	0(,%eax,4), %edx
	.loc 5 44 22
	movl	8(%ebp), %eax
	addl	%edx, %eax
	movl	%eax, -12(%ebp)
	.loc 5 45 45
	movl	12(%ebp), %eax
	addl	$1073741823, %eax
	leal	0(,%eax,4), %edx
	.loc 5 45 22
	movl	20(%ebp), %eax
	addl	%edx, %eax
	movl	%eax, -16(%ebp)
	.loc 5 46 17
	movl	12(%ebp), %eax
	movl	%eax, -28(%ebp)
	.loc 5 56 21
	movl	$0, -20(%ebp)
	.loc 5 57 17
	movl	-28(%ebp), %eax
	shrl	$5, %eax
	movl	%eax, -24(%ebp)
	.loc 5 58 11
	jmp	L58
L59:
	.loc 5 60 13
	movl	-12(%ebp), %eax
	movl	(%eax), %eax
	movl	-16(%ebp), %edx
	movl	%edx, 12(%esp)
	movl	16(%ebp), %edx
	movl	%edx, 8(%esp)
	movl	%eax, 4(%esp)
	movl	-20(%ebp), %eax
	movl	%eax, (%esp)
	call	__DIVREM_SINGLE_UNIT
	movl	%eax, -20(%ebp)
	.loc 5 61 13
	movl	-16(%ebp), %eax
	leal	-4(%eax), %edx
	.loc 5 61 38
	movl	-12(%ebp), %eax
	subl	$4, %eax
	.loc 5 61 13
	movl	(%eax), %eax
	movl	%edx, 12(%esp)
	movl	16(%ebp), %edx
	movl	%edx, 8(%esp)
	movl	%eax, 4(%esp)
	movl	-20(%ebp), %eax
	movl	%eax, (%esp)
	call	__DIVREM_SINGLE_UNIT
	movl	%eax, -20(%ebp)
	.loc 5 62 13
	movl	-16(%ebp), %eax
	leal	-8(%eax), %edx
	.loc 5 62 38
	movl	-12(%ebp), %eax
	subl	$8, %eax
	.loc 5 62 13
	movl	(%eax), %eax
	movl	%edx, 12(%esp)
	movl	16(%ebp), %edx
	movl	%edx, 8(%esp)
	movl	%eax, 4(%esp)
	movl	-20(%ebp), %eax
	movl	%eax, (%esp)
	call	__DIVREM_SINGLE_UNIT
	movl	%eax, -20(%ebp)
	.loc 5 63 13
	movl	-16(%ebp), %eax
	leal	-12(%eax), %edx
	.loc 5 63 38
	movl	-12(%ebp), %eax
	subl	$12, %eax
	.loc 5 63 13
	movl	(%eax), %eax
	movl	%edx, 12(%esp)
	movl	16(%ebp), %edx
	movl	%edx, 8(%esp)
	movl	%eax, 4(%esp)
	movl	-20(%ebp), %eax
	movl	%eax, (%esp)
	call	__DIVREM_SINGLE_UNIT
	movl	%eax, -20(%ebp)
	.loc 5 64 13
	movl	-16(%ebp), %eax
	leal	-16(%eax), %edx
	.loc 5 64 38
	movl	-12(%ebp), %eax
	subl	$16, %eax
	.loc 5 64 13
	movl	(%eax), %eax
	movl	%edx, 12(%esp)
	movl	16(%ebp), %edx
	movl	%edx, 8(%esp)
	movl	%eax, 4(%esp)
	movl	-20(%ebp), %eax
	movl	%eax, (%esp)
	call	__DIVREM_SINGLE_UNIT
	movl	%eax, -20(%ebp)
	.loc 5 65 13
	movl	-16(%ebp), %eax
	leal	-20(%eax), %edx
	.loc 5 65 38
	movl	-12(%ebp), %eax
	subl	$20, %eax
	.loc 5 65 13
	movl	(%eax), %eax
	movl	%edx, 12(%esp)
	movl	16(%ebp), %edx
	movl	%edx, 8(%esp)
	movl	%eax, 4(%esp)
	movl	-20(%ebp), %eax
	movl	%eax, (%esp)
	call	__DIVREM_SINGLE_UNIT
	movl	%eax, -20(%ebp)
	.loc 5 66 13
	movl	-16(%ebp), %eax
	leal	-24(%eax), %edx
	.loc 5 66 38
	movl	-12(%ebp), %eax
	subl	$24, %eax
	.loc 5 66 13
	movl	(%eax), %eax
	movl	%edx, 12(%esp)
	movl	16(%ebp), %edx
	movl	%edx, 8(%esp)
	movl	%eax, 4(%esp)
	movl	-20(%ebp), %eax
	movl	%eax, (%esp)
	call	__DIVREM_SINGLE_UNIT
	movl	%eax, -20(%ebp)
	.loc 5 67 13
	movl	-16(%ebp), %eax
	leal	-28(%eax), %edx
	.loc 5 67 38
	movl	-12(%ebp), %eax
	subl	$28, %eax
	.loc 5 67 13
	movl	(%eax), %eax
	movl	%edx, 12(%esp)
	movl	16(%ebp), %edx
	movl	%edx, 8(%esp)
	movl	%eax, 4(%esp)
	movl	-20(%ebp), %eax
	movl	%eax, (%esp)
	call	__DIVREM_SINGLE_UNIT
	movl	%eax, -20(%ebp)
	.loc 5 68 13
	movl	-16(%ebp), %eax
	leal	-32(%eax), %edx
	.loc 5 68 38
	movl	-12(%ebp), %eax
	subl	$32, %eax
	.loc 5 68 13
	movl	(%eax), %eax
	movl	%edx, 12(%esp)
	movl	16(%ebp), %edx
	movl	%edx, 8(%esp)
	movl	%eax, 4(%esp)
	movl	-20(%ebp), %eax
	movl	%eax, (%esp)
	call	__DIVREM_SINGLE_UNIT
	movl	%eax, -20(%ebp)
	.loc 5 69 13
	movl	-16(%ebp), %eax
	leal	-36(%eax), %edx
	.loc 5 69 38
	movl	-12(%ebp), %eax
	subl	$36, %eax
	.loc 5 69 13
	movl	(%eax), %eax
	movl	%edx, 12(%esp)
	movl	16(%ebp), %edx
	movl	%edx, 8(%esp)
	movl	%eax, 4(%esp)
	movl	-20(%ebp), %eax
	movl	%eax, (%esp)
	call	__DIVREM_SINGLE_UNIT
	movl	%eax, -20(%ebp)
	.loc 5 70 13
	movl	-16(%ebp), %eax
	leal	-40(%eax), %edx
	.loc 5 70 38
	movl	-12(%ebp), %eax
	subl	$40, %eax
	.loc 5 70 13
	movl	(%eax), %eax
	movl	%edx, 12(%esp)
	movl	16(%ebp), %edx
	movl	%edx, 8(%esp)
	movl	%eax, 4(%esp)
	movl	-20(%ebp), %eax
	movl	%eax, (%esp)
	call	__DIVREM_SINGLE_UNIT
	movl	%eax, -20(%ebp)
	.loc 5 71 13
	movl	-16(%ebp), %eax
	leal	-44(%eax), %edx
	.loc 5 71 38
	movl	-12(%ebp), %eax
	subl	$44, %eax
	.loc 5 71 13
	movl	(%eax), %eax
	movl	%edx, 12(%esp)
	movl	16(%ebp), %edx
	movl	%edx, 8(%esp)
	movl	%eax, 4(%esp)
	movl	-20(%ebp), %eax
	movl	%eax, (%esp)
	call	__DIVREM_SINGLE_UNIT
	movl	%eax, -20(%ebp)
	.loc 5 72 13
	movl	-16(%ebp), %eax
	leal	-48(%eax), %edx
	.loc 5 72 38
	movl	-12(%ebp), %eax
	subl	$48, %eax
	.loc 5 72 13
	movl	(%eax), %eax
	movl	%edx, 12(%esp)
	movl	16(%ebp), %edx
	movl	%edx, 8(%esp)
	movl	%eax, 4(%esp)
	movl	-20(%ebp), %eax
	movl	%eax, (%esp)
	call	__DIVREM_SINGLE_UNIT
	movl	%eax, -20(%ebp)
	.loc 5 73 13
	movl	-16(%ebp), %eax
	leal	-52(%eax), %edx
	.loc 5 73 38
	movl	-12(%ebp), %eax
	subl	$52, %eax
	.loc 5 73 13
	movl	(%eax), %eax
	movl	%edx, 12(%esp)
	movl	16(%ebp), %edx
	movl	%edx, 8(%esp)
	movl	%eax, 4(%esp)
	movl	-20(%ebp), %eax
	movl	%eax, (%esp)
	call	__DIVREM_SINGLE_UNIT
	movl	%eax, -20(%ebp)
	.loc 5 74 13
	movl	-16(%ebp), %eax
	leal	-56(%eax), %edx
	.loc 5 74 38
	movl	-12(%ebp), %eax
	subl	$56, %eax
	.loc 5 74 13
	movl	(%eax), %eax
	movl	%edx, 12(%esp)
	movl	16(%ebp), %edx
	movl	%edx, 8(%esp)
	movl	%eax, 4(%esp)
	movl	-20(%ebp), %eax
	movl	%eax, (%esp)
	call	__DIVREM_SINGLE_UNIT
	movl	%eax, -20(%ebp)
	.loc 5 75 13
	movl	-16(%ebp), %eax
	leal	-60(%eax), %edx
	.loc 5 75 38
	movl	-12(%ebp), %eax
	subl	$60, %eax
	.loc 5 75 13
	movl	(%eax), %eax
	movl	%edx, 12(%esp)
	movl	16(%ebp), %edx
	movl	%edx, 8(%esp)
	movl	%eax, 4(%esp)
	movl	-20(%ebp), %eax
	movl	%eax, (%esp)
	call	__DIVREM_SINGLE_UNIT
	movl	%eax, -20(%ebp)
	.loc 5 76 13
	movl	-16(%ebp), %eax
	leal	-64(%eax), %edx
	.loc 5 76 38
	movl	-12(%ebp), %eax
	subl	$64, %eax
	.loc 5 76 13
	movl	(%eax), %eax
	movl	%edx, 12(%esp)
	movl	16(%ebp), %edx
	movl	%edx, 8(%esp)
	movl	%eax, 4(%esp)
	movl	-20(%ebp), %eax
	movl	%eax, (%esp)
	call	__DIVREM_SINGLE_UNIT
	movl	%eax, -20(%ebp)
	.loc 5 77 13
	movl	-16(%ebp), %eax
	leal	-68(%eax), %edx
	.loc 5 77 38
	movl	-12(%ebp), %eax
	subl	$68, %eax
	.loc 5 77 13
	movl	(%eax), %eax
	movl	%edx, 12(%esp)
	movl	16(%ebp), %edx
	movl	%edx, 8(%esp)
	movl	%eax, 4(%esp)
	movl	-20(%ebp), %eax
	movl	%eax, (%esp)
	call	__DIVREM_SINGLE_UNIT
	movl	%eax, -20(%ebp)
	.loc 5 78 13
	movl	-16(%ebp), %eax
	leal	-72(%eax), %edx
	.loc 5 78 38
	movl	-12(%ebp), %eax
	subl	$72, %eax
	.loc 5 78 13
	movl	(%eax), %eax
	movl	%edx, 12(%esp)
	movl	16(%ebp), %edx
	movl	%edx, 8(%esp)
	movl	%eax, 4(%esp)
	movl	-20(%ebp), %eax
	movl	%eax, (%esp)
	call	__DIVREM_SINGLE_UNIT
	movl	%eax, -20(%ebp)
	.loc 5 79 13
	movl	-16(%ebp), %eax
	leal	-76(%eax), %edx
	.loc 5 79 38
	movl	-12(%ebp), %eax
	subl	$76, %eax
	.loc 5 79 13
	movl	(%eax), %eax
	movl	%edx, 12(%esp)
	movl	16(%ebp), %edx
	movl	%edx, 8(%esp)
	movl	%eax, 4(%esp)
	movl	-20(%ebp), %eax
	movl	%eax, (%esp)
	call	__DIVREM_SINGLE_UNIT
	movl	%eax, -20(%ebp)
	.loc 5 80 13
	movl	-16(%ebp), %eax
	leal	-80(%eax), %edx
	.loc 5 80 38
	movl	-12(%ebp), %eax
	subl	$80, %eax
	.loc 5 80 13
	movl	(%eax), %eax
	movl	%edx, 12(%esp)
	movl	16(%ebp), %edx
	movl	%edx, 8(%esp)
	movl	%eax, 4(%esp)
	movl	-20(%ebp), %eax
	movl	%eax, (%esp)
	call	__DIVREM_SINGLE_UNIT
	movl	%eax, -20(%ebp)
	.loc 5 81 13
	movl	-16(%ebp), %eax
	leal	-84(%eax), %edx
	.loc 5 81 38
	movl	-12(%ebp), %eax
	subl	$84, %eax
	.loc 5 81 13
	movl	(%eax), %eax
	movl	%edx, 12(%esp)
	movl	16(%ebp), %edx
	movl	%edx, 8(%esp)
	movl	%eax, 4(%esp)
	movl	-20(%ebp), %eax
	movl	%eax, (%esp)
	call	__DIVREM_SINGLE_UNIT
	movl	%eax, -20(%ebp)
	.loc 5 82 13
	movl	-16(%ebp), %eax
	leal	-88(%eax), %edx
	.loc 5 82 38
	movl	-12(%ebp), %eax
	subl	$88, %eax
	.loc 5 82 13
	movl	(%eax), %eax
	movl	%edx, 12(%esp)
	movl	16(%ebp), %edx
	movl	%edx, 8(%esp)
	movl	%eax, 4(%esp)
	movl	-20(%ebp), %eax
	movl	%eax, (%esp)
	call	__DIVREM_SINGLE_UNIT
	movl	%eax, -20(%ebp)
	.loc 5 83 13
	movl	-16(%ebp), %eax
	leal	-92(%eax), %edx
	.loc 5 83 38
	movl	-12(%ebp), %eax
	subl	$92, %eax
	.loc 5 83 13
	movl	(%eax), %eax
	movl	%edx, 12(%esp)
	movl	16(%ebp), %edx
	movl	%edx, 8(%esp)
	movl	%eax, 4(%esp)
	movl	-20(%ebp), %eax
	movl	%eax, (%esp)
	call	__DIVREM_SINGLE_UNIT
	movl	%eax, -20(%ebp)
	.loc 5 84 13
	movl	-16(%ebp), %eax
	leal	-96(%eax), %edx
	.loc 5 84 38
	movl	-12(%ebp), %eax
	subl	$96, %eax
	.loc 5 84 13
	movl	(%eax), %eax
	movl	%edx, 12(%esp)
	movl	16(%ebp), %edx
	movl	%edx, 8(%esp)
	movl	%eax, 4(%esp)
	movl	-20(%ebp), %eax
	movl	%eax, (%esp)
	call	__DIVREM_SINGLE_UNIT
	movl	%eax, -20(%ebp)
	.loc 5 85 13
	movl	-16(%ebp), %eax
	leal	-100(%eax), %edx
	.loc 5 85 38
	movl	-12(%ebp), %eax
	subl	$100, %eax
	.loc 5 85 13
	movl	(%eax), %eax
	movl	%edx, 12(%esp)
	movl	16(%ebp), %edx
	movl	%edx, 8(%esp)
	movl	%eax, 4(%esp)
	movl	-20(%ebp), %eax
	movl	%eax, (%esp)
	call	__DIVREM_SINGLE_UNIT
	movl	%eax, -20(%ebp)
	.loc 5 86 13
	movl	-16(%ebp), %eax
	leal	-104(%eax), %edx
	.loc 5 86 38
	movl	-12(%ebp), %eax
	subl	$104, %eax
	.loc 5 86 13
	movl	(%eax), %eax
	movl	%edx, 12(%esp)
	movl	16(%ebp), %edx
	movl	%edx, 8(%esp)
	movl	%eax, 4(%esp)
	movl	-20(%ebp), %eax
	movl	%eax, (%esp)
	call	__DIVREM_SINGLE_UNIT
	movl	%eax, -20(%ebp)
	.loc 5 87 13
	movl	-16(%ebp), %eax
	leal	-108(%eax), %edx
	.loc 5 87 38
	movl	-12(%ebp), %eax
	subl	$108, %eax
	.loc 5 87 13
	movl	(%eax), %eax
	movl	%edx, 12(%esp)
	movl	16(%ebp), %edx
	movl	%edx, 8(%esp)
	movl	%eax, 4(%esp)
	movl	-20(%ebp), %eax
	movl	%eax, (%esp)
	call	__DIVREM_SINGLE_UNIT
	movl	%eax, -20(%ebp)
	.loc 5 88 13
	movl	-16(%ebp), %eax
	leal	-112(%eax), %edx
	.loc 5 88 38
	movl	-12(%ebp), %eax
	subl	$112, %eax
	.loc 5 88 13
	movl	(%eax), %eax
	movl	%edx, 12(%esp)
	movl	16(%ebp), %edx
	movl	%edx, 8(%esp)
	movl	%eax, 4(%esp)
	movl	-20(%ebp), %eax
	movl	%eax, (%esp)
	call	__DIVREM_SINGLE_UNIT
	movl	%eax, -20(%ebp)
	.loc 5 89 13
	movl	-16(%ebp), %eax
	leal	-116(%eax), %edx
	.loc 5 89 38
	movl	-12(%ebp), %eax
	subl	$116, %eax
	.loc 5 89 13
	movl	(%eax), %eax
	movl	%edx, 12(%esp)
	movl	16(%ebp), %edx
	movl	%edx, 8(%esp)
	movl	%eax, 4(%esp)
	movl	-20(%ebp), %eax
	movl	%eax, (%esp)
	call	__DIVREM_SINGLE_UNIT
	movl	%eax, -20(%ebp)
	.loc 5 90 13
	movl	-16(%ebp), %eax
	leal	-120(%eax), %edx
	.loc 5 90 38
	movl	-12(%ebp), %eax
	subl	$120, %eax
	.loc 5 90 13
	movl	(%eax), %eax
	movl	%edx, 12(%esp)
	movl	16(%ebp), %edx
	movl	%edx, 8(%esp)
	movl	%eax, 4(%esp)
	movl	-20(%ebp), %eax
	movl	%eax, (%esp)
	call	__DIVREM_SINGLE_UNIT
	movl	%eax, -20(%ebp)
	.loc 5 91 13
	movl	-16(%ebp), %eax
	leal	-124(%eax), %edx
	.loc 5 91 38
	movl	-12(%ebp), %eax
	subl	$124, %eax
	.loc 5 91 13
	movl	(%eax), %eax
	movl	%edx, 12(%esp)
	movl	16(%ebp), %edx
	movl	%edx, 8(%esp)
	movl	%eax, 4(%esp)
	movl	-20(%ebp), %eax
	movl	%eax, (%esp)
	call	__DIVREM_SINGLE_UNIT
	movl	%eax, -20(%ebp)
	.loc 5 92 12
	addl	$-128, -12(%ebp)
	.loc 5 93 12
	addl	$-128, -16(%ebp)
	.loc 5 94 9
	subl	$1, -24(%ebp)
	.loc 5 99 13
	movl	$32, (%esp)
	call	_AddToDIV32Counter
L58:
	.loc 5 58 11
	cmpl	$0, -24(%ebp)
	jne	L59
	.loc 5 103 17
	movl	-28(%ebp), %eax
	andl	$16, %eax
	.loc 5 103 8
	testl	%eax, %eax
	je	L60
	.loc 5 105 13
	movl	-12(%ebp), %eax
	movl	(%eax), %eax
	movl	-16(%ebp), %edx
	movl	%edx, 12(%esp)
	movl	16(%ebp), %edx
	movl	%edx, 8(%esp)
	movl	%eax, 4(%esp)
	movl	-20(%ebp), %eax
	movl	%eax, (%esp)
	call	__DIVREM_SINGLE_UNIT
	movl	%eax, -20(%ebp)
	.loc 5 106 13
	movl	-16(%ebp), %eax
	leal	-4(%eax), %edx
	.loc 5 106 38
	movl	-12(%ebp), %eax
	subl	$4, %eax
	.loc 5 106 13
	movl	(%eax), %eax
	movl	%edx, 12(%esp)
	movl	16(%ebp), %edx
	movl	%edx, 8(%esp)
	movl	%eax, 4(%esp)
	movl	-20(%ebp), %eax
	movl	%eax, (%esp)
	call	__DIVREM_SINGLE_UNIT
	movl	%eax, -20(%ebp)
	.loc 5 107 13
	movl	-16(%ebp), %eax
	leal	-8(%eax), %edx
	.loc 5 107 38
	movl	-12(%ebp), %eax
	subl	$8, %eax
	.loc 5 107 13
	movl	(%eax), %eax
	movl	%edx, 12(%esp)
	movl	16(%ebp), %edx
	movl	%edx, 8(%esp)
	movl	%eax, 4(%esp)
	movl	-20(%ebp), %eax
	movl	%eax, (%esp)
	call	__DIVREM_SINGLE_UNIT
	movl	%eax, -20(%ebp)
	.loc 5 108 13
	movl	-16(%ebp), %eax
	leal	-12(%eax), %edx
	.loc 5 108 38
	movl	-12(%ebp), %eax
	subl	$12, %eax
	.loc 5 108 13
	movl	(%eax), %eax
	movl	%edx, 12(%esp)
	movl	16(%ebp), %edx
	movl	%edx, 8(%esp)
	movl	%eax, 4(%esp)
	movl	-20(%ebp), %eax
	movl	%eax, (%esp)
	call	__DIVREM_SINGLE_UNIT
	movl	%eax, -20(%ebp)
	.loc 5 109 13
	movl	-16(%ebp), %eax
	leal	-16(%eax), %edx
	.loc 5 109 38
	movl	-12(%ebp), %eax
	subl	$16, %eax
	.loc 5 109 13
	movl	(%eax), %eax
	movl	%edx, 12(%esp)
	movl	16(%ebp), %edx
	movl	%edx, 8(%esp)
	movl	%eax, 4(%esp)
	movl	-20(%ebp), %eax
	movl	%eax, (%esp)
	call	__DIVREM_SINGLE_UNIT
	movl	%eax, -20(%ebp)
	.loc 5 110 13
	movl	-16(%ebp), %eax
	leal	-20(%eax), %edx
	.loc 5 110 38
	movl	-12(%ebp), %eax
	subl	$20, %eax
	.loc 5 110 13
	movl	(%eax), %eax
	movl	%edx, 12(%esp)
	movl	16(%ebp), %edx
	movl	%edx, 8(%esp)
	movl	%eax, 4(%esp)
	movl	-20(%ebp), %eax
	movl	%eax, (%esp)
	call	__DIVREM_SINGLE_UNIT
	movl	%eax, -20(%ebp)
	.loc 5 111 13
	movl	-16(%ebp), %eax
	leal	-24(%eax), %edx
	.loc 5 111 38
	movl	-12(%ebp), %eax
	subl	$24, %eax
	.loc 5 111 13
	movl	(%eax), %eax
	movl	%edx, 12(%esp)
	movl	16(%ebp), %edx
	movl	%edx, 8(%esp)
	movl	%eax, 4(%esp)
	movl	-20(%ebp), %eax
	movl	%eax, (%esp)
	call	__DIVREM_SINGLE_UNIT
	movl	%eax, -20(%ebp)
	.loc 5 112 13
	movl	-16(%ebp), %eax
	leal	-28(%eax), %edx
	.loc 5 112 38
	movl	-12(%ebp), %eax
	subl	$28, %eax
	.loc 5 112 13
	movl	(%eax), %eax
	movl	%edx, 12(%esp)
	movl	16(%ebp), %edx
	movl	%edx, 8(%esp)
	movl	%eax, 4(%esp)
	movl	-20(%ebp), %eax
	movl	%eax, (%esp)
	call	__DIVREM_SINGLE_UNIT
	movl	%eax, -20(%ebp)
	.loc 5 113 13
	movl	-16(%ebp), %eax
	leal	-32(%eax), %edx
	.loc 5 113 38
	movl	-12(%ebp), %eax
	subl	$32, %eax
	.loc 5 113 13
	movl	(%eax), %eax
	movl	%edx, 12(%esp)
	movl	16(%ebp), %edx
	movl	%edx, 8(%esp)
	movl	%eax, 4(%esp)
	movl	-20(%ebp), %eax
	movl	%eax, (%esp)
	call	__DIVREM_SINGLE_UNIT
	movl	%eax, -20(%ebp)
	.loc 5 114 13
	movl	-16(%ebp), %eax
	leal	-36(%eax), %edx
	.loc 5 114 38
	movl	-12(%ebp), %eax
	subl	$36, %eax
	.loc 5 114 13
	movl	(%eax), %eax
	movl	%edx, 12(%esp)
	movl	16(%ebp), %edx
	movl	%edx, 8(%esp)
	movl	%eax, 4(%esp)
	movl	-20(%ebp), %eax
	movl	%eax, (%esp)
	call	__DIVREM_SINGLE_UNIT
	movl	%eax, -20(%ebp)
	.loc 5 115 13
	movl	-16(%ebp), %eax
	leal	-40(%eax), %edx
	.loc 5 115 38
	movl	-12(%ebp), %eax
	subl	$40, %eax
	.loc 5 115 13
	movl	(%eax), %eax
	movl	%edx, 12(%esp)
	movl	16(%ebp), %edx
	movl	%edx, 8(%esp)
	movl	%eax, 4(%esp)
	movl	-20(%ebp), %eax
	movl	%eax, (%esp)
	call	__DIVREM_SINGLE_UNIT
	movl	%eax, -20(%ebp)
	.loc 5 116 13
	movl	-16(%ebp), %eax
	leal	-44(%eax), %edx
	.loc 5 116 38
	movl	-12(%ebp), %eax
	subl	$44, %eax
	.loc 5 116 13
	movl	(%eax), %eax
	movl	%edx, 12(%esp)
	movl	16(%ebp), %edx
	movl	%edx, 8(%esp)
	movl	%eax, 4(%esp)
	movl	-20(%ebp), %eax
	movl	%eax, (%esp)
	call	__DIVREM_SINGLE_UNIT
	movl	%eax, -20(%ebp)
	.loc 5 117 13
	movl	-16(%ebp), %eax
	leal	-48(%eax), %edx
	.loc 5 117 38
	movl	-12(%ebp), %eax
	subl	$48, %eax
	.loc 5 117 13
	movl	(%eax), %eax
	movl	%edx, 12(%esp)
	movl	16(%ebp), %edx
	movl	%edx, 8(%esp)
	movl	%eax, 4(%esp)
	movl	-20(%ebp), %eax
	movl	%eax, (%esp)
	call	__DIVREM_SINGLE_UNIT
	movl	%eax, -20(%ebp)
	.loc 5 118 13
	movl	-16(%ebp), %eax
	leal	-52(%eax), %edx
	.loc 5 118 38
	movl	-12(%ebp), %eax
	subl	$52, %eax
	.loc 5 118 13
	movl	(%eax), %eax
	movl	%edx, 12(%esp)
	movl	16(%ebp), %edx
	movl	%edx, 8(%esp)
	movl	%eax, 4(%esp)
	movl	-20(%ebp), %eax
	movl	%eax, (%esp)
	call	__DIVREM_SINGLE_UNIT
	movl	%eax, -20(%ebp)
	.loc 5 119 13
	movl	-16(%ebp), %eax
	leal	-56(%eax), %edx
	.loc 5 119 38
	movl	-12(%ebp), %eax
	subl	$56, %eax
	.loc 5 119 13
	movl	(%eax), %eax
	movl	%edx, 12(%esp)
	movl	16(%ebp), %edx
	movl	%edx, 8(%esp)
	movl	%eax, 4(%esp)
	movl	-20(%ebp), %eax
	movl	%eax, (%esp)
	call	__DIVREM_SINGLE_UNIT
	movl	%eax, -20(%ebp)
	.loc 5 120 13
	movl	-16(%ebp), %eax
	leal	-60(%eax), %edx
	.loc 5 120 38
	movl	-12(%ebp), %eax
	subl	$60, %eax
	.loc 5 120 13
	movl	(%eax), %eax
	movl	%edx, 12(%esp)
	movl	16(%ebp), %edx
	movl	%edx, 8(%esp)
	movl	%eax, 4(%esp)
	movl	-20(%ebp), %eax
	movl	%eax, (%esp)
	call	__DIVREM_SINGLE_UNIT
	movl	%eax, -20(%ebp)
	.loc 5 121 12
	subl	$64, -12(%ebp)
	.loc 5 122 12
	subl	$64, -16(%ebp)
	.loc 5 127 13
	movl	$16, (%esp)
	call	_AddToDIV32Counter
L60:
	.loc 5 131 17
	movl	-28(%ebp), %eax
	andl	$8, %eax
	.loc 5 131 8
	testl	%eax, %eax
	je	L61
	.loc 5 133 13
	movl	-12(%ebp), %eax
	movl	(%eax), %eax
	movl	-16(%ebp), %edx
	movl	%edx, 12(%esp)
	movl	16(%ebp), %edx
	movl	%edx, 8(%esp)
	movl	%eax, 4(%esp)
	movl	-20(%ebp), %eax
	movl	%eax, (%esp)
	call	__DIVREM_SINGLE_UNIT
	movl	%eax, -20(%ebp)
	.loc 5 134 13
	movl	-16(%ebp), %eax
	leal	-4(%eax), %edx
	.loc 5 134 38
	movl	-12(%ebp), %eax
	subl	$4, %eax
	.loc 5 134 13
	movl	(%eax), %eax
	movl	%edx, 12(%esp)
	movl	16(%ebp), %edx
	movl	%edx, 8(%esp)
	movl	%eax, 4(%esp)
	movl	-20(%ebp), %eax
	movl	%eax, (%esp)
	call	__DIVREM_SINGLE_UNIT
	movl	%eax, -20(%ebp)
	.loc 5 135 13
	movl	-16(%ebp), %eax
	leal	-8(%eax), %edx
	.loc 5 135 38
	movl	-12(%ebp), %eax
	subl	$8, %eax
	.loc 5 135 13
	movl	(%eax), %eax
	movl	%edx, 12(%esp)
	movl	16(%ebp), %edx
	movl	%edx, 8(%esp)
	movl	%eax, 4(%esp)
	movl	-20(%ebp), %eax
	movl	%eax, (%esp)
	call	__DIVREM_SINGLE_UNIT
	movl	%eax, -20(%ebp)
	.loc 5 136 13
	movl	-16(%ebp), %eax
	leal	-12(%eax), %edx
	.loc 5 136 38
	movl	-12(%ebp), %eax
	subl	$12, %eax
	.loc 5 136 13
	movl	(%eax), %eax
	movl	%edx, 12(%esp)
	movl	16(%ebp), %edx
	movl	%edx, 8(%esp)
	movl	%eax, 4(%esp)
	movl	-20(%ebp), %eax
	movl	%eax, (%esp)
	call	__DIVREM_SINGLE_UNIT
	movl	%eax, -20(%ebp)
	.loc 5 137 13
	movl	-16(%ebp), %eax
	leal	-16(%eax), %edx
	.loc 5 137 38
	movl	-12(%ebp), %eax
	subl	$16, %eax
	.loc 5 137 13
	movl	(%eax), %eax
	movl	%edx, 12(%esp)
	movl	16(%ebp), %edx
	movl	%edx, 8(%esp)
	movl	%eax, 4(%esp)
	movl	-20(%ebp), %eax
	movl	%eax, (%esp)
	call	__DIVREM_SINGLE_UNIT
	movl	%eax, -20(%ebp)
	.loc 5 138 13
	movl	-16(%ebp), %eax
	leal	-20(%eax), %edx
	.loc 5 138 38
	movl	-12(%ebp), %eax
	subl	$20, %eax
	.loc 5 138 13
	movl	(%eax), %eax
	movl	%edx, 12(%esp)
	movl	16(%ebp), %edx
	movl	%edx, 8(%esp)
	movl	%eax, 4(%esp)
	movl	-20(%ebp), %eax
	movl	%eax, (%esp)
	call	__DIVREM_SINGLE_UNIT
	movl	%eax, -20(%ebp)
	.loc 5 139 13
	movl	-16(%ebp), %eax
	leal	-24(%eax), %edx
	.loc 5 139 38
	movl	-12(%ebp), %eax
	subl	$24, %eax
	.loc 5 139 13
	movl	(%eax), %eax
	movl	%edx, 12(%esp)
	movl	16(%ebp), %edx
	movl	%edx, 8(%esp)
	movl	%eax, 4(%esp)
	movl	-20(%ebp), %eax
	movl	%eax, (%esp)
	call	__DIVREM_SINGLE_UNIT
	movl	%eax, -20(%ebp)
	.loc 5 140 13
	movl	-16(%ebp), %eax
	leal	-28(%eax), %edx
	.loc 5 140 38
	movl	-12(%ebp), %eax
	subl	$28, %eax
	.loc 5 140 13
	movl	(%eax), %eax
	movl	%edx, 12(%esp)
	movl	16(%ebp), %edx
	movl	%edx, 8(%esp)
	movl	%eax, 4(%esp)
	movl	-20(%ebp), %eax
	movl	%eax, (%esp)
	call	__DIVREM_SINGLE_UNIT
	movl	%eax, -20(%ebp)
	.loc 5 141 12
	subl	$32, -12(%ebp)
	.loc 5 142 12
	subl	$32, -16(%ebp)
	.loc 5 147 13
	movl	$8, (%esp)
	call	_AddToDIV32Counter
L61:
	.loc 5 151 17
	movl	-28(%ebp), %eax
	andl	$4, %eax
	.loc 5 151 8
	testl	%eax, %eax
	je	L62
	.loc 5 153 13
	movl	-12(%ebp), %eax
	movl	(%eax), %eax
	movl	-16(%ebp), %edx
	movl	%edx, 12(%esp)
	movl	16(%ebp), %edx
	movl	%edx, 8(%esp)
	movl	%eax, 4(%esp)
	movl	-20(%ebp), %eax
	movl	%eax, (%esp)
	call	__DIVREM_SINGLE_UNIT
	movl	%eax, -20(%ebp)
	.loc 5 154 13
	movl	-16(%ebp), %eax
	leal	-4(%eax), %edx
	.loc 5 154 38
	movl	-12(%ebp), %eax
	subl	$4, %eax
	.loc 5 154 13
	movl	(%eax), %eax
	movl	%edx, 12(%esp)
	movl	16(%ebp), %edx
	movl	%edx, 8(%esp)
	movl	%eax, 4(%esp)
	movl	-20(%ebp), %eax
	movl	%eax, (%esp)
	call	__DIVREM_SINGLE_UNIT
	movl	%eax, -20(%ebp)
	.loc 5 155 13
	movl	-16(%ebp), %eax
	leal	-8(%eax), %edx
	.loc 5 155 38
	movl	-12(%ebp), %eax
	subl	$8, %eax
	.loc 5 155 13
	movl	(%eax), %eax
	movl	%edx, 12(%esp)
	movl	16(%ebp), %edx
	movl	%edx, 8(%esp)
	movl	%eax, 4(%esp)
	movl	-20(%ebp), %eax
	movl	%eax, (%esp)
	call	__DIVREM_SINGLE_UNIT
	movl	%eax, -20(%ebp)
	.loc 5 156 13
	movl	-16(%ebp), %eax
	leal	-12(%eax), %edx
	.loc 5 156 38
	movl	-12(%ebp), %eax
	subl	$12, %eax
	.loc 5 156 13
	movl	(%eax), %eax
	movl	%edx, 12(%esp)
	movl	16(%ebp), %edx
	movl	%edx, 8(%esp)
	movl	%eax, 4(%esp)
	movl	-20(%ebp), %eax
	movl	%eax, (%esp)
	call	__DIVREM_SINGLE_UNIT
	movl	%eax, -20(%ebp)
	.loc 5 157 12
	subl	$16, -12(%ebp)
	.loc 5 158 12
	subl	$16, -16(%ebp)
	.loc 5 163 13
	movl	$4, (%esp)
	call	_AddToDIV32Counter
L62:
	.loc 5 167 17
	movl	-28(%ebp), %eax
	andl	$2, %eax
	.loc 5 167 8
	testl	%eax, %eax
	je	L63
	.loc 5 169 13
	movl	-12(%ebp), %eax
	movl	(%eax), %eax
	movl	-16(%ebp), %edx
	movl	%edx, 12(%esp)
	movl	16(%ebp), %edx
	movl	%edx, 8(%esp)
	movl	%eax, 4(%esp)
	movl	-20(%ebp), %eax
	movl	%eax, (%esp)
	call	__DIVREM_SINGLE_UNIT
	movl	%eax, -20(%ebp)
	.loc 5 170 13
	movl	-16(%ebp), %eax
	leal	-4(%eax), %edx
	.loc 5 170 38
	movl	-12(%ebp), %eax
	subl	$4, %eax
	.loc 5 170 13
	movl	(%eax), %eax
	movl	%edx, 12(%esp)
	movl	16(%ebp), %edx
	movl	%edx, 8(%esp)
	movl	%eax, 4(%esp)
	movl	-20(%ebp), %eax
	movl	%eax, (%esp)
	call	__DIVREM_SINGLE_UNIT
	movl	%eax, -20(%ebp)
	.loc 5 171 12
	subl	$8, -12(%ebp)
	.loc 5 172 12
	subl	$8, -16(%ebp)
	.loc 5 177 13
	movl	$2, (%esp)
	call	_AddToDIV32Counter
L63:
	.loc 5 181 17
	movl	-28(%ebp), %eax
	andl	$1, %eax
	.loc 5 181 8
	testl	%eax, %eax
	je	L64
	.loc 5 183 13
	movl	-12(%ebp), %eax
	movl	(%eax), %eax
	movl	-16(%ebp), %edx
	movl	%edx, 12(%esp)
	movl	16(%ebp), %edx
	movl	%edx, 8(%esp)
	movl	%eax, 4(%esp)
	movl	-20(%ebp), %eax
	movl	%eax, (%esp)
	call	__DIVREM_SINGLE_UNIT
	movl	%eax, -20(%ebp)
	.loc 5 184 12
	subl	$4, -12(%ebp)
	.loc 5 185 12
	subl	$4, -16(%ebp)
	.loc 5 190 13
	call	_IncrementDIV32Counter
L64:
	.loc 5 194 12
	movl	24(%ebp), %eax
	movl	-20(%ebp), %edx
	movl	%edx, (%eax)
	.loc 5 195 1
	nop
	leave
	.cfi_restore 5
	.cfi_def_cfa 4, 4
	ret
	.cfi_endproc
LFE4277:
	.def	_AsumeQ_;	.scl	3;	.type	32;	.endef
_AsumeQ_:
LFB4278:
	.loc 5 198 1
	.cfi_startproc
	pushl	%ebp
	.cfi_def_cfa_offset 8
	.cfi_offset 5, -8
	movl	%esp, %ebp
	.cfi_def_cfa_register 5
	subl	$32, %esp
	.loc 5 199 8
	movl	8(%ebp), %eax
	cmpl	16(%ebp), %eax
	jne	L66
	.loc 5 200 16
	movl	$-1, %eax
	jmp	L68
L66:
	.loc 5 202 25
	leal	-8(%ebp), %eax
	movl	%eax, 12(%esp)
	movl	16(%ebp), %eax
	movl	%eax, 8(%esp)
	movl	12(%ebp), %eax
	movl	%eax, 4(%esp)
	movl	8(%ebp), %eax
	movl	%eax, (%esp)
	call	__DIVREM_UNIT
	movl	%eax, -4(%ebp)
	.loc 5 207 9
	call	_IncrementDIV32Counter
	.loc 5 209 12
	movl	-4(%ebp), %eax
L68:
	.loc 5 210 1 discriminator 1
	leave
	.cfi_restore 5
	.cfi_def_cfa 4, 4
	ret
	.cfi_endproc
LFE4278:
	.def	_CheckQ_;	.scl	3;	.type	32;	.endef
_CheckQ_:
LFB4279:
	.loc 5 213 1
	.cfi_startproc
	pushl	%ebp
	.cfi_def_cfa_offset 8
	.cfi_offset 5, -8
	movl	%esp, %ebp
	.cfi_def_cfa_register 5
	pushl	%ebx
	subl	$48, %esp
	.cfi_offset 3, -12
	.loc 5 215 29
	leal	-20(%ebp), %eax
	movl	%eax, 8(%esp)
	movl	8(%ebp), %eax
	movl	%eax, 4(%esp)
	movl	28(%ebp), %eax
	movl	%eax, (%esp)
	call	__MULTIPLY_UNIT_DIV
	movl	%eax, -8(%ebp)
	.loc 5 218 21
	movl	20(%ebp), %eax
	movl	%eax, -12(%ebp)
	.loc 5 220 28
	leal	-32(%ebp), %eax
	movl	%eax, 8(%esp)
	movl	24(%ebp), %eax
	movl	%eax, 4(%esp)
	movl	8(%ebp), %eax
	movl	%eax, (%esp)
	call	__MULTIPLY_UNIT_DIV
	movl	%eax, -16(%ebp)
	.loc 5 221 5
	movl	-32(%ebp), %ebx
	.loc 5 221 24
	leal	-28(%ebp), %eax
	movl	%eax, 12(%esp)
	movl	-16(%ebp), %eax
	movl	%eax, 8(%esp)
	movl	16(%ebp), %eax
	movl	%eax, 4(%esp)
	movl	$0, (%esp)
	call	__SUBTRUCT_UNIT_DIV
	.loc 5 221 5
	movsbl	%al, %eax
	leal	-24(%ebp), %edx
	movl	%edx, 12(%esp)
	movl	%ebx, 8(%esp)
	movl	12(%ebp), %edx
	movl	%edx, 4(%esp)
	movl	%eax, (%esp)
	call	__SUBTRUCT_UNIT_DIV
	.loc 5 227 9
	movl	$2, (%esp)
	call	_AddToMULTI32Counter
	.loc 5 229 15
	movl	-24(%ebp), %eax
	.loc 5 229 8
	testl	%eax, %eax
	je	L70
	.loc 5 230 16
	movl	$0, %eax
	jmp	L74
L70:
	.loc 5 231 20
	movl	-20(%ebp), %edx
	movl	-28(%ebp), %eax
	.loc 5 231 13
	cmpl	%eax, %edx
	jbe	L72
	.loc 5 232 16
	movl	$1, %eax
	jmp	L74
L72:
	.loc 5 233 20
	movl	-20(%ebp), %edx
	movl	-28(%ebp), %eax
	.loc 5 233 13
	cmpl	%eax, %edx
	jnb	L73
	.loc 5 234 16
	movl	$0, %eax
	jmp	L74
L73:
	.loc 5 236 23
	movl	-8(%ebp), %eax
	cmpl	-12(%ebp), %eax
	seta	%al
	movzbl	%al, %eax
L74:
	.loc 5 237 1 discriminator 1
	addl	$48, %esp
	popl	%ebx
	.cfi_restore 3
	popl	%ebp
	.cfi_restore 5
	.cfi_def_cfa 4, 4
	ret
	.cfi_endproc
LFE4279:
	.def	_CheckQ_X;	.scl	3;	.type	32;	.endef
_CheckQ_X:
LFB4280:
	.loc 5 240 1
	.cfi_startproc
	pushl	%ebp
	.cfi_def_cfa_offset 8
	.cfi_offset 5, -8
	movl	%esp, %ebp
	.cfi_def_cfa_register 5
	pushl	%ebx
	subl	$48, %esp
	.cfi_offset 3, -12
	.loc 5 242 29
	leal	-20(%ebp), %eax
	movl	%eax, 8(%esp)
	movl	8(%ebp), %eax
	movl	%eax, 4(%esp)
	movl	28(%ebp), %eax
	movl	%eax, (%esp)
	call	__MULTIPLYX_UNIT_DIV
	movl	%eax, -8(%ebp)
	.loc 5 245 21
	movl	20(%ebp), %eax
	movl	%eax, -12(%ebp)
	.loc 5 247 28
	leal	-32(%ebp), %eax
	movl	%eax, 8(%esp)
	movl	24(%ebp), %eax
	movl	%eax, 4(%esp)
	movl	8(%ebp), %eax
	movl	%eax, (%esp)
	call	__MULTIPLYX_UNIT_DIV
	movl	%eax, -16(%ebp)
	.loc 5 249 5
	movl	-32(%ebp), %ebx
	.loc 5 249 24
	leal	-28(%ebp), %eax
	movl	%eax, 12(%esp)
	movl	-16(%ebp), %eax
	movl	%eax, 8(%esp)
	movl	16(%ebp), %eax
	movl	%eax, 4(%esp)
	movl	$0, (%esp)
	call	__SUBTRUCT_UNIT_DIV
	.loc 5 249 5
	movsbl	%al, %eax
	leal	-24(%ebp), %edx
	movl	%edx, 12(%esp)
	movl	%ebx, 8(%esp)
	movl	12(%ebp), %edx
	movl	%edx, 4(%esp)
	movl	%eax, (%esp)
	call	__SUBTRUCT_UNIT_DIV
	.loc 5 255 9
	movl	$2, (%esp)
	call	_AddToMULTI32Counter
	.loc 5 257 15
	movl	-24(%ebp), %eax
	.loc 5 257 8
	testl	%eax, %eax
	je	L76
	.loc 5 258 16
	movl	$0, %eax
	jmp	L80
L76:
	.loc 5 259 20
	movl	-20(%ebp), %edx
	movl	-28(%ebp), %eax
	.loc 5 259 13
	cmpl	%eax, %edx
	jbe	L78
	.loc 5 260 16
	movl	$1, %eax
	jmp	L80
L78:
	.loc 5 261 20
	movl	-20(%ebp), %edx
	movl	-28(%ebp), %eax
	.loc 5 261 13
	cmpl	%eax, %edx
	jnb	L79
	.loc 5 262 16
	movl	$0, %eax
	jmp	L80
L79:
	.loc 5 264 23
	movl	-8(%ebp), %eax
	cmpl	-12(%ebp), %eax
	seta	%al
	movzbl	%al, %eax
L80:
	.loc 5 265 1 discriminator 1
	addl	$48, %esp
	popl	%ebx
	.cfi_restore 3
	popl	%ebp
	.cfi_restore 5
	.cfi_def_cfa 4, 4
	ret
	.cfi_endproc
LFE4280:
	.def	_CalculateQ_;	.scl	3;	.type	32;	.endef
_CalculateQ_:
LFB4281:
	.loc 5 268 1
	.cfi_startproc
	pushl	%ebp
	.cfi_def_cfa_offset 8
	.cfi_offset 5, -8
	movl	%esp, %ebp
	.cfi_def_cfa_register 5
	subl	$56, %esp
	.loc 5 269 17
	movl	20(%ebp), %edx
	movl	16(%ebp), %eax
	addl	%edx, %eax
	movl	%eax, -4(%ebp)
	.loc 5 270 31
	movl	-4(%ebp), %eax
	leal	0(,%eax,4), %edx
	movl	8(%ebp), %eax
	addl	%edx, %eax
	.loc 5 270 21
	movl	(%eax), %eax
	movl	%eax, -8(%ebp)
	.loc 5 271 33
	movl	-4(%ebp), %eax
	addl	$1073741823, %eax
	leal	0(,%eax,4), %edx
	movl	8(%ebp), %eax
	addl	%edx, %eax
	.loc 5 271 21
	movl	(%eax), %eax
	movl	%eax, -12(%ebp)
	.loc 5 272 33
	movl	-4(%ebp), %eax
	addl	$1073741822, %eax
	leal	0(,%eax,4), %edx
	movl	8(%ebp), %eax
	addl	%edx, %eax
	.loc 5 272 21
	movl	(%eax), %eax
	movl	%eax, -16(%ebp)
	.loc 5 273 31
	movl	16(%ebp), %eax
	addl	$1073741823, %eax
	leal	0(,%eax,4), %edx
	movl	12(%ebp), %eax
	addl	%edx, %eax
	.loc 5 273 21
	movl	(%eax), %eax
	movl	%eax, -20(%ebp)
	.loc 5 274 31
	movl	16(%ebp), %eax
	addl	$1073741822, %eax
	leal	0(,%eax,4), %edx
	movl	12(%ebp), %eax
	addl	%edx, %eax
	.loc 5 274 21
	movl	(%eax), %eax
	movl	%eax, -24(%ebp)
	.loc 5 275 26
	movl	-20(%ebp), %eax
	movl	%eax, 8(%esp)
	movl	-12(%ebp), %eax
	movl	%eax, 4(%esp)
	movl	-8(%ebp), %eax
	movl	%eax, (%esp)
	call	_AsumeQ_
	movl	%eax, -28(%ebp)
	.loc 5 276 10
	movl	-24(%ebp), %eax
	movl	%eax, 20(%esp)
	movl	-20(%ebp), %eax
	movl	%eax, 16(%esp)
	movl	-16(%ebp), %eax
	movl	%eax, 12(%esp)
	movl	-12(%ebp), %eax
	movl	%eax, 8(%esp)
	movl	-8(%ebp), %eax
	movl	%eax, 4(%esp)
	movl	-28(%ebp), %eax
	movl	%eax, (%esp)
	call	_CheckQ_
	.loc 5 276 8
	testl	%eax, %eax
	jne	L82
	.loc 5 277 16
	movl	-28(%ebp), %eax
	jmp	L83
L82:
	.loc 5 278 5
	subl	$1, -28(%ebp)
	.loc 5 279 10
	movl	-24(%ebp), %eax
	movl	%eax, 20(%esp)
	movl	-20(%ebp), %eax
	movl	%eax, 16(%esp)
	movl	-16(%ebp), %eax
	movl	%eax, 12(%esp)
	movl	-12(%ebp), %eax
	movl	%eax, 8(%esp)
	movl	-8(%ebp), %eax
	movl	%eax, 4(%esp)
	movl	-28(%ebp), %eax
	movl	%eax, (%esp)
	call	_CheckQ_
	.loc 5 279 8
	testl	%eax, %eax
	jne	L84
	.loc 5 280 16
	movl	-28(%ebp), %eax
	jmp	L83
L84:
	.loc 5 281 5
	subl	$1, -28(%ebp)
	.loc 5 282 12
	movl	-28(%ebp), %eax
L83:
	.loc 5 283 1
	leave
	.cfi_restore 5
	.cfi_def_cfa 4, 4
	ret
	.cfi_endproc
LFE4281:
	.def	_CalculateQ_X;	.scl	3;	.type	32;	.endef
_CalculateQ_X:
LFB4282:
	.loc 5 286 1
	.cfi_startproc
	pushl	%ebp
	.cfi_def_cfa_offset 8
	.cfi_offset 5, -8
	movl	%esp, %ebp
	.cfi_def_cfa_register 5
	subl	$56, %esp
	.loc 5 287 17
	movl	20(%ebp), %edx
	movl	16(%ebp), %eax
	addl	%edx, %eax
	movl	%eax, -4(%ebp)
	.loc 5 288 31
	movl	-4(%ebp), %eax
	leal	0(,%eax,4), %edx
	movl	8(%ebp), %eax
	addl	%edx, %eax
	.loc 5 288 21
	movl	(%eax), %eax
	movl	%eax, -8(%ebp)
	.loc 5 289 33
	movl	-4(%ebp), %eax
	addl	$1073741823, %eax
	leal	0(,%eax,4), %edx
	movl	8(%ebp), %eax
	addl	%edx, %eax
	.loc 5 289 21
	movl	(%eax), %eax
	movl	%eax, -12(%ebp)
	.loc 5 290 33
	movl	-4(%ebp), %eax
	addl	$1073741822, %eax
	leal	0(,%eax,4), %edx
	movl	8(%ebp), %eax
	addl	%edx, %eax
	.loc 5 290 21
	movl	(%eax), %eax
	movl	%eax, -16(%ebp)
	.loc 5 291 31
	movl	16(%ebp), %eax
	addl	$1073741823, %eax
	leal	0(,%eax,4), %edx
	movl	12(%ebp), %eax
	addl	%edx, %eax
	.loc 5 291 21
	movl	(%eax), %eax
	movl	%eax, -20(%ebp)
	.loc 5 292 31
	movl	16(%ebp), %eax
	addl	$1073741822, %eax
	leal	0(,%eax,4), %edx
	movl	12(%ebp), %eax
	addl	%edx, %eax
	.loc 5 292 21
	movl	(%eax), %eax
	movl	%eax, -24(%ebp)
	.loc 5 293 26
	movl	-20(%ebp), %eax
	movl	%eax, 8(%esp)
	movl	-12(%ebp), %eax
	movl	%eax, 4(%esp)
	movl	-8(%ebp), %eax
	movl	%eax, (%esp)
	call	_AsumeQ_
	movl	%eax, -28(%ebp)
	.loc 5 294 10
	movl	-24(%ebp), %eax
	movl	%eax, 20(%esp)
	movl	-20(%ebp), %eax
	movl	%eax, 16(%esp)
	movl	-16(%ebp), %eax
	movl	%eax, 12(%esp)
	movl	-12(%ebp), %eax
	movl	%eax, 8(%esp)
	movl	-8(%ebp), %eax
	movl	%eax, 4(%esp)
	movl	-28(%ebp), %eax
	movl	%eax, (%esp)
	call	_CheckQ_X
	.loc 5 294 8
	testl	%eax, %eax
	jne	L86
	.loc 5 295 16
	movl	-28(%ebp), %eax
	jmp	L87
L86:
	.loc 5 296 5
	subl	$1, -28(%ebp)
	.loc 5 297 10
	movl	-24(%ebp), %eax
	movl	%eax, 20(%esp)
	movl	-20(%ebp), %eax
	movl	%eax, 16(%esp)
	movl	-16(%ebp), %eax
	movl	%eax, 12(%esp)
	movl	-12(%ebp), %eax
	movl	%eax, 8(%esp)
	movl	-8(%ebp), %eax
	movl	%eax, 4(%esp)
	movl	-28(%ebp), %eax
	movl	%eax, (%esp)
	call	_CheckQ_X
	.loc 5 297 8
	testl	%eax, %eax
	jne	L88
	.loc 5 298 16
	movl	-28(%ebp), %eax
	jmp	L87
L88:
	.loc 5 299 5
	subl	$1, -28(%ebp)
	.loc 5 300 12
	movl	-28(%ebp), %eax
L87:
	.loc 5 301 1
	leave
	.cfi_restore 5
	.cfi_def_cfa 4, 4
	ret
	.cfi_endproc
LFE4282:
	.def	_DoBorrow;	.scl	3;	.type	32;	.endef
_DoBorrow:
LFB4283:
	.loc 5 304 1
	.cfi_startproc
	pushl	%ebp
	.cfi_def_cfa_offset 8
	.cfi_offset 5, -8
	movl	%esp, %ebp
	.cfi_def_cfa_register 5
	subl	$20, %esp
	movl	8(%ebp), %eax
	movb	%al, -4(%ebp)
L95:
	.loc 5 308 12
	cmpl	$0, 20(%ebp)
	jne	L90
	.loc 5 312 16
	cmpb	$0, -4(%ebp)
	je	L91
	.loc 5 317 24
	movl	$1, %eax
	jmp	L92
L91:
	.loc 5 322 20
	movl	$0, %eax
	jmp	L92
L90:
	.loc 5 324 17
	cmpb	$0, -4(%ebp)
	je	L93
	.loc 5 329 17
	movl	16(%ebp), %eax
	movl	(%eax), %edx
	movsbl	-4(%ebp), %eax
	movl	16(%ebp), %ecx
	movl	%ecx, 12(%esp)
	movl	12(%ebp), %ecx
	movl	%ecx, 8(%esp)
	movl	%edx, 4(%esp)
	movl	%eax, (%esp)
	call	__SUBTRUCT_UNIT_DIV
	movb	%al, -4(%ebp)
	.loc 5 330 15
	movl	$0, 12(%ebp)
	.loc 5 331 13
	addl	$4, 16(%ebp)
	.loc 5 332 13
	subl	$1, 20(%ebp)
	jmp	L95
L93:
	.loc 5 339 20
	movl	$0, %eax
L92:
	.loc 5 342 1
	leave
	.cfi_restore 5
	.cfi_def_cfa 4, 4
	ret
	.cfi_endproc
LFE4283:
	.def	__MULTIPLY_DIGIT_UNIT_DIV;	.scl	3;	.type	32;	.endef
__MULTIPLY_DIGIT_UNIT_DIV:
LFB4284:
	.loc 5 345 1
	.cfi_startproc
	pushl	%ebp
	.cfi_def_cfa_offset 8
	.cfi_offset 5, -8
	movl	%esp, %ebp
	.cfi_def_cfa_register 5
	pushl	%ebx
	subl	$36, %esp
	.cfi_offset 3, -12
	movl	8(%ebp), %eax
	movb	%al, -24(%ebp)
	.loc 5 348 12
	movl	16(%ebp), %eax
	movl	(%eax), %eax
	leal	-8(%ebp), %edx
	movl	%edx, 8(%esp)
	movl	20(%ebp), %edx
	movl	%edx, 4(%esp)
	movl	%eax, (%esp)
	call	__MULTIPLY_UNIT_DIV
	.loc 5 348 10
	movl	%eax, -12(%ebp)
	.loc 5 349 5
	movl	-8(%ebp), %ebx
	.loc 5 349 19
	movl	12(%ebp), %eax
	movl	(%eax), %edx
	movl	-12(%ebp), %eax
	leal	-12(%ebp), %ecx
	movl	%ecx, 12(%esp)
	movl	%edx, 8(%esp)
	movl	%eax, 4(%esp)
	movl	$0, (%esp)
	call	__ADD_UNIT_DIV
	.loc 5 349 5
	movsbl	%al, %eax
	leal	-8(%ebp), %edx
	movl	%edx, 12(%esp)
	movl	$0, 8(%esp)
	movl	%ebx, 4(%esp)
	movl	%eax, (%esp)
	call	__ADD_UNIT_DIV
	.loc 5 350 9
	movl	-12(%ebp), %ecx
	movl	24(%ebp), %eax
	movl	(%eax), %edx
	movsbl	-24(%ebp), %eax
	movl	24(%ebp), %ebx
	movl	%ebx, 12(%esp)
	movl	%ecx, 8(%esp)
	movl	%edx, 4(%esp)
	movl	%eax, (%esp)
	call	__SUBTRUCT_UNIT_DIV
	movb	%al, -24(%ebp)
	.loc 5 351 8
	movl	-8(%ebp), %edx
	movl	12(%ebp), %eax
	movl	%edx, (%eax)
	.loc 5 352 12
	movzbl	-24(%ebp), %eax
	.loc 5 353 1
	addl	$36, %esp
	popl	%ebx
	.cfi_restore 3
	popl	%ebp
	.cfi_restore 5
	.cfi_def_cfa 4, 4
	ret
	.cfi_endproc
LFE4284:
	.def	__MULTIPLYX_DIGIT_UNIT_DIV;	.scl	3;	.type	32;	.endef
__MULTIPLYX_DIGIT_UNIT_DIV:
LFB4285:
	.loc 5 356 1
	.cfi_startproc
	pushl	%ebp
	.cfi_def_cfa_offset 8
	.cfi_offset 5, -8
	movl	%esp, %ebp
	.cfi_def_cfa_register 5
	pushl	%ebx
	subl	$36, %esp
	.cfi_offset 3, -12
	movl	8(%ebp), %eax
	movb	%al, -24(%ebp)
	.loc 5 359 12
	movl	16(%ebp), %eax
	movl	(%eax), %eax
	leal	-8(%ebp), %edx
	movl	%edx, 8(%esp)
	movl	20(%ebp), %edx
	movl	%edx, 4(%esp)
	movl	%eax, (%esp)
	call	__MULTIPLYX_UNIT_DIV
	.loc 5 359 10
	movl	%eax, -12(%ebp)
	.loc 5 360 5
	movl	-8(%ebp), %ebx
	.loc 5 360 20
	movl	12(%ebp), %eax
	movl	(%eax), %edx
	movl	-12(%ebp), %eax
	leal	-12(%ebp), %ecx
	movl	%ecx, 12(%esp)
	movl	%edx, 8(%esp)
	movl	%eax, 4(%esp)
	movl	$0, (%esp)
	call	__ADDX_UNIT_DIV
	.loc 5 360 5
	movsbl	%al, %eax
	leal	-8(%ebp), %edx
	movl	%edx, 12(%esp)
	movl	$0, 8(%esp)
	movl	%ebx, 4(%esp)
	movl	%eax, (%esp)
	call	__ADDX_UNIT_DIV
	.loc 5 361 9
	movl	-12(%ebp), %ecx
	movl	24(%ebp), %eax
	movl	(%eax), %edx
	movsbl	-24(%ebp), %eax
	movl	24(%ebp), %ebx
	movl	%ebx, 12(%esp)
	movl	%ecx, 8(%esp)
	movl	%edx, 4(%esp)
	movl	%eax, (%esp)
	call	__SUBTRUCT_UNIT_DIV
	movb	%al, -24(%ebp)
	.loc 5 362 8
	movl	-8(%ebp), %edx
	movl	12(%ebp), %eax
	movl	%edx, (%eax)
	.loc 5 363 12
	movzbl	-24(%ebp), %eax
	.loc 5 364 1
	addl	$36, %esp
	popl	%ebx
	.cfi_restore 3
	popl	%ebp
	.cfi_restore 5
	.cfi_def_cfa 4, 4
	ret
	.cfi_endproc
LFE4285:
	.def	_SubtructOneLine;	.scl	3;	.type	32;	.endef
_SubtructOneLine:
LFB4286:
	.loc 5 367 1
	.cfi_startproc
	pushl	%ebp
	.cfi_def_cfa_offset 8
	.cfi_offset 5, -8
	movl	%esp, %ebp
	.cfi_def_cfa_register 5
	pushl	%ebx
	subl	$52, %esp
	.cfi_offset 3, -12
	.loc 5 368 36
	movl	24(%ebp), %eax
	leal	0(,%eax,4), %edx
	.loc 5 368 22
	movl	8(%ebp), %eax
	addl	%edx, %eax
	movl	%eax, -8(%ebp)
	.loc 5 369 22
	movl	16(%ebp), %eax
	movl	%eax, -12(%ebp)
	.loc 5 370 17
	movl	20(%ebp), %eax
	movl	%eax, -24(%ebp)
	.loc 5 371 21
	movl	$0, -28(%ebp)
	.loc 5 372 10
	movb	$0, -13(%ebp)
	.loc 5 374 17
	movl	-24(%ebp), %eax
	shrl	$5, %eax
	movl	%eax, -20(%ebp)
	.loc 5 375 11
	jmp	L102
L103:
	.loc 5 377 13
	movsbl	-13(%ebp), %eax
	movl	-8(%ebp), %edx
	movl	%edx, 16(%esp)
	movl	28(%ebp), %edx
	movl	%edx, 12(%esp)
	movl	-12(%ebp), %edx
	movl	%edx, 8(%esp)
	leal	-28(%ebp), %edx
	movl	%edx, 4(%esp)
	movl	%eax, (%esp)
	call	__MULTIPLY_DIGIT_UNIT_DIV
	movb	%al, -13(%ebp)
	.loc 5 378 13
	movl	-8(%ebp), %eax
	leal	4(%eax), %edx
	movl	-12(%ebp), %eax
	leal	4(%eax), %ecx
	movsbl	-13(%ebp), %eax
	movl	%edx, 16(%esp)
	movl	28(%ebp), %edx
	movl	%edx, 12(%esp)
	movl	%ecx, 8(%esp)
	leal	-28(%ebp), %edx
	movl	%edx, 4(%esp)
	movl	%eax, (%esp)
	call	__MULTIPLY_DIGIT_UNIT_DIV
	movb	%al, -13(%ebp)
	.loc 5 379 13
	movl	-8(%ebp), %eax
	leal	8(%eax), %edx
	movl	-12(%ebp), %eax
	leal	8(%eax), %ecx
	movsbl	-13(%ebp), %eax
	movl	%edx, 16(%esp)
	movl	28(%ebp), %edx
	movl	%edx, 12(%esp)
	movl	%ecx, 8(%esp)
	leal	-28(%ebp), %edx
	movl	%edx, 4(%esp)
	movl	%eax, (%esp)
	call	__MULTIPLY_DIGIT_UNIT_DIV
	movb	%al, -13(%ebp)
	.loc 5 380 13
	movl	-8(%ebp), %eax
	leal	12(%eax), %edx
	movl	-12(%ebp), %eax
	leal	12(%eax), %ecx
	movsbl	-13(%ebp), %eax
	movl	%edx, 16(%esp)
	movl	28(%ebp), %edx
	movl	%edx, 12(%esp)
	movl	%ecx, 8(%esp)
	leal	-28(%ebp), %edx
	movl	%edx, 4(%esp)
	movl	%eax, (%esp)
	call	__MULTIPLY_DIGIT_UNIT_DIV
	movb	%al, -13(%ebp)
	.loc 5 381 13
	movl	-8(%ebp), %eax
	leal	16(%eax), %edx
	movl	-12(%ebp), %eax
	leal	16(%eax), %ecx
	movsbl	-13(%ebp), %eax
	movl	%edx, 16(%esp)
	movl	28(%ebp), %edx
	movl	%edx, 12(%esp)
	movl	%ecx, 8(%esp)
	leal	-28(%ebp), %edx
	movl	%edx, 4(%esp)
	movl	%eax, (%esp)
	call	__MULTIPLY_DIGIT_UNIT_DIV
	movb	%al, -13(%ebp)
	.loc 5 382 13
	movl	-8(%ebp), %eax
	leal	20(%eax), %edx
	movl	-12(%ebp), %eax
	leal	20(%eax), %ecx
	movsbl	-13(%ebp), %eax
	movl	%edx, 16(%esp)
	movl	28(%ebp), %edx
	movl	%edx, 12(%esp)
	movl	%ecx, 8(%esp)
	leal	-28(%ebp), %edx
	movl	%edx, 4(%esp)
	movl	%eax, (%esp)
	call	__MULTIPLY_DIGIT_UNIT_DIV
	movb	%al, -13(%ebp)
	.loc 5 383 13
	movl	-8(%ebp), %eax
	leal	24(%eax), %edx
	movl	-12(%ebp), %eax
	leal	24(%eax), %ecx
	movsbl	-13(%ebp), %eax
	movl	%edx, 16(%esp)
	movl	28(%ebp), %edx
	movl	%edx, 12(%esp)
	movl	%ecx, 8(%esp)
	leal	-28(%ebp), %edx
	movl	%edx, 4(%esp)
	movl	%eax, (%esp)
	call	__MULTIPLY_DIGIT_UNIT_DIV
	movb	%al, -13(%ebp)
	.loc 5 384 13
	movl	-8(%ebp), %eax
	leal	28(%eax), %edx
	movl	-12(%ebp), %eax
	leal	28(%eax), %ecx
	movsbl	-13(%ebp), %eax
	movl	%edx, 16(%esp)
	movl	28(%ebp), %edx
	movl	%edx, 12(%esp)
	movl	%ecx, 8(%esp)
	leal	-28(%ebp), %edx
	movl	%edx, 4(%esp)
	movl	%eax, (%esp)
	call	__MULTIPLY_DIGIT_UNIT_DIV
	movb	%al, -13(%ebp)
	.loc 5 385 13
	movl	-8(%ebp), %eax
	leal	32(%eax), %edx
	movl	-12(%ebp), %eax
	leal	32(%eax), %ecx
	movsbl	-13(%ebp), %eax
	movl	%edx, 16(%esp)
	movl	28(%ebp), %edx
	movl	%edx, 12(%esp)
	movl	%ecx, 8(%esp)
	leal	-28(%ebp), %edx
	movl	%edx, 4(%esp)
	movl	%eax, (%esp)
	call	__MULTIPLY_DIGIT_UNIT_DIV
	movb	%al, -13(%ebp)
	.loc 5 386 13
	movl	-8(%ebp), %eax
	leal	36(%eax), %edx
	movl	-12(%ebp), %eax
	leal	36(%eax), %ecx
	movsbl	-13(%ebp), %eax
	movl	%edx, 16(%esp)
	movl	28(%ebp), %edx
	movl	%edx, 12(%esp)
	movl	%ecx, 8(%esp)
	leal	-28(%ebp), %edx
	movl	%edx, 4(%esp)
	movl	%eax, (%esp)
	call	__MULTIPLY_DIGIT_UNIT_DIV
	movb	%al, -13(%ebp)
	.loc 5 387 13
	movl	-8(%ebp), %eax
	leal	40(%eax), %edx
	movl	-12(%ebp), %eax
	leal	40(%eax), %ecx
	movsbl	-13(%ebp), %eax
	movl	%edx, 16(%esp)
	movl	28(%ebp), %edx
	movl	%edx, 12(%esp)
	movl	%ecx, 8(%esp)
	leal	-28(%ebp), %edx
	movl	%edx, 4(%esp)
	movl	%eax, (%esp)
	call	__MULTIPLY_DIGIT_UNIT_DIV
	movb	%al, -13(%ebp)
	.loc 5 388 13
	movl	-8(%ebp), %eax
	leal	44(%eax), %edx
	movl	-12(%ebp), %eax
	leal	44(%eax), %ecx
	movsbl	-13(%ebp), %eax
	movl	%edx, 16(%esp)
	movl	28(%ebp), %edx
	movl	%edx, 12(%esp)
	movl	%ecx, 8(%esp)
	leal	-28(%ebp), %edx
	movl	%edx, 4(%esp)
	movl	%eax, (%esp)
	call	__MULTIPLY_DIGIT_UNIT_DIV
	movb	%al, -13(%ebp)
	.loc 5 389 13
	movl	-8(%ebp), %eax
	leal	48(%eax), %edx
	movl	-12(%ebp), %eax
	leal	48(%eax), %ecx
	movsbl	-13(%ebp), %eax
	movl	%edx, 16(%esp)
	movl	28(%ebp), %edx
	movl	%edx, 12(%esp)
	movl	%ecx, 8(%esp)
	leal	-28(%ebp), %edx
	movl	%edx, 4(%esp)
	movl	%eax, (%esp)
	call	__MULTIPLY_DIGIT_UNIT_DIV
	movb	%al, -13(%ebp)
	.loc 5 390 13
	movl	-8(%ebp), %eax
	leal	52(%eax), %edx
	movl	-12(%ebp), %eax
	leal	52(%eax), %ecx
	movsbl	-13(%ebp), %eax
	movl	%edx, 16(%esp)
	movl	28(%ebp), %edx
	movl	%edx, 12(%esp)
	movl	%ecx, 8(%esp)
	leal	-28(%ebp), %edx
	movl	%edx, 4(%esp)
	movl	%eax, (%esp)
	call	__MULTIPLY_DIGIT_UNIT_DIV
	movb	%al, -13(%ebp)
	.loc 5 391 13
	movl	-8(%ebp), %eax
	leal	56(%eax), %edx
	movl	-12(%ebp), %eax
	leal	56(%eax), %ecx
	movsbl	-13(%ebp), %eax
	movl	%edx, 16(%esp)
	movl	28(%ebp), %edx
	movl	%edx, 12(%esp)
	movl	%ecx, 8(%esp)
	leal	-28(%ebp), %edx
	movl	%edx, 4(%esp)
	movl	%eax, (%esp)
	call	__MULTIPLY_DIGIT_UNIT_DIV
	movb	%al, -13(%ebp)
	.loc 5 392 13
	movl	-8(%ebp), %eax
	leal	60(%eax), %edx
	movl	-12(%ebp), %eax
	leal	60(%eax), %ecx
	movsbl	-13(%ebp), %eax
	movl	%edx, 16(%esp)
	movl	28(%ebp), %edx
	movl	%edx, 12(%esp)
	movl	%ecx, 8(%esp)
	leal	-28(%ebp), %edx
	movl	%edx, 4(%esp)
	movl	%eax, (%esp)
	call	__MULTIPLY_DIGIT_UNIT_DIV
	movb	%al, -13(%ebp)
	.loc 5 393 13
	movl	-8(%ebp), %eax
	leal	64(%eax), %edx
	movl	-12(%ebp), %eax
	leal	64(%eax), %ecx
	movsbl	-13(%ebp), %eax
	movl	%edx, 16(%esp)
	movl	28(%ebp), %edx
	movl	%edx, 12(%esp)
	movl	%ecx, 8(%esp)
	leal	-28(%ebp), %edx
	movl	%edx, 4(%esp)
	movl	%eax, (%esp)
	call	__MULTIPLY_DIGIT_UNIT_DIV
	movb	%al, -13(%ebp)
	.loc 5 394 13
	movl	-8(%ebp), %eax
	leal	68(%eax), %edx
	movl	-12(%ebp), %eax
	leal	68(%eax), %ecx
	movsbl	-13(%ebp), %eax
	movl	%edx, 16(%esp)
	movl	28(%ebp), %edx
	movl	%edx, 12(%esp)
	movl	%ecx, 8(%esp)
	leal	-28(%ebp), %edx
	movl	%edx, 4(%esp)
	movl	%eax, (%esp)
	call	__MULTIPLY_DIGIT_UNIT_DIV
	movb	%al, -13(%ebp)
	.loc 5 395 13
	movl	-8(%ebp), %eax
	leal	72(%eax), %edx
	movl	-12(%ebp), %eax
	leal	72(%eax), %ecx
	movsbl	-13(%ebp), %eax
	movl	%edx, 16(%esp)
	movl	28(%ebp), %edx
	movl	%edx, 12(%esp)
	movl	%ecx, 8(%esp)
	leal	-28(%ebp), %edx
	movl	%edx, 4(%esp)
	movl	%eax, (%esp)
	call	__MULTIPLY_DIGIT_UNIT_DIV
	movb	%al, -13(%ebp)
	.loc 5 396 13
	movl	-8(%ebp), %eax
	leal	76(%eax), %edx
	movl	-12(%ebp), %eax
	leal	76(%eax), %ecx
	movsbl	-13(%ebp), %eax
	movl	%edx, 16(%esp)
	movl	28(%ebp), %edx
	movl	%edx, 12(%esp)
	movl	%ecx, 8(%esp)
	leal	-28(%ebp), %edx
	movl	%edx, 4(%esp)
	movl	%eax, (%esp)
	call	__MULTIPLY_DIGIT_UNIT_DIV
	movb	%al, -13(%ebp)
	.loc 5 397 13
	movl	-8(%ebp), %eax
	leal	80(%eax), %edx
	movl	-12(%ebp), %eax
	leal	80(%eax), %ecx
	movsbl	-13(%ebp), %eax
	movl	%edx, 16(%esp)
	movl	28(%ebp), %edx
	movl	%edx, 12(%esp)
	movl	%ecx, 8(%esp)
	leal	-28(%ebp), %edx
	movl	%edx, 4(%esp)
	movl	%eax, (%esp)
	call	__MULTIPLY_DIGIT_UNIT_DIV
	movb	%al, -13(%ebp)
	.loc 5 398 13
	movl	-8(%ebp), %eax
	leal	84(%eax), %edx
	movl	-12(%ebp), %eax
	leal	84(%eax), %ecx
	movsbl	-13(%ebp), %eax
	movl	%edx, 16(%esp)
	movl	28(%ebp), %edx
	movl	%edx, 12(%esp)
	movl	%ecx, 8(%esp)
	leal	-28(%ebp), %edx
	movl	%edx, 4(%esp)
	movl	%eax, (%esp)
	call	__MULTIPLY_DIGIT_UNIT_DIV
	movb	%al, -13(%ebp)
	.loc 5 399 13
	movl	-8(%ebp), %eax
	leal	88(%eax), %edx
	movl	-12(%ebp), %eax
	leal	88(%eax), %ecx
	movsbl	-13(%ebp), %eax
	movl	%edx, 16(%esp)
	movl	28(%ebp), %edx
	movl	%edx, 12(%esp)
	movl	%ecx, 8(%esp)
	leal	-28(%ebp), %edx
	movl	%edx, 4(%esp)
	movl	%eax, (%esp)
	call	__MULTIPLY_DIGIT_UNIT_DIV
	movb	%al, -13(%ebp)
	.loc 5 400 13
	movl	-8(%ebp), %eax
	leal	92(%eax), %edx
	movl	-12(%ebp), %eax
	leal	92(%eax), %ecx
	movsbl	-13(%ebp), %eax
	movl	%edx, 16(%esp)
	movl	28(%ebp), %edx
	movl	%edx, 12(%esp)
	movl	%ecx, 8(%esp)
	leal	-28(%ebp), %edx
	movl	%edx, 4(%esp)
	movl	%eax, (%esp)
	call	__MULTIPLY_DIGIT_UNIT_DIV
	movb	%al, -13(%ebp)
	.loc 5 401 13
	movl	-8(%ebp), %eax
	leal	96(%eax), %edx
	movl	-12(%ebp), %eax
	leal	96(%eax), %ecx
	movsbl	-13(%ebp), %eax
	movl	%edx, 16(%esp)
	movl	28(%ebp), %edx
	movl	%edx, 12(%esp)
	movl	%ecx, 8(%esp)
	leal	-28(%ebp), %edx
	movl	%edx, 4(%esp)
	movl	%eax, (%esp)
	call	__MULTIPLY_DIGIT_UNIT_DIV
	movb	%al, -13(%ebp)
	.loc 5 402 13
	movl	-8(%ebp), %eax
	leal	100(%eax), %edx
	movl	-12(%ebp), %eax
	leal	100(%eax), %ecx
	movsbl	-13(%ebp), %eax
	movl	%edx, 16(%esp)
	movl	28(%ebp), %edx
	movl	%edx, 12(%esp)
	movl	%ecx, 8(%esp)
	leal	-28(%ebp), %edx
	movl	%edx, 4(%esp)
	movl	%eax, (%esp)
	call	__MULTIPLY_DIGIT_UNIT_DIV
	movb	%al, -13(%ebp)
	.loc 5 403 13
	movl	-8(%ebp), %eax
	leal	104(%eax), %edx
	movl	-12(%ebp), %eax
	leal	104(%eax), %ecx
	movsbl	-13(%ebp), %eax
	movl	%edx, 16(%esp)
	movl	28(%ebp), %edx
	movl	%edx, 12(%esp)
	movl	%ecx, 8(%esp)
	leal	-28(%ebp), %edx
	movl	%edx, 4(%esp)
	movl	%eax, (%esp)
	call	__MULTIPLY_DIGIT_UNIT_DIV
	movb	%al, -13(%ebp)
	.loc 5 404 13
	movl	-8(%ebp), %eax
	leal	108(%eax), %edx
	movl	-12(%ebp), %eax
	leal	108(%eax), %ecx
	movsbl	-13(%ebp), %eax
	movl	%edx, 16(%esp)
	movl	28(%ebp), %edx
	movl	%edx, 12(%esp)
	movl	%ecx, 8(%esp)
	leal	-28(%ebp), %edx
	movl	%edx, 4(%esp)
	movl	%eax, (%esp)
	call	__MULTIPLY_DIGIT_UNIT_DIV
	movb	%al, -13(%ebp)
	.loc 5 405 13
	movl	-8(%ebp), %eax
	leal	112(%eax), %edx
	movl	-12(%ebp), %eax
	leal	112(%eax), %ecx
	movsbl	-13(%ebp), %eax
	movl	%edx, 16(%esp)
	movl	28(%ebp), %edx
	movl	%edx, 12(%esp)
	movl	%ecx, 8(%esp)
	leal	-28(%ebp), %edx
	movl	%edx, 4(%esp)
	movl	%eax, (%esp)
	call	__MULTIPLY_DIGIT_UNIT_DIV
	movb	%al, -13(%ebp)
	.loc 5 406 13
	movl	-8(%ebp), %eax
	leal	116(%eax), %edx
	movl	-12(%ebp), %eax
	leal	116(%eax), %ecx
	movsbl	-13(%ebp), %eax
	movl	%edx, 16(%esp)
	movl	28(%ebp), %edx
	movl	%edx, 12(%esp)
	movl	%ecx, 8(%esp)
	leal	-28(%ebp), %edx
	movl	%edx, 4(%esp)
	movl	%eax, (%esp)
	call	__MULTIPLY_DIGIT_UNIT_DIV
	movb	%al, -13(%ebp)
	.loc 5 407 13
	movl	-8(%ebp), %eax
	leal	120(%eax), %edx
	movl	-12(%ebp), %eax
	leal	120(%eax), %ecx
	movsbl	-13(%ebp), %eax
	movl	%edx, 16(%esp)
	movl	28(%ebp), %edx
	movl	%edx, 12(%esp)
	movl	%ecx, 8(%esp)
	leal	-28(%ebp), %edx
	movl	%edx, 4(%esp)
	movl	%eax, (%esp)
	call	__MULTIPLY_DIGIT_UNIT_DIV
	movb	%al, -13(%ebp)
	.loc 5 408 13
	movl	-8(%ebp), %eax
	leal	124(%eax), %edx
	movl	-12(%ebp), %eax
	leal	124(%eax), %ecx
	movsbl	-13(%ebp), %eax
	movl	%edx, 16(%esp)
	movl	28(%ebp), %edx
	movl	%edx, 12(%esp)
	movl	%ecx, 8(%esp)
	leal	-28(%ebp), %edx
	movl	%edx, 4(%esp)
	movl	%eax, (%esp)
	call	__MULTIPLY_DIGIT_UNIT_DIV
	movb	%al, -13(%ebp)
	.loc 5 409 15
	subl	$-128, -8(%ebp)
	.loc 5 410 15
	subl	$-128, -12(%ebp)
	.loc 5 411 9
	subl	$1, -20(%ebp)
	.loc 5 416 13
	movl	$32, (%esp)
	call	_AddToMULTI32Counter
L102:
	.loc 5 375 11
	cmpl	$0, -20(%ebp)
	jne	L103
	.loc 5 420 17
	movl	-24(%ebp), %eax
	andl	$16, %eax
	.loc 5 420 8
	testl	%eax, %eax
	je	L104
	.loc 5 422 13
	movsbl	-13(%ebp), %eax
	movl	-8(%ebp), %edx
	movl	%edx, 16(%esp)
	movl	28(%ebp), %edx
	movl	%edx, 12(%esp)
	movl	-12(%ebp), %edx
	movl	%edx, 8(%esp)
	leal	-28(%ebp), %edx
	movl	%edx, 4(%esp)
	movl	%eax, (%esp)
	call	__MULTIPLY_DIGIT_UNIT_DIV
	movb	%al, -13(%ebp)
	.loc 5 423 13
	movl	-8(%ebp), %eax
	leal	4(%eax), %edx
	movl	-12(%ebp), %eax
	leal	4(%eax), %ecx
	movsbl	-13(%ebp), %eax
	movl	%edx, 16(%esp)
	movl	28(%ebp), %edx
	movl	%edx, 12(%esp)
	movl	%ecx, 8(%esp)
	leal	-28(%ebp), %edx
	movl	%edx, 4(%esp)
	movl	%eax, (%esp)
	call	__MULTIPLY_DIGIT_UNIT_DIV
	movb	%al, -13(%ebp)
	.loc 5 424 13
	movl	-8(%ebp), %eax
	leal	8(%eax), %edx
	movl	-12(%ebp), %eax
	leal	8(%eax), %ecx
	movsbl	-13(%ebp), %eax
	movl	%edx, 16(%esp)
	movl	28(%ebp), %edx
	movl	%edx, 12(%esp)
	movl	%ecx, 8(%esp)
	leal	-28(%ebp), %edx
	movl	%edx, 4(%esp)
	movl	%eax, (%esp)
	call	__MULTIPLY_DIGIT_UNIT_DIV
	movb	%al, -13(%ebp)
	.loc 5 425 13
	movl	-8(%ebp), %eax
	leal	12(%eax), %edx
	movl	-12(%ebp), %eax
	leal	12(%eax), %ecx
	movsbl	-13(%ebp), %eax
	movl	%edx, 16(%esp)
	movl	28(%ebp), %edx
	movl	%edx, 12(%esp)
	movl	%ecx, 8(%esp)
	leal	-28(%ebp), %edx
	movl	%edx, 4(%esp)
	movl	%eax, (%esp)
	call	__MULTIPLY_DIGIT_UNIT_DIV
	movb	%al, -13(%ebp)
	.loc 5 426 13
	movl	-8(%ebp), %eax
	leal	16(%eax), %edx
	movl	-12(%ebp), %eax
	leal	16(%eax), %ecx
	movsbl	-13(%ebp), %eax
	movl	%edx, 16(%esp)
	movl	28(%ebp), %edx
	movl	%edx, 12(%esp)
	movl	%ecx, 8(%esp)
	leal	-28(%ebp), %edx
	movl	%edx, 4(%esp)
	movl	%eax, (%esp)
	call	__MULTIPLY_DIGIT_UNIT_DIV
	movb	%al, -13(%ebp)
	.loc 5 427 13
	movl	-8(%ebp), %eax
	leal	20(%eax), %edx
	movl	-12(%ebp), %eax
	leal	20(%eax), %ecx
	movsbl	-13(%ebp), %eax
	movl	%edx, 16(%esp)
	movl	28(%ebp), %edx
	movl	%edx, 12(%esp)
	movl	%ecx, 8(%esp)
	leal	-28(%ebp), %edx
	movl	%edx, 4(%esp)
	movl	%eax, (%esp)
	call	__MULTIPLY_DIGIT_UNIT_DIV
	movb	%al, -13(%ebp)
	.loc 5 428 13
	movl	-8(%ebp), %eax
	leal	24(%eax), %edx
	movl	-12(%ebp), %eax
	leal	24(%eax), %ecx
	movsbl	-13(%ebp), %eax
	movl	%edx, 16(%esp)
	movl	28(%ebp), %edx
	movl	%edx, 12(%esp)
	movl	%ecx, 8(%esp)
	leal	-28(%ebp), %edx
	movl	%edx, 4(%esp)
	movl	%eax, (%esp)
	call	__MULTIPLY_DIGIT_UNIT_DIV
	movb	%al, -13(%ebp)
	.loc 5 429 13
	movl	-8(%ebp), %eax
	leal	28(%eax), %edx
	movl	-12(%ebp), %eax
	leal	28(%eax), %ecx
	movsbl	-13(%ebp), %eax
	movl	%edx, 16(%esp)
	movl	28(%ebp), %edx
	movl	%edx, 12(%esp)
	movl	%ecx, 8(%esp)
	leal	-28(%ebp), %edx
	movl	%edx, 4(%esp)
	movl	%eax, (%esp)
	call	__MULTIPLY_DIGIT_UNIT_DIV
	movb	%al, -13(%ebp)
	.loc 5 430 13
	movl	-8(%ebp), %eax
	leal	32(%eax), %edx
	movl	-12(%ebp), %eax
	leal	32(%eax), %ecx
	movsbl	-13(%ebp), %eax
	movl	%edx, 16(%esp)
	movl	28(%ebp), %edx
	movl	%edx, 12(%esp)
	movl	%ecx, 8(%esp)
	leal	-28(%ebp), %edx
	movl	%edx, 4(%esp)
	movl	%eax, (%esp)
	call	__MULTIPLY_DIGIT_UNIT_DIV
	movb	%al, -13(%ebp)
	.loc 5 431 13
	movl	-8(%ebp), %eax
	leal	36(%eax), %edx
	movl	-12(%ebp), %eax
	leal	36(%eax), %ecx
	movsbl	-13(%ebp), %eax
	movl	%edx, 16(%esp)
	movl	28(%ebp), %edx
	movl	%edx, 12(%esp)
	movl	%ecx, 8(%esp)
	leal	-28(%ebp), %edx
	movl	%edx, 4(%esp)
	movl	%eax, (%esp)
	call	__MULTIPLY_DIGIT_UNIT_DIV
	movb	%al, -13(%ebp)
	.loc 5 432 13
	movl	-8(%ebp), %eax
	leal	40(%eax), %edx
	movl	-12(%ebp), %eax
	leal	40(%eax), %ecx
	movsbl	-13(%ebp), %eax
	movl	%edx, 16(%esp)
	movl	28(%ebp), %edx
	movl	%edx, 12(%esp)
	movl	%ecx, 8(%esp)
	leal	-28(%ebp), %edx
	movl	%edx, 4(%esp)
	movl	%eax, (%esp)
	call	__MULTIPLY_DIGIT_UNIT_DIV
	movb	%al, -13(%ebp)
	.loc 5 433 13
	movl	-8(%ebp), %eax
	leal	44(%eax), %edx
	movl	-12(%ebp), %eax
	leal	44(%eax), %ecx
	movsbl	-13(%ebp), %eax
	movl	%edx, 16(%esp)
	movl	28(%ebp), %edx
	movl	%edx, 12(%esp)
	movl	%ecx, 8(%esp)
	leal	-28(%ebp), %edx
	movl	%edx, 4(%esp)
	movl	%eax, (%esp)
	call	__MULTIPLY_DIGIT_UNIT_DIV
	movb	%al, -13(%ebp)
	.loc 5 434 13
	movl	-8(%ebp), %eax
	leal	48(%eax), %edx
	movl	-12(%ebp), %eax
	leal	48(%eax), %ecx
	movsbl	-13(%ebp), %eax
	movl	%edx, 16(%esp)
	movl	28(%ebp), %edx
	movl	%edx, 12(%esp)
	movl	%ecx, 8(%esp)
	leal	-28(%ebp), %edx
	movl	%edx, 4(%esp)
	movl	%eax, (%esp)
	call	__MULTIPLY_DIGIT_UNIT_DIV
	movb	%al, -13(%ebp)
	.loc 5 435 13
	movl	-8(%ebp), %eax
	leal	52(%eax), %edx
	movl	-12(%ebp), %eax
	leal	52(%eax), %ecx
	movsbl	-13(%ebp), %eax
	movl	%edx, 16(%esp)
	movl	28(%ebp), %edx
	movl	%edx, 12(%esp)
	movl	%ecx, 8(%esp)
	leal	-28(%ebp), %edx
	movl	%edx, 4(%esp)
	movl	%eax, (%esp)
	call	__MULTIPLY_DIGIT_UNIT_DIV
	movb	%al, -13(%ebp)
	.loc 5 436 13
	movl	-8(%ebp), %eax
	leal	56(%eax), %edx
	movl	-12(%ebp), %eax
	leal	56(%eax), %ecx
	movsbl	-13(%ebp), %eax
	movl	%edx, 16(%esp)
	movl	28(%ebp), %edx
	movl	%edx, 12(%esp)
	movl	%ecx, 8(%esp)
	leal	-28(%ebp), %edx
	movl	%edx, 4(%esp)
	movl	%eax, (%esp)
	call	__MULTIPLY_DIGIT_UNIT_DIV
	movb	%al, -13(%ebp)
	.loc 5 437 13
	movl	-8(%ebp), %eax
	leal	60(%eax), %edx
	movl	-12(%ebp), %eax
	leal	60(%eax), %ecx
	movsbl	-13(%ebp), %eax
	movl	%edx, 16(%esp)
	movl	28(%ebp), %edx
	movl	%edx, 12(%esp)
	movl	%ecx, 8(%esp)
	leal	-28(%ebp), %edx
	movl	%edx, 4(%esp)
	movl	%eax, (%esp)
	call	__MULTIPLY_DIGIT_UNIT_DIV
	movb	%al, -13(%ebp)
	.loc 5 438 15
	addl	$64, -8(%ebp)
	.loc 5 439 15
	addl	$64, -12(%ebp)
	.loc 5 444 13
	movl	$16, (%esp)
	call	_AddToMULTI32Counter
L104:
	.loc 5 448 17
	movl	-24(%ebp), %eax
	andl	$8, %eax
	.loc 5 448 8
	testl	%eax, %eax
	je	L105
	.loc 5 450 13
	movsbl	-13(%ebp), %eax
	movl	-8(%ebp), %edx
	movl	%edx, 16(%esp)
	movl	28(%ebp), %edx
	movl	%edx, 12(%esp)
	movl	-12(%ebp), %edx
	movl	%edx, 8(%esp)
	leal	-28(%ebp), %edx
	movl	%edx, 4(%esp)
	movl	%eax, (%esp)
	call	__MULTIPLY_DIGIT_UNIT_DIV
	movb	%al, -13(%ebp)
	.loc 5 451 13
	movl	-8(%ebp), %eax
	leal	4(%eax), %edx
	movl	-12(%ebp), %eax
	leal	4(%eax), %ecx
	movsbl	-13(%ebp), %eax
	movl	%edx, 16(%esp)
	movl	28(%ebp), %edx
	movl	%edx, 12(%esp)
	movl	%ecx, 8(%esp)
	leal	-28(%ebp), %edx
	movl	%edx, 4(%esp)
	movl	%eax, (%esp)
	call	__MULTIPLY_DIGIT_UNIT_DIV
	movb	%al, -13(%ebp)
	.loc 5 452 13
	movl	-8(%ebp), %eax
	leal	8(%eax), %edx
	movl	-12(%ebp), %eax
	leal	8(%eax), %ecx
	movsbl	-13(%ebp), %eax
	movl	%edx, 16(%esp)
	movl	28(%ebp), %edx
	movl	%edx, 12(%esp)
	movl	%ecx, 8(%esp)
	leal	-28(%ebp), %edx
	movl	%edx, 4(%esp)
	movl	%eax, (%esp)
	call	__MULTIPLY_DIGIT_UNIT_DIV
	movb	%al, -13(%ebp)
	.loc 5 453 13
	movl	-8(%ebp), %eax
	leal	12(%eax), %edx
	movl	-12(%ebp), %eax
	leal	12(%eax), %ecx
	movsbl	-13(%ebp), %eax
	movl	%edx, 16(%esp)
	movl	28(%ebp), %edx
	movl	%edx, 12(%esp)
	movl	%ecx, 8(%esp)
	leal	-28(%ebp), %edx
	movl	%edx, 4(%esp)
	movl	%eax, (%esp)
	call	__MULTIPLY_DIGIT_UNIT_DIV
	movb	%al, -13(%ebp)
	.loc 5 454 13
	movl	-8(%ebp), %eax
	leal	16(%eax), %edx
	movl	-12(%ebp), %eax
	leal	16(%eax), %ecx
	movsbl	-13(%ebp), %eax
	movl	%edx, 16(%esp)
	movl	28(%ebp), %edx
	movl	%edx, 12(%esp)
	movl	%ecx, 8(%esp)
	leal	-28(%ebp), %edx
	movl	%edx, 4(%esp)
	movl	%eax, (%esp)
	call	__MULTIPLY_DIGIT_UNIT_DIV
	movb	%al, -13(%ebp)
	.loc 5 455 13
	movl	-8(%ebp), %eax
	leal	20(%eax), %edx
	movl	-12(%ebp), %eax
	leal	20(%eax), %ecx
	movsbl	-13(%ebp), %eax
	movl	%edx, 16(%esp)
	movl	28(%ebp), %edx
	movl	%edx, 12(%esp)
	movl	%ecx, 8(%esp)
	leal	-28(%ebp), %edx
	movl	%edx, 4(%esp)
	movl	%eax, (%esp)
	call	__MULTIPLY_DIGIT_UNIT_DIV
	movb	%al, -13(%ebp)
	.loc 5 456 13
	movl	-8(%ebp), %eax
	leal	24(%eax), %edx
	movl	-12(%ebp), %eax
	leal	24(%eax), %ecx
	movsbl	-13(%ebp), %eax
	movl	%edx, 16(%esp)
	movl	28(%ebp), %edx
	movl	%edx, 12(%esp)
	movl	%ecx, 8(%esp)
	leal	-28(%ebp), %edx
	movl	%edx, 4(%esp)
	movl	%eax, (%esp)
	call	__MULTIPLY_DIGIT_UNIT_DIV
	movb	%al, -13(%ebp)
	.loc 5 457 13
	movl	-8(%ebp), %eax
	leal	28(%eax), %edx
	movl	-12(%ebp), %eax
	leal	28(%eax), %ecx
	movsbl	-13(%ebp), %eax
	movl	%edx, 16(%esp)
	movl	28(%ebp), %edx
	movl	%edx, 12(%esp)
	movl	%ecx, 8(%esp)
	leal	-28(%ebp), %edx
	movl	%edx, 4(%esp)
	movl	%eax, (%esp)
	call	__MULTIPLY_DIGIT_UNIT_DIV
	movb	%al, -13(%ebp)
	.loc 5 458 15
	addl	$32, -8(%ebp)
	.loc 5 459 15
	addl	$32, -12(%ebp)
	.loc 5 464 13
	movl	$8, (%esp)
	call	_AddToMULTI32Counter
L105:
	.loc 5 468 17
	movl	-24(%ebp), %eax
	andl	$4, %eax
	.loc 5 468 8
	testl	%eax, %eax
	je	L106
	.loc 5 470 13
	movsbl	-13(%ebp), %eax
	movl	-8(%ebp), %edx
	movl	%edx, 16(%esp)
	movl	28(%ebp), %edx
	movl	%edx, 12(%esp)
	movl	-12(%ebp), %edx
	movl	%edx, 8(%esp)
	leal	-28(%ebp), %edx
	movl	%edx, 4(%esp)
	movl	%eax, (%esp)
	call	__MULTIPLY_DIGIT_UNIT_DIV
	movb	%al, -13(%ebp)
	.loc 5 471 13
	movl	-8(%ebp), %eax
	leal	4(%eax), %edx
	movl	-12(%ebp), %eax
	leal	4(%eax), %ecx
	movsbl	-13(%ebp), %eax
	movl	%edx, 16(%esp)
	movl	28(%ebp), %edx
	movl	%edx, 12(%esp)
	movl	%ecx, 8(%esp)
	leal	-28(%ebp), %edx
	movl	%edx, 4(%esp)
	movl	%eax, (%esp)
	call	__MULTIPLY_DIGIT_UNIT_DIV
	movb	%al, -13(%ebp)
	.loc 5 472 13
	movl	-8(%ebp), %eax
	leal	8(%eax), %edx
	movl	-12(%ebp), %eax
	leal	8(%eax), %ecx
	movsbl	-13(%ebp), %eax
	movl	%edx, 16(%esp)
	movl	28(%ebp), %edx
	movl	%edx, 12(%esp)
	movl	%ecx, 8(%esp)
	leal	-28(%ebp), %edx
	movl	%edx, 4(%esp)
	movl	%eax, (%esp)
	call	__MULTIPLY_DIGIT_UNIT_DIV
	movb	%al, -13(%ebp)
	.loc 5 473 13
	movl	-8(%ebp), %eax
	leal	12(%eax), %edx
	movl	-12(%ebp), %eax
	leal	12(%eax), %ecx
	movsbl	-13(%ebp), %eax
	movl	%edx, 16(%esp)
	movl	28(%ebp), %edx
	movl	%edx, 12(%esp)
	movl	%ecx, 8(%esp)
	leal	-28(%ebp), %edx
	movl	%edx, 4(%esp)
	movl	%eax, (%esp)
	call	__MULTIPLY_DIGIT_UNIT_DIV
	movb	%al, -13(%ebp)
	.loc 5 474 15
	addl	$16, -8(%ebp)
	.loc 5 475 15
	addl	$16, -12(%ebp)
	.loc 5 480 13
	movl	$4, (%esp)
	call	_AddToMULTI32Counter
L106:
	.loc 5 484 17
	movl	-24(%ebp), %eax
	andl	$2, %eax
	.loc 5 484 8
	testl	%eax, %eax
	je	L107
	.loc 5 486 13
	movsbl	-13(%ebp), %eax
	movl	-8(%ebp), %edx
	movl	%edx, 16(%esp)
	movl	28(%ebp), %edx
	movl	%edx, 12(%esp)
	movl	-12(%ebp), %edx
	movl	%edx, 8(%esp)
	leal	-28(%ebp), %edx
	movl	%edx, 4(%esp)
	movl	%eax, (%esp)
	call	__MULTIPLY_DIGIT_UNIT_DIV
	movb	%al, -13(%ebp)
	.loc 5 487 13
	movl	-8(%ebp), %eax
	leal	4(%eax), %edx
	movl	-12(%ebp), %eax
	leal	4(%eax), %ecx
	movsbl	-13(%ebp), %eax
	movl	%edx, 16(%esp)
	movl	28(%ebp), %edx
	movl	%edx, 12(%esp)
	movl	%ecx, 8(%esp)
	leal	-28(%ebp), %edx
	movl	%edx, 4(%esp)
	movl	%eax, (%esp)
	call	__MULTIPLY_DIGIT_UNIT_DIV
	movb	%al, -13(%ebp)
	.loc 5 488 15
	addl	$8, -8(%ebp)
	.loc 5 489 15
	addl	$8, -12(%ebp)
	.loc 5 494 13
	movl	$2, (%esp)
	call	_AddToMULTI32Counter
L107:
	.loc 5 498 17
	movl	-24(%ebp), %eax
	andl	$1, %eax
	.loc 5 498 8
	testl	%eax, %eax
	je	L108
	.loc 5 500 13
	movsbl	-13(%ebp), %eax
	movl	-8(%ebp), %edx
	movl	%edx, 16(%esp)
	movl	28(%ebp), %edx
	movl	%edx, 12(%esp)
	movl	-12(%ebp), %edx
	movl	%edx, 8(%esp)
	leal	-28(%ebp), %edx
	movl	%edx, 4(%esp)
	movl	%eax, (%esp)
	call	__MULTIPLY_DIGIT_UNIT_DIV
	movb	%al, -13(%ebp)
	.loc 5 501 15
	addl	$4, -8(%ebp)
	.loc 5 502 15
	addl	$4, -12(%ebp)
	.loc 5 507 13
	call	_IncrementMULTI32Counter
L108:
	.loc 5 511 9
	movl	-28(%ebp), %ecx
	movl	-8(%ebp), %eax
	movl	(%eax), %edx
	movsbl	-13(%ebp), %eax
	movl	-8(%ebp), %ebx
	movl	%ebx, 12(%esp)
	movl	%ecx, 8(%esp)
	movl	%edx, 4(%esp)
	movl	%eax, (%esp)
	call	__SUBTRUCT_UNIT_DIV
	movb	%al, -13(%ebp)
	.loc 5 512 11
	addl	$4, -8(%ebp)
	.loc 5 514 53
	movl	12(%ebp), %eax
	addl	$1, %eax
	leal	0(,%eax,4), %edx
	movl	8(%ebp), %eax
	addl	%edx, %eax
	.loc 5 514 57
	subl	-8(%ebp), %eax
	sarl	$2, %eax
	.loc 5 514 13
	movl	%eax, %ecx
	movl	-28(%ebp), %edx
	movsbl	-13(%ebp), %eax
	movl	%ecx, 12(%esp)
	movl	-8(%ebp), %ecx
	movl	%ecx, 8(%esp)
	movl	%edx, 4(%esp)
	movl	%eax, (%esp)
	call	_DoBorrow
	.loc 5 515 1
	addl	$52, %esp
	popl	%ebx
	.cfi_restore 3
	popl	%ebp
	.cfi_restore 5
	.cfi_def_cfa 4, 4
	ret
	.cfi_endproc
LFE4286:
	.def	_SubtructOneLineX;	.scl	3;	.type	32;	.endef
_SubtructOneLineX:
LFB4287:
	.loc 5 518 1
	.cfi_startproc
	pushl	%ebp
	.cfi_def_cfa_offset 8
	.cfi_offset 5, -8
	movl	%esp, %ebp
	.cfi_def_cfa_register 5
	pushl	%ebx
	subl	$52, %esp
	.cfi_offset 3, -12
	.loc 5 519 36
	movl	24(%ebp), %eax
	leal	0(,%eax,4), %edx
	.loc 5 519 22
	movl	8(%ebp), %eax
	addl	%edx, %eax
	movl	%eax, -8(%ebp)
	.loc 5 520 22
	movl	16(%ebp), %eax
	movl	%eax, -12(%ebp)
	.loc 5 521 17
	movl	20(%ebp), %eax
	movl	%eax, -24(%ebp)
	.loc 5 522 21
	movl	$0, -28(%ebp)
	.loc 5 523 10
	movb	$0, -13(%ebp)
	.loc 5 525 17
	movl	-24(%ebp), %eax
	shrl	$5, %eax
	movl	%eax, -20(%ebp)
	.loc 5 526 11
	jmp	L111
L112:
	.loc 5 528 13
	movsbl	-13(%ebp), %eax
	movl	-8(%ebp), %edx
	movl	%edx, 16(%esp)
	movl	28(%ebp), %edx
	movl	%edx, 12(%esp)
	movl	-12(%ebp), %edx
	movl	%edx, 8(%esp)
	leal	-28(%ebp), %edx
	movl	%edx, 4(%esp)
	movl	%eax, (%esp)
	call	__MULTIPLYX_DIGIT_UNIT_DIV
	movb	%al, -13(%ebp)
	.loc 5 529 13
	movl	-8(%ebp), %eax
	leal	4(%eax), %edx
	movl	-12(%ebp), %eax
	leal	4(%eax), %ecx
	movsbl	-13(%ebp), %eax
	movl	%edx, 16(%esp)
	movl	28(%ebp), %edx
	movl	%edx, 12(%esp)
	movl	%ecx, 8(%esp)
	leal	-28(%ebp), %edx
	movl	%edx, 4(%esp)
	movl	%eax, (%esp)
	call	__MULTIPLYX_DIGIT_UNIT_DIV
	movb	%al, -13(%ebp)
	.loc 5 530 13
	movl	-8(%ebp), %eax
	leal	8(%eax), %edx
	movl	-12(%ebp), %eax
	leal	8(%eax), %ecx
	movsbl	-13(%ebp), %eax
	movl	%edx, 16(%esp)
	movl	28(%ebp), %edx
	movl	%edx, 12(%esp)
	movl	%ecx, 8(%esp)
	leal	-28(%ebp), %edx
	movl	%edx, 4(%esp)
	movl	%eax, (%esp)
	call	__MULTIPLYX_DIGIT_UNIT_DIV
	movb	%al, -13(%ebp)
	.loc 5 531 13
	movl	-8(%ebp), %eax
	leal	12(%eax), %edx
	movl	-12(%ebp), %eax
	leal	12(%eax), %ecx
	movsbl	-13(%ebp), %eax
	movl	%edx, 16(%esp)
	movl	28(%ebp), %edx
	movl	%edx, 12(%esp)
	movl	%ecx, 8(%esp)
	leal	-28(%ebp), %edx
	movl	%edx, 4(%esp)
	movl	%eax, (%esp)
	call	__MULTIPLYX_DIGIT_UNIT_DIV
	movb	%al, -13(%ebp)
	.loc 5 532 13
	movl	-8(%ebp), %eax
	leal	16(%eax), %edx
	movl	-12(%ebp), %eax
	leal	16(%eax), %ecx
	movsbl	-13(%ebp), %eax
	movl	%edx, 16(%esp)
	movl	28(%ebp), %edx
	movl	%edx, 12(%esp)
	movl	%ecx, 8(%esp)
	leal	-28(%ebp), %edx
	movl	%edx, 4(%esp)
	movl	%eax, (%esp)
	call	__MULTIPLYX_DIGIT_UNIT_DIV
	movb	%al, -13(%ebp)
	.loc 5 533 13
	movl	-8(%ebp), %eax
	leal	20(%eax), %edx
	movl	-12(%ebp), %eax
	leal	20(%eax), %ecx
	movsbl	-13(%ebp), %eax
	movl	%edx, 16(%esp)
	movl	28(%ebp), %edx
	movl	%edx, 12(%esp)
	movl	%ecx, 8(%esp)
	leal	-28(%ebp), %edx
	movl	%edx, 4(%esp)
	movl	%eax, (%esp)
	call	__MULTIPLYX_DIGIT_UNIT_DIV
	movb	%al, -13(%ebp)
	.loc 5 534 13
	movl	-8(%ebp), %eax
	leal	24(%eax), %edx
	movl	-12(%ebp), %eax
	leal	24(%eax), %ecx
	movsbl	-13(%ebp), %eax
	movl	%edx, 16(%esp)
	movl	28(%ebp), %edx
	movl	%edx, 12(%esp)
	movl	%ecx, 8(%esp)
	leal	-28(%ebp), %edx
	movl	%edx, 4(%esp)
	movl	%eax, (%esp)
	call	__MULTIPLYX_DIGIT_UNIT_DIV
	movb	%al, -13(%ebp)
	.loc 5 535 13
	movl	-8(%ebp), %eax
	leal	28(%eax), %edx
	movl	-12(%ebp), %eax
	leal	28(%eax), %ecx
	movsbl	-13(%ebp), %eax
	movl	%edx, 16(%esp)
	movl	28(%ebp), %edx
	movl	%edx, 12(%esp)
	movl	%ecx, 8(%esp)
	leal	-28(%ebp), %edx
	movl	%edx, 4(%esp)
	movl	%eax, (%esp)
	call	__MULTIPLYX_DIGIT_UNIT_DIV
	movb	%al, -13(%ebp)
	.loc 5 536 13
	movl	-8(%ebp), %eax
	leal	32(%eax), %edx
	movl	-12(%ebp), %eax
	leal	32(%eax), %ecx
	movsbl	-13(%ebp), %eax
	movl	%edx, 16(%esp)
	movl	28(%ebp), %edx
	movl	%edx, 12(%esp)
	movl	%ecx, 8(%esp)
	leal	-28(%ebp), %edx
	movl	%edx, 4(%esp)
	movl	%eax, (%esp)
	call	__MULTIPLYX_DIGIT_UNIT_DIV
	movb	%al, -13(%ebp)
	.loc 5 537 13
	movl	-8(%ebp), %eax
	leal	36(%eax), %edx
	movl	-12(%ebp), %eax
	leal	36(%eax), %ecx
	movsbl	-13(%ebp), %eax
	movl	%edx, 16(%esp)
	movl	28(%ebp), %edx
	movl	%edx, 12(%esp)
	movl	%ecx, 8(%esp)
	leal	-28(%ebp), %edx
	movl	%edx, 4(%esp)
	movl	%eax, (%esp)
	call	__MULTIPLYX_DIGIT_UNIT_DIV
	movb	%al, -13(%ebp)
	.loc 5 538 13
	movl	-8(%ebp), %eax
	leal	40(%eax), %edx
	movl	-12(%ebp), %eax
	leal	40(%eax), %ecx
	movsbl	-13(%ebp), %eax
	movl	%edx, 16(%esp)
	movl	28(%ebp), %edx
	movl	%edx, 12(%esp)
	movl	%ecx, 8(%esp)
	leal	-28(%ebp), %edx
	movl	%edx, 4(%esp)
	movl	%eax, (%esp)
	call	__MULTIPLYX_DIGIT_UNIT_DIV
	movb	%al, -13(%ebp)
	.loc 5 539 13
	movl	-8(%ebp), %eax
	leal	44(%eax), %edx
	movl	-12(%ebp), %eax
	leal	44(%eax), %ecx
	movsbl	-13(%ebp), %eax
	movl	%edx, 16(%esp)
	movl	28(%ebp), %edx
	movl	%edx, 12(%esp)
	movl	%ecx, 8(%esp)
	leal	-28(%ebp), %edx
	movl	%edx, 4(%esp)
	movl	%eax, (%esp)
	call	__MULTIPLYX_DIGIT_UNIT_DIV
	movb	%al, -13(%ebp)
	.loc 5 540 13
	movl	-8(%ebp), %eax
	leal	48(%eax), %edx
	movl	-12(%ebp), %eax
	leal	48(%eax), %ecx
	movsbl	-13(%ebp), %eax
	movl	%edx, 16(%esp)
	movl	28(%ebp), %edx
	movl	%edx, 12(%esp)
	movl	%ecx, 8(%esp)
	leal	-28(%ebp), %edx
	movl	%edx, 4(%esp)
	movl	%eax, (%esp)
	call	__MULTIPLYX_DIGIT_UNIT_DIV
	movb	%al, -13(%ebp)
	.loc 5 541 13
	movl	-8(%ebp), %eax
	leal	52(%eax), %edx
	movl	-12(%ebp), %eax
	leal	52(%eax), %ecx
	movsbl	-13(%ebp), %eax
	movl	%edx, 16(%esp)
	movl	28(%ebp), %edx
	movl	%edx, 12(%esp)
	movl	%ecx, 8(%esp)
	leal	-28(%ebp), %edx
	movl	%edx, 4(%esp)
	movl	%eax, (%esp)
	call	__MULTIPLYX_DIGIT_UNIT_DIV
	movb	%al, -13(%ebp)
	.loc 5 542 13
	movl	-8(%ebp), %eax
	leal	56(%eax), %edx
	movl	-12(%ebp), %eax
	leal	56(%eax), %ecx
	movsbl	-13(%ebp), %eax
	movl	%edx, 16(%esp)
	movl	28(%ebp), %edx
	movl	%edx, 12(%esp)
	movl	%ecx, 8(%esp)
	leal	-28(%ebp), %edx
	movl	%edx, 4(%esp)
	movl	%eax, (%esp)
	call	__MULTIPLYX_DIGIT_UNIT_DIV
	movb	%al, -13(%ebp)
	.loc 5 543 13
	movl	-8(%ebp), %eax
	leal	60(%eax), %edx
	movl	-12(%ebp), %eax
	leal	60(%eax), %ecx
	movsbl	-13(%ebp), %eax
	movl	%edx, 16(%esp)
	movl	28(%ebp), %edx
	movl	%edx, 12(%esp)
	movl	%ecx, 8(%esp)
	leal	-28(%ebp), %edx
	movl	%edx, 4(%esp)
	movl	%eax, (%esp)
	call	__MULTIPLYX_DIGIT_UNIT_DIV
	movb	%al, -13(%ebp)
	.loc 5 544 13
	movl	-8(%ebp), %eax
	leal	64(%eax), %edx
	movl	-12(%ebp), %eax
	leal	64(%eax), %ecx
	movsbl	-13(%ebp), %eax
	movl	%edx, 16(%esp)
	movl	28(%ebp), %edx
	movl	%edx, 12(%esp)
	movl	%ecx, 8(%esp)
	leal	-28(%ebp), %edx
	movl	%edx, 4(%esp)
	movl	%eax, (%esp)
	call	__MULTIPLYX_DIGIT_UNIT_DIV
	movb	%al, -13(%ebp)
	.loc 5 545 13
	movl	-8(%ebp), %eax
	leal	68(%eax), %edx
	movl	-12(%ebp), %eax
	leal	68(%eax), %ecx
	movsbl	-13(%ebp), %eax
	movl	%edx, 16(%esp)
	movl	28(%ebp), %edx
	movl	%edx, 12(%esp)
	movl	%ecx, 8(%esp)
	leal	-28(%ebp), %edx
	movl	%edx, 4(%esp)
	movl	%eax, (%esp)
	call	__MULTIPLYX_DIGIT_UNIT_DIV
	movb	%al, -13(%ebp)
	.loc 5 546 13
	movl	-8(%ebp), %eax
	leal	72(%eax), %edx
	movl	-12(%ebp), %eax
	leal	72(%eax), %ecx
	movsbl	-13(%ebp), %eax
	movl	%edx, 16(%esp)
	movl	28(%ebp), %edx
	movl	%edx, 12(%esp)
	movl	%ecx, 8(%esp)
	leal	-28(%ebp), %edx
	movl	%edx, 4(%esp)
	movl	%eax, (%esp)
	call	__MULTIPLYX_DIGIT_UNIT_DIV
	movb	%al, -13(%ebp)
	.loc 5 547 13
	movl	-8(%ebp), %eax
	leal	76(%eax), %edx
	movl	-12(%ebp), %eax
	leal	76(%eax), %ecx
	movsbl	-13(%ebp), %eax
	movl	%edx, 16(%esp)
	movl	28(%ebp), %edx
	movl	%edx, 12(%esp)
	movl	%ecx, 8(%esp)
	leal	-28(%ebp), %edx
	movl	%edx, 4(%esp)
	movl	%eax, (%esp)
	call	__MULTIPLYX_DIGIT_UNIT_DIV
	movb	%al, -13(%ebp)
	.loc 5 548 13
	movl	-8(%ebp), %eax
	leal	80(%eax), %edx
	movl	-12(%ebp), %eax
	leal	80(%eax), %ecx
	movsbl	-13(%ebp), %eax
	movl	%edx, 16(%esp)
	movl	28(%ebp), %edx
	movl	%edx, 12(%esp)
	movl	%ecx, 8(%esp)
	leal	-28(%ebp), %edx
	movl	%edx, 4(%esp)
	movl	%eax, (%esp)
	call	__MULTIPLYX_DIGIT_UNIT_DIV
	movb	%al, -13(%ebp)
	.loc 5 549 13
	movl	-8(%ebp), %eax
	leal	84(%eax), %edx
	movl	-12(%ebp), %eax
	leal	84(%eax), %ecx
	movsbl	-13(%ebp), %eax
	movl	%edx, 16(%esp)
	movl	28(%ebp), %edx
	movl	%edx, 12(%esp)
	movl	%ecx, 8(%esp)
	leal	-28(%ebp), %edx
	movl	%edx, 4(%esp)
	movl	%eax, (%esp)
	call	__MULTIPLYX_DIGIT_UNIT_DIV
	movb	%al, -13(%ebp)
	.loc 5 550 13
	movl	-8(%ebp), %eax
	leal	88(%eax), %edx
	movl	-12(%ebp), %eax
	leal	88(%eax), %ecx
	movsbl	-13(%ebp), %eax
	movl	%edx, 16(%esp)
	movl	28(%ebp), %edx
	movl	%edx, 12(%esp)
	movl	%ecx, 8(%esp)
	leal	-28(%ebp), %edx
	movl	%edx, 4(%esp)
	movl	%eax, (%esp)
	call	__MULTIPLYX_DIGIT_UNIT_DIV
	movb	%al, -13(%ebp)
	.loc 5 551 13
	movl	-8(%ebp), %eax
	leal	92(%eax), %edx
	movl	-12(%ebp), %eax
	leal	92(%eax), %ecx
	movsbl	-13(%ebp), %eax
	movl	%edx, 16(%esp)
	movl	28(%ebp), %edx
	movl	%edx, 12(%esp)
	movl	%ecx, 8(%esp)
	leal	-28(%ebp), %edx
	movl	%edx, 4(%esp)
	movl	%eax, (%esp)
	call	__MULTIPLYX_DIGIT_UNIT_DIV
	movb	%al, -13(%ebp)
	.loc 5 552 13
	movl	-8(%ebp), %eax
	leal	96(%eax), %edx
	movl	-12(%ebp), %eax
	leal	96(%eax), %ecx
	movsbl	-13(%ebp), %eax
	movl	%edx, 16(%esp)
	movl	28(%ebp), %edx
	movl	%edx, 12(%esp)
	movl	%ecx, 8(%esp)
	leal	-28(%ebp), %edx
	movl	%edx, 4(%esp)
	movl	%eax, (%esp)
	call	__MULTIPLYX_DIGIT_UNIT_DIV
	movb	%al, -13(%ebp)
	.loc 5 553 13
	movl	-8(%ebp), %eax
	leal	100(%eax), %edx
	movl	-12(%ebp), %eax
	leal	100(%eax), %ecx
	movsbl	-13(%ebp), %eax
	movl	%edx, 16(%esp)
	movl	28(%ebp), %edx
	movl	%edx, 12(%esp)
	movl	%ecx, 8(%esp)
	leal	-28(%ebp), %edx
	movl	%edx, 4(%esp)
	movl	%eax, (%esp)
	call	__MULTIPLYX_DIGIT_UNIT_DIV
	movb	%al, -13(%ebp)
	.loc 5 554 13
	movl	-8(%ebp), %eax
	leal	104(%eax), %edx
	movl	-12(%ebp), %eax
	leal	104(%eax), %ecx
	movsbl	-13(%ebp), %eax
	movl	%edx, 16(%esp)
	movl	28(%ebp), %edx
	movl	%edx, 12(%esp)
	movl	%ecx, 8(%esp)
	leal	-28(%ebp), %edx
	movl	%edx, 4(%esp)
	movl	%eax, (%esp)
	call	__MULTIPLYX_DIGIT_UNIT_DIV
	movb	%al, -13(%ebp)
	.loc 5 555 13
	movl	-8(%ebp), %eax
	leal	108(%eax), %edx
	movl	-12(%ebp), %eax
	leal	108(%eax), %ecx
	movsbl	-13(%ebp), %eax
	movl	%edx, 16(%esp)
	movl	28(%ebp), %edx
	movl	%edx, 12(%esp)
	movl	%ecx, 8(%esp)
	leal	-28(%ebp), %edx
	movl	%edx, 4(%esp)
	movl	%eax, (%esp)
	call	__MULTIPLYX_DIGIT_UNIT_DIV
	movb	%al, -13(%ebp)
	.loc 5 556 13
	movl	-8(%ebp), %eax
	leal	112(%eax), %edx
	movl	-12(%ebp), %eax
	leal	112(%eax), %ecx
	movsbl	-13(%ebp), %eax
	movl	%edx, 16(%esp)
	movl	28(%ebp), %edx
	movl	%edx, 12(%esp)
	movl	%ecx, 8(%esp)
	leal	-28(%ebp), %edx
	movl	%edx, 4(%esp)
	movl	%eax, (%esp)
	call	__MULTIPLYX_DIGIT_UNIT_DIV
	movb	%al, -13(%ebp)
	.loc 5 557 13
	movl	-8(%ebp), %eax
	leal	116(%eax), %edx
	movl	-12(%ebp), %eax
	leal	116(%eax), %ecx
	movsbl	-13(%ebp), %eax
	movl	%edx, 16(%esp)
	movl	28(%ebp), %edx
	movl	%edx, 12(%esp)
	movl	%ecx, 8(%esp)
	leal	-28(%ebp), %edx
	movl	%edx, 4(%esp)
	movl	%eax, (%esp)
	call	__MULTIPLYX_DIGIT_UNIT_DIV
	movb	%al, -13(%ebp)
	.loc 5 558 13
	movl	-8(%ebp), %eax
	leal	120(%eax), %edx
	movl	-12(%ebp), %eax
	leal	120(%eax), %ecx
	movsbl	-13(%ebp), %eax
	movl	%edx, 16(%esp)
	movl	28(%ebp), %edx
	movl	%edx, 12(%esp)
	movl	%ecx, 8(%esp)
	leal	-28(%ebp), %edx
	movl	%edx, 4(%esp)
	movl	%eax, (%esp)
	call	__MULTIPLYX_DIGIT_UNIT_DIV
	movb	%al, -13(%ebp)
	.loc 5 559 13
	movl	-8(%ebp), %eax
	leal	124(%eax), %edx
	movl	-12(%ebp), %eax
	leal	124(%eax), %ecx
	movsbl	-13(%ebp), %eax
	movl	%edx, 16(%esp)
	movl	28(%ebp), %edx
	movl	%edx, 12(%esp)
	movl	%ecx, 8(%esp)
	leal	-28(%ebp), %edx
	movl	%edx, 4(%esp)
	movl	%eax, (%esp)
	call	__MULTIPLYX_DIGIT_UNIT_DIV
	movb	%al, -13(%ebp)
	.loc 5 560 15
	subl	$-128, -8(%ebp)
	.loc 5 561 15
	subl	$-128, -12(%ebp)
	.loc 5 562 9
	subl	$1, -20(%ebp)
	.loc 5 567 13
	movl	$32, (%esp)
	call	_AddToMULTI32Counter
L111:
	.loc 5 526 11
	cmpl	$0, -20(%ebp)
	jne	L112
	.loc 5 571 17
	movl	-24(%ebp), %eax
	andl	$16, %eax
	.loc 5 571 8
	testl	%eax, %eax
	je	L113
	.loc 5 573 13
	movsbl	-13(%ebp), %eax
	movl	-8(%ebp), %edx
	movl	%edx, 16(%esp)
	movl	28(%ebp), %edx
	movl	%edx, 12(%esp)
	movl	-12(%ebp), %edx
	movl	%edx, 8(%esp)
	leal	-28(%ebp), %edx
	movl	%edx, 4(%esp)
	movl	%eax, (%esp)
	call	__MULTIPLYX_DIGIT_UNIT_DIV
	movb	%al, -13(%ebp)
	.loc 5 574 13
	movl	-8(%ebp), %eax
	leal	4(%eax), %edx
	movl	-12(%ebp), %eax
	leal	4(%eax), %ecx
	movsbl	-13(%ebp), %eax
	movl	%edx, 16(%esp)
	movl	28(%ebp), %edx
	movl	%edx, 12(%esp)
	movl	%ecx, 8(%esp)
	leal	-28(%ebp), %edx
	movl	%edx, 4(%esp)
	movl	%eax, (%esp)
	call	__MULTIPLYX_DIGIT_UNIT_DIV
	movb	%al, -13(%ebp)
	.loc 5 575 13
	movl	-8(%ebp), %eax
	leal	8(%eax), %edx
	movl	-12(%ebp), %eax
	leal	8(%eax), %ecx
	movsbl	-13(%ebp), %eax
	movl	%edx, 16(%esp)
	movl	28(%ebp), %edx
	movl	%edx, 12(%esp)
	movl	%ecx, 8(%esp)
	leal	-28(%ebp), %edx
	movl	%edx, 4(%esp)
	movl	%eax, (%esp)
	call	__MULTIPLYX_DIGIT_UNIT_DIV
	movb	%al, -13(%ebp)
	.loc 5 576 13
	movl	-8(%ebp), %eax
	leal	12(%eax), %edx
	movl	-12(%ebp), %eax
	leal	12(%eax), %ecx
	movsbl	-13(%ebp), %eax
	movl	%edx, 16(%esp)
	movl	28(%ebp), %edx
	movl	%edx, 12(%esp)
	movl	%ecx, 8(%esp)
	leal	-28(%ebp), %edx
	movl	%edx, 4(%esp)
	movl	%eax, (%esp)
	call	__MULTIPLYX_DIGIT_UNIT_DIV
	movb	%al, -13(%ebp)
	.loc 5 577 13
	movl	-8(%ebp), %eax
	leal	16(%eax), %edx
	movl	-12(%ebp), %eax
	leal	16(%eax), %ecx
	movsbl	-13(%ebp), %eax
	movl	%edx, 16(%esp)
	movl	28(%ebp), %edx
	movl	%edx, 12(%esp)
	movl	%ecx, 8(%esp)
	leal	-28(%ebp), %edx
	movl	%edx, 4(%esp)
	movl	%eax, (%esp)
	call	__MULTIPLYX_DIGIT_UNIT_DIV
	movb	%al, -13(%ebp)
	.loc 5 578 13
	movl	-8(%ebp), %eax
	leal	20(%eax), %edx
	movl	-12(%ebp), %eax
	leal	20(%eax), %ecx
	movsbl	-13(%ebp), %eax
	movl	%edx, 16(%esp)
	movl	28(%ebp), %edx
	movl	%edx, 12(%esp)
	movl	%ecx, 8(%esp)
	leal	-28(%ebp), %edx
	movl	%edx, 4(%esp)
	movl	%eax, (%esp)
	call	__MULTIPLYX_DIGIT_UNIT_DIV
	movb	%al, -13(%ebp)
	.loc 5 579 13
	movl	-8(%ebp), %eax
	leal	24(%eax), %edx
	movl	-12(%ebp), %eax
	leal	24(%eax), %ecx
	movsbl	-13(%ebp), %eax
	movl	%edx, 16(%esp)
	movl	28(%ebp), %edx
	movl	%edx, 12(%esp)
	movl	%ecx, 8(%esp)
	leal	-28(%ebp), %edx
	movl	%edx, 4(%esp)
	movl	%eax, (%esp)
	call	__MULTIPLYX_DIGIT_UNIT_DIV
	movb	%al, -13(%ebp)
	.loc 5 580 13
	movl	-8(%ebp), %eax
	leal	28(%eax), %edx
	movl	-12(%ebp), %eax
	leal	28(%eax), %ecx
	movsbl	-13(%ebp), %eax
	movl	%edx, 16(%esp)
	movl	28(%ebp), %edx
	movl	%edx, 12(%esp)
	movl	%ecx, 8(%esp)
	leal	-28(%ebp), %edx
	movl	%edx, 4(%esp)
	movl	%eax, (%esp)
	call	__MULTIPLYX_DIGIT_UNIT_DIV
	movb	%al, -13(%ebp)
	.loc 5 581 13
	movl	-8(%ebp), %eax
	leal	32(%eax), %edx
	movl	-12(%ebp), %eax
	leal	32(%eax), %ecx
	movsbl	-13(%ebp), %eax
	movl	%edx, 16(%esp)
	movl	28(%ebp), %edx
	movl	%edx, 12(%esp)
	movl	%ecx, 8(%esp)
	leal	-28(%ebp), %edx
	movl	%edx, 4(%esp)
	movl	%eax, (%esp)
	call	__MULTIPLYX_DIGIT_UNIT_DIV
	movb	%al, -13(%ebp)
	.loc 5 582 13
	movl	-8(%ebp), %eax
	leal	36(%eax), %edx
	movl	-12(%ebp), %eax
	leal	36(%eax), %ecx
	movsbl	-13(%ebp), %eax
	movl	%edx, 16(%esp)
	movl	28(%ebp), %edx
	movl	%edx, 12(%esp)
	movl	%ecx, 8(%esp)
	leal	-28(%ebp), %edx
	movl	%edx, 4(%esp)
	movl	%eax, (%esp)
	call	__MULTIPLYX_DIGIT_UNIT_DIV
	movb	%al, -13(%ebp)
	.loc 5 583 13
	movl	-8(%ebp), %eax
	leal	40(%eax), %edx
	movl	-12(%ebp), %eax
	leal	40(%eax), %ecx
	movsbl	-13(%ebp), %eax
	movl	%edx, 16(%esp)
	movl	28(%ebp), %edx
	movl	%edx, 12(%esp)
	movl	%ecx, 8(%esp)
	leal	-28(%ebp), %edx
	movl	%edx, 4(%esp)
	movl	%eax, (%esp)
	call	__MULTIPLYX_DIGIT_UNIT_DIV
	movb	%al, -13(%ebp)
	.loc 5 584 13
	movl	-8(%ebp), %eax
	leal	44(%eax), %edx
	movl	-12(%ebp), %eax
	leal	44(%eax), %ecx
	movsbl	-13(%ebp), %eax
	movl	%edx, 16(%esp)
	movl	28(%ebp), %edx
	movl	%edx, 12(%esp)
	movl	%ecx, 8(%esp)
	leal	-28(%ebp), %edx
	movl	%edx, 4(%esp)
	movl	%eax, (%esp)
	call	__MULTIPLYX_DIGIT_UNIT_DIV
	movb	%al, -13(%ebp)
	.loc 5 585 13
	movl	-8(%ebp), %eax
	leal	48(%eax), %edx
	movl	-12(%ebp), %eax
	leal	48(%eax), %ecx
	movsbl	-13(%ebp), %eax
	movl	%edx, 16(%esp)
	movl	28(%ebp), %edx
	movl	%edx, 12(%esp)
	movl	%ecx, 8(%esp)
	leal	-28(%ebp), %edx
	movl	%edx, 4(%esp)
	movl	%eax, (%esp)
	call	__MULTIPLYX_DIGIT_UNIT_DIV
	movb	%al, -13(%ebp)
	.loc 5 586 13
	movl	-8(%ebp), %eax
	leal	52(%eax), %edx
	movl	-12(%ebp), %eax
	leal	52(%eax), %ecx
	movsbl	-13(%ebp), %eax
	movl	%edx, 16(%esp)
	movl	28(%ebp), %edx
	movl	%edx, 12(%esp)
	movl	%ecx, 8(%esp)
	leal	-28(%ebp), %edx
	movl	%edx, 4(%esp)
	movl	%eax, (%esp)
	call	__MULTIPLYX_DIGIT_UNIT_DIV
	movb	%al, -13(%ebp)
	.loc 5 587 13
	movl	-8(%ebp), %eax
	leal	56(%eax), %edx
	movl	-12(%ebp), %eax
	leal	56(%eax), %ecx
	movsbl	-13(%ebp), %eax
	movl	%edx, 16(%esp)
	movl	28(%ebp), %edx
	movl	%edx, 12(%esp)
	movl	%ecx, 8(%esp)
	leal	-28(%ebp), %edx
	movl	%edx, 4(%esp)
	movl	%eax, (%esp)
	call	__MULTIPLYX_DIGIT_UNIT_DIV
	movb	%al, -13(%ebp)
	.loc 5 588 13
	movl	-8(%ebp), %eax
	leal	60(%eax), %edx
	movl	-12(%ebp), %eax
	leal	60(%eax), %ecx
	movsbl	-13(%ebp), %eax
	movl	%edx, 16(%esp)
	movl	28(%ebp), %edx
	movl	%edx, 12(%esp)
	movl	%ecx, 8(%esp)
	leal	-28(%ebp), %edx
	movl	%edx, 4(%esp)
	movl	%eax, (%esp)
	call	__MULTIPLYX_DIGIT_UNIT_DIV
	movb	%al, -13(%ebp)
	.loc 5 589 15
	addl	$64, -8(%ebp)
	.loc 5 590 15
	addl	$64, -12(%ebp)
	.loc 5 595 13
	movl	$16, (%esp)
	call	_AddToMULTI32Counter
L113:
	.loc 5 599 17
	movl	-24(%ebp), %eax
	andl	$8, %eax
	.loc 5 599 8
	testl	%eax, %eax
	je	L114
	.loc 5 601 13
	movsbl	-13(%ebp), %eax
	movl	-8(%ebp), %edx
	movl	%edx, 16(%esp)
	movl	28(%ebp), %edx
	movl	%edx, 12(%esp)
	movl	-12(%ebp), %edx
	movl	%edx, 8(%esp)
	leal	-28(%ebp), %edx
	movl	%edx, 4(%esp)
	movl	%eax, (%esp)
	call	__MULTIPLYX_DIGIT_UNIT_DIV
	movb	%al, -13(%ebp)
	.loc 5 602 13
	movl	-8(%ebp), %eax
	leal	4(%eax), %edx
	movl	-12(%ebp), %eax
	leal	4(%eax), %ecx
	movsbl	-13(%ebp), %eax
	movl	%edx, 16(%esp)
	movl	28(%ebp), %edx
	movl	%edx, 12(%esp)
	movl	%ecx, 8(%esp)
	leal	-28(%ebp), %edx
	movl	%edx, 4(%esp)
	movl	%eax, (%esp)
	call	__MULTIPLYX_DIGIT_UNIT_DIV
	movb	%al, -13(%ebp)
	.loc 5 603 13
	movl	-8(%ebp), %eax
	leal	8(%eax), %edx
	movl	-12(%ebp), %eax
	leal	8(%eax), %ecx
	movsbl	-13(%ebp), %eax
	movl	%edx, 16(%esp)
	movl	28(%ebp), %edx
	movl	%edx, 12(%esp)
	movl	%ecx, 8(%esp)
	leal	-28(%ebp), %edx
	movl	%edx, 4(%esp)
	movl	%eax, (%esp)
	call	__MULTIPLYX_DIGIT_UNIT_DIV
	movb	%al, -13(%ebp)
	.loc 5 604 13
	movl	-8(%ebp), %eax
	leal	12(%eax), %edx
	movl	-12(%ebp), %eax
	leal	12(%eax), %ecx
	movsbl	-13(%ebp), %eax
	movl	%edx, 16(%esp)
	movl	28(%ebp), %edx
	movl	%edx, 12(%esp)
	movl	%ecx, 8(%esp)
	leal	-28(%ebp), %edx
	movl	%edx, 4(%esp)
	movl	%eax, (%esp)
	call	__MULTIPLYX_DIGIT_UNIT_DIV
	movb	%al, -13(%ebp)
	.loc 5 605 13
	movl	-8(%ebp), %eax
	leal	16(%eax), %edx
	movl	-12(%ebp), %eax
	leal	16(%eax), %ecx
	movsbl	-13(%ebp), %eax
	movl	%edx, 16(%esp)
	movl	28(%ebp), %edx
	movl	%edx, 12(%esp)
	movl	%ecx, 8(%esp)
	leal	-28(%ebp), %edx
	movl	%edx, 4(%esp)
	movl	%eax, (%esp)
	call	__MULTIPLYX_DIGIT_UNIT_DIV
	movb	%al, -13(%ebp)
	.loc 5 606 13
	movl	-8(%ebp), %eax
	leal	20(%eax), %edx
	movl	-12(%ebp), %eax
	leal	20(%eax), %ecx
	movsbl	-13(%ebp), %eax
	movl	%edx, 16(%esp)
	movl	28(%ebp), %edx
	movl	%edx, 12(%esp)
	movl	%ecx, 8(%esp)
	leal	-28(%ebp), %edx
	movl	%edx, 4(%esp)
	movl	%eax, (%esp)
	call	__MULTIPLYX_DIGIT_UNIT_DIV
	movb	%al, -13(%ebp)
	.loc 5 607 13
	movl	-8(%ebp), %eax
	leal	24(%eax), %edx
	movl	-12(%ebp), %eax
	leal	24(%eax), %ecx
	movsbl	-13(%ebp), %eax
	movl	%edx, 16(%esp)
	movl	28(%ebp), %edx
	movl	%edx, 12(%esp)
	movl	%ecx, 8(%esp)
	leal	-28(%ebp), %edx
	movl	%edx, 4(%esp)
	movl	%eax, (%esp)
	call	__MULTIPLYX_DIGIT_UNIT_DIV
	movb	%al, -13(%ebp)
	.loc 5 608 13
	movl	-8(%ebp), %eax
	leal	28(%eax), %edx
	movl	-12(%ebp), %eax
	leal	28(%eax), %ecx
	movsbl	-13(%ebp), %eax
	movl	%edx, 16(%esp)
	movl	28(%ebp), %edx
	movl	%edx, 12(%esp)
	movl	%ecx, 8(%esp)
	leal	-28(%ebp), %edx
	movl	%edx, 4(%esp)
	movl	%eax, (%esp)
	call	__MULTIPLYX_DIGIT_UNIT_DIV
	movb	%al, -13(%ebp)
	.loc 5 609 15
	addl	$32, -8(%ebp)
	.loc 5 610 15
	addl	$32, -12(%ebp)
	.loc 5 615 13
	movl	$8, (%esp)
	call	_AddToMULTI32Counter
L114:
	.loc 5 619 17
	movl	-24(%ebp), %eax
	andl	$4, %eax
	.loc 5 619 8
	testl	%eax, %eax
	je	L115
	.loc 5 621 13
	movsbl	-13(%ebp), %eax
	movl	-8(%ebp), %edx
	movl	%edx, 16(%esp)
	movl	28(%ebp), %edx
	movl	%edx, 12(%esp)
	movl	-12(%ebp), %edx
	movl	%edx, 8(%esp)
	leal	-28(%ebp), %edx
	movl	%edx, 4(%esp)
	movl	%eax, (%esp)
	call	__MULTIPLYX_DIGIT_UNIT_DIV
	movb	%al, -13(%ebp)
	.loc 5 622 13
	movl	-8(%ebp), %eax
	leal	4(%eax), %edx
	movl	-12(%ebp), %eax
	leal	4(%eax), %ecx
	movsbl	-13(%ebp), %eax
	movl	%edx, 16(%esp)
	movl	28(%ebp), %edx
	movl	%edx, 12(%esp)
	movl	%ecx, 8(%esp)
	leal	-28(%ebp), %edx
	movl	%edx, 4(%esp)
	movl	%eax, (%esp)
	call	__MULTIPLYX_DIGIT_UNIT_DIV
	movb	%al, -13(%ebp)
	.loc 5 623 13
	movl	-8(%ebp), %eax
	leal	8(%eax), %edx
	movl	-12(%ebp), %eax
	leal	8(%eax), %ecx
	movsbl	-13(%ebp), %eax
	movl	%edx, 16(%esp)
	movl	28(%ebp), %edx
	movl	%edx, 12(%esp)
	movl	%ecx, 8(%esp)
	leal	-28(%ebp), %edx
	movl	%edx, 4(%esp)
	movl	%eax, (%esp)
	call	__MULTIPLYX_DIGIT_UNIT_DIV
	movb	%al, -13(%ebp)
	.loc 5 624 13
	movl	-8(%ebp), %eax
	leal	12(%eax), %edx
	movl	-12(%ebp), %eax
	leal	12(%eax), %ecx
	movsbl	-13(%ebp), %eax
	movl	%edx, 16(%esp)
	movl	28(%ebp), %edx
	movl	%edx, 12(%esp)
	movl	%ecx, 8(%esp)
	leal	-28(%ebp), %edx
	movl	%edx, 4(%esp)
	movl	%eax, (%esp)
	call	__MULTIPLYX_DIGIT_UNIT_DIV
	movb	%al, -13(%ebp)
	.loc 5 625 15
	addl	$16, -8(%ebp)
	.loc 5 626 15
	addl	$16, -12(%ebp)
	.loc 5 631 13
	movl	$4, (%esp)
	call	_AddToMULTI32Counter
L115:
	.loc 5 635 17
	movl	-24(%ebp), %eax
	andl	$2, %eax
	.loc 5 635 8
	testl	%eax, %eax
	je	L116
	.loc 5 637 13
	movsbl	-13(%ebp), %eax
	movl	-8(%ebp), %edx
	movl	%edx, 16(%esp)
	movl	28(%ebp), %edx
	movl	%edx, 12(%esp)
	movl	-12(%ebp), %edx
	movl	%edx, 8(%esp)
	leal	-28(%ebp), %edx
	movl	%edx, 4(%esp)
	movl	%eax, (%esp)
	call	__MULTIPLYX_DIGIT_UNIT_DIV
	movb	%al, -13(%ebp)
	.loc 5 638 13
	movl	-8(%ebp), %eax
	leal	4(%eax), %edx
	movl	-12(%ebp), %eax
	leal	4(%eax), %ecx
	movsbl	-13(%ebp), %eax
	movl	%edx, 16(%esp)
	movl	28(%ebp), %edx
	movl	%edx, 12(%esp)
	movl	%ecx, 8(%esp)
	leal	-28(%ebp), %edx
	movl	%edx, 4(%esp)
	movl	%eax, (%esp)
	call	__MULTIPLYX_DIGIT_UNIT_DIV
	movb	%al, -13(%ebp)
	.loc 5 639 15
	addl	$8, -8(%ebp)
	.loc 5 640 15
	addl	$8, -12(%ebp)
	.loc 5 645 13
	movl	$2, (%esp)
	call	_AddToMULTI32Counter
L116:
	.loc 5 649 17
	movl	-24(%ebp), %eax
	andl	$1, %eax
	.loc 5 649 8
	testl	%eax, %eax
	je	L117
	.loc 5 651 13
	movsbl	-13(%ebp), %eax
	movl	-8(%ebp), %edx
	movl	%edx, 16(%esp)
	movl	28(%ebp), %edx
	movl	%edx, 12(%esp)
	movl	-12(%ebp), %edx
	movl	%edx, 8(%esp)
	leal	-28(%ebp), %edx
	movl	%edx, 4(%esp)
	movl	%eax, (%esp)
	call	__MULTIPLYX_DIGIT_UNIT_DIV
	movb	%al, -13(%ebp)
	.loc 5 652 15
	addl	$4, -8(%ebp)
	.loc 5 653 15
	addl	$4, -12(%ebp)
	.loc 5 658 13
	call	_IncrementMULTI32Counter
L117:
	.loc 5 662 9
	movl	-28(%ebp), %ecx
	movl	-8(%ebp), %eax
	movl	(%eax), %edx
	movsbl	-13(%ebp), %eax
	movl	-8(%ebp), %ebx
	movl	%ebx, 12(%esp)
	movl	%ecx, 8(%esp)
	movl	%edx, 4(%esp)
	movl	%eax, (%esp)
	call	__SUBTRUCT_UNIT_DIV
	movb	%al, -13(%ebp)
	.loc 5 663 11
	addl	$4, -8(%ebp)
	.loc 5 665 53
	movl	12(%ebp), %eax
	addl	$1, %eax
	leal	0(,%eax,4), %edx
	movl	8(%ebp), %eax
	addl	%edx, %eax
	.loc 5 665 57
	subl	-8(%ebp), %eax
	sarl	$2, %eax
	.loc 5 665 13
	movl	%eax, %ecx
	movl	-28(%ebp), %edx
	movsbl	-13(%ebp), %eax
	movl	%ecx, 12(%esp)
	movl	-8(%ebp), %ecx
	movl	%ecx, 8(%esp)
	movl	%edx, 4(%esp)
	movl	%eax, (%esp)
	call	_DoBorrow
	.loc 5 666 1
	addl	$52, %esp
	popl	%ebx
	.cfi_restore 3
	popl	%ebp
	.cfi_restore 5
	.cfi_def_cfa 4, 4
	ret
	.cfi_endproc
LFE4287:
	.def	_DoCarry;	.scl	3;	.type	32;	.endef
_DoCarry:
LFB4288:
	.loc 5 669 1
	.cfi_startproc
	pushl	%ebp
	.cfi_def_cfa_offset 8
	.cfi_offset 5, -8
	movl	%esp, %ebp
	.cfi_def_cfa_register 5
	subl	$20, %esp
	movl	8(%ebp), %eax
	movb	%al, -4(%ebp)
L124:
	.loc 5 673 12
	cmpl	$0, 16(%ebp)
	je	L125
	.loc 5 678 17
	cmpb	$0, -4(%ebp)
	je	L126
	.loc 5 683 17
	movl	12(%ebp), %eax
	movl	(%eax), %edx
	movsbl	-4(%ebp), %eax
	movl	12(%ebp), %ecx
	movl	%ecx, 12(%esp)
	movl	$0, 8(%esp)
	movl	%edx, 4(%esp)
	movl	%eax, (%esp)
	call	__ADD_UNIT_DIV
	movb	%al, -4(%ebp)
	.loc 5 684 13
	addl	$4, 12(%ebp)
	.loc 5 685 13
	subl	$1, 16(%ebp)
	.loc 5 673 12
	jmp	L124
L125:
	.loc 5 676 13
	nop
	jmp	L119
L126:
	.loc 5 692 13
	nop
L119:
	.loc 5 695 1
	leave
	.cfi_restore 5
	.cfi_def_cfa 4, 4
	ret
	.cfi_endproc
LFE4288:
	.def	_AddOneLine;	.scl	3;	.type	32;	.endef
_AddOneLine:
LFB4289:
	.loc 5 698 1
	.cfi_startproc
	pushl	%ebp
	.cfi_def_cfa_offset 8
	.cfi_offset 5, -8
	movl	%esp, %ebp
	.cfi_def_cfa_register 5
	pushl	%ebx
	subl	$48, %esp
	.cfi_offset 3, -12
	.loc 5 699 36
	movl	24(%ebp), %eax
	leal	0(,%eax,4), %edx
	.loc 5 699 22
	movl	8(%ebp), %eax
	addl	%edx, %eax
	movl	%eax, -8(%ebp)
	.loc 5 700 22
	movl	16(%ebp), %eax
	movl	%eax, -12(%ebp)
	.loc 5 701 17
	movl	20(%ebp), %eax
	movl	%eax, -24(%ebp)
	.loc 5 702 10
	movb	$0, -13(%ebp)
	.loc 5 705 17
	movl	-24(%ebp), %eax
	shrl	$5, %eax
	movl	%eax, -20(%ebp)
	.loc 5 706 11
	jmp	L128
L129:
	.loc 5 708 13
	movsbl	-13(%ebp), %eax
	movl	-8(%ebp), %edx
	movl	%edx, 12(%esp)
	movl	-12(%ebp), %edx
	movl	%edx, 8(%esp)
	movl	-8(%ebp), %edx
	movl	%edx, 4(%esp)
	movl	%eax, (%esp)
	call	__ADD_32WORDS_ADC_DIV
	movb	%al, -13(%ebp)
	.loc 5 709 15
	subl	$-128, -8(%ebp)
	.loc 5 710 15
	subl	$-128, -12(%ebp)
	.loc 5 711 9
	subl	$1, -20(%ebp)
L128:
	.loc 5 706 11
	cmpl	$0, -20(%ebp)
	jne	L129
	.loc 5 716 17
	movl	-24(%ebp), %eax
	andl	$16, %eax
	.loc 5 716 8
	testl	%eax, %eax
	je	L130
	.loc 5 718 13
	movsbl	-13(%ebp), %eax
	movl	-8(%ebp), %edx
	movl	%edx, 12(%esp)
	movl	-12(%ebp), %edx
	movl	%edx, 8(%esp)
	movl	-8(%ebp), %edx
	movl	%edx, 4(%esp)
	movl	%eax, (%esp)
	call	__ADD_16WORDS_ADC_DIV
	movb	%al, -13(%ebp)
	.loc 5 719 15
	addl	$64, -8(%ebp)
	.loc 5 720 15
	addl	$64, -12(%ebp)
L130:
	.loc 5 725 17
	movl	-24(%ebp), %eax
	andl	$8, %eax
	.loc 5 725 8
	testl	%eax, %eax
	je	L131
	.loc 5 727 13
	movsbl	-13(%ebp), %eax
	movl	-8(%ebp), %edx
	movl	%edx, 12(%esp)
	movl	-12(%ebp), %edx
	movl	%edx, 8(%esp)
	movl	-8(%ebp), %edx
	movl	%edx, 4(%esp)
	movl	%eax, (%esp)
	call	__ADD_8WORDS_ADC_DIV
	movb	%al, -13(%ebp)
	.loc 5 728 15
	addl	$32, -8(%ebp)
	.loc 5 729 15
	addl	$32, -12(%ebp)
L131:
	.loc 5 734 17
	movl	-24(%ebp), %eax
	andl	$4, %eax
	.loc 5 734 8
	testl	%eax, %eax
	je	L132
	.loc 5 736 13
	movsbl	-13(%ebp), %eax
	movl	-8(%ebp), %edx
	movl	%edx, 12(%esp)
	movl	-12(%ebp), %edx
	movl	%edx, 8(%esp)
	movl	-8(%ebp), %edx
	movl	%edx, 4(%esp)
	movl	%eax, (%esp)
	call	__ADD_4WORDS_ADC_DIV
	movb	%al, -13(%ebp)
	.loc 5 737 15
	addl	$16, -8(%ebp)
	.loc 5 738 15
	addl	$16, -12(%ebp)
L132:
	.loc 5 743 17
	movl	-24(%ebp), %eax
	andl	$2, %eax
	.loc 5 743 8
	testl	%eax, %eax
	je	L133
	.loc 5 745 13
	movsbl	-13(%ebp), %eax
	movl	-8(%ebp), %edx
	movl	%edx, 12(%esp)
	movl	-12(%ebp), %edx
	movl	%edx, 8(%esp)
	movl	-8(%ebp), %edx
	movl	%edx, 4(%esp)
	movl	%eax, (%esp)
	call	__ADD_2WORDS_ADC_DIV
	movb	%al, -13(%ebp)
	.loc 5 746 15
	addl	$8, -8(%ebp)
	.loc 5 747 15
	addl	$8, -12(%ebp)
L133:
	.loc 5 752 17
	movl	-24(%ebp), %eax
	andl	$1, %eax
	.loc 5 752 8
	testl	%eax, %eax
	je	L134
	.loc 5 754 13
	movl	-12(%ebp), %eax
	movl	(%eax), %ecx
	movl	-8(%ebp), %eax
	movl	(%eax), %edx
	movsbl	-13(%ebp), %eax
	movl	-8(%ebp), %ebx
	movl	%ebx, 12(%esp)
	movl	%ecx, 8(%esp)
	movl	%edx, 4(%esp)
	movl	%eax, (%esp)
	call	__ADD_UNIT_DIV
	movb	%al, -13(%ebp)
	.loc 5 755 9
	addl	$4, -8(%ebp)
	.loc 5 756 9
	addl	$4, -12(%ebp)
L134:
	.loc 5 760 41
	movl	12(%ebp), %eax
	addl	$1, %eax
	leal	0(,%eax,4), %edx
	movl	8(%ebp), %eax
	addl	%edx, %eax
	.loc 5 760 45
	subl	-8(%ebp), %eax
	sarl	$2, %eax
	.loc 5 760 5
	movl	%eax, %edx
	movsbl	-13(%ebp), %eax
	movl	%edx, 8(%esp)
	movl	-8(%ebp), %edx
	movl	%edx, 4(%esp)
	movl	%eax, (%esp)
	call	_DoCarry
	.loc 5 761 1
	nop
	addl	$48, %esp
	popl	%ebx
	.cfi_restore 3
	popl	%ebp
	.cfi_restore 5
	.cfi_def_cfa 4, 4
	ret
	.cfi_endproc
LFE4289:
	.def	_AddOneLineX;	.scl	3;	.type	32;	.endef
_AddOneLineX:
LFB4290:
	.loc 5 764 1
	.cfi_startproc
	pushl	%ebp
	.cfi_def_cfa_offset 8
	.cfi_offset 5, -8
	movl	%esp, %ebp
	.cfi_def_cfa_register 5
	pushl	%ebx
	subl	$48, %esp
	.cfi_offset 3, -12
	.loc 5 765 36
	movl	24(%ebp), %eax
	leal	0(,%eax,4), %edx
	.loc 5 765 22
	movl	8(%ebp), %eax
	addl	%edx, %eax
	movl	%eax, -8(%ebp)
	.loc 5 766 22
	movl	16(%ebp), %eax
	movl	%eax, -12(%ebp)
	.loc 5 767 17
	movl	20(%ebp), %eax
	movl	%eax, -24(%ebp)
	.loc 5 768 10
	movb	$0, -13(%ebp)
	.loc 5 771 17
	movl	-24(%ebp), %eax
	shrl	$5, %eax
	movl	%eax, -20(%ebp)
	.loc 5 772 11
	jmp	L136
L137:
	.loc 5 774 13
	movsbl	-13(%ebp), %eax
	movl	-8(%ebp), %edx
	movl	%edx, 12(%esp)
	movl	-12(%ebp), %edx
	movl	%edx, 8(%esp)
	movl	-8(%ebp), %edx
	movl	%edx, 4(%esp)
	movl	%eax, (%esp)
	call	__ADD_32WORDS_ADCX_DIV
	movb	%al, -13(%ebp)
	.loc 5 775 15
	subl	$-128, -8(%ebp)
	.loc 5 776 15
	subl	$-128, -12(%ebp)
	.loc 5 777 9
	subl	$1, -20(%ebp)
L136:
	.loc 5 772 11
	cmpl	$0, -20(%ebp)
	jne	L137
	.loc 5 782 17
	movl	-24(%ebp), %eax
	andl	$16, %eax
	.loc 5 782 8
	testl	%eax, %eax
	je	L138
	.loc 5 784 13
	movsbl	-13(%ebp), %eax
	movl	-8(%ebp), %edx
	movl	%edx, 12(%esp)
	movl	-12(%ebp), %edx
	movl	%edx, 8(%esp)
	movl	-8(%ebp), %edx
	movl	%edx, 4(%esp)
	movl	%eax, (%esp)
	call	__ADD_16WORDS_ADCX_DIV
	movb	%al, -13(%ebp)
	.loc 5 785 15
	addl	$64, -8(%ebp)
	.loc 5 786 15
	addl	$64, -12(%ebp)
L138:
	.loc 5 791 17
	movl	-24(%ebp), %eax
	andl	$8, %eax
	.loc 5 791 8
	testl	%eax, %eax
	je	L139
	.loc 5 793 13
	movsbl	-13(%ebp), %eax
	movl	-8(%ebp), %edx
	movl	%edx, 12(%esp)
	movl	-12(%ebp), %edx
	movl	%edx, 8(%esp)
	movl	-8(%ebp), %edx
	movl	%edx, 4(%esp)
	movl	%eax, (%esp)
	call	__ADD_8WORDS_ADCX_DIV
	movb	%al, -13(%ebp)
	.loc 5 794 15
	addl	$32, -8(%ebp)
	.loc 5 795 15
	addl	$32, -12(%ebp)
L139:
	.loc 5 800 17
	movl	-24(%ebp), %eax
	andl	$4, %eax
	.loc 5 800 8
	testl	%eax, %eax
	je	L140
	.loc 5 802 13
	movsbl	-13(%ebp), %eax
	movl	-8(%ebp), %edx
	movl	%edx, 12(%esp)
	movl	-12(%ebp), %edx
	movl	%edx, 8(%esp)
	movl	-8(%ebp), %edx
	movl	%edx, 4(%esp)
	movl	%eax, (%esp)
	call	__ADD_4WORDS_ADCX_DIV
	movb	%al, -13(%ebp)
	.loc 5 803 15
	addl	$16, -8(%ebp)
	.loc 5 804 15
	addl	$16, -12(%ebp)
L140:
	.loc 5 809 17
	movl	-24(%ebp), %eax
	andl	$2, %eax
	.loc 5 809 8
	testl	%eax, %eax
	je	L141
	.loc 5 811 13
	movsbl	-13(%ebp), %eax
	movl	-8(%ebp), %edx
	movl	%edx, 12(%esp)
	movl	-12(%ebp), %edx
	movl	%edx, 8(%esp)
	movl	-8(%ebp), %edx
	movl	%edx, 4(%esp)
	movl	%eax, (%esp)
	call	__ADD_2WORDS_ADCX_DIV
	movb	%al, -13(%ebp)
	.loc 5 812 15
	addl	$8, -8(%ebp)
	.loc 5 813 15
	addl	$8, -12(%ebp)
L141:
	.loc 5 818 17
	movl	-24(%ebp), %eax
	andl	$1, %eax
	.loc 5 818 8
	testl	%eax, %eax
	je	L142
	.loc 5 820 13
	movl	-12(%ebp), %eax
	movl	(%eax), %ecx
	movl	-8(%ebp), %eax
	movl	(%eax), %edx
	movsbl	-13(%ebp), %eax
	movl	-8(%ebp), %ebx
	movl	%ebx, 12(%esp)
	movl	%ecx, 8(%esp)
	movl	%edx, 4(%esp)
	movl	%eax, (%esp)
	call	__ADD_UNIT_DIV
	movb	%al, -13(%ebp)
	.loc 5 821 9
	addl	$4, -8(%ebp)
	.loc 5 822 9
	addl	$4, -12(%ebp)
L142:
	.loc 5 826 41
	movl	12(%ebp), %eax
	addl	$1, %eax
	leal	0(,%eax,4), %edx
	movl	8(%ebp), %eax
	addl	%edx, %eax
	.loc 5 826 45
	subl	-8(%ebp), %eax
	sarl	$2, %eax
	.loc 5 826 5
	movl	%eax, %edx
	movsbl	-13(%ebp), %eax
	movl	%edx, 8(%esp)
	movl	-8(%ebp), %edx
	movl	%edx, 4(%esp)
	movl	%eax, (%esp)
	call	_DoCarry
	.loc 5 827 1
	nop
	addl	$48, %esp
	popl	%ebx
	.cfi_restore 3
	popl	%ebp
	.cfi_restore 5
	.cfi_def_cfa 4, 4
	ret
	.cfi_endproc
LFE4290:
	.def	_DivRem_X_X_using_ADC_MUL;	.scl	3;	.type	32;	.endef
_DivRem_X_X_using_ADC_MUL:
LFB4291:
	.loc 5 830 1
	.cfi_startproc
	pushl	%ebp
	.cfi_def_cfa_offset 8
	.cfi_offset 5, -8
	movl	%esp, %ebp
	.cfi_def_cfa_register 5
	subl	$56, %esp
	.loc 5 847 57
	movl	20(%ebp), %eax
	addl	$1073741823, %eax
	leal	0(,%eax,4), %edx
	movl	16(%ebp), %eax
	addl	%edx, %eax
	.loc 5 847 32
	movl	(%eax), %eax
	movl	%eax, (%esp)
	call	__LZCNT_ALT_UNIT_DIV
	movl	%eax, -20(%ebp)
	.loc 5 848 8
	cmpl	$0, -20(%ebp)
	jne	L144
	.loc 5 850 9
	movl	12(%ebp), %eax
	movl	%eax, 8(%esp)
	movl	8(%ebp), %eax
	movl	%eax, 4(%esp)
	movl	32(%ebp), %eax
	movl	%eax, (%esp)
	call	__COPY_MEMORY_UNIT_DIV
	.loc 5 851 9
	movl	20(%ebp), %eax
	movl	%eax, 8(%esp)
	movl	16(%ebp), %eax
	movl	%eax, 4(%esp)
	movl	24(%ebp), %eax
	movl	%eax, (%esp)
	call	__COPY_MEMORY_UNIT_DIV
	.loc 5 852 14
	movl	12(%ebp), %eax
	leal	0(,%eax,4), %edx
	movl	32(%ebp), %eax
	addl	%edx, %eax
	.loc 5 852 26
	movl	$0, (%eax)
	jmp	L145
L144:
	.loc 5 856 9
	movl	$0, 16(%esp)
	movl	32(%ebp), %eax
	movl	%eax, 12(%esp)
	movl	-20(%ebp), %eax
	movl	%eax, 8(%esp)
	movl	12(%ebp), %eax
	movl	%eax, 4(%esp)
	movl	8(%ebp), %eax
	movl	%eax, (%esp)
	call	_LeftShift_Imp_DIV
	.loc 5 857 9
	movl	$0, 16(%esp)
	movl	24(%ebp), %eax
	movl	%eax, 12(%esp)
	movl	-20(%ebp), %eax
	movl	%eax, 8(%esp)
	movl	20(%ebp), %eax
	movl	%eax, 4(%esp)
	movl	16(%ebp), %eax
	movl	%eax, (%esp)
	call	_LeftShift_Imp_DIV
L145:
	.loc 5 860 22
	movl	32(%ebp), %eax
	movl	%eax, -24(%ebp)
	.loc 5 861 17
	movl	12(%ebp), %eax
	subl	20(%ebp), %eax
	movl	%eax, -12(%ebp)
L149:
LBB34:
	.loc 5 865 30
	movl	-12(%ebp), %eax
	movl	%eax, 12(%esp)
	movl	20(%ebp), %eax
	movl	%eax, 8(%esp)
	movl	24(%ebp), %eax
	movl	%eax, 4(%esp)
	movl	-24(%ebp), %eax
	movl	%eax, (%esp)
	call	_CalculateQ_
	movl	%eax, -16(%ebp)
	.loc 5 868 13
	movl	-16(%ebp), %eax
	movl	%eax, 20(%esp)
	movl	-12(%ebp), %eax
	movl	%eax, 16(%esp)
	movl	20(%ebp), %eax
	movl	%eax, 12(%esp)
	movl	24(%ebp), %eax
	movl	%eax, 8(%esp)
	movl	12(%ebp), %eax
	movl	%eax, 4(%esp)
	movl	-24(%ebp), %eax
	movl	%eax, (%esp)
	call	_SubtructOneLine
	.loc 5 868 12
	testl	%eax, %eax
	je	L146
	.loc 5 871 13
	subl	$1, -16(%ebp)
	.loc 5 872 13
	movl	-12(%ebp), %eax
	movl	%eax, 16(%esp)
	movl	20(%ebp), %eax
	movl	%eax, 12(%esp)
	movl	24(%ebp), %eax
	movl	%eax, 8(%esp)
	movl	12(%ebp), %eax
	movl	%eax, 4(%esp)
	movl	-24(%ebp), %eax
	movl	%eax, (%esp)
	call	_AddOneLine
L146:
	.loc 5 875 14
	movl	-12(%ebp), %eax
	leal	0(,%eax,4), %edx
	movl	28(%ebp), %eax
	addl	%eax, %edx
	.loc 5 875 24
	movl	-16(%ebp), %eax
	movl	%eax, (%edx)
	.loc 5 876 12
	cmpl	$0, -12(%ebp)
	je	L152
	.loc 5 878 9
	subl	$1, -12(%ebp)
LBE34:
	.loc 5 864 5
	jmp	L149
L152:
LBB35:
	.loc 5 877 13
	nop
LBE35:
	.loc 5 881 8
	cmpl	$0, -20(%ebp)
	je	L153
	.loc 5 882 9
	movl	12(%ebp), %eax
	leal	1(%eax), %edx
	movl	$0, 16(%esp)
	movl	-24(%ebp), %eax
	movl	%eax, 12(%esp)
	movl	-20(%ebp), %eax
	movl	%eax, 8(%esp)
	movl	%edx, 4(%esp)
	movl	-24(%ebp), %eax
	movl	%eax, (%esp)
	call	_RightShift_Imp_DIV
L153:
	.loc 5 883 1
	nop
	leave
	.cfi_restore 5
	.cfi_def_cfa 4, 4
	ret
	.cfi_endproc
LFE4291:
	.def	_DivRem_X_X_using_ADX_MULX;	.scl	3;	.type	32;	.endef
_DivRem_X_X_using_ADX_MULX:
LFB4292:
	.loc 5 886 1
	.cfi_startproc
	pushl	%ebp
	.cfi_def_cfa_offset 8
	.cfi_offset 5, -8
	movl	%esp, %ebp
	.cfi_def_cfa_register 5
	subl	$56, %esp
	.loc 5 903 57
	movl	20(%ebp), %eax
	addl	$1073741823, %eax
	leal	0(,%eax,4), %edx
	movl	16(%ebp), %eax
	addl	%edx, %eax
	.loc 5 903 32
	movl	(%eax), %eax
	movl	%eax, (%esp)
	call	__LZCNT_ALT_UNIT_DIV
	movl	%eax, -20(%ebp)
	.loc 5 904 8
	cmpl	$0, -20(%ebp)
	jne	L155
	.loc 5 906 9
	movl	12(%ebp), %eax
	movl	%eax, 8(%esp)
	movl	8(%ebp), %eax
	movl	%eax, 4(%esp)
	movl	32(%ebp), %eax
	movl	%eax, (%esp)
	call	__COPY_MEMORY_UNIT_DIV
	.loc 5 907 9
	movl	20(%ebp), %eax
	movl	%eax, 8(%esp)
	movl	16(%ebp), %eax
	movl	%eax, 4(%esp)
	movl	24(%ebp), %eax
	movl	%eax, (%esp)
	call	__COPY_MEMORY_UNIT_DIV
	.loc 5 908 14
	movl	12(%ebp), %eax
	leal	0(,%eax,4), %edx
	movl	32(%ebp), %eax
	addl	%edx, %eax
	.loc 5 908 26
	movl	$0, (%eax)
	jmp	L156
L155:
	.loc 5 912 9
	movl	$0, 16(%esp)
	movl	32(%ebp), %eax
	movl	%eax, 12(%esp)
	movl	-20(%ebp), %eax
	movl	%eax, 8(%esp)
	movl	12(%ebp), %eax
	movl	%eax, 4(%esp)
	movl	8(%ebp), %eax
	movl	%eax, (%esp)
	call	_LeftShift_Imp_DIV
	.loc 5 913 9
	movl	$0, 16(%esp)
	movl	24(%ebp), %eax
	movl	%eax, 12(%esp)
	movl	-20(%ebp), %eax
	movl	%eax, 8(%esp)
	movl	20(%ebp), %eax
	movl	%eax, 4(%esp)
	movl	16(%ebp), %eax
	movl	%eax, (%esp)
	call	_LeftShift_Imp_DIV
L156:
	.loc 5 916 22
	movl	32(%ebp), %eax
	movl	%eax, -24(%ebp)
	.loc 5 917 17
	movl	12(%ebp), %eax
	subl	20(%ebp), %eax
	movl	%eax, -12(%ebp)
L160:
LBB36:
	.loc 5 921 30
	movl	-12(%ebp), %eax
	movl	%eax, 12(%esp)
	movl	20(%ebp), %eax
	movl	%eax, 8(%esp)
	movl	24(%ebp), %eax
	movl	%eax, 4(%esp)
	movl	-24(%ebp), %eax
	movl	%eax, (%esp)
	call	_CalculateQ_X
	movl	%eax, -16(%ebp)
	.loc 5 924 13
	movl	-16(%ebp), %eax
	movl	%eax, 20(%esp)
	movl	-12(%ebp), %eax
	movl	%eax, 16(%esp)
	movl	20(%ebp), %eax
	movl	%eax, 12(%esp)
	movl	24(%ebp), %eax
	movl	%eax, 8(%esp)
	movl	12(%ebp), %eax
	movl	%eax, 4(%esp)
	movl	-24(%ebp), %eax
	movl	%eax, (%esp)
	call	_SubtructOneLineX
	.loc 5 924 12
	testl	%eax, %eax
	je	L157
	.loc 5 927 13
	subl	$1, -16(%ebp)
	.loc 5 928 13
	movl	-12(%ebp), %eax
	movl	%eax, 16(%esp)
	movl	20(%ebp), %eax
	movl	%eax, 12(%esp)
	movl	24(%ebp), %eax
	movl	%eax, 8(%esp)
	movl	12(%ebp), %eax
	movl	%eax, 4(%esp)
	movl	-24(%ebp), %eax
	movl	%eax, (%esp)
	call	_AddOneLineX
L157:
	.loc 5 931 14
	movl	-12(%ebp), %eax
	leal	0(,%eax,4), %edx
	movl	28(%ebp), %eax
	addl	%eax, %edx
	.loc 5 931 24
	movl	-16(%ebp), %eax
	movl	%eax, (%edx)
	.loc 5 932 12
	cmpl	$0, -12(%ebp)
	je	L163
	.loc 5 934 9
	subl	$1, -12(%ebp)
LBE36:
	.loc 5 920 5
	jmp	L160
L163:
LBB37:
	.loc 5 933 13
	nop
LBE37:
	.loc 5 937 8
	cmpl	$0, -20(%ebp)
	je	L164
	.loc 5 938 9
	movl	12(%ebp), %eax
	leal	1(%eax), %edx
	movl	$0, 16(%esp)
	movl	-24(%ebp), %eax
	movl	%eax, 12(%esp)
	movl	-20(%ebp), %eax
	movl	%eax, 8(%esp)
	movl	%edx, 4(%esp)
	movl	-24(%ebp), %eax
	movl	%eax, (%esp)
	call	_RightShift_Imp_DIV
L164:
	.loc 5 939 1
	nop
	leave
	.cfi_restore 5
	.cfi_def_cfa 4, 4
	ret
	.cfi_endproc
LFE4292:
	.globl	_PMC_DivRem_X_I@16
	.def	_PMC_DivRem_X_I@16;	.scl	2;	.type	32;	.endef
_PMC_DivRem_X_I@16:
LFB4293:
	.loc 5 942 1
	.cfi_startproc
	pushl	%ebp
	.cfi_def_cfa_offset 8
	.cfi_offset 5, -8
	movl	%esp, %ebp
	.cfi_def_cfa_register 5
	pushl	%ebx
	subl	$68, %esp
	.cfi_offset 3, -12
	.loc 5 948 8
	cmpl	$0, 8(%ebp)
	jne	L166
	.loc 5 949 16
	movl	$-1, %eax
	jmp	L182
L166:
	.loc 5 950 8
	cmpl	$0, 16(%ebp)
	jne	L168
	.loc 5 951 16
	movl	$-1, %eax
	jmp	L182
L168:
	.loc 5 952 8
	cmpl	$0, 20(%ebp)
	jne	L169
	.loc 5 953 16
	movl	$-1, %eax
	jmp	L182
L169:
	.loc 5 954 20
	movl	8(%ebp), %eax
	movl	%eax, -12(%ebp)
	.loc 5 956 19
	movl	-12(%ebp), %eax
	movl	%eax, (%esp)
	call	_CheckNumber
	movl	%eax, -16(%ebp)
	.loc 5 956 8
	cmpl	$0, -16(%ebp)
	je	L170
	.loc 5 957 16
	movl	-16(%ebp), %eax
	jmp	L182
L170:
	.loc 5 958 8
	cmpl	$0, 12(%ebp)
	jne	L171
	.loc 5 963 16
	movl	$-3, %eax
	jmp	L182
L171:
	.loc 5 966 9
	movl	-12(%ebp), %eax
	movzbl	16(%eax), %eax
	andl	$2, %eax
	.loc 5 966 8
	testb	%al, %al
	je	L172
	.loc 5 971 12
	movl	$_number_zero, -32(%ebp)
	.loc 5 972 12
	movl	20(%ebp), %eax
	movl	$0, (%eax)
	jmp	L173
L172:
	.loc 5 978 12
	cmpl	$1, 12(%ebp)
	jne	L174
	.loc 5 983 27
	leal	-32(%ebp), %eax
	movl	%eax, 4(%esp)
	movl	-12(%ebp), %eax
	movl	%eax, (%esp)
	call	_DuplicateNumber
	movl	%eax, -16(%ebp)
	.loc 5 983 16
	cmpl	$0, -16(%ebp)
	je	L175
	.loc 5 984 24
	movl	-16(%ebp), %eax
	jmp	L182
L175:
	.loc 5 985 16
	movl	20(%ebp), %eax
	movl	$0, (%eax)
	jmp	L173
L174:
LBB38:
	.loc 5 992 25
	movl	-12(%ebp), %eax
	movl	4(%eax), %eax
	movl	%eax, -20(%ebp)
	.loc 5 993 55
	movl	12(%ebp), %eax
	movl	%eax, (%esp)
	call	__LZCNT_ALT_32
	.loc 5 993 25
	movl	$32, %edx
	subl	%eax, %edx
	movl	%edx, %eax
	movl	%eax, -24(%ebp)
	.loc 5 994 16
	movl	-20(%ebp), %eax
	cmpl	-24(%ebp), %eax
	jnb	L176
	.loc 5 999 20
	movl	$_number_zero, -32(%ebp)
	.loc 5 1000 35
	movl	-12(%ebp), %eax
	movl	24(%eax), %eax
	.loc 5 1000 22
	movl	(%eax), %edx
	.loc 5 1000 20
	movl	20(%ebp), %eax
	movl	%edx, (%eax)
	jmp	L173
L176:
LBB39:
	.loc 5 1004 55
	movl	-20(%ebp), %eax
	subl	-24(%ebp), %eax
	.loc 5 1004 29
	addl	$33, %eax
	movl	%eax, -28(%ebp)
	.loc 5 1006 31
	leal	-36(%ebp), %eax
	movl	%eax, 8(%esp)
	movl	-28(%ebp), %eax
	movl	%eax, 4(%esp)
	leal	-32(%ebp), %eax
	movl	%eax, (%esp)
	call	_AllocateNumber
	movl	%eax, -16(%ebp)
	.loc 5 1006 20
	cmpl	$0, -16(%ebp)
	je	L177
	.loc 5 1007 28
	movl	-16(%ebp), %eax
	jmp	L182
L177:
	.loc 5 1008 33
	movl	$0, -40(%ebp)
	.loc 5 1009 150
	movl	-32(%ebp), %eax
	movl	24(%eax), %edx
	.loc 5 1009 60
	movl	-12(%ebp), %eax
	movl	(%eax), %eax
	.loc 5 1009 17
	andl	$1073741823, %eax
	movl	%eax, %ebx
	.loc 5 1009 49
	movl	-12(%ebp), %eax
	movl	24(%eax), %eax
	.loc 5 1009 17
	leal	-40(%ebp), %ecx
	movl	%ecx, 16(%esp)
	movl	%edx, 12(%esp)
	movl	12(%ebp), %edx
	movl	%edx, 8(%esp)
	movl	%ebx, 4(%esp)
	movl	%eax, (%esp)
	call	_DivRem_X_1W
	.loc 5 1010 31
	movl	-36(%ebp), %edx
	.loc 5 1010 49
	movl	-32(%ebp), %eax
	.loc 5 1010 31
	movl	24(%eax), %eax
	movl	%edx, 4(%esp)
	movl	%eax, (%esp)
	call	_CheckBlockLight
	movl	%eax, -16(%ebp)
	.loc 5 1010 20
	cmpl	$0, -16(%ebp)
	je	L179
	.loc 5 1011 28
	movl	-16(%ebp), %eax
	jmp	L182
L179:
	.loc 5 1012 17
	movl	-32(%ebp), %eax
	movl	%eax, (%esp)
	call	_CommitNumber
	.loc 5 1013 20
	movl	-40(%ebp), %edx
	movl	20(%ebp), %eax
	movl	%edx, (%eax)
	.loc 5 1014 23
	movl	-32(%ebp), %eax
	.loc 5 1014 21
	movzbl	16(%eax), %eax
	andl	$2, %eax
	.loc 5 1014 20
	testb	%al, %al
	je	L173
	.loc 5 1016 21
	movl	-32(%ebp), %eax
	movl	%eax, (%esp)
	call	_DeallocateNumber
	.loc 5 1017 24
	movl	$_number_zero, -32(%ebp)
L173:
LBE39:
LBE38:
	.loc 5 1022 8
	movl	-32(%ebp), %edx
	movl	16(%ebp), %eax
	movl	%edx, (%eax)
	.loc 5 1024 19
	movl	-32(%ebp), %eax
	movl	%eax, (%esp)
	call	_CheckNumber
	movl	%eax, -16(%ebp)
	.loc 5 1024 8
	cmpl	$0, -16(%ebp)
	je	L181
	.loc 5 1025 16
	movl	-16(%ebp), %eax
	jmp	L182
L181:
	.loc 5 1027 12
	movl	$0, %eax
L182:
	.loc 5 1028 1 discriminator 1
	addl	$68, %esp
	popl	%ebx
	.cfi_restore 3
	popl	%ebp
	.cfi_restore 5
	.cfi_def_cfa 4, 4
	ret	$16
	.cfi_endproc
LFE4293:
	.globl	_PMC_DivRem_X_L@20
	.def	_PMC_DivRem_X_L@20;	.scl	2;	.type	32;	.endef
_PMC_DivRem_X_L@20:
LFB4294:
	.loc 5 1031 1
	.cfi_startproc
	pushl	%ebp
	.cfi_def_cfa_offset 8
	.cfi_offset 5, -8
	movl	%esp, %ebp
	.cfi_def_cfa_register 5
	pushl	%esi
	pushl	%ebx
	subl	$160, %esp
	.cfi_offset 6, -12
	.cfi_offset 3, -16
	movl	12(%ebp), %eax
	movl	%eax, -128(%ebp)
	movl	16(%ebp), %eax
	movl	%eax, -124(%ebp)
	.loc 5 1037 8
	cmpl	$0, 8(%ebp)
	jne	L184
	.loc 5 1038 16
	movl	$-1, %eax
	jmp	L213
L184:
	.loc 5 1039 8
	cmpl	$0, 20(%ebp)
	jne	L186
	.loc 5 1040 16
	movl	$-1, %eax
	jmp	L213
L186:
	.loc 5 1041 8
	cmpl	$0, 24(%ebp)
	jne	L187
	.loc 5 1042 16
	movl	$-1, %eax
	jmp	L213
L187:
	.loc 5 1043 20
	movl	8(%ebp), %eax
	movl	%eax, -12(%ebp)
	.loc 5 1045 19
	movl	-12(%ebp), %eax
	movl	%eax, (%esp)
	call	_CheckNumber
	movl	%eax, -16(%ebp)
	.loc 5 1045 8
	cmpl	$0, -16(%ebp)
	je	L188
	.loc 5 1046 16
	movl	-16(%ebp), %eax
	jmp	L213
L188:
	.loc 5 1047 8
	movl	-128(%ebp), %eax
	xorb	$0, %ah
	movl	%eax, -136(%ebp)
	movl	-124(%ebp), %eax
	xorb	$0, %ah
	movl	%eax, -132(%ebp)
	movl	-136(%ebp), %edx
	movl	-132(%ebp), %ecx
	movl	%ecx, %eax
	orl	%edx, %eax
	testl	%eax, %eax
	jne	L189
	.loc 5 1052 16
	movl	$-3, %eax
	jmp	L213
L189:
	.loc 5 1055 9
	movl	-12(%ebp), %eax
	movzbl	16(%eax), %eax
	andl	$2, %eax
	.loc 5 1055 8
	testb	%al, %al
	je	L190
	.loc 5 1060 12
	movl	$_number_zero, -60(%ebp)
	.loc 5 1061 12
	movl	24(%ebp), %eax
	movl	$0, (%eax)
	movl	$0, 4(%eax)
	jmp	L191
L190:
	.loc 5 1067 12
	movl	-128(%ebp), %eax
	xorl	$1, %eax
	movl	%eax, %ebx
	movl	-124(%ebp), %eax
	xorb	$0, %ah
	movl	%eax, %esi
	movl	%esi, %eax
	orl	%ebx, %eax
	testl	%eax, %eax
	jne	L192
	.loc 5 1072 27
	leal	-60(%ebp), %eax
	movl	%eax, 4(%esp)
	movl	-12(%ebp), %eax
	movl	%eax, (%esp)
	call	_DuplicateNumber
	movl	%eax, -16(%ebp)
	.loc 5 1072 16
	cmpl	$0, -16(%ebp)
	je	L193
	.loc 5 1073 24
	movl	-16(%ebp), %eax
	jmp	L213
L193:
	.loc 5 1074 16
	movl	24(%ebp), %eax
	movl	$0, (%eax)
	movl	$0, 4(%eax)
	jmp	L191
L192:
LBB40:
	.loc 5 1081 25
	movl	-12(%ebp), %eax
	movl	4(%eax), %eax
	movl	%eax, -20(%ebp)
LBB41:
	.loc 5 1086 34
	leal	-64(%ebp), %eax
	movl	%eax, 8(%esp)
	movl	-128(%ebp), %eax
	movl	-124(%ebp), %edx
	movl	%eax, (%esp)
	movl	%edx, 4(%esp)
	call	__FROMDWORDTOWORD
	movl	%eax, -24(%ebp)
	.loc 5 1087 26
	movl	-64(%ebp), %eax
	.loc 5 1087 20
	testl	%eax, %eax
	jne	L194
LBB42:
	.loc 5 1090 66
	movl	-24(%ebp), %eax
	movl	%eax, (%esp)
	call	__LZCNT_ALT_32
	.loc 5 1090 33
	movl	$32, %edx
	subl	%eax, %edx
	movl	%edx, %eax
	movl	%eax, -28(%ebp)
	.loc 5 1091 24
	movl	-20(%ebp), %eax
	cmpl	-28(%ebp), %eax
	jnb	L195
	.loc 5 1096 28
	movl	$_number_zero, -60(%ebp)
	.loc 5 1097 32
	movl	-12(%ebp), %eax
	movl	24(%eax), %eax
	.loc 5 1097 39
	movl	(%eax), %eax
	movl	$0, %edx
	.loc 5 1097 28
	movl	24(%ebp), %ecx
	movl	%eax, (%ecx)
	movl	%edx, 4(%ecx)
	jmp	L191
L195:
LBB43:
	.loc 5 1101 63
	movl	-20(%ebp), %eax
	subl	-28(%ebp), %eax
	.loc 5 1101 37
	addl	$33, %eax
	movl	%eax, -32(%ebp)
	.loc 5 1103 39
	leal	-68(%ebp), %eax
	movl	%eax, 8(%esp)
	movl	-32(%ebp), %eax
	movl	%eax, 4(%esp)
	leal	-60(%ebp), %eax
	movl	%eax, (%esp)
	call	_AllocateNumber
	movl	%eax, -16(%ebp)
	.loc 5 1103 28
	cmpl	$0, -16(%ebp)
	je	L197
	.loc 5 1104 36
	movl	-16(%ebp), %eax
	jmp	L213
L197:
	.loc 5 1105 41
	movl	$0, -72(%ebp)
	.loc 5 1106 161
	movl	-60(%ebp), %eax
	movl	24(%eax), %edx
	.loc 5 1106 68
	movl	-12(%ebp), %eax
	movl	(%eax), %eax
	.loc 5 1106 25
	andl	$1073741823, %eax
	movl	%eax, %ebx
	.loc 5 1106 57
	movl	-12(%ebp), %eax
	movl	24(%eax), %eax
	.loc 5 1106 25
	leal	-72(%ebp), %ecx
	movl	%ecx, 16(%esp)
	movl	%edx, 12(%esp)
	movl	-24(%ebp), %edx
	movl	%edx, 8(%esp)
	movl	%ebx, 4(%esp)
	movl	%eax, (%esp)
	call	_DivRem_X_1W
	.loc 5 1107 39
	movl	-68(%ebp), %edx
	.loc 5 1107 57
	movl	-60(%ebp), %eax
	.loc 5 1107 39
	movl	24(%eax), %eax
	movl	%edx, 4(%esp)
	movl	%eax, (%esp)
	call	_CheckBlockLight
	movl	%eax, -16(%ebp)
	.loc 5 1107 28
	cmpl	$0, -16(%ebp)
	je	L199
	.loc 5 1108 36
	movl	-16(%ebp), %eax
	jmp	L213
L199:
	.loc 5 1109 25
	movl	-60(%ebp), %eax
	movl	%eax, (%esp)
	call	_CommitNumber
	.loc 5 1110 28
	movl	-72(%ebp), %eax
	movl	$0, %edx
	movl	24(%ebp), %ecx
	movl	%eax, (%ecx)
	movl	%edx, 4(%ecx)
	.loc 5 1111 31
	movl	-60(%ebp), %eax
	.loc 5 1111 29
	movzbl	16(%eax), %eax
	andl	$2, %eax
	.loc 5 1111 28
	testb	%al, %al
	je	L191
	.loc 5 1113 29
	movl	-60(%ebp), %eax
	movl	%eax, (%esp)
	call	_DeallocateNumber
	.loc 5 1114 32
	movl	$_number_zero, -60(%ebp)
	jmp	L191
L194:
LBE43:
LBE42:
LBB44:
	.loc 5 1121 63
	movl	-64(%ebp), %eax
	movl	%eax, (%esp)
	call	__LZCNT_ALT_32
	.loc 5 1121 33
	movl	$64, %edx
	subl	%eax, %edx
	movl	%edx, %eax
	movl	%eax, -36(%ebp)
	.loc 5 1122 24
	movl	-20(%ebp), %eax
	cmpl	-36(%ebp), %eax
	jnb	L203
	.loc 5 1127 28
	movl	$_number_zero, -60(%ebp)
LBB45:
	.loc 5 1132 50
	movl	-12(%ebp), %eax
	movl	24(%eax), %eax
	.loc 5 1132 41
	movl	(%eax), %eax
	movl	%eax, -40(%ebp)
	.loc 5 1133 50
	movl	-12(%ebp), %eax
	movl	(%eax), %eax
	.loc 5 1133 87
	cmpl	$1, %eax
	jbe	L204
	.loc 5 1133 76 discriminator 1
	movl	-12(%ebp), %eax
	movl	24(%eax), %eax
	.loc 5 1133 87 discriminator 1
	movl	4(%eax), %eax
	jmp	L205
L204:
	.loc 5 1133 87 is_stmt 0 discriminator 2
	movl	$0, %eax
L205:
	.loc 5 1133 41 is_stmt 1 discriminator 4
	movl	%eax, -44(%ebp)
	.loc 5 1134 34 discriminator 4
	movl	-40(%ebp), %eax
	movl	%eax, 4(%esp)
	movl	-44(%ebp), %eax
	movl	%eax, (%esp)
	call	__FROMWORDTODWORD
	.loc 5 1134 32 discriminator 4
	movl	24(%ebp), %ecx
	movl	%eax, (%ecx)
	movl	%edx, 4(%ecx)
LBE45:
	jmp	L191
L203:
LBB46:
	.loc 5 1139 63
	movl	-20(%ebp), %eax
	subl	-36(%ebp), %eax
	.loc 5 1139 37
	addl	$33, %eax
	movl	%eax, -48(%ebp)
	.loc 5 1140 37
	movl	-20(%ebp), %eax
	addl	$32, %eax
	movl	%eax, -52(%ebp)
	.loc 5 1142 39
	leal	-76(%ebp), %eax
	movl	%eax, 8(%esp)
	movl	-48(%ebp), %eax
	movl	%eax, 4(%esp)
	leal	-60(%ebp), %eax
	movl	%eax, (%esp)
	call	_AllocateNumber
	movl	%eax, -16(%ebp)
	.loc 5 1142 28
	cmpl	$0, -16(%ebp)
	je	L206
	.loc 5 1143 36
	movl	-16(%ebp), %eax
	jmp	L213
L206:
	.loc 5 1144 41
	movl	-24(%ebp), %eax
	movl	%eax, -84(%ebp)
	movl	-64(%ebp), %eax
	movl	%eax, -80(%ebp)
	.loc 5 1145 41
	movl	$0, -92(%ebp)
	movl	$0, -88(%ebp)
	.loc 5 1148 68
	leal	-96(%ebp), %eax
	movl	%eax, 8(%esp)
	leal	-100(%ebp), %eax
	movl	%eax, 4(%esp)
	movl	-52(%ebp), %eax
	movl	%eax, (%esp)
	call	_AllocateBlock
	movl	%eax, -56(%ebp)
	.loc 5 1149 28
	cmpl	$0, -56(%ebp)
	jne	L208
	.loc 5 1151 29
	movl	-60(%ebp), %eax
	movl	%eax, (%esp)
	call	_DeallocateNumber
	.loc 5 1152 36
	movl	$-5, %eax
	jmp	L213
L208:
	.loc 5 1154 26
	movl	_fp_DivRem_X_X, %eax
	.loc 5 1154 213
	movl	-60(%ebp), %edx
	movl	24(%edx), %ecx
	.loc 5 1154 73
	movl	-12(%ebp), %edx
	movl	(%edx), %edx
	.loc 5 1154 26
	movl	%edx, %esi
	andl	$1073741823, %esi
	.loc 5 1154 62
	movl	-12(%ebp), %edx
	movl	24(%edx), %edx
	.loc 5 1154 26
	movl	-56(%ebp), %ebx
	movl	%ebx, 24(%esp)
	movl	%ecx, 20(%esp)
	leal	-92(%ebp), %ecx
	movl	%ecx, 16(%esp)
	movl	$2, 12(%esp)
	leal	-84(%ebp), %ecx
	movl	%ecx, 8(%esp)
	movl	%esi, 4(%esp)
	movl	%edx, (%esp)
	call	*%eax
LVL0:
	.loc 5 1155 39
	movl	-76(%ebp), %edx
	.loc 5 1155 57
	movl	-60(%ebp), %eax
	.loc 5 1155 39
	movl	24(%eax), %eax
	movl	%edx, 4(%esp)
	movl	%eax, (%esp)
	call	_CheckBlockLight
	movl	%eax, -16(%ebp)
	.loc 5 1155 28
	cmpl	$0, -16(%ebp)
	je	L209
	.loc 5 1156 36
	movl	-16(%ebp), %eax
	jmp	L213
L209:
	.loc 5 1157 39
	movl	-96(%ebp), %eax
	movl	%eax, 4(%esp)
	movl	-56(%ebp), %eax
	movl	%eax, (%esp)
	call	_CheckBlockLight
	movl	%eax, -16(%ebp)
	.loc 5 1157 28
	cmpl	$0, -16(%ebp)
	je	L210
	.loc 5 1158 36
	movl	-16(%ebp), %eax
	jmp	L213
L210:
	.loc 5 1159 25
	movl	-60(%ebp), %eax
	movl	%eax, (%esp)
	call	_CommitNumber
	.loc 5 1160 30
	movl	-56(%ebp), %eax
	movl	(%eax), %edx
	.loc 5 1160 63
	movl	-56(%ebp), %eax
	addl	$4, %eax
	.loc 5 1160 30
	movl	(%eax), %eax
	movl	%edx, 4(%esp)
	movl	%eax, (%esp)
	call	__FROMWORDTODWORD
	.loc 5 1160 28
	movl	24(%ebp), %ecx
	movl	%eax, (%ecx)
	movl	%edx, 4(%ecx)
	.loc 5 1161 25
	movl	-100(%ebp), %eax
	movl	%eax, 4(%esp)
	movl	-56(%ebp), %eax
	movl	%eax, (%esp)
	call	_DeallocateBlock
	.loc 5 1162 31
	movl	-60(%ebp), %eax
	.loc 5 1162 29
	movzbl	16(%eax), %eax
	andl	$2, %eax
	.loc 5 1162 28
	testb	%al, %al
	je	L191
	.loc 5 1164 29
	movl	-60(%ebp), %eax
	movl	%eax, (%esp)
	call	_DeallocateNumber
	.loc 5 1165 32
	movl	$_number_zero, -60(%ebp)
L191:
LBE46:
LBE44:
LBE41:
LBE40:
	.loc 5 1207 8
	movl	-60(%ebp), %edx
	movl	20(%ebp), %eax
	movl	%edx, (%eax)
	.loc 5 1209 19
	movl	-60(%ebp), %eax
	movl	%eax, (%esp)
	call	_CheckNumber
	movl	%eax, -16(%ebp)
	.loc 5 1209 8
	cmpl	$0, -16(%ebp)
	je	L212
	.loc 5 1210 16
	movl	-16(%ebp), %eax
	jmp	L213
L212:
	.loc 5 1212 12
	movl	$0, %eax
L213:
	.loc 5 1213 1 discriminator 6
	addl	$160, %esp
	popl	%ebx
	.cfi_restore 3
	popl	%esi
	.cfi_restore 6
	popl	%ebp
	.cfi_restore 5
	.cfi_def_cfa 4, 4
	ret	$20
	.cfi_endproc
LFE4294:
	.globl	_PMC_DivRem_X_X@16
	.def	_PMC_DivRem_X_X@16;	.scl	2;	.type	32;	.endef
_PMC_DivRem_X_X@16:
LFB4295:
	.loc 5 1216 1
	.cfi_startproc
	pushl	%ebp
	.cfi_def_cfa_offset 8
	.cfi_offset 5, -8
	movl	%esp, %ebp
	.cfi_def_cfa_register 5
	pushl	%edi
	pushl	%esi
	pushl	%ebx
	subl	$140, %esp
	.cfi_offset 7, -12
	.cfi_offset 6, -16
	.cfi_offset 3, -20
	.loc 5 1217 8
	cmpl	$0, 8(%ebp)
	jne	L215
	.loc 5 1218 16
	movl	$-1, %eax
	jmp	L247
L215:
	.loc 5 1219 8
	cmpl	$0, 12(%ebp)
	jne	L217
	.loc 5 1220 16
	movl	$-1, %eax
	jmp	L247
L217:
	.loc 5 1221 8
	cmpl	$0, 16(%ebp)
	jne	L218
	.loc 5 1222 16
	movl	$-1, %eax
	jmp	L247
L218:
	.loc 5 1223 8
	cmpl	$0, 20(%ebp)
	jne	L219
	.loc 5 1224 16
	movl	$-1, %eax
	jmp	L247
L219:
	.loc 5 1225 20
	movl	8(%ebp), %eax
	movl	%eax, -28(%ebp)
	.loc 5 1226 20
	movl	12(%ebp), %eax
	movl	%eax, -32(%ebp)
	.loc 5 1228 19
	movl	-28(%ebp), %eax
	movl	%eax, (%esp)
	call	_CheckNumber
	movl	%eax, -36(%ebp)
	.loc 5 1228 8
	cmpl	$0, -36(%ebp)
	je	L220
	.loc 5 1229 16
	movl	-36(%ebp), %eax
	jmp	L247
L220:
	.loc 5 1230 19
	movl	-32(%ebp), %eax
	movl	%eax, (%esp)
	call	_CheckNumber
	movl	%eax, -36(%ebp)
	.loc 5 1230 8
	cmpl	$0, -36(%ebp)
	je	L221
	.loc 5 1231 16
	movl	-36(%ebp), %eax
	jmp	L247
L221:
	.loc 5 1232 9
	movl	-32(%ebp), %eax
	movzbl	16(%eax), %eax
	andl	$2, %eax
	.loc 5 1232 8
	testb	%al, %al
	je	L222
	.loc 5 1237 16
	movl	$-3, %eax
	jmp	L247
L222:
	.loc 5 1241 9
	movl	-28(%ebp), %eax
	movzbl	16(%eax), %eax
	andl	$2, %eax
	.loc 5 1241 8
	testb	%al, %al
	je	L223
	.loc 5 1246 12
	movl	$_number_zero, -68(%ebp)
	.loc 5 1247 12
	movl	$_number_zero, -72(%ebp)
	jmp	L224
L223:
	.loc 5 1253 13
	movl	-32(%ebp), %eax
	movzbl	16(%eax), %eax
	andl	$4, %eax
	.loc 5 1253 12
	testb	%al, %al
	je	L225
	.loc 5 1258 27
	leal	-68(%ebp), %eax
	movl	%eax, 4(%esp)
	movl	-28(%ebp), %eax
	movl	%eax, (%esp)
	call	_DuplicateNumber
	movl	%eax, -36(%ebp)
	.loc 5 1258 16
	cmpl	$0, -36(%ebp)
	je	L226
	.loc 5 1259 24
	movl	-36(%ebp), %eax
	jmp	L247
L226:
	.loc 5 1260 16
	movl	$_number_zero, -72(%ebp)
	jmp	L224
L225:
LBB47:
	.loc 5 1267 25
	movl	-28(%ebp), %eax
	movl	4(%eax), %eax
	movl	%eax, -40(%ebp)
	.loc 5 1268 25
	movl	-32(%ebp), %eax
	movl	4(%eax), %eax
	movl	%eax, -44(%ebp)
	.loc 5 1269 16
	movl	-40(%ebp), %eax
	cmpl	-44(%ebp), %eax
	jnb	L227
	.loc 5 1274 20
	movl	$_number_zero, -68(%ebp)
	.loc 5 1275 31
	leal	-72(%ebp), %eax
	movl	%eax, 4(%esp)
	movl	-28(%ebp), %eax
	movl	%eax, (%esp)
	call	_DuplicateNumber
	movl	%eax, -36(%ebp)
	.loc 5 1275 20
	cmpl	$0, -36(%ebp)
	je	L224
	.loc 5 1276 28
	movl	-36(%ebp), %eax
	jmp	L247
L227:
	.loc 5 1278 21
	cmpl	$32, -44(%ebp)
	ja	L228
LBB48:
	.loc 5 1282 55
	movl	-40(%ebp), %eax
	subl	-44(%ebp), %eax
	.loc 5 1282 29
	addl	$33, %eax
	movl	%eax, -48(%ebp)
	.loc 5 1284 31
	leal	-76(%ebp), %eax
	movl	%eax, 8(%esp)
	movl	-48(%ebp), %eax
	movl	%eax, 4(%esp)
	leal	-68(%ebp), %eax
	movl	%eax, (%esp)
	call	_AllocateNumber
	movl	%eax, -36(%ebp)
	.loc 5 1284 20
	cmpl	$0, -36(%ebp)
	je	L229
	.loc 5 1285 28
	movl	-36(%ebp), %eax
	jmp	L247
L229:
	.loc 5 1286 29
	movl	$32, -52(%ebp)
	.loc 5 1288 31
	leal	-80(%ebp), %eax
	movl	%eax, 8(%esp)
	movl	-52(%ebp), %eax
	movl	%eax, 4(%esp)
	leal	-72(%ebp), %eax
	movl	%eax, (%esp)
	call	_AllocateNumber
	movl	%eax, -36(%ebp)
	.loc 5 1288 20
	cmpl	$0, -36(%ebp)
	je	L231
	.loc 5 1290 21
	movl	-68(%ebp), %eax
	movl	%eax, (%esp)
	call	_DeallocateNumber
	.loc 5 1291 28
	movl	-36(%ebp), %eax
	jmp	L247
L231:
	.loc 5 1293 207
	movl	-72(%ebp), %eax
	movl	24(%eax), %ebx
	.loc 5 1293 178
	movl	-68(%ebp), %eax
	movl	24(%eax), %ecx
	.loc 5 1293 146
	movl	-32(%ebp), %eax
	movl	24(%eax), %eax
	.loc 5 1293 17
	movl	(%eax), %edx
	.loc 5 1293 60
	movl	-28(%ebp), %eax
	movl	(%eax), %eax
	.loc 5 1293 17
	andl	$1073741823, %eax
	movl	%eax, %esi
	.loc 5 1293 49
	movl	-28(%ebp), %eax
	movl	24(%eax), %eax
	.loc 5 1293 17
	movl	%ebx, 16(%esp)
	movl	%ecx, 12(%esp)
	movl	%edx, 8(%esp)
	movl	%esi, 4(%esp)
	movl	%eax, (%esp)
	call	_DivRem_X_1W
	.loc 5 1294 31
	movl	-76(%ebp), %edx
	.loc 5 1294 49
	movl	-68(%ebp), %eax
	.loc 5 1294 31
	movl	24(%eax), %eax
	movl	%edx, 4(%esp)
	movl	%eax, (%esp)
	call	_CheckBlockLight
	movl	%eax, -36(%ebp)
	.loc 5 1294 20
	cmpl	$0, -36(%ebp)
	je	L232
	.loc 5 1295 28
	movl	-36(%ebp), %eax
	jmp	L247
L232:
	.loc 5 1296 31
	movl	-80(%ebp), %edx
	.loc 5 1296 49
	movl	-72(%ebp), %eax
	.loc 5 1296 31
	movl	24(%eax), %eax
	movl	%edx, 4(%esp)
	movl	%eax, (%esp)
	call	_CheckBlockLight
	movl	%eax, -36(%ebp)
	.loc 5 1296 20
	cmpl	$0, -36(%ebp)
	je	L233
	.loc 5 1297 28
	movl	-36(%ebp), %eax
	jmp	L247
L233:
	.loc 5 1298 17
	movl	-68(%ebp), %eax
	movl	%eax, (%esp)
	call	_CommitNumber
	.loc 5 1299 17
	movl	-72(%ebp), %eax
	movl	%eax, (%esp)
	call	_CommitNumber
	.loc 5 1300 23
	movl	-68(%ebp), %eax
	.loc 5 1300 21
	movzbl	16(%eax), %eax
	andl	$2, %eax
	.loc 5 1300 20
	testb	%al, %al
	je	L234
	.loc 5 1302 21
	movl	-68(%ebp), %eax
	movl	%eax, (%esp)
	call	_DeallocateNumber
	.loc 5 1303 24
	movl	$_number_zero, -68(%ebp)
L234:
	.loc 5 1305 23
	movl	-72(%ebp), %eax
	.loc 5 1305 21
	movzbl	16(%eax), %eax
	andl	$2, %eax
	.loc 5 1305 20
	testb	%al, %al
	je	L224
	.loc 5 1307 21
	movl	-72(%ebp), %eax
	movl	%eax, (%esp)
	call	_DeallocateNumber
	.loc 5 1308 24
	movl	$_number_zero, -72(%ebp)
	jmp	L224
L228:
LBE48:
LBB49:
	.loc 5 1314 55
	movl	-40(%ebp), %eax
	subl	-44(%ebp), %eax
	.loc 5 1314 29
	addl	$33, %eax
	movl	%eax, -56(%ebp)
	.loc 5 1315 29
	movl	-40(%ebp), %eax
	addl	$32, %eax
	movl	%eax, -60(%ebp)
	.loc 5 1317 31
	leal	-84(%ebp), %eax
	movl	%eax, 8(%esp)
	movl	-56(%ebp), %eax
	movl	%eax, 4(%esp)
	leal	-68(%ebp), %eax
	movl	%eax, (%esp)
	call	_AllocateNumber
	movl	%eax, -36(%ebp)
	.loc 5 1317 20
	cmpl	$0, -36(%ebp)
	je	L236
	.loc 5 1318 28
	movl	-36(%ebp), %eax
	jmp	L247
L236:
	.loc 5 1320 31
	leal	-88(%ebp), %eax
	movl	%eax, 8(%esp)
	movl	-60(%ebp), %eax
	movl	%eax, 4(%esp)
	leal	-72(%ebp), %eax
	movl	%eax, (%esp)
	call	_AllocateNumber
	movl	%eax, -36(%ebp)
	.loc 5 1320 20
	cmpl	$0, -36(%ebp)
	je	L238
	.loc 5 1322 21
	movl	-68(%ebp), %eax
	movl	%eax, (%esp)
	call	_DeallocateNumber
	.loc 5 1323 28
	movl	-36(%ebp), %eax
	jmp	L247
L238:
	.loc 5 1327 81
	movl	-32(%ebp), %eax
	movl	(%eax), %eax
	.loc 5 1327 65
	sall	$5, %eax
	movl	%eax, %edx
	leal	-92(%ebp), %eax
	movl	%eax, 8(%esp)
	leal	-96(%ebp), %eax
	movl	%eax, 4(%esp)
	movl	%edx, (%esp)
	call	_AllocateBlock
	movl	%eax, -64(%ebp)
	.loc 5 1328 20
	cmpl	$0, -64(%ebp)
	jne	L239
	.loc 5 1330 21
	movl	-68(%ebp), %eax
	movl	%eax, (%esp)
	call	_DeallocateNumber
	.loc 5 1331 28
	movl	$-5, %eax
	jmp	L247
L239:
	.loc 5 1334 18
	movl	_fp_DivRem_X_X, %ecx
	.loc 5 1334 291
	movl	-72(%ebp), %eax
	movl	24(%eax), %edi
	.loc 5 1334 262
	movl	-68(%ebp), %eax
	movl	24(%eax), %esi
	.loc 5 1334 163
	movl	-32(%ebp), %eax
	movl	(%eax), %eax
	.loc 5 1334 18
	andl	$1073741823, %eax
	movl	%eax, -108(%ebp)
	.loc 5 1334 152
	movl	-32(%ebp), %eax
	movl	24(%eax), %ebx
	.loc 5 1334 65
	movl	-28(%ebp), %eax
	movl	(%eax), %eax
	.loc 5 1334 18
	movl	%eax, %edx
	andl	$1073741823, %edx
	movl	%edx, -112(%ebp)
	.loc 5 1334 54
	movl	-28(%ebp), %eax
	movl	24(%eax), %edx
	.loc 5 1334 18
	movl	%edi, 24(%esp)
	movl	%esi, 20(%esp)
	movl	-64(%ebp), %eax
	movl	%eax, 16(%esp)
	movl	-108(%ebp), %eax
	movl	%eax, 12(%esp)
	movl	%ebx, 8(%esp)
	movl	-112(%ebp), %eax
	movl	%eax, 4(%esp)
	movl	%edx, (%esp)
	call	*%ecx
LVL1:
	.loc 5 1335 31
	movl	-92(%ebp), %eax
	movl	%eax, 4(%esp)
	movl	-64(%ebp), %eax
	movl	%eax, (%esp)
	call	_CheckBlockLight
	movl	%eax, -36(%ebp)
	.loc 5 1335 20
	cmpl	$0, -36(%ebp)
	je	L240
	.loc 5 1336 28
	movl	-36(%ebp), %eax
	jmp	L247
L240:
	.loc 5 1337 31
	movl	-84(%ebp), %edx
	.loc 5 1337 49
	movl	-68(%ebp), %eax
	.loc 5 1337 31
	movl	24(%eax), %eax
	movl	%edx, 4(%esp)
	movl	%eax, (%esp)
	call	_CheckBlockLight
	movl	%eax, -36(%ebp)
	.loc 5 1337 20
	cmpl	$0, -36(%ebp)
	je	L241
	.loc 5 1338 28
	movl	-36(%ebp), %eax
	jmp	L247
L241:
	.loc 5 1339 31
	movl	-84(%ebp), %edx
	.loc 5 1339 49
	movl	-68(%ebp), %eax
	.loc 5 1339 31
	movl	24(%eax), %eax
	movl	%edx, 4(%esp)
	movl	%eax, (%esp)
	call	_CheckBlockLight
	movl	%eax, -36(%ebp)
	.loc 5 1339 20
	cmpl	$0, -36(%ebp)
	je	L242
	.loc 5 1340 28
	movl	-36(%ebp), %eax
	jmp	L247
L242:
	.loc 5 1341 17
	movl	-96(%ebp), %eax
	movl	%eax, 4(%esp)
	movl	-64(%ebp), %eax
	movl	%eax, (%esp)
	call	_DeallocateBlock
	.loc 5 1342 17
	movl	-68(%ebp), %eax
	movl	%eax, (%esp)
	call	_CommitNumber
	.loc 5 1343 17
	movl	-72(%ebp), %eax
	movl	%eax, (%esp)
	call	_CommitNumber
	.loc 5 1344 23
	movl	-68(%ebp), %eax
	.loc 5 1344 21
	movzbl	16(%eax), %eax
	andl	$2, %eax
	.loc 5 1344 20
	testb	%al, %al
	je	L243
	.loc 5 1346 21
	movl	-68(%ebp), %eax
	movl	%eax, (%esp)
	call	_DeallocateNumber
	.loc 5 1347 24
	movl	$_number_zero, -68(%ebp)
L243:
	.loc 5 1349 23
	movl	-72(%ebp), %eax
	.loc 5 1349 21
	movzbl	16(%eax), %eax
	andl	$2, %eax
	.loc 5 1349 20
	testb	%al, %al
	je	L224
	.loc 5 1351 21
	movl	-72(%ebp), %eax
	movl	%eax, (%esp)
	call	_DeallocateNumber
	.loc 5 1352 24
	movl	$_number_zero, -72(%ebp)
L224:
LBE49:
LBE47:
	.loc 5 1357 8
	movl	-68(%ebp), %edx
	movl	16(%ebp), %eax
	movl	%edx, (%eax)
	.loc 5 1358 8
	movl	-72(%ebp), %edx
	movl	20(%ebp), %eax
	movl	%edx, (%eax)
	.loc 5 1360 19
	movl	16(%ebp), %eax
	movl	(%eax), %eax
	movl	%eax, (%esp)
	call	_CheckNumber
	movl	%eax, -36(%ebp)
	.loc 5 1360 8
	cmpl	$0, -36(%ebp)
	je	L245
	.loc 5 1361 16
	movl	-36(%ebp), %eax
	jmp	L247
L245:
	.loc 5 1362 19
	movl	20(%ebp), %eax
	movl	(%eax), %eax
	movl	%eax, (%esp)
	call	_CheckNumber
	movl	%eax, -36(%ebp)
	.loc 5 1362 8
	cmpl	$0, -36(%ebp)
	je	L246
	.loc 5 1363 16
	movl	-36(%ebp), %eax
	jmp	L247
L246:
	.loc 5 1365 12
	movl	$0, %eax
L247:
	.loc 5 1366 1 discriminator 2
	addl	$140, %esp
	popl	%ebx
	.cfi_restore 3
	popl	%esi
	.cfi_restore 6
	popl	%edi
	.cfi_restore 7
	popl	%ebp
	.cfi_restore 5
	.cfi_def_cfa 4, 4
	ret	$16
	.cfi_endproc
LFE4295:
	.globl	_Initialize_DivRem
	.def	_Initialize_DivRem;	.scl	2;	.type	32;	.endef
_Initialize_DivRem:
LFB4296:
	.loc 5 1369 1
	.cfi_startproc
	pushl	%ebp
	.cfi_def_cfa_offset 8
	.cfi_offset 5, -8
	movl	%esp, %ebp
	.cfi_def_cfa_register 5
	.loc 5 1370 21
	movl	8(%ebp), %eax
	movzbl	(%eax), %eax
	andl	$2, %eax
	.loc 5 1370 115
	testb	%al, %al
	je	L249
	.loc 5 1370 52 discriminator 1
	movl	8(%ebp), %eax
	movzbl	(%eax), %eax
	andl	$8, %eax
	testb	%al, %al
	je	L249
	.loc 5 1370 115 discriminator 3
	movl	$_DivRem_X_X_using_ADX_MULX, %eax
	jmp	L250
L249:
	.loc 5 1370 115 is_stmt 0 discriminator 4
	movl	$_DivRem_X_X_using_ADC_MUL, %eax
L250:
	.loc 5 1370 19 is_stmt 1 discriminator 6
	movl	%eax, _fp_DivRem_X_X
	.loc 5 1371 12 discriminator 6
	movl	$0, %eax
	.loc 5 1372 1 discriminator 6
	popl	%ebp
	.cfi_restore 5
	.cfi_def_cfa 4, 4
	ret
	.cfi_endproc
LFE4296:
Letext0:
	.file 6 "C:/GNU/MINGW64/i686-8.1.0-win32-dwarf-rt_v6-rev0/mingw32/i686-w64-mingw32/include/crtdefs.h"
	.file 7 "C:/GNU/MINGW64/i686-8.1.0-win32-dwarf-rt_v6-rev0/mingw32/i686-w64-mingw32/include/excpt.h"
	.file 8 "C:/GNU/MINGW64/i686-8.1.0-win32-dwarf-rt_v6-rev0/mingw32/i686-w64-mingw32/include/minwindef.h"
	.file 9 "C:/GNU/MINGW64/i686-8.1.0-win32-dwarf-rt_v6-rev0/mingw32/i686-w64-mingw32/include/ctype.h"
	.file 10 "C:/GNU/MINGW64/i686-8.1.0-win32-dwarf-rt_v6-rev0/mingw32/i686-w64-mingw32/include/winnt.h"
	.file 11 "C:/GNU/MINGW64/i686-8.1.0-win32-dwarf-rt_v6-rev0/mingw32/i686-w64-mingw32/include/guiddef.h"
	.file 12 "C:/GNU/MINGW64/i686-8.1.0-win32-dwarf-rt_v6-rev0/mingw32/i686-w64-mingw32/include/rpcdce.h"
	.file 13 "C:/GNU/MINGW64/i686-8.1.0-win32-dwarf-rt_v6-rev0/mingw32/i686-w64-mingw32/include/stdlib.h"
	.file 14 "C:/GNU/MINGW64/i686-8.1.0-win32-dwarf-rt_v6-rev0/mingw32/i686-w64-mingw32/include/malloc.h"
	.file 15 "C:/GNU/MINGW64/i686-8.1.0-win32-dwarf-rt_v6-rev0/mingw32/i686-w64-mingw32/include/wtypesbase.h"
	.file 16 "C:/GNU/MINGW64/i686-8.1.0-win32-dwarf-rt_v6-rev0/mingw32/i686-w64-mingw32/include/unknwnbase.h"
	.file 17 "C:/GNU/MINGW64/i686-8.1.0-win32-dwarf-rt_v6-rev0/mingw32/i686-w64-mingw32/include/objidlbase.h"
	.file 18 "C:/GNU/MINGW64/i686-8.1.0-win32-dwarf-rt_v6-rev0/mingw32/i686-w64-mingw32/include/cguid.h"
	.file 19 "C:/GNU/MINGW64/i686-8.1.0-win32-dwarf-rt_v6-rev0/mingw32/i686-w64-mingw32/include/wtypes.h"
	.file 20 "C:/GNU/MINGW64/i686-8.1.0-win32-dwarf-rt_v6-rev0/mingw32/i686-w64-mingw32/include/combaseapi.h"
	.file 21 "C:/GNU/MINGW64/i686-8.1.0-win32-dwarf-rt_v6-rev0/mingw32/i686-w64-mingw32/include/objidl.h"
	.file 22 "C:/GNU/MINGW64/i686-8.1.0-win32-dwarf-rt_v6-rev0/mingw32/i686-w64-mingw32/include/oleidl.h"
	.file 23 "C:/GNU/MINGW64/i686-8.1.0-win32-dwarf-rt_v6-rev0/mingw32/i686-w64-mingw32/include/servprov.h"
	.file 24 "C:/GNU/MINGW64/i686-8.1.0-win32-dwarf-rt_v6-rev0/mingw32/i686-w64-mingw32/include/oaidl.h"
	.file 25 "C:/GNU/MINGW64/i686-8.1.0-win32-dwarf-rt_v6-rev0/mingw32/i686-w64-mingw32/include/msxml.h"
	.file 26 "C:/GNU/MINGW64/i686-8.1.0-win32-dwarf-rt_v6-rev0/mingw32/i686-w64-mingw32/include/urlmon.h"
	.file 27 "C:/GNU/MINGW64/i686-8.1.0-win32-dwarf-rt_v6-rev0/mingw32/i686-w64-mingw32/include/propidl.h"
	.file 28 "C:/GNU/MINGW64/i686-8.1.0-win32-dwarf-rt_v6-rev0/mingw32/i686-w64-mingw32/include/oleauto.h"
	.file 29 "C:/GNU/MINGW64/i686-8.1.0-win32-dwarf-rt_v6-rev0/mingw32/i686-w64-mingw32/include/winioctl.h"
	.file 30 "C:/GNU/MINGW64/i686-8.1.0-win32-dwarf-rt_v6-rev0/mingw32/i686-w64-mingw32/include/winsmcrd.h"
	.file 31 "C:/GNU/MINGW64/i686-8.1.0-win32-dwarf-rt_v6-rev0/mingw32/i686-w64-mingw32/include/winscard.h"
	.file 32 "C:/GNU/MINGW64/i686-8.1.0-win32-dwarf-rt_v6-rev0/mingw32/i686-w64-mingw32/include/commdlg.h"
	.file 33 "C:/GNU/MINGW64/i686-8.1.0-win32-dwarf-rt_v6-rev0/mingw32/i686-w64-mingw32/include/stdint.h"
	.file 34 "pmc.h"
	.file 35 "pmc_cpuid.h"