	.file	"pmc_parse.c"
	.text
Ltext0:
	.def	__COPY_MEMORY_UNIT;	.scl	3;	.type	32;	.endef
__COPY_MEMORY_UNIT:
LFB4184:
	.file 1 "pmc_internal.h"
	.loc 1 277 1
	.cfi_startproc
	pushl	%ebp
	.cfi_def_cfa_offset 8
	.cfi_offset 5, -8
	movl	%esp, %ebp
	.cfi_def_cfa_register 5
	pushl	%edi
	pushl	%esi
	pushl	%ebx
	subl	$16, %esp
	.cfi_offset 7, -12
	.cfi_offset 6, -16
	.cfi_offset 3, -20
	movl	8(%ebp), %eax
	movl	%eax, -16(%ebp)
	movl	12(%ebp), %eax
	movl	%eax, -20(%ebp)
	movl	16(%ebp), %eax
	movl	%eax, -24(%ebp)
LBB8:
LBB9:
	.file 2 "C:/GNU/MINGW64/i686-8.1.0-win32-dwarf-rt_v6-rev0/mingw32/i686-w64-mingw32/include/psdk_inc/intrin-impl.h"
	.loc 2 1773 87
	movl	-16(%ebp), %ecx
	movl	-20(%ebp), %edx
	movl	-24(%ebp), %eax
	movl	%ecx, %ebx
	movl	%ebx, %edi
	movl	%edx, %esi
	movl	%eax, %ecx
/APP
 # 1773 "C:/GNU/MINGW64/i686-8.1.0-win32-dwarf-rt_v6-rev0/mingw32/i686-w64-mingw32/include/psdk_inc/intrin-impl.h" 1
	rep movsd
 # 0 "" 2
/NO_APP
	movl	%ecx, %eax
	movl	%esi, %edx
	movl	%edi, %ebx
	movl	%ebx, -16(%ebp)
	movl	%edx, -20(%ebp)
	movl	%eax, -24(%ebp)
LBE9:
LBE8:
	.loc 1 285 1
	nop
	addl	$16, %esp
	popl	%ebx
	.cfi_restore 3
	popl	%esi
	.cfi_restore 6
	popl	%edi
	.cfi_restore 7
	popl	%ebp
	.cfi_restore 5
	.cfi_def_cfa 4, 4
	ret
	.cfi_endproc
LFE4184:
	.def	__DIVIDE_CEILING_UNIT;	.scl	3;	.type	32;	.endef
__DIVIDE_CEILING_UNIT:
LFB4198:
	.loc 1 404 1
	.cfi_startproc
	pushl	%ebp
	.cfi_def_cfa_offset 8
	.cfi_offset 5, -8
	movl	%esp, %ebp
	.cfi_def_cfa_register 5
	.loc 1 405 16
	movl	8(%ebp), %edx
	movl	12(%ebp), %eax
	addl	%edx, %eax
	.loc 1 405 20
	subl	$1, %eax
	.loc 1 405 25
	movl	$0, %edx
	divl	12(%ebp)
	.loc 1 406 1
	popl	%ebp
	.cfi_restore 5
	.cfi_def_cfa 4, 4
	ret
	.cfi_endproc
LFE4198:
	.def	__DIVIDE_CEILING_SIZE;	.scl	3;	.type	32;	.endef
__DIVIDE_CEILING_SIZE:
LFB4199:
	.loc 1 409 1
	.cfi_startproc
	pushl	%ebp
	.cfi_def_cfa_offset 8
	.cfi_offset 5, -8
	movl	%esp, %ebp
	.cfi_def_cfa_register 5
	.loc 1 410 16
	movl	8(%ebp), %edx
	movl	12(%ebp), %eax
	addl	%edx, %eax
	.loc 1 410 20
	subl	$1, %eax
	.loc 1 410 25
	movl	$0, %edx
	divl	12(%ebp)
	.loc 1 411 1
	popl	%ebp
	.cfi_restore 5
	.cfi_def_cfa 4, 4
	ret
	.cfi_endproc
LFE4199:
	.def	__ADD_UNIT;	.scl	3;	.type	32;	.endef
__ADD_UNIT:
LFB4202:
	.loc 1 424 1
	.cfi_startproc
	pushl	%ebp
	.cfi_def_cfa_offset 8
	.cfi_offset 5, -8
	movl	%esp, %ebp
	.cfi_def_cfa_register 5
	pushl	%ebx
	subl	$20, %esp
	.cfi_offset 3, -12
	movl	8(%ebp), %eax
	movb	%al, -24(%ebp)
	.loc 1 426 13
	movzbl	-24(%ebp), %eax
	movzbl	%al, %eax
	movb	%al, -5(%ebp)
	movl	12(%ebp), %eax
	movl	%eax, -12(%ebp)
	movl	16(%ebp), %eax
	movl	%eax, -16(%ebp)
	movl	20(%ebp), %eax
	movl	%eax, -20(%ebp)
LBB10:
LBB11:
	.file 3 "C:/GNU/MINGW64/i686-8.1.0-win32-dwarf-rt_v6-rev0/mingw32/lib/gcc/i686-w64-mingw32/8.1.0/include/adxintrin.h"
	.loc 3 44 10
	movzbl	-5(%ebp), %eax
	movl	%eax, %ebx
	movl	-12(%ebp), %ecx
	movl	-16(%ebp), %eax
	movl	-20(%ebp), %edx
	addb	$-1, %bl
	adcl	%ecx, %eax
	setc	%cl
	movl	%eax, (%edx)
LBE11:
LBE10:
	.loc 1 426 13
	movl	%ecx, %eax
	.loc 1 432 1
	addl	$20, %esp
	popl	%ebx
	.cfi_restore 3
	popl	%ebp
	.cfi_restore 5
	.cfi_def_cfa 4, 4
	ret
	.cfi_endproc
LFE4202:
	.def	__ADDX_UNIT;	.scl	3;	.type	32;	.endef
__ADDX_UNIT:
LFB4204:
	.loc 1 452 1
	.cfi_startproc
	pushl	%ebp
	.cfi_def_cfa_offset 8
	.cfi_offset 5, -8
	movl	%esp, %ebp
	.cfi_def_cfa_register 5
	pushl	%ebx
	subl	$20, %esp
	.cfi_offset 3, -12
	movl	8(%ebp), %eax
	movb	%al, -24(%ebp)
	.loc 1 454 13
	movzbl	-24(%ebp), %eax
	movzbl	%al, %eax
	movb	%al, -5(%ebp)
	movl	12(%ebp), %eax
	movl	%eax, -12(%ebp)
	movl	16(%ebp), %eax
	movl	%eax, -16(%ebp)
	movl	20(%ebp), %eax
	movl	%eax, -20(%ebp)
LBB12:
LBB13:
	.loc 3 52 10
	movzbl	-5(%ebp), %eax
	movl	%eax, %ebx
	movl	-12(%ebp), %ecx
	movl	-16(%ebp), %eax
	movl	-20(%ebp), %edx
	addb	$-1, %bl
	adcl	%ecx, %eax
	setc	%cl
	movl	%eax, (%edx)
LBE13:
LBE12:
	.loc 1 454 13
	movl	%ecx, %eax
	.loc 1 460 1
	addl	$20, %esp
	popl	%ebx
	.cfi_restore 3
	popl	%ebp
	.cfi_restore 5
	.cfi_def_cfa 4, 4
	ret
	.cfi_endproc
LFE4204:
	.def	__MULTIPLY_UNIT;	.scl	3;	.type	32;	.endef
__MULTIPLY_UNIT:
LFB4208:
	.loc 1 508 1
	.cfi_startproc
	pushl	%ebp
	.cfi_def_cfa_offset 8
	.cfi_offset 5, -8
	movl	%esp, %ebp
	.cfi_def_cfa_register 5
	subl	$16, %esp
	.loc 1 514 5
	movl	8(%ebp), %eax
/APP
 # 514 "pmc_internal.h" 1
	mull 12(%ebp)
 # 0 "" 2
/NO_APP
	movl	%eax, -4(%ebp)
	movl	16(%ebp), %eax
	movl	%edx, (%eax)
	.loc 1 515 12
	movl	-4(%ebp), %eax
	.loc 1 524 1
	leave
	.cfi_restore 5
	.cfi_def_cfa 4, 4
	ret
	.cfi_endproc
LFE4208:
	.def	__MULTIPLYX_UNIT;	.scl	3;	.type	32;	.endef
__MULTIPLYX_UNIT:
LFB4210:
	.loc 1 546 1
	.cfi_startproc
	pushl	%ebp
	.cfi_def_cfa_offset 8
	.cfi_offset 5, -8
	movl	%esp, %ebp
	.cfi_def_cfa_register 5
	pushl	%ebx
	subl	$16, %esp
	.cfi_offset 3, -12
	.loc 1 558 5
	movl	8(%ebp), %eax
	movl	%eax, %edx
/APP
 # 558 "pmc_internal.h" 1
	mulxl 12(%ebp), %ebx, %ecx
 # 0 "" 2
/NO_APP
	movl	%edx, %eax
	movl	%ebx, -8(%ebp)
	movl	16(%ebp), %edx
	movl	%ecx, (%edx)
	movl	%eax, 8(%ebp)
	.loc 1 559 12
	movl	-8(%ebp), %eax
	.loc 1 570 1
	addl	$16, %esp
	popl	%ebx
	.cfi_restore 3
	popl	%ebp
	.cfi_restore 5
	.cfi_def_cfa 4, 4
	ret
	.cfi_endproc
LFE4210:
.lcomm _default_number_format_option,40,32
.lcomm _fp_MultiplyAndAdd,4,4
	.def	_StartsWith;	.scl	3;	.type	32;	.endef
_StartsWith:
LFB4237:
	.file 4 "pmc_parse.c"
	.loc 4 61 1
	.cfi_startproc
	pushl	%ebp
	.cfi_def_cfa_offset 8
	.cfi_offset 5, -8
	movl	%esp, %ebp
	.cfi_def_cfa_register 5
	.loc 4 62 11
	jmp	L17
L20:
	.loc 4 64 13
	movl	8(%ebp), %eax
	movzwl	(%eax), %edx
	.loc 4 64 19
	movl	12(%ebp), %eax
	movzwl	(%eax), %eax
	.loc 4 64 12
	cmpw	%ax, %dx
	je	L18
	.loc 4 65 20
	movl	$0, %eax
	jmp	L19
L18:
	.loc 4 66 9
	addl	$2, 8(%ebp)
	.loc 4 67 9
	addl	$2, 12(%ebp)
L17:
	.loc 4 62 12
	movl	12(%ebp), %eax
	movzwl	(%eax), %eax
	.loc 4 62 11
	testw	%ax, %ax
	jne	L20
	.loc 4 69 12
	movl	$1, %eax
L19:
	.loc 4 70 1
	popl	%ebp
	.cfi_restore 5
	.cfi_def_cfa 4, 4
	ret
	.cfi_endproc
LFE4237:
	.def	_InitializeParserState;	.scl	3;	.type	32;	.endef
_InitializeParserState:
LFB4238:
	.loc 4 73 1
	.cfi_startproc
	pushl	%ebp
	.cfi_def_cfa_offset 8
	.cfi_offset 5, -8
	movl	%esp, %ebp
	.cfi_def_cfa_register 5
	subl	$24, %esp
	.loc 4 74 19
	movl	8(%ebp), %eax
	movl	12(%ebp), %edx
	movl	%edx, (%eax)
	.loc 4 75 26
	movl	8(%ebp), %eax
	movl	16(%ebp), %edx
	movl	%edx, 4(%eax)
	.loc 4 76 17
	movl	8(%ebp), %eax
	movl	$0, 8(%eax)
	.loc 4 77 49
	movl	20(%ebp), %eax
	leal	16(%eax), %edx
	.loc 4 77 19
	movl	8(%ebp), %eax
	addl	$12, %eax
	.loc 4 77 5
	movl	%edx, 4(%esp)
	movl	%eax, (%esp)
	movl	__imp__lstrcpyW@8, %eax
	call	*%eax
LVL0:
	subl	$8, %esp
	.loc 4 78 49
	movl	8(%ebp), %eax
	addl	$12, %eax
	.loc 4 78 35
	movl	%eax, (%esp)
	movl	__imp__lstrlenW@4, %eax
	call	*%eax
LVL1:
	subl	$4, %esp
	movl	%eax, %edx
	.loc 4 78 33
	movl	8(%ebp), %eax
	movl	%edx, 20(%eax)
	.loc 4 79 49
	movl	20(%ebp), %eax
	leal	22(%eax), %edx
	.loc 4 79 19
	movl	8(%ebp), %eax
	addl	$24, %eax
	.loc 4 79 5
	movl	%edx, 4(%esp)
	movl	%eax, (%esp)
	movl	__imp__lstrcpyW@8, %eax
	call	*%eax
LVL2:
	subl	$8, %esp
	.loc 4 80 49
	movl	8(%ebp), %eax
	addl	$24, %eax
	.loc 4 80 35
	movl	%eax, (%esp)
	movl	__imp__lstrlenW@4, %eax
	call	*%eax
LVL3:
	subl	$4, %esp
	movl	%eax, %edx
	.loc 4 80 33
	movl	8(%ebp), %eax
	movl	%edx, 32(%eax)
	.loc 4 81 53
	movl	20(%ebp), %eax
	leal	10(%eax), %edx
	.loc 4 81 19
	movl	8(%ebp), %eax
	addl	$36, %eax
	.loc 4 81 5
	movl	%edx, 4(%esp)
	movl	%eax, (%esp)
	movl	__imp__lstrcpyW@8, %eax
	call	*%eax
LVL4:
	subl	$8, %esp
	.loc 4 82 53
	movl	8(%ebp), %eax
	addl	$36, %eax
	.loc 4 82 39
	movl	%eax, (%esp)
	movl	__imp__lstrlenW@4, %eax
	call	*%eax
LVL5:
	subl	$4, %esp
	movl	%eax, %edx
	.loc 4 82 37
	movl	8(%ebp), %eax
	movl	%edx, 44(%eax)
	.loc 4 83 51
	movl	20(%ebp), %eax
	leal	4(%eax), %edx
	.loc 4 83 19
	movl	8(%ebp), %eax
	addl	$48, %eax
	.loc 4 83 5
	movl	%edx, 4(%esp)
	movl	%eax, (%esp)
	movl	__imp__lstrcpyW@8, %eax
	call	*%eax
LVL6:
	subl	$8, %esp
	.loc 4 84 51
	movl	8(%ebp), %eax
	addl	$48, %eax
	.loc 4 84 37
	movl	%eax, (%esp)
	movl	__imp__lstrlenW@4, %eax
	call	*%eax
LVL7:
	subl	$4, %esp
	movl	%eax, %edx
	.loc 4 84 35
	movl	8(%ebp), %eax
	movl	%edx, 56(%eax)
	.loc 4 85 31
	movl	8(%ebp), %eax
	movzwl	48(%eax), %eax
	.loc 4 85 8
	cmpw	$160, %ax
	jne	L22
	.loc 4 85 71 discriminator 1
	movl	8(%ebp), %eax
	movzwl	50(%eax), %eax
	.loc 4 85 46 discriminator 1
	testw	%ax, %ax
	jne	L22
	.loc 4 87 45
	movl	8(%ebp), %eax
	movw	$32, 60(%eax)
	.loc 4 88 45
	movl	8(%ebp), %eax
	movw	$0, 62(%eax)
	.loc 4 89 49
	movl	8(%ebp), %eax
	movl	$1, 68(%eax)
	jmp	L23
L22:
	.loc 4 93 45
	movl	8(%ebp), %eax
	movw	$0, 60(%eax)
	.loc 4 94 49
	movl	8(%ebp), %eax
	movl	$0, 68(%eax)
L23:
	.loc 4 96 25
	movl	8(%ebp), %eax
	movl	24(%ebp), %edx
	movl	%edx, 72(%eax)
	.loc 4 97 26
	movl	8(%ebp), %eax
	movl	28(%ebp), %edx
	movl	%edx, 76(%eax)
	.loc 4 98 1
	nop
	leave
	.cfi_restore 5
	.cfi_def_cfa 4, 4
	ret
	.cfi_endproc
LFE4238:
	.def	_FinalizeParserState;	.scl	3;	.type	32;	.endef
_FinalizeParserState:
LFB4239:
	.loc 4 101 1
	.cfi_startproc
	pushl	%ebp
	.cfi_def_cfa_offset 8
	.cfi_offset 5, -8
	movl	%esp, %ebp
	.cfi_def_cfa_register 5
	.loc 4 102 11
	movl	8(%ebp), %eax
	movl	72(%eax), %eax
	.loc 4 102 26
	movw	$0, (%eax)
	.loc 4 103 14
	movl	8(%ebp), %eax
	movl	4(%eax), %eax
	.loc 4 103 30
	andl	$32, %eax
	.loc 4 103 8
	testl	%eax, %eax
	je	L26
	.loc 4 104 15
	movl	8(%ebp), %eax
	movl	76(%eax), %eax
	.loc 4 104 31
	movw	$0, (%eax)
L26:
	.loc 4 105 1
	nop
	popl	%ebp
	.cfi_restore 5
	.cfi_def_cfa 4, 4
	ret
	.cfi_endproc
LFE4239:
	.def	_SkipSpace;	.scl	3;	.type	32;	.endef
_SkipSpace:
LFB4240:
	.loc 4 109 1
	.cfi_startproc
	pushl	%ebp
	.cfi_def_cfa_offset 8
	.cfi_offset 5, -8
	movl	%esp, %ebp
	.cfi_def_cfa_register 5
L32:
	.loc 4 112 23
	movl	8(%ebp), %eax
	movl	(%eax), %eax
	.loc 4 112 17
	movzwl	(%eax), %eax
	movzwl	%ax, %eax
	cmpl	$9, %eax
	jl	L33
	cmpl	$13, %eax
	jle	L34
	cmpl	$32, %eax
	jne	L33
L34:
	.loc 4 120 13
	nop
	.loc 4 125 23
	movl	8(%ebp), %eax
	movl	(%eax), %eax
	leal	2(%eax), %edx
	movl	8(%ebp), %eax
	movl	%edx, (%eax)
	.loc 4 112 9
	jmp	L32
L33:
	.loc 4 123 13
	nop
	.loc 4 127 1
	popl	%ebp
	.cfi_restore 5
	.cfi_def_cfa 4, 4
	ret
	.cfi_endproc
LFE4240:
	.def	_ParseAsIntegerPartNumberSequence;	.scl	3;	.type	32;	.endef
_ParseAsIntegerPartNumberSequence:
LFB4241:
	.loc 4 130 1
	.cfi_startproc
	pushl	%ebp
	.cfi_def_cfa_offset 8
	.cfi_offset 5, -8
	movl	%esp, %ebp
	.cfi_def_cfa_register 5
	subl	$24, %esp
L42:
	.loc 4 133 19
	movl	8(%ebp), %eax
	movl	(%eax), %eax
	.loc 4 133 13
	movzwl	(%eax), %eax
	.loc 4 133 12
	cmpw	$47, %ax
	jbe	L36
	.loc 4 133 45 discriminator 1
	movl	8(%ebp), %eax
	movl	(%eax), %eax
	.loc 4 133 39 discriminator 1
	movzwl	(%eax), %eax
	.loc 4 133 36 discriminator 1
	cmpw	$57, %ax
	ja	L36
	.loc 4 135 42
	movl	8(%ebp), %eax
	movl	(%eax), %edx
	.loc 4 135 19
	movl	8(%ebp), %eax
	movl	72(%eax), %eax
	.loc 4 135 36
	movzwl	(%edx), %edx
	.loc 4 135 34
	movw	%dx, (%eax)
	.loc 4 136 33
	movl	8(%ebp), %eax
	movl	72(%eax), %eax
	leal	2(%eax), %edx
	movl	8(%ebp), %eax
	movl	%edx, 72(%eax)
	.loc 4 137 27
	movl	8(%ebp), %eax
	movl	(%eax), %eax
	leal	2(%eax), %edx
	movl	8(%ebp), %eax
	movl	%edx, (%eax)
	jmp	L37
L36:
	.loc 4 139 23
	movl	8(%ebp), %eax
	movl	4(%eax), %eax
	.loc 4 139 39
	andl	$512, %eax
	.loc 4 139 17
	testl	%eax, %eax
	je	L38
	.loc 4 139 59 discriminator 1
	movl	8(%ebp), %eax
	movl	(%eax), %eax
	.loc 4 139 53 discriminator 1
	movzwl	(%eax), %eax
	.loc 4 139 50 discriminator 1
	cmpw	$96, %ax
	jbe	L38
	.loc 4 139 85 discriminator 2
	movl	8(%ebp), %eax
	movl	(%eax), %eax
	.loc 4 139 79 discriminator 2
	movzwl	(%eax), %eax
	.loc 4 139 76 discriminator 2
	cmpw	$102, %ax
	ja	L38
	.loc 4 141 42
	movl	8(%ebp), %eax
	movl	(%eax), %edx
	.loc 4 141 19
	movl	8(%ebp), %eax
	movl	72(%eax), %eax
	.loc 4 141 36
	movzwl	(%edx), %edx
	.loc 4 141 34
	movw	%dx, (%eax)
	.loc 4 142 33
	movl	8(%ebp), %eax
	movl	72(%eax), %eax
	leal	2(%eax), %edx
	movl	8(%ebp), %eax
	movl	%edx, 72(%eax)
	.loc 4 143 27
	movl	8(%ebp), %eax
	movl	(%eax), %eax
	leal	2(%eax), %edx
	movl	8(%ebp), %eax
	movl	%edx, (%eax)
	jmp	L37
L38:
	.loc 4 145 23
	movl	8(%ebp), %eax
	movl	4(%eax), %eax
	.loc 4 145 39
	andl	$512, %eax
	.loc 4 145 17
	testl	%eax, %eax
	je	L39
	.loc 4 145 59 discriminator 1
	movl	8(%ebp), %eax
	movl	(%eax), %eax
	.loc 4 145 53 discriminator 1
	movzwl	(%eax), %eax
	.loc 4 145 50 discriminator 1
	cmpw	$64, %ax
	jbe	L39
	.loc 4 145 85 discriminator 2
	movl	8(%ebp), %eax
	movl	(%eax), %eax
	.loc 4 145 79 discriminator 2
	movzwl	(%eax), %eax
	.loc 4 145 76 discriminator 2
	cmpw	$70, %ax
	ja	L39
	.loc 4 147 42
	movl	8(%ebp), %eax
	movl	(%eax), %edx
	.loc 4 147 19
	movl	8(%ebp), %eax
	movl	72(%eax), %eax
	.loc 4 147 36
	movzwl	(%edx), %edx
	.loc 4 147 34
	movw	%dx, (%eax)
	.loc 4 148 33
	movl	8(%ebp), %eax
	movl	72(%eax), %eax
	leal	2(%eax), %edx
	movl	8(%ebp), %eax
	movl	%edx, 72(%eax)
	.loc 4 149 27
	movl	8(%ebp), %eax
	movl	(%eax), %eax
	leal	2(%eax), %edx
	movl	8(%ebp), %eax
	movl	%edx, (%eax)
	jmp	L37
L39:
	.loc 4 151 23
	movl	8(%ebp), %eax
	movl	4(%eax), %eax
	.loc 4 151 39
	andl	$64, %eax
	.loc 4 151 17
	testl	%eax, %eax
	je	L40
	.loc 4 151 84 discriminator 1
	movl	8(%ebp), %eax
	leal	48(%eax), %edx
	.loc 4 151 53 discriminator 1
	movl	8(%ebp), %eax
	movl	(%eax), %eax
	movl	%edx, 4(%esp)
	movl	%eax, (%esp)
	call	_StartsWith
	.loc 4 151 50 discriminator 1
	testl	%eax, %eax
	je	L40
	.loc 4 152 27
	movl	8(%ebp), %eax
	movl	(%eax), %edx
	.loc 4 152 35
	movl	8(%ebp), %eax
	movl	56(%eax), %eax
	.loc 4 152 27
	addl	%eax, %eax
	addl	%eax, %edx
	movl	8(%ebp), %eax
	movl	%edx, (%eax)
	jmp	L37
L40:
	.loc 4 153 23
	movl	8(%ebp), %eax
	movl	4(%eax), %eax
	.loc 4 153 39
	andl	$64, %eax
	.loc 4 153 17
	testl	%eax, %eax
	je	L43
	.loc 4 153 58 discriminator 1
	movl	8(%ebp), %eax
	movl	68(%eax), %eax
	.loc 4 153 50 discriminator 1
	testl	%eax, %eax
	jle	L43
	.loc 4 153 131 discriminator 2
	movl	8(%ebp), %eax
	leal	60(%eax), %edx
	.loc 4 153 100 discriminator 2
	movl	8(%ebp), %eax
	movl	(%eax), %eax
	movl	%edx, 4(%esp)
	movl	%eax, (%esp)
	call	_StartsWith
	.loc 4 153 97 discriminator 2
	testl	%eax, %eax
	je	L43
	.loc 4 154 27
	movl	8(%ebp), %eax
	movl	(%eax), %edx
	.loc 4 154 35
	movl	8(%ebp), %eax
	movl	68(%eax), %eax
	.loc 4 154 27
	addl	%eax, %eax
	addl	%eax, %edx
	movl	8(%ebp), %eax
	movl	%edx, (%eax)
L37:
	.loc 4 133 12
	jmp	L42
L43:
	.loc 4 158 1
	nop
	leave
	.cfi_restore 5
	.cfi_def_cfa 4, 4
	ret
	.cfi_endproc
LFE4241:
	.def	_ParseAsFractionPartNumberSequence;	.scl	3;	.type	32;	.endef
_ParseAsFractionPartNumberSequence:
LFB4242:
	.loc 4 161 1
	.cfi_startproc
	pushl	%ebp
	.cfi_def_cfa_offset 8
	.cfi_offset 5, -8
	movl	%esp, %ebp
	.cfi_def_cfa_register 5
L49:
	.loc 4 164 19
	movl	8(%ebp), %eax
	movl	(%eax), %eax
	.loc 4 164 13
	movzwl	(%eax), %eax
	.loc 4 164 12
	cmpw	$47, %ax
	jbe	L45
	.loc 4 164 45 discriminator 1
	movl	8(%ebp), %eax
	movl	(%eax), %eax
	.loc 4 164 39 discriminator 1
	movzwl	(%eax), %eax
	.loc 4 164 36 discriminator 1
	cmpw	$57, %ax
	ja	L45
	.loc 4 166 43
	movl	8(%ebp), %eax
	movl	(%eax), %edx
	.loc 4 166 19
	movl	8(%ebp), %eax
	movl	76(%eax), %eax
	.loc 4 166 37
	movzwl	(%edx), %edx
	.loc 4 166 35
	movw	%dx, (%eax)
	.loc 4 167 34
	movl	8(%ebp), %eax
	movl	76(%eax), %eax
	leal	2(%eax), %edx
	movl	8(%ebp), %eax
	movl	%edx, 76(%eax)
	.loc 4 168 27
	movl	8(%ebp), %eax
	movl	(%eax), %eax
	leal	2(%eax), %edx
	movl	8(%ebp), %eax
	movl	%edx, (%eax)
	jmp	L46
L45:
	.loc 4 170 23
	movl	8(%ebp), %eax
	movl	4(%eax), %eax
	.loc 4 170 39
	andl	$512, %eax
	.loc 4 170 17
	testl	%eax, %eax
	je	L47
	.loc 4 170 59 discriminator 1
	movl	8(%ebp), %eax
	movl	(%eax), %eax
	.loc 4 170 53 discriminator 1
	movzwl	(%eax), %eax
	.loc 4 170 50 discriminator 1
	cmpw	$96, %ax
	jbe	L47
	.loc 4 170 85 discriminator 2
	movl	8(%ebp), %eax
	movl	(%eax), %eax
	.loc 4 170 79 discriminator 2
	movzwl	(%eax), %eax
	.loc 4 170 76 discriminator 2
	cmpw	$102, %ax
	ja	L47
	.loc 4 172 43
	movl	8(%ebp), %eax
	movl	(%eax), %edx
	.loc 4 172 19
	movl	8(%ebp), %eax
	movl	76(%eax), %eax
	.loc 4 172 37
	movzwl	(%edx), %edx
	.loc 4 172 35
	movw	%dx, (%eax)
	.loc 4 173 34
	movl	8(%ebp), %eax
	movl	76(%eax), %eax
	leal	2(%eax), %edx
	movl	8(%ebp), %eax
	movl	%edx, 76(%eax)
	.loc 4 174 27
	movl	8(%ebp), %eax
	movl	(%eax), %eax
	leal	2(%eax), %edx
	movl	8(%ebp), %eax
	movl	%edx, (%eax)
	jmp	L46
L47:
	.loc 4 176 23
	movl	8(%ebp), %eax
	movl	4(%eax), %eax
	.loc 4 176 39
	andl	$512, %eax
	.loc 4 176 17
	testl	%eax, %eax
	je	L50
	.loc 4 176 59 discriminator 1
	movl	8(%ebp), %eax
	movl	(%eax), %eax
	.loc 4 176 53 discriminator 1
	movzwl	(%eax), %eax
	.loc 4 176 50 discriminator 1
	cmpw	$64, %ax
	jbe	L50
	.loc 4 176 85 discriminator 2
	movl	8(%ebp), %eax
	movl	(%eax), %eax
	.loc 4 176 79 discriminator 2
	movzwl	(%eax), %eax
	.loc 4 176 76 discriminator 2
	cmpw	$70, %ax
	ja	L50
	.loc 4 178 43
	movl	8(%ebp), %eax
	movl	(%eax), %edx
	.loc 4 178 19
	movl	8(%ebp), %eax
	movl	76(%eax), %eax
	.loc 4 178 37
	movzwl	(%edx), %edx
	.loc 4 178 35
	movw	%dx, (%eax)
	.loc 4 179 34
	movl	8(%ebp), %eax
	movl	76(%eax), %eax
	leal	2(%eax), %edx
	movl	8(%ebp), %eax
	movl	%edx, 76(%eax)
	.loc 4 180 27
	movl	8(%ebp), %eax
	movl	(%eax), %eax
	leal	2(%eax), %edx
	movl	8(%ebp), %eax
	movl	%edx, (%eax)
L46:
	.loc 4 164 12
	jmp	L49
L50:
	.loc 4 185 1
	nop
	popl	%ebp
	.cfi_restore 5
	.cfi_def_cfa 4, 4
	ret
	.cfi_endproc
LFE4242:
	.def	_ParseAsDecimalNumberString;	.scl	3;	.type	32;	.endef
_ParseAsDecimalNumberString:
LFB4243:
	.loc 4 189 1
	.cfi_startproc
	pushl	%ebp
	.cfi_def_cfa_offset 8
	.cfi_offset 5, -8
	movl	%esp, %ebp
	.cfi_def_cfa_register 5
	subl	$120, %esp
	.loc 4 191 5
	movl	28(%ebp), %eax
	movl	%eax, 20(%esp)
	movl	24(%ebp), %eax
	movl	%eax, 16(%esp)
	movl	16(%ebp), %eax
	movl	%eax, 12(%esp)
	movl	12(%ebp), %eax
	movl	%eax, 8(%esp)
	movl	8(%ebp), %eax
	movl	%eax, 4(%esp)
	leal	-88(%ebp), %eax
	movl	%eax, (%esp)
	call	_InitializeParserState
	.loc 4 192 23
	movl	12(%ebp), %eax
	andl	$1, %eax
	.loc 4 192 8
	testl	%eax, %eax
	je	L52
	.loc 4 193 9
	leal	-88(%ebp), %eax
	movl	%eax, (%esp)
	call	_SkipSpace
L52:
	.loc 4 194 24
	movl	12(%ebp), %eax
	andl	$16, %eax
	.loc 4 194 8
	testl	%eax, %eax
	je	L53
	.loc 4 194 45 discriminator 1
	movl	-88(%ebp), %eax
	.loc 4 194 39 discriminator 1
	movzwl	(%eax), %eax
	.loc 4 194 36 discriminator 1
	cmpw	$40, %ax
	jne	L53
	.loc 4 196 20
	movl	$-1, -80(%ebp)
	.loc 4 197 22
	movl	-88(%ebp), %eax
	addl	$2, %eax
	movl	%eax, -88(%ebp)
	.loc 4 198 19
	movl	-88(%ebp), %eax
	.loc 4 198 13
	movzwl	(%eax), %eax
	.loc 4 198 12
	cmpw	$47, %ax
	jbe	L54
	.loc 4 198 44 discriminator 1
	movl	-88(%ebp), %eax
	.loc 4 198 38 discriminator 1
	movzwl	(%eax), %eax
	.loc 4 198 35 discriminator 1
	cmpw	$57, %ax
	ja	L54
	.loc 4 199 13
	leal	-88(%ebp), %eax
	movl	%eax, (%esp)
	call	_ParseAsIntegerPartNumberSequence
L54:
	.loc 4 200 28
	movl	12(%ebp), %eax
	andl	$32, %eax
	.loc 4 200 12
	testl	%eax, %eax
	je	L55
	.loc 4 200 43 discriminator 1
	movl	-88(%ebp), %eax
	leal	-88(%ebp), %edx
	addl	$36, %edx
	movl	%edx, 4(%esp)
	movl	%eax, (%esp)
	call	_StartsWith
	.loc 4 200 40 discriminator 1
	testl	%eax, %eax
	je	L55
	.loc 4 202 26
	movl	-88(%ebp), %eax
	.loc 4 202 34
	movl	-44(%ebp), %edx
	.loc 4 202 26
	addl	%edx, %edx
	addl	%edx, %eax
	movl	%eax, -88(%ebp)
	.loc 4 203 13
	leal	-88(%ebp), %eax
	movl	%eax, (%esp)
	call	_ParseAsFractionPartNumberSequence
L55:
	.loc 4 205 19
	movl	-88(%ebp), %eax
	.loc 4 205 13
	movzwl	(%eax), %eax
	.loc 4 205 12
	cmpw	$41, %ax
	je	L56
	.loc 4 206 20
	movl	$0, %eax
	jmp	L74
L56:
	.loc 4 207 22
	movl	-88(%ebp), %eax
	addl	$2, %eax
	movl	%eax, -88(%ebp)
	jmp	L58
L53:
	.loc 4 209 29
	movl	12(%ebp), %eax
	andl	$4, %eax
	.loc 4 209 13
	testl	%eax, %eax
	je	L59
	.loc 4 209 44 discriminator 1
	movl	-88(%ebp), %eax
	leal	-88(%ebp), %edx
	addl	$12, %edx
	movl	%edx, 4(%esp)
	movl	%eax, (%esp)
	call	_StartsWith
	.loc 4 209 41 discriminator 1
	testl	%eax, %eax
	je	L59
	.loc 4 211 20
	movl	$1, -80(%ebp)
	.loc 4 212 22
	movl	-88(%ebp), %eax
	.loc 4 212 30
	movl	-68(%ebp), %edx
	.loc 4 212 22
	addl	%edx, %edx
	addl	%edx, %eax
	movl	%eax, -88(%ebp)
	.loc 4 213 19
	movl	-88(%ebp), %eax
	.loc 4 213 13
	movzwl	(%eax), %eax
	.loc 4 213 12
	cmpw	$47, %ax
	jbe	L60
	.loc 4 213 44 discriminator 1
	movl	-88(%ebp), %eax
	.loc 4 213 38 discriminator 1
	movzwl	(%eax), %eax
	.loc 4 213 35 discriminator 1
	cmpw	$57, %ax
	ja	L60
	.loc 4 214 13
	leal	-88(%ebp), %eax
	movl	%eax, (%esp)
	call	_ParseAsIntegerPartNumberSequence
L60:
	.loc 4 215 28
	movl	12(%ebp), %eax
	andl	$32, %eax
	.loc 4 215 12
	testl	%eax, %eax
	je	L75
	.loc 4 215 43 discriminator 1
	movl	-88(%ebp), %eax
	leal	-88(%ebp), %edx
	addl	$36, %edx
	movl	%edx, 4(%esp)
	movl	%eax, (%esp)
	call	_StartsWith
	.loc 4 215 40 discriminator 1
	testl	%eax, %eax
	je	L75
	.loc 4 217 26
	movl	-88(%ebp), %eax
	.loc 4 217 34
	movl	-44(%ebp), %edx
	.loc 4 217 26
	addl	%edx, %edx
	addl	%edx, %eax
	movl	%eax, -88(%ebp)
	.loc 4 218 13
	leal	-88(%ebp), %eax
	movl	%eax, (%esp)
	call	_ParseAsFractionPartNumberSequence
	.loc 4 215 12
	jmp	L75
L59:
	.loc 4 221 29
	movl	12(%ebp), %eax
	andl	$4, %eax
	.loc 4 221 13
	testl	%eax, %eax
	je	L62
	.loc 4 221 44 discriminator 1
	movl	-88(%ebp), %eax
	leal	-88(%ebp), %edx
	addl	$24, %edx
	movl	%edx, 4(%esp)
	movl	%eax, (%esp)
	call	_StartsWith
	.loc 4 221 41 discriminator 1
	testl	%eax, %eax
	je	L62
	.loc 4 223 20
	movl	$-1, -80(%ebp)
	.loc 4 224 22
	movl	-88(%ebp), %eax
	.loc 4 224 30
	movl	-56(%ebp), %edx
	.loc 4 224 22
	addl	%edx, %edx
	addl	%edx, %eax
	movl	%eax, -88(%ebp)
	.loc 4 225 19
	movl	-88(%ebp), %eax
	.loc 4 225 13
	movzwl	(%eax), %eax
	.loc 4 225 12
	cmpw	$47, %ax
	jbe	L63
	.loc 4 225 44 discriminator 1
	movl	-88(%ebp), %eax
	.loc 4 225 38 discriminator 1
	movzwl	(%eax), %eax
	.loc 4 225 35 discriminator 1
	cmpw	$57, %ax
	ja	L63
	.loc 4 226 13
	leal	-88(%ebp), %eax
	movl	%eax, (%esp)
	call	_ParseAsIntegerPartNumberSequence
L63:
	.loc 4 227 28
	movl	12(%ebp), %eax
	andl	$32, %eax
	.loc 4 227 12
	testl	%eax, %eax
	je	L76
	.loc 4 227 43 discriminator 1
	movl	-88(%ebp), %eax
	leal	-88(%ebp), %edx
	addl	$36, %edx
	movl	%edx, 4(%esp)
	movl	%eax, (%esp)
	call	_StartsWith
	.loc 4 227 40 discriminator 1
	testl	%eax, %eax
	je	L76
	.loc 4 229 26
	movl	-88(%ebp), %eax
	.loc 4 229 34
	movl	-44(%ebp), %edx
	.loc 4 229 26
	addl	%edx, %edx
	addl	%edx, %eax
	movl	%eax, -88(%ebp)
	.loc 4 230 13
	leal	-88(%ebp), %eax
	movl	%eax, (%esp)
	call	_ParseAsFractionPartNumberSequence
	.loc 4 227 12
	jmp	L76
L62:
	.loc 4 233 20
	movl	-88(%ebp), %eax
	.loc 4 233 14
	movzwl	(%eax), %eax
	.loc 4 233 13
	cmpw	$47, %ax
	jbe	L65
	.loc 4 233 45 discriminator 1
	movl	-88(%ebp), %eax
	.loc 4 233 39 discriminator 1
	movzwl	(%eax), %eax
	.loc 4 233 36 discriminator 1
	cmpw	$57, %ax
	ja	L65
	.loc 4 235 9
	leal	-88(%ebp), %eax
	movl	%eax, (%esp)
	call	_ParseAsIntegerPartNumberSequence
	.loc 4 236 28
	movl	12(%ebp), %eax
	andl	$32, %eax
	.loc 4 236 12
	testl	%eax, %eax
	je	L66
	.loc 4 236 43 discriminator 1
	movl	-88(%ebp), %eax
	leal	-88(%ebp), %edx
	addl	$36, %edx
	movl	%edx, 4(%esp)
	movl	%eax, (%esp)
	call	_StartsWith
	.loc 4 236 40 discriminator 1
	testl	%eax, %eax
	je	L66
	.loc 4 238 26
	movl	-88(%ebp), %eax
	.loc 4 238 34
	movl	-44(%ebp), %edx
	.loc 4 238 26
	addl	%edx, %edx
	addl	%edx, %eax
	movl	%eax, -88(%ebp)
	.loc 4 239 13
	leal	-88(%ebp), %eax
	movl	%eax, (%esp)
	call	_ParseAsFractionPartNumberSequence
L66:
	.loc 4 241 28
	movl	12(%ebp), %eax
	andl	$8, %eax
	.loc 4 241 12
	testl	%eax, %eax
	je	L67
	.loc 4 241 43 discriminator 1
	movl	-88(%ebp), %eax
	leal	-88(%ebp), %edx
	addl	$12, %edx
	movl	%edx, 4(%esp)
	movl	%eax, (%esp)
	call	_StartsWith
	.loc 4 241 40 discriminator 1
	testl	%eax, %eax
	je	L67
	.loc 4 243 24
	movl	$1, -80(%ebp)
	.loc 4 244 26
	movl	-88(%ebp), %eax
	.loc 4 244 34
	movl	-68(%ebp), %edx
	.loc 4 244 26
	addl	%edx, %edx
	addl	%edx, %eax
	movl	%eax, -88(%ebp)
	.loc 4 241 12
	jmp	L77
L67:
	.loc 4 246 33
	movl	12(%ebp), %eax
	andl	$8, %eax
	.loc 4 246 17
	testl	%eax, %eax
	je	L77
	.loc 4 246 48 discriminator 1
	movl	-88(%ebp), %eax
	leal	-88(%ebp), %edx
	addl	$24, %edx
	movl	%edx, 4(%esp)
	movl	%eax, (%esp)
	call	_StartsWith
	.loc 4 246 45 discriminator 1
	testl	%eax, %eax
	je	L77
	.loc 4 248 24
	movl	$-1, -80(%ebp)
	.loc 4 249 26
	movl	-88(%ebp), %eax
	.loc 4 249 34
	movl	-56(%ebp), %edx
	.loc 4 249 26
	addl	%edx, %edx
	addl	%edx, %eax
	movl	%eax, -88(%ebp)
	.loc 4 241 12
	jmp	L77
L65:
	.loc 4 255 29
	movl	12(%ebp), %eax
	andl	$32, %eax
	.loc 4 255 13
	testl	%eax, %eax
	je	L69
	.loc 4 255 44 discriminator 1
	movl	-88(%ebp), %eax
	leal	-88(%ebp), %edx
	addl	$36, %edx
	movl	%edx, 4(%esp)
	movl	%eax, (%esp)
	call	_StartsWith
	.loc 4 255 41 discriminator 1
	testl	%eax, %eax
	je	L69
	.loc 4 257 22
	movl	-88(%ebp), %eax
	.loc 4 257 30
	movl	-44(%ebp), %edx
	.loc 4 257 22
	addl	%edx, %edx
	addl	%edx, %eax
	movl	%eax, -88(%ebp)
	.loc 4 258 9
	leal	-88(%ebp), %eax
	movl	%eax, (%esp)
	call	_ParseAsFractionPartNumberSequence
	.loc 4 259 28
	movl	12(%ebp), %eax
	andl	$8, %eax
	.loc 4 259 12
	testl	%eax, %eax
	je	L70
	.loc 4 259 43 discriminator 1
	movl	-88(%ebp), %eax
	leal	-88(%ebp), %edx
	addl	$12, %edx
	movl	%edx, 4(%esp)
	movl	%eax, (%esp)
	call	_StartsWith
	.loc 4 259 40 discriminator 1
	testl	%eax, %eax
	je	L70
	.loc 4 261 24
	movl	$1, -80(%ebp)
	.loc 4 262 26
	movl	-88(%ebp), %eax
	.loc 4 262 34
	movl	-68(%ebp), %edx
	.loc 4 262 26
	addl	%edx, %edx
	addl	%edx, %eax
	movl	%eax, -88(%ebp)
	.loc 4 259 12
	jmp	L78
L70:
	.loc 4 264 33
	movl	12(%ebp), %eax
	andl	$8, %eax
	.loc 4 264 17
	testl	%eax, %eax
	je	L78
	.loc 4 264 48 discriminator 1
	movl	-88(%ebp), %eax
	leal	-88(%ebp), %edx
	addl	$24, %edx
	movl	%edx, 4(%esp)
	movl	%eax, (%esp)
	call	_StartsWith
	.loc 4 264 45 discriminator 1
	testl	%eax, %eax
	je	L78
	.loc 4 266 24
	movl	$-1, -80(%ebp)
	.loc 4 267 26
	movl	-88(%ebp), %eax
	.loc 4 267 34
	movl	-56(%ebp), %edx
	.loc 4 267 26
	addl	%edx, %edx
	addl	%edx, %eax
	movl	%eax, -88(%ebp)
	.loc 4 259 12
	jmp	L78
L69:
	.loc 4 274 16
	movl	$0, %eax
	jmp	L74
L75:
	.loc 4 215 12
	nop
	jmp	L58
L76:
	.loc 4 227 12
	nop
	jmp	L58
L77:
	.loc 4 241 12
	nop
	jmp	L58
L78:
	.loc 4 259 12
	nop
L58:
	.loc 4 275 23
	movl	12(%ebp), %eax
	andl	$2, %eax
	.loc 4 275 8
	testl	%eax, %eax
	je	L72
	.loc 4 276 9
	leal	-88(%ebp), %eax
	movl	%eax, (%esp)
	call	_SkipSpace
L72:
	.loc 4 277 15
	movl	-88(%ebp), %eax
	.loc 4 277 9
	movzwl	(%eax), %eax
	.loc 4 277 8
	testw	%ax, %ax
	je	L73
	.loc 4 278 16
	movl	$0, %eax
	jmp	L74
L73:
	.loc 4 279 5
	leal	-88(%ebp), %eax
	movl	%eax, (%esp)
	call	_FinalizeParserState
	.loc 4 280 18
	movl	-80(%ebp), %edx
	.loc 4 280 11
	movl	20(%ebp), %eax
	movl	%edx, (%eax)
	.loc 4 281 12
	movl	$1, %eax
L74:
	.loc 4 282 1 discriminator 1
	leave
	.cfi_restore 5
	.cfi_def_cfa 4, 4
	ret
	.cfi_endproc
LFE4243:
	.def	_ParseAsHexNumberString;	.scl	3;	.type	32;	.endef
_ParseAsHexNumberString:
LFB4244:
	.loc 4 286 1
	.cfi_startproc
	pushl	%ebp
	.cfi_def_cfa_offset 8
	.cfi_offset 5, -8
	movl	%esp, %ebp
	.cfi_def_cfa_register 5
	subl	$120, %esp
	.loc 4 288 5
	movl	$0, 20(%esp)
	movl	20(%ebp), %eax
	movl	%eax, 16(%esp)
	movl	16(%ebp), %eax
	movl	%eax, 12(%esp)
	movl	12(%ebp), %eax
	movl	%eax, 8(%esp)
	movl	8(%ebp), %eax
	movl	%eax, 4(%esp)
	leal	-88(%ebp), %eax
	movl	%eax, (%esp)
	call	_InitializeParserState
	.loc 4 289 23
	movl	12(%ebp), %eax
	andl	$1, %eax
	.loc 4 289 8
	testl	%eax, %eax
	je	L80
	.loc 4 290 9
	leal	-88(%ebp), %eax
	movl	%eax, (%esp)
	call	_SkipSpace
L80:
	.loc 4 291 5
	leal	-88(%ebp), %eax
	movl	%eax, (%esp)
	call	_ParseAsIntegerPartNumberSequence
	.loc 4 292 23
	movl	12(%ebp), %eax
	andl	$2, %eax
	.loc 4 292 8
	testl	%eax, %eax
	je	L81
	.loc 4 293 9
	leal	-88(%ebp), %eax
	movl	%eax, (%esp)
	call	_SkipSpace
L81:
	.loc 4 294 15
	movl	-88(%ebp), %eax
	.loc 4 294 9
	movzwl	(%eax), %eax
	.loc 4 294 8
	testw	%ax, %ax
	je	L82
	.loc 4 295 16
	movl	$0, %eax
	jmp	L84
L82:
	.loc 4 296 5
	leal	-88(%ebp), %eax
	movl	%eax, (%esp)
	call	_FinalizeParserState
	.loc 4 297 12
	movl	$1, %eax
L84:
	.loc 4 298 1 discriminator 1
	leave
	.cfi_restore 5
	.cfi_def_cfa 4, 4
	ret
	.cfi_endproc
LFE4244:
	.def	_BuildLeading1WordFromDecimalString;	.scl	3;	.type	32;	.endef
_BuildLeading1WordFromDecimalString:
LFB4245:
	.loc 4 301 1
	.cfi_startproc
	pushl	%ebp
	.cfi_def_cfa_offset 8
	.cfi_offset 5, -8
	movl	%esp, %ebp
	.cfi_def_cfa_register 5
	subl	$16, %esp
	.loc 4 302 17
	movl	$0, -4(%ebp)
	.loc 4 303 11
	jmp	L86
L87:
	.loc 4 305 15
	movl	-4(%ebp), %edx
	movl	%edx, %eax
	sall	$2, %eax
	addl	%edx, %eax
	addl	%eax, %eax
	movl	%eax, %ecx
	.loc 4 305 30
	movl	8(%ebp), %eax
	leal	2(%eax), %edx
	movl	%edx, 8(%ebp)
	.loc 4 305 23
	movzwl	(%eax), %eax
	.loc 4 305 20
	movzwl	%ax, %eax
	addl	%ecx, %eax
	.loc 4 305 11
	subl	$48, %eax
	movl	%eax, -4(%ebp)
	.loc 4 306 9
	subl	$1, 12(%ebp)
L86:
	.loc 4 303 11
	cmpl	$0, 12(%ebp)
	jne	L87
	.loc 4 308 12
	movl	-4(%ebp), %eax
	.loc 4 309 1
	leave
	.cfi_restore 5
	.cfi_def_cfa 4, 4
	ret
	.cfi_endproc
LFE4245:
	.def	_Build1WordFromDecimalString;	.scl	3;	.type	32;	.endef
_Build1WordFromDecimalString:
LFB4246:
	.loc 4 312 1
	.cfi_startproc
	pushl	%ebp
	.cfi_def_cfa_offset 8
	.cfi_offset 5, -8
	movl	%esp, %ebp
	.cfi_def_cfa_register 5
	subl	$16, %esp
	.loc 4 313 29
	movl	8(%ebp), %eax
	leal	2(%eax), %edx
	movl	%edx, 8(%ebp)
	.loc 4 313 22
	movzwl	(%eax), %eax
	movzwl	%ax, %eax
	.loc 4 313 32
	subl	$48, %eax
	.loc 4 313 17
	movl	%eax, -4(%ebp)
	.loc 4 329 15
	movl	-4(%ebp), %edx
	movl	%edx, %eax
	sall	$2, %eax
	addl	%edx, %eax
	addl	%eax, %eax
	movl	%eax, %ecx
	.loc 4 329 30
	movl	8(%ebp), %eax
	leal	2(%eax), %edx
	movl	%edx, 8(%ebp)
	.loc 4 329 23
	movzwl	(%eax), %eax
	.loc 4 329 20
	movzwl	%ax, %eax
	addl	%ecx, %eax
	.loc 4 329 11
	subl	$48, %eax
	movl	%eax, -4(%ebp)
	.loc 4 330 15
	movl	-4(%ebp), %edx
	movl	%edx, %eax
	sall	$2, %eax
	addl	%edx, %eax
	addl	%eax, %eax
	movl	%eax, %ecx
	.loc 4 330 30
	movl	8(%ebp), %eax
	leal	2(%eax), %edx
	movl	%edx, 8(%ebp)
	.loc 4 330 23
	movzwl	(%eax), %eax
	.loc 4 330 20
	movzwl	%ax, %eax
	addl	%ecx, %eax
	.loc 4 330 11
	subl	$48, %eax
	movl	%eax, -4(%ebp)
	.loc 4 331 15
	movl	-4(%ebp), %edx
	movl	%edx, %eax
	sall	$2, %eax
	addl	%edx, %eax
	addl	%eax, %eax
	movl	%eax, %ecx
	.loc 4 331 30
	movl	8(%ebp), %eax
	leal	2(%eax), %edx
	movl	%edx, 8(%ebp)
	.loc 4 331 23
	movzwl	(%eax), %eax
	.loc 4 331 20
	movzwl	%ax, %eax
	addl	%ecx, %eax
	.loc 4 331 11
	subl	$48, %eax
	movl	%eax, -4(%ebp)
	.loc 4 332 15
	movl	-4(%ebp), %edx
	movl	%edx, %eax
	sall	$2, %eax
	addl	%edx, %eax
	addl	%eax, %eax
	movl	%eax, %ecx
	.loc 4 332 30
	movl	8(%ebp), %eax
	leal	2(%eax), %edx
	movl	%edx, 8(%ebp)
	.loc 4 332 23
	movzwl	(%eax), %eax
	.loc 4 332 20
	movzwl	%ax, %eax
	addl	%ecx, %eax
	.loc 4 332 11
	subl	$48, %eax
	movl	%eax, -4(%ebp)
	.loc 4 333 15
	movl	-4(%ebp), %edx
	movl	%edx, %eax
	sall	$2, %eax
	addl	%edx, %eax
	addl	%eax, %eax
	movl	%eax, %ecx
	.loc 4 333 30
	movl	8(%ebp), %eax
	leal	2(%eax), %edx
	movl	%edx, 8(%ebp)
	.loc 4 333 23
	movzwl	(%eax), %eax
	.loc 4 333 20
	movzwl	%ax, %eax
	addl	%ecx, %eax
	.loc 4 333 11
	subl	$48, %eax
	movl	%eax, -4(%ebp)
	.loc 4 337 15
	movl	-4(%ebp), %edx
	movl	%edx, %eax
	sall	$2, %eax
	addl	%edx, %eax
	addl	%eax, %eax
	movl	%eax, %ecx
	.loc 4 337 30
	movl	8(%ebp), %eax
	leal	2(%eax), %edx
	movl	%edx, 8(%ebp)
	.loc 4 337 23
	movzwl	(%eax), %eax
	.loc 4 337 20
	movzwl	%ax, %eax
	addl	%ecx, %eax
	.loc 4 337 11
	subl	$48, %eax
	movl	%eax, -4(%ebp)
	.loc 4 338 15
	movl	-4(%ebp), %edx
	movl	%edx, %eax
	sall	$2, %eax
	addl	%edx, %eax
	addl	%eax, %eax
	movl	%eax, %ecx
	.loc 4 338 30
	movl	8(%ebp), %eax
	leal	2(%eax), %edx
	movl	%edx, 8(%ebp)
	.loc 4 338 23
	movzwl	(%eax), %eax
	.loc 4 338 20
	movzwl	%ax, %eax
	addl	%ecx, %eax
	.loc 4 338 11
	subl	$48, %eax
	movl	%eax, -4(%ebp)
	.loc 4 342 15
	movl	-4(%ebp), %edx
	movl	%edx, %eax
	sall	$2, %eax
	addl	%edx, %eax
	addl	%eax, %eax
	movl	%eax, %ecx
	.loc 4 342 30
	movl	8(%ebp), %eax
	leal	2(%eax), %edx
	movl	%edx, 8(%ebp)
	.loc 4 342 23
	movzwl	(%eax), %eax
	.loc 4 342 20
	movzwl	%ax, %eax
	addl	%ecx, %eax
	.loc 4 342 11
	subl	$48, %eax
	movl	%eax, -4(%ebp)
	.loc 4 344 12
	movl	-4(%ebp), %eax
	.loc 4 345 1
	leave
	.cfi_restore 5
	.cfi_def_cfa 4, 4
	ret
	.cfi_endproc
LFE4246:
	.def	_BuildBinaryFromDecimalString;	.scl	3;	.type	32;	.endef
_BuildBinaryFromDecimalString:
LFB4247:
	.loc 4 349 1
	.cfi_startproc
	pushl	%ebp
	.cfi_def_cfa_offset 8
	.cfi_offset 5, -8
	movl	%esp, %ebp
	.cfi_def_cfa_register 5
	pushl	%ebx
	subl	$52, %esp
	.cfi_offset 3, -12
	.loc 4 351 9
	movl	$9, -24(%ebp)
	.loc 4 357 14
	movl	8(%ebp), %eax
	movl	%eax, -12(%ebp)
	.loc 4 358 18
	movl	12(%ebp), %eax
	movl	%eax, -16(%ebp)
	.loc 4 359 32
	movl	8(%ebp), %eax
	movl	%eax, (%esp)
	movl	__imp__lstrlenW@4, %eax
	call	*%eax
LVL8:
	subl	$4, %esp
	.loc 4 359 17
	movl	%eax, -20(%ebp)
	.loc 4 360 26
	movl	-24(%ebp), %ecx
	movl	-20(%ebp), %eax
	movl	$0, %edx
	divl	%ecx
	movl	%edx, %eax
	.loc 4 360 9
	movl	%eax, -28(%ebp)
	.loc 4 361 8
	cmpl	$0, -28(%ebp)
	jle	L93
	.loc 4 363 22
	movl	-28(%ebp), %eax
	.loc 4 363 17
	movl	-16(%ebp), %ebx
	leal	4(%ebx), %edx
	movl	%edx, -16(%ebp)
	.loc 4 363 22
	movl	%eax, 4(%esp)
	movl	-12(%ebp), %eax
	movl	%eax, (%esp)
	call	_BuildLeading1WordFromDecimalString
	.loc 4 363 20
	movl	%eax, (%ebx)
	.loc 4 364 16
	movl	-28(%ebp), %eax
	addl	%eax, %eax
	addl	%eax, -12(%ebp)
	.loc 4 365 22
	movl	-28(%ebp), %eax
	subl	%eax, -20(%ebp)
	.loc 4 367 11
	jmp	L93
L94:
	.loc 4 369 17
	movl	-16(%ebp), %ebx
	leal	4(%ebx), %eax
	movl	%eax, -16(%ebp)
	.loc 4 369 22
	movl	-12(%ebp), %eax
	movl	%eax, (%esp)
	call	_Build1WordFromDecimalString
	.loc 4 369 20
	movl	%eax, (%ebx)
	.loc 4 370 16
	movl	-24(%ebp), %eax
	addl	%eax, %eax
	addl	%eax, -12(%ebp)
	.loc 4 371 22
	movl	-24(%ebp), %eax
	subl	%eax, -20(%ebp)
L93:
	.loc 4 367 11
	cmpl	$0, -20(%ebp)
	jne	L94
	.loc 4 373 30
	movl	-16(%ebp), %eax
	subl	12(%ebp), %eax
	sarl	$2, %eax
	movl	%eax, %edx
	.loc 4 373 20
	movl	16(%ebp), %eax
	movl	%edx, (%eax)
	.loc 4 374 1
	nop
	movl	-4(%ebp), %ebx
	leave
	.cfi_restore 5
	.cfi_restore 3
	.cfi_def_cfa 4, 4
	ret
	.cfi_endproc
LFE4247:
	.def	_MultiplyAndAdd1Word_using_ADC_MUL;	.scl	3;	.type	32;	.endef
_MultiplyAndAdd1Word_using_ADC_MUL:
LFB4248:
	.loc 4 377 1
	.cfi_startproc
	pushl	%ebp
	.cfi_def_cfa_offset 8
	.cfi_offset 5, -8
	movl	%esp, %ebp
	.cfi_def_cfa_register 5
	pushl	%ebx
	subl	$32, %esp
	.cfi_offset 3, -12
	.loc 4 379 17
	movl	$1000000000, -8(%ebp)
	.loc 4 386 24
	leal	-16(%ebp), %eax
	movl	%eax, 8(%esp)
	movl	-8(%ebp), %eax
	movl	%eax, 4(%esp)
	movl	12(%ebp), %eax
	movl	%eax, (%esp)
	call	__MULTIPLY_UNIT
	movl	%eax, -12(%ebp)
	.loc 4 387 5
	movl	-16(%ebp), %ebx
	.loc 4 387 15
	movl	8(%ebp), %eax
	movl	16(%ebp), %edx
	movl	%edx, 12(%esp)
	movl	%eax, 8(%esp)
	movl	-12(%ebp), %eax
	movl	%eax, 4(%esp)
	movl	$0, (%esp)
	call	__ADD_UNIT
	.loc 4 387 5
	movsbl	%al, %eax
	leal	8(%ebp), %ecx
	movl	%ecx, 12(%esp)
	movl	$0, 8(%esp)
	movl	%ebx, 4(%esp)
	movl	%eax, (%esp)
	call	__ADD_UNIT
	.loc 4 388 12
	movl	8(%ebp), %eax
	.loc 4 389 1
	addl	$32, %esp
	popl	%ebx
	.cfi_restore 3
	popl	%ebp
	.cfi_restore 5
	.cfi_def_cfa 4, 4
	ret
	.cfi_endproc
LFE4248:
	.def	_MultiplyAndAdd1Word_using_ADCX_MULX;	.scl	3;	.type	32;	.endef
_MultiplyAndAdd1Word_using_ADCX_MULX:
LFB4249:
	.loc 4 392 1
	.cfi_startproc
	pushl	%ebp
	.cfi_def_cfa_offset 8
	.cfi_offset 5, -8
	movl	%esp, %ebp
	.cfi_def_cfa_register 5
	pushl	%ebx
	subl	$32, %esp
	.cfi_offset 3, -12
	.loc 4 394 17
	movl	$1000000000, -8(%ebp)
	.loc 4 401 24
	leal	-16(%ebp), %eax
	movl	%eax, 8(%esp)
	movl	-8(%ebp), %eax
	movl	%eax, 4(%esp)
	movl	12(%ebp), %eax
	movl	%eax, (%esp)
	call	__MULTIPLYX_UNIT
	movl	%eax, -12(%ebp)
	.loc 4 402 5
	movl	-16(%ebp), %ebx
	.loc 4 402 16
	movl	8(%ebp), %eax
	movl	16(%ebp), %edx
	movl	%edx, 12(%esp)
	movl	%eax, 8(%esp)
	movl	-12(%ebp), %eax
	movl	%eax, 4(%esp)
	movl	$0, (%esp)
	call	__ADDX_UNIT
	.loc 4 402 5
	movsbl	%al, %eax
	leal	8(%ebp), %ecx
	movl	%ecx, 12(%esp)
	movl	$0, 8(%esp)
	movl	%ebx, 4(%esp)
	movl	%eax, (%esp)
	call	__ADDX_UNIT
	.loc 4 403 12
	movl	8(%ebp), %eax
	.loc 4 404 1
	addl	$32, %esp
	popl	%ebx
	.cfi_restore 3
	popl	%ebp
	.cfi_restore 5
	.cfi_def_cfa 4, 4
	ret
	.cfi_endproc
LFE4249:
	.def	_MultiplyAndAdd_using_ADC_MUL;	.scl	3;	.type	32;	.endef
_MultiplyAndAdd_using_ADC_MUL:
LFB4250:
	.loc 4 407 1
	.cfi_startproc
	pushl	%ebp
	.cfi_def_cfa_offset 8
	.cfi_offset 5, -8
	movl	%esp, %ebp
	.cfi_def_cfa_register 5
	subl	$28, %esp
	.loc 4 408 17
	movl	16(%ebp), %eax
	movl	%eax, -4(%ebp)
	.loc 4 409 17
	movl	12(%ebp), %eax
	shrl	$5, %eax
	movl	%eax, -8(%ebp)
	.loc 4 410 11
	jmp	L100
L101:
	.loc 4 412 13
	movl	8(%ebp), %eax
	movl	(%eax), %eax
	movl	8(%ebp), %edx
	movl	%edx, 8(%esp)
	movl	%eax, 4(%esp)
	movl	-4(%ebp), %eax
	movl	%eax, (%esp)
	call	_MultiplyAndAdd1Word_using_ADC_MUL
	movl	%eax, -4(%ebp)
	.loc 4 413 13
	movl	8(%ebp), %eax
	leal	4(%eax), %edx
	.loc 4 413 55
	movl	8(%ebp), %eax
	addl	$4, %eax
	.loc 4 413 13
	movl	(%eax), %eax
	movl	%edx, 8(%esp)
	movl	%eax, 4(%esp)
	movl	-4(%ebp), %eax
	movl	%eax, (%esp)
	call	_MultiplyAndAdd1Word_using_ADC_MUL
	movl	%eax, -4(%ebp)
	.loc 4 414 13
	movl	8(%ebp), %eax
	leal	8(%eax), %edx
	.loc 4 414 55
	movl	8(%ebp), %eax
	addl	$8, %eax
	.loc 4 414 13
	movl	(%eax), %eax
	movl	%edx, 8(%esp)
	movl	%eax, 4(%esp)
	movl	-4(%ebp), %eax
	movl	%eax, (%esp)
	call	_MultiplyAndAdd1Word_using_ADC_MUL
	movl	%eax, -4(%ebp)
	.loc 4 415 13
	movl	8(%ebp), %eax
	leal	12(%eax), %edx
	.loc 4 415 55
	movl	8(%ebp), %eax
	addl	$12, %eax
	.loc 4 415 13
	movl	(%eax), %eax
	movl	%edx, 8(%esp)
	movl	%eax, 4(%esp)
	movl	-4(%ebp), %eax
	movl	%eax, (%esp)
	call	_MultiplyAndAdd1Word_using_ADC_MUL
	movl	%eax, -4(%ebp)
	.loc 4 416 13
	movl	8(%ebp), %eax
	leal	16(%eax), %edx
	.loc 4 416 55
	movl	8(%ebp), %eax
	addl	$16, %eax
	.loc 4 416 13
	movl	(%eax), %eax
	movl	%edx, 8(%esp)
	movl	%eax, 4(%esp)
	movl	-4(%ebp), %eax
	movl	%eax, (%esp)
	call	_MultiplyAndAdd1Word_using_ADC_MUL
	movl	%eax, -4(%ebp)
	.loc 4 417 13
	movl	8(%ebp), %eax
	leal	20(%eax), %edx
	.loc 4 417 55
	movl	8(%ebp), %eax
	addl	$20, %eax
	.loc 4 417 13
	movl	(%eax), %eax
	movl	%edx, 8(%esp)
	movl	%eax, 4(%esp)
	movl	-4(%ebp), %eax
	movl	%eax, (%esp)
	call	_MultiplyAndAdd1Word_using_ADC_MUL
	movl	%eax, -4(%ebp)
	.loc 4 418 13
	movl	8(%ebp), %eax
	leal	24(%eax), %edx
	.loc 4 418 55
	movl	8(%ebp), %eax
	addl	$24, %eax
	.loc 4 418 13
	movl	(%eax), %eax
	movl	%edx, 8(%esp)
	movl	%eax, 4(%esp)
	movl	-4(%ebp), %eax
	movl	%eax, (%esp)
	call	_MultiplyAndAdd1Word_using_ADC_MUL
	movl	%eax, -4(%ebp)
	.loc 4 419 13
	movl	8(%ebp), %eax
	leal	28(%eax), %edx
	.loc 4 419 55
	movl	8(%ebp), %eax
	addl	$28, %eax
	.loc 4 419 13
	movl	(%eax), %eax
	movl	%edx, 8(%esp)
	movl	%eax, 4(%esp)
	movl	-4(%ebp), %eax
	movl	%eax, (%esp)
	call	_MultiplyAndAdd1Word_using_ADC_MUL
	movl	%eax, -4(%ebp)
	.loc 4 420 13
	movl	8(%ebp), %eax
	leal	32(%eax), %edx
	.loc 4 420 55
	movl	8(%ebp), %eax
	addl	$32, %eax
	.loc 4 420 13
	movl	(%eax), %eax
	movl	%edx, 8(%esp)
	movl	%eax, 4(%esp)
	movl	-4(%ebp), %eax
	movl	%eax, (%esp)
	call	_MultiplyAndAdd1Word_using_ADC_MUL
	movl	%eax, -4(%ebp)
	.loc 4 421 13
	movl	8(%ebp), %eax
	leal	36(%eax), %edx
	.loc 4 421 55
	movl	8(%ebp), %eax
	addl	$36, %eax
	.loc 4 421 13
	movl	(%eax), %eax
	movl	%edx, 8(%esp)
	movl	%eax, 4(%esp)
	movl	-4(%ebp), %eax
	movl	%eax, (%esp)
	call	_MultiplyAndAdd1Word_using_ADC_MUL
	movl	%eax, -4(%ebp)
	.loc 4 422 13
	movl	8(%ebp), %eax
	leal	40(%eax), %edx
	.loc 4 422 55
	movl	8(%ebp), %eax
	addl	$40, %eax
	.loc 4 422 13
	movl	(%eax), %eax
	movl	%edx, 8(%esp)
	movl	%eax, 4(%esp)
	movl	-4(%ebp), %eax
	movl	%eax, (%esp)
	call	_MultiplyAndAdd1Word_using_ADC_MUL
	movl	%eax, -4(%ebp)
	.loc 4 423 13
	movl	8(%ebp), %eax
	leal	44(%eax), %edx
	.loc 4 423 55
	movl	8(%ebp), %eax
	addl	$44, %eax
	.loc 4 423 13
	movl	(%eax), %eax
	movl	%edx, 8(%esp)
	movl	%eax, 4(%esp)
	movl	-4(%ebp), %eax
	movl	%eax, (%esp)
	call	_MultiplyAndAdd1Word_using_ADC_MUL
	movl	%eax, -4(%ebp)
	.loc 4 424 13
	movl	8(%ebp), %eax
	leal	48(%eax), %edx
	.loc 4 424 55
	movl	8(%ebp), %eax
	addl	$48, %eax
	.loc 4 424 13
	movl	(%eax), %eax
	movl	%edx, 8(%esp)
	movl	%eax, 4(%esp)
	movl	-4(%ebp), %eax
	movl	%eax, (%esp)
	call	_MultiplyAndAdd1Word_using_ADC_MUL
	movl	%eax, -4(%ebp)
	.loc 4 425 13
	movl	8(%ebp), %eax
	leal	52(%eax), %edx
	.loc 4 425 55
	movl	8(%ebp), %eax
	addl	$52, %eax
	.loc 4 425 13
	movl	(%eax), %eax
	movl	%edx, 8(%esp)
	movl	%eax, 4(%esp)
	movl	-4(%ebp), %eax
	movl	%eax, (%esp)
	call	_MultiplyAndAdd1Word_using_ADC_MUL
	movl	%eax, -4(%ebp)
	.loc 4 426 13
	movl	8(%ebp), %eax
	leal	56(%eax), %edx
	.loc 4 426 55
	movl	8(%ebp), %eax
	addl	$56, %eax
	.loc 4 426 13
	movl	(%eax), %eax
	movl	%edx, 8(%esp)
	movl	%eax, 4(%esp)
	movl	-4(%ebp), %eax
	movl	%eax, (%esp)
	call	_MultiplyAndAdd1Word_using_ADC_MUL
	movl	%eax, -4(%ebp)
	.loc 4 427 13
	movl	8(%ebp), %eax
	leal	60(%eax), %edx
	.loc 4 427 55
	movl	8(%ebp), %eax
	addl	$60, %eax
	.loc 4 427 13
	movl	(%eax), %eax
	movl	%edx, 8(%esp)
	movl	%eax, 4(%esp)
	movl	-4(%ebp), %eax
	movl	%eax, (%esp)
	call	_MultiplyAndAdd1Word_using_ADC_MUL
	movl	%eax, -4(%ebp)
	.loc 4 428 13
	movl	8(%ebp), %eax
	leal	64(%eax), %edx
	.loc 4 428 55
	movl	8(%ebp), %eax
	addl	$64, %eax
	.loc 4 428 13
	movl	(%eax), %eax
	movl	%edx, 8(%esp)
	movl	%eax, 4(%esp)
	movl	-4(%ebp), %eax
	movl	%eax, (%esp)
	call	_MultiplyAndAdd1Word_using_ADC_MUL
	movl	%eax, -4(%ebp)
	.loc 4 429 13
	movl	8(%ebp), %eax
	leal	68(%eax), %edx
	.loc 4 429 55
	movl	8(%ebp), %eax
	addl	$68, %eax
	.loc 4 429 13
	movl	(%eax), %eax
	movl	%edx, 8(%esp)
	movl	%eax, 4(%esp)
	movl	-4(%ebp), %eax
	movl	%eax, (%esp)
	call	_MultiplyAndAdd1Word_using_ADC_MUL
	movl	%eax, -4(%ebp)
	.loc 4 430 13
	movl	8(%ebp), %eax
	leal	72(%eax), %edx
	.loc 4 430 55
	movl	8(%ebp), %eax
	addl	$72, %eax
	.loc 4 430 13
	movl	(%eax), %eax
	movl	%edx, 8(%esp)
	movl	%eax, 4(%esp)
	movl	-4(%ebp), %eax
	movl	%eax, (%esp)
	call	_MultiplyAndAdd1Word_using_ADC_MUL
	movl	%eax, -4(%ebp)
	.loc 4 431 13
	movl	8(%ebp), %eax
	leal	76(%eax), %edx
	.loc 4 431 55
	movl	8(%ebp), %eax
	addl	$76, %eax
	.loc 4 431 13
	movl	(%eax), %eax
	movl	%edx, 8(%esp)
	movl	%eax, 4(%esp)
	movl	-4(%ebp), %eax
	movl	%eax, (%esp)
	call	_MultiplyAndAdd1Word_using_ADC_MUL
	movl	%eax, -4(%ebp)
	.loc 4 432 13
	movl	8(%ebp), %eax
	leal	80(%eax), %edx
	.loc 4 432 55
	movl	8(%ebp), %eax
	addl	$80, %eax
	.loc 4 432 13
	movl	(%eax), %eax
	movl	%edx, 8(%esp)
	movl	%eax, 4(%esp)
	movl	-4(%ebp), %eax
	movl	%eax, (%esp)
	call	_MultiplyAndAdd1Word_using_ADC_MUL
	movl	%eax, -4(%ebp)
	.loc 4 433 13
	movl	8(%ebp), %eax
	leal	84(%eax), %edx
	.loc 4 433 55
	movl	8(%ebp), %eax
	addl	$84, %eax
	.loc 4 433 13
	movl	(%eax), %eax
	movl	%edx, 8(%esp)
	movl	%eax, 4(%esp)
	movl	-4(%ebp), %eax
	movl	%eax, (%esp)
	call	_MultiplyAndAdd1Word_using_ADC_MUL
	movl	%eax, -4(%ebp)
	.loc 4 434 13
	movl	8(%ebp), %eax
	leal	88(%eax), %edx
	.loc 4 434 55
	movl	8(%ebp), %eax
	addl	$88, %eax
	.loc 4 434 13
	movl	(%eax), %eax
	movl	%edx, 8(%esp)
	movl	%eax, 4(%esp)
	movl	-4(%ebp), %eax
	movl	%eax, (%esp)
	call	_MultiplyAndAdd1Word_using_ADC_MUL
	movl	%eax, -4(%ebp)
	.loc 4 435 13
	movl	8(%ebp), %eax
	leal	92(%eax), %edx
	.loc 4 435 55
	movl	8(%ebp), %eax
	addl	$92, %eax
	.loc 4 435 13
	movl	(%eax), %eax
	movl	%edx, 8(%esp)
	movl	%eax, 4(%esp)
	movl	-4(%ebp), %eax
	movl	%eax, (%esp)
	call	_MultiplyAndAdd1Word_using_ADC_MUL
	movl	%eax, -4(%ebp)
	.loc 4 436 13
	movl	8(%ebp), %eax
	leal	96(%eax), %edx
	.loc 4 436 55
	movl	8(%ebp), %eax
	addl	$96, %eax
	.loc 4 436 13
	movl	(%eax), %eax
	movl	%edx, 8(%esp)
	movl	%eax, 4(%esp)
	movl	-4(%ebp), %eax
	movl	%eax, (%esp)
	call	_MultiplyAndAdd1Word_using_ADC_MUL
	movl	%eax, -4(%ebp)
	.loc 4 437 13
	movl	8(%ebp), %eax
	leal	100(%eax), %edx
	.loc 4 437 55
	movl	8(%ebp), %eax
	addl	$100, %eax
	.loc 4 437 13
	movl	(%eax), %eax
	movl	%edx, 8(%esp)
	movl	%eax, 4(%esp)
	movl	-4(%ebp), %eax
	movl	%eax, (%esp)
	call	_MultiplyAndAdd1Word_using_ADC_MUL
	movl	%eax, -4(%ebp)
	.loc 4 438 13
	movl	8(%ebp), %eax
	leal	104(%eax), %edx
	.loc 4 438 55
	movl	8(%ebp), %eax
	addl	$104, %eax
	.loc 4 438 13
	movl	(%eax), %eax
	movl	%edx, 8(%esp)
	movl	%eax, 4(%esp)
	movl	-4(%ebp), %eax
	movl	%eax, (%esp)
	call	_MultiplyAndAdd1Word_using_ADC_MUL
	movl	%eax, -4(%ebp)
	.loc 4 439 13
	movl	8(%ebp), %eax
	leal	108(%eax), %edx
	.loc 4 439 55
	movl	8(%ebp), %eax
	addl	$108, %eax
	.loc 4 439 13
	movl	(%eax), %eax
	movl	%edx, 8(%esp)
	movl	%eax, 4(%esp)
	movl	-4(%ebp), %eax
	movl	%eax, (%esp)
	call	_MultiplyAndAdd1Word_using_ADC_MUL
	movl	%eax, -4(%ebp)
	.loc 4 440 13
	movl	8(%ebp), %eax
	leal	112(%eax), %edx
	.loc 4 440 55
	movl	8(%ebp), %eax
	addl	$112, %eax
	.loc 4 440 13
	movl	(%eax), %eax
	movl	%edx, 8(%esp)
	movl	%eax, 4(%esp)
	movl	-4(%ebp), %eax
	movl	%eax, (%esp)
	call	_MultiplyAndAdd1Word_using_ADC_MUL
	movl	%eax, -4(%ebp)
	.loc 4 441 13
	movl	8(%ebp), %eax
	leal	116(%eax), %edx
	.loc 4 441 55
	movl	8(%ebp), %eax
	addl	$116, %eax
	.loc 4 441 13
	movl	(%eax), %eax
	movl	%edx, 8(%esp)
	movl	%eax, 4(%esp)
	movl	-4(%ebp), %eax
	movl	%eax, (%esp)
	call	_MultiplyAndAdd1Word_using_ADC_MUL
	movl	%eax, -4(%ebp)
	.loc 4 442 13
	movl	8(%ebp), %eax
	leal	120(%eax), %edx
	.loc 4 442 55
	movl	8(%ebp), %eax
	addl	$120, %eax
	.loc 4 442 13
	movl	(%eax), %eax
	movl	%edx, 8(%esp)
	movl	%eax, 4(%esp)
	movl	-4(%ebp), %eax
	movl	%eax, (%esp)
	call	_MultiplyAndAdd1Word_using_ADC_MUL
	movl	%eax, -4(%ebp)
	.loc 4 443 13
	movl	8(%ebp), %eax
	leal	124(%eax), %edx
	.loc 4 443 55
	movl	8(%ebp), %eax
	addl	$124, %eax
	.loc 4 443 13
	movl	(%eax), %eax
	movl	%edx, 8(%esp)
	movl	%eax, 4(%esp)
	movl	-4(%ebp), %eax
	movl	%eax, (%esp)
	call	_MultiplyAndAdd1Word_using_ADC_MUL
	movl	%eax, -4(%ebp)
	.loc 4 444 15
	subl	$-128, 8(%ebp)
	.loc 4 445 9
	subl	$1, -8(%ebp)
L100:
	.loc 4 410 11
	cmpl	$0, -8(%ebp)
	jne	L101
	.loc 4 448 17
	movl	12(%ebp), %eax
	andl	$16, %eax
	.loc 4 448 8
	testl	%eax, %eax
	je	L102
	.loc 4 450 13
	movl	8(%ebp), %eax
	movl	(%eax), %eax
	movl	8(%ebp), %edx
	movl	%edx, 8(%esp)
	movl	%eax, 4(%esp)
	movl	-4(%ebp), %eax
	movl	%eax, (%esp)
	call	_MultiplyAndAdd1Word_using_ADC_MUL
	movl	%eax, -4(%ebp)
	.loc 4 451 13
	movl	8(%ebp), %eax
	leal	4(%eax), %edx
	.loc 4 451 55
	movl	8(%ebp), %eax
	addl	$4, %eax
	.loc 4 451 13
	movl	(%eax), %eax
	movl	%edx, 8(%esp)
	movl	%eax, 4(%esp)
	movl	-4(%ebp), %eax
	movl	%eax, (%esp)
	call	_MultiplyAndAdd1Word_using_ADC_MUL
	movl	%eax, -4(%ebp)
	.loc 4 452 13
	movl	8(%ebp), %eax
	leal	8(%eax), %edx
	.loc 4 452 55
	movl	8(%ebp), %eax
	addl	$8, %eax
	.loc 4 452 13
	movl	(%eax), %eax
	movl	%edx, 8(%esp)
	movl	%eax, 4(%esp)
	movl	-4(%ebp), %eax
	movl	%eax, (%esp)
	call	_MultiplyAndAdd1Word_using_ADC_MUL
	movl	%eax, -4(%ebp)
	.loc 4 453 13
	movl	8(%ebp), %eax
	leal	12(%eax), %edx
	.loc 4 453 55
	movl	8(%ebp), %eax
	addl	$12, %eax
	.loc 4 453 13
	movl	(%eax), %eax
	movl	%edx, 8(%esp)
	movl	%eax, 4(%esp)
	movl	-4(%ebp), %eax
	movl	%eax, (%esp)
	call	_MultiplyAndAdd1Word_using_ADC_MUL
	movl	%eax, -4(%ebp)
	.loc 4 454 13
	movl	8(%ebp), %eax
	leal	16(%eax), %edx
	.loc 4 454 55
	movl	8(%ebp), %eax
	addl	$16, %eax
	.loc 4 454 13
	movl	(%eax), %eax
	movl	%edx, 8(%esp)
	movl	%eax, 4(%esp)
	movl	-4(%ebp), %eax
	movl	%eax, (%esp)
	call	_MultiplyAndAdd1Word_using_ADC_MUL
	movl	%eax, -4(%ebp)
	.loc 4 455 13
	movl	8(%ebp), %eax
	leal	20(%eax), %edx
	.loc 4 455 55
	movl	8(%ebp), %eax
	addl	$20, %eax
	.loc 4 455 13
	movl	(%eax), %eax
	movl	%edx, 8(%esp)
	movl	%eax, 4(%esp)
	movl	-4(%ebp), %eax
	movl	%eax, (%esp)
	call	_MultiplyAndAdd1Word_using_ADC_MUL
	movl	%eax, -4(%ebp)
	.loc 4 456 13
	movl	8(%ebp), %eax
	leal	24(%eax), %edx
	.loc 4 456 55
	movl	8(%ebp), %eax
	addl	$24, %eax
	.loc 4 456 13
	movl	(%eax), %eax
	movl	%edx, 8(%esp)
	movl	%eax, 4(%esp)
	movl	-4(%ebp), %eax
	movl	%eax, (%esp)
	call	_MultiplyAndAdd1Word_using_ADC_MUL
	movl	%eax, -4(%ebp)
	.loc 4 457 13
	movl	8(%ebp), %eax
	leal	28(%eax), %edx
	.loc 4 457 55
	movl	8(%ebp), %eax
	addl	$28, %eax
	.loc 4 457 13
	movl	(%eax), %eax
	movl	%edx, 8(%esp)
	movl	%eax, 4(%esp)
	movl	-4(%ebp), %eax
	movl	%eax, (%esp)
	call	_MultiplyAndAdd1Word_using_ADC_MUL
	movl	%eax, -4(%ebp)
	.loc 4 458 13
	movl	8(%ebp), %eax
	leal	32(%eax), %edx
	.loc 4 458 55
	movl	8(%ebp), %eax
	addl	$32, %eax
	.loc 4 458 13
	movl	(%eax), %eax
	movl	%edx, 8(%esp)
	movl	%eax, 4(%esp)
	movl	-4(%ebp), %eax
	movl	%eax, (%esp)
	call	_MultiplyAndAdd1Word_using_ADC_MUL
	movl	%eax, -4(%ebp)
	.loc 4 459 13
	movl	8(%ebp), %eax
	leal	36(%eax), %edx
	.loc 4 459 55
	movl	8(%ebp), %eax
	addl	$36, %eax
	.loc 4 459 13
	movl	(%eax), %eax
	movl	%edx, 8(%esp)
	movl	%eax, 4(%esp)
	movl	-4(%ebp), %eax
	movl	%eax, (%esp)
	call	_MultiplyAndAdd1Word_using_ADC_MUL
	movl	%eax, -4(%ebp)
	.loc 4 460 13
	movl	8(%ebp), %eax
	leal	40(%eax), %edx
	.loc 4 460 55
	movl	8(%ebp), %eax
	addl	$40, %eax
	.loc 4 460 13
	movl	(%eax), %eax
	movl	%edx, 8(%esp)
	movl	%eax, 4(%esp)
	movl	-4(%ebp), %eax
	movl	%eax, (%esp)
	call	_MultiplyAndAdd1Word_using_ADC_MUL
	movl	%eax, -4(%ebp)
	.loc 4 461 13
	movl	8(%ebp), %eax
	leal	44(%eax), %edx
	.loc 4 461 55
	movl	8(%ebp), %eax
	addl	$44, %eax
	.loc 4 461 13
	movl	(%eax), %eax
	movl	%edx, 8(%esp)
	movl	%eax, 4(%esp)
	movl	-4(%ebp), %eax
	movl	%eax, (%esp)
	call	_MultiplyAndAdd1Word_using_ADC_MUL
	movl	%eax, -4(%ebp)
	.loc 4 462 13
	movl	8(%ebp), %eax
	leal	48(%eax), %edx
	.loc 4 462 55
	movl	8(%ebp), %eax
	addl	$48, %eax
	.loc 4 462 13
	movl	(%eax), %eax
	movl	%edx, 8(%esp)
	movl	%eax, 4(%esp)
	movl	-4(%ebp), %eax
	movl	%eax, (%esp)
	call	_MultiplyAndAdd1Word_using_ADC_MUL
	movl	%eax, -4(%ebp)
	.loc 4 463 13
	movl	8(%ebp), %eax
	leal	52(%eax), %edx
	.loc 4 463 55
	movl	8(%ebp), %eax
	addl	$52, %eax
	.loc 4 463 13
	movl	(%eax), %eax
	movl	%edx, 8(%esp)
	movl	%eax, 4(%esp)
	movl	-4(%ebp), %eax
	movl	%eax, (%esp)
	call	_MultiplyAndAdd1Word_using_ADC_MUL
	movl	%eax, -4(%ebp)
	.loc 4 464 13
	movl	8(%ebp), %eax
	leal	56(%eax), %edx
	.loc 4 464 55
	movl	8(%ebp), %eax
	addl	$56, %eax
	.loc 4 464 13
	movl	(%eax), %eax
	movl	%edx, 8(%esp)
	movl	%eax, 4(%esp)
	movl	-4(%ebp), %eax
	movl	%eax, (%esp)
	call	_MultiplyAndAdd1Word_using_ADC_MUL
	movl	%eax, -4(%ebp)
	.loc 4 465 13
	movl	8(%ebp), %eax
	leal	60(%eax), %edx
	.loc 4 465 55
	movl	8(%ebp), %eax
	addl	$60, %eax
	.loc 4 465 13
	movl	(%eax), %eax
	movl	%edx, 8(%esp)
	movl	%eax, 4(%esp)
	movl	-4(%ebp), %eax
	movl	%eax, (%esp)
	call	_MultiplyAndAdd1Word_using_ADC_MUL
	movl	%eax, -4(%ebp)
	.loc 4 466 15
	addl	$64, 8(%ebp)
L102:
	.loc 4 469 17
	movl	12(%ebp), %eax
	andl	$8, %eax
	.loc 4 469 8
	testl	%eax, %eax
	je	L103
	.loc 4 471 13
	movl	8(%ebp), %eax
	movl	(%eax), %eax
	movl	8(%ebp), %edx
	movl	%edx, 8(%esp)
	movl	%eax, 4(%esp)
	movl	-4(%ebp), %eax
	movl	%eax, (%esp)
	call	_MultiplyAndAdd1Word_using_ADC_MUL
	movl	%eax, -4(%ebp)
	.loc 4 472 13
	movl	8(%ebp), %eax
	leal	4(%eax), %edx
	.loc 4 472 55
	movl	8(%ebp), %eax
	addl	$4, %eax
	.loc 4 472 13
	movl	(%eax), %eax
	movl	%edx, 8(%esp)
	movl	%eax, 4(%esp)
	movl	-4(%ebp), %eax
	movl	%eax, (%esp)
	call	_MultiplyAndAdd1Word_using_ADC_MUL
	movl	%eax, -4(%ebp)
	.loc 4 473 13
	movl	8(%ebp), %eax
	leal	8(%eax), %edx
	.loc 4 473 55
	movl	8(%ebp), %eax
	addl	$8, %eax
	.loc 4 473 13
	movl	(%eax), %eax
	movl	%edx, 8(%esp)
	movl	%eax, 4(%esp)
	movl	-4(%ebp), %eax
	movl	%eax, (%esp)
	call	_MultiplyAndAdd1Word_using_ADC_MUL
	movl	%eax, -4(%ebp)
	.loc 4 474 13
	movl	8(%ebp), %eax
	leal	12(%eax), %edx
	.loc 4 474 55
	movl	8(%ebp), %eax
	addl	$12, %eax
	.loc 4 474 13
	movl	(%eax), %eax
	movl	%edx, 8(%esp)
	movl	%eax, 4(%esp)
	movl	-4(%ebp), %eax
	movl	%eax, (%esp)
	call	_MultiplyAndAdd1Word_using_ADC_MUL
	movl	%eax, -4(%ebp)
	.loc 4 475 13
	movl	8(%ebp), %eax
	leal	16(%eax), %edx
	.loc 4 475 55
	movl	8(%ebp), %eax
	addl	$16, %eax
	.loc 4 475 13
	movl	(%eax), %eax
	movl	%edx, 8(%esp)
	movl	%eax, 4(%esp)
	movl	-4(%ebp), %eax
	movl	%eax, (%esp)
	call	_MultiplyAndAdd1Word_using_ADC_MUL
	movl	%eax, -4(%ebp)
	.loc 4 476 13
	movl	8(%ebp), %eax
	leal	20(%eax), %edx
	.loc 4 476 55
	movl	8(%ebp), %eax
	addl	$20, %eax
	.loc 4 476 13
	movl	(%eax), %eax
	movl	%edx, 8(%esp)
	movl	%eax, 4(%esp)
	movl	-4(%ebp), %eax
	movl	%eax, (%esp)
	call	_MultiplyAndAdd1Word_using_ADC_MUL
	movl	%eax, -4(%ebp)
	.loc 4 477 13
	movl	8(%ebp), %eax
	leal	24(%eax), %edx
	.loc 4 477 55
	movl	8(%ebp), %eax
	addl	$24, %eax
	.loc 4 477 13
	movl	(%eax), %eax
	movl	%edx, 8(%esp)
	movl	%eax, 4(%esp)
	movl	-4(%ebp), %eax
	movl	%eax, (%esp)
	call	_MultiplyAndAdd1Word_using_ADC_MUL
	movl	%eax, -4(%ebp)
	.loc 4 478 13
	movl	8(%ebp), %eax
	leal	28(%eax), %edx
	.loc 4 478 55
	movl	8(%ebp), %eax
	addl	$28, %eax
	.loc 4 478 13
	movl	(%eax), %eax
	movl	%edx, 8(%esp)
	movl	%eax, 4(%esp)
	movl	-4(%ebp), %eax
	movl	%eax, (%esp)
	call	_MultiplyAndAdd1Word_using_ADC_MUL
	movl	%eax, -4(%ebp)
	.loc 4 479 15
	addl	$32, 8(%ebp)
L103:
	.loc 4 482 17
	movl	12(%ebp), %eax
	andl	$4, %eax
	.loc 4 482 8
	testl	%eax, %eax
	je	L104
	.loc 4 484 13
	movl	8(%ebp), %eax
	movl	(%eax), %eax
	movl	8(%ebp), %edx
	movl	%edx, 8(%esp)
	movl	%eax, 4(%esp)
	movl	-4(%ebp), %eax
	movl	%eax, (%esp)
	call	_MultiplyAndAdd1Word_using_ADC_MUL
	movl	%eax, -4(%ebp)
	.loc 4 485 13
	movl	8(%ebp), %eax
	leal	4(%eax), %edx
	.loc 4 485 55
	movl	8(%ebp), %eax
	addl	$4, %eax
	.loc 4 485 13
	movl	(%eax), %eax
	movl	%edx, 8(%esp)
	movl	%eax, 4(%esp)
	movl	-4(%ebp), %eax
	movl	%eax, (%esp)
	call	_MultiplyAndAdd1Word_using_ADC_MUL
	movl	%eax, -4(%ebp)
	.loc 4 486 13
	movl	8(%ebp), %eax
	leal	8(%eax), %edx
	.loc 4 486 55
	movl	8(%ebp), %eax
	addl	$8, %eax
	.loc 4 486 13
	movl	(%eax), %eax
	movl	%edx, 8(%esp)
	movl	%eax, 4(%esp)
	movl	-4(%ebp), %eax
	movl	%eax, (%esp)
	call	_MultiplyAndAdd1Word_using_ADC_MUL
	movl	%eax, -4(%ebp)
	.loc 4 487 13
	movl	8(%ebp), %eax
	leal	12(%eax), %edx
	.loc 4 487 55
	movl	8(%ebp), %eax
	addl	$12, %eax
	.loc 4 487 13
	movl	(%eax), %eax
	movl	%edx, 8(%esp)
	movl	%eax, 4(%esp)
	movl	-4(%ebp), %eax
	movl	%eax, (%esp)
	call	_MultiplyAndAdd1Word_using_ADC_MUL
	movl	%eax, -4(%ebp)
	.loc 4 488 15
	addl	$16, 8(%ebp)
L104:
	.loc 4 491 17
	movl	12(%ebp), %eax
	andl	$2, %eax
	.loc 4 491 8
	testl	%eax, %eax
	je	L105
	.loc 4 493 13
	movl	8(%ebp), %eax
	movl	(%eax), %eax
	movl	8(%ebp), %edx
	movl	%edx, 8(%esp)
	movl	%eax, 4(%esp)
	movl	-4(%ebp), %eax
	movl	%eax, (%esp)
	call	_MultiplyAndAdd1Word_using_ADC_MUL
	movl	%eax, -4(%ebp)
	.loc 4 494 13
	movl	8(%ebp), %eax
	leal	4(%eax), %edx
	.loc 4 494 55
	movl	8(%ebp), %eax
	addl	$4, %eax
	.loc 4 494 13
	movl	(%eax), %eax
	movl	%edx, 8(%esp)
	movl	%eax, 4(%esp)
	movl	-4(%ebp), %eax
	movl	%eax, (%esp)
	call	_MultiplyAndAdd1Word_using_ADC_MUL
	movl	%eax, -4(%ebp)
	.loc 4 495 15
	addl	$8, 8(%ebp)
L105:
	.loc 4 498 17
	movl	12(%ebp), %eax
	andl	$1, %eax
	.loc 4 498 8
	testl	%eax, %eax
	je	L106
	.loc 4 500 13
	movl	8(%ebp), %eax
	movl	(%eax), %eax
	movl	8(%ebp), %edx
	movl	%edx, 8(%esp)
	movl	%eax, 4(%esp)
	movl	-4(%ebp), %eax
	movl	%eax, (%esp)
	call	_MultiplyAndAdd1Word_using_ADC_MUL
	movl	%eax, -4(%ebp)
	.loc 4 501 15
	addl	$4, 8(%ebp)
L106:
	.loc 4 504 8
	cmpl	$0, -4(%ebp)
	je	L107
	.loc 4 506 18
	movl	8(%ebp), %eax
	movl	-4(%ebp), %edx
	movl	%edx, (%eax)
	.loc 4 507 15
	addl	$4, 8(%ebp)
L107:
	.loc 4 510 12
	movl	8(%ebp), %eax
	.loc 4 511 1
	leave
	.cfi_restore 5
	.cfi_def_cfa 4, 4
	ret
	.cfi_endproc
LFE4250:
	.def	_MultiplyAndAdd_using_ADCX_MULX;	.scl	3;	.type	32;	.endef
_MultiplyAndAdd_using_ADCX_MULX:
LFB4251:
	.loc 4 514 1
	.cfi_startproc
	pushl	%ebp
	.cfi_def_cfa_offset 8
	.cfi_offset 5, -8
	movl	%esp, %ebp
	.cfi_def_cfa_register 5
	subl	$28, %esp
	.loc 4 515 17
	movl	16(%ebp), %eax
	movl	%eax, -4(%ebp)
	.loc 4 516 17
	movl	12(%ebp), %eax
	shrl	$5, %eax
	movl	%eax, -8(%ebp)
	.loc 4 517 11
	jmp	L110
L111:
	.loc 4 519 13
	movl	8(%ebp), %eax
	movl	(%eax), %eax
	movl	8(%ebp), %edx
	movl	%edx, 8(%esp)
	movl	%eax, 4(%esp)
	movl	-4(%ebp), %eax
	movl	%eax, (%esp)
	call	_MultiplyAndAdd1Word_using_ADCX_MULX
	movl	%eax, -4(%ebp)
	.loc 4 520 13
	movl	8(%ebp), %eax
	leal	4(%eax), %edx
	.loc 4 520 57
	movl	8(%ebp), %eax
	addl	$4, %eax
	.loc 4 520 13
	movl	(%eax), %eax
	movl	%edx, 8(%esp)
	movl	%eax, 4(%esp)
	movl	-4(%ebp), %eax
	movl	%eax, (%esp)
	call	_MultiplyAndAdd1Word_using_ADCX_MULX
	movl	%eax, -4(%ebp)
	.loc 4 521 13
	movl	8(%ebp), %eax
	leal	8(%eax), %edx
	.loc 4 521 57
	movl	8(%ebp), %eax
	addl	$8, %eax
	.loc 4 521 13
	movl	(%eax), %eax
	movl	%edx, 8(%esp)
	movl	%eax, 4(%esp)
	movl	-4(%ebp), %eax
	movl	%eax, (%esp)
	call	_MultiplyAndAdd1Word_using_ADCX_MULX
	movl	%eax, -4(%ebp)
	.loc 4 522 13
	movl	8(%ebp), %eax
	leal	12(%eax), %edx
	.loc 4 522 57
	movl	8(%ebp), %eax
	addl	$12, %eax
	.loc 4 522 13
	movl	(%eax), %eax
	movl	%edx, 8(%esp)
	movl	%eax, 4(%esp)
	movl	-4(%ebp), %eax
	movl	%eax, (%esp)
	call	_MultiplyAndAdd1Word_using_ADCX_MULX
	movl	%eax, -4(%ebp)
	.loc 4 523 13
	movl	8(%ebp), %eax
	leal	16(%eax), %edx
	.loc 4 523 57
	movl	8(%ebp), %eax
	addl	$16, %eax
	.loc 4 523 13
	movl	(%eax), %eax
	movl	%edx, 8(%esp)
	movl	%eax, 4(%esp)
	movl	-4(%ebp), %eax
	movl	%eax, (%esp)
	call	_MultiplyAndAdd1Word_using_ADCX_MULX
	movl	%eax, -4(%ebp)
	.loc 4 524 13
	movl	8(%ebp), %eax
	leal	20(%eax), %edx
	.loc 4 524 57
	movl	8(%ebp), %eax
	addl	$20, %eax
	.loc 4 524 13
	movl	(%eax), %eax
	movl	%edx, 8(%esp)
	movl	%eax, 4(%esp)
	movl	-4(%ebp), %eax
	movl	%eax, (%esp)
	call	_MultiplyAndAdd1Word_using_ADCX_MULX
	movl	%eax, -4(%ebp)
	.loc 4 525 13
	movl	8(%ebp), %eax
	leal	24(%eax), %edx
	.loc 4 525 57
	movl	8(%ebp), %eax
	addl	$24, %eax
	.loc 4 525 13
	movl	(%eax), %eax
	movl	%edx, 8(%esp)
	movl	%eax, 4(%esp)
	movl	-4(%ebp), %eax
	movl	%eax, (%esp)
	call	_MultiplyAndAdd1Word_using_ADCX_MULX
	movl	%eax, -4(%ebp)
	.loc 4 526 13
	movl	8(%ebp), %eax
	leal	28(%eax), %edx
	.loc 4 526 57
	movl	8(%ebp), %eax
	addl	$28, %eax
	.loc 4 526 13
	movl	(%eax), %eax
	movl	%edx, 8(%esp)
	movl	%eax, 4(%esp)
	movl	-4(%ebp), %eax
	movl	%eax, (%esp)
	call	_MultiplyAndAdd1Word_using_ADCX_MULX
	movl	%eax, -4(%ebp)
	.loc 4 527 13
	movl	8(%ebp), %eax
	leal	32(%eax), %edx
	.loc 4 527 57
	movl	8(%ebp), %eax
	addl	$32, %eax
	.loc 4 527 13
	movl	(%eax), %eax
	movl	%edx, 8(%esp)
	movl	%eax, 4(%esp)
	movl	-4(%ebp), %eax
	movl	%eax, (%esp)
	call	_MultiplyAndAdd1Word_using_ADCX_MULX
	movl	%eax, -4(%ebp)
	.loc 4 528 13
	movl	8(%ebp), %eax
	leal	36(%eax), %edx
	.loc 4 528 57
	movl	8(%ebp), %eax
	addl	$36, %eax
	.loc 4 528 13
	movl	(%eax), %eax
	movl	%edx, 8(%esp)
	movl	%eax, 4(%esp)
	movl	-4(%ebp), %eax
	movl	%eax, (%esp)
	call	_MultiplyAndAdd1Word_using_ADCX_MULX
	movl	%eax, -4(%ebp)
	.loc 4 529 13
	movl	8(%ebp), %eax
	leal	40(%eax), %edx
	.loc 4 529 57
	movl	8(%ebp), %eax
	addl	$40, %eax
	.loc 4 529 13
	movl	(%eax), %eax
	movl	%edx, 8(%esp)
	movl	%eax, 4(%esp)
	movl	-4(%ebp), %eax
	movl	%eax, (%esp)
	call	_MultiplyAndAdd1Word_using_ADCX_MULX
	movl	%eax, -4(%ebp)
	.loc 4 530 13
	movl	8(%ebp), %eax
	leal	44(%eax), %edx
	.loc 4 530 57
	movl	8(%ebp), %eax
	addl	$44, %eax
	.loc 4 530 13
	movl	(%eax), %eax
	movl	%edx, 8(%esp)
	movl	%eax, 4(%esp)
	movl	-4(%ebp), %eax
	movl	%eax, (%esp)
	call	_MultiplyAndAdd1Word_using_ADCX_MULX
	movl	%eax, -4(%ebp)
	.loc 4 531 13
	movl	8(%ebp), %eax
	leal	48(%eax), %edx
	.loc 4 531 57
	movl	8(%ebp), %eax
	addl	$48, %eax
	.loc 4 531 13
	movl	(%eax), %eax
	movl	%edx, 8(%esp)
	movl	%eax, 4(%esp)
	movl	-4(%ebp), %eax
	movl	%eax, (%esp)
	call	_MultiplyAndAdd1Word_using_ADCX_MULX
	movl	%eax, -4(%ebp)
	.loc 4 532 13
	movl	8(%ebp), %eax
	leal	52(%eax), %edx
	.loc 4 532 57
	movl	8(%ebp), %eax
	addl	$52, %eax
	.loc 4 532 13
	movl	(%eax), %eax
	movl	%edx, 8(%esp)
	movl	%eax, 4(%esp)
	movl	-4(%ebp), %eax
	movl	%eax, (%esp)
	call	_MultiplyAndAdd1Word_using_ADCX_MULX
	movl	%eax, -4(%ebp)
	.loc 4 533 13
	movl	8(%ebp), %eax
	leal	56(%eax), %edx
	.loc 4 533 57
	movl	8(%ebp), %eax
	addl	$56, %eax
	.loc 4 533 13
	movl	(%eax), %eax
	movl	%edx, 8(%esp)
	movl	%eax, 4(%esp)
	movl	-4(%ebp), %eax
	movl	%eax, (%esp)
	call	_MultiplyAndAdd1Word_using_ADCX_MULX
	movl	%eax, -4(%ebp)
	.loc 4 534 13
	movl	8(%ebp), %eax
	leal	60(%eax), %edx
	.loc 4 534 57
	movl	8(%ebp), %eax
	addl	$60, %eax
	.loc 4 534 13
	movl	(%eax), %eax
	movl	%edx, 8(%esp)
	movl	%eax, 4(%esp)
	movl	-4(%ebp), %eax
	movl	%eax, (%esp)
	call	_MultiplyAndAdd1Word_using_ADCX_MULX
	movl	%eax, -4(%ebp)
	.loc 4 535 13
	movl	8(%ebp), %eax
	leal	64(%eax), %edx
	.loc 4 535 57
	movl	8(%ebp), %eax
	addl	$64, %eax
	.loc 4 535 13
	movl	(%eax), %eax
	movl	%edx, 8(%esp)
	movl	%eax, 4(%esp)
	movl	-4(%ebp), %eax
	movl	%eax, (%esp)
	call	_MultiplyAndAdd1Word_using_ADCX_MULX
	movl	%eax, -4(%ebp)
	.loc 4 536 13
	movl	8(%ebp), %eax
	leal	68(%eax), %edx
	.loc 4 536 57
	movl	8(%ebp), %eax
	addl	$68, %eax
	.loc 4 536 13
	movl	(%eax), %eax
	movl	%edx, 8(%esp)
	movl	%eax, 4(%esp)
	movl	-4(%ebp), %eax
	movl	%eax, (%esp)
	call	_MultiplyAndAdd1Word_using_ADCX_MULX
	movl	%eax, -4(%ebp)
	.loc 4 537 13
	movl	8(%ebp), %eax
	leal	72(%eax), %edx
	.loc 4 537 57
	movl	8(%ebp), %eax
	addl	$72, %eax
	.loc 4 537 13
	movl	(%eax), %eax
	movl	%edx, 8(%esp)
	movl	%eax, 4(%esp)
	movl	-4(%ebp), %eax
	movl	%eax, (%esp)
	call	_MultiplyAndAdd1Word_using_ADCX_MULX
	movl	%eax, -4(%ebp)
	.loc 4 538 13
	movl	8(%ebp), %eax
	leal	76(%eax), %edx
	.loc 4 538 57
	movl	8(%ebp), %eax
	addl	$76, %eax
	.loc 4 538 13
	movl	(%eax), %eax
	movl	%edx, 8(%esp)
	movl	%eax, 4(%esp)
	movl	-4(%ebp), %eax
	movl	%eax, (%esp)
	call	_MultiplyAndAdd1Word_using_ADCX_MULX
	movl	%eax, -4(%ebp)
	.loc 4 539 13
	movl	8(%ebp), %eax
	leal	80(%eax), %edx
	.loc 4 539 57
	movl	8(%ebp), %eax
	addl	$80, %eax
	.loc 4 539 13
	movl	(%eax), %eax
	movl	%edx, 8(%esp)
	movl	%eax, 4(%esp)
	movl	-4(%ebp), %eax
	movl	%eax, (%esp)
	call	_MultiplyAndAdd1Word_using_ADCX_MULX
	movl	%eax, -4(%ebp)
	.loc 4 540 13
	movl	8(%ebp), %eax
	leal	84(%eax), %edx
	.loc 4 540 57
	movl	8(%ebp), %eax
	addl	$84, %eax
	.loc 4 540 13
	movl	(%eax), %eax
	movl	%edx, 8(%esp)
	movl	%eax, 4(%esp)
	movl	-4(%ebp), %eax
	movl	%eax, (%esp)
	call	_MultiplyAndAdd1Word_using_ADCX_MULX
	movl	%eax, -4(%ebp)
	.loc 4 541 13
	movl	8(%ebp), %eax
	leal	88(%eax), %edx
	.loc 4 541 57
	movl	8(%ebp), %eax
	addl	$88, %eax
	.loc 4 541 13
	movl	(%eax), %eax
	movl	%edx, 8(%esp)
	movl	%eax, 4(%esp)
	movl	-4(%ebp), %eax
	movl	%eax, (%esp)
	call	_MultiplyAndAdd1Word_using_ADCX_MULX
	movl	%eax, -4(%ebp)
	.loc 4 542 13
	movl	8(%ebp), %eax
	leal	92(%eax), %edx
	.loc 4 542 57
	movl	8(%ebp), %eax
	addl	$92, %eax
	.loc 4 542 13
	movl	(%eax), %eax
	movl	%edx, 8(%esp)
	movl	%eax, 4(%esp)
	movl	-4(%ebp), %eax
	movl	%eax, (%esp)
	call	_MultiplyAndAdd1Word_using_ADCX_MULX
	movl	%eax, -4(%ebp)
	.loc 4 543 13
	movl	8(%ebp), %eax
	leal	96(%eax), %edx
	.loc 4 543 57
	movl	8(%ebp), %eax
	addl	$96, %eax
	.loc 4 543 13
	movl	(%eax), %eax
	movl	%edx, 8(%esp)
	movl	%eax, 4(%esp)
	movl	-4(%ebp), %eax
	movl	%eax, (%esp)
	call	_MultiplyAndAdd1Word_using_ADCX_MULX
	movl	%eax, -4(%ebp)
	.loc 4 544 13
	movl	8(%ebp), %eax
	leal	100(%eax), %edx
	.loc 4 544 57
	movl	8(%ebp), %eax
	addl	$100, %eax
	.loc 4 544 13
	movl	(%eax), %eax
	movl	%edx, 8(%esp)
	movl	%eax, 4(%esp)
	movl	-4(%ebp), %eax
	movl	%eax, (%esp)
	call	_MultiplyAndAdd1Word_using_ADCX_MULX
	movl	%eax, -4(%ebp)
	.loc 4 545 13
	movl	8(%ebp), %eax
	leal	104(%eax), %edx
	.loc 4 545 57
	movl	8(%ebp), %eax
	addl	$104, %eax
	.loc 4 545 13
	movl	(%eax), %eax
	movl	%edx, 8(%esp)
	movl	%eax, 4(%esp)
	movl	-4(%ebp), %eax
	movl	%eax, (%esp)
	call	_MultiplyAndAdd1Word_using_ADCX_MULX
	movl	%eax, -4(%ebp)
	.loc 4 546 13
	movl	8(%ebp), %eax
	leal	108(%eax), %edx
	.loc 4 546 57
	movl	8(%ebp), %eax
	addl	$108, %eax
	.loc 4 546 13
	movl	(%eax), %eax
	movl	%edx, 8(%esp)
	movl	%eax, 4(%esp)
	movl	-4(%ebp), %eax
	movl	%eax, (%esp)
	call	_MultiplyAndAdd1Word_using_ADCX_MULX
	movl	%eax, -4(%ebp)
	.loc 4 547 13
	movl	8(%ebp), %eax
	leal	112(%eax), %edx
	.loc 4 547 57
	movl	8(%ebp), %eax
	addl	$112, %eax
	.loc 4 547 13
	movl	(%eax), %eax
	movl	%edx, 8(%esp)
	movl	%eax, 4(%esp)
	movl	-4(%ebp), %eax
	movl	%eax, (%esp)
	call	_MultiplyAndAdd1Word_using_ADCX_MULX
	movl	%eax, -4(%ebp)
	.loc 4 548 13
	movl	8(%ebp), %eax
	leal	116(%eax), %edx
	.loc 4 548 57
	movl	8(%ebp), %eax
	addl	$116, %eax
	.loc 4 548 13
	movl	(%eax), %eax
	movl	%edx, 8(%esp)
	movl	%eax, 4(%esp)
	movl	-4(%ebp), %eax
	movl	%eax, (%esp)
	call	_MultiplyAndAdd1Word_using_ADCX_MULX
	movl	%eax, -4(%ebp)
	.loc 4 549 13
	movl	8(%ebp), %eax
	leal	120(%eax), %edx
	.loc 4 549 57
	movl	8(%ebp), %eax
	addl	$120, %eax
	.loc 4 549 13
	movl	(%eax), %eax
	movl	%edx, 8(%esp)
	movl	%eax, 4(%esp)
	movl	-4(%ebp), %eax
	movl	%eax, (%esp)
	call	_MultiplyAndAdd1Word_using_ADCX_MULX
	movl	%eax, -4(%ebp)
	.loc 4 550 13
	movl	8(%ebp), %eax
	leal	124(%eax), %edx
	.loc 4 550 57
	movl	8(%ebp), %eax
	addl	$124, %eax
	.loc 4 550 13
	movl	(%eax), %eax
	movl	%edx, 8(%esp)
	movl	%eax, 4(%esp)
	movl	-4(%ebp), %eax
	movl	%eax, (%esp)
	call	_MultiplyAndAdd1Word_using_ADCX_MULX
	movl	%eax, -4(%ebp)
	.loc 4 551 15
	subl	$-128, 8(%ebp)
	.loc 4 552 9
	subl	$1, -8(%ebp)
L110:
	.loc 4 517 11
	cmpl	$0, -8(%ebp)
	jne	L111
	.loc 4 555 17
	movl	12(%ebp), %eax
	andl	$16, %eax
	.loc 4 555 8
	testl	%eax, %eax
	je	L112
	.loc 4 557 13
	movl	8(%ebp), %eax
	movl	(%eax), %eax
	movl	8(%ebp), %edx
	movl	%edx, 8(%esp)
	movl	%eax, 4(%esp)
	movl	-4(%ebp), %eax
	movl	%eax, (%esp)
	call	_MultiplyAndAdd1Word_using_ADCX_MULX
	movl	%eax, -4(%ebp)
	.loc 4 558 13
	movl	8(%ebp), %eax
	leal	4(%eax), %edx
	.loc 4 558 57
	movl	8(%ebp), %eax
	addl	$4, %eax
	.loc 4 558 13
	movl	(%eax), %eax
	movl	%edx, 8(%esp)
	movl	%eax, 4(%esp)
	movl	-4(%ebp), %eax
	movl	%eax, (%esp)
	call	_MultiplyAndAdd1Word_using_ADCX_MULX
	movl	%eax, -4(%ebp)
	.loc 4 559 13
	movl	8(%ebp), %eax
	leal	8(%eax), %edx
	.loc 4 559 57
	movl	8(%ebp), %eax
	addl	$8, %eax
	.loc 4 559 13
	movl	(%eax), %eax
	movl	%edx, 8(%esp)
	movl	%eax, 4(%esp)
	movl	-4(%ebp), %eax
	movl	%eax, (%esp)
	call	_MultiplyAndAdd1Word_using_ADCX_MULX
	movl	%eax, -4(%ebp)
	.loc 4 560 13
	movl	8(%ebp), %eax
	leal	12(%eax), %edx
	.loc 4 560 57
	movl	8(%ebp), %eax
	addl	$12, %eax
	.loc 4 560 13
	movl	(%eax), %eax
	movl	%edx, 8(%esp)
	movl	%eax, 4(%esp)
	movl	-4(%ebp), %eax
	movl	%eax, (%esp)
	call	_MultiplyAndAdd1Word_using_ADCX_MULX
	movl	%eax, -4(%ebp)
	.loc 4 561 13
	movl	8(%ebp), %eax
	leal	16(%eax), %edx
	.loc 4 561 57
	movl	8(%ebp), %eax
	addl	$16, %eax
	.loc 4 561 13
	movl	(%eax), %eax
	movl	%edx, 8(%esp)
	movl	%eax, 4(%esp)
	movl	-4(%ebp), %eax
	movl	%eax, (%esp)
	call	_MultiplyAndAdd1Word_using_ADCX_MULX
	movl	%eax, -4(%ebp)
	.loc 4 562 13
	movl	8(%ebp), %eax
	leal	20(%eax), %edx
	.loc 4 562 57
	movl	8(%ebp), %eax
	addl	$20, %eax
	.loc 4 562 13
	movl	(%eax), %eax
	movl	%edx, 8(%esp)
	movl	%eax, 4(%esp)
	movl	-4(%ebp), %eax
	movl	%eax, (%esp)
	call	_MultiplyAndAdd1Word_using_ADCX_MULX
	movl	%eax, -4(%ebp)
	.loc 4 563 13
	movl	8(%ebp), %eax
	leal	24(%eax), %edx
	.loc 4 563 57
	movl	8(%ebp), %eax
	addl	$24, %eax
	.loc 4 563 13
	movl	(%eax), %eax
	movl	%edx, 8(%esp)
	movl	%eax, 4(%esp)
	movl	-4(%ebp), %eax
	movl	%eax, (%esp)
	call	_MultiplyAndAdd1Word_using_ADCX_MULX
	movl	%eax, -4(%ebp)
	.loc 4 564 13
	movl	8(%ebp), %eax
	leal	28(%eax), %edx
	.loc 4 564 57
	movl	8(%ebp), %eax
	addl	$28, %eax
	.loc 4 564 13
	movl	(%eax), %eax
	movl	%edx, 8(%esp)
	movl	%eax, 4(%esp)
	movl	-4(%ebp), %eax
	movl	%eax, (%esp)
	call	_MultiplyAndAdd1Word_using_ADCX_MULX
	movl	%eax, -4(%ebp)
	.loc 4 565 13
	movl	8(%ebp), %eax
	leal	32(%eax), %edx
	.loc 4 565 57
	movl	8(%ebp), %eax
	addl	$32, %eax
	.loc 4 565 13
	movl	(%eax), %eax
	movl	%edx, 8(%esp)
	movl	%eax, 4(%esp)
	movl	-4(%ebp), %eax
	movl	%eax, (%esp)
	call	_MultiplyAndAdd1Word_using_ADCX_MULX
	movl	%eax, -4(%ebp)
	.loc 4 566 13
	movl	8(%ebp), %eax
	leal	36(%eax), %edx
	.loc 4 566 57
	movl	8(%ebp), %eax
	addl	$36, %eax
	.loc 4 566 13
	movl	(%eax), %eax
	movl	%edx, 8(%esp)
	movl	%eax, 4(%esp)
	movl	-4(%ebp), %eax
	movl	%eax, (%esp)
	call	_MultiplyAndAdd1Word_using_ADCX_MULX
	movl	%eax, -4(%ebp)
	.loc 4 567 13
	movl	8(%ebp), %eax
	leal	40(%eax), %edx
	.loc 4 567 57
	movl	8(%ebp), %eax
	addl	$40, %eax
	.loc 4 567 13
	movl	(%eax), %eax
	movl	%edx, 8(%esp)
	movl	%eax, 4(%esp)
	movl	-4(%ebp), %eax
	movl	%eax, (%esp)
	call	_MultiplyAndAdd1Word_using_ADCX_MULX
	movl	%eax, -4(%ebp)
	.loc 4 568 13
	movl	8(%ebp), %eax
	leal	44(%eax), %edx
	.loc 4 568 57
	movl	8(%ebp), %eax
	addl	$44, %eax
	.loc 4 568 13
	movl	(%eax), %eax
	movl	%edx, 8(%esp)
	movl	%eax, 4(%esp)
	movl	-4(%ebp), %eax
	movl	%eax, (%esp)
	call	_MultiplyAndAdd1Word_using_ADCX_MULX
	movl	%eax, -4(%ebp)
	.loc 4 569 13
	movl	8(%ebp), %eax
	leal	48(%eax), %edx
	.loc 4 569 57
	movl	8(%ebp), %eax
	addl	$48, %eax
	.loc 4 569 13
	movl	(%eax), %eax
	movl	%edx, 8(%esp)
	movl	%eax, 4(%esp)
	movl	-4(%ebp), %eax
	movl	%eax, (%esp)
	call	_MultiplyAndAdd1Word_using_ADCX_MULX
	movl	%eax, -4(%ebp)
	.loc 4 570 13
	movl	8(%ebp), %eax
	leal	52(%eax), %edx
	.loc 4 570 57
	movl	8(%ebp), %eax
	addl	$52, %eax
	.loc 4 570 13
	movl	(%eax), %eax
	movl	%edx, 8(%esp)
	movl	%eax, 4(%esp)
	movl	-4(%ebp), %eax
	movl	%eax, (%esp)
	call	_MultiplyAndAdd1Word_using_ADCX_MULX
	movl	%eax, -4(%ebp)
	.loc 4 571 13
	movl	8(%ebp), %eax
	leal	56(%eax), %edx
	.loc 4 571 57
	movl	8(%ebp), %eax
	addl	$56, %eax
	.loc 4 571 13
	movl	(%eax), %eax
	movl	%edx, 8(%esp)
	movl	%eax, 4(%esp)
	movl	-4(%ebp), %eax
	movl	%eax, (%esp)
	call	_MultiplyAndAdd1Word_using_ADCX_MULX
	movl	%eax, -4(%ebp)
	.loc 4 572 13
	movl	8(%ebp), %eax
	leal	60(%eax), %edx
	.loc 4 572 57
	movl	8(%ebp), %eax
	addl	$60, %eax
	.loc 4 572 13
	movl	(%eax), %eax
	movl	%edx, 8(%esp)
	movl	%eax, 4(%esp)
	movl	-4(%ebp), %eax
	movl	%eax, (%esp)
	call	_MultiplyAndAdd1Word_using_ADCX_MULX
	movl	%eax, -4(%ebp)
	.loc 4 573 15
	addl	$64, 8(%ebp)
L112:
	.loc 4 576 17
	movl	12(%ebp), %eax
	andl	$8, %eax
	.loc 4 576 8
	testl	%eax, %eax
	je	L113
	.loc 4 578 13
	movl	8(%ebp), %eax
	movl	(%eax), %eax
	movl	8(%ebp), %edx
	movl	%edx, 8(%esp)
	movl	%eax, 4(%esp)
	movl	-4(%ebp), %eax
	movl	%eax, (%esp)
	call	_MultiplyAndAdd1Word_using_ADCX_MULX
	movl	%eax, -4(%ebp)
	.loc 4 579 13
	movl	8(%ebp), %eax
	leal	4(%eax), %edx
	.loc 4 579 57
	movl	8(%ebp), %eax
	addl	$4, %eax
	.loc 4 579 13
	movl	(%eax), %eax
	movl	%edx, 8(%esp)
	movl	%eax, 4(%esp)
	movl	-4(%ebp), %eax
	movl	%eax, (%esp)
	call	_MultiplyAndAdd1Word_using_ADCX_MULX
	movl	%eax, -4(%ebp)
	.loc 4 580 13
	movl	8(%ebp), %eax
	leal	8(%eax), %edx
	.loc 4 580 57
	movl	8(%ebp), %eax
	addl	$8, %eax
	.loc 4 580 13
	movl	(%eax), %eax
	movl	%edx, 8(%esp)
	movl	%eax, 4(%esp)
	movl	-4(%ebp), %eax
	movl	%eax, (%esp)
	call	_MultiplyAndAdd1Word_using_ADCX_MULX
	movl	%eax, -4(%ebp)
	.loc 4 581 13
	movl	8(%ebp), %eax
	leal	12(%eax), %edx
	.loc 4 581 57
	movl	8(%ebp), %eax
	addl	$12, %eax
	.loc 4 581 13
	movl	(%eax), %eax
	movl	%edx, 8(%esp)
	movl	%eax, 4(%esp)
	movl	-4(%ebp), %eax
	movl	%eax, (%esp)
	call	_MultiplyAndAdd1Word_using_ADCX_MULX
	movl	%eax, -4(%ebp)
	.loc 4 582 13
	movl	8(%ebp), %eax
	leal	16(%eax), %edx
	.loc 4 582 57
	movl	8(%ebp), %eax
	addl	$16, %eax
	.loc 4 582 13
	movl	(%eax), %eax
	movl	%edx, 8(%esp)
	movl	%eax, 4(%esp)
	movl	-4(%ebp), %eax
	movl	%eax, (%esp)
	call	_MultiplyAndAdd1Word_using_ADCX_MULX
	movl	%eax, -4(%ebp)
	.loc 4 583 13
	movl	8(%ebp), %eax
	leal	20(%eax), %edx
	.loc 4 583 57
	movl	8(%ebp), %eax
	addl	$20, %eax
	.loc 4 583 13
	movl	(%eax), %eax
	movl	%edx, 8(%esp)
	movl	%eax, 4(%esp)
	movl	-4(%ebp), %eax
	movl	%eax, (%esp)
	call	_MultiplyAndAdd1Word_using_ADCX_MULX
	movl	%eax, -4(%ebp)
	.loc 4 584 13
	movl	8(%ebp), %eax
	leal	24(%eax), %edx
	.loc 4 584 57
	movl	8(%ebp), %eax
	addl	$24, %eax
	.loc 4 584 13
	movl	(%eax), %eax
	movl	%edx, 8(%esp)
	movl	%eax, 4(%esp)
	movl	-4(%ebp), %eax
	movl	%eax, (%esp)
	call	_MultiplyAndAdd1Word_using_ADCX_MULX
	movl	%eax, -4(%ebp)
	.loc 4 585 13
	movl	8(%ebp), %eax
	leal	28(%eax), %edx
	.loc 4 585 57
	movl	8(%ebp), %eax
	addl	$28, %eax
	.loc 4 585 13
	movl	(%eax), %eax
	movl	%edx, 8(%esp)
	movl	%eax, 4(%esp)
	movl	-4(%ebp), %eax
	movl	%eax, (%esp)
	call	_MultiplyAndAdd1Word_using_ADCX_MULX
	movl	%eax, -4(%ebp)
	.loc 4 586 15
	addl	$32, 8(%ebp)
L113:
	.loc 4 589 17
	movl	12(%ebp), %eax
	andl	$4, %eax
	.loc 4 589 8
	testl	%eax, %eax
	je	L114
	.loc 4 591 13
	movl	8(%ebp), %eax
	movl	(%eax), %eax
	movl	8(%ebp), %edx
	movl	%edx, 8(%esp)
	movl	%eax, 4(%esp)
	movl	-4(%ebp), %eax
	movl	%eax, (%esp)
	call	_MultiplyAndAdd1Word_using_ADCX_MULX
	movl	%eax, -4(%ebp)
	.loc 4 592 13
	movl	8(%ebp), %eax
	leal	4(%eax), %edx
	.loc 4 592 57
	movl	8(%ebp), %eax
	addl	$4, %eax
	.loc 4 592 13
	movl	(%eax), %eax
	movl	%edx, 8(%esp)
	movl	%eax, 4(%esp)
	movl	-4(%ebp), %eax
	movl	%eax, (%esp)
	call	_MultiplyAndAdd1Word_using_ADCX_MULX
	movl	%eax, -4(%ebp)
	.loc 4 593 13
	movl	8(%ebp), %eax
	leal	8(%eax), %edx
	.loc 4 593 57
	movl	8(%ebp), %eax
	addl	$8, %eax
	.loc 4 593 13
	movl	(%eax), %eax
	movl	%edx, 8(%esp)
	movl	%eax, 4(%esp)
	movl	-4(%ebp), %eax
	movl	%eax, (%esp)
	call	_MultiplyAndAdd1Word_using_ADCX_MULX
	movl	%eax, -4(%ebp)
	.loc 4 594 13
	movl	8(%ebp), %eax
	leal	12(%eax), %edx
	.loc 4 594 57
	movl	8(%ebp), %eax
	addl	$12, %eax
	.loc 4 594 13
	movl	(%eax), %eax
	movl	%edx, 8(%esp)
	movl	%eax, 4(%esp)
	movl	-4(%ebp), %eax
	movl	%eax, (%esp)
	call	_MultiplyAndAdd1Word_using_ADCX_MULX
	movl	%eax, -4(%ebp)
	.loc 4 595 15
	addl	$16, 8(%ebp)
L114:
	.loc 4 598 17
	movl	12(%ebp), %eax
	andl	$2, %eax
	.loc 4 598 8
	testl	%eax, %eax
	je	L115
	.loc 4 600 13
	movl	8(%ebp), %eax
	movl	(%eax), %eax
	movl	8(%ebp), %edx
	movl	%edx, 8(%esp)
	movl	%eax, 4(%esp)
	movl	-4(%ebp), %eax
	movl	%eax, (%esp)
	call	_MultiplyAndAdd1Word_using_ADCX_MULX
	movl	%eax, -4(%ebp)
	.loc 4 601 13
	movl	8(%ebp), %eax
	leal	4(%eax), %edx
	.loc 4 601 57
	movl	8(%ebp), %eax
	addl	$4, %eax
	.loc 4 601 13
	movl	(%eax), %eax
	movl	%edx, 8(%esp)
	movl	%eax, 4(%esp)
	movl	-4(%ebp), %eax
	movl	%eax, (%esp)
	call	_MultiplyAndAdd1Word_using_ADCX_MULX
	movl	%eax, -4(%ebp)
	.loc 4 602 15
	addl	$8, 8(%ebp)
L115:
	.loc 4 605 17
	movl	12(%ebp), %eax
	andl	$1, %eax
	.loc 4 605 8
	testl	%eax, %eax
	je	L116
	.loc 4 607 13
	movl	8(%ebp), %eax
	movl	(%eax), %eax
	movl	8(%ebp), %edx
	movl	%edx, 8(%esp)
	movl	%eax, 4(%esp)
	movl	-4(%ebp), %eax
	movl	%eax, (%esp)
	call	_MultiplyAndAdd1Word_using_ADCX_MULX
	movl	%eax, -4(%ebp)
	.loc 4 608 15
	addl	$4, 8(%ebp)
L116:
	.loc 4 611 8
	cmpl	$0, -4(%ebp)
	je	L117
	.loc 4 613 18
	movl	8(%ebp), %eax
	movl	-4(%ebp), %edx
	movl	%edx, (%eax)
	.loc 4 614 15
	addl	$4, 8(%ebp)
L117:
	.loc 4 617 12
	movl	8(%ebp), %eax
	.loc 4 618 1
	leave
	.cfi_restore 5
	.cfi_def_cfa 4, 4
	ret
	.cfi_endproc
LFE4251:
	.def	_ConvertCardinalNumber;	.scl	3;	.type	32;	.endef
_ConvertCardinalNumber:
LFB4252:
	.loc 4 621 1
	.cfi_startproc
	pushl	%ebp
	.cfi_def_cfa_offset 8
	.cfi_offset 5, -8
	movl	%esp, %ebp
	.cfi_def_cfa_register 5
	subl	$56, %esp
	.loc 4 625 29
	movl	12(%ebp), %eax
	addl	$1, %eax
	sall	$5, %eax
	movl	%eax, %edx
	leal	-28(%ebp), %eax
	movl	%eax, 8(%esp)
	leal	-32(%ebp), %eax
	movl	%eax, 4(%esp)
	movl	%edx, (%esp)
	call	_AllocateBlock
	movl	%eax, -16(%ebp)
	.loc 4 626 8
	cmpl	$0, -16(%ebp)
	jne	L120
	.loc 4 627 16
	movl	$-5, %eax
	jmp	L125
L120:
	.loc 4 629 17
	movl	$1, -12(%ebp)
	.loc 4 630 25
	movl	8(%ebp), %eax
	movl	(%eax), %edx
	.loc 4 630 17
	movl	-16(%ebp), %eax
	movl	%edx, (%eax)
	.loc 4 631 5
	addl	$4, 8(%ebp)
	.loc 4 632 5
	subl	$1, 12(%ebp)
	.loc 4 634 11
	jmp	L122
L123:
LBB14:
	.loc 4 636 32
	movl	_fp_MultiplyAndAdd, %eax
	movl	8(%ebp), %edx
	movl	(%edx), %edx
	movl	%edx, 8(%esp)
	movl	-12(%ebp), %edx
	movl	%edx, 4(%esp)
	movl	-16(%ebp), %edx
	movl	%edx, (%esp)
	call	*%eax
LVL9:
	movl	%eax, -20(%ebp)
	.loc 4 637 33
	movl	-20(%ebp), %eax
	subl	-16(%ebp), %eax
	sarl	$2, %eax
	.loc 4 637 24
	movl	%eax, -12(%ebp)
	.loc 4 638 9
	addl	$4, 8(%ebp)
	.loc 4 639 9
	subl	$1, 12(%ebp)
L122:
LBE14:
	.loc 4 634 11
	cmpl	$0, 12(%ebp)
	jne	L123
	.loc 4 641 19
	movl	-28(%ebp), %eax
	movl	%eax, 4(%esp)
	movl	-16(%ebp), %eax
	movl	%eax, (%esp)
	call	_CheckBlockLight
	movl	%eax, -24(%ebp)
	.loc 4 641 8
	cmpl	$0, -24(%ebp)
	je	L124
	.loc 4 642 16
	movl	-24(%ebp), %eax
	jmp	L125
L124:
	.loc 4 643 5
	movl	-12(%ebp), %eax
	movl	%eax, 8(%esp)
	movl	-16(%ebp), %eax
	movl	%eax, 4(%esp)
	movl	16(%ebp), %eax
	movl	%eax, (%esp)
	call	__COPY_MEMORY_UNIT
	.loc 4 644 5
	movl	-32(%ebp), %eax
	movl	%eax, 4(%esp)
	movl	-16(%ebp), %eax
	movl	%eax, (%esp)
	call	_DeallocateBlock
	.loc 4 645 12
	movl	$0, %eax
L125:
	.loc 4 646 1 discriminator 1
	leave
	.cfi_restore 5
	.cfi_def_cfa 4, 4
	ret
	.cfi_endproc
LFE4252:
	.def	_TryParseDN;	.scl	3;	.type	32;	.endef
_TryParseDN:
LFB4253:
	.loc 4 649 1
	.cfi_startproc
	pushl	%ebp
	.cfi_def_cfa_offset 8
	.cfi_offset 5, -8
	movl	%esp, %ebp
	.cfi_def_cfa_register 5
	pushl	%ebx
	subl	$116, %esp
	.cfi_offset 3, -12
	.loc 4 652 9
	movl	$9, -24(%ebp)
	.loc 4 658 30
	movl	8(%ebp), %eax
	movl	%eax, (%esp)
	movl	__imp__lstrlenW@4, %eax
	call	*%eax
LVL10:
	subl	$4, %esp
	.loc 4 658 17
	movl	%eax, -28(%ebp)
	.loc 4 662 39
	movl	-28(%ebp), %eax
	addl	$1, %eax
	sall	$4, %eax
	movl	%eax, %edx
	leal	-56(%ebp), %eax
	movl	%eax, 8(%esp)
	leal	-60(%ebp), %eax
	movl	%eax, 4(%esp)
	movl	%edx, (%esp)
	call	_AllocateBlock
	movl	%eax, -32(%ebp)
	.loc 4 663 8
	cmpl	$0, -32(%ebp)
	jne	L127
	.loc 4 664 16
	movl	$-5, %eax
	jmp	L152
L127:
	.loc 4 668 40
	movl	-28(%ebp), %eax
	addl	$1, %eax
	sall	$4, %eax
	movl	%eax, %edx
	leal	-64(%ebp), %eax
	movl	%eax, 8(%esp)
	leal	-68(%ebp), %eax
	movl	%eax, 4(%esp)
	movl	%edx, (%esp)
	call	_AllocateBlock
	movl	%eax, -36(%ebp)
	.loc 4 669 8
	cmpl	$0, -36(%ebp)
	jne	L129
	.loc 4 671 9
	movl	-60(%ebp), %eax
	movl	%eax, 4(%esp)
	movl	-32(%ebp), %eax
	movl	%eax, (%esp)
	call	_DeallocateBlock
	.loc 4 672 16
	movl	$-5, %eax
	jmp	L152
L129:
	.loc 4 675 26
	movl	-36(%ebp), %eax
	movl	%eax, 20(%esp)
	movl	-32(%ebp), %eax
	movl	%eax, 16(%esp)
	leal	-72(%ebp), %eax
	movl	%eax, 12(%esp)
	movl	16(%ebp), %eax
	movl	%eax, 8(%esp)
	movl	12(%ebp), %eax
	movl	%eax, 4(%esp)
	movl	8(%ebp), %eax
	movl	%eax, (%esp)
	call	_ParseAsDecimalNumberString
	movl	%eax, -40(%ebp)
	.loc 4 676 19
	movl	-56(%ebp), %eax
	movl	%eax, 4(%esp)
	movl	-32(%ebp), %eax
	movl	%eax, (%esp)
	call	_CheckBlockLight
	movl	%eax, -44(%ebp)
	.loc 4 676 8
	cmpl	$0, -44(%ebp)
	je	L130
	.loc 4 677 16
	movl	-44(%ebp), %eax
	jmp	L152
L130:
	.loc 4 678 19
	movl	-64(%ebp), %eax
	movl	%eax, 4(%esp)
	movl	-36(%ebp), %eax
	movl	%eax, (%esp)
	call	_CheckBlockLight
	movl	%eax, -44(%ebp)
	.loc 4 678 8
	cmpl	$0, -44(%ebp)
	je	L131
	.loc 4 679 16
	movl	-44(%ebp), %eax
	jmp	L152
L131:
	.loc 4 680 8
	cmpl	$0, -40(%ebp)
	jne	L132
	.loc 4 682 9
	movl	-68(%ebp), %eax
	movl	%eax, 4(%esp)
	movl	-36(%ebp), %eax
	movl	%eax, (%esp)
	call	_DeallocateBlock
	.loc 4 683 9
	movl	-60(%ebp), %eax
	movl	%eax, 4(%esp)
	movl	-32(%ebp), %eax
	movl	%eax, (%esp)
	call	_DeallocateBlock
	.loc 4 684 16
	movl	$1, %eax
	jmp	L152
L132:
	.loc 4 687 21
	movl	-32(%ebp), %eax
	movzwl	(%eax), %eax
	.loc 4 687 8
	testw	%ax, %ax
	jne	L133
	.loc 4 687 50 discriminator 1
	movl	-36(%ebp), %eax
	movzwl	(%eax), %eax
	.loc 4 687 34 discriminator 1
	testw	%ax, %ax
	jne	L133
	.loc 4 689 9
	movl	-68(%ebp), %eax
	movl	%eax, 4(%esp)
	movl	-36(%ebp), %eax
	movl	%eax, (%esp)
	call	_DeallocateBlock
	.loc 4 690 9
	movl	-60(%ebp), %eax
	movl	%eax, 4(%esp)
	movl	-32(%ebp), %eax
	movl	%eax, (%esp)
	call	_DeallocateBlock
	.loc 4 691 16
	movl	$1, %eax
	jmp	L152
L133:
	.loc 4 694 21
	movl	-32(%ebp), %eax
	movzwl	(%eax), %eax
	.loc 4 694 8
	cmpw	$48, %ax
	jne	L134
LBB15:
	.loc 4 697 18
	movl	-32(%ebp), %eax
	movl	%eax, -12(%ebp)
	.loc 4 698 18
	movl	-32(%ebp), %eax
	movl	%eax, -16(%ebp)
	.loc 4 699 15
	jmp	L135
L136:
	.loc 4 700 13
	addl	$2, -12(%ebp)
L135:
	.loc 4 699 16
	movl	-12(%ebp), %eax
	movzwl	(%eax), %eax
	.loc 4 699 15
	cmpw	$48, %ax
	je	L136
L138:
	.loc 4 703 22
	movl	-12(%ebp), %eax
	movzwl	(%eax), %edx
	.loc 4 703 20
	movl	-16(%ebp), %eax
	movw	%dx, (%eax)
	.loc 4 704 17
	movl	-12(%ebp), %eax
	movzwl	(%eax), %eax
	.loc 4 704 16
	testw	%ax, %ax
	je	L153
	.loc 4 706 13
	addl	$2, -12(%ebp)
	.loc 4 707 13
	addl	$2, -16(%ebp)
	.loc 4 703 20
	jmp	L138
L153:
	.loc 4 705 17
	nop
L134:
LBE15:
	.loc 4 712 41
	movl	-36(%ebp), %eax
	movl	%eax, (%esp)
	movl	__imp__lstrlenW@4, %eax
	call	*%eax
LVL11:
	subl	$4, %esp
	.loc 4 712 39
	leal	(%eax,%eax), %edx
	.loc 4 712 14
	movl	-36(%ebp), %eax
	addl	%edx, %eax
	movl	%eax, -20(%ebp)
	.loc 4 713 11
	jmp	L139
L141:
	.loc 4 714 9
	subl	$2, -20(%ebp)
L139:
	.loc 4 713 11
	movl	-20(%ebp), %eax
	cmpl	-36(%ebp), %eax
	jbe	L140
	.loc 4 713 48 discriminator 1
	movl	-20(%ebp), %eax
	subl	$2, %eax
	movzwl	(%eax), %eax
	.loc 4 713 37 discriminator 1
	cmpw	$48, %ax
	je	L141
L140:
	.loc 4 715 15
	movl	-20(%ebp), %eax
	movw	$0, (%eax)
	.loc 4 718 22
	movl	-36(%ebp), %eax
	movzwl	(%eax), %eax
	.loc 4 718 8
	testw	%ax, %ax
	je	L142
	.loc 4 720 9
	movl	-68(%ebp), %eax
	movl	%eax, 4(%esp)
	movl	-36(%ebp), %eax
	movl	%eax, (%esp)
	call	_DeallocateBlock
	.loc 4 721 9
	movl	-60(%ebp), %eax
	movl	%eax, 4(%esp)
	movl	-32(%ebp), %eax
	movl	%eax, (%esp)
	call	_DeallocateBlock
	.loc 4 722 16
	movl	$1, %eax
	jmp	L152
L142:
	.loc 4 725 14
	movl	-72(%ebp), %eax
	.loc 4 725 8
	testl	%eax, %eax
	jns	L143
	.loc 4 727 25
	movl	-32(%ebp), %eax
	movzwl	(%eax), %eax
	.loc 4 727 12
	testw	%ax, %ax
	jne	L144
	.loc 4 730 18
	movl	$0, -72(%ebp)
	jmp	L143
L144:
	.loc 4 735 13
	movl	-68(%ebp), %eax
	movl	%eax, 4(%esp)
	movl	-36(%ebp), %eax
	movl	%eax, (%esp)
	call	_DeallocateBlock
	.loc 4 736 13
	movl	-60(%ebp), %eax
	movl	%eax, 4(%esp)
	movl	-32(%ebp), %eax
	movl	%eax, (%esp)
	call	_DeallocateBlock
	.loc 4 737 20
	movl	$-2, %eax
	jmp	L152
L143:
	.loc 4 742 21
	movl	-32(%ebp), %eax
	movzwl	(%eax), %eax
	.loc 4 742 8
	testw	%ax, %ax
	jne	L145
	.loc 4 744 25
	movl	-32(%ebp), %eax
	movw	$48, (%eax)
	.loc 4 745 21
	movl	-32(%ebp), %eax
	addl	$2, %eax
	.loc 4 745 25
	movw	$0, (%eax)
L145:
	.loc 4 749 5
	movl	-68(%ebp), %eax
	movl	%eax, 4(%esp)
	movl	-36(%ebp), %eax
	movl	%eax, (%esp)
	call	_DeallocateBlock
	.loc 4 753 42
	movl	-24(%ebp), %ebx
	.loc 4 753 63
	movl	-32(%ebp), %eax
	movl	%eax, (%esp)
	movl	__imp__lstrlenW@4, %eax
	call	*%eax
LVL12:
	subl	$4, %esp
	.loc 4 753 42
	movl	%ebx, 4(%esp)
	movl	%eax, (%esp)
	call	__DIVIDE_CEILING_SIZE
	.loc 4 753 28
	sall	$5, %eax
	movl	%eax, %edx
	leal	-76(%ebp), %eax
	movl	%eax, 8(%esp)
	leal	-80(%ebp), %eax
	movl	%eax, 4(%esp)
	movl	%edx, (%esp)
	call	_AllocateBlock
	movl	%eax, -48(%ebp)
	.loc 4 754 8
	cmpl	$0, -48(%ebp)
	jne	L146
	.loc 4 756 9
	movl	-60(%ebp), %eax
	movl	%eax, 4(%esp)
	movl	-32(%ebp), %eax
	movl	%eax, (%esp)
	call	_DeallocateBlock
	.loc 4 757 16
	movl	$-5, %eax
	jmp	L152
L146:
	.loc 4 760 5
	leal	-84(%ebp), %eax
	movl	%eax, 8(%esp)
	movl	-48(%ebp), %eax
	movl	%eax, 4(%esp)
	movl	-32(%ebp), %eax
	movl	%eax, (%esp)
	call	_BuildBinaryFromDecimalString
	.loc 4 761 19
	movl	-76(%ebp), %eax
	movl	%eax, 4(%esp)
	movl	-48(%ebp), %eax
	movl	%eax, (%esp)
	call	_CheckBlockLight
	movl	%eax, -44(%ebp)
	.loc 4 761 8
	cmpl	$0, -44(%ebp)
	je	L147
	.loc 4 762 16
	movl	-44(%ebp), %eax
	jmp	L152
L147:
	.loc 4 763 5
	movl	-60(%ebp), %eax
	movl	%eax, 4(%esp)
	movl	-32(%ebp), %eax
	movl	%eax, (%esp)
	call	_DeallocateBlock
	.loc 4 765 45
	movl	-84(%ebp), %eax
	.loc 4 765 17
	sall	$5, %eax
	movl	%eax, -52(%ebp)
	.loc 4 767 19
	leal	-88(%ebp), %eax
	movl	%eax, 8(%esp)
	movl	-52(%ebp), %eax
	movl	%eax, 4(%esp)
	movl	20(%ebp), %eax
	movl	%eax, (%esp)
	call	_AllocateNumber
	movl	%eax, -44(%ebp)
	.loc 4 767 8
	cmpl	$0, -44(%ebp)
	je	L148
	.loc 4 769 9
	movl	-80(%ebp), %eax
	movl	%eax, 4(%esp)
	movl	-48(%ebp), %eax
	movl	%eax, (%esp)
	call	_DeallocateBlock
	.loc 4 770 16
	movl	-44(%ebp), %eax
	jmp	L152
L148:
	.loc 4 773 66
	movl	20(%ebp), %eax
	movl	(%eax), %eax
	.loc 4 773 19
	movl	24(%eax), %edx
	movl	-84(%ebp), %eax
	movl	%edx, 8(%esp)
	movl	%eax, 4(%esp)
	movl	-48(%ebp), %eax
	movl	%eax, (%esp)
	call	_ConvertCardinalNumber
	movl	%eax, -44(%ebp)
	.loc 4 773 8
	cmpl	$0, -44(%ebp)
	je	L149
	.loc 4 775 9
	movl	20(%ebp), %eax
	movl	(%eax), %eax
	movl	%eax, (%esp)
	call	_DeallocateNumber
	.loc 4 776 9
	movl	-80(%ebp), %eax
	movl	%eax, 4(%esp)
	movl	-48(%ebp), %eax
	movl	%eax, (%esp)
	call	_DeallocateBlock
	.loc 4 777 16
	movl	-44(%ebp), %eax
	jmp	L152
L149:
	.loc 4 779 19
	movl	-88(%ebp), %edx
	.loc 4 779 36
	movl	20(%ebp), %eax
	movl	(%eax), %eax
	.loc 4 779 19
	movl	24(%eax), %eax
	movl	%edx, 4(%esp)
	movl	%eax, (%esp)
	call	_CheckBlockLight
	movl	%eax, -44(%ebp)
	.loc 4 779 8
	cmpl	$0, -44(%ebp)
	je	L150
	.loc 4 780 16
	movl	-44(%ebp), %eax
	jmp	L152
L150:
	.loc 4 781 5
	movl	-80(%ebp), %eax
	movl	%eax, 4(%esp)
	movl	-48(%ebp), %eax
	movl	%eax, (%esp)
	call	_DeallocateBlock
	.loc 4 782 5
	movl	20(%ebp), %eax
	movl	(%eax), %eax
	movl	%eax, (%esp)
	call	_CommitNumber
	.loc 4 783 10
	movl	20(%ebp), %eax
	movl	(%eax), %eax
	.loc 4 783 9
	movzbl	16(%eax), %eax
	andl	$2, %eax
	.loc 4 783 8
	testb	%al, %al
	je	L151
	.loc 4 785 9
	movl	20(%ebp), %eax
	movl	(%eax), %eax
	movl	%eax, (%esp)
	call	_DeallocateNumber
	.loc 4 786 12
	movl	20(%ebp), %eax
	movl	$_number_zero, (%eax)
L151:
	.loc 4 788 12
	movl	$0, %eax
L152:
	.loc 4 789 1 discriminator 1
	movl	-4(%ebp), %ebx
	leave
	.cfi_restore 5
	.cfi_restore 3
	.cfi_def_cfa 4, 4
	ret
	.cfi_endproc
LFE4253:
	.def	_Parse1DigitFromHexChar;	.scl	3;	.type	32;	.endef
_Parse1DigitFromHexChar:
LFB4254:
	.loc 4 793 1
	.cfi_startproc
	pushl	%ebp
	.cfi_def_cfa_offset 8
	.cfi_offset 5, -8
	movl	%esp, %ebp
	.cfi_def_cfa_register 5
	subl	$4, %esp
	movl	8(%ebp), %eax
	movw	%ax, -4(%ebp)
	.loc 4 794 5
	movzwl	-4(%ebp), %eax
	subl	$48, %eax
	cmpl	$54, %eax
	ja	L155
	movl	L157(,%eax,4), %eax
	jmp	*%eax
	.section .rdata,"dr"
	.align 4
L157:
	.long	L159
	.long	L159
	.long	L159
	.long	L159
	.long	L159
	.long	L159
	.long	L159
	.long	L159
	.long	L159
	.long	L159
	.long	L155
	.long	L155
	.long	L155
	.long	L155
	.long	L155
	.long	L155
	.long	L155
	.long	L158
	.long	L158
	.long	L158
	.long	L158
	.long	L158
	.long	L158
	.long	L155
	.long	L155
	.long	L155
	.long	L155
	.long	L155
	.long	L155
	.long	L155
	.long	L155
	.long	L155
	.long	L155
	.long	L155
	.long	L155
	.long	L155
	.long	L155
	.long	L155
	.long	L155
	.long	L155
	.long	L155
	.long	L155
	.long	L155
	.long	L155
	.long	L155
	.long	L155
	.long	L155
	.long	L155
	.long	L155
	.long	L156
	.long	L156
	.long	L156
	.long	L156
	.long	L156
	.long	L156
	.text
L159:
	.loc 4 806 19
	movzwl	-4(%ebp), %eax
	subl	$48, %eax
	jmp	L160
L156:
	.loc 4 813 26
	movzwl	-4(%ebp), %eax
	subl	$87, %eax
	jmp	L160
L158:
	.loc 4 820 26
	movzwl	-4(%ebp), %eax
	subl	$55, %eax
	jmp	L160
L155:
	.loc 4 822 16
	movl	$-1, %eax
L160:
	.loc 4 824 1
	leave
	.cfi_restore 5
	.cfi_def_cfa 4, 4
	ret
	.cfi_endproc
LFE4254:
	.def	_BuildLeading1WordFromHexString;	.scl	3;	.type	32;	.endef
_BuildLeading1WordFromHexString:
LFB4255:
	.loc 4 827 1
	.cfi_startproc
	pushl	%ebp
	.cfi_def_cfa_offset 8
	.cfi_offset 5, -8
	movl	%esp, %ebp
	.cfi_def_cfa_register 5
	pushl	%ebx
	subl	$20, %esp
	.cfi_offset 3, -12
	.loc 4 828 44
	movl	8(%ebp), %eax
	movzwl	(%eax), %eax
	.loc 4 828 21
	movzwl	%ax, %eax
	movl	%eax, (%esp)
	call	_Parse1DigitFromHexChar
	movl	%eax, -8(%ebp)
	.loc 4 829 5
	addl	$2, 8(%ebp)
	.loc 4 830 5
	subl	$1, 12(%ebp)
	.loc 4 831 11
	jmp	L162
L163:
	.loc 4 833 15
	movl	-8(%ebp), %eax
	sall	$4, %eax
	movl	%eax, %ebx
	.loc 4 833 45
	movl	8(%ebp), %eax
	movzwl	(%eax), %eax
	.loc 4 833 22
	movzwl	%ax, %eax
	movl	%eax, (%esp)
	call	_Parse1DigitFromHexChar
	.loc 4 833 11
	addl	%ebx, %eax
	movl	%eax, -8(%ebp)
	.loc 4 834 9
	addl	$2, 8(%ebp)
	.loc 4 835 9
	subl	$1, 12(%ebp)
L162:
	.loc 4 831 11
	cmpl	$0, 12(%ebp)
	jne	L163
	.loc 4 837 12
	movl	-8(%ebp), %eax
	.loc 4 838 1
	addl	$20, %esp
	popl	%ebx
	.cfi_restore 3
	popl	%ebp
	.cfi_restore 5
	.cfi_def_cfa 4, 4
	ret
	.cfi_endproc
LFE4255:
	.def	_Build1WordFromHexString;	.scl	3;	.type	32;	.endef
_Build1WordFromHexString:
LFB4256:
	.loc 4 841 1
	.cfi_startproc
	pushl	%ebp
	.cfi_def_cfa_offset 8
	.cfi_offset 5, -8
	movl	%esp, %ebp
	.cfi_def_cfa_register 5
	pushl	%ebx
	subl	$20, %esp
	.cfi_offset 3, -12
	.loc 4 842 51
	movl	8(%ebp), %eax
	leal	2(%eax), %edx
	movl	%edx, 8(%ebp)
	.loc 4 842 44
	movzwl	(%eax), %eax
	.loc 4 842 21
	movzwl	%ax, %eax
	movl	%eax, (%esp)
	call	_Parse1DigitFromHexChar
	movl	%eax, -8(%ebp)
	.loc 4 856 15
	movl	-8(%ebp), %eax
	sall	$4, %eax
	movl	%eax, %ebx
	.loc 4 856 52
	movl	8(%ebp), %eax
	leal	2(%eax), %edx
	movl	%edx, 8(%ebp)
	.loc 4 856 45
	movzwl	(%eax), %eax
	.loc 4 856 22
	movzwl	%ax, %eax
	movl	%eax, (%esp)
	call	_Parse1DigitFromHexChar
	.loc 4 856 11
	addl	%ebx, %eax
	movl	%eax, -8(%ebp)
	.loc 4 857 15
	movl	-8(%ebp), %eax
	sall	$4, %eax
	movl	%eax, %ebx
	.loc 4 857 52
	movl	8(%ebp), %eax
	leal	2(%eax), %edx
	movl	%edx, 8(%ebp)
	.loc 4 857 45
	movzwl	(%eax), %eax
	.loc 4 857 22
	movzwl	%ax, %eax
	movl	%eax, (%esp)
	call	_Parse1DigitFromHexChar
	.loc 4 857 11
	addl	%ebx, %eax
	movl	%eax, -8(%ebp)
	.loc 4 858 15
	movl	-8(%ebp), %eax
	sall	$4, %eax
	movl	%eax, %ebx
	.loc 4 858 52
	movl	8(%ebp), %eax
	leal	2(%eax), %edx
	movl	%edx, 8(%ebp)
	.loc 4 858 45
	movzwl	(%eax), %eax
	.loc 4 858 22
	movzwl	%ax, %eax
	movl	%eax, (%esp)
	call	_Parse1DigitFromHexChar
	.loc 4 858 11
	addl	%ebx, %eax
	movl	%eax, -8(%ebp)
	.loc 4 859 15
	movl	-8(%ebp), %eax
	sall	$4, %eax
	movl	%eax, %ebx
	.loc 4 859 52
	movl	8(%ebp), %eax
	leal	2(%eax), %edx
	movl	%edx, 8(%ebp)
	.loc 4 859 45
	movzwl	(%eax), %eax
	.loc 4 859 22
	movzwl	%ax, %eax
	movl	%eax, (%esp)
	call	_Parse1DigitFromHexChar
	.loc 4 859 11
	addl	%ebx, %eax
	movl	%eax, -8(%ebp)
	.loc 4 863 15
	movl	-8(%ebp), %eax
	sall	$4, %eax
	movl	%eax, %ebx
	.loc 4 863 52
	movl	8(%ebp), %eax
	leal	2(%eax), %edx
	movl	%edx, 8(%ebp)
	.loc 4 863 45
	movzwl	(%eax), %eax
	.loc 4 863 22
	movzwl	%ax, %eax
	movl	%eax, (%esp)
	call	_Parse1DigitFromHexChar
	.loc 4 863 11
	addl	%ebx, %eax
	movl	%eax, -8(%ebp)
	.loc 4 864 15
	movl	-8(%ebp), %eax
	sall	$4, %eax
	movl	%eax, %ebx
	.loc 4 864 52
	movl	8(%ebp), %eax
	leal	2(%eax), %edx
	movl	%edx, 8(%ebp)
	.loc 4 864 45
	movzwl	(%eax), %eax
	.loc 4 864 22
	movzwl	%ax, %eax
	movl	%eax, (%esp)
	call	_Parse1DigitFromHexChar
	.loc 4 864 11
	addl	%ebx, %eax
	movl	%eax, -8(%ebp)
	.loc 4 868 15
	movl	-8(%ebp), %eax
	sall	$4, %eax
	movl	%eax, %ebx
	.loc 4 868 52
	movl	8(%ebp), %eax
	leal	2(%eax), %edx
	movl	%edx, 8(%ebp)
	.loc 4 868 45
	movzwl	(%eax), %eax
	.loc 4 868 22
	movzwl	%ax, %eax
	movl	%eax, (%esp)
	call	_Parse1DigitFromHexChar
	.loc 4 868 11
	addl	%ebx, %eax
	movl	%eax, -8(%ebp)
	.loc 4 870 12
	movl	-8(%ebp), %eax
	.loc 4 871 1
	addl	$20, %esp
	popl	%ebx
	.cfi_restore 3
	popl	%ebp
	.cfi_restore 5
	.cfi_def_cfa 4, 4
	ret
	.cfi_endproc
LFE4256:
	.def	_BuildBinaryFromHexString;	.scl	3;	.type	32;	.endef
_BuildBinaryFromHexString:
LFB4257:
	.loc 4 874 1
	.cfi_startproc
	pushl	%ebp
	.cfi_def_cfa_offset 8
	.cfi_offset 5, -8
	movl	%esp, %ebp
	.cfi_def_cfa_register 5
	pushl	%ebx
	subl	$52, %esp
	.cfi_offset 3, -12
	.loc 4 875 9
	movl	$8, -24(%ebp)
	.loc 4 876 32
	movl	8(%ebp), %eax
	movl	%eax, (%esp)
	movl	__imp__lstrlenW@4, %eax
	call	*%eax
LVL13:
	subl	$4, %esp
	.loc 4 876 17
	movl	%eax, -12(%ebp)
	.loc 4 877 14
	movl	8(%ebp), %eax
	movl	%eax, -16(%ebp)
	.loc 4 878 38
	movl	-24(%ebp), %eax
	movl	%eax, 4(%esp)
	movl	-12(%ebp), %eax
	movl	%eax, (%esp)
	call	__DIVIDE_CEILING_UNIT
	.loc 4 878 91
	addl	$1073741823, %eax
	leal	0(,%eax,4), %edx
	.loc 4 878 18
	movl	12(%ebp), %eax
	addl	%edx, %eax
	movl	%eax, -20(%ebp)
	.loc 4 879 26
	movl	-24(%ebp), %ecx
	movl	-12(%ebp), %eax
	movl	$0, %edx
	divl	%ecx
	movl	%edx, %eax
	.loc 4 879 9
	movl	%eax, -28(%ebp)
	.loc 4 880 8
	cmpl	$0, -28(%ebp)
	jle	L169
	.loc 4 882 22
	movl	-28(%ebp), %eax
	.loc 4 882 17
	movl	-20(%ebp), %ebx
	leal	-4(%ebx), %edx
	movl	%edx, -20(%ebp)
	.loc 4 882 22
	movl	%eax, 4(%esp)
	movl	-16(%ebp), %eax
	movl	%eax, (%esp)
	call	_BuildLeading1WordFromHexString
	.loc 4 882 20
	movl	%eax, (%ebx)
	.loc 4 883 16
	movl	-28(%ebp), %eax
	addl	%eax, %eax
	addl	%eax, -16(%ebp)
	.loc 4 884 22
	movl	-28(%ebp), %eax
	subl	%eax, -12(%ebp)
	.loc 4 886 11
	jmp	L169
L170:
	.loc 4 888 17
	movl	-20(%ebp), %ebx
	leal	-4(%ebx), %eax
	movl	%eax, -20(%ebp)
	.loc 4 888 22
	movl	-16(%ebp), %eax
	movl	%eax, (%esp)
	call	_Build1WordFromHexString
	.loc 4 888 20
	movl	%eax, (%ebx)
	.loc 4 889 16
	movl	-24(%ebp), %eax
	addl	%eax, %eax
	addl	%eax, -16(%ebp)
	.loc 4 890 22
	movl	-24(%ebp), %eax
	subl	%eax, -12(%ebp)
L169:
	.loc 4 886 11
	cmpl	$0, -12(%ebp)
	jne	L170
	.loc 4 892 1
	nop
	movl	-4(%ebp), %ebx
	leave
	.cfi_restore 5
	.cfi_restore 3
	.cfi_def_cfa 4, 4
	ret
	.cfi_endproc
LFE4257:
	.def	_TryParseX;	.scl	3;	.type	32;	.endef
_TryParseX:
LFB4258:
	.loc 4 895 1
	.cfi_startproc
	pushl	%ebp
	.cfi_def_cfa_offset 8
	.cfi_offset 5, -8
	movl	%esp, %ebp
	.cfi_def_cfa_register 5
	subl	$56, %esp
	.loc 4 897 30
	movl	8(%ebp), %eax
	movl	%eax, (%esp)
	movl	__imp__lstrlenW@4, %eax
	call	*%eax
LVL14:
	subl	$4, %esp
	.loc 4 897 17
	movl	%eax, -12(%ebp)
	.loc 4 900 39
	movl	-12(%ebp), %eax
	addl	$1, %eax
	sall	$4, %eax
	movl	%eax, %edx
	leal	-32(%ebp), %eax
	movl	%eax, 8(%esp)
	leal	-36(%ebp), %eax
	movl	%eax, 4(%esp)
	movl	%edx, (%esp)
	call	_AllocateBlock
	movl	%eax, -16(%ebp)
	.loc 4 901 8
	cmpl	$0, -16(%ebp)
	jne	L172
	.loc 4 902 16
	movl	$-5, %eax
	jmp	L179
L172:
	.loc 4 903 26
	movl	-16(%ebp), %eax
	movl	%eax, 12(%esp)
	movl	16(%ebp), %eax
	movl	%eax, 8(%esp)
	movl	12(%ebp), %eax
	movl	%eax, 4(%esp)
	movl	8(%ebp), %eax
	movl	%eax, (%esp)
	call	_ParseAsHexNumberString
	movl	%eax, -20(%ebp)
	.loc 4 904 19
	movl	-32(%ebp), %eax
	movl	%eax, 4(%esp)
	movl	-16(%ebp), %eax
	movl	%eax, (%esp)
	call	_CheckBlockLight
	movl	%eax, -24(%ebp)
	.loc 4 904 8
	cmpl	$0, -24(%ebp)
	je	L174
	.loc 4 905 16
	movl	-24(%ebp), %eax
	jmp	L179
L174:
	.loc 4 906 8
	cmpl	$0, -20(%ebp)
	je	L175
	.loc 4 906 40 discriminator 1
	movl	-16(%ebp), %eax
	movzwl	(%eax), %eax
	.loc 4 906 25 discriminator 1
	testw	%ax, %ax
	jne	L176
L175:
	.loc 4 908 9
	movl	-36(%ebp), %eax
	movl	%eax, 4(%esp)
	movl	-16(%ebp), %eax
	movl	%eax, (%esp)
	call	_DeallocateBlock
	.loc 4 909 16
	movl	$1, %eax
	jmp	L179
L176:
	.loc 4 911 31
	movl	-16(%ebp), %eax
	movl	%eax, (%esp)
	movl	__imp__lstrlenW@4, %eax
	call	*%eax
LVL15:
	subl	$4, %esp
	.loc 4 911 54
	sall	$2, %eax
	.loc 4 911 17
	movl	%eax, -28(%ebp)
	.loc 4 913 19
	leal	-40(%ebp), %eax
	movl	%eax, 8(%esp)
	movl	-28(%ebp), %eax
	movl	%eax, 4(%esp)
	movl	20(%ebp), %eax
	movl	%eax, (%esp)
	call	_AllocateNumber
	movl	%eax, -24(%ebp)
	.loc 4 913 8
	cmpl	$0, -24(%ebp)
	je	L177
	.loc 4 915 9
	movl	-36(%ebp), %eax
	movl	%eax, 4(%esp)
	movl	-16(%ebp), %eax
	movl	%eax, (%esp)
	call	_DeallocateBlock
	.loc 4 916 16
	movl	-24(%ebp), %eax
	jmp	L179
L177:
	.loc 4 918 45
	movl	20(%ebp), %eax
	movl	(%eax), %eax
	.loc 4 918 5
	movl	24(%eax), %eax
	movl	%eax, 4(%esp)
	movl	-16(%ebp), %eax
	movl	%eax, (%esp)
	call	_BuildBinaryFromHexString
	.loc 4 919 19
	movl	-40(%ebp), %edx
	.loc 4 919 36
	movl	20(%ebp), %eax
	movl	(%eax), %eax
	.loc 4 919 19
	movl	24(%eax), %eax
	movl	%edx, 4(%esp)
	movl	%eax, (%esp)
	call	_CheckBlockLight
	movl	%eax, -24(%ebp)
	.loc 4 919 8
	cmpl	$0, -24(%ebp)
	je	L178
	.loc 4 920 16
	movl	-24(%ebp), %eax
	jmp	L179
L178:
	.loc 4 921 5
	movl	-36(%ebp), %eax
	movl	%eax, 4(%esp)
	movl	-16(%ebp), %eax
	movl	%eax, (%esp)
	call	_DeallocateBlock
	.loc 4 922 5
	movl	20(%ebp), %eax
	movl	(%eax), %eax
	movl	%eax, (%esp)
	call	_CommitNumber
	.loc 4 923 12
	movl	$0, %eax
L179:
	.loc 4 924 1 discriminator 1
	leave
	.cfi_restore 5
	.cfi_def_cfa 4, 4
	ret
	.cfi_endproc
LFE4258:
	.globl	_PMC_TryParse@16
	.def	_PMC_TryParse@16;	.scl	2;	.type	32;	.endef
_PMC_TryParse@16:
LFB4259:
	.loc 4 927 1
	.cfi_startproc
	pushl	%ebp
	.cfi_def_cfa_offset 8
	.cfi_offset 5, -8
	movl	%esp, %ebp
	.cfi_def_cfa_register 5
	subl	$40, %esp
	.loc 4 929 8
	cmpl	$0, 8(%ebp)
	jne	L181
	.loc 4 930 16
	movl	$-1, %eax
	jmp	L190
L181:
	.loc 4 931 8
	cmpl	$0, 20(%ebp)
	jne	L183
	.loc 4 932 16
	movl	$-1, %eax
	jmp	L190
L183:
	.loc 4 933 8
	cmpl	$0, 16(%ebp)
	jne	L184
	.loc 4 934 23
	movl	$_default_number_format_option, 16(%ebp)
L184:
	.loc 4 936 23
	movl	12(%ebp), %eax
	andl	$512, %eax
	.loc 4 936 8
	testl	%eax, %eax
	je	L185
LBB16:
	.loc 4 939 19
	movl	$515, -12(%ebp)
	.loc 4 942 29
	movl	-12(%ebp), %eax
	notl	%eax
	.loc 4 942 27
	andl	12(%ebp), %eax
	.loc 4 942 12
	testl	%eax, %eax
	je	L186
	.loc 4 943 20
	movl	$-1, %eax
	jmp	L190
L186:
	.loc 4 945 23
	leal	-20(%ebp), %eax
	movl	%eax, 12(%esp)
	movl	16(%ebp), %eax
	movl	%eax, 8(%esp)
	movl	12(%ebp), %eax
	movl	%eax, 4(%esp)
	movl	8(%ebp), %eax
	movl	%eax, (%esp)
	call	_TryParseX
	movl	%eax, -16(%ebp)
	.loc 4 945 12
	cmpl	$0, -16(%ebp)
	je	L188
	.loc 4 946 20
	movl	-16(%ebp), %eax
	jmp	L190
L185:
LBE16:
	.loc 4 950 23
	leal	-20(%ebp), %eax
	movl	%eax, 12(%esp)
	movl	16(%ebp), %eax
	movl	%eax, 8(%esp)
	movl	12(%ebp), %eax
	movl	%eax, 4(%esp)
	movl	8(%ebp), %eax
	movl	%eax, (%esp)
	call	_TryParseDN
	movl	%eax, -16(%ebp)
	.loc 4 950 12
	cmpl	$0, -16(%ebp)
	je	L188
	.loc 4 951 20
	movl	-16(%ebp), %eax
	jmp	L190
L188:
	.loc 4 953 8
	movl	-20(%ebp), %edx
	movl	20(%ebp), %eax
	movl	%edx, (%eax)
	.loc 4 955 19
	movl	20(%ebp), %eax
	movl	(%eax), %eax
	movl	%eax, (%esp)
	call	_CheckNumber
	movl	%eax, -16(%ebp)
	.loc 4 955 8
	cmpl	$0, -16(%ebp)
	je	L189
	.loc 4 956 16
	movl	-16(%ebp), %eax
	jmp	L190
L189:
	.loc 4 958 12
	movl	$0, %eax
L190:
	.loc 4 959 1 discriminator 1
	leave
	.cfi_restore 5
	.cfi_def_cfa 4, 4
	ret	$16
	.cfi_endproc
LFE4259:
	.section .rdata,"dr"
	.align 2
LC0:
	.ascii ",\0\0\0"
	.align 2
LC1:
	.ascii ".\0\0\0"
LC2:
	.ascii "3\0"
	.align 2
LC3:
	.ascii "+\0\0\0"
	.align 2
LC4:
	.ascii "-\0\0\0"
	.text
	.globl	_Initialize_Parse
	.def	_Initialize_Parse;	.scl	2;	.type	32;	.endef
_Initialize_Parse:
LFB4260:
	.loc 4 962 1
	.cfi_startproc
	pushl	%ebp
	.cfi_def_cfa_offset 8
	.cfi_offset 5, -8
	movl	%esp, %ebp
	.cfi_def_cfa_register 5
	subl	$24, %esp
	.loc 4 963 48
	movl	$2, _default_number_format_option
	.loc 4 964 5
	movl	$LC0, 4(%esp)
	movl	$_default_number_format_option+4, (%esp)
	movl	__imp__lstrcpyW@8, %eax
	call	*%eax
LVL16:
	subl	$8, %esp
	.loc 4 965 5
	movl	$LC1, 4(%esp)
	movl	$_default_number_format_option+10, (%esp)
	movl	__imp__lstrcpyW@8, %eax
	call	*%eax
LVL17:
	subl	$8, %esp
	.loc 4 966 4
	movl	$LC2, 4(%esp)
	movl	$_default_number_format_option+28, (%esp)
	movl	__imp__lstrcpyA@8, %eax
	call	*%eax
LVL18:
	subl	$8, %esp
	.loc 4 967 5
	movl	$LC3, 4(%esp)
	movl	$_default_number_format_option+16, (%esp)
	movl	__imp__lstrcpyW@8, %eax
	call	*%eax
LVL19:
	subl	$8, %esp
	.loc 4 968 5
	movl	$LC4, 4(%esp)
	movl	$_default_number_format_option+22, (%esp)
	movl	__imp__lstrcpyW@8, %eax
	call	*%eax
LVL20:
	subl	$8, %esp
	.loc 4 970 9
	movl	8(%ebp), %eax
	movzbl	(%eax), %eax
	andl	$2, %eax
	.loc 4 970 8
	testb	%al, %al
	je	L192
	.loc 4 970 40 discriminator 1
	movl	8(%ebp), %eax
	movzbl	(%eax), %eax
	andl	$8, %eax
	testb	%al, %al
	je	L192
	.loc 4 971 27
	movl	$_MultiplyAndAdd_using_ADCX_MULX, _fp_MultiplyAndAdd
	jmp	L193
L192:
	.loc 4 973 27
	movl	$_MultiplyAndAdd_using_ADC_MUL, _fp_MultiplyAndAdd
L193:
	.loc 4 975 12
	movl	$0, %eax
	.loc 4 976 1
	leave
	.cfi_restore 5
	.cfi_def_cfa 4, 4
	ret
	.cfi_endproc
LFE4260:
Letext0:
	.file 5 "C:/GNU/MINGW64/i686-8.1.0-win32-dwarf-rt_v6-rev0/mingw32/i686-w64-mingw32/include/crtdefs.h"
	.file 6 "C:/GNU/MINGW64/i686-8.1.0-win32-dwarf-rt_v6-rev0/mingw32/i686-w64-mingw32/include/excpt.h"
	.file 7 "C:/GNU/MINGW64/i686-8.1.0-win32-dwarf-rt_v6-rev0/mingw32/i686-w64-mingw32/include/minwindef.h"
	.file 8 "C:/GNU/MINGW64/i686-8.1.0-win32-dwarf-rt_v6-rev0/mingw32/i686-w64-mingw32/include/ctype.h"
	.file 9 "C:/GNU/MINGW64/i686-8.1.0-win32-dwarf-rt_v6-rev0/mingw32/i686-w64-mingw32/include/winnt.h"
	.file 10 "C:/GNU/MINGW64/i686-8.1.0-win32-dwarf-rt_v6-rev0/mingw32/i686-w64-mingw32/include/guiddef.h"
	.file 11 "C:/GNU/MINGW64/i686-8.1.0-win32-dwarf-rt_v6-rev0/mingw32/i686-w64-mingw32/include/rpcdce.h"
	.file 12 "C:/GNU/MINGW64/i686-8.1.0-win32-dwarf-rt_v6-rev0/mingw32/i686-w64-mingw32/include/stdlib.h"
	.file 13 "C:/GNU/MINGW64/i686-8.1.0-win32-dwarf-rt_v6-rev0/mingw32/i686-w64-mingw32/include/malloc.h"
	.file 14 "C:/GNU/MINGW64/i686-8.1.0-win32-dwarf-rt_v6-rev0/mingw32/i686-w64-mingw32/include/wtypesbase.h"
	.file 15 "C:/GNU/MINGW64/i686-8.1.0-win32-dwarf-rt_v6-rev0/mingw32/i686-w64-mingw32/include/unknwnbase.h"
	.file 16 "C:/GNU/MINGW64/i686-8.1.0-win32-dwarf-rt_v6-rev0/mingw32/i686-w64-mingw32/include/objidlbase.h"
	.file 17 "C:/GNU/MINGW64/i686-8.1.0-win32-dwarf-rt_v6-rev0/mingw32/i686-w64-mingw32/include/cguid.h"
	.file 18 "C:/GNU/MINGW64/i686-8.1.0-win32-dwarf-rt_v6-rev0/mingw32/i686-w64-mingw32/include/wtypes.h"
	.file 19 "C:/GNU/MINGW64/i686-8.1.0-win32-dwarf-rt_v6-rev0/mingw32/i686-w64-mingw32/include/combaseapi.h"
	.file 20 "C:/GNU/MINGW64/i686-8.1.0-win32-dwarf-rt_v6-rev0/mingw32/i686-w64-mingw32/include/objidl.h"
	.file 21 "C:/GNU/MINGW64/i686-8.1.0-win32-dwarf-rt_v6-rev0/mingw32/i686-w64-mingw32/include/oleidl.h"
	.file 22 "C:/GNU/MINGW64/i686-8.1.0-win32-dwarf-rt_v6-rev0/mingw32/i686-w64-mingw32/include/servprov.h"
	.file 23 "C:/GNU/MINGW64/i686-8.1.0-win32-dwarf-rt_v6-rev0/mingw32/i686-w64-mingw32/include/oaidl.h"
	.file 24 "C:/GNU/MINGW64/i686-8.1.0-win32-dwarf-rt_v6-rev0/mingw32/i686-w64-mingw32/include/msxml.h"
	.file 25 "C:/GNU/MINGW64/i686-8.1.0-win32-dwarf-rt_v6-rev0/mingw32/i686-w64-mingw32/include/urlmon.h"
	.file 26 "C:/GNU/MINGW64/i686-8.1.0-win32-dwarf-rt_v6-rev0/mingw32/i686-w64-mingw32/include/propidl.h"
	.file 27 "C:/GNU/MINGW64/i686-8.1.0-win32-dwarf-rt_v6-rev0/mingw32/i686-w64-mingw32/include/oleauto.h"
	.file 28 "C:/GNU/MINGW64/i686-8.1.0-win32-dwarf-rt_v6-rev0/mingw32/i686-w64-mingw32/include/winioctl.h"
	.file 29 "C:/GNU/MINGW64/i686-8.1.0-win32-dwarf-rt_v6-rev0/mingw32/i686-w64-mingw32/include/winsmcrd.h"
	.file 30 "C:/GNU/MINGW64/i686-8.1.0-win32-dwarf-rt_v6-rev0/mingw32/i686-w64-mingw32/include/winscard.h"
	.file 31 "C:/GNU/MINGW64/i686-8.1.0-win32-dwarf-rt_v6-rev0/mingw32/i686-w64-mingw32/include/commdlg.h"
	.file 32 "C:/GNU/MINGW64/i686-8.1.0-win32-dwarf-rt_v6-rev0/mingw32/i686-w64-mingw32/include/stdint.h"
	.file 33 "pmc.h"
	.file 34 "pmc_cpuid.h"
	.file 35 "C:/GNU/MINGW64/i686-8.1.0-win32-dwarf-rt_v6-rev0/mingw32/i686-w64-mingw32/include/winbase.h"