	.file	"pmc_subtruct.c"
	.text
Ltext0:
	.def	__FROMDWORDTOWORD;	.scl	3;	.type	32;	.endef
__FROMDWORDTOWORD:
LFB4196:
	.file 1 "pmc_internal.h"
	.loc 1 393 1
	.cfi_startproc
	pushl	%ebp
	.cfi_def_cfa_offset 8
	.cfi_offset 5, -8
	movl	%esp, %ebp
	.cfi_def_cfa_register 5
	pushl	%ebx
	subl	$12, %esp
	.cfi_offset 3, -12
	movl	8(%ebp), %eax
	movl	%eax, -16(%ebp)
	movl	12(%ebp), %eax
	movl	%eax, -12(%ebp)
	.loc 1 394 38
	movl	-16(%ebp), %eax
	movl	-12(%ebp), %edx
	movl	%edx, %eax
	xorl	%edx, %edx
	movl	%eax, %ecx
	movl	%edx, %ebx
	.loc 1 394 20
	movl	%ecx, %edx
	.loc 1 394 18
	movl	16(%ebp), %eax
	movl	%edx, (%eax)
	.loc 1 395 13
	movl	-16(%ebp), %eax
	.loc 1 396 1
	addl	$12, %esp
	popl	%ebx
	.cfi_restore 3
	popl	%ebp
	.cfi_restore 5
	.cfi_def_cfa 4, 4
	ret
	.cfi_endproc
LFE4196:
	.def	__SUBTRUCT_UNIT;	.scl	3;	.type	32;	.endef
__SUBTRUCT_UNIT:
LFB4206:
	.loc 1 480 1
	.cfi_startproc
	pushl	%ebp
	.cfi_def_cfa_offset 8
	.cfi_offset 5, -8
	movl	%esp, %ebp
	.cfi_def_cfa_register 5
	pushl	%ebx
	subl	$20, %esp
	.cfi_offset 3, -12
	movl	8(%ebp), %eax
	movb	%al, -24(%ebp)
	.loc 1 482 13
	movzbl	-24(%ebp), %eax
	movzbl	%al, %eax
	movb	%al, -5(%ebp)
	movl	12(%ebp), %eax
	movl	%eax, -12(%ebp)
	movl	16(%ebp), %eax
	movl	%eax, -16(%ebp)
	movl	20(%ebp), %eax
	movl	%eax, -20(%ebp)
LBB4:
LBB5:
	.file 2 "C:/GNU/MINGW64/i686-8.1.0-win32-dwarf-rt_v6-rev0/mingw32/lib/gcc/i686-w64-mingw32/8.1.0/include/adxintrin.h"
	.loc 2 36 10
	movzbl	-5(%ebp), %eax
	movl	%eax, %ebx
	movl	-12(%ebp), %edx
	movl	-16(%ebp), %ecx
	movl	-20(%ebp), %eax
	addb	$-1, %bl
	sbbl	%ecx, %edx
	setc	%cl
	movl	%edx, (%eax)
LBE5:
LBE4:
	.loc 1 482 13
	movl	%ecx, %eax
	.loc 1 488 1
	addl	$20, %esp
	popl	%ebx
	.cfi_restore 3
	popl	%ebp
	.cfi_restore 5
	.cfi_def_cfa 4, 4
	ret
	.cfi_endproc
LFE4206:
	.def	__LZCNT_ALT_32;	.scl	3;	.type	32;	.endef
__LZCNT_ALT_32:
LFB4223:
	.loc 1 807 1
	.cfi_startproc
	pushl	%ebp
	.cfi_def_cfa_offset 8
	.cfi_offset 5, -8
	movl	%esp, %ebp
	.cfi_def_cfa_register 5
	subl	$16, %esp
	.loc 1 808 8
	cmpl	$0, 8(%ebp)
	jne	L7
	.loc 1 809 16
	movl	$32, %eax
	jmp	L8
L7:
	.loc 1 814 5
/APP
 # 814 "pmc_internal.h" 1
	bsrl 8(%ebp), %eax
 # 0 "" 2
/NO_APP
	movl	%eax, -4(%ebp)
	.loc 1 818 31
	movl	$31, %eax
	subl	-4(%ebp), %eax
L8:
	.loc 1 819 1
	leave
	.cfi_restore 5
	.cfi_def_cfa 4, 4
	ret
	.cfi_endproc
LFE4223:
	.def	__SUBTRUCT_32WORDS_SBB;	.scl	3;	.type	32;	.endef
__SUBTRUCT_32WORDS_SBB:
LFB4240:
	.file 3 "autogenerated_inline_func.h"
	.loc 3 804 1
	.cfi_startproc
	pushl	%ebp
	.cfi_def_cfa_offset 8
	.cfi_offset 5, -8
	movl	%esp, %ebp
	.cfi_def_cfa_register 5
	pushl	%esi
	pushl	%ebx
	subl	$4, %esp
	.cfi_offset 6, -12
	.cfi_offset 3, -16
	movl	8(%ebp), %eax
	movb	%al, -12(%ebp)
	.loc 3 840 5
	movzbl	-12(%ebp), %eax
	movl	12(%ebp), %ebx
	movl	16(%ebp), %ecx
	movl	20(%ebp), %edx
	movl	%ebx, %esi
	movl	%ecx, %ebx
/APP
 # 840 "autogenerated_inline_func.h" 1
	addb	$-1, %al
	movl	(%esi), %ecx
	sbbl	(%ebx), %ecx
	movl	%ecx, (%edx)
	movl	4(%esi), %ecx
	sbbl	4(%ebx), %ecx
	movl	%ecx, 4(%edx)
	movl	8(%esi), %ecx
	sbbl	8(%ebx), %ecx
	movl	%ecx, 8(%edx)
	movl	12(%esi), %ecx
	sbbl	12(%ebx), %ecx
	movl	%ecx, 12(%edx)
	movl	16(%esi), %ecx
	sbbl	16(%ebx), %ecx
	movl	%ecx, 16(%edx)
	movl	20(%esi), %ecx
	sbbl	20(%ebx), %ecx
	movl	%ecx, 20(%edx)
	movl	24(%esi), %ecx
	sbbl	24(%ebx), %ecx
	movl	%ecx, 24(%edx)
	movl	28(%esi), %ecx
	sbbl	28(%ebx), %ecx
	movl	%ecx, 28(%edx)
	movl	32(%esi), %ecx
	sbbl	32(%ebx), %ecx
	movl	%ecx, 32(%edx)
	movl	36(%esi), %ecx
	sbbl	36(%ebx), %ecx
	movl	%ecx, 36(%edx)
	movl	40(%esi), %ecx
	sbbl	40(%ebx), %ecx
	movl	%ecx, 40(%edx)
	movl	44(%esi), %ecx
	sbbl	44(%ebx), %ecx
	movl	%ecx, 44(%edx)
	movl	48(%esi), %ecx
	sbbl	48(%ebx), %ecx
	movl	%ecx, 48(%edx)
	movl	52(%esi), %ecx
	sbbl	52(%ebx), %ecx
	movl	%ecx, 52(%edx)
	movl	56(%esi), %ecx
	sbbl	56(%ebx), %ecx
	movl	%ecx, 56(%edx)
	movl	60(%esi), %ecx
	sbbl	60(%ebx), %ecx
	movl	%ecx, 60(%edx)
	movl	64(%esi), %ecx
	sbbl	64(%ebx), %ecx
	movl	%ecx, 64(%edx)
	movl	68(%esi), %ecx
	sbbl	68(%ebx), %ecx
	movl	%ecx, 68(%edx)
	movl	72(%esi), %ecx
	sbbl	72(%ebx), %ecx
	movl	%ecx, 72(%edx)
	movl	76(%esi), %ecx
	sbbl	76(%ebx), %ecx
	movl	%ecx, 76(%edx)
	movl	80(%esi), %ecx
	sbbl	80(%ebx), %ecx
	movl	%ecx, 80(%edx)
	movl	84(%esi), %ecx
	sbbl	84(%ebx), %ecx
	movl	%ecx, 84(%edx)
	movl	88(%esi), %ecx
	sbbl	88(%ebx), %ecx
	movl	%ecx, 88(%edx)
	movl	92(%esi), %ecx
	sbbl	92(%ebx), %ecx
	movl	%ecx, 92(%edx)
	movl	96(%esi), %ecx
	sbbl	96(%ebx), %ecx
	movl	%ecx, 96(%edx)
	movl	100(%esi), %ecx
	sbbl	100(%ebx), %ecx
	movl	%ecx, 100(%edx)
	movl	104(%esi), %ecx
	sbbl	104(%ebx), %ecx
	movl	%ecx, 104(%edx)
	movl	108(%esi), %ecx
	sbbl	108(%ebx), %ecx
	movl	%ecx, 108(%edx)
	movl	112(%esi), %ecx
	sbbl	112(%ebx), %ecx
	movl	%ecx, 112(%edx)
	movl	116(%esi), %ecx
	sbbl	116(%ebx), %ecx
	movl	%ecx, 116(%edx)
	movl	120(%esi), %ecx
	sbbl	120(%ebx), %ecx
	movl	%ecx, 120(%edx)
	movl	124(%esi), %ecx
	sbbl	124(%ebx), %ecx
	movl	%ecx, 124(%edx)
	setc	%al
 # 0 "" 2
/NO_APP
	movb	%al, -12(%ebp)
	movl	%esi, 12(%ebp)
	movl	%ebx, 16(%ebp)
	movl	%edx, 20(%ebp)
	.loc 3 1053 12
	movzbl	-12(%ebp), %eax
	.loc 3 1054 1
	addl	$4, %esp
	popl	%ebx
	.cfi_restore 3
	popl	%esi
	.cfi_restore 6
	popl	%ebp
	.cfi_restore 5
	.cfi_def_cfa 4, 4
	ret
	.cfi_endproc
LFE4240:
	.def	__SUBTRUCT_16WORDS_SBB;	.scl	3;	.type	32;	.endef
__SUBTRUCT_16WORDS_SBB:
LFB4248:
	.loc 3 2492 1
	.cfi_startproc
	pushl	%ebp
	.cfi_def_cfa_offset 8
	.cfi_offset 5, -8
	movl	%esp, %ebp
	.cfi_def_cfa_register 5
	pushl	%esi
	pushl	%ebx
	subl	$4, %esp
	.cfi_offset 6, -12
	.cfi_offset 3, -16
	movl	8(%ebp), %eax
	movb	%al, -12(%ebp)
	.loc 3 2512 5
	movzbl	-12(%ebp), %eax
	movl	12(%ebp), %ebx
	movl	16(%ebp), %ecx
	movl	20(%ebp), %edx
	movl	%ebx, %esi
	movl	%ecx, %ebx
/APP
 # 2512 "autogenerated_inline_func.h" 1
	addb	$-1, %al
	movl	(%esi), %ecx
	sbbl	(%ebx), %ecx
	movl	%ecx, (%edx)
	movl	4(%esi), %ecx
	sbbl	4(%ebx), %ecx
	movl	%ecx, 4(%edx)
	movl	8(%esi), %ecx
	sbbl	8(%ebx), %ecx
	movl	%ecx, 8(%edx)
	movl	12(%esi), %ecx
	sbbl	12(%ebx), %ecx
	movl	%ecx, 12(%edx)
	movl	16(%esi), %ecx
	sbbl	16(%ebx), %ecx
	movl	%ecx, 16(%edx)
	movl	20(%esi), %ecx
	sbbl	20(%ebx), %ecx
	movl	%ecx, 20(%edx)
	movl	24(%esi), %ecx
	sbbl	24(%ebx), %ecx
	movl	%ecx, 24(%edx)
	movl	28(%esi), %ecx
	sbbl	28(%ebx), %ecx
	movl	%ecx, 28(%edx)
	movl	32(%esi), %ecx
	sbbl	32(%ebx), %ecx
	movl	%ecx, 32(%edx)
	movl	36(%esi), %ecx
	sbbl	36(%ebx), %ecx
	movl	%ecx, 36(%edx)
	movl	40(%esi), %ecx
	sbbl	40(%ebx), %ecx
	movl	%ecx, 40(%edx)
	movl	44(%esi), %ecx
	sbbl	44(%ebx), %ecx
	movl	%ecx, 44(%edx)
	movl	48(%esi), %ecx
	sbbl	48(%ebx), %ecx
	movl	%ecx, 48(%edx)
	movl	52(%esi), %ecx
	sbbl	52(%ebx), %ecx
	movl	%ecx, 52(%edx)
	movl	56(%esi), %ecx
	sbbl	56(%ebx), %ecx
	movl	%ecx, 56(%edx)
	movl	60(%esi), %ecx
	sbbl	60(%ebx), %ecx
	movl	%ecx, 60(%edx)
	setc	%al
 # 0 "" 2
/NO_APP
	movb	%al, -12(%ebp)
	movl	%esi, 12(%ebp)
	movl	%ebx, 16(%ebp)
	movl	%edx, 20(%ebp)
	.loc 3 2629 12
	movzbl	-12(%ebp), %eax
	.loc 3 2630 1
	addl	$4, %esp
	popl	%ebx
	.cfi_restore 3
	popl	%esi
	.cfi_restore 6
	popl	%ebp
	.cfi_restore 5
	.cfi_def_cfa 4, 4
	ret
	.cfi_endproc
LFE4248:
	.def	__SUBTRUCT_8WORDS_SBB;	.scl	3;	.type	32;	.endef
__SUBTRUCT_8WORDS_SBB:
LFB4256:
	.loc 3 3452 1
	.cfi_startproc
	pushl	%ebp
	.cfi_def_cfa_offset 8
	.cfi_offset 5, -8
	movl	%esp, %ebp
	.cfi_def_cfa_register 5
	pushl	%esi
	pushl	%ebx
	subl	$4, %esp
	.cfi_offset 6, -12
	.cfi_offset 3, -16
	movl	8(%ebp), %eax
	movb	%al, -12(%ebp)
	.loc 3 3464 5
	movzbl	-12(%ebp), %eax
	movl	12(%ebp), %ebx
	movl	16(%ebp), %ecx
	movl	20(%ebp), %edx
	movl	%ebx, %esi
	movl	%ecx, %ebx
/APP
 # 3464 "autogenerated_inline_func.h" 1
	addb	$-1, %al
	movl	(%esi), %ecx
	sbbl	(%ebx), %ecx
	movl	%ecx, (%edx)
	movl	4(%esi), %ecx
	sbbl	4(%ebx), %ecx
	movl	%ecx, 4(%edx)
	movl	8(%esi), %ecx
	sbbl	8(%ebx), %ecx
	movl	%ecx, 8(%edx)
	movl	12(%esi), %ecx
	sbbl	12(%ebx), %ecx
	movl	%ecx, 12(%edx)
	movl	16(%esi), %ecx
	sbbl	16(%ebx), %ecx
	movl	%ecx, 16(%edx)
	movl	20(%esi), %ecx
	sbbl	20(%ebx), %ecx
	movl	%ecx, 20(%edx)
	movl	24(%esi), %ecx
	sbbl	24(%ebx), %ecx
	movl	%ecx, 24(%edx)
	movl	28(%esi), %ecx
	sbbl	28(%ebx), %ecx
	movl	%ecx, 28(%edx)
	setc	%al
 # 0 "" 2
/NO_APP
	movb	%al, -12(%ebp)
	movl	%esi, 12(%ebp)
	movl	%ebx, 16(%ebp)
	movl	%edx, 20(%ebp)
	.loc 3 3533 12
	movzbl	-12(%ebp), %eax
	.loc 3 3534 1
	addl	$4, %esp
	popl	%ebx
	.cfi_restore 3
	popl	%esi
	.cfi_restore 6
	popl	%ebp
	.cfi_restore 5
	.cfi_def_cfa 4, 4
	ret
	.cfi_endproc
LFE4256:
	.def	__SUBTRUCT_4WORDS_SBB;	.scl	3;	.type	32;	.endef
__SUBTRUCT_4WORDS_SBB:
LFB4264:
	.loc 3 4048 1
	.cfi_startproc
	pushl	%ebp
	.cfi_def_cfa_offset 8
	.cfi_offset 5, -8
	movl	%esp, %ebp
	.cfi_def_cfa_register 5
	pushl	%esi
	pushl	%ebx
	subl	$4, %esp
	.cfi_offset 6, -12
	.cfi_offset 3, -16
	movl	8(%ebp), %eax
	movb	%al, -12(%ebp)
	.loc 3 4056 5
	movzbl	-12(%ebp), %eax
	movl	12(%ebp), %ebx
	movl	16(%ebp), %ecx
	movl	20(%ebp), %edx
	movl	%ebx, %esi
	movl	%ecx, %ebx
/APP
 # 4056 "autogenerated_inline_func.h" 1
	addb	$-1, %al
	movl	(%esi), %ecx
	sbbl	(%ebx), %ecx
	movl	%ecx, (%edx)
	movl	4(%esi), %ecx
	sbbl	4(%ebx), %ecx
	movl	%ecx, 4(%edx)
	movl	8(%esi), %ecx
	sbbl	8(%ebx), %ecx
	movl	%ecx, 8(%edx)
	movl	12(%esi), %ecx
	sbbl	12(%ebx), %ecx
	movl	%ecx, 12(%edx)
	setc	%al
 # 0 "" 2
/NO_APP
	movb	%al, -12(%ebp)
	movl	%esi, 12(%ebp)
	movl	%ebx, 16(%ebp)
	movl	%edx, 20(%ebp)
	.loc 3 4101 12
	movzbl	-12(%ebp), %eax
	.loc 3 4102 1
	addl	$4, %esp
	popl	%ebx
	.cfi_restore 3
	popl	%esi
	.cfi_restore 6
	popl	%ebp
	.cfi_restore 5
	.cfi_def_cfa 4, 4
	ret
	.cfi_endproc
LFE4264:
	.def	__SUBTRUCT_2WORDS_SBB;	.scl	3;	.type	32;	.endef
__SUBTRUCT_2WORDS_SBB:
LFB4272:
	.loc 3 4462 1
	.cfi_startproc
	pushl	%ebp
	.cfi_def_cfa_offset 8
	.cfi_offset 5, -8
	movl	%esp, %ebp
	.cfi_def_cfa_register 5
	pushl	%esi
	pushl	%ebx
	subl	$4, %esp
	.cfi_offset 6, -12
	.cfi_offset 3, -16
	movl	8(%ebp), %eax
	movb	%al, -12(%ebp)
	.loc 3 4468 5
	movzbl	-12(%ebp), %eax
	movl	12(%ebp), %ebx
	movl	16(%ebp), %ecx
	movl	20(%ebp), %edx
	movl	%ebx, %esi
	movl	%ecx, %ebx
/APP
 # 4468 "autogenerated_inline_func.h" 1
	addb	$-1, %al
	movl	(%esi), %ecx
	sbbl	(%ebx), %ecx
	movl	%ecx, (%edx)
	movl	4(%esi), %ecx
	sbbl	4(%ebx), %ecx
	movl	%ecx, 4(%edx)
	setc	%al
 # 0 "" 2
/NO_APP
	movb	%al, -12(%ebp)
	movl	%esi, 12(%ebp)
	movl	%ebx, 16(%ebp)
	movl	%edx, 20(%ebp)
	.loc 3 4501 12
	movzbl	-12(%ebp), %eax
	.loc 3 4502 1
	addl	$4, %esp
	popl	%ebx
	.cfi_restore 3
	popl	%esi
	.cfi_restore 6
	popl	%ebp
	.cfi_restore 5
	.cfi_def_cfa 4, 4
	ret
	.cfi_endproc
LFE4272:
	.def	_DoBorrow;	.scl	3;	.type	32;	.endef
_DoBorrow:
LFB4277:
	.file 4 "pmc_subtruct.c"
	.loc 4 39 1
	.cfi_startproc
	pushl	%ebp
	.cfi_def_cfa_offset 8
	.cfi_offset 5, -8
	movl	%esp, %ebp
	.cfi_def_cfa_register 5
	subl	$20, %esp
	movl	8(%ebp), %eax
	movb	%al, -4(%ebp)
L27:
	.loc 4 43 12
	cmpl	$0, 16(%ebp)
	jne	L20
	.loc 4 47 16
	cmpb	$0, -4(%ebp)
	je	L21
	.loc 4 52 24
	movl	$-258, %eax
	jmp	L22
L21:
	.loc 4 57 20
	movl	$0, %eax
	jmp	L22
L20:
	.loc 4 59 17
	cmpb	$0, -4(%ebp)
	je	L25
	.loc 4 64 17
	movl	20(%ebp), %eax
	leal	4(%eax), %edx
	movl	%edx, 20(%ebp)
	.loc 4 64 38
	movl	12(%ebp), %edx
	leal	4(%edx), %ecx
	movl	%ecx, 12(%ebp)
	.loc 4 64 17
	movl	(%edx), %ecx
	movsbl	-4(%ebp), %edx
	movl	%eax, 12(%esp)
	movl	$0, 8(%esp)
	movl	%ecx, 4(%esp)
	movl	%edx, (%esp)
	call	__SUBTRUCT_UNIT
	movb	%al, -4(%ebp)
	.loc 4 65 13
	subl	$1, 16(%ebp)
	.loc 4 66 13
	subl	$1, 24(%ebp)
	jmp	L27
L26:
	.loc 4 75 28
	movl	12(%ebp), %edx
	leal	4(%edx), %eax
	movl	%eax, 12(%ebp)
	.loc 4 75 20
	movl	20(%ebp), %eax
	leal	4(%eax), %ecx
	movl	%ecx, 20(%ebp)
	.loc 4 75 25
	movl	(%edx), %edx
	.loc 4 75 23
	movl	%edx, (%eax)
	.loc 4 76 17
	subl	$1, 16(%ebp)
	.loc 4 77 17
	subl	$1, 24(%ebp)
L25:
	.loc 4 73 19
	cmpl	$0, 16(%ebp)
	jne	L26
	.loc 4 79 20
	movl	$0, %eax
L22:
	.loc 4 82 1
	leave
	.cfi_restore 5
	.cfi_def_cfa 4, 4
	ret
	.cfi_endproc
LFE4277:
	.def	_Subtruct_X_1W;	.scl	3;	.type	32;	.endef
_Subtruct_X_1W:
LFB4278:
	.loc 4 85 1
	.cfi_startproc
	pushl	%ebp
	.cfi_def_cfa_offset 8
	.cfi_offset 5, -8
	movl	%esp, %ebp
	.cfi_def_cfa_register 5
	subl	$52, %esp
	.loc 4 86 17
	movl	8(%ebp), %eax
	movl	(%eax), %eax
	movl	%eax, -4(%ebp)
	.loc 4 87 17
	movl	16(%ebp), %eax
	movl	20(%eax), %eax
	movl	%eax, -8(%ebp)
	.loc 4 88 18
	movl	8(%ebp), %eax
	movl	24(%eax), %eax
	movl	%eax, -12(%ebp)
	.loc 4 89 18
	movl	16(%ebp), %eax
	movl	24(%eax), %eax
	movl	%eax, -16(%ebp)
	.loc 4 95 9
	movl	-16(%ebp), %eax
	leal	4(%eax), %edx
	movl	%edx, -16(%ebp)
	.loc 4 95 30
	movl	-12(%ebp), %edx
	leal	4(%edx), %ecx
	movl	%ecx, -12(%ebp)
	.loc 4 95 9
	movl	(%edx), %edx
	movl	%eax, 12(%esp)
	movl	12(%ebp), %eax
	movl	%eax, 8(%esp)
	movl	%edx, 4(%esp)
	movl	$0, (%esp)
	call	__SUBTRUCT_UNIT
	movb	%al, -17(%ebp)
	.loc 4 96 5
	subl	$1, -4(%ebp)
	.loc 4 97 5
	subl	$1, -8(%ebp)
	.loc 4 100 13
	movsbl	-17(%ebp), %eax
	movl	-8(%ebp), %edx
	movl	%edx, 16(%esp)
	movl	-16(%ebp), %edx
	movl	%edx, 12(%esp)
	movl	-4(%ebp), %edx
	movl	%edx, 8(%esp)
	movl	-12(%ebp), %edx
	movl	%edx, 4(%esp)
	movl	%eax, (%esp)
	call	_DoBorrow
	.loc 4 101 1
	leave
	.cfi_restore 5
	.cfi_def_cfa 4, 4
	ret
	.cfi_endproc
LFE4278:
	.def	_Subtruct_X_2W;	.scl	3;	.type	32;	.endef
_Subtruct_X_2W:
LFB4279:
	.loc 4 105 1
	.cfi_startproc
	pushl	%ebp
	.cfi_def_cfa_offset 8
	.cfi_offset 5, -8
	movl	%esp, %ebp
	.cfi_def_cfa_register 5
	subl	$52, %esp
	.loc 4 106 17
	movl	8(%ebp), %eax
	movl	(%eax), %eax
	movl	%eax, -4(%ebp)
	.loc 4 107 17
	movl	20(%ebp), %eax
	movl	20(%eax), %eax
	movl	%eax, -8(%ebp)
	.loc 4 108 18
	movl	8(%ebp), %eax
	movl	24(%eax), %eax
	movl	%eax, -12(%ebp)
	.loc 4 109 18
	movl	20(%ebp), %eax
	movl	24(%eax), %eax
	movl	%eax, -16(%ebp)
	.loc 4 112 8
	cmpl	$1, -4(%ebp)
	ja	L32
	.loc 4 117 16
	movl	$-258, %eax
	jmp	L33
L32:
	.loc 4 124 13
	movl	-16(%ebp), %eax
	leal	4(%eax), %edx
	movl	%edx, -16(%ebp)
	.loc 4 124 34
	movl	-12(%ebp), %edx
	leal	4(%edx), %ecx
	movl	%ecx, -12(%ebp)
	.loc 4 124 13
	movl	(%edx), %edx
	movl	%eax, 12(%esp)
	movl	16(%ebp), %eax
	movl	%eax, 8(%esp)
	movl	%edx, 4(%esp)
	movl	$0, (%esp)
	call	__SUBTRUCT_UNIT
	movb	%al, -17(%ebp)
	.loc 4 127 13
	movl	-16(%ebp), %eax
	leal	4(%eax), %edx
	movl	%edx, -16(%ebp)
	.loc 4 127 34
	movl	-12(%ebp), %edx
	leal	4(%edx), %ecx
	movl	%ecx, -12(%ebp)
	.loc 4 127 13
	movl	(%edx), %ecx
	movsbl	-17(%ebp), %edx
	movl	%eax, 12(%esp)
	movl	12(%ebp), %eax
	movl	%eax, 8(%esp)
	movl	%ecx, 4(%esp)
	movl	%edx, (%esp)
	call	__SUBTRUCT_UNIT
	movb	%al, -17(%ebp)
	.loc 4 128 17
	subl	$2, -4(%ebp)
	.loc 4 129 17
	subl	$2, -8(%ebp)
	.loc 4 132 17
	movsbl	-17(%ebp), %eax
	movl	-8(%ebp), %edx
	movl	%edx, 16(%esp)
	movl	-16(%ebp), %edx
	movl	%edx, 12(%esp)
	movl	-4(%ebp), %edx
	movl	%edx, 8(%esp)
	movl	-12(%ebp), %edx
	movl	%edx, 4(%esp)
	movl	%eax, (%esp)
	call	_DoBorrow
L33:
	.loc 4 134 1
	leave
	.cfi_restore 5
	.cfi_def_cfa 4, 4
	ret
	.cfi_endproc
LFE4279:
	.def	_Subtruct_X_X;	.scl	3;	.type	32;	.endef
_Subtruct_X_X:
LFB4280:
	.loc 4 138 1
	.cfi_startproc
	pushl	%ebp
	.cfi_def_cfa_offset 8
	.cfi_offset 5, -8
	movl	%esp, %ebp
	.cfi_def_cfa_register 5
	pushl	%ebx
	subl	$52, %esp
	.cfi_offset 3, -12
	.loc 4 139 17
	movl	8(%ebp), %eax
	movl	(%eax), %eax
	movl	%eax, -28(%ebp)
	.loc 4 140 17
	movl	12(%ebp), %eax
	movl	(%eax), %eax
	movl	%eax, -32(%ebp)
	.loc 4 141 17
	movl	16(%ebp), %eax
	movl	20(%eax), %eax
	movl	%eax, -36(%ebp)
	.loc 4 142 18
	movl	8(%ebp), %eax
	movl	24(%eax), %eax
	movl	%eax, -8(%ebp)
	.loc 4 143 18
	movl	12(%ebp), %eax
	movl	24(%eax), %eax
	movl	%eax, -12(%ebp)
	.loc 4 144 18
	movl	16(%ebp), %eax
	movl	24(%eax), %eax
	movl	%eax, -16(%ebp)
	.loc 4 145 10
	movb	$0, -17(%ebp)
	.loc 4 148 17
	movl	-32(%ebp), %eax
	shrl	$5, %eax
	movl	%eax, -24(%ebp)
	.loc 4 149 11
	jmp	L35
L36:
	.loc 4 151 12
	movsbl	-17(%ebp), %eax
	movl	-16(%ebp), %edx
	movl	%edx, 12(%esp)
	movl	-12(%ebp), %edx
	movl	%edx, 8(%esp)
	movl	-8(%ebp), %edx
	movl	%edx, 4(%esp)
	movl	%eax, (%esp)
	call	__SUBTRUCT_32WORDS_SBB
	movb	%al, -17(%ebp)
	.loc 4 152 12
	subl	$-128, -8(%ebp)
	.loc 4 153 12
	subl	$-128, -12(%ebp)
	.loc 4 154 12
	subl	$-128, -16(%ebp)
	.loc 4 155 9
	subl	$1, -24(%ebp)
L35:
	.loc 4 149 11
	cmpl	$0, -24(%ebp)
	jne	L36
	.loc 4 160 17
	movl	-32(%ebp), %eax
	andl	$16, %eax
	.loc 4 160 8
	testl	%eax, %eax
	je	L37
	.loc 4 162 13
	movsbl	-17(%ebp), %eax
	movl	-16(%ebp), %edx
	movl	%edx, 12(%esp)
	movl	-12(%ebp), %edx
	movl	%edx, 8(%esp)
	movl	-8(%ebp), %edx
	movl	%edx, 4(%esp)
	movl	%eax, (%esp)
	call	__SUBTRUCT_16WORDS_SBB
	movb	%al, -17(%ebp)
	.loc 4 163 12
	addl	$64, -8(%ebp)
	.loc 4 164 12
	addl	$64, -12(%ebp)
	.loc 4 165 12
	addl	$64, -16(%ebp)
L37:
	.loc 4 170 17
	movl	-32(%ebp), %eax
	andl	$8, %eax
	.loc 4 170 8
	testl	%eax, %eax
	je	L38
	.loc 4 172 13
	movsbl	-17(%ebp), %eax
	movl	-16(%ebp), %edx
	movl	%edx, 12(%esp)
	movl	-12(%ebp), %edx
	movl	%edx, 8(%esp)
	movl	-8(%ebp), %edx
	movl	%edx, 4(%esp)
	movl	%eax, (%esp)
	call	__SUBTRUCT_8WORDS_SBB
	movb	%al, -17(%ebp)
	.loc 4 173 12
	addl	$32, -8(%ebp)
	.loc 4 174 12
	addl	$32, -12(%ebp)
	.loc 4 175 12
	addl	$32, -16(%ebp)
L38:
	.loc 4 180 17
	movl	-32(%ebp), %eax
	andl	$4, %eax
	.loc 4 180 8
	testl	%eax, %eax
	je	L39
	.loc 4 182 13
	movsbl	-17(%ebp), %eax
	movl	-16(%ebp), %edx
	movl	%edx, 12(%esp)
	movl	-12(%ebp), %edx
	movl	%edx, 8(%esp)
	movl	-8(%ebp), %edx
	movl	%edx, 4(%esp)
	movl	%eax, (%esp)
	call	__SUBTRUCT_4WORDS_SBB
	movb	%al, -17(%ebp)
	.loc 4 183 12
	addl	$16, -8(%ebp)
	.loc 4 184 12
	addl	$16, -12(%ebp)
	.loc 4 185 12
	addl	$16, -16(%ebp)
L39:
	.loc 4 190 17
	movl	-32(%ebp), %eax
	andl	$2, %eax
	.loc 4 190 8
	testl	%eax, %eax
	je	L40
	.loc 4 192 13
	movsbl	-17(%ebp), %eax
	movl	-16(%ebp), %edx
	movl	%edx, 12(%esp)
	movl	-12(%ebp), %edx
	movl	%edx, 8(%esp)
	movl	-8(%ebp), %edx
	movl	%edx, 4(%esp)
	movl	%eax, (%esp)
	call	__SUBTRUCT_2WORDS_SBB
	movb	%al, -17(%ebp)
	.loc 4 193 12
	addl	$8, -8(%ebp)
	.loc 4 194 12
	addl	$8, -12(%ebp)
	.loc 4 195 12
	addl	$8, -16(%ebp)
L40:
	.loc 4 200 17
	movl	-32(%ebp), %eax
	andl	$1, %eax
	.loc 4 200 8
	testl	%eax, %eax
	je	L41
	.loc 4 201 13
	movl	-16(%ebp), %eax
	leal	4(%eax), %edx
	movl	%edx, -16(%ebp)
	.loc 4 201 41
	movl	-12(%ebp), %edx
	leal	4(%edx), %ecx
	movl	%ecx, -12(%ebp)
	.loc 4 201 13
	movl	(%edx), %ebx
	.loc 4 201 34
	movl	-8(%ebp), %edx
	leal	4(%edx), %ecx
	movl	%ecx, -8(%ebp)
	.loc 4 201 13
	movl	(%edx), %ecx
	movsbl	-17(%ebp), %edx
	movl	%eax, 12(%esp)
	movl	%ebx, 8(%esp)
	movl	%ecx, 4(%esp)
	movl	%edx, (%esp)
	call	__SUBTRUCT_UNIT
	movb	%al, -17(%ebp)
L41:
	.loc 4 204 13
	movl	-36(%ebp), %eax
	subl	-32(%ebp), %eax
	movl	%eax, %ecx
	movl	-28(%ebp), %eax
	subl	-32(%ebp), %eax
	movl	%eax, %edx
	movsbl	-17(%ebp), %eax
	movl	%ecx, 16(%esp)
	movl	-16(%ebp), %ecx
	movl	%ecx, 12(%esp)
	movl	%edx, 8(%esp)
	movl	-8(%ebp), %edx
	movl	%edx, 4(%esp)
	movl	%eax, (%esp)
	call	_DoBorrow
	.loc 4 205 1
	addl	$52, %esp
	popl	%ebx
	.cfi_restore 3
	popl	%ebp
	.cfi_restore 5
	.cfi_def_cfa 4, 4
	ret
	.cfi_endproc
LFE4280:
	.globl	_PMC_Subtruct_X_I@12
	.def	_PMC_Subtruct_X_I@12;	.scl	2;	.type	32;	.endef
_PMC_Subtruct_X_I@12:
LFB4281:
	.loc 4 208 1
	.cfi_startproc
	pushl	%ebp
	.cfi_def_cfa_offset 8
	.cfi_offset 5, -8
	movl	%esp, %ebp
	.cfi_def_cfa_register 5
	subl	$56, %esp
	.loc 4 214 8
	cmpl	$0, 8(%ebp)
	jne	L44
	.loc 4 215 16
	movl	$-1, %eax
	jmp	L62
L44:
	.loc 4 216 8
	cmpl	$0, 16(%ebp)
	jne	L46
	.loc 4 217 16
	movl	$-1, %eax
	jmp	L62
L46:
	.loc 4 218 20
	movl	8(%ebp), %eax
	movl	%eax, -12(%ebp)
	.loc 4 220 19
	movl	-12(%ebp), %eax
	movl	%eax, (%esp)
	call	_CheckNumber
	movl	%eax, -16(%ebp)
	.loc 4 220 8
	cmpl	$0, -16(%ebp)
	je	L47
	.loc 4 221 16
	movl	-16(%ebp), %eax
	jmp	L62
L47:
	.loc 4 223 9
	movl	-12(%ebp), %eax
	movzbl	16(%eax), %eax
	andl	$2, %eax
	.loc 4 223 8
	testb	%al, %al
	je	L48
	.loc 4 227 12
	cmpl	$0, 12(%ebp)
	jne	L49
	.loc 4 232 16
	movl	16(%ebp), %eax
	movl	$_number_zero, (%eax)
	jmp	L50
L49:
	.loc 4 239 20
	movl	$-2, %eax
	jmp	L62
L48:
	.loc 4 246 12
	cmpl	$0, 12(%ebp)
	jne	L51
	.loc 4 251 27
	leal	-32(%ebp), %eax
	movl	%eax, 4(%esp)
	movl	-12(%ebp), %eax
	movl	%eax, (%esp)
	call	_DuplicateNumber
	movl	%eax, -16(%ebp)
	.loc 4 251 16
	cmpl	$0, -16(%ebp)
	je	L52
	.loc 4 252 24
	movl	-16(%ebp), %eax
	jmp	L62
L51:
LBB6:
	.loc 4 259 25
	movl	-12(%ebp), %eax
	movl	4(%eax), %eax
	movl	%eax, -20(%ebp)
	.loc 4 260 55
	movl	12(%ebp), %eax
	movl	%eax, (%esp)
	call	__LZCNT_ALT_32
	.loc 4 260 25
	movl	$32, %edx
	subl	%eax, %edx
	movl	%edx, %eax
	movl	%eax, -24(%ebp)
	.loc 4 261 16
	movl	-20(%ebp), %eax
	cmpl	-24(%ebp), %eax
	jnb	L53
	.loc 4 264 24
	movl	$-2, %eax
	jmp	L62
L53:
	.loc 4 266 25
	movl	-20(%ebp), %eax
	movl	%eax, -28(%ebp)
	.loc 4 268 27
	leal	-36(%ebp), %eax
	movl	%eax, 8(%esp)
	movl	-28(%ebp), %eax
	movl	%eax, 4(%esp)
	leal	-32(%ebp), %eax
	movl	%eax, (%esp)
	call	_AllocateNumber
	movl	%eax, -16(%ebp)
	.loc 4 268 16
	cmpl	$0, -16(%ebp)
	je	L55
	.loc 4 269 24
	movl	-16(%ebp), %eax
	jmp	L62
L55:
	.loc 4 270 27
	movl	-32(%ebp), %eax
	movl	%eax, 8(%esp)
	movl	12(%ebp), %eax
	movl	%eax, 4(%esp)
	movl	-12(%ebp), %eax
	movl	%eax, (%esp)
	call	_Subtruct_X_1W
	movl	%eax, -16(%ebp)
	.loc 4 270 16
	cmpl	$0, -16(%ebp)
	je	L56
	.loc 4 272 17
	movl	-32(%ebp), %eax
	movl	%eax, (%esp)
	call	_DeallocateNumber
	.loc 4 273 49
	cmpl	$-258, -16(%ebp)
	je	L57
	.loc 4 273 49 is_stmt 0 discriminator 1
	movl	-16(%ebp), %eax
	jmp	L62
L57:
	.loc 4 273 49 discriminator 2
	movl	$-2, %eax
	jmp	L62
L56:
	.loc 4 275 27 is_stmt 1
	movl	-36(%ebp), %edx
	.loc 4 275 45
	movl	-32(%ebp), %eax
	.loc 4 275 27
	movl	24(%eax), %eax
	movl	%edx, 4(%esp)
	movl	%eax, (%esp)
	call	_CheckBlockLight
	movl	%eax, -16(%ebp)
	.loc 4 275 16
	cmpl	$0, -16(%ebp)
	je	L59
	.loc 4 276 24
	movl	-16(%ebp), %eax
	jmp	L62
L59:
	.loc 4 277 13
	movl	-32(%ebp), %eax
	movl	%eax, (%esp)
	call	_CommitNumber
	.loc 4 278 19
	movl	-32(%ebp), %eax
	.loc 4 278 17
	movzbl	16(%eax), %eax
	andl	$2, %eax
	.loc 4 278 16
	testb	%al, %al
	je	L52
	.loc 4 280 17
	movl	-32(%ebp), %eax
	movl	%eax, (%esp)
	call	_DeallocateNumber
	.loc 4 281 20
	movl	$_number_zero, -32(%ebp)
L52:
LBE6:
	.loc 4 284 12
	movl	-32(%ebp), %edx
	movl	16(%ebp), %eax
	movl	%edx, (%eax)
L50:
	.loc 4 287 19
	movl	16(%ebp), %eax
	movl	(%eax), %eax
	movl	%eax, (%esp)
	call	_CheckNumber
	movl	%eax, -16(%ebp)
	.loc 4 287 8
	cmpl	$0, -16(%ebp)
	je	L61
	.loc 4 288 16
	movl	-16(%ebp), %eax
	jmp	L62
L61:
	.loc 4 290 12
	movl	$0, %eax
L62:
	.loc 4 291 1 discriminator 1
	leave
	.cfi_restore 5
	.cfi_def_cfa 4, 4
	ret	$12
	.cfi_endproc
LFE4281:
	.globl	_PMC_Subtruct_X_L@16
	.def	_PMC_Subtruct_X_L@16;	.scl	2;	.type	32;	.endef
_PMC_Subtruct_X_L@16:
LFB4282:
	.loc 4 294 1
	.cfi_startproc
	pushl	%ebp
	.cfi_def_cfa_offset 8
	.cfi_offset 5, -8
	movl	%esp, %ebp
	.cfi_def_cfa_register 5
	pushl	%esi
	pushl	%ebx
	subl	$96, %esp
	.cfi_offset 6, -12
	.cfi_offset 3, -16
	movl	12(%ebp), %eax
	movl	%eax, -80(%ebp)
	movl	16(%ebp), %eax
	movl	%eax, -76(%ebp)
	.loc 4 300 8
	cmpl	$0, 8(%ebp)
	jne	L64
	.loc 4 301 16
	movl	$-1, %eax
	jmp	L92
L64:
	.loc 4 302 8
	cmpl	$0, 20(%ebp)
	jne	L66
	.loc 4 303 16
	movl	$-1, %eax
	jmp	L92
L66:
	.loc 4 304 20
	movl	8(%ebp), %eax
	movl	%eax, -12(%ebp)
	.loc 4 306 19
	movl	-12(%ebp), %eax
	movl	%eax, (%esp)
	call	_CheckNumber
	movl	%eax, -16(%ebp)
	.loc 4 306 8
	cmpl	$0, -16(%ebp)
	je	L67
	.loc 4 307 16
	movl	-16(%ebp), %eax
	jmp	L92
L67:
	.loc 4 309 9
	movl	-12(%ebp), %eax
	movzbl	16(%eax), %eax
	andl	$2, %eax
	.loc 4 309 8
	testb	%al, %al
	je	L68
	.loc 4 313 12
	movl	-80(%ebp), %eax
	xorb	$0, %ah
	movl	%eax, -88(%ebp)
	movl	-76(%ebp), %eax
	xorb	$0, %ah
	movl	%eax, -84(%ebp)
	movl	-88(%ebp), %ecx
	movl	-84(%ebp), %ebx
	movl	%ebx, %eax
	orl	%ecx, %eax
	testl	%eax, %eax
	jne	L69
	.loc 4 318 16
	movl	20(%ebp), %eax
	movl	$_number_zero, (%eax)
	jmp	L70
L69:
	.loc 4 325 20
	movl	$-2, %eax
	jmp	L92
L68:
	.loc 4 332 12
	movl	-80(%ebp), %eax
	xorb	$0, %ah
	movl	%eax, %ebx
	movl	-76(%ebp), %eax
	xorb	$0, %ah
	movl	%eax, %esi
	movl	%esi, %eax
	orl	%ebx, %eax
	testl	%eax, %eax
	jne	L71
	.loc 4 337 27
	leal	-44(%ebp), %eax
	movl	%eax, 4(%esp)
	movl	-12(%ebp), %eax
	movl	%eax, (%esp)
	call	_DuplicateNumber
	movl	%eax, -16(%ebp)
	.loc 4 337 16
	cmpl	$0, -16(%ebp)
	je	L72
	.loc 4 338 24
	movl	-16(%ebp), %eax
	jmp	L92
L71:
LBB7:
	.loc 4 349 29
	movl	-12(%ebp), %eax
	movl	4(%eax), %eax
	movl	%eax, -20(%ebp)
	.loc 4 351 34
	leal	-48(%ebp), %eax
	movl	%eax, 8(%esp)
	movl	-80(%ebp), %eax
	movl	-76(%ebp), %edx
	movl	%eax, (%esp)
	movl	%edx, 4(%esp)
	call	__FROMDWORDTOWORD
	movl	%eax, -24(%ebp)
	.loc 4 352 26
	movl	-48(%ebp), %eax
	.loc 4 352 20
	testl	%eax, %eax
	jne	L73
LBB8:
	.loc 4 355 66
	movl	-24(%ebp), %eax
	movl	%eax, (%esp)
	call	__LZCNT_ALT_32
	.loc 4 355 33
	movl	$32, %edx
	subl	%eax, %edx
	movl	%edx, %eax
	movl	%eax, -28(%ebp)
	.loc 4 356 24
	movl	-20(%ebp), %eax
	cmpl	-28(%ebp), %eax
	jnb	L74
	.loc 4 359 32
	movl	$-2, %eax
	jmp	L92
L74:
	.loc 4 361 33
	movl	-20(%ebp), %eax
	movl	%eax, -32(%ebp)
	.loc 4 363 35
	leal	-52(%ebp), %eax
	movl	%eax, 8(%esp)
	movl	-32(%ebp), %eax
	movl	%eax, 4(%esp)
	leal	-44(%ebp), %eax
	movl	%eax, (%esp)
	call	_AllocateNumber
	movl	%eax, -16(%ebp)
	.loc 4 363 24
	cmpl	$0, -16(%ebp)
	je	L76
	.loc 4 364 32
	movl	-16(%ebp), %eax
	jmp	L92
L76:
	.loc 4 365 35
	movl	-44(%ebp), %eax
	movl	%eax, 8(%esp)
	movl	-24(%ebp), %eax
	movl	%eax, 4(%esp)
	movl	-12(%ebp), %eax
	movl	%eax, (%esp)
	call	_Subtruct_X_1W
	movl	%eax, -16(%ebp)
	.loc 4 365 24
	cmpl	$0, -16(%ebp)
	je	L77
	.loc 4 367 25
	movl	-44(%ebp), %eax
	movl	%eax, (%esp)
	call	_DeallocateNumber
	.loc 4 368 57
	cmpl	$-258, -16(%ebp)
	je	L78
	.loc 4 368 57 is_stmt 0 discriminator 1
	movl	-16(%ebp), %eax
	jmp	L92
L78:
	.loc 4 368 57 discriminator 2
	movl	$-2, %eax
	jmp	L92
L77:
	.loc 4 370 35 is_stmt 1
	movl	-52(%ebp), %edx
	.loc 4 370 53
	movl	-44(%ebp), %eax
	.loc 4 370 35
	movl	24(%eax), %eax
	movl	%edx, 4(%esp)
	movl	%eax, (%esp)
	call	_CheckBlockLight
	movl	%eax, -16(%ebp)
	.loc 4 370 24
	cmpl	$0, -16(%ebp)
	je	L90
	.loc 4 371 32
	movl	-16(%ebp), %eax
	jmp	L92
L73:
LBE8:
LBB9:
	.loc 4 376 63
	movl	-48(%ebp), %eax
	movl	%eax, (%esp)
	call	__LZCNT_ALT_32
	.loc 4 376 33
	movl	$64, %edx
	subl	%eax, %edx
	movl	%edx, %eax
	movl	%eax, -36(%ebp)
	.loc 4 377 24
	movl	-20(%ebp), %eax
	cmpl	-36(%ebp), %eax
	jnb	L83
	.loc 4 380 32
	movl	$-2, %eax
	jmp	L92
L83:
	.loc 4 382 33
	movl	-20(%ebp), %eax
	movl	%eax, -40(%ebp)
	.loc 4 384 35
	leal	-56(%ebp), %eax
	movl	%eax, 8(%esp)
	movl	-40(%ebp), %eax
	movl	%eax, 4(%esp)
	leal	-44(%ebp), %eax
	movl	%eax, (%esp)
	call	_AllocateNumber
	movl	%eax, -16(%ebp)
	.loc 4 384 24
	cmpl	$0, -16(%ebp)
	je	L85
	.loc 4 385 32
	movl	-16(%ebp), %eax
	jmp	L92
L85:
	.loc 4 386 35
	movl	-44(%ebp), %edx
	movl	-48(%ebp), %eax
	movl	%edx, 12(%esp)
	movl	-24(%ebp), %edx
	movl	%edx, 8(%esp)
	movl	%eax, 4(%esp)
	movl	-12(%ebp), %eax
	movl	%eax, (%esp)
	call	_Subtruct_X_2W
	movl	%eax, -16(%ebp)
	.loc 4 386 24
	cmpl	$0, -16(%ebp)
	je	L86
	.loc 4 388 25
	movl	-44(%ebp), %eax
	movl	%eax, (%esp)
	call	_DeallocateNumber
	.loc 4 389 57
	cmpl	$-258, -16(%ebp)
	je	L87
	.loc 4 389 57 is_stmt 0 discriminator 1
	movl	-16(%ebp), %eax
	jmp	L92
L87:
	.loc 4 389 57 discriminator 2
	movl	$-2, %eax
	jmp	L92
L86:
	.loc 4 391 35 is_stmt 1
	movl	-56(%ebp), %edx
	.loc 4 391 53
	movl	-44(%ebp), %eax
	.loc 4 391 35
	movl	24(%eax), %eax
	movl	%edx, 4(%esp)
	movl	%eax, (%esp)
	call	_CheckBlockLight
	movl	%eax, -16(%ebp)
	.loc 4 391 24
	cmpl	$0, -16(%ebp)
	je	L90
	.loc 4 392 32
	movl	-16(%ebp), %eax
	jmp	L92
L90:
LBE9:
LBE7:
	.loc 4 418 13
	movl	-44(%ebp), %eax
	movl	%eax, (%esp)
	call	_CommitNumber
	.loc 4 419 19
	movl	-44(%ebp), %eax
	.loc 4 419 17
	movzbl	16(%eax), %eax
	andl	$2, %eax
	.loc 4 419 16
	testb	%al, %al
	je	L72
	.loc 4 421 17
	movl	-44(%ebp), %eax
	movl	%eax, (%esp)
	call	_DeallocateNumber
	.loc 4 422 20
	movl	$_number_zero, -44(%ebp)
L72:
	.loc 4 425 12
	movl	-44(%ebp), %edx
	movl	20(%ebp), %eax
	movl	%edx, (%eax)
L70:
	.loc 4 428 19
	movl	20(%ebp), %eax
	movl	(%eax), %eax
	movl	%eax, (%esp)
	call	_CheckNumber
	movl	%eax, -16(%ebp)
	.loc 4 428 8
	cmpl	$0, -16(%ebp)
	je	L91
	.loc 4 429 16
	movl	-16(%ebp), %eax
	jmp	L92
L91:
	.loc 4 431 12
	movl	$0, %eax
L92:
	.loc 4 432 1 discriminator 5
	addl	$96, %esp
	popl	%ebx
	.cfi_restore 3
	popl	%esi
	.cfi_restore 6
	popl	%ebp
	.cfi_restore 5
	.cfi_def_cfa 4, 4
	ret	$16
	.cfi_endproc
LFE4282:
	.globl	_PMC_Subtruct_X_X@12
	.def	_PMC_Subtruct_X_X@12;	.scl	2;	.type	32;	.endef
_PMC_Subtruct_X_X@12:
LFB4283:
	.loc 4 435 1
	.cfi_startproc
	pushl	%ebp
	.cfi_def_cfa_offset 8
	.cfi_offset 5, -8
	movl	%esp, %ebp
	.cfi_def_cfa_register 5
	subl	$56, %esp
	.loc 4 436 8
	cmpl	$0, 8(%ebp)
	jne	L94
	.loc 4 437 16
	movl	$-1, %eax
	jmp	L113
L94:
	.loc 4 438 8
	cmpl	$0, 12(%ebp)
	jne	L96
	.loc 4 439 16
	movl	$-1, %eax
	jmp	L113
L96:
	.loc 4 440 8
	cmpl	$0, 16(%ebp)
	jne	L97
	.loc 4 441 16
	movl	$-1, %eax
	jmp	L113
L97:
	.loc 4 442 20
	movl	8(%ebp), %eax
	movl	%eax, -12(%ebp)
	.loc 4 443 20
	movl	12(%ebp), %eax
	movl	%eax, -16(%ebp)
	.loc 4 445 19
	movl	-12(%ebp), %eax
	movl	%eax, (%esp)
	call	_CheckNumber
	movl	%eax, -20(%ebp)
	.loc 4 445 8
	cmpl	$0, -20(%ebp)
	je	L98
	.loc 4 446 16
	movl	-20(%ebp), %eax
	jmp	L113
L98:
	.loc 4 447 19
	movl	-16(%ebp), %eax
	movl	%eax, (%esp)
	call	_CheckNumber
	movl	%eax, -20(%ebp)
	.loc 4 447 8
	cmpl	$0, -20(%ebp)
	je	L99
	.loc 4 448 16
	movl	-20(%ebp), %eax
	jmp	L113
L99:
	.loc 4 450 9
	movl	-12(%ebp), %eax
	movzbl	16(%eax), %eax
	andl	$2, %eax
	.loc 4 450 8
	testb	%al, %al
	je	L100
	.loc 4 452 13
	movl	-16(%ebp), %eax
	movzbl	16(%eax), %eax
	andl	$2, %eax
	.loc 4 452 12
	testb	%al, %al
	je	L101
	.loc 4 457 16
	movl	16(%ebp), %eax
	movl	$_number_zero, (%eax)
	jmp	L102
L101:
	.loc 4 464 20
	movl	$-2, %eax
	jmp	L113
L100:
	.loc 4 471 13
	movl	-16(%ebp), %eax
	movzbl	16(%eax), %eax
	andl	$2, %eax
	.loc 4 471 12
	testb	%al, %al
	je	L103
	.loc 4 476 27
	leal	-36(%ebp), %eax
	movl	%eax, 4(%esp)
	movl	-12(%ebp), %eax
	movl	%eax, (%esp)
	call	_DuplicateNumber
	movl	%eax, -20(%ebp)
	.loc 4 476 16
	cmpl	$0, -20(%ebp)
	je	L104
	.loc 4 477 24
	movl	-20(%ebp), %eax
	jmp	L113
L103:
LBB10:
	.loc 4 484 25
	movl	-12(%ebp), %eax
	movl	4(%eax), %eax
	movl	%eax, -24(%ebp)
	.loc 4 485 25
	movl	-16(%ebp), %eax
	movl	4(%eax), %eax
	movl	%eax, -28(%ebp)
	.loc 4 486 16
	movl	-24(%ebp), %eax
	cmpl	-28(%ebp), %eax
	jnb	L105
	.loc 4 489 24
	movl	$-2, %eax
	jmp	L113
L105:
	.loc 4 491 25
	movl	-24(%ebp), %eax
	movl	%eax, -32(%ebp)
	.loc 4 493 27
	leal	-40(%ebp), %eax
	movl	%eax, 8(%esp)
	movl	-32(%ebp), %eax
	movl	%eax, 4(%esp)
	leal	-36(%ebp), %eax
	movl	%eax, (%esp)
	call	_AllocateNumber
	movl	%eax, -20(%ebp)
	.loc 4 493 16
	cmpl	$0, -20(%ebp)
	je	L107
	.loc 4 494 24
	movl	-20(%ebp), %eax
	jmp	L113
L107:
	.loc 4 495 27
	movl	-36(%ebp), %eax
	movl	%eax, 8(%esp)
	movl	-16(%ebp), %eax
	movl	%eax, 4(%esp)
	movl	-12(%ebp), %eax
	movl	%eax, (%esp)
	call	_Subtruct_X_X
	movl	%eax, -20(%ebp)
	.loc 4 495 16
	cmpl	$0, -20(%ebp)
	je	L108
	.loc 4 497 17
	movl	-36(%ebp), %eax
	movl	%eax, (%esp)
	call	_DeallocateNumber
	.loc 4 498 49
	cmpl	$-258, -20(%ebp)
	je	L109
	.loc 4 498 49 is_stmt 0 discriminator 1
	movl	-20(%ebp), %eax
	jmp	L113
L109:
	.loc 4 498 49 discriminator 2
	movl	$-2, %eax
	jmp	L113
L108:
	.loc 4 500 27 is_stmt 1
	movl	-40(%ebp), %edx
	.loc 4 500 45
	movl	-36(%ebp), %eax
	.loc 4 500 27
	movl	24(%eax), %eax
	movl	%edx, 4(%esp)
	movl	%eax, (%esp)
	call	_CheckBlockLight
	movl	%eax, -20(%ebp)
	.loc 4 500 16
	cmpl	$0, -20(%ebp)
	je	L111
	.loc 4 501 24
	movl	-20(%ebp), %eax
	jmp	L113
L111:
	.loc 4 502 13
	movl	-36(%ebp), %eax
	movl	%eax, (%esp)
	call	_CommitNumber
L104:
LBE10:
	.loc 4 504 12
	movl	-36(%ebp), %edx
	movl	16(%ebp), %eax
	movl	%edx, (%eax)
L102:
	.loc 4 507 19
	movl	16(%ebp), %eax
	movl	(%eax), %eax
	movl	%eax, (%esp)
	call	_CheckNumber
	movl	%eax, -20(%ebp)
	.loc 4 507 8
	cmpl	$0, -20(%ebp)
	je	L112
	.loc 4 508 16
	movl	-20(%ebp), %eax
	jmp	L113
L112:
	.loc 4 510 12
	movl	$0, %eax
L113:
	.loc 4 511 1 discriminator 1
	leave
	.cfi_restore 5
	.cfi_def_cfa 4, 4
	ret	$12
	.cfi_endproc
LFE4283:
	.globl	_Initialize_Subtruct
	.def	_Initialize_Subtruct;	.scl	2;	.type	32;	.endef
_Initialize_Subtruct:
LFB4284:
	.loc 4 514 1
	.cfi_startproc
	.loc 4 515 12
	movl	$0, %eax
	.loc 4 516 1
	ret
	.cfi_endproc
LFE4284:
Letext0:
	.file 5 "C:/GNU/MINGW64/i686-8.1.0-win32-dwarf-rt_v6-rev0/mingw32/i686-w64-mingw32/include/crtdefs.h"
	.file 6 "C:/GNU/MINGW64/i686-8.1.0-win32-dwarf-rt_v6-rev0/mingw32/i686-w64-mingw32/include/excpt.h"
	.file 7 "C:/GNU/MINGW64/i686-8.1.0-win32-dwarf-rt_v6-rev0/mingw32/i686-w64-mingw32/include/minwindef.h"
	.file 8 "C:/GNU/MINGW64/i686-8.1.0-win32-dwarf-rt_v6-rev0/mingw32/i686-w64-mingw32/include/ctype.h"
	.file 9 "C:/GNU/MINGW64/i686-8.1.0-win32-dwarf-rt_v6-rev0/mingw32/i686-w64-mingw32/include/winnt.h"
	.file 10 "C:/GNU/MINGW64/i686-8.1.0-win32-dwarf-rt_v6-rev0/mingw32/i686-w64-mingw32/include/guiddef.h"
	.file 11 "C:/GNU/MINGW64/i686-8.1.0-win32-dwarf-rt_v6-rev0/mingw32/i686-w64-mingw32/include/rpcdce.h"
	.file 12 "C:/GNU/MINGW64/i686-8.1.0-win32-dwarf-rt_v6-rev0/mingw32/i686-w64-mingw32/include/stdlib.h"
	.file 13 "C:/GNU/MINGW64/i686-8.1.0-win32-dwarf-rt_v6-rev0/mingw32/i686-w64-mingw32/include/malloc.h"
	.file 14 "C:/GNU/MINGW64/i686-8.1.0-win32-dwarf-rt_v6-rev0/mingw32/i686-w64-mingw32/include/wtypesbase.h"
	.file 15 "C:/GNU/MINGW64/i686-8.1.0-win32-dwarf-rt_v6-rev0/mingw32/i686-w64-mingw32/include/unknwnbase.h"
	.file 16 "C:/GNU/MINGW64/i686-8.1.0-win32-dwarf-rt_v6-rev0/mingw32/i686-w64-mingw32/include/objidlbase.h"
	.file 17 "C:/GNU/MINGW64/i686-8.1.0-win32-dwarf-rt_v6-rev0/mingw32/i686-w64-mingw32/include/cguid.h"
	.file 18 "C:/GNU/MINGW64/i686-8.1.0-win32-dwarf-rt_v6-rev0/mingw32/i686-w64-mingw32/include/wtypes.h"
	.file 19 "C:/GNU/MINGW64/i686-8.1.0-win32-dwarf-rt_v6-rev0/mingw32/i686-w64-mingw32/include/objidl.h"
	.file 20 "C:/GNU/MINGW64/i686-8.1.0-win32-dwarf-rt_v6-rev0/mingw32/i686-w64-mingw32/include/oleidl.h"
	.file 21 "C:/GNU/MINGW64/i686-8.1.0-win32-dwarf-rt_v6-rev0/mingw32/i686-w64-mingw32/include/servprov.h"
	.file 22 "C:/GNU/MINGW64/i686-8.1.0-win32-dwarf-rt_v6-rev0/mingw32/i686-w64-mingw32/include/oaidl.h"
	.file 23 "C:/GNU/MINGW64/i686-8.1.0-win32-dwarf-rt_v6-rev0/mingw32/i686-w64-mingw32/include/msxml.h"
	.file 24 "C:/GNU/MINGW64/i686-8.1.0-win32-dwarf-rt_v6-rev0/mingw32/i686-w64-mingw32/include/urlmon.h"
	.file 25 "C:/GNU/MINGW64/i686-8.1.0-win32-dwarf-rt_v6-rev0/mingw32/i686-w64-mingw32/include/propidl.h"
	.file 26 "C:/GNU/MINGW64/i686-8.1.0-win32-dwarf-rt_v6-rev0/mingw32/i686-w64-mingw32/include/oleauto.h"
	.file 27 "C:/GNU/MINGW64/i686-8.1.0-win32-dwarf-rt_v6-rev0/mingw32/i686-w64-mingw32/include/winioctl.h"
	.file 28 "C:/GNU/MINGW64/i686-8.1.0-win32-dwarf-rt_v6-rev0/mingw32/i686-w64-mingw32/include/winsmcrd.h"
	.file 29 "C:/GNU/MINGW64/i686-8.1.0-win32-dwarf-rt_v6-rev0/mingw32/i686-w64-mingw32/include/winscard.h"
	.file 30 "C:/GNU/MINGW64/i686-8.1.0-win32-dwarf-rt_v6-rev0/mingw32/i686-w64-mingw32/include/commdlg.h"
	.file 31 "C:/GNU/MINGW64/i686-8.1.0-win32-dwarf-rt_v6-rev0/mingw32/i686-w64-mingw32/include/stdint.h"
	.file 32 "pmc.h"
	.file 33 "pmc_cpuid.h"