; Listing generated by Microsoft (R) Optimizing Compiler Version 19.16.27026.1 

	TITLE	Z:\Sources\Lunor\Repos\rougemeilland\Palmtree.Math.Core.Implements\Palmtree.Math.Core.Implements\nbproject\private\cpp_standard_headers_indexer.cpp
	.686P
	.XMM
	include listing.inc
	.model	flat

INCLUDELIB MSVCRTD
INCLUDELIB OLDNAMES

msvcjmc	SEGMENT
__A73354DD_stdlib@h DB 01H
__188180DA_corecrt_math@h DB 01H
__D23EE329_cstdlib DB 01H
__6BC0FD35_vcruntime_new@h DB 01H
__5ECFF36E_type_traits DB 01H
__331E732B_malloc@h DB 01H
__9BB4E194_vcruntime_exception@h DB 01H
__7949CB39_exception DB 01H
__C42C8B73_vcruntime_typeinfo@h DB 01H
__3736D25A_xtgmath@h DB 01H
__824D367B_cmath DB 01H
__2CC6E67D_corecrt_stdio_config@h DB 01H
__05476D76_corecrt_wstdio@h DB 01H
__A452D4A0_stdio@h DB 01H
__4384A2D9_corecrt_memcpy_s@h DB 01H
__2088847F_corecrt_memory@h DB 01H
__4E51A221_corecrt_wstring@h DB 01H
__2140C079_string@h DB 01H
__41381B41_corecrt_wconio@h DB 01H
__F0CC4AC4_corecrt_wio@h DB 01H
__C0802A2B_corecrt_wtime@h DB 01H
__A40A425D_stat@h DB 01H
__5A74375D_wchar@h DB 01H
__B2D003D7_limits DB 01H
__7E39D651_iosfwd DB 01H
__CDB00636_xutility DB 01H
__C334353D_xatomic0@h DB 01H
__1CE3C767_xmemory0 DB 01H
__F007F164_stdexcept DB 01H
__7B7A869E_ctype@h DB 01H
__A2E616E7_xlocinfo DB 01H
__0E7E0F59_memory DB 01H
__223B5856_xfacet DB 01H
__244BF7CC_xlocale DB 01H
__420D52D3_xcall_once@h DB 01H
__FD5040F3_system_error DB 01H
__9B0361F4_xiosbase DB 01H
__BACC91DB_xlocnum DB 01H
__D1FEDD45_ios DB 01H
__7AAD89C5_string DB 01H
__246E2F3A_tuple DB 01H
__5905A80E_functional DB 01H
__04AA828A_time@h DB 01H
__938589ED_algorithm DB 01H
__4576A284_complex DB 01H
__035EEDC7_valarray DB 01H
__A2C368DB_fstream DB 01H
__3B61EF3D_strstream DB 01H
__91AE84E3_xlocmon DB 01H
__06FBBFF5_xloctime DB 01H
__084700B0_xlocmes DB 01H
__D0767A1C_cpp_standard_headers_indexer@cpp DB 01H
__A593FDF4_locale DB 01H
__FB7583FD_xstring DB 01H
__548B1832_istream DB 01H
__375B2D08_ostream DB 01H
__F2A749D8_streambuf DB 01H
__E53366A2_utility DB 01H
__122CF1B0_xstddef DB 01H
msvcjmc	ENDS
PUBLIC	?__empty_global_delete@@YAXPAX@Z		; __empty_global_delete
PUBLIC	?__empty_global_delete@@YAXPAXI@Z		; __empty_global_delete
PUBLIC	_wmemcpy
PUBLIC	??$_Maklocstr@_W@std@@YAPA_WPBDPA_WABU_Cvtvec@@@Z ; std::_Maklocstr<wchar_t>
PUBLIC	?_Maklocwcs@std@@YAPA_WPB_W@Z			; std::_Maklocwcs
PUBLIC	??$_Getvals@_W@?$time_get@DV?$istreambuf_iterator@DU?$char_traits@D@std@@@std@@@std@@IAEX_WABV_Locinfo@1@@Z ; std::time_get<char,std::istreambuf_iterator<char,std::char_traits<char> > >::_Getvals<wchar_t>
PUBLIC	??$_Getvals@_W@?$time_get@_WV?$istreambuf_iterator@_WU?$char_traits@_W@std@@@std@@@std@@IAEX_WABV_Locinfo@1@@Z ; std::time_get<wchar_t,std::istreambuf_iterator<wchar_t,std::char_traits<wchar_t> > >::_Getvals<wchar_t>
PUBLIC	??$_Maklocstr@D@std@@YAPADPBDPADABU_Cvtvec@@@Z	; std::_Maklocstr<char>
PUBLIC	__JustMyCode_Default
PUBLIC	??_C@_0GI@LKBGDILM@c?3?2program?5files?5?$CIx86?$CJ?2microsof@ ; `string'
PUBLIC	??_C@_0GI@DJFLDKBN@c?3?2program?5files?5?$CIx86?$CJ?2microsof@ ; `string'
PUBLIC	??_C@_0N@LPFKKEBD@?3AM?3am?3PM?3pm@		; `string'
PUBLIC	??_C@_1BK@MHIKGOKE@?$AA?3?$AAA?$AAM?$AA?3?$AAa?$AAm?$AA?3?$AAP?$AAM?$AA?3?$AAp?$AAm@ ; `string'
EXTRN	__imp___calloc_dbg:PROC
EXTRN	_memcpy:PROC
EXTRN	__imp__wcslen:PROC
EXTRN	_strlen:PROC
EXTRN	?_Xbad_alloc@std@@YAXXZ:PROC			; std::_Xbad_alloc
EXTRN	__Mbrtowc:PROC
EXTRN	__imp_?_Getcvt@_Locinfo@std@@QBE?AU_Cvtvec@@XZ:PROC
EXTRN	__imp_?_Getdays@_Locinfo@std@@QBEPBDXZ:PROC
EXTRN	__imp_?_Getmonths@_Locinfo@std@@QBEPBDXZ:PROC
EXTRN	__imp_?_W_Getdays@_Locinfo@std@@QBEPBGXZ:PROC
EXTRN	__imp_?_W_Getmonths@_Locinfo@std@@QBEPBGXZ:PROC
EXTRN	@_RTC_CheckStackVars@8:PROC
EXTRN	@__CheckForDebuggerJustMyCode@4:PROC
EXTRN	@__security_check_cookie@4:PROC
EXTRN	__RTC_CheckEsp:PROC
EXTRN	__RTC_InitBase:PROC
EXTRN	__RTC_Shutdown:PROC
EXTRN	___security_cookie:DWORD
;	COMDAT rtc$TMZ
rtc$TMZ	SEGMENT
__RTC_Shutdown.rtc$TMZ DD FLAT:__RTC_Shutdown
rtc$TMZ	ENDS
;	COMDAT rtc$IMZ
rtc$IMZ	SEGMENT
__RTC_InitBase.rtc$IMZ DD FLAT:__RTC_InitBase
rtc$IMZ	ENDS
;	COMDAT ??_C@_1BK@MHIKGOKE@?$AA?3?$AAA?$AAM?$AA?3?$AAa?$AAm?$AA?3?$AAP?$AAM?$AA?3?$AAp?$AAm@
CONST	SEGMENT
??_C@_1BK@MHIKGOKE@?$AA?3?$AAA?$AAM?$AA?3?$AAa?$AAm?$AA?3?$AAP?$AAM?$AA?3?$AAp?$AAm@ DB ':'
	DB	00H, 'A', 00H, 'M', 00H, ':', 00H, 'a', 00H, 'm', 00H, ':', 00H
	DB	'P', 00H, 'M', 00H, ':', 00H, 'p', 00H, 'm', 00H, 00H, 00H ; `string'
CONST	ENDS
;	COMDAT ??_C@_0N@LPFKKEBD@?3AM?3am?3PM?3pm@
CONST	SEGMENT
??_C@_0N@LPFKKEBD@?3AM?3am?3PM?3pm@ DB ':AM:am:PM:pm', 00H ; `string'
CONST	ENDS
;	COMDAT ??_C@_0GI@DJFLDKBN@c?3?2program?5files?5?$CIx86?$CJ?2microsof@
CONST	SEGMENT
??_C@_0GI@DJFLDKBN@c?3?2program?5files?5?$CIx86?$CJ?2microsof@ DB 'c:\pro'
	DB	'gram files (x86)\microsoft visual studio\2017\community\vc\to'
	DB	'ols\msvc\14.16.27023\include\xlocnum', 00H	; `string'
CONST	ENDS
;	COMDAT ??_C@_0GI@LKBGDILM@c?3?2program?5files?5?$CIx86?$CJ?2microsof@
CONST	SEGMENT
??_C@_0GI@LKBGDILM@c?3?2program?5files?5?$CIx86?$CJ?2microsof@ DB 'c:\pro'
	DB	'gram files (x86)\microsoft visual studio\2017\community\vc\to'
	DB	'ols\msvc\14.16.27023\include\xlocale', 00H	; `string'
CONST	ENDS
; Function compile flags: /Odt
;	COMDAT __JustMyCode_Default
_TEXT	SEGMENT
__JustMyCode_Default PROC				; COMDAT
	push	ebp
	mov	ebp, esp
	pop	ebp
	ret	0
__JustMyCode_Default ENDP
_TEXT	ENDS
; Function compile flags: /Odtp /RTCsu
; File c:\program files (x86)\microsoft visual studio\2017\community\vc\tools\msvc\14.16.27023\include\xlocale
;	COMDAT ??$_Maklocstr@D@std@@YAPADPBDPADABU_Cvtvec@@@Z
_TEXT	SEGMENT
__Ptrnext$1 = -12					; size = 4
__Ptrdest$ = -8						; size = 4
__Count$ = -4						; size = 4
__Ptr$ = 8						; size = 4
___formal$ = 12						; size = 4
___formal$ = 16						; size = 4
??$_Maklocstr@D@std@@YAPADPBDPADABU_Cvtvec@@@Z PROC	; std::_Maklocstr<char>, COMDAT

; 664  : 	{	// convert C string to _Elem sequence using _Cvtvec

	push	ebp
	mov	ebp, esp
	sub	esp, 12					; 0000000cH
	push	esi
	mov	DWORD PTR [ebp-12], -858993460		; ccccccccH
	mov	DWORD PTR [ebp-8], -858993460		; ccccccccH
	mov	DWORD PTR [ebp-4], -858993460		; ccccccccH
	mov	ecx, OFFSET __244BF7CC_xlocale
	call	@__CheckForDebuggerJustMyCode@4

; 665  : 	size_t _Count = _CSTD strlen(_Ptr) + 1;

	mov	eax, DWORD PTR __Ptr$[ebp]
	push	eax
	call	_strlen
	add	esp, 4
	add	eax, 1
	mov	DWORD PTR __Count$[ebp], eax

; 666  : 
; 667  : 	_Elem *_Ptrdest = (_Elem *)_calloc_dbg(_Count, sizeof (_Elem),

	mov	esi, esp
	push	668					; 0000029cH
	push	OFFSET ??_C@_0GI@LKBGDILM@c?3?2program?5files?5?$CIx86?$CJ?2microsof@
	push	2
	push	1
	mov	ecx, DWORD PTR __Count$[ebp]
	push	ecx
	call	DWORD PTR __imp___calloc_dbg
	add	esp, 20					; 00000014H
	cmp	esi, esp
	call	__RTC_CheckEsp
	mov	DWORD PTR __Ptrdest$[ebp], eax

; 668  : 		_CRT_BLOCK, __FILE__, __LINE__);
; 669  : 
; 670  : 	if (!_Ptrdest)

	cmp	DWORD PTR __Ptrdest$[ebp], 0
	jne	SHORT $LN5@Maklocstr

; 671  : 		_Xbad_alloc();

	call	?_Xbad_alloc@std@@YAXXZ			; std::_Xbad_alloc
$LN5@Maklocstr:

; 672  : 
; 673  : 	for (_Elem *_Ptrnext = _Ptrdest; 0 < _Count; --_Count, ++_Ptrnext, ++_Ptr)

	mov	edx, DWORD PTR __Ptrdest$[ebp]
	mov	DWORD PTR __Ptrnext$1[ebp], edx
	jmp	SHORT $LN4@Maklocstr
$LN2@Maklocstr:
	mov	eax, DWORD PTR __Count$[ebp]
	sub	eax, 1
	mov	DWORD PTR __Count$[ebp], eax
	mov	ecx, DWORD PTR __Ptrnext$1[ebp]
	add	ecx, 1
	mov	DWORD PTR __Ptrnext$1[ebp], ecx
	mov	edx, DWORD PTR __Ptr$[ebp]
	add	edx, 1
	mov	DWORD PTR __Ptr$[ebp], edx
$LN4@Maklocstr:
	cmp	DWORD PTR __Count$[ebp], 0
	jbe	SHORT $LN3@Maklocstr

; 674  : 		*_Ptrnext = (_Elem)(unsigned char)*_Ptr;

	mov	eax, DWORD PTR __Ptrnext$1[ebp]
	mov	ecx, DWORD PTR __Ptr$[ebp]
	mov	dl, BYTE PTR [ecx]
	mov	BYTE PTR [eax], dl
	jmp	SHORT $LN2@Maklocstr
$LN3@Maklocstr:

; 675  : 
; 676  : 	return (_Ptrdest);

	mov	eax, DWORD PTR __Ptrdest$[ebp]
$LN6@Maklocstr:

; 677  : 	}

	pop	esi
	add	esp, 12					; 0000000cH
	cmp	ebp, esp
	call	__RTC_CheckEsp
	mov	esp, ebp
	pop	ebp
	ret	0
??$_Maklocstr@D@std@@YAPADPBDPADABU_Cvtvec@@@Z ENDP	; std::_Maklocstr<char>
_TEXT	ENDS
; Function compile flags: /Odtp /RTCsu
; File c:\program files (x86)\microsoft visual studio\2017\community\vc\tools\msvc\14.16.27023\include\xloctime
;	COMDAT ??$_Getvals@_W@?$time_get@_WV?$istreambuf_iterator@_WU?$char_traits@_W@std@@@std@@@std@@IAEX_WABV_Locinfo@1@@Z
_TEXT	SEGMENT
$T1 = -52						; size = 44
_this$ = -8						; size = 4
__$ArrayPad$ = -4					; size = 4
___formal$ = 8						; size = 2
__Lobj$ = 12						; size = 4
??$_Getvals@_W@?$time_get@_WV?$istreambuf_iterator@_WU?$char_traits@_W@std@@@std@@@std@@IAEX_WABV_Locinfo@1@@Z PROC ; std::time_get<wchar_t,std::istreambuf_iterator<wchar_t,std::char_traits<wchar_t> > >::_Getvals<wchar_t>, COMDAT
; _this$ = ecx

; 216  : 		{	// get values

	push	ebp
	mov	ebp, esp
	sub	esp, 52					; 00000034H
	push	esi
	push	edi
	push	ecx
	lea	edi, DWORD PTR [ebp-52]
	mov	ecx, 13					; 0000000dH
	mov	eax, -858993460				; ccccccccH
	rep stosd
	pop	ecx
	mov	eax, DWORD PTR ___security_cookie
	xor	eax, ebp
	mov	DWORD PTR __$ArrayPad$[ebp], eax
	mov	DWORD PTR _this$[ebp], ecx
	mov	ecx, OFFSET __06FBBFF5_xloctime
	call	@__CheckForDebuggerJustMyCode@4

; 217  : 		_Cvt = _Lobj._Getcvt();

	mov	esi, esp
	lea	eax, DWORD PTR $T1[ebp]
	push	eax
	mov	ecx, DWORD PTR __Lobj$[ebp]
	call	DWORD PTR __imp_?_Getcvt@_Locinfo@std@@QBE?AU_Cvtvec@@XZ
	cmp	esi, esp
	call	__RTC_CheckEsp
	mov	edi, DWORD PTR _this$[ebp]
	add	edi, 24					; 00000018H
	mov	ecx, 11					; 0000000bH
	mov	esi, eax
	rep movsd

; 218  : 
; 219  : 		if (is_same_v<_Elem2, wchar_t>)

	mov	ecx, 1
	test	ecx, ecx
	je	SHORT $LN2@Getvals

; 220  : 			{
; 221  : 			_Days = (const _Elem *)_Maklocwcs((const wchar_t *)_Lobj._W_Getdays());

	mov	esi, esp
	mov	ecx, DWORD PTR __Lobj$[ebp]
	call	DWORD PTR __imp_?_W_Getdays@_Locinfo@std@@QBEPBGXZ
	cmp	esi, esp
	call	__RTC_CheckEsp
	push	eax
	call	?_Maklocwcs@std@@YAPA_WPB_W@Z		; std::_Maklocwcs
	add	esp, 4
	mov	edx, DWORD PTR _this$[ebp]
	mov	DWORD PTR [edx+8], eax

; 222  : 			_Months = (const _Elem *)_Maklocwcs((const wchar_t *)_Lobj._W_Getmonths());

	mov	esi, esp
	mov	ecx, DWORD PTR __Lobj$[ebp]
	call	DWORD PTR __imp_?_W_Getmonths@_Locinfo@std@@QBEPBGXZ
	cmp	esi, esp
	call	__RTC_CheckEsp
	push	eax
	call	?_Maklocwcs@std@@YAPA_WPB_W@Z		; std::_Maklocwcs
	add	esp, 4
	mov	ecx, DWORD PTR _this$[ebp]
	mov	DWORD PTR [ecx+12], eax

; 223  : 			_Ampm = (const _Elem *)_Maklocwcs(L":AM:am:PM:pm");

	push	OFFSET ??_C@_1BK@MHIKGOKE@?$AA?3?$AAA?$AAM?$AA?3?$AAa?$AAm?$AA?3?$AAP?$AAM?$AA?3?$AAp?$AAm@
	call	?_Maklocwcs@std@@YAPA_WPB_W@Z		; std::_Maklocwcs
	add	esp, 4
	mov	edx, DWORD PTR _this$[ebp]
	mov	DWORD PTR [edx+16], eax

; 224  : 			}
; 225  : 		else

	jmp	SHORT $LN1@Getvals
$LN2@Getvals:

; 226  : 			{
; 227  : 			_Days = _Maklocstr(_Lobj._Getdays(), static_cast<_Elem *>(nullptr), _Cvt);

	mov	eax, DWORD PTR _this$[ebp]
	add	eax, 24					; 00000018H
	push	eax
	push	0
	mov	esi, esp
	mov	ecx, DWORD PTR __Lobj$[ebp]
	call	DWORD PTR __imp_?_Getdays@_Locinfo@std@@QBEPBDXZ
	cmp	esi, esp
	call	__RTC_CheckEsp
	push	eax
	call	??$_Maklocstr@_W@std@@YAPA_WPBDPA_WABU_Cvtvec@@@Z ; std::_Maklocstr<wchar_t>
	add	esp, 12					; 0000000cH
	mov	ecx, DWORD PTR _this$[ebp]
	mov	DWORD PTR [ecx+8], eax

; 228  : 			_Months = _Maklocstr(_Lobj._Getmonths(), static_cast<_Elem *>(nullptr), _Cvt);

	mov	edx, DWORD PTR _this$[ebp]
	add	edx, 24					; 00000018H
	push	edx
	push	0
	mov	esi, esp
	mov	ecx, DWORD PTR __Lobj$[ebp]
	call	DWORD PTR __imp_?_Getmonths@_Locinfo@std@@QBEPBDXZ
	cmp	esi, esp
	call	__RTC_CheckEsp
	push	eax
	call	??$_Maklocstr@_W@std@@YAPA_WPBDPA_WABU_Cvtvec@@@Z ; std::_Maklocstr<wchar_t>
	add	esp, 12					; 0000000cH
	mov	ecx, DWORD PTR _this$[ebp]
	mov	DWORD PTR [ecx+12], eax

; 229  : 			_Ampm = _Maklocstr(":AM:am:PM:pm", static_cast<_Elem *>(nullptr), _Cvt);

	mov	edx, DWORD PTR _this$[ebp]
	add	edx, 24					; 00000018H
	push	edx
	push	0
	push	OFFSET ??_C@_0N@LPFKKEBD@?3AM?3am?3PM?3pm@
	call	??$_Maklocstr@_W@std@@YAPA_WPBDPA_WABU_Cvtvec@@@Z ; std::_Maklocstr<wchar_t>
	add	esp, 12					; 0000000cH
	mov	ecx, DWORD PTR _this$[ebp]
	mov	DWORD PTR [ecx+16], eax
$LN1@Getvals:

; 230  : 			}
; 231  : 		}

	pop	edi
	pop	esi
	mov	ecx, DWORD PTR __$ArrayPad$[ebp]
	xor	ecx, ebp
	call	@__security_check_cookie@4
	add	esp, 52					; 00000034H
	cmp	ebp, esp
	call	__RTC_CheckEsp
	mov	esp, ebp
	pop	ebp
	ret	8
??$_Getvals@_W@?$time_get@_WV?$istreambuf_iterator@_WU?$char_traits@_W@std@@@std@@@std@@IAEX_WABV_Locinfo@1@@Z ENDP ; std::time_get<wchar_t,std::istreambuf_iterator<wchar_t,std::char_traits<wchar_t> > >::_Getvals<wchar_t>
_TEXT	ENDS
; Function compile flags: /Odtp /RTCsu
; File c:\program files (x86)\microsoft visual studio\2017\community\vc\tools\msvc\14.16.27023\include\xloctime
;	COMDAT ??$_Getvals@_W@?$time_get@DV?$istreambuf_iterator@DU?$char_traits@D@std@@@std@@@std@@IAEX_WABV_Locinfo@1@@Z
_TEXT	SEGMENT
$T1 = -52						; size = 44
_this$ = -8						; size = 4
__$ArrayPad$ = -4					; size = 4
___formal$ = 8						; size = 2
__Lobj$ = 12						; size = 4
??$_Getvals@_W@?$time_get@DV?$istreambuf_iterator@DU?$char_traits@D@std@@@std@@@std@@IAEX_WABV_Locinfo@1@@Z PROC ; std::time_get<char,std::istreambuf_iterator<char,std::char_traits<char> > >::_Getvals<wchar_t>, COMDAT
; _this$ = ecx

; 216  : 		{	// get values

	push	ebp
	mov	ebp, esp
	sub	esp, 52					; 00000034H
	push	esi
	push	edi
	push	ecx
	lea	edi, DWORD PTR [ebp-52]
	mov	ecx, 13					; 0000000dH
	mov	eax, -858993460				; ccccccccH
	rep stosd
	pop	ecx
	mov	eax, DWORD PTR ___security_cookie
	xor	eax, ebp
	mov	DWORD PTR __$ArrayPad$[ebp], eax
	mov	DWORD PTR _this$[ebp], ecx
	mov	ecx, OFFSET __06FBBFF5_xloctime
	call	@__CheckForDebuggerJustMyCode@4

; 217  : 		_Cvt = _Lobj._Getcvt();

	mov	esi, esp
	lea	eax, DWORD PTR $T1[ebp]
	push	eax
	mov	ecx, DWORD PTR __Lobj$[ebp]
	call	DWORD PTR __imp_?_Getcvt@_Locinfo@std@@QBE?AU_Cvtvec@@XZ
	cmp	esi, esp
	call	__RTC_CheckEsp
	mov	edi, DWORD PTR _this$[ebp]
	add	edi, 24					; 00000018H
	mov	ecx, 11					; 0000000bH
	mov	esi, eax
	rep movsd

; 218  : 
; 219  : 		if (is_same_v<_Elem2, wchar_t>)

	mov	ecx, 1
	test	ecx, ecx
	je	SHORT $LN2@Getvals

; 220  : 			{
; 221  : 			_Days = (const _Elem *)_Maklocwcs((const wchar_t *)_Lobj._W_Getdays());

	mov	esi, esp
	mov	ecx, DWORD PTR __Lobj$[ebp]
	call	DWORD PTR __imp_?_W_Getdays@_Locinfo@std@@QBEPBGXZ
	cmp	esi, esp
	call	__RTC_CheckEsp
	push	eax
	call	?_Maklocwcs@std@@YAPA_WPB_W@Z		; std::_Maklocwcs
	add	esp, 4
	mov	edx, DWORD PTR _this$[ebp]
	mov	DWORD PTR [edx+8], eax

; 222  : 			_Months = (const _Elem *)_Maklocwcs((const wchar_t *)_Lobj._W_Getmonths());

	mov	esi, esp
	mov	ecx, DWORD PTR __Lobj$[ebp]
	call	DWORD PTR __imp_?_W_Getmonths@_Locinfo@std@@QBEPBGXZ
	cmp	esi, esp
	call	__RTC_CheckEsp
	push	eax
	call	?_Maklocwcs@std@@YAPA_WPB_W@Z		; std::_Maklocwcs
	add	esp, 4
	mov	ecx, DWORD PTR _this$[ebp]
	mov	DWORD PTR [ecx+12], eax

; 223  : 			_Ampm = (const _Elem *)_Maklocwcs(L":AM:am:PM:pm");

	push	OFFSET ??_C@_1BK@MHIKGOKE@?$AA?3?$AAA?$AAM?$AA?3?$AAa?$AAm?$AA?3?$AAP?$AAM?$AA?3?$AAp?$AAm@
	call	?_Maklocwcs@std@@YAPA_WPB_W@Z		; std::_Maklocwcs
	add	esp, 4
	mov	edx, DWORD PTR _this$[ebp]
	mov	DWORD PTR [edx+16], eax

; 224  : 			}
; 225  : 		else

	jmp	SHORT $LN1@Getvals
$LN2@Getvals:

; 226  : 			{
; 227  : 			_Days = _Maklocstr(_Lobj._Getdays(), static_cast<_Elem *>(nullptr), _Cvt);

	mov	eax, DWORD PTR _this$[ebp]
	add	eax, 24					; 00000018H
	push	eax
	push	0
	mov	esi, esp
	mov	ecx, DWORD PTR __Lobj$[ebp]
	call	DWORD PTR __imp_?_Getdays@_Locinfo@std@@QBEPBDXZ
	cmp	esi, esp
	call	__RTC_CheckEsp
	push	eax
	call	??$_Maklocstr@D@std@@YAPADPBDPADABU_Cvtvec@@@Z ; std::_Maklocstr<char>
	add	esp, 12					; 0000000cH
	mov	ecx, DWORD PTR _this$[ebp]
	mov	DWORD PTR [ecx+8], eax

; 228  : 			_Months = _Maklocstr(_Lobj._Getmonths(), static_cast<_Elem *>(nullptr), _Cvt);

	mov	edx, DWORD PTR _this$[ebp]
	add	edx, 24					; 00000018H
	push	edx
	push	0
	mov	esi, esp
	mov	ecx, DWORD PTR __Lobj$[ebp]
	call	DWORD PTR __imp_?_Getmonths@_Locinfo@std@@QBEPBDXZ
	cmp	esi, esp
	call	__RTC_CheckEsp
	push	eax
	call	??$_Maklocstr@D@std@@YAPADPBDPADABU_Cvtvec@@@Z ; std::_Maklocstr<char>
	add	esp, 12					; 0000000cH
	mov	ecx, DWORD PTR _this$[ebp]
	mov	DWORD PTR [ecx+12], eax

; 229  : 			_Ampm = _Maklocstr(":AM:am:PM:pm", static_cast<_Elem *>(nullptr), _Cvt);

	mov	edx, DWORD PTR _this$[ebp]
	add	edx, 24					; 00000018H
	push	edx
	push	0
	push	OFFSET ??_C@_0N@LPFKKEBD@?3AM?3am?3PM?3pm@
	call	??$_Maklocstr@D@std@@YAPADPBDPADABU_Cvtvec@@@Z ; std::_Maklocstr<char>
	add	esp, 12					; 0000000cH
	mov	ecx, DWORD PTR _this$[ebp]
	mov	DWORD PTR [ecx+16], eax
$LN1@Getvals:

; 230  : 			}
; 231  : 		}

	pop	edi
	pop	esi
	mov	ecx, DWORD PTR __$ArrayPad$[ebp]
	xor	ecx, ebp
	call	@__security_check_cookie@4
	add	esp, 52					; 00000034H
	cmp	ebp, esp
	call	__RTC_CheckEsp
	mov	esp, ebp
	pop	ebp
	ret	8
??$_Getvals@_W@?$time_get@DV?$istreambuf_iterator@DU?$char_traits@D@std@@@std@@@std@@IAEX_WABV_Locinfo@1@@Z ENDP ; std::time_get<char,std::istreambuf_iterator<char,std::char_traits<char> > >::_Getvals<wchar_t>
_TEXT	ENDS
; Function compile flags: /Odtp /RTCsu
; File c:\program files (x86)\microsoft visual studio\2017\community\vc\tools\msvc\14.16.27023\include\xlocnum
;	COMDAT ?_Maklocwcs@std@@YAPA_WPB_W@Z
_TEXT	SEGMENT
__Ptrdest$ = -8						; size = 4
__Count$ = -4						; size = 4
__Ptr$ = 8						; size = 4
?_Maklocwcs@std@@YAPA_WPB_W@Z PROC			; std::_Maklocwcs, COMDAT

; 97   : 	{	// copy NTWCS to allocated storage

	push	ebp
	mov	ebp, esp
	sub	esp, 8
	push	esi
	mov	DWORD PTR [ebp-8], -858993460		; ccccccccH
	mov	DWORD PTR [ebp-4], -858993460		; ccccccccH
	mov	ecx, OFFSET __BACC91DB_xlocnum
	call	@__CheckForDebuggerJustMyCode@4

; 98   : 	const size_t _Count = _CSTD wcslen(_Ptr) + 1;

	mov	esi, esp
	mov	eax, DWORD PTR __Ptr$[ebp]
	push	eax
	call	DWORD PTR __imp__wcslen
	add	esp, 4
	cmp	esi, esp
	call	__RTC_CheckEsp
	add	eax, 1
	mov	DWORD PTR __Count$[ebp], eax

; 99   : 
; 100  : 	wchar_t *_Ptrdest = (wchar_t *)_calloc_dbg(_Count, sizeof (wchar_t),

	mov	esi, esp
	push	101					; 00000065H
	push	OFFSET ??_C@_0GI@DJFLDKBN@c?3?2program?5files?5?$CIx86?$CJ?2microsof@
	push	2
	push	2
	mov	ecx, DWORD PTR __Count$[ebp]
	push	ecx
	call	DWORD PTR __imp___calloc_dbg
	add	esp, 20					; 00000014H
	cmp	esi, esp
	call	__RTC_CheckEsp
	mov	DWORD PTR __Ptrdest$[ebp], eax

; 101  : 		_CRT_BLOCK, __FILE__, __LINE__);
; 102  : 
; 103  : 	if (!_Ptrdest)

	cmp	DWORD PTR __Ptrdest$[ebp], 0
	jne	SHORT $LN2@Maklocwcs

; 104  : 		_Xbad_alloc();

	call	?_Xbad_alloc@std@@YAXXZ			; std::_Xbad_alloc
$LN2@Maklocwcs:

; 105  : 	_CSTD wmemcpy(_Ptrdest, _Ptr, _Count);

	mov	edx, DWORD PTR __Count$[ebp]
	push	edx
	mov	eax, DWORD PTR __Ptr$[ebp]
	push	eax
	mov	ecx, DWORD PTR __Ptrdest$[ebp]
	push	ecx
	call	_wmemcpy
	add	esp, 12					; 0000000cH

; 106  : 	return (_Ptrdest);

	mov	eax, DWORD PTR __Ptrdest$[ebp]
$LN3@Maklocwcs:

; 107  : 	}

	pop	esi
	add	esp, 8
	cmp	ebp, esp
	call	__RTC_CheckEsp
	mov	esp, ebp
	pop	ebp
	ret	0
?_Maklocwcs@std@@YAPA_WPB_W@Z ENDP			; std::_Maklocwcs
_TEXT	ENDS
; Function compile flags: /Odtp /RTCsu
; File c:\program files (x86)\microsoft visual studio\2017\community\vc\tools\msvc\14.16.27023\include\xlocale
;	COMDAT ??$_Maklocstr@_W@std@@YAPA_WPBDPA_WABU_Cvtvec@@@Z
_TEXT	SEGMENT
__Mbst2$ = -68						; size = 8
__Ptrnext$ = -56					; size = 4
__Ptrdest$ = -52					; size = 4
__Mbst1$ = -44						; size = 8
__Wc$ = -28						; size = 2
__Bytes$ = -20						; size = 4
__Ptr1$ = -16						; size = 4
__Wchars$ = -12						; size = 4
__Count1$ = -8						; size = 4
__Count$ = -4						; size = 4
__Ptr$ = 8						; size = 4
___formal$ = 12						; size = 4
__Cvt$ = 16						; size = 4
??$_Maklocstr@_W@std@@YAPA_WPBDPA_WABU_Cvtvec@@@Z PROC	; std::_Maklocstr<wchar_t>, COMDAT

; 682  : 	{	// convert C string to wchar_t sequence using _Cvtvec

	push	ebp
	mov	ebp, esp
	sub	esp, 72					; 00000048H
	push	esi
	push	edi
	lea	edi, DWORD PTR [ebp-72]
	mov	ecx, 18					; 00000012H
	mov	eax, -858993460				; ccccccccH
	rep stosd
	mov	ecx, OFFSET __244BF7CC_xlocale
	call	@__CheckForDebuggerJustMyCode@4

; 683  : 	size_t _Count, _Count1;
; 684  : 	size_t _Wchars;
; 685  : 	const char *_Ptr1;
; 686  : 	int _Bytes;
; 687  : 	wchar_t _Wc;
; 688  : 	mbstate_t _Mbst1 = {};

	xor	eax, eax
	mov	DWORD PTR __Mbst1$[ebp], eax
	mov	DWORD PTR __Mbst1$[ebp+4], eax

; 689  : 
; 690  : 	_Count1 = _CSTD strlen(_Ptr) + 1;

	mov	ecx, DWORD PTR __Ptr$[ebp]
	push	ecx
	call	_strlen
	add	esp, 4
	add	eax, 1
	mov	DWORD PTR __Count1$[ebp], eax

; 691  : 	for (_Count = _Count1, _Wchars = 0, _Ptr1 = _Ptr; 0 < _Count;

	mov	edx, DWORD PTR __Count1$[ebp]
	mov	DWORD PTR __Count$[ebp], edx
	mov	DWORD PTR __Wchars$[ebp], 0
	mov	eax, DWORD PTR __Ptr$[ebp]
	mov	DWORD PTR __Ptr1$[ebp], eax
	jmp	SHORT $LN4@Maklocstr
$LN2@Maklocstr:

; 692  : 		_Count -= _Bytes, _Ptr1 += _Bytes, ++_Wchars)

	mov	ecx, DWORD PTR __Count$[ebp]
	sub	ecx, DWORD PTR __Bytes$[ebp]
	mov	DWORD PTR __Count$[ebp], ecx
	mov	edx, DWORD PTR __Ptr1$[ebp]
	add	edx, DWORD PTR __Bytes$[ebp]
	mov	DWORD PTR __Ptr1$[ebp], edx
	mov	eax, DWORD PTR __Wchars$[ebp]
	add	eax, 1
	mov	DWORD PTR __Wchars$[ebp], eax
$LN4@Maklocstr:

; 691  : 	for (_Count = _Count1, _Wchars = 0, _Ptr1 = _Ptr; 0 < _Count;

	cmp	DWORD PTR __Count$[ebp], 0
	jbe	SHORT $LN3@Maklocstr

; 693  : 		if ((_Bytes = _Mbrtowc(&_Wc, _Ptr1, _Count, &_Mbst1, &_Cvt)) <= 0)

	mov	ecx, DWORD PTR __Cvt$[ebp]
	push	ecx
	lea	edx, DWORD PTR __Mbst1$[ebp]
	push	edx
	mov	eax, DWORD PTR __Count$[ebp]
	push	eax
	mov	ecx, DWORD PTR __Ptr1$[ebp]
	push	ecx
	lea	edx, DWORD PTR __Wc$[ebp]
	push	edx
	call	__Mbrtowc
	add	esp, 20					; 00000014H
	mov	DWORD PTR __Bytes$[ebp], eax
	cmp	DWORD PTR __Bytes$[ebp], 0
	jg	SHORT $LN8@Maklocstr

; 694  : 			break;

	jmp	SHORT $LN3@Maklocstr
$LN8@Maklocstr:

; 695  : 	++_Wchars;	// count terminating nul

	jmp	SHORT $LN2@Maklocstr
$LN3@Maklocstr:
	mov	eax, DWORD PTR __Wchars$[ebp]
	add	eax, 1
	mov	DWORD PTR __Wchars$[ebp], eax

; 696  : 
; 697  : 	wchar_t *_Ptrdest = (wchar_t *)_calloc_dbg(_Wchars, sizeof (wchar_t),

	mov	esi, esp
	push	698					; 000002baH
	push	OFFSET ??_C@_0GI@LKBGDILM@c?3?2program?5files?5?$CIx86?$CJ?2microsof@
	push	2
	push	2
	mov	ecx, DWORD PTR __Wchars$[ebp]
	push	ecx
	call	DWORD PTR __imp___calloc_dbg
	add	esp, 20					; 00000014H
	cmp	esi, esp
	call	__RTC_CheckEsp
	mov	DWORD PTR __Ptrdest$[ebp], eax

; 698  : 		_CRT_BLOCK, __FILE__, __LINE__);
; 699  : 
; 700  : 	if (!_Ptrdest)

	cmp	DWORD PTR __Ptrdest$[ebp], 0
	jne	SHORT $LN9@Maklocstr

; 701  : 		_Xbad_alloc();

	call	?_Xbad_alloc@std@@YAXXZ			; std::_Xbad_alloc
$LN9@Maklocstr:

; 702  : 	wchar_t *_Ptrnext = _Ptrdest;

	mov	edx, DWORD PTR __Ptrdest$[ebp]
	mov	DWORD PTR __Ptrnext$[ebp], edx

; 703  : 	mbstate_t _Mbst2 = {};

	xor	eax, eax
	mov	DWORD PTR __Mbst2$[ebp], eax
	mov	DWORD PTR __Mbst2$[ebp+4], eax

; 704  : 
; 705  : 	for (; 0 < _Wchars;

	jmp	SHORT $LN7@Maklocstr
$LN5@Maklocstr:

; 706  : 		_Count -= _Bytes, _Ptr += _Bytes, --_Wchars, ++_Ptrnext)

	mov	ecx, DWORD PTR __Count$[ebp]
	sub	ecx, DWORD PTR __Bytes$[ebp]
	mov	DWORD PTR __Count$[ebp], ecx
	mov	edx, DWORD PTR __Ptr$[ebp]
	add	edx, DWORD PTR __Bytes$[ebp]
	mov	DWORD PTR __Ptr$[ebp], edx
	mov	eax, DWORD PTR __Wchars$[ebp]
	sub	eax, 1
	mov	DWORD PTR __Wchars$[ebp], eax
	mov	ecx, DWORD PTR __Ptrnext$[ebp]
	add	ecx, 2
	mov	DWORD PTR __Ptrnext$[ebp], ecx
$LN7@Maklocstr:

; 704  : 
; 705  : 	for (; 0 < _Wchars;

	cmp	DWORD PTR __Wchars$[ebp], 0
	jbe	SHORT $LN6@Maklocstr

; 707  : 		if ((_Bytes = _Mbrtowc(_Ptrnext, _Ptr, _Count1, &_Mbst2, &_Cvt)) <= 0)

	mov	edx, DWORD PTR __Cvt$[ebp]
	push	edx
	lea	eax, DWORD PTR __Mbst2$[ebp]
	push	eax
	mov	ecx, DWORD PTR __Count1$[ebp]
	push	ecx
	mov	edx, DWORD PTR __Ptr$[ebp]
	push	edx
	mov	eax, DWORD PTR __Ptrnext$[ebp]
	push	eax
	call	__Mbrtowc
	add	esp, 20					; 00000014H
	mov	DWORD PTR __Bytes$[ebp], eax
	cmp	DWORD PTR __Bytes$[ebp], 0
	jg	SHORT $LN10@Maklocstr

; 708  : 			break;

	jmp	SHORT $LN6@Maklocstr
$LN10@Maklocstr:

; 709  : 	*_Ptrnext = L'\0';

	jmp	SHORT $LN5@Maklocstr
$LN6@Maklocstr:
	xor	ecx, ecx
	mov	edx, DWORD PTR __Ptrnext$[ebp]
	mov	WORD PTR [edx], cx

; 710  : 
; 711  : 	return (_Ptrdest);

	mov	eax, DWORD PTR __Ptrdest$[ebp]
$LN11@Maklocstr:

; 712  : 	}

	push	edx
	mov	ecx, ebp
	push	eax
	lea	edx, DWORD PTR $LN16@Maklocstr
	call	@_RTC_CheckStackVars@8
	pop	eax
	pop	edx
	pop	edi
	pop	esi
	add	esp, 72					; 00000048H
	cmp	ebp, esp
	call	__RTC_CheckEsp
	mov	esp, ebp
	pop	ebp
	ret	0
$LN16@Maklocstr:
	DD	3
	DD	$LN15@Maklocstr
$LN15@Maklocstr:
	DD	-28					; ffffffe4H
	DD	2
	DD	$LN12@Maklocstr
	DD	-44					; ffffffd4H
	DD	8
	DD	$LN13@Maklocstr
	DD	-68					; ffffffbcH
	DD	8
	DD	$LN14@Maklocstr
$LN14@Maklocstr:
	DB	95					; 0000005fH
	DB	77					; 0000004dH
	DB	98					; 00000062H
	DB	115					; 00000073H
	DB	116					; 00000074H
	DB	50					; 00000032H
	DB	0
$LN13@Maklocstr:
	DB	95					; 0000005fH
	DB	77					; 0000004dH
	DB	98					; 00000062H
	DB	115					; 00000073H
	DB	116					; 00000074H
	DB	49					; 00000031H
	DB	0
$LN12@Maklocstr:
	DB	95					; 0000005fH
	DB	87					; 00000057H
	DB	99					; 00000063H
	DB	0
??$_Maklocstr@_W@std@@YAPA_WPBDPA_WABU_Cvtvec@@@Z ENDP	; std::_Maklocstr<wchar_t>
_TEXT	ENDS
; Function compile flags: /Odtp /RTCsu
; File c:\program files (x86)\windows kits\10\include\10.0.17763.0\ucrt\wchar.h
;	COMDAT _wmemcpy
_TEXT	SEGMENT
__S1$ = 8						; size = 4
__S2$ = 12						; size = 4
__N$ = 16						; size = 4
_wmemcpy PROC						; COMDAT

; 230  :     {

	push	ebp
	mov	ebp, esp
	mov	ecx, OFFSET __5A74375D_wchar@h
	call	@__CheckForDebuggerJustMyCode@4

; 231  :         #pragma warning(push)
; 232  :         #pragma warning(disable : 4995 4996 6386)
; 233  :         return (wchar_t*)memcpy(_S1, _S2, _N*sizeof(wchar_t));

	mov	eax, DWORD PTR __N$[ebp]
	shl	eax, 1
	push	eax
	mov	ecx, DWORD PTR __S2$[ebp]
	push	ecx
	mov	edx, DWORD PTR __S1$[ebp]
	push	edx
	call	_memcpy
	add	esp, 12					; 0000000cH

; 234  :         #pragma warning(pop)
; 235  :     }

	cmp	ebp, esp
	call	__RTC_CheckEsp
	pop	ebp
	ret	0
_wmemcpy ENDP
_TEXT	ENDS
; Function compile flags: /Odtp /RTCsu
; File z:\sources\lunor\repos\rougemeilland\palmtree.math.core.implements\palmtree.math.core.implements\nbproject\private\cpp_standard_headers_indexer.cpp
;	COMDAT ?__empty_global_delete@@YAXPAXI@Z
_TEXT	SEGMENT
___formal$ = 8						; size = 4
___formal$ = 12						; size = 4
?__empty_global_delete@@YAXPAXI@Z PROC			; __empty_global_delete, COMDAT

	push	ebp
	mov	ebp, esp
	mov	ecx, OFFSET __D0767A1C_cpp_standard_headers_indexer@cpp
	call	@__CheckForDebuggerJustMyCode@4
	cmp	ebp, esp
	call	__RTC_CheckEsp
	pop	ebp
	ret	0
?__empty_global_delete@@YAXPAXI@Z ENDP			; __empty_global_delete
_TEXT	ENDS
; Function compile flags: /Odtp /RTCsu
; File z:\sources\lunor\repos\rougemeilland\palmtree.math.core.implements\palmtree.math.core.implements\nbproject\private\cpp_standard_headers_indexer.cpp
;	COMDAT ?__empty_global_delete@@YAXPAX@Z
_TEXT	SEGMENT
___formal$ = 8						; size = 4
?__empty_global_delete@@YAXPAX@Z PROC			; __empty_global_delete, COMDAT

	push	ebp
	mov	ebp, esp
	mov	ecx, OFFSET __D0767A1C_cpp_standard_headers_indexer@cpp
	call	@__CheckForDebuggerJustMyCode@4
	cmp	ebp, esp
	call	__RTC_CheckEsp
	pop	ebp
	ret	0
?__empty_global_delete@@YAXPAX@Z ENDP			; __empty_global_delete
_TEXT	ENDS
END
