; Listing generated by Microsoft (R) Optimizing Compiler Version 19.16.27026.1 

	TITLE	Z:\Sources\Lunor\Repos\rougemeilland\Palmtree.Math.Core.Implements\Palmtree.Math.Core.Implements\memory.c
	.686P
	.XMM
	include listing.inc
	.model	flat

INCLUDELIB MSVCRTD
INCLUDELIB OLDNAMES

_DATA	SEGMENT
COMM	_number_zero:BYTE:01cH
COMM	_hLocalHeap:DWORD
_DATA	ENDS
msvcjmc	SEGMENT
__7B7A869E_ctype@h DB 01H
__457DD326_basetsd@h DB 01H
__4384A2D9_corecrt_memcpy_s@h DB 01H
__4E51A221_corecrt_wstring@h DB 01H
__2140C079_string@h DB 01H
__1887E595_winnt@h DB 01H
__9FC7C64B_processthreadsapi@h DB 01H
__FA470AEC_memoryapi@h DB 01H
__F37DAFF1_winerror@h DB 01H
__7A450CCC_winbase@h DB 01H
__B4B40122_winioctl@h DB 01H
__86261D59_stralign@h DB 01H
__4522B509_pmc_internal@h DB 01H
__F13F011C_memory@c DB 01H
msvcjmc	ENDS
PUBLIC	_AllocateHeapArea
PUBLIC	_DeallocateHeapArea
PUBLIC	_AllocateBlock
PUBLIC	_DeallocateBlock
PUBLIC	_CheckBlockLight
PUBLIC	_AttatchNumber
PUBLIC	_AllocateNumber
PUBLIC	_DetatchNumber
PUBLIC	_DeallocateNumber
PUBLIC	_CommitNumber
PUBLIC	_CheckNumber
PUBLIC	_DuplicateNumber
PUBLIC	_Initialize_Memory
PUBLIC	_PMC_Dispose@4
PUBLIC	__JustMyCode_Default
EXTRN	__imp__HeapCreate@12:PROC
EXTRN	__imp__HeapDestroy@4:PROC
EXTRN	__imp__HeapAlloc@12:PROC
EXTRN	__imp__HeapFree@12:PROC
EXTRN	__imp__GetTickCount@0:PROC
EXTRN	@_RTC_CheckStackVars@8:PROC
EXTRN	@__CheckForDebuggerJustMyCode@4:PROC
EXTRN	__RTC_CheckEsp:PROC
EXTRN	__RTC_InitBase:PROC
EXTRN	__RTC_Shutdown:PROC
EXTRN	_configuration_info:DWORD
;	COMDAT rtc$TMZ
rtc$TMZ	SEGMENT
__RTC_Shutdown.rtc$TMZ DD FLAT:__RTC_Shutdown
rtc$TMZ	ENDS
;	COMDAT rtc$IMZ
rtc$IMZ	SEGMENT
__RTC_InitBase.rtc$IMZ DD FLAT:__RTC_InitBase
rtc$IMZ	ENDS
; Function compile flags: /Odt
;	COMDAT __JustMyCode_Default
_TEXT	SEGMENT
__JustMyCode_Default PROC				; COMDAT
	push	ebp
	mov	ebp, esp
	pop	ebp
	ret	0
__JustMyCode_Default ENDP
_TEXT	ENDS
; Function compile flags: /Odtp /RTCsu
; File z:\sources\lunor\repos\rougemeilland\palmtree.math.core.implements\palmtree.math.core.implements\memory.c
_TEXT	SEGMENT
_bit_count$ = -4					; size = 4
_p$ = 8							; size = 4
_word_count$ = 12					; size = 4
_GetTrailingZeroBitCount PROC

; 449  : {

	push	ebp
	mov	ebp, esp
	push	ecx
	mov	DWORD PTR [ebp-4], -858993460		; ccccccccH
	mov	ecx, OFFSET __F13F011C_memory@c
	call	@__CheckForDebuggerJustMyCode@4

; 450  :     __UNIT_TYPE bit_count = 0;

	mov	DWORD PTR _bit_count$[ebp], 0
$LN2@GetTrailin:

; 451  :     while (word_count > 0)

	cmp	DWORD PTR _word_count$[ebp], 0
	jbe	SHORT $LN3@GetTrailin

; 452  :     {
; 453  :         --word_count;

	mov	eax, DWORD PTR _word_count$[ebp]
	sub	eax, 1
	mov	DWORD PTR _word_count$[ebp], eax

; 454  :         if (*p != 0)

	mov	ecx, DWORD PTR _p$[ebp]
	cmp	DWORD PTR [ecx], 0
	je	SHORT $LN4@GetTrailin

; 455  :             return (bit_count + _TZCNT_ALT_UNIT(*p));

	mov	edx, DWORD PTR _p$[ebp]
	mov	eax, DWORD PTR [edx]
	push	eax
	call	__TZCNT_ALT_UNIT
	add	esp, 4
	add	eax, DWORD PTR _bit_count$[ebp]
	jmp	SHORT $LN1@GetTrailin
$LN4@GetTrailin:

; 456  :         bit_count += __UNIT_TYPE_BIT_COUNT;

	mov	ecx, DWORD PTR _bit_count$[ebp]
	add	ecx, 32					; 00000020H
	mov	DWORD PTR _bit_count$[ebp], ecx

; 457  :         ++p;

	mov	edx, DWORD PTR _p$[ebp]
	add	edx, 4
	mov	DWORD PTR _p$[ebp], edx

; 458  :     }

	jmp	SHORT $LN2@GetTrailin
$LN3@GetTrailin:

; 459  :     // このルートには到達しないはず
; 460  :     return (0);

	xor	eax, eax
$LN1@GetTrailin:

; 461  : }

	add	esp, 4
	cmp	ebp, esp
	call	__RTC_CheckEsp
	mov	esp, ebp
	pop	ebp
	ret	0
_GetTrailingZeroBitCount ENDP
_TEXT	ENDS
; Function compile flags: /Odtp /RTCsu
; File z:\sources\lunor\repos\rougemeilland\palmtree.math.core.implements\palmtree.math.core.implements\memory.c
_TEXT	SEGMENT
_p$ = 8							; size = 4
_word_count$ = 12					; size = 4
_effective_word_count$ = 16				; size = 4
_GetEffectiveBitLength PROC

; 427  : {

	push	ebp
	mov	ebp, esp
	push	esi
	mov	ecx, OFFSET __F13F011C_memory@c
	call	@__CheckForDebuggerJustMyCode@4

; 428  :     if (p == NULL)

	cmp	DWORD PTR _p$[ebp], 0
	jne	SHORT $LN4@GetEffecti

; 429  :     {
; 430  :         *effective_word_count = 0;

	mov	eax, DWORD PTR _effective_word_count$[ebp]
	mov	DWORD PTR [eax], 0

; 431  :         return (0);

	xor	eax, eax
	jmp	SHORT $LN1@GetEffecti
$LN4@GetEffecti:

; 432  :     }
; 433  :     p += word_count;

	mov	ecx, DWORD PTR _word_count$[ebp]
	mov	edx, DWORD PTR _p$[ebp]
	lea	eax, DWORD PTR [edx+ecx*4]
	mov	DWORD PTR _p$[ebp], eax
$LN2@GetEffecti:

; 434  :     while (word_count != 0)

	cmp	DWORD PTR _word_count$[ebp], 0
	je	SHORT $LN3@GetEffecti

; 435  :     {
; 436  :         --p;

	mov	ecx, DWORD PTR _p$[ebp]
	sub	ecx, 4
	mov	DWORD PTR _p$[ebp], ecx

; 437  :         if (*p != 0)

	mov	edx, DWORD PTR _p$[ebp]
	cmp	DWORD PTR [edx], 0
	je	SHORT $LN5@GetEffecti

; 438  :         {
; 439  :             *effective_word_count = word_count;

	mov	eax, DWORD PTR _effective_word_count$[ebp]
	mov	ecx, DWORD PTR _word_count$[ebp]
	mov	DWORD PTR [eax], ecx

; 440  :             return (word_count * __UNIT_TYPE_BIT_COUNT - _LZCNT_ALT_UNIT(*p));

	mov	esi, DWORD PTR _word_count$[ebp]
	shl	esi, 5
	mov	edx, DWORD PTR _p$[ebp]
	mov	eax, DWORD PTR [edx]
	push	eax
	call	__LZCNT_ALT_UNIT
	add	esp, 4
	sub	esi, eax
	mov	eax, esi
	jmp	SHORT $LN1@GetEffecti
$LN5@GetEffecti:

; 441  :         }
; 442  :         --word_count;

	mov	ecx, DWORD PTR _word_count$[ebp]
	sub	ecx, 1
	mov	DWORD PTR _word_count$[ebp], ecx

; 443  :     }

	jmp	SHORT $LN2@GetEffecti
$LN3@GetEffecti:

; 444  :     *effective_word_count = 0;

	mov	edx, DWORD PTR _effective_word_count$[ebp]
	mov	DWORD PTR [edx], 0

; 445  :     return (0);

	xor	eax, eax
$LN1@GetEffecti:

; 446  : }

	pop	esi
	cmp	ebp, esp
	call	__RTC_CheckEsp
	pop	ebp
	ret	0
_GetEffectiveBitLength ENDP
_TEXT	ENDS
; Function compile flags: /Odtp /RTCsu
; File z:\sources\lunor\repos\rougemeilland\palmtree.math.core.implements\palmtree.math.core.implements\memory.c
_TEXT	SEGMENT
_p$ = 8							; size = 4
_CleanUpNumber PROC

; 380  : {

	push	ebp
	mov	ebp, esp
	mov	ecx, OFFSET __F13F011C_memory@c
	call	@__CheckForDebuggerJustMyCode@4

; 381  :     if (p->BLOCK != NULL)

	mov	eax, DWORD PTR _p$[ebp]
	cmp	DWORD PTR [eax+24], 0
	je	SHORT $LN1@CleanUpNum

; 382  :     {
; 383  :         DeallocateBlock(p->BLOCK, p->BLOCK_COUNT);

	mov	ecx, DWORD PTR _p$[ebp]
	mov	edx, DWORD PTR [ecx+20]
	push	edx
	mov	eax, DWORD PTR _p$[ebp]
	mov	ecx, DWORD PTR [eax+24]
	push	ecx
	call	_DeallocateBlock
	add	esp, 8

; 384  :         p->BLOCK = NULL;

	mov	edx, DWORD PTR _p$[ebp]
	mov	DWORD PTR [edx+24], 0
$LN1@CleanUpNum:

; 385  :     }
; 386  : }

	cmp	ebp, esp
	call	__RTC_CheckEsp
	pop	ebp
	ret	0
_CleanUpNumber ENDP
_TEXT	ENDS
; Function compile flags: /Odtp /RTCsu
; File z:\sources\lunor\repos\rougemeilland\palmtree.math.core.implements\palmtree.math.core.implements\memory.c
_TEXT	SEGMENT
_block$1 = -16						; size = 4
_word_count$2 = -8					; size = 4
_p$ = 8							; size = 4
_bit_count$ = 12					; size = 4
_light_check_code$ = 16					; size = 4
_InitializeNumber PROC

; 357  : {

	push	ebp
	mov	ebp, esp
	sub	esp, 16					; 00000010H
	mov	eax, -858993460				; ccccccccH
	mov	DWORD PTR [ebp-16], eax
	mov	DWORD PTR [ebp-12], eax
	mov	DWORD PTR [ebp-8], eax
	mov	DWORD PTR [ebp-4], eax
	mov	ecx, OFFSET __F13F011C_memory@c
	call	@__CheckForDebuggerJustMyCode@4

; 358  :     ClearNumberHeader(p);

	mov	eax, DWORD PTR _p$[ebp]
	push	eax
	call	_ClearNumberHeader
	add	esp, 4

; 359  :     if (bit_count > 0)

	cmp	DWORD PTR _bit_count$[ebp], 0
	jbe	SHORT $LN2@Initialize

; 360  :     {
; 361  :         __UNIT_TYPE word_count;
; 362  :         __UNIT_TYPE* block = AllocateBlock(bit_count, &word_count, light_check_code);

	mov	ecx, DWORD PTR _light_check_code$[ebp]
	push	ecx
	lea	edx, DWORD PTR _word_count$2[ebp]
	push	edx
	mov	eax, DWORD PTR _bit_count$[ebp]
	push	eax
	call	_AllocateBlock
	add	esp, 12					; 0000000cH
	mov	DWORD PTR _block$1[ebp], eax

; 363  :         if (block == NULL)

	cmp	DWORD PTR _block$1[ebp], 0
	jne	SHORT $LN4@Initialize

; 364  :             return (PMC_STATUS_NOT_ENOUGH_MEMORY);

	mov	eax, -5					; fffffffbH
	jmp	SHORT $LN1@Initialize
$LN4@Initialize:

; 365  :         p->UNIT_BIT_COUNT = bit_count;

	mov	ecx, DWORD PTR _p$[ebp]
	mov	edx, DWORD PTR _bit_count$[ebp]
	mov	DWORD PTR [ecx+4], edx

; 366  :         p->BLOCK_COUNT = word_count;

	mov	eax, DWORD PTR _p$[ebp]
	mov	ecx, DWORD PTR _word_count$2[ebp]
	mov	DWORD PTR [eax+20], ecx

; 367  :         p->BLOCK = block;

	mov	edx, DWORD PTR _p$[ebp]
	mov	eax, DWORD PTR _block$1[ebp]
	mov	DWORD PTR [edx+24], eax

; 368  :     }

	jmp	SHORT $LN3@Initialize
$LN2@Initialize:

; 369  :     else
; 370  :     {
; 371  :         // bit_count に 0 が与えられるのは、数値が 0 の場合。
; 372  :         p->UNIT_BIT_COUNT = 0;

	mov	ecx, DWORD PTR _p$[ebp]
	mov	DWORD PTR [ecx+4], 0

; 373  :         p->BLOCK_COUNT = 0;

	mov	edx, DWORD PTR _p$[ebp]
	mov	DWORD PTR [edx+20], 0

; 374  :         p->BLOCK = NULL;

	mov	eax, DWORD PTR _p$[ebp]
	mov	DWORD PTR [eax+24], 0
$LN3@Initialize:

; 375  :     }
; 376  :     return (PMC_STATUS_OK);

	xor	eax, eax
$LN1@Initialize:

; 377  : }

	push	edx
	mov	ecx, ebp
	push	eax
	lea	edx, DWORD PTR $LN8@Initialize
	call	@_RTC_CheckStackVars@8
	pop	eax
	pop	edx
	add	esp, 16					; 00000010H
	cmp	ebp, esp
	call	__RTC_CheckEsp
	mov	esp, ebp
	pop	ebp
	ret	0
	npad	1
$LN8@Initialize:
	DD	1
	DD	$LN7@Initialize
$LN7@Initialize:
	DD	-8					; fffffff8H
	DD	4
	DD	$LN6@Initialize
$LN6@Initialize:
	DB	119					; 00000077H
	DB	111					; 0000006fH
	DB	114					; 00000072H
	DB	100					; 00000064H
	DB	95					; 0000005fH
	DB	99					; 00000063H
	DB	111					; 0000006fH
	DB	117					; 00000075H
	DB	110					; 0000006eH
	DB	116					; 00000074H
	DB	0
_InitializeNumber ENDP
_TEXT	ENDS
; Function compile flags: /Odtp /RTCsu
; File z:\sources\lunor\repos\rougemeilland\palmtree.math.core.implements\palmtree.math.core.implements\memory.c
_TEXT	SEGMENT
___p$1 = -4						; size = 4
_p$ = 8							; size = 4
_FillNumberHeader PROC

; 316  : {

	push	ebp
	mov	ebp, esp
	push	ecx
	mov	DWORD PTR [ebp-4], -858993460		; ccccccccH
	mov	ecx, OFFSET __F13F011C_memory@c
	call	@__CheckForDebuggerJustMyCode@4

; 317  : #ifdef _M_IX64
; 318  :     if (sizeof(*p) == sizeof(_UINT64_T) * 7)
; 319  :     {
; 320  :         _UINT64_T* __p = (_UINT64_T*)p;
; 321  :         __p[0] = DEFAULT_MEMORY_DATA;
; 322  :         __p[1] = DEFAULT_MEMORY_DATA;
; 323  :         __p[2] = DEFAULT_MEMORY_DATA;
; 324  :         __p[3] = DEFAULT_MEMORY_DATA;
; 325  :         __p[4] = DEFAULT_MEMORY_DATA;
; 326  :         __p[5] = DEFAULT_MEMORY_DATA;
; 327  :         __p[6] = DEFAULT_MEMORY_DATA;
; 328  :     }
; 329  :     else if (sizeof(*p) % sizeof(_UINT64_T) == 0)
; 330  :         _FILL_MEMORY_64((_UINT64_T*)p, DEFAULT_MEMORY_DATA, sizeof(*p) / sizeof(_UINT64_T));
; 331  :     else
; 332  :     {
; 333  : #endif
; 334  :         if (sizeof(*p) == sizeof(_UINT32_T) * 7)

	mov	eax, 1
	test	eax, eax
	je	$LN2@FillNumber

; 335  :         {
; 336  :             _UINT32_T* __p = (_UINT32_T*)p;

	mov	ecx, DWORD PTR _p$[ebp]
	mov	DWORD PTR ___p$1[ebp], ecx

; 337  :             __p[0] = (_UINT32_T)DEFAULT_MEMORY_DATA;

	mov	edx, 4
	imul	eax, edx, 0
	mov	ecx, DWORD PTR ___p$1[ebp]
	mov	DWORD PTR [ecx+eax], -858993460		; ccccccccH

; 338  :             __p[1] = (_UINT32_T)DEFAULT_MEMORY_DATA;

	mov	edx, 4
	shl	edx, 0
	mov	eax, DWORD PTR ___p$1[ebp]
	mov	DWORD PTR [eax+edx], -858993460		; ccccccccH

; 339  :             __p[2] = (_UINT32_T)DEFAULT_MEMORY_DATA;

	mov	ecx, 4
	shl	ecx, 1
	mov	edx, DWORD PTR ___p$1[ebp]
	mov	DWORD PTR [edx+ecx], -858993460		; ccccccccH

; 340  :             __p[3] = (_UINT32_T)DEFAULT_MEMORY_DATA;

	mov	eax, 4
	imul	ecx, eax, 3
	mov	edx, DWORD PTR ___p$1[ebp]
	mov	DWORD PTR [edx+ecx], -858993460		; ccccccccH

; 341  :             __p[4] = (_UINT32_T)DEFAULT_MEMORY_DATA;

	mov	eax, 4
	shl	eax, 2
	mov	ecx, DWORD PTR ___p$1[ebp]
	mov	DWORD PTR [ecx+eax], -858993460		; ccccccccH

; 342  :             __p[5] = (_UINT32_T)DEFAULT_MEMORY_DATA;

	mov	edx, 4
	imul	eax, edx, 5
	mov	ecx, DWORD PTR ___p$1[ebp]
	mov	DWORD PTR [ecx+eax], -858993460		; ccccccccH

; 343  :             __p[6] = (_UINT32_T)DEFAULT_MEMORY_DATA;

	mov	edx, 4
	imul	eax, edx, 6
	mov	ecx, DWORD PTR ___p$1[ebp]
	mov	DWORD PTR [ecx+eax], -858993460		; ccccccccH

; 344  :         }

	jmp	SHORT $LN1@FillNumber
$LN2@FillNumber:

; 345  :         else if (sizeof(*p) % sizeof(_UINT32_T) == 0)

	mov	edx, 1
	test	edx, edx
	je	SHORT $LN4@FillNumber

; 346  :             _FILL_MEMORY_32((_UINT32_T*)p, (_UINT32_T)DEFAULT_MEMORY_DATA, sizeof(*p) / sizeof(_UINT32_T));

	push	7
	push	-858993460				; ccccccccH
	mov	eax, DWORD PTR _p$[ebp]
	push	eax
	call	__FILL_MEMORY_32
	add	esp, 12					; 0000000cH
	jmp	SHORT $LN1@FillNumber
$LN4@FillNumber:

; 347  :         else if (sizeof(*p) % sizeof(_UINT16_T) == 0)

	mov	ecx, 1
	test	ecx, ecx
	je	SHORT $LN6@FillNumber

; 348  :             _FILL_MEMORY_16((_UINT16_T*)p, (_UINT16_T)DEFAULT_MEMORY_DATA, sizeof(*p) / sizeof(_UINT16_T));

	push	14					; 0000000eH
	push	52428					; 0000ccccH
	mov	edx, DWORD PTR _p$[ebp]
	push	edx
	call	__FILL_MEMORY_16
	add	esp, 12					; 0000000cH
	jmp	SHORT $LN1@FillNumber
$LN6@FillNumber:

; 349  :         else
; 350  :             _FILL_MEMORY_BYTE(p, (unsigned char)DEFAULT_MEMORY_DATA, sizeof(*p));

	push	28					; 0000001cH
	push	204					; 000000ccH
	mov	eax, DWORD PTR _p$[ebp]
	push	eax
	call	__FILL_MEMORY_BYTE
	add	esp, 12					; 0000000cH
$LN1@FillNumber:

; 351  : #ifdef _M_IX64
; 352  :     }
; 353  : #endif
; 354  : }

	add	esp, 4
	cmp	ebp, esp
	call	__RTC_CheckEsp
	mov	esp, ebp
	pop	ebp
	ret	0
_FillNumberHeader ENDP
_TEXT	ENDS
; Function compile flags: /Odtp /RTCsu
; File z:\sources\lunor\repos\rougemeilland\palmtree.math.core.implements\palmtree.math.core.implements\memory.c
_TEXT	SEGMENT
___p$1 = -4						; size = 4
_p$ = 8							; size = 4
_ClearNumberHeader PROC

; 275  : {

	push	ebp
	mov	ebp, esp
	push	ecx
	mov	DWORD PTR [ebp-4], -858993460		; ccccccccH
	mov	ecx, OFFSET __F13F011C_memory@c
	call	@__CheckForDebuggerJustMyCode@4

; 276  : #ifdef _M_IX64
; 277  :     if (sizeof(*p) == sizeof(_UINT64_T) * 7)
; 278  :     {
; 279  :         _UINT64_T* __p = (_UINT64_T*)p;
; 280  :         __p[0] = 0;
; 281  :         __p[1] = 0;
; 282  :         __p[2] = 0;
; 283  :         __p[3] = 0;
; 284  :         __p[4] = 0;
; 285  :         __p[5] = 0;
; 286  :         __p[6] = 0;
; 287  :     }
; 288  :     else if (sizeof(*p) % sizeof(_UINT64_T) == 0)
; 289  :         _ZERO_MEMORY_64((_UINT64_T*)p, sizeof(*p) / sizeof(_UINT64_T));
; 290  :     else
; 291  :     {
; 292  : #endif
; 293  :         if (sizeof(*p) == sizeof(_UINT32_T) * 7)

	mov	eax, 1
	test	eax, eax
	je	$LN2@ClearNumbe

; 294  :         {
; 295  :             _UINT32_T* __p = (_UINT32_T*)p;

	mov	ecx, DWORD PTR _p$[ebp]
	mov	DWORD PTR ___p$1[ebp], ecx

; 296  :             __p[0] = 0;

	mov	edx, 4
	imul	eax, edx, 0
	mov	ecx, DWORD PTR ___p$1[ebp]
	mov	DWORD PTR [ecx+eax], 0

; 297  :             __p[1] = 0;

	mov	edx, 4
	shl	edx, 0
	mov	eax, DWORD PTR ___p$1[ebp]
	mov	DWORD PTR [eax+edx], 0

; 298  :             __p[2] = 0;

	mov	ecx, 4
	shl	ecx, 1
	mov	edx, DWORD PTR ___p$1[ebp]
	mov	DWORD PTR [edx+ecx], 0

; 299  :             __p[3] = 0;

	mov	eax, 4
	imul	ecx, eax, 3
	mov	edx, DWORD PTR ___p$1[ebp]
	mov	DWORD PTR [edx+ecx], 0

; 300  :             __p[4] = 0;

	mov	eax, 4
	shl	eax, 2
	mov	ecx, DWORD PTR ___p$1[ebp]
	mov	DWORD PTR [ecx+eax], 0

; 301  :             __p[5] = 0;

	mov	edx, 4
	imul	eax, edx, 5
	mov	ecx, DWORD PTR ___p$1[ebp]
	mov	DWORD PTR [ecx+eax], 0

; 302  :             __p[6] = 0;

	mov	edx, 4
	imul	eax, edx, 6
	mov	ecx, DWORD PTR ___p$1[ebp]
	mov	DWORD PTR [ecx+eax], 0

; 303  :         }

	jmp	SHORT $LN1@ClearNumbe
$LN2@ClearNumbe:

; 304  :         else if (sizeof(*p) % sizeof(_UINT32_T) == 0)

	mov	edx, 1
	test	edx, edx
	je	SHORT $LN4@ClearNumbe

; 305  :             _ZERO_MEMORY_32((_UINT32_T*)p, sizeof(*p) / sizeof(_UINT32_T));

	push	7
	mov	eax, DWORD PTR _p$[ebp]
	push	eax
	call	__ZERO_MEMORY_32
	add	esp, 8
	jmp	SHORT $LN1@ClearNumbe
$LN4@ClearNumbe:

; 306  :         else if (sizeof(*p) % sizeof(_UINT16_T) == 0)

	mov	ecx, 1
	test	ecx, ecx
	je	SHORT $LN6@ClearNumbe

; 307  :             _ZERO_MEMORY_16((_UINT16_T*)p, sizeof(*p) / sizeof(_UINT16_T));

	push	14					; 0000000eH
	mov	edx, DWORD PTR _p$[ebp]
	push	edx
	call	__ZERO_MEMORY_16
	add	esp, 8
	jmp	SHORT $LN1@ClearNumbe
$LN6@ClearNumbe:

; 308  :         else
; 309  :             _ZERO_MEMORY_BYTE(p, sizeof(*p));

	push	28					; 0000001cH
	mov	eax, DWORD PTR _p$[ebp]
	push	eax
	call	__ZERO_MEMORY_BYTE
	add	esp, 8
$LN1@ClearNumbe:

; 310  : #ifdef _M_IX64
; 311  :     }
; 312  : #endif
; 313  : }

	add	esp, 4
	cmp	ebp, esp
	call	__RTC_CheckEsp
	mov	esp, ebp
	pop	ebp
	ret	0
_ClearNumberHeader ENDP
_TEXT	ENDS
; Function compile flags: /Odtp /RTCsu
; File z:\sources\lunor\repos\rougemeilland\palmtree.math.core.implements\palmtree.math.core.implements\memory.c
_TEXT	SEGMENT
_code_actual$ = -12					; size = 4
_code_desired$ = -8					; size = 4
_words$ = -4						; size = 4
_buffer$ = 8						; size = 4
_CheckBlock PROC

; 238  : {

	push	ebp
	mov	ebp, esp
	sub	esp, 12					; 0000000cH
	mov	DWORD PTR [ebp-12], -858993460		; ccccccccH
	mov	DWORD PTR [ebp-8], -858993460		; ccccccccH
	mov	DWORD PTR [ebp-4], -858993460		; ccccccccH
	mov	ecx, OFFSET __F13F011C_memory@c
	call	@__CheckForDebuggerJustMyCode@4

; 239  : #ifdef _DEBUG
; 240  :     if (buffer == NULL)

	cmp	DWORD PTR _buffer$[ebp], 0
	jne	SHORT $LN2@CheckBlock

; 241  :         return (PMC_STATUS_OK);

	xor	eax, eax
	jmp	SHORT $LN1@CheckBlock
$LN2@CheckBlock:

; 242  :     --buffer;

	mov	eax, DWORD PTR _buffer$[ebp]
	sub	eax, 4
	mov	DWORD PTR _buffer$[ebp], eax

; 243  :     __UNIT_TYPE words = buffer[0];

	mov	ecx, 4
	imul	edx, ecx, 0
	mov	eax, DWORD PTR _buffer$[ebp]
	mov	ecx, DWORD PTR [eax+edx]
	mov	DWORD PTR _words$[ebp], ecx

; 244  :     __UNIT_TYPE code_desired = buffer[words + 1];

	mov	edx, DWORD PTR _words$[ebp]
	mov	eax, DWORD PTR _buffer$[ebp]
	mov	ecx, DWORD PTR [eax+edx*4+4]
	mov	DWORD PTR _code_desired$[ebp], ecx

; 245  :     __UNIT_TYPE code_actual = CalculateCheckCode(&buffer[1], words);

	mov	edx, DWORD PTR _words$[ebp]
	push	edx
	mov	eax, 4
	shl	eax, 0
	add	eax, DWORD PTR _buffer$[ebp]
	push	eax
	call	_CalculateCheckCode
	add	esp, 8
	mov	DWORD PTR _code_actual$[ebp], eax

; 246  :     if (code_actual == code_desired)

	mov	ecx, DWORD PTR _code_actual$[ebp]
	cmp	ecx, DWORD PTR _code_desired$[ebp]
	jne	SHORT $LN3@CheckBlock

; 247  :         return (PMC_STATUS_OK);

	xor	eax, eax
	jmp	SHORT $LN1@CheckBlock
	jmp	SHORT $LN1@CheckBlock
$LN3@CheckBlock:

; 248  :     else
; 249  :         return (PMC_STATUS_BAD_BUFFER);

	mov	eax, -257				; fffffeffH
$LN1@CheckBlock:

; 250  : #else
; 251  :     return (PMC_STATUS_OK);
; 252  : #endif
; 253  : }

	add	esp, 12					; 0000000cH
	cmp	ebp, esp
	call	__RTC_CheckEsp
	mov	esp, ebp
	pop	ebp
	ret	0
_CheckBlock ENDP
_TEXT	ENDS
; Function compile flags: /Odtp /RTCsu
; File z:\sources\lunor\repos\rougemeilland\palmtree.math.core.implements\palmtree.math.core.implements\memory.c
_TEXT	SEGMENT
_code$1 = -8						; size = 4
_words$2 = -4						; size = 4
_buffer$ = 8						; size = 4
_CommitBlock PROC

; 222  : {

	push	ebp
	mov	ebp, esp
	sub	esp, 8
	mov	DWORD PTR [ebp-8], -858993460		; ccccccccH
	mov	DWORD PTR [ebp-4], -858993460		; ccccccccH
	mov	ecx, OFFSET __F13F011C_memory@c
	call	@__CheckForDebuggerJustMyCode@4

; 223  :     if (buffer != NULL)

	cmp	DWORD PTR _buffer$[ebp], 0
	je	SHORT $LN1@CommitBloc

; 224  :     {
; 225  :         --buffer;

	mov	eax, DWORD PTR _buffer$[ebp]
	sub	eax, 4
	mov	DWORD PTR _buffer$[ebp], eax

; 226  :         __UNIT_TYPE words = buffer[0];

	mov	ecx, 4
	imul	edx, ecx, 0
	mov	eax, DWORD PTR _buffer$[ebp]
	mov	ecx, DWORD PTR [eax+edx]
	mov	DWORD PTR _words$2[ebp], ecx

; 227  : #ifdef _DEBUG
; 228  :         __UNIT_TYPE code = CalculateCheckCode(&buffer[1], words);

	mov	edx, DWORD PTR _words$2[ebp]
	push	edx
	mov	eax, 4
	shl	eax, 0
	add	eax, DWORD PTR _buffer$[ebp]
	push	eax
	call	_CalculateCheckCode
	add	esp, 8
	mov	DWORD PTR _code$1[ebp], eax

; 229  : #else
; 230  :         __UNIT_TYPE code = 0;
; 231  : #endif
; 232  :         buffer[words + 1] = code;

	mov	ecx, DWORD PTR _words$2[ebp]
	mov	edx, DWORD PTR _buffer$[ebp]
	mov	eax, DWORD PTR _code$1[ebp]
	mov	DWORD PTR [edx+ecx*4+4], eax
$LN1@CommitBloc:

; 233  :     }
; 234  : }

	add	esp, 8
	cmp	ebp, esp
	call	__RTC_CheckEsp
	mov	esp, ebp
	pop	ebp
	ret	0
_CommitBlock ENDP
_TEXT	ENDS
; Function compile flags: /Odtp /RTCsu
; File z:\sources\lunor\repos\rougemeilland\palmtree.math.core.implements\palmtree.math.core.implements\memory.c
_TEXT	SEGMENT
_count$ = -8						; size = 4
_code$ = -4						; size = 4
_p$ = 8							; size = 4
_words$ = 12						; size = 4
_CalculateCheckCode PROC

; 57   : {

	push	ebp
	mov	ebp, esp
	sub	esp, 8
	mov	DWORD PTR [ebp-8], -858993460		; ccccccccH
	mov	DWORD PTR [ebp-4], -858993460		; ccccccccH
	mov	ecx, OFFSET __F13F011C_memory@c
	call	@__CheckForDebuggerJustMyCode@4

; 58   : 	__UNIT_TYPE code = CHECK_CODE_INIT;

	mov	DWORD PTR _code$[ebp], -2071690108	; 84848484H

; 59   : 	
; 60   :     __UNIT_TYPE count = words >> 5;

	mov	eax, DWORD PTR _words$[ebp]
	shr	eax, 5
	mov	DWORD PTR _count$[ebp], eax
$LN2@CalculateC:

; 61   : 	while (count != 0)

	cmp	DWORD PTR _count$[ebp], 0
	je	$LN3@CalculateC

; 62   : 	{
; 63   :         code = _ROTATE_L_UNIT(code, 3) ^ p[0];

	push	3
	mov	ecx, DWORD PTR _code$[ebp]
	push	ecx
	call	__ROTATE_L_UNIT
	add	esp, 8
	mov	edx, 4
	imul	ecx, edx, 0
	mov	edx, DWORD PTR _p$[ebp]
	xor	eax, DWORD PTR [edx+ecx]
	mov	DWORD PTR _code$[ebp], eax

; 64   :         code = _ROTATE_L_UNIT(code, 3) ^ p[1];

	push	3
	mov	eax, DWORD PTR _code$[ebp]
	push	eax
	call	__ROTATE_L_UNIT
	add	esp, 8
	mov	ecx, 4
	shl	ecx, 0
	mov	edx, DWORD PTR _p$[ebp]
	xor	eax, DWORD PTR [edx+ecx]
	mov	DWORD PTR _code$[ebp], eax

; 65   :         code = _ROTATE_L_UNIT(code, 3) ^ p[2];

	push	3
	mov	eax, DWORD PTR _code$[ebp]
	push	eax
	call	__ROTATE_L_UNIT
	add	esp, 8
	mov	ecx, 4
	shl	ecx, 1
	mov	edx, DWORD PTR _p$[ebp]
	xor	eax, DWORD PTR [edx+ecx]
	mov	DWORD PTR _code$[ebp], eax

; 66   :         code = _ROTATE_L_UNIT(code, 3) ^ p[3];

	push	3
	mov	eax, DWORD PTR _code$[ebp]
	push	eax
	call	__ROTATE_L_UNIT
	add	esp, 8
	mov	ecx, 4
	imul	edx, ecx, 3
	mov	ecx, DWORD PTR _p$[ebp]
	xor	eax, DWORD PTR [ecx+edx]
	mov	DWORD PTR _code$[ebp], eax

; 67   :         code = _ROTATE_L_UNIT(code, 3) ^ p[4];

	push	3
	mov	edx, DWORD PTR _code$[ebp]
	push	edx
	call	__ROTATE_L_UNIT
	add	esp, 8
	mov	ecx, 4
	shl	ecx, 2
	mov	edx, DWORD PTR _p$[ebp]
	xor	eax, DWORD PTR [edx+ecx]
	mov	DWORD PTR _code$[ebp], eax

; 68   :         code = _ROTATE_L_UNIT(code, 3) ^ p[5];

	push	3
	mov	eax, DWORD PTR _code$[ebp]
	push	eax
	call	__ROTATE_L_UNIT
	add	esp, 8
	mov	ecx, 4
	imul	edx, ecx, 5
	mov	ecx, DWORD PTR _p$[ebp]
	xor	eax, DWORD PTR [ecx+edx]
	mov	DWORD PTR _code$[ebp], eax

; 69   :         code = _ROTATE_L_UNIT(code, 3) ^ p[6];

	push	3
	mov	edx, DWORD PTR _code$[ebp]
	push	edx
	call	__ROTATE_L_UNIT
	add	esp, 8
	mov	ecx, 4
	imul	edx, ecx, 6
	mov	ecx, DWORD PTR _p$[ebp]
	xor	eax, DWORD PTR [ecx+edx]
	mov	DWORD PTR _code$[ebp], eax

; 70   :         code = _ROTATE_L_UNIT(code, 3) ^ p[7];

	push	3
	mov	edx, DWORD PTR _code$[ebp]
	push	edx
	call	__ROTATE_L_UNIT
	add	esp, 8
	mov	ecx, 4
	imul	edx, ecx, 7
	mov	ecx, DWORD PTR _p$[ebp]
	xor	eax, DWORD PTR [ecx+edx]
	mov	DWORD PTR _code$[ebp], eax

; 71   :         code = _ROTATE_L_UNIT(code, 3) ^ p[8];

	push	3
	mov	edx, DWORD PTR _code$[ebp]
	push	edx
	call	__ROTATE_L_UNIT
	add	esp, 8
	mov	ecx, 4
	shl	ecx, 3
	mov	edx, DWORD PTR _p$[ebp]
	xor	eax, DWORD PTR [edx+ecx]
	mov	DWORD PTR _code$[ebp], eax

; 72   :         code = _ROTATE_L_UNIT(code, 3) ^ p[9];

	push	3
	mov	eax, DWORD PTR _code$[ebp]
	push	eax
	call	__ROTATE_L_UNIT
	add	esp, 8
	mov	ecx, 4
	imul	edx, ecx, 9
	mov	ecx, DWORD PTR _p$[ebp]
	xor	eax, DWORD PTR [ecx+edx]
	mov	DWORD PTR _code$[ebp], eax

; 73   :         code = _ROTATE_L_UNIT(code, 3) ^ p[10];

	push	3
	mov	edx, DWORD PTR _code$[ebp]
	push	edx
	call	__ROTATE_L_UNIT
	add	esp, 8
	mov	ecx, 4
	imul	edx, ecx, 10
	mov	ecx, DWORD PTR _p$[ebp]
	xor	eax, DWORD PTR [ecx+edx]
	mov	DWORD PTR _code$[ebp], eax

; 74   :         code = _ROTATE_L_UNIT(code, 3) ^ p[11];

	push	3
	mov	edx, DWORD PTR _code$[ebp]
	push	edx
	call	__ROTATE_L_UNIT
	add	esp, 8
	mov	ecx, 4
	imul	edx, ecx, 11
	mov	ecx, DWORD PTR _p$[ebp]
	xor	eax, DWORD PTR [ecx+edx]
	mov	DWORD PTR _code$[ebp], eax

; 75   :         code = _ROTATE_L_UNIT(code, 3) ^ p[12];

	push	3
	mov	edx, DWORD PTR _code$[ebp]
	push	edx
	call	__ROTATE_L_UNIT
	add	esp, 8
	mov	ecx, 4
	imul	edx, ecx, 12
	mov	ecx, DWORD PTR _p$[ebp]
	xor	eax, DWORD PTR [ecx+edx]
	mov	DWORD PTR _code$[ebp], eax

; 76   :         code = _ROTATE_L_UNIT(code, 3) ^ p[13];

	push	3
	mov	edx, DWORD PTR _code$[ebp]
	push	edx
	call	__ROTATE_L_UNIT
	add	esp, 8
	mov	ecx, 4
	imul	edx, ecx, 13
	mov	ecx, DWORD PTR _p$[ebp]
	xor	eax, DWORD PTR [ecx+edx]
	mov	DWORD PTR _code$[ebp], eax

; 77   :         code = _ROTATE_L_UNIT(code, 3) ^ p[14];

	push	3
	mov	edx, DWORD PTR _code$[ebp]
	push	edx
	call	__ROTATE_L_UNIT
	add	esp, 8
	mov	ecx, 4
	imul	edx, ecx, 14
	mov	ecx, DWORD PTR _p$[ebp]
	xor	eax, DWORD PTR [ecx+edx]
	mov	DWORD PTR _code$[ebp], eax

; 78   :         code = _ROTATE_L_UNIT(code, 3) ^ p[15];

	push	3
	mov	edx, DWORD PTR _code$[ebp]
	push	edx
	call	__ROTATE_L_UNIT
	add	esp, 8
	mov	ecx, 4
	imul	edx, ecx, 15
	mov	ecx, DWORD PTR _p$[ebp]
	xor	eax, DWORD PTR [ecx+edx]
	mov	DWORD PTR _code$[ebp], eax

; 79   :         code = _ROTATE_L_UNIT(code, 3) ^ p[16];

	push	3
	mov	edx, DWORD PTR _code$[ebp]
	push	edx
	call	__ROTATE_L_UNIT
	add	esp, 8
	mov	ecx, 4
	shl	ecx, 4
	mov	edx, DWORD PTR _p$[ebp]
	xor	eax, DWORD PTR [edx+ecx]
	mov	DWORD PTR _code$[ebp], eax

; 80   :         code = _ROTATE_L_UNIT(code, 3) ^ p[17];

	push	3
	mov	eax, DWORD PTR _code$[ebp]
	push	eax
	call	__ROTATE_L_UNIT
	add	esp, 8
	mov	ecx, 4
	imul	edx, ecx, 17
	mov	ecx, DWORD PTR _p$[ebp]
	xor	eax, DWORD PTR [ecx+edx]
	mov	DWORD PTR _code$[ebp], eax

; 81   :         code = _ROTATE_L_UNIT(code, 3) ^ p[18];

	push	3
	mov	edx, DWORD PTR _code$[ebp]
	push	edx
	call	__ROTATE_L_UNIT
	add	esp, 8
	mov	ecx, 4
	imul	edx, ecx, 18
	mov	ecx, DWORD PTR _p$[ebp]
	xor	eax, DWORD PTR [ecx+edx]
	mov	DWORD PTR _code$[ebp], eax

; 82   :         code = _ROTATE_L_UNIT(code, 3) ^ p[19];

	push	3
	mov	edx, DWORD PTR _code$[ebp]
	push	edx
	call	__ROTATE_L_UNIT
	add	esp, 8
	mov	ecx, 4
	imul	edx, ecx, 19
	mov	ecx, DWORD PTR _p$[ebp]
	xor	eax, DWORD PTR [ecx+edx]
	mov	DWORD PTR _code$[ebp], eax

; 83   :         code = _ROTATE_L_UNIT(code, 3) ^ p[20];

	push	3
	mov	edx, DWORD PTR _code$[ebp]
	push	edx
	call	__ROTATE_L_UNIT
	add	esp, 8
	mov	ecx, 4
	imul	edx, ecx, 20
	mov	ecx, DWORD PTR _p$[ebp]
	xor	eax, DWORD PTR [ecx+edx]
	mov	DWORD PTR _code$[ebp], eax

; 84   :         code = _ROTATE_L_UNIT(code, 3) ^ p[21];

	push	3
	mov	edx, DWORD PTR _code$[ebp]
	push	edx
	call	__ROTATE_L_UNIT
	add	esp, 8
	mov	ecx, 4
	imul	edx, ecx, 21
	mov	ecx, DWORD PTR _p$[ebp]
	xor	eax, DWORD PTR [ecx+edx]
	mov	DWORD PTR _code$[ebp], eax

; 85   :         code = _ROTATE_L_UNIT(code, 3) ^ p[22];

	push	3
	mov	edx, DWORD PTR _code$[ebp]
	push	edx
	call	__ROTATE_L_UNIT
	add	esp, 8
	mov	ecx, 4
	imul	edx, ecx, 22
	mov	ecx, DWORD PTR _p$[ebp]
	xor	eax, DWORD PTR [ecx+edx]
	mov	DWORD PTR _code$[ebp], eax

; 86   :         code = _ROTATE_L_UNIT(code, 3) ^ p[23];

	push	3
	mov	edx, DWORD PTR _code$[ebp]
	push	edx
	call	__ROTATE_L_UNIT
	add	esp, 8
	mov	ecx, 4
	imul	edx, ecx, 23
	mov	ecx, DWORD PTR _p$[ebp]
	xor	eax, DWORD PTR [ecx+edx]
	mov	DWORD PTR _code$[ebp], eax

; 87   :         code = _ROTATE_L_UNIT(code, 3) ^ p[24];

	push	3
	mov	edx, DWORD PTR _code$[ebp]
	push	edx
	call	__ROTATE_L_UNIT
	add	esp, 8
	mov	ecx, 4
	imul	edx, ecx, 24
	mov	ecx, DWORD PTR _p$[ebp]
	xor	eax, DWORD PTR [ecx+edx]
	mov	DWORD PTR _code$[ebp], eax

; 88   :         code = _ROTATE_L_UNIT(code, 3) ^ p[25];

	push	3
	mov	edx, DWORD PTR _code$[ebp]
	push	edx
	call	__ROTATE_L_UNIT
	add	esp, 8
	mov	ecx, 4
	imul	edx, ecx, 25
	mov	ecx, DWORD PTR _p$[ebp]
	xor	eax, DWORD PTR [ecx+edx]
	mov	DWORD PTR _code$[ebp], eax

; 89   :         code = _ROTATE_L_UNIT(code, 3) ^ p[26];

	push	3
	mov	edx, DWORD PTR _code$[ebp]
	push	edx
	call	__ROTATE_L_UNIT
	add	esp, 8
	mov	ecx, 4
	imul	edx, ecx, 26
	mov	ecx, DWORD PTR _p$[ebp]
	xor	eax, DWORD PTR [ecx+edx]
	mov	DWORD PTR _code$[ebp], eax

; 90   :         code = _ROTATE_L_UNIT(code, 3) ^ p[27];

	push	3
	mov	edx, DWORD PTR _code$[ebp]
	push	edx
	call	__ROTATE_L_UNIT
	add	esp, 8
	mov	ecx, 4
	imul	edx, ecx, 27
	mov	ecx, DWORD PTR _p$[ebp]
	xor	eax, DWORD PTR [ecx+edx]
	mov	DWORD PTR _code$[ebp], eax

; 91   :         code = _ROTATE_L_UNIT(code, 3) ^ p[28];

	push	3
	mov	edx, DWORD PTR _code$[ebp]
	push	edx
	call	__ROTATE_L_UNIT
	add	esp, 8
	mov	ecx, 4
	imul	edx, ecx, 28
	mov	ecx, DWORD PTR _p$[ebp]
	xor	eax, DWORD PTR [ecx+edx]
	mov	DWORD PTR _code$[ebp], eax

; 92   :         code = _ROTATE_L_UNIT(code, 3) ^ p[29];

	push	3
	mov	edx, DWORD PTR _code$[ebp]
	push	edx
	call	__ROTATE_L_UNIT
	add	esp, 8
	mov	ecx, 4
	imul	edx, ecx, 29
	mov	ecx, DWORD PTR _p$[ebp]
	xor	eax, DWORD PTR [ecx+edx]
	mov	DWORD PTR _code$[ebp], eax

; 93   :         code = _ROTATE_L_UNIT(code, 3) ^ p[30];

	push	3
	mov	edx, DWORD PTR _code$[ebp]
	push	edx
	call	__ROTATE_L_UNIT
	add	esp, 8
	mov	ecx, 4
	imul	edx, ecx, 30
	mov	ecx, DWORD PTR _p$[ebp]
	xor	eax, DWORD PTR [ecx+edx]
	mov	DWORD PTR _code$[ebp], eax

; 94   :         code = _ROTATE_L_UNIT(code, 3) ^ p[31];

	push	3
	mov	edx, DWORD PTR _code$[ebp]
	push	edx
	call	__ROTATE_L_UNIT
	add	esp, 8
	mov	ecx, 4
	imul	edx, ecx, 31
	mov	ecx, DWORD PTR _p$[ebp]
	xor	eax, DWORD PTR [ecx+edx]
	mov	DWORD PTR _code$[ebp], eax

; 95   :         p += 32;

	mov	edx, DWORD PTR _p$[ebp]
	add	edx, 128				; 00000080H
	mov	DWORD PTR _p$[ebp], edx

; 96   :         --count;

	mov	eax, DWORD PTR _count$[ebp]
	sub	eax, 1
	mov	DWORD PTR _count$[ebp], eax

; 97   :     }

	jmp	$LN2@CalculateC
$LN3@CalculateC:

; 98   : 
; 99   : 	if (words & 0x10)

	mov	ecx, DWORD PTR _words$[ebp]
	and	ecx, 16					; 00000010H
	je	$LN4@CalculateC

; 100  : 	{
; 101  :         code = _ROTATE_L_UNIT(code, 3) ^ p[0];

	push	3
	mov	edx, DWORD PTR _code$[ebp]
	push	edx
	call	__ROTATE_L_UNIT
	add	esp, 8
	mov	ecx, 4
	imul	edx, ecx, 0
	mov	ecx, DWORD PTR _p$[ebp]
	xor	eax, DWORD PTR [ecx+edx]
	mov	DWORD PTR _code$[ebp], eax

; 102  :         code = _ROTATE_L_UNIT(code, 3) ^ p[1];

	push	3
	mov	edx, DWORD PTR _code$[ebp]
	push	edx
	call	__ROTATE_L_UNIT
	add	esp, 8
	mov	ecx, 4
	shl	ecx, 0
	mov	edx, DWORD PTR _p$[ebp]
	xor	eax, DWORD PTR [edx+ecx]
	mov	DWORD PTR _code$[ebp], eax

; 103  :         code = _ROTATE_L_UNIT(code, 3) ^ p[2];

	push	3
	mov	eax, DWORD PTR _code$[ebp]
	push	eax
	call	__ROTATE_L_UNIT
	add	esp, 8
	mov	ecx, 4
	shl	ecx, 1
	mov	edx, DWORD PTR _p$[ebp]
	xor	eax, DWORD PTR [edx+ecx]
	mov	DWORD PTR _code$[ebp], eax

; 104  :         code = _ROTATE_L_UNIT(code, 3) ^ p[3];

	push	3
	mov	eax, DWORD PTR _code$[ebp]
	push	eax
	call	__ROTATE_L_UNIT
	add	esp, 8
	mov	ecx, 4
	imul	edx, ecx, 3
	mov	ecx, DWORD PTR _p$[ebp]
	xor	eax, DWORD PTR [ecx+edx]
	mov	DWORD PTR _code$[ebp], eax

; 105  :         code = _ROTATE_L_UNIT(code, 3) ^ p[4];

	push	3
	mov	edx, DWORD PTR _code$[ebp]
	push	edx
	call	__ROTATE_L_UNIT
	add	esp, 8
	mov	ecx, 4
	shl	ecx, 2
	mov	edx, DWORD PTR _p$[ebp]
	xor	eax, DWORD PTR [edx+ecx]
	mov	DWORD PTR _code$[ebp], eax

; 106  :         code = _ROTATE_L_UNIT(code, 3) ^ p[5];

	push	3
	mov	eax, DWORD PTR _code$[ebp]
	push	eax
	call	__ROTATE_L_UNIT
	add	esp, 8
	mov	ecx, 4
	imul	edx, ecx, 5
	mov	ecx, DWORD PTR _p$[ebp]
	xor	eax, DWORD PTR [ecx+edx]
	mov	DWORD PTR _code$[ebp], eax

; 107  :         code = _ROTATE_L_UNIT(code, 3) ^ p[6];

	push	3
	mov	edx, DWORD PTR _code$[ebp]
	push	edx
	call	__ROTATE_L_UNIT
	add	esp, 8
	mov	ecx, 4
	imul	edx, ecx, 6
	mov	ecx, DWORD PTR _p$[ebp]
	xor	eax, DWORD PTR [ecx+edx]
	mov	DWORD PTR _code$[ebp], eax

; 108  :         code = _ROTATE_L_UNIT(code, 3) ^ p[7];

	push	3
	mov	edx, DWORD PTR _code$[ebp]
	push	edx
	call	__ROTATE_L_UNIT
	add	esp, 8
	mov	ecx, 4
	imul	edx, ecx, 7
	mov	ecx, DWORD PTR _p$[ebp]
	xor	eax, DWORD PTR [ecx+edx]
	mov	DWORD PTR _code$[ebp], eax

; 109  :         code = _ROTATE_L_UNIT(code, 3) ^ p[8];

	push	3
	mov	edx, DWORD PTR _code$[ebp]
	push	edx
	call	__ROTATE_L_UNIT
	add	esp, 8
	mov	ecx, 4
	shl	ecx, 3
	mov	edx, DWORD PTR _p$[ebp]
	xor	eax, DWORD PTR [edx+ecx]
	mov	DWORD PTR _code$[ebp], eax

; 110  :         code = _ROTATE_L_UNIT(code, 3) ^ p[9];

	push	3
	mov	eax, DWORD PTR _code$[ebp]
	push	eax
	call	__ROTATE_L_UNIT
	add	esp, 8
	mov	ecx, 4
	imul	edx, ecx, 9
	mov	ecx, DWORD PTR _p$[ebp]
	xor	eax, DWORD PTR [ecx+edx]
	mov	DWORD PTR _code$[ebp], eax

; 111  :         code = _ROTATE_L_UNIT(code, 3) ^ p[10];

	push	3
	mov	edx, DWORD PTR _code$[ebp]
	push	edx
	call	__ROTATE_L_UNIT
	add	esp, 8
	mov	ecx, 4
	imul	edx, ecx, 10
	mov	ecx, DWORD PTR _p$[ebp]
	xor	eax, DWORD PTR [ecx+edx]
	mov	DWORD PTR _code$[ebp], eax

; 112  :         code = _ROTATE_L_UNIT(code, 3) ^ p[11];

	push	3
	mov	edx, DWORD PTR _code$[ebp]
	push	edx
	call	__ROTATE_L_UNIT
	add	esp, 8
	mov	ecx, 4
	imul	edx, ecx, 11
	mov	ecx, DWORD PTR _p$[ebp]
	xor	eax, DWORD PTR [ecx+edx]
	mov	DWORD PTR _code$[ebp], eax

; 113  :         code = _ROTATE_L_UNIT(code, 3) ^ p[12];

	push	3
	mov	edx, DWORD PTR _code$[ebp]
	push	edx
	call	__ROTATE_L_UNIT
	add	esp, 8
	mov	ecx, 4
	imul	edx, ecx, 12
	mov	ecx, DWORD PTR _p$[ebp]
	xor	eax, DWORD PTR [ecx+edx]
	mov	DWORD PTR _code$[ebp], eax

; 114  :         code = _ROTATE_L_UNIT(code, 3) ^ p[13];

	push	3
	mov	edx, DWORD PTR _code$[ebp]
	push	edx
	call	__ROTATE_L_UNIT
	add	esp, 8
	mov	ecx, 4
	imul	edx, ecx, 13
	mov	ecx, DWORD PTR _p$[ebp]
	xor	eax, DWORD PTR [ecx+edx]
	mov	DWORD PTR _code$[ebp], eax

; 115  :         code = _ROTATE_L_UNIT(code, 3) ^ p[14];

	push	3
	mov	edx, DWORD PTR _code$[ebp]
	push	edx
	call	__ROTATE_L_UNIT
	add	esp, 8
	mov	ecx, 4
	imul	edx, ecx, 14
	mov	ecx, DWORD PTR _p$[ebp]
	xor	eax, DWORD PTR [ecx+edx]
	mov	DWORD PTR _code$[ebp], eax

; 116  :         code = _ROTATE_L_UNIT(code, 3) ^ p[15];

	push	3
	mov	edx, DWORD PTR _code$[ebp]
	push	edx
	call	__ROTATE_L_UNIT
	add	esp, 8
	mov	ecx, 4
	imul	edx, ecx, 15
	mov	ecx, DWORD PTR _p$[ebp]
	xor	eax, DWORD PTR [ecx+edx]
	mov	DWORD PTR _code$[ebp], eax

; 117  :         p += 16;

	mov	edx, DWORD PTR _p$[ebp]
	add	edx, 64					; 00000040H
	mov	DWORD PTR _p$[ebp], edx
$LN4@CalculateC:

; 118  :     }
; 119  : 
; 120  :     if (words & 0x8)

	mov	eax, DWORD PTR _words$[ebp]
	and	eax, 8
	je	$LN5@CalculateC

; 121  :     {
; 122  :         code = _ROTATE_L_UNIT(code, 3) ^ p[0];

	push	3
	mov	ecx, DWORD PTR _code$[ebp]
	push	ecx
	call	__ROTATE_L_UNIT
	add	esp, 8
	mov	edx, 4
	imul	ecx, edx, 0
	mov	edx, DWORD PTR _p$[ebp]
	xor	eax, DWORD PTR [edx+ecx]
	mov	DWORD PTR _code$[ebp], eax

; 123  :         code = _ROTATE_L_UNIT(code, 3) ^ p[1];

	push	3
	mov	eax, DWORD PTR _code$[ebp]
	push	eax
	call	__ROTATE_L_UNIT
	add	esp, 8
	mov	ecx, 4
	shl	ecx, 0
	mov	edx, DWORD PTR _p$[ebp]
	xor	eax, DWORD PTR [edx+ecx]
	mov	DWORD PTR _code$[ebp], eax

; 124  :         code = _ROTATE_L_UNIT(code, 3) ^ p[2];

	push	3
	mov	eax, DWORD PTR _code$[ebp]
	push	eax
	call	__ROTATE_L_UNIT
	add	esp, 8
	mov	ecx, 4
	shl	ecx, 1
	mov	edx, DWORD PTR _p$[ebp]
	xor	eax, DWORD PTR [edx+ecx]
	mov	DWORD PTR _code$[ebp], eax

; 125  :         code = _ROTATE_L_UNIT(code, 3) ^ p[3];

	push	3
	mov	eax, DWORD PTR _code$[ebp]
	push	eax
	call	__ROTATE_L_UNIT
	add	esp, 8
	mov	ecx, 4
	imul	edx, ecx, 3
	mov	ecx, DWORD PTR _p$[ebp]
	xor	eax, DWORD PTR [ecx+edx]
	mov	DWORD PTR _code$[ebp], eax

; 126  :         code = _ROTATE_L_UNIT(code, 3) ^ p[4];

	push	3
	mov	edx, DWORD PTR _code$[ebp]
	push	edx
	call	__ROTATE_L_UNIT
	add	esp, 8
	mov	ecx, 4
	shl	ecx, 2
	mov	edx, DWORD PTR _p$[ebp]
	xor	eax, DWORD PTR [edx+ecx]
	mov	DWORD PTR _code$[ebp], eax

; 127  :         code = _ROTATE_L_UNIT(code, 3) ^ p[5];

	push	3
	mov	eax, DWORD PTR _code$[ebp]
	push	eax
	call	__ROTATE_L_UNIT
	add	esp, 8
	mov	ecx, 4
	imul	edx, ecx, 5
	mov	ecx, DWORD PTR _p$[ebp]
	xor	eax, DWORD PTR [ecx+edx]
	mov	DWORD PTR _code$[ebp], eax

; 128  :         code = _ROTATE_L_UNIT(code, 3) ^ p[6];

	push	3
	mov	edx, DWORD PTR _code$[ebp]
	push	edx
	call	__ROTATE_L_UNIT
	add	esp, 8
	mov	ecx, 4
	imul	edx, ecx, 6
	mov	ecx, DWORD PTR _p$[ebp]
	xor	eax, DWORD PTR [ecx+edx]
	mov	DWORD PTR _code$[ebp], eax

; 129  :         code = _ROTATE_L_UNIT(code, 3) ^ p[7];

	push	3
	mov	edx, DWORD PTR _code$[ebp]
	push	edx
	call	__ROTATE_L_UNIT
	add	esp, 8
	mov	ecx, 4
	imul	edx, ecx, 7
	mov	ecx, DWORD PTR _p$[ebp]
	xor	eax, DWORD PTR [ecx+edx]
	mov	DWORD PTR _code$[ebp], eax

; 130  :         p += 8;

	mov	edx, DWORD PTR _p$[ebp]
	add	edx, 32					; 00000020H
	mov	DWORD PTR _p$[ebp], edx
$LN5@CalculateC:

; 131  :     }
; 132  : 
; 133  :     if (words & 0x4)

	mov	eax, DWORD PTR _words$[ebp]
	and	eax, 4
	je	$LN6@CalculateC

; 134  :     {
; 135  :         code = _ROTATE_L_UNIT(code, 3) ^ p[0];

	push	3
	mov	ecx, DWORD PTR _code$[ebp]
	push	ecx
	call	__ROTATE_L_UNIT
	add	esp, 8
	mov	edx, 4
	imul	ecx, edx, 0
	mov	edx, DWORD PTR _p$[ebp]
	xor	eax, DWORD PTR [edx+ecx]
	mov	DWORD PTR _code$[ebp], eax

; 136  :         code = _ROTATE_L_UNIT(code, 3) ^ p[1];

	push	3
	mov	eax, DWORD PTR _code$[ebp]
	push	eax
	call	__ROTATE_L_UNIT
	add	esp, 8
	mov	ecx, 4
	shl	ecx, 0
	mov	edx, DWORD PTR _p$[ebp]
	xor	eax, DWORD PTR [edx+ecx]
	mov	DWORD PTR _code$[ebp], eax

; 137  :         code = _ROTATE_L_UNIT(code, 3) ^ p[2];

	push	3
	mov	eax, DWORD PTR _code$[ebp]
	push	eax
	call	__ROTATE_L_UNIT
	add	esp, 8
	mov	ecx, 4
	shl	ecx, 1
	mov	edx, DWORD PTR _p$[ebp]
	xor	eax, DWORD PTR [edx+ecx]
	mov	DWORD PTR _code$[ebp], eax

; 138  :         code = _ROTATE_L_UNIT(code, 3) ^ p[3];

	push	3
	mov	eax, DWORD PTR _code$[ebp]
	push	eax
	call	__ROTATE_L_UNIT
	add	esp, 8
	mov	ecx, 4
	imul	edx, ecx, 3
	mov	ecx, DWORD PTR _p$[ebp]
	xor	eax, DWORD PTR [ecx+edx]
	mov	DWORD PTR _code$[ebp], eax

; 139  :         p += 4;

	mov	edx, DWORD PTR _p$[ebp]
	add	edx, 16					; 00000010H
	mov	DWORD PTR _p$[ebp], edx
$LN6@CalculateC:

; 140  :     }
; 141  : 
; 142  :     if (words & 0x2)

	mov	eax, DWORD PTR _words$[ebp]
	and	eax, 2
	je	SHORT $LN7@CalculateC

; 143  :     {
; 144  :         code = _ROTATE_L_UNIT(code, 3) ^ p[0];

	push	3
	mov	ecx, DWORD PTR _code$[ebp]
	push	ecx
	call	__ROTATE_L_UNIT
	add	esp, 8
	mov	edx, 4
	imul	ecx, edx, 0
	mov	edx, DWORD PTR _p$[ebp]
	xor	eax, DWORD PTR [edx+ecx]
	mov	DWORD PTR _code$[ebp], eax

; 145  :         code = _ROTATE_L_UNIT(code, 3) ^ p[1];

	push	3
	mov	eax, DWORD PTR _code$[ebp]
	push	eax
	call	__ROTATE_L_UNIT
	add	esp, 8
	mov	ecx, 4
	shl	ecx, 0
	mov	edx, DWORD PTR _p$[ebp]
	xor	eax, DWORD PTR [edx+ecx]
	mov	DWORD PTR _code$[ebp], eax

; 146  :         p += 2;

	mov	eax, DWORD PTR _p$[ebp]
	add	eax, 8
	mov	DWORD PTR _p$[ebp], eax
$LN7@CalculateC:

; 147  :     }
; 148  : 
; 149  :     if (words & 0x1)

	mov	ecx, DWORD PTR _words$[ebp]
	and	ecx, 1
	je	SHORT $LN8@CalculateC

; 150  :         code = _ROTATE_L_UNIT(code, 3) ^ p[0];

	push	3
	mov	edx, DWORD PTR _code$[ebp]
	push	edx
	call	__ROTATE_L_UNIT
	add	esp, 8
	mov	ecx, 4
	imul	edx, ecx, 0
	mov	ecx, DWORD PTR _p$[ebp]
	xor	eax, DWORD PTR [ecx+edx]
	mov	DWORD PTR _code$[ebp], eax
$LN8@CalculateC:

; 151  :     
; 152  :     return (code);

	mov	eax, DWORD PTR _code$[ebp]

; 153  : }

	add	esp, 8
	cmp	ebp, esp
	call	__RTC_CheckEsp
	mov	esp, ebp
	pop	ebp
	ret	0
_CalculateCheckCode ENDP
_TEXT	ENDS
; Function compile flags: /Odtp /RTCsu
; File z:\sources\lunor\repos\rougemeilland\palmtree.math.core.implements\palmtree.math.core.implements\pmc_internal.h
_TEXT	SEGMENT
_pos$ = -8						; size = 4
_x$ = 8							; size = 4
__TZCNT_ALT_UNIT PROC

; 969  : {

	push	ebp
	mov	ebp, esp
	sub	esp, 12					; 0000000cH
	mov	DWORD PTR [ebp-12], -858993460		; ccccccccH
	mov	DWORD PTR [ebp-8], -858993460		; ccccccccH
	mov	DWORD PTR [ebp-4], -858993460		; ccccccccH
	mov	ecx, OFFSET __4522B509_pmc_internal@h
	call	@__CheckForDebuggerJustMyCode@4

; 970  :     if (x == 0)

	cmp	DWORD PTR _x$[ebp], 0
	jne	SHORT $LN2@TZCNT_ALT_

; 971  :         return (sizeof(x) * 8);

	mov	eax, 32					; 00000020H
	jmp	SHORT $LN1@TZCNT_ALT_
$LN2@TZCNT_ALT_:

; 972  : #ifdef _M_IX86
; 973  :     _UINT32_T pos;
; 974  : #ifdef _MSC_VER
; 975  :     _BitScanForward(&pos, x);

	bsf	eax, DWORD PTR _x$[ebp]
	mov	DWORD PTR _pos$[ebp], eax

; 976  : #elif defined(__GNUC__)
; 977  :     __asm__("bsfl %1, %0" : "=r"(pos) : "rm"(x));
; 978  : #else
; 979  : #error unknown compiler
; 980  : #endif
; 981  : #elif defined(_M_X64)
; 982  : #ifdef _MSC_VER
; 983  :     _UINT32_T pos;
; 984  :     _BitScanForward64(&pos, x);
; 985  : #elif defined(__GNUC__)
; 986  :     _UINT64_T pos;
; 987  :     __asm__("bsfq %1, %0" : "=r"(pos) : "rm"(x));
; 988  : #else
; 989  : #error unknown compiler
; 990  : #endif
; 991  : #else
; 992  : #error unknown platform
; 993  : #endif
; 994  :     return (pos);

	mov	eax, DWORD PTR _pos$[ebp]
$LN1@TZCNT_ALT_:

; 995  : }

	push	edx
	mov	ecx, ebp
	push	eax
	lea	edx, DWORD PTR $LN6@TZCNT_ALT_
	call	@_RTC_CheckStackVars@8
	pop	eax
	pop	edx
	add	esp, 12					; 0000000cH
	cmp	ebp, esp
	call	__RTC_CheckEsp
	mov	esp, ebp
	pop	ebp
	ret	0
	npad	1
$LN6@TZCNT_ALT_:
	DD	1
	DD	$LN5@TZCNT_ALT_
$LN5@TZCNT_ALT_:
	DD	-8					; fffffff8H
	DD	4
	DD	$LN4@TZCNT_ALT_
$LN4@TZCNT_ALT_:
	DB	112					; 00000070H
	DB	111					; 0000006fH
	DB	115					; 00000073H
	DB	0
__TZCNT_ALT_UNIT ENDP
_TEXT	ENDS
; Function compile flags: /Odtp /RTCsu
; File z:\sources\lunor\repos\rougemeilland\palmtree.math.core.implements\palmtree.math.core.implements\pmc_internal.h
_TEXT	SEGMENT
_pos$ = -8						; size = 4
_x$ = 8							; size = 4
__LZCNT_ALT_UNIT PROC

; 889  : {

	push	ebp
	mov	ebp, esp
	sub	esp, 12					; 0000000cH
	mov	DWORD PTR [ebp-12], -858993460		; ccccccccH
	mov	DWORD PTR [ebp-8], -858993460		; ccccccccH
	mov	DWORD PTR [ebp-4], -858993460		; ccccccccH
	mov	ecx, OFFSET __4522B509_pmc_internal@h
	call	@__CheckForDebuggerJustMyCode@4

; 890  :     if (x == 0)

	cmp	DWORD PTR _x$[ebp], 0
	jne	SHORT $LN2@LZCNT_ALT_

; 891  :         return (sizeof(x) * 8);

	mov	eax, 32					; 00000020H
	jmp	SHORT $LN1@LZCNT_ALT_
$LN2@LZCNT_ALT_:

; 892  : #ifdef _M_IX86
; 893  :     _UINT32_T pos;
; 894  : #ifdef _MSC_VER
; 895  :     _BitScanReverse(&pos, x);

	bsr	eax, DWORD PTR _x$[ebp]
	mov	DWORD PTR _pos$[ebp], eax

; 896  : #elif defined(__GNUC__)
; 897  :     __asm__("bsrl %1, %0" : "=r"(pos) : "rm"(x));
; 898  : #else
; 899  : #error unknown compiler
; 900  : #endif
; 901  : #elif defined(_M_X64)
; 902  : #ifdef _MSC_VER
; 903  :     _UINT32_T pos;
; 904  :     _BitScanReverse64(&pos, x);
; 905  : #elif defined(__GNUC__)
; 906  :     _UINT64_T pos;
; 907  :     __asm__("bsrq %1, %0" : "=r"(pos) : "rm"(x));
; 908  : #else
; 909  : #error unknown compiler
; 910  : #endif
; 911  : #else
; 912  : #error unknown platform
; 913  : #endif
; 914  :     return (sizeof(x) * 8 - 1 - pos);

	mov	eax, 31					; 0000001fH
	sub	eax, DWORD PTR _pos$[ebp]
$LN1@LZCNT_ALT_:

; 915  : }

	push	edx
	mov	ecx, ebp
	push	eax
	lea	edx, DWORD PTR $LN6@LZCNT_ALT_
	call	@_RTC_CheckStackVars@8
	pop	eax
	pop	edx
	add	esp, 12					; 0000000cH
	cmp	ebp, esp
	call	__RTC_CheckEsp
	mov	esp, ebp
	pop	ebp
	ret	0
$LN6@LZCNT_ALT_:
	DD	1
	DD	$LN5@LZCNT_ALT_
$LN5@LZCNT_ALT_:
	DD	-8					; fffffff8H
	DD	4
	DD	$LN4@LZCNT_ALT_
$LN4@LZCNT_ALT_:
	DB	112					; 00000070H
	DB	111					; 0000006fH
	DB	115					; 00000073H
	DB	0
__LZCNT_ALT_UNIT ENDP
_TEXT	ENDS
; Function compile flags: /Odtp /RTCsu
; File z:\sources\lunor\repos\rougemeilland\palmtree.math.core.implements\palmtree.math.core.implements\pmc_internal.h
_TEXT	SEGMENT
_x$ = 8							; size = 4
_count$ = 12						; size = 4
__ROTATE_L_UNIT PROC

; 741  : {

	push	ebp
	mov	ebp, esp
	mov	ecx, OFFSET __4522B509_pmc_internal@h
	call	@__CheckForDebuggerJustMyCode@4

; 742  : #ifdef _M_IX86
; 743  :     return (_rotl(x, count));

	mov	eax, DWORD PTR _x$[ebp]
	mov	ecx, DWORD PTR _count$[ebp]
	rol	eax, cl

; 744  : #elif defined(_M_X64)
; 745  :     return (_rotl64(x, count));
; 746  : #else
; 747  : #error unknown platform
; 748  : #endif
; 749  : }

	cmp	ebp, esp
	call	__RTC_CheckEsp
	pop	ebp
	ret	0
__ROTATE_L_UNIT ENDP
_TEXT	ENDS
; Function compile flags: /Odtp /RTCsu
; File z:\sources\lunor\repos\rougemeilland\palmtree.math.core.implements\palmtree.math.core.implements\pmc_internal.h
_TEXT	SEGMENT
_u$ = 8							; size = 4
_v$ = 12						; size = 4
__DIVIDE_CEILING_UNIT PROC

; 453  : {

	push	ebp
	mov	ebp, esp
	mov	ecx, OFFSET __4522B509_pmc_internal@h
	call	@__CheckForDebuggerJustMyCode@4

; 454  :     return ((u + v - 1) / v);

	mov	eax, DWORD PTR _v$[ebp]
	mov	ecx, DWORD PTR _u$[ebp]
	lea	eax, DWORD PTR [ecx+eax-1]
	xor	edx, edx
	div	DWORD PTR _v$[ebp]

; 455  : }

	cmp	ebp, esp
	call	__RTC_CheckEsp
	pop	ebp
	ret	0
__DIVIDE_CEILING_UNIT ENDP
_TEXT	ENDS
; Function compile flags: /Odtp /RTCsu
; File z:\sources\lunor\repos\rougemeilland\palmtree.math.core.implements\palmtree.math.core.implements\pmc_internal.h
_TEXT	SEGMENT
_d$ = 8							; size = 4
_x$ = 12						; size = 4
_count$ = 16						; size = 4
__FILL_MEMORY_UNIT PROC

; 426  : {

	push	ebp
	mov	ebp, esp
	push	edi
	mov	ecx, OFFSET __4522B509_pmc_internal@h
	call	@__CheckForDebuggerJustMyCode@4

; 427  : #ifdef _M_IX86
; 428  :     __stosd((unsigned long*)d, x, (unsigned long)count);

	mov	edi, DWORD PTR _d$[ebp]
	mov	eax, DWORD PTR _x$[ebp]
	mov	ecx, DWORD PTR _count$[ebp]
	rep stosd

; 429  : #elif defined(_M_X64)
; 430  :     __stosq(d, x, count);
; 431  : #else
; 432  : #error unknown platform
; 433  : #endif
; 434  : }

	pop	edi
	cmp	ebp, esp
	call	__RTC_CheckEsp
	pop	ebp
	ret	0
__FILL_MEMORY_UNIT ENDP
_TEXT	ENDS
; Function compile flags: /Odtp /RTCsu
; File z:\sources\lunor\repos\rougemeilland\palmtree.math.core.implements\palmtree.math.core.implements\pmc_internal.h
_TEXT	SEGMENT
_d$ = 8							; size = 4
_x$ = 12						; size = 4
_count$ = 16						; size = 4
__FILL_MEMORY_32 PROC

; 414  : {

	push	ebp
	mov	ebp, esp
	push	edi
	mov	ecx, OFFSET __4522B509_pmc_internal@h
	call	@__CheckForDebuggerJustMyCode@4

; 415  :     __stosd(( unsigned long*)d, x, count);

	mov	edi, DWORD PTR _d$[ebp]
	mov	eax, DWORD PTR _x$[ebp]
	mov	ecx, DWORD PTR _count$[ebp]
	rep stosd

; 416  : }

	pop	edi
	cmp	ebp, esp
	call	__RTC_CheckEsp
	pop	ebp
	ret	0
__FILL_MEMORY_32 ENDP
_TEXT	ENDS
; Function compile flags: /Odtp /RTCsu
; File z:\sources\lunor\repos\rougemeilland\palmtree.math.core.implements\palmtree.math.core.implements\pmc_internal.h
_TEXT	SEGMENT
_d$ = 8							; size = 4
_x$ = 12						; size = 2
_count$ = 16						; size = 4
__FILL_MEMORY_16 PROC

; 409  : {

	push	ebp
	mov	ebp, esp
	push	edi
	mov	ecx, OFFSET __4522B509_pmc_internal@h
	call	@__CheckForDebuggerJustMyCode@4

; 410  :     __stosw(d, x, count);

	mov	edi, DWORD PTR _d$[ebp]
	mov	ax, WORD PTR _x$[ebp]
	mov	ecx, DWORD PTR _count$[ebp]
	rep stosw

; 411  : }

	pop	edi
	cmp	ebp, esp
	call	__RTC_CheckEsp
	pop	ebp
	ret	0
__FILL_MEMORY_16 ENDP
_TEXT	ENDS
; Function compile flags: /Odtp /RTCsu
; File z:\sources\lunor\repos\rougemeilland\palmtree.math.core.implements\palmtree.math.core.implements\pmc_internal.h
_TEXT	SEGMENT
_d$ = 8							; size = 4
_x$ = 12						; size = 1
_count$ = 16						; size = 4
__FILL_MEMORY_BYTE PROC

; 404  : {

	push	ebp
	mov	ebp, esp
	push	edi
	mov	ecx, OFFSET __4522B509_pmc_internal@h
	call	@__CheckForDebuggerJustMyCode@4

; 405  :     __stosb(d, x, count);

	mov	edi, DWORD PTR _d$[ebp]
	mov	al, BYTE PTR _x$[ebp]
	mov	ecx, DWORD PTR _count$[ebp]
	rep stosb

; 406  : }

	pop	edi
	cmp	ebp, esp
	call	__RTC_CheckEsp
	pop	ebp
	ret	0
__FILL_MEMORY_BYTE ENDP
_TEXT	ENDS
; Function compile flags: /Odtp /RTCsu
; File z:\sources\lunor\repos\rougemeilland\palmtree.math.core.implements\palmtree.math.core.implements\pmc_internal.h
_TEXT	SEGMENT
_d$ = 8							; size = 4
_count$ = 12						; size = 4
__ZERO_MEMORY_32 PROC

; 364  : {

	push	ebp
	mov	ebp, esp
	push	edi
	mov	ecx, OFFSET __4522B509_pmc_internal@h
	call	@__CheckForDebuggerJustMyCode@4

; 365  :     __stosd((unsigned long*)d, 0, count);

	mov	edi, DWORD PTR _d$[ebp]
	xor	eax, eax
	mov	ecx, DWORD PTR _count$[ebp]
	rep stosd

; 366  : }

	pop	edi
	cmp	ebp, esp
	call	__RTC_CheckEsp
	pop	ebp
	ret	0
__ZERO_MEMORY_32 ENDP
_TEXT	ENDS
; Function compile flags: /Odtp /RTCsu
; File z:\sources\lunor\repos\rougemeilland\palmtree.math.core.implements\palmtree.math.core.implements\pmc_internal.h
_TEXT	SEGMENT
_d$ = 8							; size = 4
_count$ = 12						; size = 4
__ZERO_MEMORY_16 PROC

; 359  : {

	push	ebp
	mov	ebp, esp
	push	edi
	mov	ecx, OFFSET __4522B509_pmc_internal@h
	call	@__CheckForDebuggerJustMyCode@4

; 360  :     __stosw(d, 0, count);

	xor	eax, eax
	mov	edi, DWORD PTR _d$[ebp]
	mov	ecx, DWORD PTR _count$[ebp]
	rep stosw

; 361  : }

	pop	edi
	cmp	ebp, esp
	call	__RTC_CheckEsp
	pop	ebp
	ret	0
__ZERO_MEMORY_16 ENDP
_TEXT	ENDS
; Function compile flags: /Odtp /RTCsu
; File z:\sources\lunor\repos\rougemeilland\palmtree.math.core.implements\palmtree.math.core.implements\pmc_internal.h
_TEXT	SEGMENT
_d$ = 8							; size = 4
_count$ = 12						; size = 4
__ZERO_MEMORY_BYTE PROC

; 354  : {

	push	ebp
	mov	ebp, esp
	push	edi
	mov	ecx, OFFSET __4522B509_pmc_internal@h
	call	@__CheckForDebuggerJustMyCode@4

; 355  :     __stosb(d, 0, count);

	mov	edi, DWORD PTR _d$[ebp]
	xor	al, al
	mov	ecx, DWORD PTR _count$[ebp]
	rep stosb

; 356  : }

	pop	edi
	cmp	ebp, esp
	call	__RTC_CheckEsp
	pop	ebp
	ret	0
__ZERO_MEMORY_BYTE ENDP
_TEXT	ENDS
; Function compile flags: /Odtp /RTCsu
; File z:\sources\lunor\repos\rougemeilland\palmtree.math.core.implements\palmtree.math.core.implements\pmc_internal.h
_TEXT	SEGMENT
_d$ = 8							; size = 4
_s$ = 12						; size = 4
_count$ = 16						; size = 4
__COPY_MEMORY_UNIT PROC

; 326  : {

	push	ebp
	mov	ebp, esp
	push	esi
	push	edi
	mov	ecx, OFFSET __4522B509_pmc_internal@h
	call	@__CheckForDebuggerJustMyCode@4

; 327  : #ifdef _M_IX86
; 328  :     __movsd((unsigned long *)d, (unsigned long *)s, (unsigned long)count);

	mov	edi, DWORD PTR _d$[ebp]
	mov	esi, DWORD PTR _s$[ebp]
	mov	ecx, DWORD PTR _count$[ebp]
	rep movsd

; 329  : #elif defined(_M_X64)
; 330  :     __movsq(d, s, count);
; 331  : #else
; 332  : #error unknown platform
; 333  : #endif
; 334  : }

	pop	edi
	pop	esi
	cmp	ebp, esp
	call	__RTC_CheckEsp
	pop	ebp
	ret	0
__COPY_MEMORY_UNIT ENDP
_TEXT	ENDS
; Function compile flags: /Odtp /RTCsu
; File z:\sources\lunor\repos\rougemeilland\palmtree.math.core.implements\palmtree.math.core.implements\memory.c
_TEXT	SEGMENT
_result$ = -8						; size = 4
_np$ = -4						; size = 4
_p$ = 8							; size = 4
_PMC_Dispose@4 PROC

; 538  : {

	push	ebp
	mov	ebp, esp
	sub	esp, 8
	mov	DWORD PTR [ebp-8], -858993460		; ccccccccH
	mov	DWORD PTR [ebp-4], -858993460		; ccccccccH
	mov	ecx, OFFSET __F13F011C_memory@c
	call	@__CheckForDebuggerJustMyCode@4

; 539  :     NUMBER_HEADER* np = (NUMBER_HEADER*)p;

	mov	eax, DWORD PTR _p$[ebp]
	mov	DWORD PTR _np$[ebp], eax

; 540  :     PMC_STATUS_CODE result = CheckNumber(np);

	mov	ecx, DWORD PTR _np$[ebp]
	push	ecx
	call	_CheckNumber
	add	esp, 4
	mov	DWORD PTR _result$[ebp], eax

; 541  :     if (result != PMC_STATUS_OK)

	cmp	DWORD PTR _result$[ebp], 0
	je	SHORT $LN2@PMC_Dispos

; 542  :         return;

	jmp	SHORT $LN1@PMC_Dispos
$LN2@PMC_Dispos:

; 543  :     DeallocateNumber(np);

	mov	edx, DWORD PTR _np$[ebp]
	push	edx
	call	_DeallocateNumber
	add	esp, 4
$LN1@PMC_Dispos:

; 544  :     return;
; 545  : }

	add	esp, 8
	cmp	ebp, esp
	call	__RTC_CheckEsp
	mov	esp, ebp
	pop	ebp
	ret	4
_PMC_Dispose@4 ENDP
_TEXT	ENDS
; Function compile flags: /Odtp /RTCsu
; File z:\sources\lunor\repos\rougemeilland\palmtree.math.core.implements\palmtree.math.core.implements\memory.c
_TEXT	SEGMENT
_number_zero_ok$ = -8					; size = 4
_result$ = -4						; size = 4
_feature$ = 8						; size = 4
_Initialize_Memory PROC

; 548  : {

	push	ebp
	mov	ebp, esp
	sub	esp, 8
	mov	DWORD PTR [ebp-8], -858993460		; ccccccccH
	mov	DWORD PTR [ebp-4], -858993460		; ccccccccH
	mov	ecx, OFFSET __F13F011C_memory@c
	call	@__CheckForDebuggerJustMyCode@4

; 549  :     PMC_STATUS_CODE result = PMC_STATUS_OK;

	mov	DWORD PTR _result$[ebp], 0

; 550  : 
; 551  :     BOOL number_zero_ok = TRUE;

	mov	DWORD PTR _number_zero_ok$[ebp], 1

; 552  :     if (result == PMC_STATUS_OK)

	cmp	DWORD PTR _result$[ebp], 0
	jne	SHORT $LN2@Initialize

; 553  :     {
; 554  :         result = AttatchNumber(&number_zero, 0);

	push	0
	push	OFFSET _number_zero
	call	_AttatchNumber
	add	esp, 8
	mov	DWORD PTR _result$[ebp], eax

; 555  :         if (result == PMC_STATUS_OK)

	cmp	DWORD PTR _result$[ebp], 0
	jne	SHORT $LN2@Initialize

; 556  :         {
; 557  :             CommitNumber(&number_zero);

	push	OFFSET _number_zero
	call	_CommitNumber
	add	esp, 4

; 558  :             number_zero_ok = TRUE;

	mov	DWORD PTR _number_zero_ok$[ebp], 1
$LN2@Initialize:

; 559  :         }
; 560  :     }
; 561  : 
; 562  :     if (result != PMC_STATUS_OK)

	cmp	DWORD PTR _result$[ebp], 0
	je	SHORT $LN4@Initialize

; 563  :     {
; 564  :         if (number_zero_ok)

	cmp	DWORD PTR _number_zero_ok$[ebp], 0
	je	SHORT $LN4@Initialize

; 565  :             DetatchNumber(&number_zero);

	push	OFFSET _number_zero
	call	_DetatchNumber
	add	esp, 4
$LN4@Initialize:

; 566  :     }
; 567  : 
; 568  :     return (result);

	mov	eax, DWORD PTR _result$[ebp]

; 569  : }

	add	esp, 8
	cmp	ebp, esp
	call	__RTC_CheckEsp
	mov	esp, ebp
	pop	ebp
	ret	0
_Initialize_Memory ENDP
_TEXT	ENDS
; Function compile flags: /Odtp /RTCsu
; File z:\sources\lunor\repos\rougemeilland\palmtree.math.core.implements\palmtree.math.core.implements\memory.c
_TEXT	SEGMENT
_o$ = -16						; size = 4
_result$ = -8						; size = 4
_x_bit_count$ = -4					; size = 4
_x$ = 8							; size = 4
_op$ = 12						; size = 4
_DuplicateNumber PROC

; 514  : {

	push	ebp
	mov	ebp, esp
	sub	esp, 20					; 00000014H
	mov	eax, -858993460				; ccccccccH
	mov	DWORD PTR [ebp-20], eax
	mov	DWORD PTR [ebp-16], eax
	mov	DWORD PTR [ebp-12], eax
	mov	DWORD PTR [ebp-8], eax
	mov	DWORD PTR [ebp-4], eax
	mov	ecx, OFFSET __F13F011C_memory@c
	call	@__CheckForDebuggerJustMyCode@4

; 515  :     if (x->IS_STATIC)

	mov	eax, DWORD PTR _x$[ebp]
	mov	ecx, DWORD PTR [eax+16]
	and	ecx, 1
	je	SHORT $LN2@DuplicateN

; 516  :     {
; 517  :         *op = x;

	mov	edx, DWORD PTR _op$[ebp]
	mov	eax, DWORD PTR _x$[ebp]
	mov	DWORD PTR [edx], eax

; 518  :         return (PMC_STATUS_OK);

	xor	eax, eax
	jmp	SHORT $LN1@DuplicateN
$LN2@DuplicateN:

; 519  :     }
; 520  :     if (x->IS_ZERO)

	mov	ecx, DWORD PTR _x$[ebp]
	mov	edx, DWORD PTR [ecx+16]
	shr	edx, 1
	and	edx, 1
	je	SHORT $LN3@DuplicateN

; 521  :     {
; 522  :         *op = &number_zero;

	mov	eax, DWORD PTR _op$[ebp]
	mov	DWORD PTR [eax], OFFSET _number_zero

; 523  :         return (PMC_STATUS_OK);

	xor	eax, eax
	jmp	SHORT $LN1@DuplicateN
$LN3@DuplicateN:

; 524  :     }
; 525  :     __UNIT_TYPE x_bit_count = x->UNIT_BIT_COUNT;

	mov	ecx, DWORD PTR _x$[ebp]
	mov	edx, DWORD PTR [ecx+4]
	mov	DWORD PTR _x_bit_count$[ebp], edx

; 526  :     PMC_STATUS_CODE result;
; 527  :     NUMBER_HEADER* o;
; 528  :     if ((result = AllocateNumber(&o, x_bit_count, NULL)) != PMC_STATUS_OK)

	push	0
	mov	eax, DWORD PTR _x_bit_count$[ebp]
	push	eax
	lea	ecx, DWORD PTR _o$[ebp]
	push	ecx
	call	_AllocateNumber
	add	esp, 12					; 0000000cH
	mov	DWORD PTR _result$[ebp], eax
	cmp	DWORD PTR _result$[ebp], 0
	je	SHORT $LN4@DuplicateN

; 529  :         return (result);

	mov	eax, DWORD PTR _result$[ebp]
	jmp	SHORT $LN1@DuplicateN
$LN4@DuplicateN:

; 530  :     _COPY_MEMORY_UNIT(o->BLOCK, x->BLOCK, _DIVIDE_CEILING_UNIT(x_bit_count, __UNIT_TYPE_BIT_COUNT));

	push	32					; 00000020H
	mov	edx, DWORD PTR _x_bit_count$[ebp]
	push	edx
	call	__DIVIDE_CEILING_UNIT
	add	esp, 8
	push	eax
	mov	eax, DWORD PTR _x$[ebp]
	mov	ecx, DWORD PTR [eax+24]
	push	ecx
	mov	edx, DWORD PTR _o$[ebp]
	mov	eax, DWORD PTR [edx+24]
	push	eax
	call	__COPY_MEMORY_UNIT
	add	esp, 12					; 0000000cH

; 531  :     CommitNumber(o);

	mov	ecx, DWORD PTR _o$[ebp]
	push	ecx
	call	_CommitNumber
	add	esp, 4

; 532  :     *op = o;

	mov	edx, DWORD PTR _op$[ebp]
	mov	eax, DWORD PTR _o$[ebp]
	mov	DWORD PTR [edx], eax

; 533  :     return (PMC_STATUS_OK);

	xor	eax, eax
$LN1@DuplicateN:

; 534  : }

	push	edx
	mov	ecx, ebp
	push	eax
	lea	edx, DWORD PTR $LN8@DuplicateN
	call	@_RTC_CheckStackVars@8
	pop	eax
	pop	edx
	add	esp, 20					; 00000014H
	cmp	ebp, esp
	call	__RTC_CheckEsp
	mov	esp, ebp
	pop	ebp
	ret	0
$LN8@DuplicateN:
	DD	1
	DD	$LN7@DuplicateN
$LN7@DuplicateN:
	DD	-16					; fffffff0H
	DD	4
	DD	$LN6@DuplicateN
$LN6@DuplicateN:
	DB	111					; 0000006fH
	DB	0
_DuplicateNumber ENDP
_TEXT	ENDS
; Function compile flags: /Odtp /RTCsu
; File z:\sources\lunor\repos\rougemeilland\palmtree.math.core.implements\palmtree.math.core.implements\memory.c
_TEXT	SEGMENT
_desired_hash_code$1 = -8				; size = 4
_result$2 = -4						; size = 4
_p$ = 8							; size = 4
_CheckNumber PROC

; 497  : {

	push	ebp
	mov	ebp, esp
	sub	esp, 8
	mov	DWORD PTR [ebp-8], -858993460		; ccccccccH
	mov	DWORD PTR [ebp-4], -858993460		; ccccccccH
	mov	ecx, OFFSET __F13F011C_memory@c
	call	@__CheckForDebuggerJustMyCode@4

; 498  : #ifdef _DEBUG
; 499  :     if (!p->IS_ZERO)

	mov	eax, DWORD PTR _p$[ebp]
	mov	ecx, DWORD PTR [eax+16]
	shr	ecx, 1
	and	ecx, 1
	jne	SHORT $LN2@CheckNumbe

; 500  :     {
; 501  :         PMC_STATUS_CODE result;
; 502  :         if ((result = CheckBlock(p->BLOCK)) != PMC_STATUS_OK)

	mov	edx, DWORD PTR _p$[ebp]
	mov	eax, DWORD PTR [edx+24]
	push	eax
	call	_CheckBlock
	add	esp, 4
	mov	DWORD PTR _result$2[ebp], eax
	cmp	DWORD PTR _result$2[ebp], 0
	je	SHORT $LN3@CheckNumbe

; 503  :             return (result);

	mov	eax, DWORD PTR _result$2[ebp]
	jmp	SHORT $LN1@CheckNumbe
$LN3@CheckNumbe:

; 504  :         __UNIT_TYPE desired_hash_code = CalculateCheckCode(p->BLOCK, p->UNIT_WORD_COUNT);

	mov	ecx, DWORD PTR _p$[ebp]
	mov	edx, DWORD PTR [ecx]
	push	edx
	mov	eax, DWORD PTR _p$[ebp]
	mov	ecx, DWORD PTR [eax+24]
	push	ecx
	call	_CalculateCheckCode
	add	esp, 8
	mov	DWORD PTR _desired_hash_code$1[ebp], eax

; 505  :         if (desired_hash_code != p->HASH_CODE)

	mov	edx, DWORD PTR _p$[ebp]
	mov	eax, DWORD PTR _desired_hash_code$1[ebp]
	cmp	eax, DWORD PTR [edx+8]
	je	SHORT $LN2@CheckNumbe

; 506  :             return (PMC_STATUS_BAD_BUFFER);

	mov	eax, -257				; fffffeffH
	jmp	SHORT $LN1@CheckNumbe
$LN2@CheckNumbe:

; 507  :     }
; 508  : #endif
; 509  :     return (PMC_STATUS_OK);

	xor	eax, eax
$LN1@CheckNumbe:

; 510  : }

	add	esp, 8
	cmp	ebp, esp
	call	__RTC_CheckEsp
	mov	esp, ebp
	pop	ebp
	ret	0
_CheckNumber ENDP
_TEXT	ENDS
; Function compile flags: /Odtp /RTCsu
; File z:\sources\lunor\repos\rougemeilland\palmtree.math.core.implements\palmtree.math.core.implements\memory.c
_TEXT	SEGMENT
tv186 = -12						; size = 4
tv169 = -8						; size = 4
tv138 = -4						; size = 4
_p$ = 8							; size = 4
_CommitNumber PROC

; 464  : {

	push	ebp
	mov	ebp, esp
	sub	esp, 12					; 0000000cH
	mov	DWORD PTR [ebp-12], -858993460		; ccccccccH
	mov	DWORD PTR [ebp-8], -858993460		; ccccccccH
	mov	DWORD PTR [ebp-4], -858993460		; ccccccccH
	mov	ecx, OFFSET __F13F011C_memory@c
	call	@__CheckForDebuggerJustMyCode@4

; 465  :     CommitBlock(p->BLOCK);

	mov	eax, DWORD PTR _p$[ebp]
	mov	ecx, DWORD PTR [eax+24]
	push	ecx
	call	_CommitBlock
	add	esp, 4

; 466  :     p->UNIT_BIT_COUNT = GetEffectiveBitLength(p->BLOCK, p->BLOCK_COUNT, &p->UNIT_WORD_COUNT);

	mov	edx, DWORD PTR _p$[ebp]
	push	edx
	mov	eax, DWORD PTR _p$[ebp]
	mov	ecx, DWORD PTR [eax+20]
	push	ecx
	mov	edx, DWORD PTR _p$[ebp]
	mov	eax, DWORD PTR [edx+24]
	push	eax
	call	_GetEffectiveBitLength
	add	esp, 12					; 0000000cH
	mov	ecx, DWORD PTR _p$[ebp]
	mov	DWORD PTR [ecx+4], eax

; 467  :     if (p->UNIT_BIT_COUNT <= 0)

	mov	edx, DWORD PTR _p$[ebp]
	cmp	DWORD PTR [edx+4], 0
	ja	SHORT $LN2@CommitNumb

; 468  :     {
; 469  :         p->HASH_CODE = 0;

	mov	eax, DWORD PTR _p$[ebp]
	mov	DWORD PTR [eax+8], 0

; 470  :         p->IS_ZERO = TRUE;

	mov	ecx, DWORD PTR _p$[ebp]
	mov	edx, DWORD PTR [ecx+16]
	or	edx, 2
	mov	eax, DWORD PTR _p$[ebp]
	mov	DWORD PTR [eax+16], edx

; 471  :         p->IS_ONE = FALSE;

	mov	ecx, DWORD PTR _p$[ebp]
	mov	edx, DWORD PTR [ecx+16]
	and	edx, -5					; fffffffbH
	mov	eax, DWORD PTR _p$[ebp]
	mov	DWORD PTR [eax+16], edx

; 472  :         p->IS_EVEN = TRUE;

	mov	ecx, DWORD PTR _p$[ebp]
	mov	edx, DWORD PTR [ecx+16]
	or	edx, 8
	mov	eax, DWORD PTR _p$[ebp]
	mov	DWORD PTR [eax+16], edx

; 473  :         p->TRAILING_ZERO_BITS_COUNT = 0;

	mov	ecx, DWORD PTR _p$[ebp]
	mov	DWORD PTR [ecx+12], 0

; 474  :         p->IS_POWER_OF_TWO = FALSE;

	mov	edx, DWORD PTR _p$[ebp]
	mov	eax, DWORD PTR [edx+16]
	and	eax, -17				; ffffffefH
	mov	ecx, DWORD PTR _p$[ebp]
	mov	DWORD PTR [ecx+16], eax

; 475  :     }

	jmp	$LN1@CommitNumb
$LN2@CommitNumb:

; 476  :     else if (p->UNIT_BIT_COUNT == 1)

	mov	edx, DWORD PTR _p$[ebp]
	cmp	DWORD PTR [edx+4], 1
	jne	$LN4@CommitNumb

; 477  :     {
; 478  :         p->HASH_CODE = CalculateCheckCode(p->BLOCK, p->UNIT_WORD_COUNT);

	mov	eax, DWORD PTR _p$[ebp]
	mov	ecx, DWORD PTR [eax]
	push	ecx
	mov	edx, DWORD PTR _p$[ebp]
	mov	eax, DWORD PTR [edx+24]
	push	eax
	call	_CalculateCheckCode
	add	esp, 8
	mov	ecx, DWORD PTR _p$[ebp]
	mov	DWORD PTR [ecx+8], eax

; 479  :         p->IS_ZERO = FALSE;

	mov	edx, DWORD PTR _p$[ebp]
	mov	eax, DWORD PTR [edx+16]
	and	eax, -3					; fffffffdH
	mov	ecx, DWORD PTR _p$[ebp]
	mov	DWORD PTR [ecx+16], eax

; 480  :         p->IS_ONE = p->BLOCK[0] == 1; // 無条件でTRUEでも大丈夫だが念のため。

	mov	edx, 4
	imul	eax, edx, 0
	mov	ecx, DWORD PTR _p$[ebp]
	mov	edx, DWORD PTR [ecx+24]
	cmp	DWORD PTR [eax+edx], 1
	jne	SHORT $LN7@CommitNumb
	mov	DWORD PTR tv138[ebp], 1
	jmp	SHORT $LN8@CommitNumb
$LN7@CommitNumb:
	mov	DWORD PTR tv138[ebp], 0
$LN8@CommitNumb:
	mov	eax, DWORD PTR tv138[ebp]
	and	eax, 1
	shl	eax, 2
	mov	ecx, DWORD PTR _p$[ebp]
	mov	edx, DWORD PTR [ecx+16]
	and	edx, -5					; fffffffbH
	or	edx, eax
	mov	eax, DWORD PTR _p$[ebp]
	mov	DWORD PTR [eax+16], edx

; 481  :         p->IS_EVEN = FALSE;

	mov	ecx, DWORD PTR _p$[ebp]
	mov	edx, DWORD PTR [ecx+16]
	and	edx, -9					; fffffff7H
	mov	eax, DWORD PTR _p$[ebp]
	mov	DWORD PTR [eax+16], edx

; 482  :         p->TRAILING_ZERO_BITS_COUNT = 0;

	mov	ecx, DWORD PTR _p$[ebp]
	mov	DWORD PTR [ecx+12], 0

; 483  :         p->IS_POWER_OF_TWO = TRUE;

	mov	edx, DWORD PTR _p$[ebp]
	mov	eax, DWORD PTR [edx+16]
	or	eax, 16					; 00000010H
	mov	ecx, DWORD PTR _p$[ebp]
	mov	DWORD PTR [ecx+16], eax

; 484  :     }

	jmp	$LN1@CommitNumb
$LN4@CommitNumb:

; 485  :     else
; 486  :     {
; 487  :         p->HASH_CODE = CalculateCheckCode(p->BLOCK, p->UNIT_WORD_COUNT);

	mov	edx, DWORD PTR _p$[ebp]
	mov	eax, DWORD PTR [edx]
	push	eax
	mov	ecx, DWORD PTR _p$[ebp]
	mov	edx, DWORD PTR [ecx+24]
	push	edx
	call	_CalculateCheckCode
	add	esp, 8
	mov	ecx, DWORD PTR _p$[ebp]
	mov	DWORD PTR [ecx+8], eax

; 488  :         p->IS_ZERO = FALSE;

	mov	edx, DWORD PTR _p$[ebp]
	mov	eax, DWORD PTR [edx+16]
	and	eax, -3					; fffffffdH
	mov	ecx, DWORD PTR _p$[ebp]
	mov	DWORD PTR [ecx+16], eax

; 489  :         p->IS_ONE = FALSE;

	mov	edx, DWORD PTR _p$[ebp]
	mov	eax, DWORD PTR [edx+16]
	and	eax, -5					; fffffffbH
	mov	ecx, DWORD PTR _p$[ebp]
	mov	DWORD PTR [ecx+16], eax

; 490  :         p->IS_EVEN = !(p->BLOCK[0] & 1);

	mov	edx, 4
	imul	eax, edx, 0
	mov	ecx, DWORD PTR _p$[ebp]
	mov	edx, DWORD PTR [ecx+24]
	mov	eax, DWORD PTR [edx+eax]
	and	eax, 1
	jne	SHORT $LN9@CommitNumb
	mov	DWORD PTR tv169[ebp], 1
	jmp	SHORT $LN10@CommitNumb
$LN9@CommitNumb:
	mov	DWORD PTR tv169[ebp], 0
$LN10@CommitNumb:
	mov	ecx, DWORD PTR tv169[ebp]
	and	ecx, 1
	shl	ecx, 3
	mov	edx, DWORD PTR _p$[ebp]
	mov	eax, DWORD PTR [edx+16]
	and	eax, -9					; fffffff7H
	or	eax, ecx
	mov	ecx, DWORD PTR _p$[ebp]
	mov	DWORD PTR [ecx+16], eax

; 491  :         p->TRAILING_ZERO_BITS_COUNT = GetTrailingZeroBitCount(p->BLOCK, p->UNIT_WORD_COUNT);

	mov	edx, DWORD PTR _p$[ebp]
	mov	eax, DWORD PTR [edx]
	push	eax
	mov	ecx, DWORD PTR _p$[ebp]
	mov	edx, DWORD PTR [ecx+24]
	push	edx
	call	_GetTrailingZeroBitCount
	add	esp, 8
	mov	ecx, DWORD PTR _p$[ebp]
	mov	DWORD PTR [ecx+12], eax

; 492  :         p->IS_POWER_OF_TWO = p->TRAILING_ZERO_BITS_COUNT + 1 == p->UNIT_BIT_COUNT;

	mov	edx, DWORD PTR _p$[ebp]
	mov	eax, DWORD PTR [edx+12]
	add	eax, 1
	mov	ecx, DWORD PTR _p$[ebp]
	cmp	eax, DWORD PTR [ecx+4]
	jne	SHORT $LN11@CommitNumb
	mov	DWORD PTR tv186[ebp], 1
	jmp	SHORT $LN12@CommitNumb
$LN11@CommitNumb:
	mov	DWORD PTR tv186[ebp], 0
$LN12@CommitNumb:
	mov	edx, DWORD PTR tv186[ebp]
	and	edx, 1
	shl	edx, 4
	mov	eax, DWORD PTR _p$[ebp]
	mov	ecx, DWORD PTR [eax+16]
	and	ecx, -17				; ffffffefH
	or	ecx, edx
	mov	edx, DWORD PTR _p$[ebp]
	mov	DWORD PTR [edx+16], ecx
$LN1@CommitNumb:

; 493  :     }
; 494  : }

	add	esp, 12					; 0000000cH
	cmp	ebp, esp
	call	__RTC_CheckEsp
	mov	esp, ebp
	pop	ebp
	ret	0
_CommitNumber ENDP
_TEXT	ENDS
; Function compile flags: /Odtp /RTCsu
; File z:\sources\lunor\repos\rougemeilland\palmtree.math.core.implements\palmtree.math.core.implements\memory.c
_TEXT	SEGMENT
_p$ = 8							; size = 4
_DeallocateNumber PROC

; 418  : {

	push	ebp
	mov	ebp, esp
	push	esi
	mov	ecx, OFFSET __F13F011C_memory@c
	call	@__CheckForDebuggerJustMyCode@4

; 419  :     if (p == NULL || p->IS_STATIC)

	cmp	DWORD PTR _p$[ebp], 0
	je	SHORT $LN3@Deallocate
	mov	eax, DWORD PTR _p$[ebp]
	mov	ecx, DWORD PTR [eax+16]
	and	ecx, 1
	je	SHORT $LN2@Deallocate
$LN3@Deallocate:

; 420  :         return;

	jmp	SHORT $LN1@Deallocate
$LN2@Deallocate:

; 421  :     CleanUpNumber(p);

	mov	edx, DWORD PTR _p$[ebp]
	push	edx
	call	_CleanUpNumber
	add	esp, 4

; 422  :     FillNumberHeader(p);

	mov	eax, DWORD PTR _p$[ebp]
	push	eax
	call	_FillNumberHeader
	add	esp, 4

; 423  :     HeapFree(hLocalHeap, 0, p);

	mov	esi, esp
	mov	ecx, DWORD PTR _p$[ebp]
	push	ecx
	push	0
	mov	edx, DWORD PTR _hLocalHeap
	push	edx
	call	DWORD PTR __imp__HeapFree@12
	cmp	esi, esp
	call	__RTC_CheckEsp
$LN1@Deallocate:

; 424  : }

	pop	esi
	cmp	ebp, esp
	call	__RTC_CheckEsp
	pop	ebp
	ret	0
_DeallocateNumber ENDP
_TEXT	ENDS
; Function compile flags: /Odtp /RTCsu
; File z:\sources\lunor\repos\rougemeilland\palmtree.math.core.implements\palmtree.math.core.implements\memory.c
_TEXT	SEGMENT
_p$ = 8							; size = 4
_DetatchNumber PROC

; 411  : {

	push	ebp
	mov	ebp, esp
	mov	ecx, OFFSET __F13F011C_memory@c
	call	@__CheckForDebuggerJustMyCode@4

; 412  :     if (p == NULL || !p->IS_STATIC)

	cmp	DWORD PTR _p$[ebp], 0
	je	SHORT $LN3@DetatchNum
	mov	eax, DWORD PTR _p$[ebp]
	mov	ecx, DWORD PTR [eax+16]
	and	ecx, 1
	jne	SHORT $LN2@DetatchNum
$LN3@DetatchNum:

; 413  :         return;

	jmp	SHORT $LN1@DetatchNum
$LN2@DetatchNum:

; 414  :     CleanUpNumber(p);

	mov	edx, DWORD PTR _p$[ebp]
	push	edx
	call	_CleanUpNumber
	add	esp, 4
$LN1@DetatchNum:

; 415  : }

	cmp	ebp, esp
	call	__RTC_CheckEsp
	pop	ebp
	ret	0
_DetatchNumber ENDP
_TEXT	ENDS
; Function compile flags: /Odtp /RTCsu
; File z:\sources\lunor\repos\rougemeilland\palmtree.math.core.implements\palmtree.math.core.implements\memory.c
_TEXT	SEGMENT
_result$ = -8						; size = 4
_p$ = -4						; size = 4
_pp$ = 8						; size = 4
_bit_count$ = 12					; size = 4
_light_check_code$ = 16					; size = 4
_AllocateNumber PROC

; 398  : {

	push	ebp
	mov	ebp, esp
	sub	esp, 8
	push	esi
	mov	DWORD PTR [ebp-8], -858993460		; ccccccccH
	mov	DWORD PTR [ebp-4], -858993460		; ccccccccH
	mov	ecx, OFFSET __F13F011C_memory@c
	call	@__CheckForDebuggerJustMyCode@4

; 399  :     NUMBER_HEADER* p = (NUMBER_HEADER*)HeapAlloc(hLocalHeap, HEAP_ZERO_MEMORY, sizeof(NUMBER_HEADER));

	mov	esi, esp
	push	28					; 0000001cH
	push	8
	mov	eax, DWORD PTR _hLocalHeap
	push	eax
	call	DWORD PTR __imp__HeapAlloc@12
	cmp	esi, esp
	call	__RTC_CheckEsp
	mov	DWORD PTR _p$[ebp], eax

; 400  :     if (p == NULL)

	cmp	DWORD PTR _p$[ebp], 0
	jne	SHORT $LN2@AllocateNu

; 401  :         return (PMC_STATUS_NOT_ENOUGH_MEMORY);

	mov	eax, -5					; fffffffbH
	jmp	SHORT $LN1@AllocateNu
$LN2@AllocateNu:

; 402  :     PMC_STATUS_CODE result = InitializeNumber(p, bit_count, light_check_code);

	mov	ecx, DWORD PTR _light_check_code$[ebp]
	push	ecx
	mov	edx, DWORD PTR _bit_count$[ebp]
	push	edx
	mov	eax, DWORD PTR _p$[ebp]
	push	eax
	call	_InitializeNumber
	add	esp, 12					; 0000000cH
	mov	DWORD PTR _result$[ebp], eax

; 403  :     if (result != PMC_STATUS_OK)

	cmp	DWORD PTR _result$[ebp], 0
	je	SHORT $LN3@AllocateNu

; 404  :         return (result);

	mov	eax, DWORD PTR _result$[ebp]
	jmp	SHORT $LN1@AllocateNu
$LN3@AllocateNu:

; 405  :     p->IS_STATIC = FALSE;

	mov	ecx, DWORD PTR _p$[ebp]
	mov	edx, DWORD PTR [ecx+16]
	and	edx, -2					; fffffffeH
	mov	eax, DWORD PTR _p$[ebp]
	mov	DWORD PTR [eax+16], edx

; 406  :     *pp = p;

	mov	ecx, DWORD PTR _pp$[ebp]
	mov	edx, DWORD PTR _p$[ebp]
	mov	DWORD PTR [ecx], edx

; 407  :     return (PMC_STATUS_OK);

	xor	eax, eax
$LN1@AllocateNu:

; 408  : }

	pop	esi
	add	esp, 8
	cmp	ebp, esp
	call	__RTC_CheckEsp
	mov	esp, ebp
	pop	ebp
	ret	0
_AllocateNumber ENDP
_TEXT	ENDS
; Function compile flags: /Odtp /RTCsu
; File z:\sources\lunor\repos\rougemeilland\palmtree.math.core.implements\palmtree.math.core.implements\memory.c
_TEXT	SEGMENT
_result$ = -4						; size = 4
_p$ = 8							; size = 4
_bit_count$ = 12					; size = 4
_AttatchNumber PROC

; 389  : {

	push	ebp
	mov	ebp, esp
	push	ecx
	mov	DWORD PTR [ebp-4], -858993460		; ccccccccH
	mov	ecx, OFFSET __F13F011C_memory@c
	call	@__CheckForDebuggerJustMyCode@4

; 390  :     PMC_STATUS_CODE result = InitializeNumber(p, bit_count, NULL);

	push	0
	mov	eax, DWORD PTR _bit_count$[ebp]
	push	eax
	mov	ecx, DWORD PTR _p$[ebp]
	push	ecx
	call	_InitializeNumber
	add	esp, 12					; 0000000cH
	mov	DWORD PTR _result$[ebp], eax

; 391  :     if (result != PMC_STATUS_OK)

	cmp	DWORD PTR _result$[ebp], 0
	je	SHORT $LN2@AttatchNum

; 392  :         return (result);

	mov	eax, DWORD PTR _result$[ebp]
	jmp	SHORT $LN1@AttatchNum
$LN2@AttatchNum:

; 393  :     p->IS_STATIC = TRUE;

	mov	edx, DWORD PTR _p$[ebp]
	mov	eax, DWORD PTR [edx+16]
	or	eax, 1
	mov	ecx, DWORD PTR _p$[ebp]
	mov	DWORD PTR [ecx+16], eax

; 394  :     return (PMC_STATUS_OK);

	xor	eax, eax
$LN1@AttatchNum:

; 395  : }

	add	esp, 4
	cmp	ebp, esp
	call	__RTC_CheckEsp
	mov	esp, ebp
	pop	ebp
	ret	0
_AttatchNumber ENDP
_TEXT	ENDS
; Function compile flags: /Odtp /RTCsu
; File z:\sources\lunor\repos\rougemeilland\palmtree.math.core.implements\palmtree.math.core.implements\memory.c
_TEXT	SEGMENT
_code_actual$ = -12					; size = 4
_code_desired$ = -8					; size = 4
_words$ = -4						; size = 4
_buffer$ = 8						; size = 4
_code$ = 12						; size = 4
_CheckBlockLight PROC

; 257  : {

	push	ebp
	mov	ebp, esp
	sub	esp, 12					; 0000000cH
	mov	DWORD PTR [ebp-12], -858993460		; ccccccccH
	mov	DWORD PTR [ebp-8], -858993460		; ccccccccH
	mov	DWORD PTR [ebp-4], -858993460		; ccccccccH
	mov	ecx, OFFSET __F13F011C_memory@c
	call	@__CheckForDebuggerJustMyCode@4

; 258  : #ifdef _DEBUG
; 259  :     if (buffer == NULL)

	cmp	DWORD PTR _buffer$[ebp], 0
	jne	SHORT $LN2@CheckBlock

; 260  :         return (PMC_STATUS_OK);

	xor	eax, eax
	jmp	SHORT $LN1@CheckBlock
$LN2@CheckBlock:

; 261  :     --buffer;

	mov	eax, DWORD PTR _buffer$[ebp]
	sub	eax, 4
	mov	DWORD PTR _buffer$[ebp], eax

; 262  :     __UNIT_TYPE words = buffer[0];

	mov	ecx, 4
	imul	edx, ecx, 0
	mov	eax, DWORD PTR _buffer$[ebp]
	mov	ecx, DWORD PTR [eax+edx]
	mov	DWORD PTR _words$[ebp], ecx

; 263  :     __UNIT_TYPE code_desired = buffer[words + 1] ^ (__UNIT_TYPE)&buffer[words + 1];

	mov	edx, DWORD PTR _words$[ebp]
	mov	eax, DWORD PTR _buffer$[ebp]
	lea	ecx, DWORD PTR [eax+edx*4+4]
	mov	edx, DWORD PTR _words$[ebp]
	mov	eax, DWORD PTR _buffer$[ebp]
	xor	ecx, DWORD PTR [eax+edx*4+4]
	mov	DWORD PTR _code_desired$[ebp], ecx

; 264  :     __UNIT_TYPE code_actual = code;

	mov	ecx, DWORD PTR _code$[ebp]
	mov	DWORD PTR _code_actual$[ebp], ecx

; 265  :     if (code_actual == code_desired)

	mov	edx, DWORD PTR _code_actual$[ebp]
	cmp	edx, DWORD PTR _code_desired$[ebp]
	jne	SHORT $LN3@CheckBlock

; 266  :         return (PMC_STATUS_OK);

	xor	eax, eax
	jmp	SHORT $LN1@CheckBlock
	jmp	SHORT $LN1@CheckBlock
$LN3@CheckBlock:

; 267  :     else
; 268  :         return (PMC_STATUS_BAD_BUFFER);

	mov	eax, -257				; fffffeffH
$LN1@CheckBlock:

; 269  : #else
; 270  :     return (PMC_STATUS_OK);
; 271  : #endif
; 272  : }

	add	esp, 12					; 0000000cH
	cmp	ebp, esp
	call	__RTC_CheckEsp
	mov	esp, ebp
	pop	ebp
	ret	0
_CheckBlockLight ENDP
_TEXT	ENDS
; Function compile flags: /Odtp /RTCsu
; File z:\sources\lunor\repos\rougemeilland\palmtree.math.core.implements\palmtree.math.core.implements\memory.c
_TEXT	SEGMENT
_p$1 = -4						; size = 4
_buffer$ = 8						; size = 4
_buffer_words$ = 12					; size = 4
_DeallocateBlock PROC

; 202  : {

	push	ebp
	mov	ebp, esp
	push	ecx
	push	esi
	mov	DWORD PTR [ebp-4], -858993460		; ccccccccH
	mov	ecx, OFFSET __F13F011C_memory@c
	call	@__CheckForDebuggerJustMyCode@4

; 203  : 	if (buffer != NULL)

	cmp	DWORD PTR _buffer$[ebp], 0
	je	SHORT $LN1@Deallocate

; 204  : 	{
; 205  :         __UNIT_TYPE* p = buffer - 1;

	mov	eax, DWORD PTR _buffer$[ebp]
	sub	eax, 4
	mov	DWORD PTR _p$1[ebp], eax

; 206  :         if (*p != buffer_words)

	mov	ecx, DWORD PTR _p$1[ebp]
	mov	edx, DWORD PTR [ecx]
	cmp	edx, DWORD PTR _buffer_words$[ebp]
	je	SHORT $LN3@Deallocate

; 207  :         {
; 208  :             // もし、buffer の指す内容が壊れていることが明らかならば、二重解放の恐れがあるので解放処理はしない。
; 209  :         }

	jmp	SHORT $LN1@Deallocate
$LN3@Deallocate:

; 210  :         else
; 211  :         {
; 212  :             // 使用済みのバッファを既定のデータで塗りつぶす。
; 213  :             _FILL_MEMORY_UNIT(p, DEFAULT_MEMORY_DATA, buffer_words + 2);

	mov	eax, DWORD PTR _buffer_words$[ebp]
	add	eax, 2
	push	eax
	push	-858993460				; ccccccccH
	mov	ecx, DWORD PTR _p$1[ebp]
	push	ecx
	call	__FILL_MEMORY_UNIT
	add	esp, 12					; 0000000cH

; 214  :             // バッファを解放する。
; 215  :             HeapFree(hLocalHeap, 0, p);

	mov	esi, esp
	mov	edx, DWORD PTR _p$1[ebp]
	push	edx
	push	0
	mov	eax, DWORD PTR _hLocalHeap
	push	eax
	call	DWORD PTR __imp__HeapFree@12
	cmp	esi, esp
	call	__RTC_CheckEsp
$LN1@Deallocate:

; 216  :         }
; 217  : 	}
; 218  : }

	pop	esi
	add	esp, 4
	cmp	ebp, esp
	call	__RTC_CheckEsp
	mov	esp, ebp
	pop	ebp
	ret	0
_DeallocateBlock ENDP
_TEXT	ENDS
; Function compile flags: /Odtp /RTCsu
; File z:\sources\lunor\repos\rougemeilland\palmtree.math.core.implements\palmtree.math.core.implements\memory.c
_TEXT	SEGMENT
tv88 = -28						; size = 4
_check_code$ = -24					; size = 4
_r$ = -20						; size = 4
_buffer$ = -16						; size = 4
_bytes$ = -12						; size = 4
_words2$ = -8						; size = 4
_words1$ = -4						; size = 4
_bits$ = 8						; size = 4
_allocated_block_words$ = 12				; size = 4
_code$ = 16						; size = 4
_AllocateBlock PROC

; 160  : {

	push	ebp
	mov	ebp, esp
	sub	esp, 28					; 0000001cH
	push	esi
	mov	eax, -858993460				; ccccccccH
	mov	DWORD PTR [ebp-28], eax
	mov	DWORD PTR [ebp-24], eax
	mov	DWORD PTR [ebp-20], eax
	mov	DWORD PTR [ebp-16], eax
	mov	DWORD PTR [ebp-12], eax
	mov	DWORD PTR [ebp-8], eax
	mov	DWORD PTR [ebp-4], eax
	mov	ecx, OFFSET __F13F011C_memory@c
	call	@__CheckForDebuggerJustMyCode@4

; 161  :     // 実際に獲得されるメモリ領域は「引数で渡されたワード数+2」のワード数となる。
; 162  :     // 最初のワードには獲得時に引数で渡されたワード数が格納される。
; 163  :     // 最後のワードには格納されている内容の正当性確認のための値が格納される。
; 164  :     // 2番目のワードへのポインタは呼び出し元に通知され利用される。
; 165  :     __UNIT_TYPE words1 = _DIVIDE_CEILING_UNIT(bits, __UNIT_TYPE_BIT_COUNT);

	push	32					; 00000020H
	mov	eax, DWORD PTR _bits$[ebp]
	push	eax
	call	__DIVIDE_CEILING_UNIT
	add	esp, 8
	mov	DWORD PTR _words1$[ebp], eax

; 166  : 	__UNIT_TYPE words2 = words1 + 2;

	mov	ecx, DWORD PTR _words1$[ebp]
	add	ecx, 2
	mov	DWORD PTR _words2$[ebp], ecx

; 167  : 	__UNIT_TYPE bytes = words2 * __UNIT_TYPE_BYTE_COUNT;

	mov	edx, DWORD PTR _words2$[ebp]
	shl	edx, 2
	mov	DWORD PTR _bytes$[ebp], edx

; 168  : 	__UNIT_TYPE* buffer = (__UNIT_TYPE*)HeapAlloc(hLocalHeap, HEAP_ZERO_MEMORY, bytes);

	mov	esi, esp
	mov	eax, DWORD PTR _bytes$[ebp]
	push	eax
	push	8
	mov	ecx, DWORD PTR _hLocalHeap
	push	ecx
	call	DWORD PTR __imp__HeapAlloc@12
	cmp	esi, esp
	call	__RTC_CheckEsp
	mov	DWORD PTR _buffer$[ebp], eax

; 169  : 	if (buffer == NULL)

	cmp	DWORD PTR _buffer$[ebp], 0
	jne	SHORT $LN2@AllocateBl

; 170  : 		return (NULL);

	xor	eax, eax
	jmp	$LN1@AllocateBl
$LN2@AllocateBl:

; 171  : 	buffer[0] = words1;

	mov	edx, 4
	imul	eax, edx, 0
	mov	ecx, DWORD PTR _buffer$[ebp]
	mov	edx, DWORD PTR _words1$[ebp]
	mov	DWORD PTR [ecx+eax], edx

; 172  :     *allocated_block_words = words1;

	mov	eax, DWORD PTR _allocated_block_words$[ebp]
	mov	ecx, DWORD PTR _words1$[ebp]
	mov	DWORD PTR [eax], ecx

; 173  : #ifdef _DEBUG
; 174  :     // 乱数もどきを生成する。
; 175  : #ifdef _M_IX86
; 176  :     __UNIT_TYPE r = GetTickCount();

	mov	esi, esp
	call	DWORD PTR __imp__GetTickCount@0
	cmp	esi, esp
	call	__RTC_CheckEsp
	mov	DWORD PTR _r$[ebp], eax

; 177  : #elif defined(_M_IX64)
; 178  : #ifdef _MSC_VER
; 179  :     __UNIT_TYPE r = GetTickCount64();
; 180  : #elif defined(__GNUC__)
; 181  :     _UINT32_T temp = GetTickCount();
; 182  :     __UNIT_TYPE r = _FROMWORDTODWORD(temp, temp);
; 183  : #else
; 184  : #error unknown compiler
; 185  : #endif
; 186  : #else
; 187  : #error unknown platform
; 188  : #endif
; 189  :     __UNIT_TYPE check_code = configuration_info.MEMORY_VERIFICATION_ENABLED ? CalculateCheckCode(&buffer[1], words1) : CHECK_CODE_INIT | r;

	mov	edx, DWORD PTR _configuration_info
	and	edx, 1
	je	SHORT $LN5@AllocateBl
	mov	eax, DWORD PTR _words1$[ebp]
	push	eax
	mov	ecx, 4
	shl	ecx, 0
	add	ecx, DWORD PTR _buffer$[ebp]
	push	ecx
	call	_CalculateCheckCode
	add	esp, 8
	mov	DWORD PTR tv88[ebp], eax
	jmp	SHORT $LN6@AllocateBl
$LN5@AllocateBl:
	mov	edx, DWORD PTR _r$[ebp]
	or	edx, -2071690108			; 84848484H
	mov	DWORD PTR tv88[ebp], edx
$LN6@AllocateBl:
	mov	eax, DWORD PTR tv88[ebp]
	mov	DWORD PTR _check_code$[ebp], eax

; 190  : #else
; 191  :     __UNIT_TYPE check_code = 0;
; 192  : #endif
; 193  :     buffer[words1 + 1] = check_code ^ (__UNIT_TYPE)&buffer[words1 + 1];

	mov	ecx, DWORD PTR _words1$[ebp]
	mov	edx, DWORD PTR _buffer$[ebp]
	lea	eax, DWORD PTR [edx+ecx*4+4]
	xor	eax, DWORD PTR _check_code$[ebp]
	mov	ecx, DWORD PTR _words1$[ebp]
	mov	edx, DWORD PTR _buffer$[ebp]
	mov	DWORD PTR [edx+ecx*4+4], eax

; 194  :     if (code != NULL)

	cmp	DWORD PTR _code$[ebp], 0
	je	SHORT $LN3@AllocateBl

; 195  :         *code = check_code;

	mov	eax, DWORD PTR _code$[ebp]
	mov	ecx, DWORD PTR _check_code$[ebp]
	mov	DWORD PTR [eax], ecx
$LN3@AllocateBl:

; 196  :     return (&buffer[1]);

	mov	eax, 4
	shl	eax, 0
	add	eax, DWORD PTR _buffer$[ebp]
$LN1@AllocateBl:

; 197  : }

	pop	esi
	add	esp, 28					; 0000001cH
	cmp	ebp, esp
	call	__RTC_CheckEsp
	mov	esp, ebp
	pop	ebp
	ret	0
_AllocateBlock ENDP
_TEXT	ENDS
; Function compile flags: /Odtp /RTCsu
; File z:\sources\lunor\repos\rougemeilland\palmtree.math.core.implements\palmtree.math.core.implements\memory.c
_TEXT	SEGMENT
_DeallocateHeapArea PROC

; 580  : {

	push	ebp
	mov	ebp, esp
	push	esi
	mov	ecx, OFFSET __F13F011C_memory@c
	call	@__CheckForDebuggerJustMyCode@4

; 581  :     if (hLocalHeap != NULL)

	cmp	DWORD PTR _hLocalHeap, 0
	je	SHORT $LN1@Deallocate

; 582  :     {
; 583  :         HeapDestroy(hLocalHeap);

	mov	esi, esp
	mov	eax, DWORD PTR _hLocalHeap
	push	eax
	call	DWORD PTR __imp__HeapDestroy@4
	cmp	esi, esp
	call	__RTC_CheckEsp

; 584  :         hLocalHeap = NULL;

	mov	DWORD PTR _hLocalHeap, 0
$LN1@Deallocate:

; 585  :     }
; 586  : }

	pop	esi
	cmp	ebp, esp
	call	__RTC_CheckEsp
	pop	ebp
	ret	0
_DeallocateHeapArea ENDP
_TEXT	ENDS
; Function compile flags: /Odtp /RTCsu
; File z:\sources\lunor\repos\rougemeilland\palmtree.math.core.implements\palmtree.math.core.implements\memory.c
_TEXT	SEGMENT
_AllocateHeapArea PROC

; 572  : {

	push	ebp
	mov	ebp, esp
	push	esi
	mov	ecx, OFFSET __F13F011C_memory@c
	call	@__CheckForDebuggerJustMyCode@4

; 573  :     hLocalHeap = HeapCreate(0, 0x1000, 0);

	mov	esi, esp
	push	0
	push	4096					; 00001000H
	push	0
	call	DWORD PTR __imp__HeapCreate@12
	cmp	esi, esp
	call	__RTC_CheckEsp
	mov	DWORD PTR _hLocalHeap, eax

; 574  :     if (hLocalHeap == NULL)

	cmp	DWORD PTR _hLocalHeap, 0
	jne	SHORT $LN2@AllocateHe

; 575  :         return (FALSE);

	xor	eax, eax
	jmp	SHORT $LN1@AllocateHe
$LN2@AllocateHe:

; 576  :     return (TRUE);

	mov	eax, 1
$LN1@AllocateHe:

; 577  : }

	pop	esi
	cmp	ebp, esp
	call	__RTC_CheckEsp
	pop	ebp
	ret	0
_AllocateHeapArea ENDP
_TEXT	ENDS
END
