; Listing generated by Microsoft (R) Optimizing Compiler Version 19.16.27026.1 

	TITLE	Z:\Sources\Lunor\Repos\rougemeilland\Palmtree.Math.Core.Implements\Palmtree.Math.Core.Implements\pmc_bitwiseor.c
	.686P
	.XMM
	include listing.inc
	.model	flat

INCLUDELIB MSVCRTD
INCLUDELIB OLDNAMES

msvcjmc	SEGMENT
__7B7A869E_ctype@h DB 01H
__457DD326_basetsd@h DB 01H
__4384A2D9_corecrt_memcpy_s@h DB 01H
__4E51A221_corecrt_wstring@h DB 01H
__2140C079_string@h DB 01H
__1887E595_winnt@h DB 01H
__9FC7C64B_processthreadsapi@h DB 01H
__FA470AEC_memoryapi@h DB 01H
__F37DAFF1_winerror@h DB 01H
__7A450CCC_winbase@h DB 01H
__B4B40122_winioctl@h DB 01H
__86261D59_stralign@h DB 01H
__4522B509_pmc_internal@h DB 01H
__AC60EF90_pmc_bitwiseor@c DB 01H
msvcjmc	ENDS
PUBLIC	_Initialize_BitwiseOr
PUBLIC	_PMC_BitwiseOr_X_I@12
PUBLIC	_PMC_BitwiseOr_X_L@16
PUBLIC	_PMC_BitwiseOr_X_X@12
PUBLIC	__JustMyCode_Default
EXTRN	_CheckBlockLight:PROC
EXTRN	_AllocateNumber:PROC
EXTRN	_CommitNumber:PROC
EXTRN	_CheckNumber:PROC
EXTRN	_DuplicateNumber:PROC
EXTRN	_From_I_Imp:PROC
EXTRN	_From_L_Imp:PROC
EXTRN	@_RTC_CheckStackVars@8:PROC
EXTRN	@__CheckForDebuggerJustMyCode@4:PROC
EXTRN	__RTC_CheckEsp:PROC
EXTRN	__RTC_InitBase:PROC
EXTRN	__RTC_Shutdown:PROC
EXTRN	__aullshr:PROC
EXTRN	_number_zero:BYTE
;	COMDAT rtc$TMZ
rtc$TMZ	SEGMENT
__RTC_Shutdown.rtc$TMZ DD FLAT:__RTC_Shutdown
rtc$TMZ	ENDS
;	COMDAT rtc$IMZ
rtc$IMZ	SEGMENT
__RTC_InitBase.rtc$IMZ DD FLAT:__RTC_InitBase
rtc$IMZ	ENDS
; Function compile flags: /Odt
;	COMDAT __JustMyCode_Default
_TEXT	SEGMENT
__JustMyCode_Default PROC				; COMDAT
	push	ebp
	mov	ebp, esp
	pop	ebp
	ret	0
__JustMyCode_Default ENDP
_TEXT	ENDS
; Function compile flags: /Odtp /RTCsu
; File z:\sources\lunor\repos\rougemeilland\palmtree.math.core.implements\palmtree.math.core.implements\pmc_bitwiseor.c
_TEXT	SEGMENT
_count$ = -12						; size = 4
_cp_count$ = -8						; size = 4
_or_count$ = -4						; size = 4
_u$ = 8							; size = 4
_u_count$ = 12						; size = 4
_v$ = 16						; size = 4
_v_count$ = 20						; size = 4
_w$ = 24						; size = 4
_BitwiseOr_X_X PROC

; 72   : {

	push	ebp
	mov	ebp, esp
	sub	esp, 12					; 0000000cH
	push	esi
	mov	DWORD PTR [ebp-12], -858993460		; ccccccccH
	mov	DWORD PTR [ebp-8], -858993460		; ccccccccH
	mov	DWORD PTR [ebp-4], -858993460		; ccccccccH
	mov	ecx, OFFSET __AC60EF90_pmc_bitwiseor@c
	call	@__CheckForDebuggerJustMyCode@4

; 73   :     __UNIT_TYPE or_count = v_count;

	mov	eax, DWORD PTR _v_count$[ebp]
	mov	DWORD PTR _or_count$[ebp], eax

; 74   :     __UNIT_TYPE cp_count = u_count - v_count;

	mov	ecx, DWORD PTR _u_count$[ebp]
	sub	ecx, DWORD PTR _v_count$[ebp]
	mov	DWORD PTR _cp_count$[ebp], ecx

; 75   : 
; 76   :     __UNIT_TYPE count = or_count >> 5;

	mov	edx, DWORD PTR _or_count$[ebp]
	shr	edx, 5
	mov	DWORD PTR _count$[ebp], edx
$LN2@BitwiseOr_:

; 77   :     while (count > 0)

	cmp	DWORD PTR _count$[ebp], 0
	jbe	$LN3@BitwiseOr_

; 78   :     {
; 79   :         w[0] = u[0] | v[0];

	mov	eax, 4
	imul	ecx, eax, 0
	mov	edx, 4
	imul	eax, edx, 0
	mov	edx, DWORD PTR _u$[ebp]
	mov	esi, DWORD PTR _v$[ebp]
	mov	ecx, DWORD PTR [edx+ecx]
	or	ecx, DWORD PTR [esi+eax]
	mov	edx, 4
	imul	eax, edx, 0
	mov	edx, DWORD PTR _w$[ebp]
	mov	DWORD PTR [edx+eax], ecx

; 80   :         w[1] = u[1] | v[1];

	mov	eax, 4
	shl	eax, 0
	mov	ecx, 4
	shl	ecx, 0
	mov	edx, DWORD PTR _u$[ebp]
	mov	esi, DWORD PTR _v$[ebp]
	mov	eax, DWORD PTR [edx+eax]
	or	eax, DWORD PTR [esi+ecx]
	mov	ecx, 4
	shl	ecx, 0
	mov	edx, DWORD PTR _w$[ebp]
	mov	DWORD PTR [edx+ecx], eax

; 81   :         w[2] = u[2] | v[2];

	mov	eax, 4
	shl	eax, 1
	mov	ecx, 4
	shl	ecx, 1
	mov	edx, DWORD PTR _u$[ebp]
	mov	esi, DWORD PTR _v$[ebp]
	mov	eax, DWORD PTR [edx+eax]
	or	eax, DWORD PTR [esi+ecx]
	mov	ecx, 4
	shl	ecx, 1
	mov	edx, DWORD PTR _w$[ebp]
	mov	DWORD PTR [edx+ecx], eax

; 82   :         w[3] = u[3] | v[3];

	mov	eax, 4
	imul	ecx, eax, 3
	mov	edx, 4
	imul	eax, edx, 3
	mov	edx, DWORD PTR _u$[ebp]
	mov	esi, DWORD PTR _v$[ebp]
	mov	ecx, DWORD PTR [edx+ecx]
	or	ecx, DWORD PTR [esi+eax]
	mov	edx, 4
	imul	eax, edx, 3
	mov	edx, DWORD PTR _w$[ebp]
	mov	DWORD PTR [edx+eax], ecx

; 83   :         w[4] = u[4] | v[4];

	mov	eax, 4
	shl	eax, 2
	mov	ecx, 4
	shl	ecx, 2
	mov	edx, DWORD PTR _u$[ebp]
	mov	esi, DWORD PTR _v$[ebp]
	mov	eax, DWORD PTR [edx+eax]
	or	eax, DWORD PTR [esi+ecx]
	mov	ecx, 4
	shl	ecx, 2
	mov	edx, DWORD PTR _w$[ebp]
	mov	DWORD PTR [edx+ecx], eax

; 84   :         w[5] = u[5] | v[5];

	mov	eax, 4
	imul	ecx, eax, 5
	mov	edx, 4
	imul	eax, edx, 5
	mov	edx, DWORD PTR _u$[ebp]
	mov	esi, DWORD PTR _v$[ebp]
	mov	ecx, DWORD PTR [edx+ecx]
	or	ecx, DWORD PTR [esi+eax]
	mov	edx, 4
	imul	eax, edx, 5
	mov	edx, DWORD PTR _w$[ebp]
	mov	DWORD PTR [edx+eax], ecx

; 85   :         w[6] = u[6] | v[6];

	mov	eax, 4
	imul	ecx, eax, 6
	mov	edx, 4
	imul	eax, edx, 6
	mov	edx, DWORD PTR _u$[ebp]
	mov	esi, DWORD PTR _v$[ebp]
	mov	ecx, DWORD PTR [edx+ecx]
	or	ecx, DWORD PTR [esi+eax]
	mov	edx, 4
	imul	eax, edx, 6
	mov	edx, DWORD PTR _w$[ebp]
	mov	DWORD PTR [edx+eax], ecx

; 86   :         w[7] = u[7] | v[7];

	mov	eax, 4
	imul	ecx, eax, 7
	mov	edx, 4
	imul	eax, edx, 7
	mov	edx, DWORD PTR _u$[ebp]
	mov	esi, DWORD PTR _v$[ebp]
	mov	ecx, DWORD PTR [edx+ecx]
	or	ecx, DWORD PTR [esi+eax]
	mov	edx, 4
	imul	eax, edx, 7
	mov	edx, DWORD PTR _w$[ebp]
	mov	DWORD PTR [edx+eax], ecx

; 87   :         w[8] = u[8] | v[8];

	mov	eax, 4
	shl	eax, 3
	mov	ecx, 4
	shl	ecx, 3
	mov	edx, DWORD PTR _u$[ebp]
	mov	esi, DWORD PTR _v$[ebp]
	mov	eax, DWORD PTR [edx+eax]
	or	eax, DWORD PTR [esi+ecx]
	mov	ecx, 4
	shl	ecx, 3
	mov	edx, DWORD PTR _w$[ebp]
	mov	DWORD PTR [edx+ecx], eax

; 88   :         w[9] = u[9] | v[9];

	mov	eax, 4
	imul	ecx, eax, 9
	mov	edx, 4
	imul	eax, edx, 9
	mov	edx, DWORD PTR _u$[ebp]
	mov	esi, DWORD PTR _v$[ebp]
	mov	ecx, DWORD PTR [edx+ecx]
	or	ecx, DWORD PTR [esi+eax]
	mov	edx, 4
	imul	eax, edx, 9
	mov	edx, DWORD PTR _w$[ebp]
	mov	DWORD PTR [edx+eax], ecx

; 89   :         w[10] = u[10] | v[10];

	mov	eax, 4
	imul	ecx, eax, 10
	mov	edx, 4
	imul	eax, edx, 10
	mov	edx, DWORD PTR _u$[ebp]
	mov	esi, DWORD PTR _v$[ebp]
	mov	ecx, DWORD PTR [edx+ecx]
	or	ecx, DWORD PTR [esi+eax]
	mov	edx, 4
	imul	eax, edx, 10
	mov	edx, DWORD PTR _w$[ebp]
	mov	DWORD PTR [edx+eax], ecx

; 90   :         w[11] = u[11] | v[11];

	mov	eax, 4
	imul	ecx, eax, 11
	mov	edx, 4
	imul	eax, edx, 11
	mov	edx, DWORD PTR _u$[ebp]
	mov	esi, DWORD PTR _v$[ebp]
	mov	ecx, DWORD PTR [edx+ecx]
	or	ecx, DWORD PTR [esi+eax]
	mov	edx, 4
	imul	eax, edx, 11
	mov	edx, DWORD PTR _w$[ebp]
	mov	DWORD PTR [edx+eax], ecx

; 91   :         w[12] = u[12] | v[12];

	mov	eax, 4
	imul	ecx, eax, 12
	mov	edx, 4
	imul	eax, edx, 12
	mov	edx, DWORD PTR _u$[ebp]
	mov	esi, DWORD PTR _v$[ebp]
	mov	ecx, DWORD PTR [edx+ecx]
	or	ecx, DWORD PTR [esi+eax]
	mov	edx, 4
	imul	eax, edx, 12
	mov	edx, DWORD PTR _w$[ebp]
	mov	DWORD PTR [edx+eax], ecx

; 92   :         w[13] = u[13] | v[13];

	mov	eax, 4
	imul	ecx, eax, 13
	mov	edx, 4
	imul	eax, edx, 13
	mov	edx, DWORD PTR _u$[ebp]
	mov	esi, DWORD PTR _v$[ebp]
	mov	ecx, DWORD PTR [edx+ecx]
	or	ecx, DWORD PTR [esi+eax]
	mov	edx, 4
	imul	eax, edx, 13
	mov	edx, DWORD PTR _w$[ebp]
	mov	DWORD PTR [edx+eax], ecx

; 93   :         w[14] = u[14] | v[14];

	mov	eax, 4
	imul	ecx, eax, 14
	mov	edx, 4
	imul	eax, edx, 14
	mov	edx, DWORD PTR _u$[ebp]
	mov	esi, DWORD PTR _v$[ebp]
	mov	ecx, DWORD PTR [edx+ecx]
	or	ecx, DWORD PTR [esi+eax]
	mov	edx, 4
	imul	eax, edx, 14
	mov	edx, DWORD PTR _w$[ebp]
	mov	DWORD PTR [edx+eax], ecx

; 94   :         w[15] = u[15] | v[15];

	mov	eax, 4
	imul	ecx, eax, 15
	mov	edx, 4
	imul	eax, edx, 15
	mov	edx, DWORD PTR _u$[ebp]
	mov	esi, DWORD PTR _v$[ebp]
	mov	ecx, DWORD PTR [edx+ecx]
	or	ecx, DWORD PTR [esi+eax]
	mov	edx, 4
	imul	eax, edx, 15
	mov	edx, DWORD PTR _w$[ebp]
	mov	DWORD PTR [edx+eax], ecx

; 95   :         w[16] = u[16] | v[16];

	mov	eax, 4
	shl	eax, 4
	mov	ecx, 4
	shl	ecx, 4
	mov	edx, DWORD PTR _u$[ebp]
	mov	esi, DWORD PTR _v$[ebp]
	mov	eax, DWORD PTR [edx+eax]
	or	eax, DWORD PTR [esi+ecx]
	mov	ecx, 4
	shl	ecx, 4
	mov	edx, DWORD PTR _w$[ebp]
	mov	DWORD PTR [edx+ecx], eax

; 96   :         w[17] = u[17] | v[17];

	mov	eax, 4
	imul	ecx, eax, 17
	mov	edx, 4
	imul	eax, edx, 17
	mov	edx, DWORD PTR _u$[ebp]
	mov	esi, DWORD PTR _v$[ebp]
	mov	ecx, DWORD PTR [edx+ecx]
	or	ecx, DWORD PTR [esi+eax]
	mov	edx, 4
	imul	eax, edx, 17
	mov	edx, DWORD PTR _w$[ebp]
	mov	DWORD PTR [edx+eax], ecx

; 97   :         w[18] = u[18] | v[18];

	mov	eax, 4
	imul	ecx, eax, 18
	mov	edx, 4
	imul	eax, edx, 18
	mov	edx, DWORD PTR _u$[ebp]
	mov	esi, DWORD PTR _v$[ebp]
	mov	ecx, DWORD PTR [edx+ecx]
	or	ecx, DWORD PTR [esi+eax]
	mov	edx, 4
	imul	eax, edx, 18
	mov	edx, DWORD PTR _w$[ebp]
	mov	DWORD PTR [edx+eax], ecx

; 98   :         w[19] = u[19] | v[19];

	mov	eax, 4
	imul	ecx, eax, 19
	mov	edx, 4
	imul	eax, edx, 19
	mov	edx, DWORD PTR _u$[ebp]
	mov	esi, DWORD PTR _v$[ebp]
	mov	ecx, DWORD PTR [edx+ecx]
	or	ecx, DWORD PTR [esi+eax]
	mov	edx, 4
	imul	eax, edx, 19
	mov	edx, DWORD PTR _w$[ebp]
	mov	DWORD PTR [edx+eax], ecx

; 99   :         w[20] = u[20] | v[20];

	mov	eax, 4
	imul	ecx, eax, 20
	mov	edx, 4
	imul	eax, edx, 20
	mov	edx, DWORD PTR _u$[ebp]
	mov	esi, DWORD PTR _v$[ebp]
	mov	ecx, DWORD PTR [edx+ecx]
	or	ecx, DWORD PTR [esi+eax]
	mov	edx, 4
	imul	eax, edx, 20
	mov	edx, DWORD PTR _w$[ebp]
	mov	DWORD PTR [edx+eax], ecx

; 100  :         w[21] = u[21] | v[21];

	mov	eax, 4
	imul	ecx, eax, 21
	mov	edx, 4
	imul	eax, edx, 21
	mov	edx, DWORD PTR _u$[ebp]
	mov	esi, DWORD PTR _v$[ebp]
	mov	ecx, DWORD PTR [edx+ecx]
	or	ecx, DWORD PTR [esi+eax]
	mov	edx, 4
	imul	eax, edx, 21
	mov	edx, DWORD PTR _w$[ebp]
	mov	DWORD PTR [edx+eax], ecx

; 101  :         w[22] = u[22] | v[22];

	mov	eax, 4
	imul	ecx, eax, 22
	mov	edx, 4
	imul	eax, edx, 22
	mov	edx, DWORD PTR _u$[ebp]
	mov	esi, DWORD PTR _v$[ebp]
	mov	ecx, DWORD PTR [edx+ecx]
	or	ecx, DWORD PTR [esi+eax]
	mov	edx, 4
	imul	eax, edx, 22
	mov	edx, DWORD PTR _w$[ebp]
	mov	DWORD PTR [edx+eax], ecx

; 102  :         w[23] = u[23] | v[23];

	mov	eax, 4
	imul	ecx, eax, 23
	mov	edx, 4
	imul	eax, edx, 23
	mov	edx, DWORD PTR _u$[ebp]
	mov	esi, DWORD PTR _v$[ebp]
	mov	ecx, DWORD PTR [edx+ecx]
	or	ecx, DWORD PTR [esi+eax]
	mov	edx, 4
	imul	eax, edx, 23
	mov	edx, DWORD PTR _w$[ebp]
	mov	DWORD PTR [edx+eax], ecx

; 103  :         w[24] = u[24] | v[24];

	mov	eax, 4
	imul	ecx, eax, 24
	mov	edx, 4
	imul	eax, edx, 24
	mov	edx, DWORD PTR _u$[ebp]
	mov	esi, DWORD PTR _v$[ebp]
	mov	ecx, DWORD PTR [edx+ecx]
	or	ecx, DWORD PTR [esi+eax]
	mov	edx, 4
	imul	eax, edx, 24
	mov	edx, DWORD PTR _w$[ebp]
	mov	DWORD PTR [edx+eax], ecx

; 104  :         w[25] = u[25] | v[25];

	mov	eax, 4
	imul	ecx, eax, 25
	mov	edx, 4
	imul	eax, edx, 25
	mov	edx, DWORD PTR _u$[ebp]
	mov	esi, DWORD PTR _v$[ebp]
	mov	ecx, DWORD PTR [edx+ecx]
	or	ecx, DWORD PTR [esi+eax]
	mov	edx, 4
	imul	eax, edx, 25
	mov	edx, DWORD PTR _w$[ebp]
	mov	DWORD PTR [edx+eax], ecx

; 105  :         w[26] = u[26] | v[26];

	mov	eax, 4
	imul	ecx, eax, 26
	mov	edx, 4
	imul	eax, edx, 26
	mov	edx, DWORD PTR _u$[ebp]
	mov	esi, DWORD PTR _v$[ebp]
	mov	ecx, DWORD PTR [edx+ecx]
	or	ecx, DWORD PTR [esi+eax]
	mov	edx, 4
	imul	eax, edx, 26
	mov	edx, DWORD PTR _w$[ebp]
	mov	DWORD PTR [edx+eax], ecx

; 106  :         w[27] = u[27] | v[27];

	mov	eax, 4
	imul	ecx, eax, 27
	mov	edx, 4
	imul	eax, edx, 27
	mov	edx, DWORD PTR _u$[ebp]
	mov	esi, DWORD PTR _v$[ebp]
	mov	ecx, DWORD PTR [edx+ecx]
	or	ecx, DWORD PTR [esi+eax]
	mov	edx, 4
	imul	eax, edx, 27
	mov	edx, DWORD PTR _w$[ebp]
	mov	DWORD PTR [edx+eax], ecx

; 107  :         w[28] = u[28] | v[28];

	mov	eax, 4
	imul	ecx, eax, 28
	mov	edx, 4
	imul	eax, edx, 28
	mov	edx, DWORD PTR _u$[ebp]
	mov	esi, DWORD PTR _v$[ebp]
	mov	ecx, DWORD PTR [edx+ecx]
	or	ecx, DWORD PTR [esi+eax]
	mov	edx, 4
	imul	eax, edx, 28
	mov	edx, DWORD PTR _w$[ebp]
	mov	DWORD PTR [edx+eax], ecx

; 108  :         w[29] = u[29] | v[29];

	mov	eax, 4
	imul	ecx, eax, 29
	mov	edx, 4
	imul	eax, edx, 29
	mov	edx, DWORD PTR _u$[ebp]
	mov	esi, DWORD PTR _v$[ebp]
	mov	ecx, DWORD PTR [edx+ecx]
	or	ecx, DWORD PTR [esi+eax]
	mov	edx, 4
	imul	eax, edx, 29
	mov	edx, DWORD PTR _w$[ebp]
	mov	DWORD PTR [edx+eax], ecx

; 109  :         w[30] = u[30] | v[30];

	mov	eax, 4
	imul	ecx, eax, 30
	mov	edx, 4
	imul	eax, edx, 30
	mov	edx, DWORD PTR _u$[ebp]
	mov	esi, DWORD PTR _v$[ebp]
	mov	ecx, DWORD PTR [edx+ecx]
	or	ecx, DWORD PTR [esi+eax]
	mov	edx, 4
	imul	eax, edx, 30
	mov	edx, DWORD PTR _w$[ebp]
	mov	DWORD PTR [edx+eax], ecx

; 110  :         w[31] = u[31] | v[31];

	mov	eax, 4
	imul	ecx, eax, 31
	mov	edx, 4
	imul	eax, edx, 31
	mov	edx, DWORD PTR _u$[ebp]
	mov	esi, DWORD PTR _v$[ebp]
	mov	ecx, DWORD PTR [edx+ecx]
	or	ecx, DWORD PTR [esi+eax]
	mov	edx, 4
	imul	eax, edx, 31
	mov	edx, DWORD PTR _w$[ebp]
	mov	DWORD PTR [edx+eax], ecx

; 111  :         u += 32;

	mov	eax, DWORD PTR _u$[ebp]
	add	eax, 128				; 00000080H
	mov	DWORD PTR _u$[ebp], eax

; 112  :         v += 32;

	mov	ecx, DWORD PTR _v$[ebp]
	add	ecx, 128				; 00000080H
	mov	DWORD PTR _v$[ebp], ecx

; 113  :         w += 32;

	mov	edx, DWORD PTR _w$[ebp]
	add	edx, 128				; 00000080H
	mov	DWORD PTR _w$[ebp], edx

; 114  :         --count;

	mov	eax, DWORD PTR _count$[ebp]
	sub	eax, 1
	mov	DWORD PTR _count$[ebp], eax

; 115  :     }

	jmp	$LN2@BitwiseOr_
$LN3@BitwiseOr_:

; 116  : 
; 117  :     if (or_count & 0x10)

	mov	ecx, DWORD PTR _or_count$[ebp]
	and	ecx, 16					; 00000010H
	je	$LN4@BitwiseOr_

; 118  :     {
; 119  :         w[0] = u[0] | v[0];

	mov	edx, 4
	imul	eax, edx, 0
	mov	ecx, 4
	imul	edx, ecx, 0
	mov	ecx, DWORD PTR _u$[ebp]
	mov	esi, DWORD PTR _v$[ebp]
	mov	eax, DWORD PTR [ecx+eax]
	or	eax, DWORD PTR [esi+edx]
	mov	ecx, 4
	imul	edx, ecx, 0
	mov	ecx, DWORD PTR _w$[ebp]
	mov	DWORD PTR [ecx+edx], eax

; 120  :         w[1] = u[1] | v[1];

	mov	edx, 4
	shl	edx, 0
	mov	eax, 4
	shl	eax, 0
	mov	ecx, DWORD PTR _u$[ebp]
	mov	esi, DWORD PTR _v$[ebp]
	mov	edx, DWORD PTR [ecx+edx]
	or	edx, DWORD PTR [esi+eax]
	mov	eax, 4
	shl	eax, 0
	mov	ecx, DWORD PTR _w$[ebp]
	mov	DWORD PTR [ecx+eax], edx

; 121  :         w[2] = u[2] | v[2];

	mov	edx, 4
	shl	edx, 1
	mov	eax, 4
	shl	eax, 1
	mov	ecx, DWORD PTR _u$[ebp]
	mov	esi, DWORD PTR _v$[ebp]
	mov	edx, DWORD PTR [ecx+edx]
	or	edx, DWORD PTR [esi+eax]
	mov	eax, 4
	shl	eax, 1
	mov	ecx, DWORD PTR _w$[ebp]
	mov	DWORD PTR [ecx+eax], edx

; 122  :         w[3] = u[3] | v[3];

	mov	edx, 4
	imul	eax, edx, 3
	mov	ecx, 4
	imul	edx, ecx, 3
	mov	ecx, DWORD PTR _u$[ebp]
	mov	esi, DWORD PTR _v$[ebp]
	mov	eax, DWORD PTR [ecx+eax]
	or	eax, DWORD PTR [esi+edx]
	mov	ecx, 4
	imul	edx, ecx, 3
	mov	ecx, DWORD PTR _w$[ebp]
	mov	DWORD PTR [ecx+edx], eax

; 123  :         w[4] = u[4] | v[4];

	mov	edx, 4
	shl	edx, 2
	mov	eax, 4
	shl	eax, 2
	mov	ecx, DWORD PTR _u$[ebp]
	mov	esi, DWORD PTR _v$[ebp]
	mov	edx, DWORD PTR [ecx+edx]
	or	edx, DWORD PTR [esi+eax]
	mov	eax, 4
	shl	eax, 2
	mov	ecx, DWORD PTR _w$[ebp]
	mov	DWORD PTR [ecx+eax], edx

; 124  :         w[5] = u[5] | v[5];

	mov	edx, 4
	imul	eax, edx, 5
	mov	ecx, 4
	imul	edx, ecx, 5
	mov	ecx, DWORD PTR _u$[ebp]
	mov	esi, DWORD PTR _v$[ebp]
	mov	eax, DWORD PTR [ecx+eax]
	or	eax, DWORD PTR [esi+edx]
	mov	ecx, 4
	imul	edx, ecx, 5
	mov	ecx, DWORD PTR _w$[ebp]
	mov	DWORD PTR [ecx+edx], eax

; 125  :         w[6] = u[6] | v[6];

	mov	edx, 4
	imul	eax, edx, 6
	mov	ecx, 4
	imul	edx, ecx, 6
	mov	ecx, DWORD PTR _u$[ebp]
	mov	esi, DWORD PTR _v$[ebp]
	mov	eax, DWORD PTR [ecx+eax]
	or	eax, DWORD PTR [esi+edx]
	mov	ecx, 4
	imul	edx, ecx, 6
	mov	ecx, DWORD PTR _w$[ebp]
	mov	DWORD PTR [ecx+edx], eax

; 126  :         w[7] = u[7] | v[7];

	mov	edx, 4
	imul	eax, edx, 7
	mov	ecx, 4
	imul	edx, ecx, 7
	mov	ecx, DWORD PTR _u$[ebp]
	mov	esi, DWORD PTR _v$[ebp]
	mov	eax, DWORD PTR [ecx+eax]
	or	eax, DWORD PTR [esi+edx]
	mov	ecx, 4
	imul	edx, ecx, 7
	mov	ecx, DWORD PTR _w$[ebp]
	mov	DWORD PTR [ecx+edx], eax

; 127  :         w[8] = u[8] | v[8];

	mov	edx, 4
	shl	edx, 3
	mov	eax, 4
	shl	eax, 3
	mov	ecx, DWORD PTR _u$[ebp]
	mov	esi, DWORD PTR _v$[ebp]
	mov	edx, DWORD PTR [ecx+edx]
	or	edx, DWORD PTR [esi+eax]
	mov	eax, 4
	shl	eax, 3
	mov	ecx, DWORD PTR _w$[ebp]
	mov	DWORD PTR [ecx+eax], edx

; 128  :         w[9] = u[9] | v[9];

	mov	edx, 4
	imul	eax, edx, 9
	mov	ecx, 4
	imul	edx, ecx, 9
	mov	ecx, DWORD PTR _u$[ebp]
	mov	esi, DWORD PTR _v$[ebp]
	mov	eax, DWORD PTR [ecx+eax]
	or	eax, DWORD PTR [esi+edx]
	mov	ecx, 4
	imul	edx, ecx, 9
	mov	ecx, DWORD PTR _w$[ebp]
	mov	DWORD PTR [ecx+edx], eax

; 129  :         w[10] = u[10] | v[10];

	mov	edx, 4
	imul	eax, edx, 10
	mov	ecx, 4
	imul	edx, ecx, 10
	mov	ecx, DWORD PTR _u$[ebp]
	mov	esi, DWORD PTR _v$[ebp]
	mov	eax, DWORD PTR [ecx+eax]
	or	eax, DWORD PTR [esi+edx]
	mov	ecx, 4
	imul	edx, ecx, 10
	mov	ecx, DWORD PTR _w$[ebp]
	mov	DWORD PTR [ecx+edx], eax

; 130  :         w[11] = u[11] | v[11];

	mov	edx, 4
	imul	eax, edx, 11
	mov	ecx, 4
	imul	edx, ecx, 11
	mov	ecx, DWORD PTR _u$[ebp]
	mov	esi, DWORD PTR _v$[ebp]
	mov	eax, DWORD PTR [ecx+eax]
	or	eax, DWORD PTR [esi+edx]
	mov	ecx, 4
	imul	edx, ecx, 11
	mov	ecx, DWORD PTR _w$[ebp]
	mov	DWORD PTR [ecx+edx], eax

; 131  :         w[12] = u[12] | v[12];

	mov	edx, 4
	imul	eax, edx, 12
	mov	ecx, 4
	imul	edx, ecx, 12
	mov	ecx, DWORD PTR _u$[ebp]
	mov	esi, DWORD PTR _v$[ebp]
	mov	eax, DWORD PTR [ecx+eax]
	or	eax, DWORD PTR [esi+edx]
	mov	ecx, 4
	imul	edx, ecx, 12
	mov	ecx, DWORD PTR _w$[ebp]
	mov	DWORD PTR [ecx+edx], eax

; 132  :         w[13] = u[13] | v[13];

	mov	edx, 4
	imul	eax, edx, 13
	mov	ecx, 4
	imul	edx, ecx, 13
	mov	ecx, DWORD PTR _u$[ebp]
	mov	esi, DWORD PTR _v$[ebp]
	mov	eax, DWORD PTR [ecx+eax]
	or	eax, DWORD PTR [esi+edx]
	mov	ecx, 4
	imul	edx, ecx, 13
	mov	ecx, DWORD PTR _w$[ebp]
	mov	DWORD PTR [ecx+edx], eax

; 133  :         w[14] = u[14] | v[14];

	mov	edx, 4
	imul	eax, edx, 14
	mov	ecx, 4
	imul	edx, ecx, 14
	mov	ecx, DWORD PTR _u$[ebp]
	mov	esi, DWORD PTR _v$[ebp]
	mov	eax, DWORD PTR [ecx+eax]
	or	eax, DWORD PTR [esi+edx]
	mov	ecx, 4
	imul	edx, ecx, 14
	mov	ecx, DWORD PTR _w$[ebp]
	mov	DWORD PTR [ecx+edx], eax

; 134  :         w[15] = u[15] | v[15];

	mov	edx, 4
	imul	eax, edx, 15
	mov	ecx, 4
	imul	edx, ecx, 15
	mov	ecx, DWORD PTR _u$[ebp]
	mov	esi, DWORD PTR _v$[ebp]
	mov	eax, DWORD PTR [ecx+eax]
	or	eax, DWORD PTR [esi+edx]
	mov	ecx, 4
	imul	edx, ecx, 15
	mov	ecx, DWORD PTR _w$[ebp]
	mov	DWORD PTR [ecx+edx], eax

; 135  :         u += 16;

	mov	edx, DWORD PTR _u$[ebp]
	add	edx, 64					; 00000040H
	mov	DWORD PTR _u$[ebp], edx

; 136  :         v += 16;

	mov	eax, DWORD PTR _v$[ebp]
	add	eax, 64					; 00000040H
	mov	DWORD PTR _v$[ebp], eax

; 137  :         w += 16;

	mov	ecx, DWORD PTR _w$[ebp]
	add	ecx, 64					; 00000040H
	mov	DWORD PTR _w$[ebp], ecx
$LN4@BitwiseOr_:

; 138  :     }
; 139  : 
; 140  :     if (or_count & 0x8)

	mov	edx, DWORD PTR _or_count$[ebp]
	and	edx, 8
	je	$LN5@BitwiseOr_

; 141  :     {
; 142  :         w[0] = u[0] | v[0];

	mov	eax, 4
	imul	ecx, eax, 0
	mov	edx, 4
	imul	eax, edx, 0
	mov	edx, DWORD PTR _u$[ebp]
	mov	esi, DWORD PTR _v$[ebp]
	mov	ecx, DWORD PTR [edx+ecx]
	or	ecx, DWORD PTR [esi+eax]
	mov	edx, 4
	imul	eax, edx, 0
	mov	edx, DWORD PTR _w$[ebp]
	mov	DWORD PTR [edx+eax], ecx

; 143  :         w[1] = u[1] | v[1];

	mov	eax, 4
	shl	eax, 0
	mov	ecx, 4
	shl	ecx, 0
	mov	edx, DWORD PTR _u$[ebp]
	mov	esi, DWORD PTR _v$[ebp]
	mov	eax, DWORD PTR [edx+eax]
	or	eax, DWORD PTR [esi+ecx]
	mov	ecx, 4
	shl	ecx, 0
	mov	edx, DWORD PTR _w$[ebp]
	mov	DWORD PTR [edx+ecx], eax

; 144  :         w[2] = u[2] | v[2];

	mov	eax, 4
	shl	eax, 1
	mov	ecx, 4
	shl	ecx, 1
	mov	edx, DWORD PTR _u$[ebp]
	mov	esi, DWORD PTR _v$[ebp]
	mov	eax, DWORD PTR [edx+eax]
	or	eax, DWORD PTR [esi+ecx]
	mov	ecx, 4
	shl	ecx, 1
	mov	edx, DWORD PTR _w$[ebp]
	mov	DWORD PTR [edx+ecx], eax

; 145  :         w[3] = u[3] | v[3];

	mov	eax, 4
	imul	ecx, eax, 3
	mov	edx, 4
	imul	eax, edx, 3
	mov	edx, DWORD PTR _u$[ebp]
	mov	esi, DWORD PTR _v$[ebp]
	mov	ecx, DWORD PTR [edx+ecx]
	or	ecx, DWORD PTR [esi+eax]
	mov	edx, 4
	imul	eax, edx, 3
	mov	edx, DWORD PTR _w$[ebp]
	mov	DWORD PTR [edx+eax], ecx

; 146  :         w[4] = u[4] | v[4];

	mov	eax, 4
	shl	eax, 2
	mov	ecx, 4
	shl	ecx, 2
	mov	edx, DWORD PTR _u$[ebp]
	mov	esi, DWORD PTR _v$[ebp]
	mov	eax, DWORD PTR [edx+eax]
	or	eax, DWORD PTR [esi+ecx]
	mov	ecx, 4
	shl	ecx, 2
	mov	edx, DWORD PTR _w$[ebp]
	mov	DWORD PTR [edx+ecx], eax

; 147  :         w[5] = u[5] | v[5];

	mov	eax, 4
	imul	ecx, eax, 5
	mov	edx, 4
	imul	eax, edx, 5
	mov	edx, DWORD PTR _u$[ebp]
	mov	esi, DWORD PTR _v$[ebp]
	mov	ecx, DWORD PTR [edx+ecx]
	or	ecx, DWORD PTR [esi+eax]
	mov	edx, 4
	imul	eax, edx, 5
	mov	edx, DWORD PTR _w$[ebp]
	mov	DWORD PTR [edx+eax], ecx

; 148  :         w[6] = u[6] | v[6];

	mov	eax, 4
	imul	ecx, eax, 6
	mov	edx, 4
	imul	eax, edx, 6
	mov	edx, DWORD PTR _u$[ebp]
	mov	esi, DWORD PTR _v$[ebp]
	mov	ecx, DWORD PTR [edx+ecx]
	or	ecx, DWORD PTR [esi+eax]
	mov	edx, 4
	imul	eax, edx, 6
	mov	edx, DWORD PTR _w$[ebp]
	mov	DWORD PTR [edx+eax], ecx

; 149  :         w[7] = u[7] | v[7];

	mov	eax, 4
	imul	ecx, eax, 7
	mov	edx, 4
	imul	eax, edx, 7
	mov	edx, DWORD PTR _u$[ebp]
	mov	esi, DWORD PTR _v$[ebp]
	mov	ecx, DWORD PTR [edx+ecx]
	or	ecx, DWORD PTR [esi+eax]
	mov	edx, 4
	imul	eax, edx, 7
	mov	edx, DWORD PTR _w$[ebp]
	mov	DWORD PTR [edx+eax], ecx

; 150  :         u += 8;

	mov	eax, DWORD PTR _u$[ebp]
	add	eax, 32					; 00000020H
	mov	DWORD PTR _u$[ebp], eax

; 151  :         v += 8;

	mov	ecx, DWORD PTR _v$[ebp]
	add	ecx, 32					; 00000020H
	mov	DWORD PTR _v$[ebp], ecx

; 152  :         w += 8;

	mov	edx, DWORD PTR _w$[ebp]
	add	edx, 32					; 00000020H
	mov	DWORD PTR _w$[ebp], edx
$LN5@BitwiseOr_:

; 153  :     }
; 154  : 
; 155  :     if (or_count & 0x4)

	mov	eax, DWORD PTR _or_count$[ebp]
	and	eax, 4
	je	$LN6@BitwiseOr_

; 156  :     {
; 157  :         w[0] = u[0] | v[0];

	mov	ecx, 4
	imul	edx, ecx, 0
	mov	eax, 4
	imul	ecx, eax, 0
	mov	eax, DWORD PTR _u$[ebp]
	mov	esi, DWORD PTR _v$[ebp]
	mov	edx, DWORD PTR [eax+edx]
	or	edx, DWORD PTR [esi+ecx]
	mov	eax, 4
	imul	ecx, eax, 0
	mov	eax, DWORD PTR _w$[ebp]
	mov	DWORD PTR [eax+ecx], edx

; 158  :         w[1] = u[1] | v[1];

	mov	ecx, 4
	shl	ecx, 0
	mov	edx, 4
	shl	edx, 0
	mov	eax, DWORD PTR _u$[ebp]
	mov	esi, DWORD PTR _v$[ebp]
	mov	ecx, DWORD PTR [eax+ecx]
	or	ecx, DWORD PTR [esi+edx]
	mov	edx, 4
	shl	edx, 0
	mov	eax, DWORD PTR _w$[ebp]
	mov	DWORD PTR [eax+edx], ecx

; 159  :         w[2] = u[2] | v[2];

	mov	ecx, 4
	shl	ecx, 1
	mov	edx, 4
	shl	edx, 1
	mov	eax, DWORD PTR _u$[ebp]
	mov	esi, DWORD PTR _v$[ebp]
	mov	ecx, DWORD PTR [eax+ecx]
	or	ecx, DWORD PTR [esi+edx]
	mov	edx, 4
	shl	edx, 1
	mov	eax, DWORD PTR _w$[ebp]
	mov	DWORD PTR [eax+edx], ecx

; 160  :         w[3] = u[3] | v[3];

	mov	ecx, 4
	imul	edx, ecx, 3
	mov	eax, 4
	imul	ecx, eax, 3
	mov	eax, DWORD PTR _u$[ebp]
	mov	esi, DWORD PTR _v$[ebp]
	mov	edx, DWORD PTR [eax+edx]
	or	edx, DWORD PTR [esi+ecx]
	mov	eax, 4
	imul	ecx, eax, 3
	mov	eax, DWORD PTR _w$[ebp]
	mov	DWORD PTR [eax+ecx], edx

; 161  :         u += 4;

	mov	ecx, DWORD PTR _u$[ebp]
	add	ecx, 16					; 00000010H
	mov	DWORD PTR _u$[ebp], ecx

; 162  :         v += 4;

	mov	edx, DWORD PTR _v$[ebp]
	add	edx, 16					; 00000010H
	mov	DWORD PTR _v$[ebp], edx

; 163  :         w += 4;

	mov	eax, DWORD PTR _w$[ebp]
	add	eax, 16					; 00000010H
	mov	DWORD PTR _w$[ebp], eax
$LN6@BitwiseOr_:

; 164  :     }
; 165  : 
; 166  :     if (or_count & 0x2)

	mov	ecx, DWORD PTR _or_count$[ebp]
	and	ecx, 2
	je	SHORT $LN7@BitwiseOr_

; 167  :     {
; 168  :         w[0] = u[0] | v[0];

	mov	edx, 4
	imul	eax, edx, 0
	mov	ecx, 4
	imul	edx, ecx, 0
	mov	ecx, DWORD PTR _u$[ebp]
	mov	esi, DWORD PTR _v$[ebp]
	mov	eax, DWORD PTR [ecx+eax]
	or	eax, DWORD PTR [esi+edx]
	mov	ecx, 4
	imul	edx, ecx, 0
	mov	ecx, DWORD PTR _w$[ebp]
	mov	DWORD PTR [ecx+edx], eax

; 169  :         w[1] = u[1] | v[1];

	mov	edx, 4
	shl	edx, 0
	mov	eax, 4
	shl	eax, 0
	mov	ecx, DWORD PTR _u$[ebp]
	mov	esi, DWORD PTR _v$[ebp]
	mov	edx, DWORD PTR [ecx+edx]
	or	edx, DWORD PTR [esi+eax]
	mov	eax, 4
	shl	eax, 0
	mov	ecx, DWORD PTR _w$[ebp]
	mov	DWORD PTR [ecx+eax], edx

; 170  :         u += 2;

	mov	edx, DWORD PTR _u$[ebp]
	add	edx, 8
	mov	DWORD PTR _u$[ebp], edx

; 171  :         v += 2;

	mov	eax, DWORD PTR _v$[ebp]
	add	eax, 8
	mov	DWORD PTR _v$[ebp], eax

; 172  :         w += 2;

	mov	ecx, DWORD PTR _w$[ebp]
	add	ecx, 8
	mov	DWORD PTR _w$[ebp], ecx
$LN7@BitwiseOr_:

; 173  :     }
; 174  : 
; 175  :     if (or_count & 0x1)

	mov	edx, DWORD PTR _or_count$[ebp]
	and	edx, 1
	je	SHORT $LN8@BitwiseOr_

; 176  :     {
; 177  :         w[0] = u[0] | v[0];

	mov	eax, 4
	imul	ecx, eax, 0
	mov	edx, 4
	imul	eax, edx, 0
	mov	edx, DWORD PTR _u$[ebp]
	mov	esi, DWORD PTR _v$[ebp]
	mov	ecx, DWORD PTR [edx+ecx]
	or	ecx, DWORD PTR [esi+eax]
	mov	edx, 4
	imul	eax, edx, 0
	mov	edx, DWORD PTR _w$[ebp]
	mov	DWORD PTR [edx+eax], ecx

; 178  :         u += 1;

	mov	eax, DWORD PTR _u$[ebp]
	add	eax, 4
	mov	DWORD PTR _u$[ebp], eax

; 179  :         v += 1;

	mov	ecx, DWORD PTR _v$[ebp]
	add	ecx, 4
	mov	DWORD PTR _v$[ebp], ecx

; 180  :         w += 1;

	mov	edx, DWORD PTR _w$[ebp]
	add	edx, 4
	mov	DWORD PTR _w$[ebp], edx
$LN8@BitwiseOr_:

; 181  :     }
; 182  : 
; 183  :     _COPY_MEMORY_UNIT(w, u, cp_count);

	mov	eax, DWORD PTR _cp_count$[ebp]
	push	eax
	mov	ecx, DWORD PTR _u$[ebp]
	push	ecx
	mov	edx, DWORD PTR _w$[ebp]
	push	edx
	call	__COPY_MEMORY_UNIT
	add	esp, 12					; 0000000cH

; 184  : }

	pop	esi
	add	esp, 12					; 0000000cH
	cmp	ebp, esp
	call	__RTC_CheckEsp
	mov	esp, ebp
	pop	ebp
	ret	0
_BitwiseOr_X_X ENDP
_TEXT	ENDS
; Function compile flags: /Odtp /RTCsu
; File z:\sources\lunor\repos\rougemeilland\palmtree.math.core.implements\palmtree.math.core.implements\pmc_bitwiseor.c
_TEXT	SEGMENT
_u$ = 8							; size = 4
_u_count$ = 12						; size = 4
_v_hi$ = 16						; size = 4
_v_lo$ = 20						; size = 4
_w$ = 24						; size = 4
_BitwiseOr_X_2W PROC

; 51   : {

	push	ebp
	mov	ebp, esp
	mov	ecx, OFFSET __AC60EF90_pmc_bitwiseor@c
	call	@__CheckForDebuggerJustMyCode@4

; 52   :     if (u_count == 1)

	cmp	DWORD PTR _u_count$[ebp], 1
	jne	SHORT $LN2@BitwiseOr_

; 53   :     {
; 54   :         w[0] = u[0] | v_lo;

	mov	eax, 4
	imul	ecx, eax, 0
	mov	edx, DWORD PTR _u$[ebp]
	mov	eax, DWORD PTR [edx+ecx]
	or	eax, DWORD PTR _v_lo$[ebp]
	mov	ecx, 4
	imul	edx, ecx, 0
	mov	ecx, DWORD PTR _w$[ebp]
	mov	DWORD PTR [ecx+edx], eax

; 55   :         w[1] = v_hi;

	mov	edx, 4
	shl	edx, 0
	mov	eax, DWORD PTR _w$[ebp]
	mov	ecx, DWORD PTR _v_hi$[ebp]
	mov	DWORD PTR [eax+edx], ecx

; 56   :     }

	jmp	$LN1@BitwiseOr_
$LN2@BitwiseOr_:

; 57   :     else if (u_count == 2)

	cmp	DWORD PTR _u_count$[ebp], 2
	jne	SHORT $LN4@BitwiseOr_

; 58   :     {
; 59   :         w[0] = u[0] | v_lo;

	mov	edx, 4
	imul	eax, edx, 0
	mov	ecx, DWORD PTR _u$[ebp]
	mov	edx, DWORD PTR [ecx+eax]
	or	edx, DWORD PTR _v_lo$[ebp]
	mov	eax, 4
	imul	ecx, eax, 0
	mov	eax, DWORD PTR _w$[ebp]
	mov	DWORD PTR [eax+ecx], edx

; 60   :         w[1] = u[1] | v_hi;

	mov	ecx, 4
	shl	ecx, 0
	mov	edx, DWORD PTR _u$[ebp]
	mov	eax, DWORD PTR [edx+ecx]
	or	eax, DWORD PTR _v_hi$[ebp]
	mov	ecx, 4
	shl	ecx, 0
	mov	edx, DWORD PTR _w$[ebp]
	mov	DWORD PTR [edx+ecx], eax

; 61   :     }

	jmp	SHORT $LN1@BitwiseOr_
$LN4@BitwiseOr_:

; 62   :     else
; 63   :     {
; 64   :         w[0] = u[0] | v_lo;

	mov	eax, 4
	imul	ecx, eax, 0
	mov	edx, DWORD PTR _u$[ebp]
	mov	eax, DWORD PTR [edx+ecx]
	or	eax, DWORD PTR _v_lo$[ebp]
	mov	ecx, 4
	imul	edx, ecx, 0
	mov	ecx, DWORD PTR _w$[ebp]
	mov	DWORD PTR [ecx+edx], eax

; 65   :         w[1] = u[1] | v_hi;

	mov	edx, 4
	shl	edx, 0
	mov	eax, DWORD PTR _u$[ebp]
	mov	ecx, DWORD PTR [eax+edx]
	or	ecx, DWORD PTR _v_hi$[ebp]
	mov	edx, 4
	shl	edx, 0
	mov	eax, DWORD PTR _w$[ebp]
	mov	DWORD PTR [eax+edx], ecx

; 66   :         _COPY_MEMORY_UNIT(w + 2, u + 2, u_count - 2);

	mov	ecx, DWORD PTR _u_count$[ebp]
	sub	ecx, 2
	push	ecx
	mov	edx, DWORD PTR _u$[ebp]
	add	edx, 8
	push	edx
	mov	eax, DWORD PTR _w$[ebp]
	add	eax, 8
	push	eax
	call	__COPY_MEMORY_UNIT
	add	esp, 12					; 0000000cH
$LN1@BitwiseOr_:

; 67   :     }
; 68   : }

	cmp	ebp, esp
	call	__RTC_CheckEsp
	pop	ebp
	ret	0
_BitwiseOr_X_2W ENDP
_TEXT	ENDS
; Function compile flags: /Odtp /RTCsu
; File z:\sources\lunor\repos\rougemeilland\palmtree.math.core.implements\palmtree.math.core.implements\pmc_bitwiseor.c
_TEXT	SEGMENT
_u$ = 8							; size = 4
_u_count$ = 12						; size = 4
_v$ = 16						; size = 4
_w$ = 20						; size = 4
_BitwiseOr_X_1W PROC

; 39   : {

	push	ebp
	mov	ebp, esp
	mov	ecx, OFFSET __AC60EF90_pmc_bitwiseor@c
	call	@__CheckForDebuggerJustMyCode@4

; 40   :     if (u_count == 1)

	cmp	DWORD PTR _u_count$[ebp], 1
	jne	SHORT $LN2@BitwiseOr_

; 41   :         w[0] = u[0] | v;

	mov	eax, 4
	imul	ecx, eax, 0
	mov	edx, DWORD PTR _u$[ebp]
	mov	eax, DWORD PTR [edx+ecx]
	or	eax, DWORD PTR _v$[ebp]
	mov	ecx, 4
	imul	edx, ecx, 0
	mov	ecx, DWORD PTR _w$[ebp]
	mov	DWORD PTR [ecx+edx], eax
	jmp	SHORT $LN1@BitwiseOr_
$LN2@BitwiseOr_:

; 42   :     else
; 43   :     {
; 44   :         w[0] = u[0] | v;

	mov	edx, 4
	imul	eax, edx, 0
	mov	ecx, DWORD PTR _u$[ebp]
	mov	edx, DWORD PTR [ecx+eax]
	or	edx, DWORD PTR _v$[ebp]
	mov	eax, 4
	imul	ecx, eax, 0
	mov	eax, DWORD PTR _w$[ebp]
	mov	DWORD PTR [eax+ecx], edx

; 45   :         _COPY_MEMORY_UNIT(w + 1, u + 1, u_count - 1);

	mov	ecx, DWORD PTR _u_count$[ebp]
	sub	ecx, 1
	push	ecx
	mov	edx, DWORD PTR _u$[ebp]
	add	edx, 4
	push	edx
	mov	eax, DWORD PTR _w$[ebp]
	add	eax, 4
	push	eax
	call	__COPY_MEMORY_UNIT
	add	esp, 12					; 0000000cH
$LN1@BitwiseOr_:

; 46   :     }
; 47   : }

	cmp	ebp, esp
	call	__RTC_CheckEsp
	pop	ebp
	ret	0
_BitwiseOr_X_1W ENDP
_TEXT	ENDS
; Function compile flags: /Odtp /RTCsu
; File z:\sources\lunor\repos\rougemeilland\palmtree.math.core.implements\palmtree.math.core.implements\pmc_internal.h
_TEXT	SEGMENT
_pos$ = -8						; size = 4
_x$ = 8							; size = 4
__LZCNT_ALT_UNIT PROC

; 840  : {

	push	ebp
	mov	ebp, esp
	sub	esp, 12					; 0000000cH
	mov	DWORD PTR [ebp-12], -858993460		; ccccccccH
	mov	DWORD PTR [ebp-8], -858993460		; ccccccccH
	mov	DWORD PTR [ebp-4], -858993460		; ccccccccH
	mov	ecx, OFFSET __4522B509_pmc_internal@h
	call	@__CheckForDebuggerJustMyCode@4

; 841  :     if (x == 0)

	cmp	DWORD PTR _x$[ebp], 0
	jne	SHORT $LN2@LZCNT_ALT_

; 842  :         return (sizeof(x) * 8);

	mov	eax, 32					; 00000020H
	jmp	SHORT $LN1@LZCNT_ALT_
$LN2@LZCNT_ALT_:

; 843  : #ifdef _M_IX86
; 844  :     _UINT32_T pos;
; 845  : #ifdef _MSC_VER
; 846  :     _BitScanReverse(&pos, x);

	bsr	eax, DWORD PTR _x$[ebp]
	mov	DWORD PTR _pos$[ebp], eax

; 847  : #elif defined(__GNUC__)
; 848  :     __asm__("bsrl %1, %0" : "=r"(pos) : "rm"(x));
; 849  : #else
; 850  : #error unknown compiler
; 851  : #endif
; 852  : #elif defined(_M_X64)
; 853  : #ifdef _MSC_VER
; 854  :     _UINT32_T pos;
; 855  :     _BitScanReverse64(&pos, x);
; 856  : #elif defined(__GNUC__)
; 857  :     _UINT64_T pos;
; 858  :     __asm__("bsrq %1, %0" : "=r"(pos) : "rm"(x));
; 859  : #else
; 860  : #error unknown compiler
; 861  : #endif
; 862  : #else
; 863  : #error unknown platform
; 864  : #endif
; 865  :     return (sizeof(x) * 8 - 1 - pos);

	mov	eax, 31					; 0000001fH
	sub	eax, DWORD PTR _pos$[ebp]
$LN1@LZCNT_ALT_:

; 866  : }

	push	edx
	mov	ecx, ebp
	push	eax
	lea	edx, DWORD PTR $LN6@LZCNT_ALT_
	call	@_RTC_CheckStackVars@8
	pop	eax
	pop	edx
	add	esp, 12					; 0000000cH
	cmp	ebp, esp
	call	__RTC_CheckEsp
	mov	esp, ebp
	pop	ebp
	ret	0
$LN6@LZCNT_ALT_:
	DD	1
	DD	$LN5@LZCNT_ALT_
$LN5@LZCNT_ALT_:
	DD	-8					; fffffff8H
	DD	4
	DD	$LN4@LZCNT_ALT_
$LN4@LZCNT_ALT_:
	DB	112					; 00000070H
	DB	111					; 0000006fH
	DB	115					; 00000073H
	DB	0
__LZCNT_ALT_UNIT ENDP
_TEXT	ENDS
; Function compile flags: /Odtp /RTCsu
; File z:\sources\lunor\repos\rougemeilland\palmtree.math.core.implements\palmtree.math.core.implements\pmc_internal.h
_TEXT	SEGMENT
_pos$ = -8						; size = 4
_x$ = 8							; size = 4
__LZCNT_ALT_32 PROC

; 807  : {

	push	ebp
	mov	ebp, esp
	sub	esp, 12					; 0000000cH
	mov	DWORD PTR [ebp-12], -858993460		; ccccccccH
	mov	DWORD PTR [ebp-8], -858993460		; ccccccccH
	mov	DWORD PTR [ebp-4], -858993460		; ccccccccH
	mov	ecx, OFFSET __4522B509_pmc_internal@h
	call	@__CheckForDebuggerJustMyCode@4

; 808  :     if (x == 0)

	cmp	DWORD PTR _x$[ebp], 0
	jne	SHORT $LN2@LZCNT_ALT_

; 809  :         return (sizeof(x) * 8);

	mov	eax, 32					; 00000020H
	jmp	SHORT $LN1@LZCNT_ALT_
$LN2@LZCNT_ALT_:

; 810  :     _UINT32_T pos;
; 811  : #ifdef _MSC_VER
; 812  :     _BitScanReverse(&pos, x);

	bsr	eax, DWORD PTR _x$[ebp]
	mov	DWORD PTR _pos$[ebp], eax

; 813  : #elif defined(__GNUC__)
; 814  :     __asm__( "bsrl %1, %0" : "=r"(pos) : "rm"(x) );
; 815  : #else
; 816  : #error unknown compiler
; 817  : #endif
; 818  :     return (sizeof(x) * 8 - 1 - pos);

	mov	eax, 31					; 0000001fH
	sub	eax, DWORD PTR _pos$[ebp]
$LN1@LZCNT_ALT_:

; 819  : }

	push	edx
	mov	ecx, ebp
	push	eax
	lea	edx, DWORD PTR $LN6@LZCNT_ALT_
	call	@_RTC_CheckStackVars@8
	pop	eax
	pop	edx
	add	esp, 12					; 0000000cH
	cmp	ebp, esp
	call	__RTC_CheckEsp
	mov	esp, ebp
	pop	ebp
	ret	0
$LN6@LZCNT_ALT_:
	DD	1
	DD	$LN5@LZCNT_ALT_
$LN5@LZCNT_ALT_:
	DD	-8					; fffffff8H
	DD	4
	DD	$LN4@LZCNT_ALT_
$LN4@LZCNT_ALT_:
	DB	112					; 00000070H
	DB	111					; 0000006fH
	DB	115					; 00000073H
	DB	0
__LZCNT_ALT_32 ENDP
_TEXT	ENDS
; Function compile flags: /Odtp /RTCsu
; File z:\sources\lunor\repos\rougemeilland\palmtree.math.core.implements\palmtree.math.core.implements\pmc_internal.h
_TEXT	SEGMENT
tv65 = -4						; size = 4
_x$ = 8							; size = 4
_y$ = 12						; size = 4
__MAXIMUM_UNIT PROC

; 414  : {

	push	ebp
	mov	ebp, esp
	push	ecx
	mov	DWORD PTR [ebp-4], -858993460		; ccccccccH
	mov	ecx, OFFSET __4522B509_pmc_internal@h
	call	@__CheckForDebuggerJustMyCode@4

; 415  :     return (x >= y ? x : y);

	mov	eax, DWORD PTR _x$[ebp]
	cmp	eax, DWORD PTR _y$[ebp]
	jb	SHORT $LN3@MAXIMUM_UN
	mov	ecx, DWORD PTR _x$[ebp]
	mov	DWORD PTR tv65[ebp], ecx
	jmp	SHORT $LN4@MAXIMUM_UN
$LN3@MAXIMUM_UN:
	mov	edx, DWORD PTR _y$[ebp]
	mov	DWORD PTR tv65[ebp], edx
$LN4@MAXIMUM_UN:
	mov	eax, DWORD PTR tv65[ebp]

; 416  : }

	add	esp, 4
	cmp	ebp, esp
	call	__RTC_CheckEsp
	mov	esp, ebp
	pop	ebp
	ret	0
__MAXIMUM_UNIT ENDP
_TEXT	ENDS
; Function compile flags: /Odtp /RTCsu
; File z:\sources\lunor\repos\rougemeilland\palmtree.math.core.implements\palmtree.math.core.implements\pmc_internal.h
_TEXT	SEGMENT
_value$ = 8						; size = 8
_result_high$ = 16					; size = 4
__FROMDWORDTOWORD PROC

; 393  : {

	push	ebp
	mov	ebp, esp
	mov	ecx, OFFSET __4522B509_pmc_internal@h
	call	@__CheckForDebuggerJustMyCode@4

; 394  :     *result_high = (_UINT32_T)(value >> 32);

	mov	eax, DWORD PTR _value$[ebp]
	mov	edx, DWORD PTR _value$[ebp+4]
	mov	cl, 32					; 00000020H
	call	__aullshr
	mov	ecx, DWORD PTR _result_high$[ebp]
	mov	DWORD PTR [ecx], eax

; 395  :     return ((_UINT32_T)value);

	mov	eax, DWORD PTR _value$[ebp]

; 396  : }

	cmp	ebp, esp
	call	__RTC_CheckEsp
	pop	ebp
	ret	0
__FROMDWORDTOWORD ENDP
_TEXT	ENDS
; Function compile flags: /Odtp /RTCsu
; File z:\sources\lunor\repos\rougemeilland\palmtree.math.core.implements\palmtree.math.core.implements\pmc_internal.h
_TEXT	SEGMENT
_d$ = 8							; size = 4
_s$ = 12						; size = 4
_count$ = 16						; size = 4
__COPY_MEMORY_UNIT PROC

; 277  : {

	push	ebp
	mov	ebp, esp
	push	esi
	push	edi
	mov	ecx, OFFSET __4522B509_pmc_internal@h
	call	@__CheckForDebuggerJustMyCode@4

; 278  : #ifdef _M_IX86
; 279  :     __movsd((unsigned long *)d, (unsigned long *)s, (unsigned long)count);

	mov	edi, DWORD PTR _d$[ebp]
	mov	esi, DWORD PTR _s$[ebp]
	mov	ecx, DWORD PTR _count$[ebp]
	rep movsd

; 280  : #elif defined(_M_X64)
; 281  :     __movsq(d, s, count);
; 282  : #else
; 283  : #error unknown platform
; 284  : #endif
; 285  : }

	pop	edi
	pop	esi
	cmp	ebp, esp
	call	__RTC_CheckEsp
	pop	ebp
	ret	0
__COPY_MEMORY_UNIT ENDP
_TEXT	ENDS
; Function compile flags: /Odtp /RTCsu
; File z:\sources\lunor\repos\rougemeilland\palmtree.math.core.implements\palmtree.math.core.implements\pmc_bitwiseor.c
_TEXT	SEGMENT
_nw_light_check_code$1 = -48				; size = 4
_w_bit_count$2 = -40					; size = 4
_v_bit_count$3 = -36					; size = 4
_u_bit_count$4 = -32					; size = 4
_t$5 = -28						; size = 4
_nw$ = -20						; size = 4
_result$ = -12						; size = 4
_nv$ = -8						; size = 4
_nu$ = -4						; size = 4
_u$ = 8							; size = 4
_v$ = 12						; size = 4
_w$ = 16						; size = 4
_PMC_BitwiseOr_X_X@12 PROC

; 343  : {

	push	ebp
	mov	ebp, esp
	sub	esp, 52					; 00000034H
	push	edi
	lea	edi, DWORD PTR [ebp-52]
	mov	ecx, 13					; 0000000dH
	mov	eax, -858993460				; ccccccccH
	rep stosd
	mov	ecx, OFFSET __AC60EF90_pmc_bitwiseor@c
	call	@__CheckForDebuggerJustMyCode@4

; 344  :     if (u == NULL)

	cmp	DWORD PTR _u$[ebp], 0
	jne	SHORT $LN2@PMC_Bitwis

; 345  :         return (PMC_STATUS_ARGUMENT_ERROR);

	or	eax, -1
	jmp	$LN1@PMC_Bitwis
$LN2@PMC_Bitwis:

; 346  :     if (v == NULL)

	cmp	DWORD PTR _v$[ebp], 0
	jne	SHORT $LN3@PMC_Bitwis

; 347  :         return (PMC_STATUS_ARGUMENT_ERROR);

	or	eax, -1
	jmp	$LN1@PMC_Bitwis
$LN3@PMC_Bitwis:

; 348  :     if (w == NULL)

	cmp	DWORD PTR _w$[ebp], 0
	jne	SHORT $LN4@PMC_Bitwis

; 349  :         return (PMC_STATUS_ARGUMENT_ERROR);

	or	eax, -1
	jmp	$LN1@PMC_Bitwis
$LN4@PMC_Bitwis:

; 350  :     NUMBER_HEADER* nu = (NUMBER_HEADER*)u;

	mov	eax, DWORD PTR _u$[ebp]
	mov	DWORD PTR _nu$[ebp], eax

; 351  :     NUMBER_HEADER* nv = (NUMBER_HEADER*)v;

	mov	ecx, DWORD PTR _v$[ebp]
	mov	DWORD PTR _nv$[ebp], ecx

; 352  :     PMC_STATUS_CODE result;
; 353  :     if ((result = CheckNumber(nu)) != PMC_STATUS_OK)

	mov	edx, DWORD PTR _nu$[ebp]
	push	edx
	call	_CheckNumber
	add	esp, 4
	mov	DWORD PTR _result$[ebp], eax
	cmp	DWORD PTR _result$[ebp], 0
	je	SHORT $LN5@PMC_Bitwis

; 354  :         return (result);

	mov	eax, DWORD PTR _result$[ebp]
	jmp	$LN1@PMC_Bitwis
$LN5@PMC_Bitwis:

; 355  :     if ((result = CheckNumber(nv)) != PMC_STATUS_OK)

	mov	eax, DWORD PTR _nv$[ebp]
	push	eax
	call	_CheckNumber
	add	esp, 4
	mov	DWORD PTR _result$[ebp], eax
	cmp	DWORD PTR _result$[ebp], 0
	je	SHORT $LN6@PMC_Bitwis

; 356  :         return (result);

	mov	eax, DWORD PTR _result$[ebp]
	jmp	$LN1@PMC_Bitwis
$LN6@PMC_Bitwis:

; 357  :     NUMBER_HEADER* nw;
; 358  :     if (nu->IS_ZERO)

	mov	ecx, DWORD PTR _nu$[ebp]
	mov	edx, DWORD PTR [ecx+16]
	shr	edx, 1
	and	edx, 1
	je	SHORT $LN7@PMC_Bitwis

; 359  :     {
; 360  :         if ((result = DuplicateNumber(nv, &nw)) != PMC_STATUS_OK)

	lea	eax, DWORD PTR _nw$[ebp]
	push	eax
	mov	ecx, DWORD PTR _nv$[ebp]
	push	ecx
	call	_DuplicateNumber
	add	esp, 8
	mov	DWORD PTR _result$[ebp], eax
	cmp	DWORD PTR _result$[ebp], 0
	je	SHORT $LN9@PMC_Bitwis

; 361  :             return (result);

	mov	eax, DWORD PTR _result$[ebp]
	jmp	$LN1@PMC_Bitwis
$LN9@PMC_Bitwis:

; 362  :     }

	jmp	$LN8@PMC_Bitwis
$LN7@PMC_Bitwis:

; 363  :     else if (nv->IS_ZERO)

	mov	edx, DWORD PTR _nv$[ebp]
	mov	eax, DWORD PTR [edx+16]
	shr	eax, 1
	and	eax, 1
	je	SHORT $LN10@PMC_Bitwis

; 364  :     {
; 365  :         if ((result = DuplicateNumber(nu, &nw)) != PMC_STATUS_OK)

	lea	ecx, DWORD PTR _nw$[ebp]
	push	ecx
	mov	edx, DWORD PTR _nu$[ebp]
	push	edx
	call	_DuplicateNumber
	add	esp, 8
	mov	DWORD PTR _result$[ebp], eax
	cmp	DWORD PTR _result$[ebp], 0
	je	SHORT $LN12@PMC_Bitwis

; 366  :             return (result);

	mov	eax, DWORD PTR _result$[ebp]
	jmp	$LN1@PMC_Bitwis
$LN12@PMC_Bitwis:

; 367  :     }

	jmp	$LN8@PMC_Bitwis
$LN10@PMC_Bitwis:

; 368  :     else
; 369  :     {
; 370  :         if (nu->UNIT_WORD_COUNT < nv->UNIT_WORD_COUNT)

	mov	eax, DWORD PTR _nu$[ebp]
	mov	ecx, DWORD PTR _nv$[ebp]
	mov	edx, DWORD PTR [eax]
	cmp	edx, DWORD PTR [ecx]
	jae	SHORT $LN13@PMC_Bitwis

; 371  :         {
; 372  :             NUMBER_HEADER* t = nu;

	mov	eax, DWORD PTR _nu$[ebp]
	mov	DWORD PTR _t$5[ebp], eax

; 373  :             nu = nv;

	mov	ecx, DWORD PTR _nv$[ebp]
	mov	DWORD PTR _nu$[ebp], ecx

; 374  :             nv = t;

	mov	edx, DWORD PTR _t$5[ebp]
	mov	DWORD PTR _nv$[ebp], edx
$LN13@PMC_Bitwis:

; 375  :         }
; 376  :         __UNIT_TYPE u_bit_count = nu->UNIT_BIT_COUNT;

	mov	eax, DWORD PTR _nu$[ebp]
	mov	ecx, DWORD PTR [eax+4]
	mov	DWORD PTR _u_bit_count$4[ebp], ecx

; 377  :         __UNIT_TYPE v_bit_count = nv->UNIT_BIT_COUNT;

	mov	edx, DWORD PTR _nv$[ebp]
	mov	eax, DWORD PTR [edx+4]
	mov	DWORD PTR _v_bit_count$3[ebp], eax

; 378  :         __UNIT_TYPE w_bit_count = _MAXIMUM_UNIT(u_bit_count, v_bit_count);

	mov	ecx, DWORD PTR _v_bit_count$3[ebp]
	push	ecx
	mov	edx, DWORD PTR _u_bit_count$4[ebp]
	push	edx
	call	__MAXIMUM_UNIT
	add	esp, 8
	mov	DWORD PTR _w_bit_count$2[ebp], eax

; 379  :         __UNIT_TYPE nw_light_check_code;
; 380  :         if ((result = AllocateNumber(&nw, w_bit_count, &nw_light_check_code)) != PMC_STATUS_OK)

	lea	eax, DWORD PTR _nw_light_check_code$1[ebp]
	push	eax
	mov	ecx, DWORD PTR _w_bit_count$2[ebp]
	push	ecx
	lea	edx, DWORD PTR _nw$[ebp]
	push	edx
	call	_AllocateNumber
	add	esp, 12					; 0000000cH
	mov	DWORD PTR _result$[ebp], eax
	cmp	DWORD PTR _result$[ebp], 0
	je	SHORT $LN14@PMC_Bitwis

; 381  :             return (result);

	mov	eax, DWORD PTR _result$[ebp]
	jmp	SHORT $LN1@PMC_Bitwis
$LN14@PMC_Bitwis:

; 382  :         BitwiseOr_X_X(nu->BLOCK, nu->UNIT_WORD_COUNT, nv->BLOCK, nv->UNIT_WORD_COUNT, nw->BLOCK);

	mov	eax, DWORD PTR _nw$[ebp]
	mov	ecx, DWORD PTR [eax+24]
	push	ecx
	mov	edx, DWORD PTR _nv$[ebp]
	mov	eax, DWORD PTR [edx]
	push	eax
	mov	ecx, DWORD PTR _nv$[ebp]
	mov	edx, DWORD PTR [ecx+24]
	push	edx
	mov	eax, DWORD PTR _nu$[ebp]
	mov	ecx, DWORD PTR [eax]
	push	ecx
	mov	edx, DWORD PTR _nu$[ebp]
	mov	eax, DWORD PTR [edx+24]
	push	eax
	call	_BitwiseOr_X_X
	add	esp, 20					; 00000014H

; 383  :         if ((result = CheckBlockLight(nw->BLOCK, nw_light_check_code)) != PMC_STATUS_OK)

	mov	ecx, DWORD PTR _nw_light_check_code$1[ebp]
	push	ecx
	mov	edx, DWORD PTR _nw$[ebp]
	mov	eax, DWORD PTR [edx+24]
	push	eax
	call	_CheckBlockLight
	add	esp, 8
	mov	DWORD PTR _result$[ebp], eax
	cmp	DWORD PTR _result$[ebp], 0
	je	SHORT $LN15@PMC_Bitwis

; 384  :             return (result);

	mov	eax, DWORD PTR _result$[ebp]
	jmp	SHORT $LN1@PMC_Bitwis
$LN15@PMC_Bitwis:

; 385  :         CommitNumber(nw);

	mov	ecx, DWORD PTR _nw$[ebp]
	push	ecx
	call	_CommitNumber
	add	esp, 4
$LN8@PMC_Bitwis:

; 386  :     }
; 387  :     *w = nw;

	mov	edx, DWORD PTR _w$[ebp]
	mov	eax, DWORD PTR _nw$[ebp]
	mov	DWORD PTR [edx], eax

; 388  : #ifdef _DEBUG
; 389  :     if ((result = CheckNumber(*w)) != PMC_STATUS_OK)

	mov	ecx, DWORD PTR _w$[ebp]
	mov	edx, DWORD PTR [ecx]
	push	edx
	call	_CheckNumber
	add	esp, 4
	mov	DWORD PTR _result$[ebp], eax
	cmp	DWORD PTR _result$[ebp], 0
	je	SHORT $LN16@PMC_Bitwis

; 390  :         return (result);

	mov	eax, DWORD PTR _result$[ebp]
	jmp	SHORT $LN1@PMC_Bitwis
$LN16@PMC_Bitwis:

; 391  : #endif
; 392  :     return (PMC_STATUS_OK);

	xor	eax, eax
$LN1@PMC_Bitwis:

; 393  : }

	push	edx
	mov	ecx, ebp
	push	eax
	lea	edx, DWORD PTR $LN21@PMC_Bitwis
	call	@_RTC_CheckStackVars@8
	pop	eax
	pop	edx
	pop	edi
	add	esp, 52					; 00000034H
	cmp	ebp, esp
	call	__RTC_CheckEsp
	mov	esp, ebp
	pop	ebp
	ret	12					; 0000000cH
	npad	3
$LN21@PMC_Bitwis:
	DD	2
	DD	$LN20@PMC_Bitwis
$LN20@PMC_Bitwis:
	DD	-20					; ffffffecH
	DD	4
	DD	$LN18@PMC_Bitwis
	DD	-48					; ffffffd0H
	DD	4
	DD	$LN19@PMC_Bitwis
$LN19@PMC_Bitwis:
	DB	110					; 0000006eH
	DB	119					; 00000077H
	DB	95					; 0000005fH
	DB	108					; 0000006cH
	DB	105					; 00000069H
	DB	103					; 00000067H
	DB	104					; 00000068H
	DB	116					; 00000074H
	DB	95					; 0000005fH
	DB	99					; 00000063H
	DB	104					; 00000068H
	DB	101					; 00000065H
	DB	99					; 00000063H
	DB	107					; 0000006bH
	DB	95					; 0000005fH
	DB	99					; 00000063H
	DB	111					; 0000006fH
	DB	100					; 00000064H
	DB	101					; 00000065H
	DB	0
$LN18@PMC_Bitwis:
	DB	110					; 0000006eH
	DB	119					; 00000077H
	DB	0
_PMC_BitwiseOr_X_X@12 ENDP
_TEXT	ENDS
; Function compile flags: /Odtp /RTCsu
; File z:\sources\lunor\repos\rougemeilland\palmtree.math.core.implements\palmtree.math.core.implements\pmc_bitwiseor.c
_TEXT	SEGMENT
_nw_light_check_code$1 = -100				; size = 4
_w_bit_count$2 = -92					; size = 4
_v_bit_count$3 = -88					; size = 4
_u_bit_count$4 = -84					; size = 4
_nw_light_check_code$5 = -76				; size = 4
_w_bit_count$6 = -68					; size = 4
_v_bit_count$7 = -64					; size = 4
_nw_light_check_code$8 = -56				; size = 4
_w_bit_count$9 = -48					; size = 4
_v_bit_count$10 = -44					; size = 4
_v_lo$11 = -40						; size = 4
_v_hi$12 = -32						; size = 4
_u_bit_count$13 = -24					; size = 4
_nw$ = -16						; size = 4
_result$ = -8						; size = 4
_nu$ = -4						; size = 4
_u$ = 8							; size = 4
_v$ = 12						; size = 8
_w$ = 20						; size = 4
_PMC_BitwiseOr_X_L@16 PROC

; 246  : {

	push	ebp
	mov	ebp, esp
	sub	esp, 104				; 00000068H
	push	edi
	lea	edi, DWORD PTR [ebp-104]
	mov	ecx, 26					; 0000001aH
	mov	eax, -858993460				; ccccccccH
	rep stosd
	mov	ecx, OFFSET __AC60EF90_pmc_bitwiseor@c
	call	@__CheckForDebuggerJustMyCode@4

; 247  :     if (__UNIT_TYPE_BIT_COUNT * 2 < sizeof(v) * 8)

	xor	eax, eax
	je	SHORT $LN2@PMC_Bitwis

; 248  :     {
; 249  :         // _UINT64_T が 2 ワードで表現しきれない処理系には対応しない
; 250  :         return (PMC_STATUS_INTERNAL_ERROR);

	mov	eax, -256				; ffffff00H
	jmp	$LN1@PMC_Bitwis
$LN2@PMC_Bitwis:

; 251  :     }
; 252  :     if (u == NULL)

	cmp	DWORD PTR _u$[ebp], 0
	jne	SHORT $LN3@PMC_Bitwis

; 253  :         return (PMC_STATUS_ARGUMENT_ERROR);

	or	eax, -1
	jmp	$LN1@PMC_Bitwis
$LN3@PMC_Bitwis:

; 254  :     if (w == NULL)

	cmp	DWORD PTR _w$[ebp], 0
	jne	SHORT $LN4@PMC_Bitwis

; 255  :         return (PMC_STATUS_ARGUMENT_ERROR);

	or	eax, -1
	jmp	$LN1@PMC_Bitwis
$LN4@PMC_Bitwis:

; 256  :     NUMBER_HEADER* nu = (NUMBER_HEADER*)u;

	mov	ecx, DWORD PTR _u$[ebp]
	mov	DWORD PTR _nu$[ebp], ecx

; 257  :     PMC_STATUS_CODE result;
; 258  :     if ((result = CheckNumber(nu)) != PMC_STATUS_OK)

	mov	edx, DWORD PTR _nu$[ebp]
	push	edx
	call	_CheckNumber
	add	esp, 4
	mov	DWORD PTR _result$[ebp], eax
	cmp	DWORD PTR _result$[ebp], 0
	je	SHORT $LN5@PMC_Bitwis

; 259  :         return (result);

	mov	eax, DWORD PTR _result$[ebp]
	jmp	$LN1@PMC_Bitwis
$LN5@PMC_Bitwis:

; 260  :     NUMBER_HEADER* nw;
; 261  :     if (nu->IS_ZERO)

	mov	eax, DWORD PTR _nu$[ebp]
	mov	ecx, DWORD PTR [eax+16]
	shr	ecx, 1
	and	ecx, 1
	je	SHORT $LN6@PMC_Bitwis

; 262  :     {
; 263  :         // x が 0 である場合
; 264  :         if (v == 0)

	mov	edx, DWORD PTR _v$[ebp]
	or	edx, DWORD PTR _v$[ebp+4]
	jne	SHORT $LN8@PMC_Bitwis

; 265  :         {
; 266  :             // v が 0 である場合
; 267  :             nw = &number_zero;

	mov	DWORD PTR _nw$[ebp], OFFSET _number_zero

; 268  :         }

	jmp	SHORT $LN9@PMC_Bitwis
$LN8@PMC_Bitwis:

; 269  :         else
; 270  :         {
; 271  :             // v が 0 でない場合
; 272  :             if ((result = From_L_Imp(v, &nw)) != PMC_STATUS_OK)

	lea	eax, DWORD PTR _nw$[ebp]
	push	eax
	mov	ecx, DWORD PTR _v$[ebp+4]
	push	ecx
	mov	edx, DWORD PTR _v$[ebp]
	push	edx
	call	_From_L_Imp
	add	esp, 12					; 0000000cH
	mov	DWORD PTR _result$[ebp], eax
	cmp	DWORD PTR _result$[ebp], 0
	je	SHORT $LN9@PMC_Bitwis

; 273  :                 return (result);

	mov	eax, DWORD PTR _result$[ebp]
	jmp	$LN1@PMC_Bitwis
$LN9@PMC_Bitwis:

; 274  :         }
; 275  :     }

	jmp	$LN7@PMC_Bitwis
$LN6@PMC_Bitwis:

; 276  :     else if (v == 0)

	mov	eax, DWORD PTR _v$[ebp]
	or	eax, DWORD PTR _v$[ebp+4]
	jne	SHORT $LN11@PMC_Bitwis

; 277  :     {
; 278  :         // y が 0 である場合
; 279  :         if ((result = DuplicateNumber(nu, &nw)) != PMC_STATUS_OK)

	lea	ecx, DWORD PTR _nw$[ebp]
	push	ecx
	mov	edx, DWORD PTR _nu$[ebp]
	push	edx
	call	_DuplicateNumber
	add	esp, 8
	mov	DWORD PTR _result$[ebp], eax
	cmp	DWORD PTR _result$[ebp], 0
	je	SHORT $LN13@PMC_Bitwis

; 280  :             return (result);

	mov	eax, DWORD PTR _result$[ebp]
	jmp	$LN1@PMC_Bitwis
$LN13@PMC_Bitwis:

; 281  :     }

	jmp	$LN7@PMC_Bitwis
$LN11@PMC_Bitwis:

; 282  :     else
; 283  :     {
; 284  :         // u と v がともに 0 ではない場合
; 285  :         if (__UNIT_TYPE_BIT_COUNT < sizeof(v) * 8)

	mov	eax, 1
	test	eax, eax
	je	$LN14@PMC_Bitwis

; 286  :         {
; 287  :             // _UINT64_T が 1 ワードで表現しきれない場合
; 288  :             __UNIT_TYPE u_bit_count = nu->UNIT_BIT_COUNT;

	mov	ecx, DWORD PTR _nu$[ebp]
	mov	edx, DWORD PTR [ecx+4]
	mov	DWORD PTR _u_bit_count$13[ebp], edx

; 289  :             _UINT32_T v_hi;
; 290  :             _UINT32_T v_lo = _FROMDWORDTOWORD(v, &v_hi);

	lea	eax, DWORD PTR _v_hi$12[ebp]
	push	eax
	mov	ecx, DWORD PTR _v$[ebp+4]
	push	ecx
	mov	edx, DWORD PTR _v$[ebp]
	push	edx
	call	__FROMDWORDTOWORD
	add	esp, 12					; 0000000cH
	mov	DWORD PTR _v_lo$11[ebp], eax

; 291  :             if (v_hi == 0)

	cmp	DWORD PTR _v_hi$12[ebp], 0
	jne	$LN16@PMC_Bitwis

; 292  :             {
; 293  :                 // v の値が 32bit で表現可能な場合
; 294  :                 __UNIT_TYPE v_bit_count = sizeof(v_lo) * 8 - _LZCNT_ALT_32(v_lo);

	mov	eax, DWORD PTR _v_lo$11[ebp]
	push	eax
	call	__LZCNT_ALT_32
	add	esp, 4
	mov	ecx, 32					; 00000020H
	sub	ecx, eax
	mov	DWORD PTR _v_bit_count$10[ebp], ecx

; 295  :                 __UNIT_TYPE w_bit_count = _MAXIMUM_UNIT(u_bit_count, v_bit_count);

	mov	edx, DWORD PTR _v_bit_count$10[ebp]
	push	edx
	mov	eax, DWORD PTR _u_bit_count$13[ebp]
	push	eax
	call	__MAXIMUM_UNIT
	add	esp, 8
	mov	DWORD PTR _w_bit_count$9[ebp], eax

; 296  :                 __UNIT_TYPE nw_light_check_code;
; 297  :                 if ((result = AllocateNumber(&nw, w_bit_count, &nw_light_check_code)) != PMC_STATUS_OK)

	lea	ecx, DWORD PTR _nw_light_check_code$8[ebp]
	push	ecx
	mov	edx, DWORD PTR _w_bit_count$9[ebp]
	push	edx
	lea	eax, DWORD PTR _nw$[ebp]
	push	eax
	call	_AllocateNumber
	add	esp, 12					; 0000000cH
	mov	DWORD PTR _result$[ebp], eax
	cmp	DWORD PTR _result$[ebp], 0
	je	SHORT $LN18@PMC_Bitwis

; 298  :                     return (result);

	mov	eax, DWORD PTR _result$[ebp]
	jmp	$LN1@PMC_Bitwis
$LN18@PMC_Bitwis:

; 299  :                 BitwiseOr_X_1W(nu->BLOCK, nu->UNIT_WORD_COUNT, v_lo, nw->BLOCK);

	mov	ecx, DWORD PTR _nw$[ebp]
	mov	edx, DWORD PTR [ecx+24]
	push	edx
	mov	eax, DWORD PTR _v_lo$11[ebp]
	push	eax
	mov	ecx, DWORD PTR _nu$[ebp]
	mov	edx, DWORD PTR [ecx]
	push	edx
	mov	eax, DWORD PTR _nu$[ebp]
	mov	ecx, DWORD PTR [eax+24]
	push	ecx
	call	_BitwiseOr_X_1W
	add	esp, 16					; 00000010H

; 300  :                 if ((result = CheckBlockLight(nw->BLOCK, nw_light_check_code)) != PMC_STATUS_OK)

	mov	edx, DWORD PTR _nw_light_check_code$8[ebp]
	push	edx
	mov	eax, DWORD PTR _nw$[ebp]
	mov	ecx, DWORD PTR [eax+24]
	push	ecx
	call	_CheckBlockLight
	add	esp, 8
	mov	DWORD PTR _result$[ebp], eax
	cmp	DWORD PTR _result$[ebp], 0
	je	SHORT $LN19@PMC_Bitwis

; 301  :                     return (result);

	mov	eax, DWORD PTR _result$[ebp]
	jmp	$LN1@PMC_Bitwis
$LN19@PMC_Bitwis:

; 302  :             }

	jmp	$LN17@PMC_Bitwis
$LN16@PMC_Bitwis:

; 303  :             else
; 304  :             {
; 305  :                 // y の値が 32bit では表現できない場合
; 306  :                 __UNIT_TYPE v_bit_count = sizeof(v) * 8 - _LZCNT_ALT_32(v_hi);

	mov	edx, DWORD PTR _v_hi$12[ebp]
	push	edx
	call	__LZCNT_ALT_32
	add	esp, 4
	mov	ecx, 64					; 00000040H
	sub	ecx, eax
	mov	DWORD PTR _v_bit_count$7[ebp], ecx

; 307  :                 __UNIT_TYPE w_bit_count = _MAXIMUM_UNIT(u_bit_count, v_bit_count);

	mov	edx, DWORD PTR _v_bit_count$7[ebp]
	push	edx
	mov	eax, DWORD PTR _u_bit_count$13[ebp]
	push	eax
	call	__MAXIMUM_UNIT
	add	esp, 8
	mov	DWORD PTR _w_bit_count$6[ebp], eax

; 308  :                 __UNIT_TYPE nw_light_check_code;
; 309  :                 if ((result = AllocateNumber(&nw, w_bit_count, &nw_light_check_code)) != PMC_STATUS_OK)

	lea	ecx, DWORD PTR _nw_light_check_code$5[ebp]
	push	ecx
	mov	edx, DWORD PTR _w_bit_count$6[ebp]
	push	edx
	lea	eax, DWORD PTR _nw$[ebp]
	push	eax
	call	_AllocateNumber
	add	esp, 12					; 0000000cH
	mov	DWORD PTR _result$[ebp], eax
	cmp	DWORD PTR _result$[ebp], 0
	je	SHORT $LN20@PMC_Bitwis

; 310  :                     return (result);

	mov	eax, DWORD PTR _result$[ebp]
	jmp	$LN1@PMC_Bitwis
$LN20@PMC_Bitwis:

; 311  :                 BitwiseOr_X_2W(nu->BLOCK, nu->UNIT_WORD_COUNT, v_hi, v_lo, nw->BLOCK);

	mov	ecx, DWORD PTR _nw$[ebp]
	mov	edx, DWORD PTR [ecx+24]
	push	edx
	mov	eax, DWORD PTR _v_lo$11[ebp]
	push	eax
	mov	ecx, DWORD PTR _v_hi$12[ebp]
	push	ecx
	mov	edx, DWORD PTR _nu$[ebp]
	mov	eax, DWORD PTR [edx]
	push	eax
	mov	ecx, DWORD PTR _nu$[ebp]
	mov	edx, DWORD PTR [ecx+24]
	push	edx
	call	_BitwiseOr_X_2W
	add	esp, 20					; 00000014H

; 312  :                 if ((result = CheckBlockLight(nw->BLOCK, nw_light_check_code)) != PMC_STATUS_OK)

	mov	eax, DWORD PTR _nw_light_check_code$5[ebp]
	push	eax
	mov	ecx, DWORD PTR _nw$[ebp]
	mov	edx, DWORD PTR [ecx+24]
	push	edx
	call	_CheckBlockLight
	add	esp, 8
	mov	DWORD PTR _result$[ebp], eax
	cmp	DWORD PTR _result$[ebp], 0
	je	SHORT $LN17@PMC_Bitwis

; 313  :                     return (result);

	mov	eax, DWORD PTR _result$[ebp]
	jmp	$LN1@PMC_Bitwis
$LN17@PMC_Bitwis:

; 314  :             }
; 315  :             CommitNumber(nw);

	mov	eax, DWORD PTR _nw$[ebp]
	push	eax
	call	_CommitNumber
	add	esp, 4

; 316  :         }

	jmp	$LN7@PMC_Bitwis
$LN14@PMC_Bitwis:

; 317  :         else
; 318  :         {
; 319  :             // _UINT64_T が 1 ワードで表現できる場合
; 320  : 
; 321  :             __UNIT_TYPE u_bit_count = nu->UNIT_BIT_COUNT;

	mov	ecx, DWORD PTR _nu$[ebp]
	mov	edx, DWORD PTR [ecx+4]
	mov	DWORD PTR _u_bit_count$4[ebp], edx

; 322  :             __UNIT_TYPE v_bit_count = sizeof(v) * 8 - _LZCNT_ALT_UNIT((__UNIT_TYPE)v);

	mov	eax, DWORD PTR _v$[ebp]
	push	eax
	call	__LZCNT_ALT_UNIT
	add	esp, 4
	mov	ecx, 64					; 00000040H
	sub	ecx, eax
	mov	DWORD PTR _v_bit_count$3[ebp], ecx

; 323  :             __UNIT_TYPE w_bit_count = _MAXIMUM_UNIT(u_bit_count, v_bit_count) + 1;

	mov	edx, DWORD PTR _v_bit_count$3[ebp]
	push	edx
	mov	eax, DWORD PTR _u_bit_count$4[ebp]
	push	eax
	call	__MAXIMUM_UNIT
	add	esp, 8
	add	eax, 1
	mov	DWORD PTR _w_bit_count$2[ebp], eax

; 324  :             __UNIT_TYPE nw_light_check_code;
; 325  :             if ((result = AllocateNumber(&nw, w_bit_count, &nw_light_check_code)) != PMC_STATUS_OK)

	lea	ecx, DWORD PTR _nw_light_check_code$1[ebp]
	push	ecx
	mov	edx, DWORD PTR _w_bit_count$2[ebp]
	push	edx
	lea	eax, DWORD PTR _nw$[ebp]
	push	eax
	call	_AllocateNumber
	add	esp, 12					; 0000000cH
	mov	DWORD PTR _result$[ebp], eax
	cmp	DWORD PTR _result$[ebp], 0
	je	SHORT $LN22@PMC_Bitwis

; 326  :                 return (result);

	mov	eax, DWORD PTR _result$[ebp]
	jmp	SHORT $LN1@PMC_Bitwis
$LN22@PMC_Bitwis:

; 327  :             BitwiseOr_X_1W(nu->BLOCK, nu->UNIT_WORD_COUNT, (__UNIT_TYPE)v, nw->BLOCK);

	mov	ecx, DWORD PTR _nw$[ebp]
	mov	edx, DWORD PTR [ecx+24]
	push	edx
	mov	eax, DWORD PTR _v$[ebp]
	push	eax
	mov	ecx, DWORD PTR _nu$[ebp]
	mov	edx, DWORD PTR [ecx]
	push	edx
	mov	eax, DWORD PTR _nu$[ebp]
	mov	ecx, DWORD PTR [eax+24]
	push	ecx
	call	_BitwiseOr_X_1W
	add	esp, 16					; 00000010H

; 328  :             if ((result = CheckBlockLight(nw->BLOCK, nw_light_check_code)) != PMC_STATUS_OK)

	mov	edx, DWORD PTR _nw_light_check_code$1[ebp]
	push	edx
	mov	eax, DWORD PTR _nw$[ebp]
	mov	ecx, DWORD PTR [eax+24]
	push	ecx
	call	_CheckBlockLight
	add	esp, 8
	mov	DWORD PTR _result$[ebp], eax
	cmp	DWORD PTR _result$[ebp], 0
	je	SHORT $LN23@PMC_Bitwis

; 329  :                 return (result);

	mov	eax, DWORD PTR _result$[ebp]
	jmp	SHORT $LN1@PMC_Bitwis
$LN23@PMC_Bitwis:

; 330  :             CommitNumber(nw);

	mov	edx, DWORD PTR _nw$[ebp]
	push	edx
	call	_CommitNumber
	add	esp, 4
$LN7@PMC_Bitwis:

; 331  :         }
; 332  : 
; 333  :     }
; 334  :     *w = nw;

	mov	eax, DWORD PTR _w$[ebp]
	mov	ecx, DWORD PTR _nw$[ebp]
	mov	DWORD PTR [eax], ecx

; 335  : #ifdef _DEBUG
; 336  :     if ((result = CheckNumber(*w)) != PMC_STATUS_OK)

	mov	edx, DWORD PTR _w$[ebp]
	mov	eax, DWORD PTR [edx]
	push	eax
	call	_CheckNumber
	add	esp, 4
	mov	DWORD PTR _result$[ebp], eax
	cmp	DWORD PTR _result$[ebp], 0
	je	SHORT $LN24@PMC_Bitwis

; 337  :         return (result);

	mov	eax, DWORD PTR _result$[ebp]
	jmp	SHORT $LN1@PMC_Bitwis
$LN24@PMC_Bitwis:

; 338  : #endif
; 339  :     return (PMC_STATUS_OK);

	xor	eax, eax
$LN1@PMC_Bitwis:

; 340  : }

	push	edx
	mov	ecx, ebp
	push	eax
	lea	edx, DWORD PTR $LN32@PMC_Bitwis
	call	@_RTC_CheckStackVars@8
	pop	eax
	pop	edx
	pop	edi
	add	esp, 104				; 00000068H
	cmp	ebp, esp
	call	__RTC_CheckEsp
	mov	esp, ebp
	pop	ebp
	ret	16					; 00000010H
$LN32@PMC_Bitwis:
	DD	5
	DD	$LN31@PMC_Bitwis
$LN31@PMC_Bitwis:
	DD	-16					; fffffff0H
	DD	4
	DD	$LN26@PMC_Bitwis
	DD	-32					; ffffffe0H
	DD	4
	DD	$LN27@PMC_Bitwis
	DD	-56					; ffffffc8H
	DD	4
	DD	$LN28@PMC_Bitwis
	DD	-76					; ffffffb4H
	DD	4
	DD	$LN29@PMC_Bitwis
	DD	-100					; ffffff9cH
	DD	4
	DD	$LN30@PMC_Bitwis
$LN30@PMC_Bitwis:
	DB	110					; 0000006eH
	DB	119					; 00000077H
	DB	95					; 0000005fH
	DB	108					; 0000006cH
	DB	105					; 00000069H
	DB	103					; 00000067H
	DB	104					; 00000068H
	DB	116					; 00000074H
	DB	95					; 0000005fH
	DB	99					; 00000063H
	DB	104					; 00000068H
	DB	101					; 00000065H
	DB	99					; 00000063H
	DB	107					; 0000006bH
	DB	95					; 0000005fH
	DB	99					; 00000063H
	DB	111					; 0000006fH
	DB	100					; 00000064H
	DB	101					; 00000065H
	DB	0
$LN29@PMC_Bitwis:
	DB	110					; 0000006eH
	DB	119					; 00000077H
	DB	95					; 0000005fH
	DB	108					; 0000006cH
	DB	105					; 00000069H
	DB	103					; 00000067H
	DB	104					; 00000068H
	DB	116					; 00000074H
	DB	95					; 0000005fH
	DB	99					; 00000063H
	DB	104					; 00000068H
	DB	101					; 00000065H
	DB	99					; 00000063H
	DB	107					; 0000006bH
	DB	95					; 0000005fH
	DB	99					; 00000063H
	DB	111					; 0000006fH
	DB	100					; 00000064H
	DB	101					; 00000065H
	DB	0
$LN28@PMC_Bitwis:
	DB	110					; 0000006eH
	DB	119					; 00000077H
	DB	95					; 0000005fH
	DB	108					; 0000006cH
	DB	105					; 00000069H
	DB	103					; 00000067H
	DB	104					; 00000068H
	DB	116					; 00000074H
	DB	95					; 0000005fH
	DB	99					; 00000063H
	DB	104					; 00000068H
	DB	101					; 00000065H
	DB	99					; 00000063H
	DB	107					; 0000006bH
	DB	95					; 0000005fH
	DB	99					; 00000063H
	DB	111					; 0000006fH
	DB	100					; 00000064H
	DB	101					; 00000065H
	DB	0
$LN27@PMC_Bitwis:
	DB	118					; 00000076H
	DB	95					; 0000005fH
	DB	104					; 00000068H
	DB	105					; 00000069H
	DB	0
$LN26@PMC_Bitwis:
	DB	110					; 0000006eH
	DB	119					; 00000077H
	DB	0
_PMC_BitwiseOr_X_L@16 ENDP
_TEXT	ENDS
; Function compile flags: /Odtp /RTCsu
; File z:\sources\lunor\repos\rougemeilland\palmtree.math.core.implements\palmtree.math.core.implements\pmc_bitwiseor.c
_TEXT	SEGMENT
_nz_check_code$1 = -40					; size = 4
_w_bit_count$2 = -32					; size = 4
_v_bit_count$3 = -28					; size = 4
_u_bit_count$4 = -24					; size = 4
_nw$ = -16						; size = 4
_result$ = -8						; size = 4
_nu$ = -4						; size = 4
_u$ = 8							; size = 4
_v$ = 12						; size = 4
_w$ = 16						; size = 4
_PMC_BitwiseOr_X_I@12 PROC

; 187  : {

	push	ebp
	mov	ebp, esp
	sub	esp, 44					; 0000002cH
	push	edi
	lea	edi, DWORD PTR [ebp-44]
	mov	ecx, 11					; 0000000bH
	mov	eax, -858993460				; ccccccccH
	rep stosd
	mov	ecx, OFFSET __AC60EF90_pmc_bitwiseor@c
	call	@__CheckForDebuggerJustMyCode@4

; 188  :     if (__UNIT_TYPE_BIT_COUNT < sizeof(v) * 8)

	xor	eax, eax
	je	SHORT $LN2@PMC_Bitwis

; 189  :     {
; 190  :         // _UINT32_T が 1 ワードで表現しきれない処理系には対応しない
; 191  :         return (PMC_STATUS_INTERNAL_ERROR);

	mov	eax, -256				; ffffff00H
	jmp	$LN1@PMC_Bitwis
$LN2@PMC_Bitwis:

; 192  :     }
; 193  :     if (u == NULL)

	cmp	DWORD PTR _u$[ebp], 0
	jne	SHORT $LN3@PMC_Bitwis

; 194  :         return (PMC_STATUS_ARGUMENT_ERROR);

	or	eax, -1
	jmp	$LN1@PMC_Bitwis
$LN3@PMC_Bitwis:

; 195  :     if (w == NULL)

	cmp	DWORD PTR _w$[ebp], 0
	jne	SHORT $LN4@PMC_Bitwis

; 196  :         return (PMC_STATUS_ARGUMENT_ERROR);

	or	eax, -1
	jmp	$LN1@PMC_Bitwis
$LN4@PMC_Bitwis:

; 197  :     NUMBER_HEADER* nu = (NUMBER_HEADER*)u;

	mov	ecx, DWORD PTR _u$[ebp]
	mov	DWORD PTR _nu$[ebp], ecx

; 198  :     PMC_STATUS_CODE result;
; 199  :     if ((result = CheckNumber(nu)) != PMC_STATUS_OK)

	mov	edx, DWORD PTR _nu$[ebp]
	push	edx
	call	_CheckNumber
	add	esp, 4
	mov	DWORD PTR _result$[ebp], eax
	cmp	DWORD PTR _result$[ebp], 0
	je	SHORT $LN5@PMC_Bitwis

; 200  :         return (result);

	mov	eax, DWORD PTR _result$[ebp]
	jmp	$LN1@PMC_Bitwis
$LN5@PMC_Bitwis:

; 201  :     NUMBER_HEADER* nw;
; 202  :     if (nu->IS_ZERO)

	mov	eax, DWORD PTR _nu$[ebp]
	mov	ecx, DWORD PTR [eax+16]
	shr	ecx, 1
	and	ecx, 1
	je	SHORT $LN6@PMC_Bitwis

; 203  :     {
; 204  :         // u が 0 である場合
; 205  :         if (v == 0)

	cmp	DWORD PTR _v$[ebp], 0
	jne	SHORT $LN8@PMC_Bitwis

; 206  :         {
; 207  :             // v が 0 である場合
; 208  :             nw = &number_zero;

	mov	DWORD PTR _nw$[ebp], OFFSET _number_zero

; 209  :         }

	jmp	SHORT $LN9@PMC_Bitwis
$LN8@PMC_Bitwis:

; 210  :         else
; 211  :         {
; 212  :             // v が 0 でない場合
; 213  :             if ((result = From_I_Imp(v, &nw)) != PMC_STATUS_OK)

	lea	edx, DWORD PTR _nw$[ebp]
	push	edx
	mov	eax, DWORD PTR _v$[ebp]
	push	eax
	call	_From_I_Imp
	add	esp, 8
	mov	DWORD PTR _result$[ebp], eax
	cmp	DWORD PTR _result$[ebp], 0
	je	SHORT $LN9@PMC_Bitwis

; 214  :                 return (result);

	mov	eax, DWORD PTR _result$[ebp]
	jmp	$LN1@PMC_Bitwis
$LN9@PMC_Bitwis:

; 215  :         }
; 216  :     }

	jmp	$LN7@PMC_Bitwis
$LN6@PMC_Bitwis:

; 217  :     else if (v == 0)

	cmp	DWORD PTR _v$[ebp], 0
	jne	SHORT $LN11@PMC_Bitwis

; 218  :     {
; 219  :         // v が 0 である場合
; 220  :         if ((result = DuplicateNumber(nu, &nw)) != PMC_STATUS_OK)

	lea	ecx, DWORD PTR _nw$[ebp]
	push	ecx
	mov	edx, DWORD PTR _nu$[ebp]
	push	edx
	call	_DuplicateNumber
	add	esp, 8
	mov	DWORD PTR _result$[ebp], eax
	cmp	DWORD PTR _result$[ebp], 0
	je	SHORT $LN13@PMC_Bitwis

; 221  :             return (result);

	mov	eax, DWORD PTR _result$[ebp]
	jmp	$LN1@PMC_Bitwis
$LN13@PMC_Bitwis:

; 222  :     }

	jmp	$LN7@PMC_Bitwis
$LN11@PMC_Bitwis:

; 223  :     else
; 224  :     {
; 225  :         // x と y がともに 0 ではない場合
; 226  :         __UNIT_TYPE u_bit_count = nu->UNIT_BIT_COUNT;

	mov	eax, DWORD PTR _nu$[ebp]
	mov	ecx, DWORD PTR [eax+4]
	mov	DWORD PTR _u_bit_count$4[ebp], ecx

; 227  :         __UNIT_TYPE v_bit_count = sizeof(v) * 8 - _LZCNT_ALT_32(v);

	mov	edx, DWORD PTR _v$[ebp]
	push	edx
	call	__LZCNT_ALT_32
	add	esp, 4
	mov	ecx, 32					; 00000020H
	sub	ecx, eax
	mov	DWORD PTR _v_bit_count$3[ebp], ecx

; 228  :         __UNIT_TYPE w_bit_count = _MAXIMUM_UNIT(u_bit_count, v_bit_count) + 1;

	mov	edx, DWORD PTR _v_bit_count$3[ebp]
	push	edx
	mov	eax, DWORD PTR _u_bit_count$4[ebp]
	push	eax
	call	__MAXIMUM_UNIT
	add	esp, 8
	add	eax, 1
	mov	DWORD PTR _w_bit_count$2[ebp], eax

; 229  :         __UNIT_TYPE nz_check_code;
; 230  :         if ((result = AllocateNumber(&nw, w_bit_count, &nz_check_code)) != PMC_STATUS_OK)

	lea	ecx, DWORD PTR _nz_check_code$1[ebp]
	push	ecx
	mov	edx, DWORD PTR _w_bit_count$2[ebp]
	push	edx
	lea	eax, DWORD PTR _nw$[ebp]
	push	eax
	call	_AllocateNumber
	add	esp, 12					; 0000000cH
	mov	DWORD PTR _result$[ebp], eax
	cmp	DWORD PTR _result$[ebp], 0
	je	SHORT $LN14@PMC_Bitwis

; 231  :             return (result);

	mov	eax, DWORD PTR _result$[ebp]
	jmp	SHORT $LN1@PMC_Bitwis
$LN14@PMC_Bitwis:

; 232  :         BitwiseOr_X_1W(nu->BLOCK, nu->UNIT_WORD_COUNT, v, nw->BLOCK);

	mov	ecx, DWORD PTR _nw$[ebp]
	mov	edx, DWORD PTR [ecx+24]
	push	edx
	mov	eax, DWORD PTR _v$[ebp]
	push	eax
	mov	ecx, DWORD PTR _nu$[ebp]
	mov	edx, DWORD PTR [ecx]
	push	edx
	mov	eax, DWORD PTR _nu$[ebp]
	mov	ecx, DWORD PTR [eax+24]
	push	ecx
	call	_BitwiseOr_X_1W
	add	esp, 16					; 00000010H

; 233  :         if ((result = CheckBlockLight(nw->BLOCK, nz_check_code)) != PMC_STATUS_OK)

	mov	edx, DWORD PTR _nz_check_code$1[ebp]
	push	edx
	mov	eax, DWORD PTR _nw$[ebp]
	mov	ecx, DWORD PTR [eax+24]
	push	ecx
	call	_CheckBlockLight
	add	esp, 8
	mov	DWORD PTR _result$[ebp], eax
	cmp	DWORD PTR _result$[ebp], 0
	je	SHORT $LN15@PMC_Bitwis

; 234  :             return (result);

	mov	eax, DWORD PTR _result$[ebp]
	jmp	SHORT $LN1@PMC_Bitwis
$LN15@PMC_Bitwis:

; 235  :         CommitNumber(nw);

	mov	edx, DWORD PTR _nw$[ebp]
	push	edx
	call	_CommitNumber
	add	esp, 4
$LN7@PMC_Bitwis:

; 236  :     }
; 237  :     *w = nw;

	mov	eax, DWORD PTR _w$[ebp]
	mov	ecx, DWORD PTR _nw$[ebp]
	mov	DWORD PTR [eax], ecx

; 238  : #ifdef _DEBUG
; 239  :     if ((result = CheckNumber(*w)) != PMC_STATUS_OK)

	mov	edx, DWORD PTR _w$[ebp]
	mov	eax, DWORD PTR [edx]
	push	eax
	call	_CheckNumber
	add	esp, 4
	mov	DWORD PTR _result$[ebp], eax
	cmp	DWORD PTR _result$[ebp], 0
	je	SHORT $LN16@PMC_Bitwis

; 240  :         return (result);

	mov	eax, DWORD PTR _result$[ebp]
	jmp	SHORT $LN1@PMC_Bitwis
$LN16@PMC_Bitwis:

; 241  : #endif
; 242  :     return (PMC_STATUS_OK);

	xor	eax, eax
$LN1@PMC_Bitwis:

; 243  : }

	push	edx
	mov	ecx, ebp
	push	eax
	lea	edx, DWORD PTR $LN21@PMC_Bitwis
	call	@_RTC_CheckStackVars@8
	pop	eax
	pop	edx
	pop	edi
	add	esp, 44					; 0000002cH
	cmp	ebp, esp
	call	__RTC_CheckEsp
	mov	esp, ebp
	pop	ebp
	ret	12					; 0000000cH
	npad	1
$LN21@PMC_Bitwis:
	DD	2
	DD	$LN20@PMC_Bitwis
$LN20@PMC_Bitwis:
	DD	-16					; fffffff0H
	DD	4
	DD	$LN18@PMC_Bitwis
	DD	-40					; ffffffd8H
	DD	4
	DD	$LN19@PMC_Bitwis
$LN19@PMC_Bitwis:
	DB	110					; 0000006eH
	DB	122					; 0000007aH
	DB	95					; 0000005fH
	DB	99					; 00000063H
	DB	104					; 00000068H
	DB	101					; 00000065H
	DB	99					; 00000063H
	DB	107					; 0000006bH
	DB	95					; 0000005fH
	DB	99					; 00000063H
	DB	111					; 0000006fH
	DB	100					; 00000064H
	DB	101					; 00000065H
	DB	0
$LN18@PMC_Bitwis:
	DB	110					; 0000006eH
	DB	119					; 00000077H
	DB	0
_PMC_BitwiseOr_X_I@12 ENDP
_TEXT	ENDS
; Function compile flags: /Odtp /RTCsu
; File z:\sources\lunor\repos\rougemeilland\palmtree.math.core.implements\palmtree.math.core.implements\pmc_bitwiseor.c
_TEXT	SEGMENT
_feature$ = 8						; size = 4
_Initialize_BitwiseOr PROC

; 396  : {

	push	ebp
	mov	ebp, esp
	mov	ecx, OFFSET __AC60EF90_pmc_bitwiseor@c
	call	@__CheckForDebuggerJustMyCode@4

; 397  :     return (PMC_STATUS_OK);

	xor	eax, eax

; 398  : }

	cmp	ebp, esp
	call	__RTC_CheckEsp
	pop	ebp
	ret	0
_Initialize_BitwiseOr ENDP
_TEXT	ENDS
END
