; Listing generated by Microsoft (R) Optimizing Compiler Version 19.16.27026.1 

	TITLE	Z:\Sources\Lunor\Repos\rougemeilland\Palmtree.Math.Core.Implements\Palmtree.Math.Core.Implements\pmc_greatestcommondivisor.c
	.686P
	.XMM
	include listing.inc
	.model	flat

INCLUDELIB MSVCRTD
INCLUDELIB OLDNAMES

msvcjmc	SEGMENT
__7B7A869E_ctype@h DB 01H
__457DD326_basetsd@h DB 01H
__4384A2D9_corecrt_memcpy_s@h DB 01H
__4E51A221_corecrt_wstring@h DB 01H
__2140C079_string@h DB 01H
__1887E595_winnt@h DB 01H
__9FC7C64B_processthreadsapi@h DB 01H
__FA470AEC_memoryapi@h DB 01H
__F37DAFF1_winerror@h DB 01H
__7A450CCC_winbase@h DB 01H
__B4B40122_winioctl@h DB 01H
__86261D59_stralign@h DB 01H
__4522B509_pmc_internal@h DB 01H
__89DB6AB9_autogenerated_inline_func@h DB 01H
__5BD2B085_pmc_greatestcommondivisor@c DB 01H
msvcjmc	ENDS
PUBLIC	_Initialize_GreatestCommonDivisor
PUBLIC	_PMC_GreatestCommonDivisor_X_I@12
PUBLIC	_PMC_GreatestCommonDivisor_X_L@16
PUBLIC	_PMC_GreatestCommonDivisor_X_X@12
PUBLIC	__JustMyCode_Default
EXTRN	_AllocateBlock:PROC
EXTRN	_DeallocateBlock:PROC
EXTRN	_CheckBlockLight:PROC
EXTRN	_AllocateNumber:PROC
EXTRN	_CommitNumber:PROC
EXTRN	_CheckNumber:PROC
EXTRN	_DuplicateNumber:PROC
EXTRN	_From_I_Imp:PROC
EXTRN	_From_L_Imp:PROC
EXTRN	_RightShift_Imp:PROC
EXTRN	_LeftShift_Imp:PROC
EXTRN	_Subtruct_Imp:PROC
EXTRN	_Compare_Imp:PROC
EXTRN	@_RTC_CheckStackVars@8:PROC
EXTRN	@__CheckForDebuggerJustMyCode@4:PROC
EXTRN	__RTC_CheckEsp:PROC
EXTRN	__RTC_InitBase:PROC
EXTRN	__RTC_Shutdown:PROC
EXTRN	__aullshr:PROC
;	COMDAT rtc$TMZ
rtc$TMZ	SEGMENT
__RTC_Shutdown.rtc$TMZ DD FLAT:__RTC_Shutdown
rtc$TMZ	ENDS
;	COMDAT rtc$IMZ
rtc$IMZ	SEGMENT
__RTC_InitBase.rtc$IMZ DD FLAT:__RTC_InitBase
rtc$IMZ	ENDS
; Function compile flags: /Odt
;	COMDAT __JustMyCode_Default
_TEXT	SEGMENT
__JustMyCode_Default PROC				; COMDAT
	push	ebp
	mov	ebp, esp
	pop	ebp
	ret	0
__JustMyCode_Default ENDP
_TEXT	ENDS
; Function compile flags: /Odtp /RTCsu
; File z:\sources\lunor\repos\rougemeilland\palmtree.math.core.implements\palmtree.math.core.implements\pmc_greatestcommondivisor.c
_TEXT	SEGMENT
_tt$1 = -16						; size = 4
_c$2 = -12						; size = 4
_v$ = -8						; size = 4
_u$ = -4						; size = 4
_p1_buf$ = 8						; size = 4
_p2_buf$ = 12						; size = 4
_word_count$ = 16					; size = 4
_w_buf$ = 20						; size = 4
_w_buf_count$ = 24					; size = 4
_GreatestCommonDivisor PROC

; 39   : {

	push	ebp
	mov	ebp, esp
	sub	esp, 16					; 00000010H
	mov	eax, -858993460				; ccccccccH
	mov	DWORD PTR [ebp-16], eax
	mov	DWORD PTR [ebp-12], eax
	mov	DWORD PTR [ebp-8], eax
	mov	DWORD PTR [ebp-4], eax
	mov	ecx, OFFSET __5BD2B085_pmc_greatestcommondivisor@c
	call	@__CheckForDebuggerJustMyCode@4

; 40   :     __UNIT_TYPE* u = p1_buf;

	mov	eax, DWORD PTR _p1_buf$[ebp]
	mov	DWORD PTR _u$[ebp], eax

; 41   :     __UNIT_TYPE* v = p2_buf;

	mov	ecx, DWORD PTR _p2_buf$[ebp]
	mov	DWORD PTR _v$[ebp], ecx
$LN5@GreatestCo:

; 42   :     for (;;)
; 43   :     {
; 44   :         while (word_count > 0 && u[word_count - 1] == 0 && v[word_count - 1] == 0)

	cmp	DWORD PTR _word_count$[ebp], 0
	jbe	SHORT $LN6@GreatestCo
	mov	edx, DWORD PTR _word_count$[ebp]
	mov	eax, DWORD PTR _u$[ebp]
	cmp	DWORD PTR [eax+edx*4-4], 0
	jne	SHORT $LN6@GreatestCo
	mov	ecx, DWORD PTR _word_count$[ebp]
	mov	edx, DWORD PTR _v$[ebp]
	cmp	DWORD PTR [edx+ecx*4-4], 0
	jne	SHORT $LN6@GreatestCo

; 45   :             --word_count;

	mov	eax, DWORD PTR _word_count$[ebp]
	sub	eax, 1
	mov	DWORD PTR _word_count$[ebp], eax
	jmp	SHORT $LN5@GreatestCo
$LN6@GreatestCo:

; 46   :         if (word_count <= 0)

	cmp	DWORD PTR _word_count$[ebp], 0
	ja	SHORT $LN9@GreatestCo

; 47   :         {
; 48   :             // このルートへの到達はあり得ないはず。
; 49   :             w_buf[0] = 0;

	mov	ecx, 4
	imul	edx, ecx, 0
	mov	eax, DWORD PTR _w_buf$[ebp]
	mov	DWORD PTR [eax+edx], 0

; 50   :             *w_buf_count = 1;

	mov	ecx, DWORD PTR _w_buf_count$[ebp]
	mov	DWORD PTR [ecx], 1
$LN9@GreatestCo:

; 51   :         }
; 52   :         int c = Compare_Imp(u, v, word_count);

	mov	edx, DWORD PTR _word_count$[ebp]
	push	edx
	mov	eax, DWORD PTR _v$[ebp]
	push	eax
	mov	ecx, DWORD PTR _u$[ebp]
	push	ecx
	call	_Compare_Imp
	add	esp, 12					; 0000000cH
	mov	DWORD PTR _c$2[ebp], eax

; 53   :         if (c == 0)

	cmp	DWORD PTR _c$2[ebp], 0
	jne	SHORT $LN10@GreatestCo

; 54   :         {
; 55   :             // u == v の場合
; 56   : 
; 57   :             // GCD を u として復帰
; 58   :             _COPY_MEMORY_UNIT(w_buf, u, word_count);

	mov	edx, DWORD PTR _word_count$[ebp]
	push	edx
	mov	eax, DWORD PTR _u$[ebp]
	push	eax
	mov	ecx, DWORD PTR _w_buf$[ebp]
	push	ecx
	call	__COPY_MEMORY_UNIT
	add	esp, 12					; 0000000cH

; 59   :             *w_buf_count = word_count;

	mov	edx, DWORD PTR _w_buf_count$[ebp]
	mov	eax, DWORD PTR _word_count$[ebp]
	mov	DWORD PTR [edx], eax

; 60   :             return;

	jmp	SHORT $LN1@GreatestCo
$LN10@GreatestCo:

; 61   :         }
; 62   :         if (c < 0)

	cmp	DWORD PTR _c$2[ebp], 0
	jge	SHORT $LN11@GreatestCo

; 63   :         {
; 64   :             __UNIT_TYPE* tt = u;

	mov	ecx, DWORD PTR _u$[ebp]
	mov	DWORD PTR _tt$1[ebp], ecx

; 65   :             u = v;

	mov	edx, DWORD PTR _v$[ebp]
	mov	DWORD PTR _u$[ebp], edx

; 66   :             v = tt;

	mov	eax, DWORD PTR _tt$1[ebp]
	mov	DWORD PTR _v$[ebp], eax
$LN11@GreatestCo:

; 67   :         }
; 68   :         // この時点で u > v かつ u と v はともに奇数である
; 69   : 
; 70   :         Subtruct_Imp(u, word_count, v, word_count, u, word_count);

	mov	ecx, DWORD PTR _word_count$[ebp]
	push	ecx
	mov	edx, DWORD PTR _u$[ebp]
	push	edx
	mov	eax, DWORD PTR _word_count$[ebp]
	push	eax
	mov	ecx, DWORD PTR _v$[ebp]
	push	ecx
	mov	edx, DWORD PTR _word_count$[ebp]
	push	edx
	mov	eax, DWORD PTR _u$[ebp]
	push	eax
	call	_Subtruct_Imp
	add	esp, 24					; 00000018H
$LN7@GreatestCo:

; 71   : 
; 72   :         while ((*u & 1) == 0)

	mov	ecx, DWORD PTR _u$[ebp]
	mov	edx, DWORD PTR [ecx]
	and	edx, 1
	jne	SHORT $LN8@GreatestCo

; 73   :             RightShift_Imp(u, word_count, 1, u, TRUE);

	push	1
	mov	eax, DWORD PTR _u$[ebp]
	push	eax
	push	1
	mov	ecx, DWORD PTR _word_count$[ebp]
	push	ecx
	mov	edx, DWORD PTR _u$[ebp]
	push	edx
	call	_RightShift_Imp
	add	esp, 20					; 00000014H
	jmp	SHORT $LN7@GreatestCo
$LN8@GreatestCo:

; 74   :     }

	jmp	$LN5@GreatestCo
$LN1@GreatestCo:

; 75   : }

	add	esp, 16					; 00000010H
	cmp	ebp, esp
	call	__RTC_CheckEsp
	mov	esp, ebp
	pop	ebp
	ret	0
_GreatestCommonDivisor ENDP
_TEXT	ENDS
; Function compile flags: /Odtp /RTCsu
; File z:\sources\lunor\repos\rougemeilland\palmtree.math.core.implements\palmtree.math.core.implements\pmc_internal.h
_TEXT	SEGMENT
_pos$ = -8						; size = 4
_x$ = 8							; size = 4
__TZCNT_ALT_UNIT PROC

; 939  : {

	push	ebp
	mov	ebp, esp
	sub	esp, 12					; 0000000cH
	mov	DWORD PTR [ebp-12], -858993460		; ccccccccH
	mov	DWORD PTR [ebp-8], -858993460		; ccccccccH
	mov	DWORD PTR [ebp-4], -858993460		; ccccccccH
	mov	ecx, OFFSET __4522B509_pmc_internal@h
	call	@__CheckForDebuggerJustMyCode@4

; 940  :     if (x == 0)

	cmp	DWORD PTR _x$[ebp], 0
	jne	SHORT $LN2@TZCNT_ALT_

; 941  :         return (sizeof(x) * 8);

	mov	eax, 32					; 00000020H
	jmp	SHORT $LN1@TZCNT_ALT_
$LN2@TZCNT_ALT_:

; 942  : #ifdef _M_IX86
; 943  :     _UINT32_T pos;
; 944  : #ifdef _MSC_VER
; 945  :     _BitScanForward(&pos, x);

	bsf	eax, DWORD PTR _x$[ebp]
	mov	DWORD PTR _pos$[ebp], eax

; 946  : #elif defined(__GNUC__)
; 947  :     __asm__("bsfl %1, %0" : "=r"(pos) : "rm"(x));
; 948  : #else
; 949  : #error unknown compiler
; 950  : #endif
; 951  : #elif defined(_M_X64)
; 952  : #ifdef _MSC_VER
; 953  :     _UINT32_T pos;
; 954  :     _BitScanForward64(&pos, x);
; 955  : #elif defined(__GNUC__)
; 956  :     _UINT64_T pos;
; 957  :     __asm__("bsfq %1, %0" : "=r"(pos) : "rm"(x));
; 958  : #else
; 959  : #error unknown compiler
; 960  : #endif
; 961  : #else
; 962  : #error unknown platform
; 963  : #endif
; 964  :     return (pos);

	mov	eax, DWORD PTR _pos$[ebp]
$LN1@TZCNT_ALT_:

; 965  : }

	push	edx
	mov	ecx, ebp
	push	eax
	lea	edx, DWORD PTR $LN6@TZCNT_ALT_
	call	@_RTC_CheckStackVars@8
	pop	eax
	pop	edx
	add	esp, 12					; 0000000cH
	cmp	ebp, esp
	call	__RTC_CheckEsp
	mov	esp, ebp
	pop	ebp
	ret	0
	npad	1
$LN6@TZCNT_ALT_:
	DD	1
	DD	$LN5@TZCNT_ALT_
$LN5@TZCNT_ALT_:
	DD	-8					; fffffff8H
	DD	4
	DD	$LN4@TZCNT_ALT_
$LN4@TZCNT_ALT_:
	DB	112					; 00000070H
	DB	111					; 0000006fH
	DB	115					; 00000073H
	DB	0
__TZCNT_ALT_UNIT ENDP
_TEXT	ENDS
; Function compile flags: /Odtp /RTCsu
; File z:\sources\lunor\repos\rougemeilland\palmtree.math.core.implements\palmtree.math.core.implements\pmc_internal.h
_TEXT	SEGMENT
_pos$ = -8						; size = 4
_x$ = 8							; size = 4
__LZCNT_ALT_UNIT PROC

; 859  : {

	push	ebp
	mov	ebp, esp
	sub	esp, 12					; 0000000cH
	mov	DWORD PTR [ebp-12], -858993460		; ccccccccH
	mov	DWORD PTR [ebp-8], -858993460		; ccccccccH
	mov	DWORD PTR [ebp-4], -858993460		; ccccccccH
	mov	ecx, OFFSET __4522B509_pmc_internal@h
	call	@__CheckForDebuggerJustMyCode@4

; 860  :     if (x == 0)

	cmp	DWORD PTR _x$[ebp], 0
	jne	SHORT $LN2@LZCNT_ALT_

; 861  :         return (sizeof(x) * 8);

	mov	eax, 32					; 00000020H
	jmp	SHORT $LN1@LZCNT_ALT_
$LN2@LZCNT_ALT_:

; 862  : #ifdef _M_IX86
; 863  :     _UINT32_T pos;
; 864  : #ifdef _MSC_VER
; 865  :     _BitScanReverse(&pos, x);

	bsr	eax, DWORD PTR _x$[ebp]
	mov	DWORD PTR _pos$[ebp], eax

; 866  : #elif defined(__GNUC__)
; 867  :     __asm__("bsrl %1, %0" : "=r"(pos) : "rm"(x));
; 868  : #else
; 869  : #error unknown compiler
; 870  : #endif
; 871  : #elif defined(_M_X64)
; 872  : #ifdef _MSC_VER
; 873  :     _UINT32_T pos;
; 874  :     _BitScanReverse64(&pos, x);
; 875  : #elif defined(__GNUC__)
; 876  :     _UINT64_T pos;
; 877  :     __asm__("bsrq %1, %0" : "=r"(pos) : "rm"(x));
; 878  : #else
; 879  : #error unknown compiler
; 880  : #endif
; 881  : #else
; 882  : #error unknown platform
; 883  : #endif
; 884  :     return (sizeof(x) * 8 - 1 - pos);

	mov	eax, 31					; 0000001fH
	sub	eax, DWORD PTR _pos$[ebp]
$LN1@LZCNT_ALT_:

; 885  : }

	push	edx
	mov	ecx, ebp
	push	eax
	lea	edx, DWORD PTR $LN6@LZCNT_ALT_
	call	@_RTC_CheckStackVars@8
	pop	eax
	pop	edx
	add	esp, 12					; 0000000cH
	cmp	ebp, esp
	call	__RTC_CheckEsp
	mov	esp, ebp
	pop	ebp
	ret	0
$LN6@LZCNT_ALT_:
	DD	1
	DD	$LN5@LZCNT_ALT_
$LN5@LZCNT_ALT_:
	DD	-8					; fffffff8H
	DD	4
	DD	$LN4@LZCNT_ALT_
$LN4@LZCNT_ALT_:
	DB	112					; 00000070H
	DB	111					; 0000006fH
	DB	115					; 00000073H
	DB	0
__LZCNT_ALT_UNIT ENDP
_TEXT	ENDS
; Function compile flags: /Odtp /RTCsu
; File z:\sources\lunor\repos\rougemeilland\palmtree.math.core.implements\palmtree.math.core.implements\pmc_internal.h
_TEXT	SEGMENT
_pos$ = -8						; size = 4
_x$ = 8							; size = 4
__LZCNT_ALT_32 PROC

; 826  : {

	push	ebp
	mov	ebp, esp
	sub	esp, 12					; 0000000cH
	mov	DWORD PTR [ebp-12], -858993460		; ccccccccH
	mov	DWORD PTR [ebp-8], -858993460		; ccccccccH
	mov	DWORD PTR [ebp-4], -858993460		; ccccccccH
	mov	ecx, OFFSET __4522B509_pmc_internal@h
	call	@__CheckForDebuggerJustMyCode@4

; 827  :     if (x == 0)

	cmp	DWORD PTR _x$[ebp], 0
	jne	SHORT $LN2@LZCNT_ALT_

; 828  :         return (sizeof(x) * 8);

	mov	eax, 32					; 00000020H
	jmp	SHORT $LN1@LZCNT_ALT_
$LN2@LZCNT_ALT_:

; 829  :     _UINT32_T pos;
; 830  : #ifdef _MSC_VER
; 831  :     _BitScanReverse(&pos, x);

	bsr	eax, DWORD PTR _x$[ebp]
	mov	DWORD PTR _pos$[ebp], eax

; 832  : #elif defined(__GNUC__)
; 833  :     __asm__( "bsrl %1, %0" : "=r"(pos) : "rm"(x) );
; 834  : #else
; 835  : #error unknown compiler
; 836  : #endif
; 837  :     return (sizeof(x) * 8 - 1 - pos);

	mov	eax, 31					; 0000001fH
	sub	eax, DWORD PTR _pos$[ebp]
$LN1@LZCNT_ALT_:

; 838  : }

	push	edx
	mov	ecx, ebp
	push	eax
	lea	edx, DWORD PTR $LN6@LZCNT_ALT_
	call	@_RTC_CheckStackVars@8
	pop	eax
	pop	edx
	add	esp, 12					; 0000000cH
	cmp	ebp, esp
	call	__RTC_CheckEsp
	mov	esp, ebp
	pop	ebp
	ret	0
$LN6@LZCNT_ALT_:
	DD	1
	DD	$LN5@LZCNT_ALT_
$LN5@LZCNT_ALT_:
	DD	-8					; fffffff8H
	DD	4
	DD	$LN4@LZCNT_ALT_
$LN4@LZCNT_ALT_:
	DB	112					; 00000070H
	DB	111					; 0000006fH
	DB	115					; 00000073H
	DB	0
__LZCNT_ALT_32 ENDP
_TEXT	ENDS
; Function compile flags: /Odtp /RTCsu
; File z:\sources\lunor\repos\rougemeilland\palmtree.math.core.implements\palmtree.math.core.implements\pmc_internal.h
_TEXT	SEGMENT
tv65 = -4						; size = 4
_x$ = 8							; size = 4
_y$ = 12						; size = 4
__MINIMUM_UNIT PROC

; 438  : {

	push	ebp
	mov	ebp, esp
	push	ecx
	mov	DWORD PTR [ebp-4], -858993460		; ccccccccH
	mov	ecx, OFFSET __4522B509_pmc_internal@h
	call	@__CheckForDebuggerJustMyCode@4

; 439  :     return (x <= y ? x : y);

	mov	eax, DWORD PTR _x$[ebp]
	cmp	eax, DWORD PTR _y$[ebp]
	ja	SHORT $LN3@MINIMUM_UN
	mov	ecx, DWORD PTR _x$[ebp]
	mov	DWORD PTR tv65[ebp], ecx
	jmp	SHORT $LN4@MINIMUM_UN
$LN3@MINIMUM_UN:
	mov	edx, DWORD PTR _y$[ebp]
	mov	DWORD PTR tv65[ebp], edx
$LN4@MINIMUM_UN:
	mov	eax, DWORD PTR tv65[ebp]

; 440  : }

	add	esp, 4
	cmp	ebp, esp
	call	__RTC_CheckEsp
	mov	esp, ebp
	pop	ebp
	ret	0
__MINIMUM_UNIT ENDP
_TEXT	ENDS
; Function compile flags: /Odtp /RTCsu
; File z:\sources\lunor\repos\rougemeilland\palmtree.math.core.implements\palmtree.math.core.implements\pmc_internal.h
_TEXT	SEGMENT
tv65 = -4						; size = 4
_x$ = 8							; size = 4
_y$ = 12						; size = 4
__MAXIMUM_UNIT PROC

; 433  : {

	push	ebp
	mov	ebp, esp
	push	ecx
	mov	DWORD PTR [ebp-4], -858993460		; ccccccccH
	mov	ecx, OFFSET __4522B509_pmc_internal@h
	call	@__CheckForDebuggerJustMyCode@4

; 434  :     return (x >= y ? x : y);

	mov	eax, DWORD PTR _x$[ebp]
	cmp	eax, DWORD PTR _y$[ebp]
	jb	SHORT $LN3@MAXIMUM_UN
	mov	ecx, DWORD PTR _x$[ebp]
	mov	DWORD PTR tv65[ebp], ecx
	jmp	SHORT $LN4@MAXIMUM_UN
$LN3@MAXIMUM_UN:
	mov	edx, DWORD PTR _y$[ebp]
	mov	DWORD PTR tv65[ebp], edx
$LN4@MAXIMUM_UN:
	mov	eax, DWORD PTR tv65[ebp]

; 435  : }

	add	esp, 4
	cmp	ebp, esp
	call	__RTC_CheckEsp
	mov	esp, ebp
	pop	ebp
	ret	0
__MAXIMUM_UNIT ENDP
_TEXT	ENDS
; Function compile flags: /Odtp /RTCsu
; File z:\sources\lunor\repos\rougemeilland\palmtree.math.core.implements\palmtree.math.core.implements\pmc_internal.h
_TEXT	SEGMENT
_u$ = 8							; size = 4
_v$ = 12						; size = 4
__DIVIDE_CEILING_UNIT PROC

; 423  : {

	push	ebp
	mov	ebp, esp
	mov	ecx, OFFSET __4522B509_pmc_internal@h
	call	@__CheckForDebuggerJustMyCode@4

; 424  :     return ((u + v - 1) / v);

	mov	eax, DWORD PTR _v$[ebp]
	mov	ecx, DWORD PTR _u$[ebp]
	lea	eax, DWORD PTR [ecx+eax-1]
	xor	edx, edx
	div	DWORD PTR _v$[ebp]

; 425  : }

	cmp	ebp, esp
	call	__RTC_CheckEsp
	pop	ebp
	ret	0
__DIVIDE_CEILING_UNIT ENDP
_TEXT	ENDS
; Function compile flags: /Odtp /RTCsu
; File z:\sources\lunor\repos\rougemeilland\palmtree.math.core.implements\palmtree.math.core.implements\pmc_internal.h
_TEXT	SEGMENT
_value$ = 8						; size = 8
_result_high$ = 16					; size = 4
__FROMDWORDTOWORD PROC

; 412  : {

	push	ebp
	mov	ebp, esp
	mov	ecx, OFFSET __4522B509_pmc_internal@h
	call	@__CheckForDebuggerJustMyCode@4

; 413  :     *result_high = (_UINT32_T)(value >> 32);

	mov	eax, DWORD PTR _value$[ebp]
	mov	edx, DWORD PTR _value$[ebp+4]
	mov	cl, 32					; 00000020H
	call	__aullshr
	mov	ecx, DWORD PTR _result_high$[ebp]
	mov	DWORD PTR [ecx], eax

; 414  :     return ((_UINT32_T)value);

	mov	eax, DWORD PTR _value$[ebp]

; 415  : }

	cmp	ebp, esp
	call	__RTC_CheckEsp
	pop	ebp
	ret	0
__FROMDWORDTOWORD ENDP
_TEXT	ENDS
; Function compile flags: /Odtp /RTCsu
; File z:\sources\lunor\repos\rougemeilland\palmtree.math.core.implements\palmtree.math.core.implements\pmc_internal.h
_TEXT	SEGMENT
_d$ = 8							; size = 4
_s$ = 12						; size = 4
_count$ = 16						; size = 4
__COPY_MEMORY_UNIT PROC

; 296  : {

	push	ebp
	mov	ebp, esp
	push	esi
	push	edi
	mov	ecx, OFFSET __4522B509_pmc_internal@h
	call	@__CheckForDebuggerJustMyCode@4

; 297  : #ifdef _M_IX86
; 298  :     __movsd((unsigned long *)d, (unsigned long *)s, (unsigned long)count);

	mov	edi, DWORD PTR _d$[ebp]
	mov	esi, DWORD PTR _s$[ebp]
	mov	ecx, DWORD PTR _count$[ebp]
	rep movsd

; 299  : #elif defined(_M_X64)
; 300  :     __movsq(d, s, count);
; 301  : #else
; 302  : #error unknown platform
; 303  : #endif
; 304  : }

	pop	edi
	pop	esi
	cmp	ebp, esp
	call	__RTC_CheckEsp
	pop	ebp
	ret	0
__COPY_MEMORY_UNIT ENDP
_TEXT	ENDS
; Function compile flags: /Odtp /RTCsu
; File z:\sources\lunor\repos\rougemeilland\palmtree.math.core.implements\palmtree.math.core.implements\pmc_greatestcommondivisor.c
_TEXT	SEGMENT
_w_buf_count$1 = -124					; size = 4
_k$2 = -116						; size = 4
_v_tzcnt$3 = -112					; size = 4
_u_tzcnt$4 = -108					; size = 4
_nw_check_code$5 = -100					; size = 4
_work_v_buf$6 = -92					; size = 4
_work_v_buf_words$7 = -84				; size = 4
_work_v_buf_code$8 = -72				; size = 4
_work_u_buf$9 = -64					; size = 4
_work_u_buf_words$10 = -56				; size = 4
_work_u_buf_code$11 = -44				; size = 4
_work_bit_count$12 = -36				; size = 4
_v_bit_count$13 = -32					; size = 4
_u_bit_count$14 = -28					; size = 4
_nw$ = -20						; size = 4
_result$ = -12						; size = 4
_nv$ = -8						; size = 4
_nu$ = -4						; size = 4
_u$ = 8							; size = 4
_v$ = 12						; size = 4
_w$ = 16						; size = 4
_PMC_GreatestCommonDivisor_X_X@12 PROC

; 436  : {

	push	ebp
	mov	ebp, esp
	sub	esp, 128				; 00000080H
	push	edi
	lea	edi, DWORD PTR [ebp-128]
	mov	ecx, 32					; 00000020H
	mov	eax, -858993460				; ccccccccH
	rep stosd
	mov	ecx, OFFSET __5BD2B085_pmc_greatestcommondivisor@c
	call	@__CheckForDebuggerJustMyCode@4

; 437  :     if (u == NULL)

	cmp	DWORD PTR _u$[ebp], 0
	jne	SHORT $LN2@PMC_Greate

; 438  :         return (PMC_STATUS_ARGUMENT_ERROR);

	or	eax, -1
	jmp	$LN1@PMC_Greate
$LN2@PMC_Greate:

; 439  :     if (v == NULL)

	cmp	DWORD PTR _v$[ebp], 0
	jne	SHORT $LN3@PMC_Greate

; 440  :         return (PMC_STATUS_ARGUMENT_ERROR);

	or	eax, -1
	jmp	$LN1@PMC_Greate
$LN3@PMC_Greate:

; 441  :     if (w == NULL)

	cmp	DWORD PTR _w$[ebp], 0
	jne	SHORT $LN4@PMC_Greate

; 442  :         return (PMC_STATUS_ARGUMENT_ERROR);

	or	eax, -1
	jmp	$LN1@PMC_Greate
$LN4@PMC_Greate:

; 443  :     NUMBER_HEADER* nu = (NUMBER_HEADER*)u;

	mov	eax, DWORD PTR _u$[ebp]
	mov	DWORD PTR _nu$[ebp], eax

; 444  :     NUMBER_HEADER* nv = (NUMBER_HEADER*)v;

	mov	ecx, DWORD PTR _v$[ebp]
	mov	DWORD PTR _nv$[ebp], ecx

; 445  :     PMC_STATUS_CODE result;
; 446  :     if ((result = CheckNumber(nu)) != PMC_STATUS_OK)

	mov	edx, DWORD PTR _nu$[ebp]
	push	edx
	call	_CheckNumber
	add	esp, 4
	mov	DWORD PTR _result$[ebp], eax
	cmp	DWORD PTR _result$[ebp], 0
	je	SHORT $LN5@PMC_Greate

; 447  :         return (result);

	mov	eax, DWORD PTR _result$[ebp]
	jmp	$LN1@PMC_Greate
$LN5@PMC_Greate:

; 448  :     if ((result = CheckNumber(nv)) != PMC_STATUS_OK)

	mov	eax, DWORD PTR _nv$[ebp]
	push	eax
	call	_CheckNumber
	add	esp, 4
	mov	DWORD PTR _result$[ebp], eax
	cmp	DWORD PTR _result$[ebp], 0
	je	SHORT $LN6@PMC_Greate

; 449  :         return (result);

	mov	eax, DWORD PTR _result$[ebp]
	jmp	$LN1@PMC_Greate
$LN6@PMC_Greate:

; 450  :     NUMBER_HEADER* nw;
; 451  :     if (nu->IS_ZERO)

	mov	ecx, DWORD PTR _nu$[ebp]
	mov	edx, DWORD PTR [ecx+16]
	shr	edx, 1
	and	edx, 1
	je	SHORT $LN7@PMC_Greate

; 452  :     {
; 453  :         // u が 0 である場合
; 454  : 
; 455  :         if (nv->IS_ZERO)

	mov	eax, DWORD PTR _nv$[ebp]
	mov	ecx, DWORD PTR [eax+16]
	shr	ecx, 1
	and	ecx, 1
	je	SHORT $LN9@PMC_Greate

; 456  :         {
; 457  :             // v が 0 である場合
; 458  : 
; 459  :             // u と v がともに 0 であり、GCD は一意に存在しないため、エラーを返す。
; 460  :             return (PMC_STATUS_ARGUMENT_ERROR);

	or	eax, -1
	jmp	$LN1@PMC_Greate

; 461  :         }

	jmp	SHORT $LN10@PMC_Greate
$LN9@PMC_Greate:

; 462  :         else
; 463  :         {
; 464  :             // v が 0 ではない場合
; 465  : 
; 466  :             // GCD は v そのものであるため、v を計算結果として返す。
; 467  :             if ((result = DuplicateNumber(nv, &nw)) != PMC_STATUS_OK)

	lea	edx, DWORD PTR _nw$[ebp]
	push	edx
	mov	eax, DWORD PTR _nv$[ebp]
	push	eax
	call	_DuplicateNumber
	add	esp, 8
	mov	DWORD PTR _result$[ebp], eax
	cmp	DWORD PTR _result$[ebp], 0
	je	SHORT $LN11@PMC_Greate

; 468  :                 return (result);

	mov	eax, DWORD PTR _result$[ebp]
	jmp	$LN1@PMC_Greate
$LN11@PMC_Greate:

; 469  :             *w = nw;

	mov	ecx, DWORD PTR _w$[ebp]
	mov	edx, DWORD PTR _nw$[ebp]
	mov	DWORD PTR [ecx], edx
$LN10@PMC_Greate:

; 470  :         }
; 471  :     }

	jmp	$LN8@PMC_Greate
$LN7@PMC_Greate:

; 472  :     else
; 473  :     {
; 474  :         // u が 0 ではない場合
; 475  : 
; 476  :         if (nv->IS_ZERO)

	mov	eax, DWORD PTR _nv$[ebp]
	mov	ecx, DWORD PTR [eax+16]
	shr	ecx, 1
	and	ecx, 1
	je	SHORT $LN12@PMC_Greate

; 477  :         {
; 478  :             // v が 0 である場合
; 479  : 
; 480  :             // GCD は u そのものであるため、u を計算結果として返す。
; 481  :             if ((result = DuplicateNumber(nu, &nw)) != PMC_STATUS_OK)

	lea	edx, DWORD PTR _nw$[ebp]
	push	edx
	mov	eax, DWORD PTR _nu$[ebp]
	push	eax
	call	_DuplicateNumber
	add	esp, 8
	mov	DWORD PTR _result$[ebp], eax
	cmp	DWORD PTR _result$[ebp], 0
	je	SHORT $LN14@PMC_Greate

; 482  :                 return (result);

	mov	eax, DWORD PTR _result$[ebp]
	jmp	$LN1@PMC_Greate
$LN14@PMC_Greate:

; 483  :             *w = nw;

	mov	ecx, DWORD PTR _w$[ebp]
	mov	edx, DWORD PTR _nw$[ebp]
	mov	DWORD PTR [ecx], edx

; 484  :         }

	jmp	$LN8@PMC_Greate
$LN12@PMC_Greate:

; 485  :         else
; 486  :         {
; 487  :             // u と v がともに 0 ではない場合
; 488  : 
; 489  :             // u と v の GCD を計算する
; 490  :             __UNIT_TYPE u_bit_count = nu->UNIT_BIT_COUNT;

	mov	eax, DWORD PTR _nu$[ebp]
	mov	ecx, DWORD PTR [eax+4]
	mov	DWORD PTR _u_bit_count$14[ebp], ecx

; 491  :             __UNIT_TYPE v_bit_count = nv->UNIT_BIT_COUNT;

	mov	edx, DWORD PTR _nv$[ebp]
	mov	eax, DWORD PTR [edx+4]
	mov	DWORD PTR _v_bit_count$13[ebp], eax

; 492  :             __UNIT_TYPE work_bit_count = _MAXIMUM_UNIT(u_bit_count, v_bit_count);

	mov	ecx, DWORD PTR _v_bit_count$13[ebp]
	push	ecx
	mov	edx, DWORD PTR _u_bit_count$14[ebp]
	push	edx
	call	__MAXIMUM_UNIT
	add	esp, 8
	mov	DWORD PTR _work_bit_count$12[ebp], eax

; 493  : 
; 494  :             __UNIT_TYPE work_u_buf_code;
; 495  :             __UNIT_TYPE work_u_buf_words;
; 496  :             __UNIT_TYPE* work_u_buf = AllocateBlock(work_bit_count, &work_u_buf_words, &work_u_buf_code);

	lea	eax, DWORD PTR _work_u_buf_code$11[ebp]
	push	eax
	lea	ecx, DWORD PTR _work_u_buf_words$10[ebp]
	push	ecx
	mov	edx, DWORD PTR _work_bit_count$12[ebp]
	push	edx
	call	_AllocateBlock
	add	esp, 12					; 0000000cH
	mov	DWORD PTR _work_u_buf$9[ebp], eax

; 497  :             if (work_u_buf == NULL)

	cmp	DWORD PTR _work_u_buf$9[ebp], 0
	jne	SHORT $LN15@PMC_Greate

; 498  :                 return (PMC_STATUS_NOT_ENOUGH_MEMORY);

	mov	eax, -5					; fffffffbH
	jmp	$LN1@PMC_Greate
$LN15@PMC_Greate:

; 499  : 
; 500  :             __UNIT_TYPE work_v_buf_code;
; 501  :             __UNIT_TYPE work_v_buf_words;
; 502  :             __UNIT_TYPE* work_v_buf = AllocateBlock(work_bit_count, &work_v_buf_words, &work_v_buf_code);

	lea	eax, DWORD PTR _work_v_buf_code$8[ebp]
	push	eax
	lea	ecx, DWORD PTR _work_v_buf_words$7[ebp]
	push	ecx
	mov	edx, DWORD PTR _work_bit_count$12[ebp]
	push	edx
	call	_AllocateBlock
	add	esp, 12					; 0000000cH
	mov	DWORD PTR _work_v_buf$6[ebp], eax

; 503  :             if (work_v_buf == NULL)

	cmp	DWORD PTR _work_v_buf$6[ebp], 0
	jne	SHORT $LN16@PMC_Greate

; 504  :             {
; 505  :                 DeallocateBlock(work_u_buf, work_u_buf_words);

	mov	eax, DWORD PTR _work_u_buf_words$10[ebp]
	push	eax
	mov	ecx, DWORD PTR _work_u_buf$9[ebp]
	push	ecx
	call	_DeallocateBlock
	add	esp, 8

; 506  :                 return (PMC_STATUS_NOT_ENOUGH_MEMORY);

	mov	eax, -5					; fffffffbH
	jmp	$LN1@PMC_Greate
$LN16@PMC_Greate:

; 507  :             }
; 508  : 
; 509  :             __UNIT_TYPE nw_check_code;
; 510  :             if ((result = AllocateNumber(&nw, work_bit_count, &nw_check_code)) != PMC_STATUS_OK)

	lea	edx, DWORD PTR _nw_check_code$5[ebp]
	push	edx
	mov	eax, DWORD PTR _work_bit_count$12[ebp]
	push	eax
	lea	ecx, DWORD PTR _nw$[ebp]
	push	ecx
	call	_AllocateNumber
	add	esp, 12					; 0000000cH
	mov	DWORD PTR _result$[ebp], eax
	cmp	DWORD PTR _result$[ebp], 0
	je	SHORT $LN17@PMC_Greate

; 511  :             {
; 512  :                 DeallocateBlock(work_v_buf, work_v_buf_words);

	mov	edx, DWORD PTR _work_v_buf_words$7[ebp]
	push	edx
	mov	eax, DWORD PTR _work_v_buf$6[ebp]
	push	eax
	call	_DeallocateBlock
	add	esp, 8

; 513  :                 DeallocateBlock(work_u_buf, work_u_buf_words);

	mov	ecx, DWORD PTR _work_u_buf_words$10[ebp]
	push	ecx
	mov	edx, DWORD PTR _work_u_buf$9[ebp]
	push	edx
	call	_DeallocateBlock
	add	esp, 8

; 514  :                 return (result);

	mov	eax, DWORD PTR _result$[ebp]
	jmp	$LN1@PMC_Greate
$LN17@PMC_Greate:

; 515  :             }
; 516  : 
; 517  :             __UNIT_TYPE u_tzcnt = nu->TRAILING_ZERO_BITS_COUNT;

	mov	eax, DWORD PTR _nu$[ebp]
	mov	ecx, DWORD PTR [eax+12]
	mov	DWORD PTR _u_tzcnt$4[ebp], ecx

; 518  :             __UNIT_TYPE v_tzcnt = nv->TRAILING_ZERO_BITS_COUNT;

	mov	edx, DWORD PTR _nv$[ebp]
	mov	eax, DWORD PTR [edx+12]
	mov	DWORD PTR _v_tzcnt$3[ebp], eax

; 519  :             __UNIT_TYPE k = _MINIMUM_UNIT(u_tzcnt, v_tzcnt);

	mov	ecx, DWORD PTR _v_tzcnt$3[ebp]
	push	ecx
	mov	edx, DWORD PTR _u_tzcnt$4[ebp]
	push	edx
	call	__MINIMUM_UNIT
	add	esp, 8
	mov	DWORD PTR _k$2[ebp], eax

; 520  :             if (u_tzcnt > 0)

	cmp	DWORD PTR _u_tzcnt$4[ebp], 0
	jbe	SHORT $LN18@PMC_Greate

; 521  :                 RightShift_Imp(nu->BLOCK, nu->UNIT_WORD_COUNT, u_tzcnt, work_u_buf, FALSE);

	push	0
	mov	eax, DWORD PTR _work_u_buf$9[ebp]
	push	eax
	mov	ecx, DWORD PTR _u_tzcnt$4[ebp]
	push	ecx
	mov	edx, DWORD PTR _nu$[ebp]
	mov	eax, DWORD PTR [edx]
	push	eax
	mov	ecx, DWORD PTR _nu$[ebp]
	mov	edx, DWORD PTR [ecx+24]
	push	edx
	call	_RightShift_Imp
	add	esp, 20					; 00000014H
	jmp	SHORT $LN19@PMC_Greate
$LN18@PMC_Greate:

; 522  :             else
; 523  :                 _COPY_MEMORY_UNIT(work_u_buf, nu->BLOCK, nu->UNIT_WORD_COUNT);

	mov	eax, DWORD PTR _nu$[ebp]
	mov	ecx, DWORD PTR [eax]
	push	ecx
	mov	edx, DWORD PTR _nu$[ebp]
	mov	eax, DWORD PTR [edx+24]
	push	eax
	mov	ecx, DWORD PTR _work_u_buf$9[ebp]
	push	ecx
	call	__COPY_MEMORY_UNIT
	add	esp, 12					; 0000000cH
$LN19@PMC_Greate:

; 524  :             if (v_tzcnt > 0)

	cmp	DWORD PTR _v_tzcnt$3[ebp], 0
	jbe	SHORT $LN20@PMC_Greate

; 525  :                 RightShift_Imp(nv->BLOCK, nv->UNIT_WORD_COUNT, v_tzcnt, work_v_buf, FALSE);

	push	0
	mov	edx, DWORD PTR _work_v_buf$6[ebp]
	push	edx
	mov	eax, DWORD PTR _v_tzcnt$3[ebp]
	push	eax
	mov	ecx, DWORD PTR _nv$[ebp]
	mov	edx, DWORD PTR [ecx]
	push	edx
	mov	eax, DWORD PTR _nv$[ebp]
	mov	ecx, DWORD PTR [eax+24]
	push	ecx
	call	_RightShift_Imp
	add	esp, 20					; 00000014H
	jmp	SHORT $LN21@PMC_Greate
$LN20@PMC_Greate:

; 526  :             else
; 527  :                 _COPY_MEMORY_UNIT(work_v_buf, nv->BLOCK, nv->UNIT_WORD_COUNT);

	mov	edx, DWORD PTR _nv$[ebp]
	mov	eax, DWORD PTR [edx]
	push	eax
	mov	ecx, DWORD PTR _nv$[ebp]
	mov	edx, DWORD PTR [ecx+24]
	push	edx
	mov	eax, DWORD PTR _work_v_buf$6[ebp]
	push	eax
	call	__COPY_MEMORY_UNIT
	add	esp, 12					; 0000000cH
$LN21@PMC_Greate:

; 528  : 
; 529  :             __UNIT_TYPE w_buf_count;
; 530  :             GreatestCommonDivisor(work_u_buf, work_v_buf, _DIVIDE_CEILING_UNIT(work_bit_count, __UNIT_TYPE_BIT_COUNT), nw->BLOCK, &w_buf_count);

	lea	ecx, DWORD PTR _w_buf_count$1[ebp]
	push	ecx
	mov	edx, DWORD PTR _nw$[ebp]
	mov	eax, DWORD PTR [edx+24]
	push	eax
	push	32					; 00000020H
	mov	ecx, DWORD PTR _work_bit_count$12[ebp]
	push	ecx
	call	__DIVIDE_CEILING_UNIT
	add	esp, 8
	push	eax
	mov	edx, DWORD PTR _work_v_buf$6[ebp]
	push	edx
	mov	eax, DWORD PTR _work_u_buf$9[ebp]
	push	eax
	call	_GreatestCommonDivisor
	add	esp, 20					; 00000014H

; 531  :             if ((result = CheckBlockLight(work_u_buf, work_u_buf_code)) != PMC_STATUS_OK)

	mov	ecx, DWORD PTR _work_u_buf_code$11[ebp]
	push	ecx
	mov	edx, DWORD PTR _work_u_buf$9[ebp]
	push	edx
	call	_CheckBlockLight
	add	esp, 8
	mov	DWORD PTR _result$[ebp], eax
	cmp	DWORD PTR _result$[ebp], 0
	je	SHORT $LN22@PMC_Greate

; 532  :                 return (result);

	mov	eax, DWORD PTR _result$[ebp]
	jmp	$LN1@PMC_Greate
$LN22@PMC_Greate:

; 533  :             if ((result = CheckBlockLight(work_v_buf, work_v_buf_code)) != PMC_STATUS_OK)

	mov	eax, DWORD PTR _work_v_buf_code$8[ebp]
	push	eax
	mov	ecx, DWORD PTR _work_v_buf$6[ebp]
	push	ecx
	call	_CheckBlockLight
	add	esp, 8
	mov	DWORD PTR _result$[ebp], eax
	cmp	DWORD PTR _result$[ebp], 0
	je	SHORT $LN23@PMC_Greate

; 534  :                 return (result);

	mov	eax, DWORD PTR _result$[ebp]
	jmp	$LN1@PMC_Greate
$LN23@PMC_Greate:

; 535  :             if ((result = CheckBlockLight(nw->BLOCK, nw_check_code)) != PMC_STATUS_OK)

	mov	edx, DWORD PTR _nw_check_code$5[ebp]
	push	edx
	mov	eax, DWORD PTR _nw$[ebp]
	mov	ecx, DWORD PTR [eax+24]
	push	ecx
	call	_CheckBlockLight
	add	esp, 8
	mov	DWORD PTR _result$[ebp], eax
	cmp	DWORD PTR _result$[ebp], 0
	je	SHORT $LN24@PMC_Greate

; 536  :                 return (result);

	mov	eax, DWORD PTR _result$[ebp]
	jmp	$LN1@PMC_Greate
$LN24@PMC_Greate:

; 537  :             DeallocateBlock(work_v_buf, work_v_buf_words);

	mov	edx, DWORD PTR _work_v_buf_words$7[ebp]
	push	edx
	mov	eax, DWORD PTR _work_v_buf$6[ebp]
	push	eax
	call	_DeallocateBlock
	add	esp, 8

; 538  :             DeallocateBlock(work_u_buf, work_u_buf_words);

	mov	ecx, DWORD PTR _work_u_buf_words$10[ebp]
	push	ecx
	mov	edx, DWORD PTR _work_u_buf$9[ebp]
	push	edx
	call	_DeallocateBlock
	add	esp, 8

; 539  : 
; 540  :             LeftShift_Imp(nw->BLOCK, w_buf_count, k, nw->BLOCK, TRUE);

	push	1
	mov	eax, DWORD PTR _nw$[ebp]
	mov	ecx, DWORD PTR [eax+24]
	push	ecx
	mov	edx, DWORD PTR _k$2[ebp]
	push	edx
	mov	eax, DWORD PTR _w_buf_count$1[ebp]
	push	eax
	mov	ecx, DWORD PTR _nw$[ebp]
	mov	edx, DWORD PTR [ecx+24]
	push	edx
	call	_LeftShift_Imp
	add	esp, 20					; 00000014H

; 541  :             if ((result = CheckBlockLight(nw->BLOCK, nw_check_code)) != PMC_STATUS_OK)

	mov	eax, DWORD PTR _nw_check_code$5[ebp]
	push	eax
	mov	ecx, DWORD PTR _nw$[ebp]
	mov	edx, DWORD PTR [ecx+24]
	push	edx
	call	_CheckBlockLight
	add	esp, 8
	mov	DWORD PTR _result$[ebp], eax
	cmp	DWORD PTR _result$[ebp], 0
	je	SHORT $LN25@PMC_Greate

; 542  :                 return (result);

	mov	eax, DWORD PTR _result$[ebp]
	jmp	SHORT $LN1@PMC_Greate
$LN25@PMC_Greate:

; 543  :             CommitNumber(nw);

	mov	eax, DWORD PTR _nw$[ebp]
	push	eax
	call	_CommitNumber
	add	esp, 4

; 544  :             *w = nw;

	mov	ecx, DWORD PTR _w$[ebp]
	mov	edx, DWORD PTR _nw$[ebp]
	mov	DWORD PTR [ecx], edx
$LN8@PMC_Greate:

; 545  :         }
; 546  :     }
; 547  : #ifdef _DEBUG
; 548  :     if ((result = CheckNumber(*w)) != PMC_STATUS_OK)

	mov	eax, DWORD PTR _w$[ebp]
	mov	ecx, DWORD PTR [eax]
	push	ecx
	call	_CheckNumber
	add	esp, 4
	mov	DWORD PTR _result$[ebp], eax
	cmp	DWORD PTR _result$[ebp], 0
	je	SHORT $LN26@PMC_Greate

; 549  :         return (result);

	mov	eax, DWORD PTR _result$[ebp]
	jmp	SHORT $LN1@PMC_Greate
$LN26@PMC_Greate:

; 550  : #endif
; 551  :     return (PMC_STATUS_OK);

	xor	eax, eax
$LN1@PMC_Greate:

; 552  : }

	push	edx
	mov	ecx, ebp
	push	eax
	lea	edx, DWORD PTR $LN36@PMC_Greate
	call	@_RTC_CheckStackVars@8
	pop	eax
	pop	edx
	pop	edi
	add	esp, 128				; 00000080H
	cmp	ebp, esp
	call	__RTC_CheckEsp
	mov	esp, ebp
	pop	ebp
	ret	12					; 0000000cH
	npad	3
$LN36@PMC_Greate:
	DD	7
	DD	$LN35@PMC_Greate
$LN35@PMC_Greate:
	DD	-20					; ffffffecH
	DD	4
	DD	$LN28@PMC_Greate
	DD	-44					; ffffffd4H
	DD	4
	DD	$LN29@PMC_Greate
	DD	-56					; ffffffc8H
	DD	4
	DD	$LN30@PMC_Greate
	DD	-72					; ffffffb8H
	DD	4
	DD	$LN31@PMC_Greate
	DD	-84					; ffffffacH
	DD	4
	DD	$LN32@PMC_Greate
	DD	-100					; ffffff9cH
	DD	4
	DD	$LN33@PMC_Greate
	DD	-124					; ffffff84H
	DD	4
	DD	$LN34@PMC_Greate
$LN34@PMC_Greate:
	DB	119					; 00000077H
	DB	95					; 0000005fH
	DB	98					; 00000062H
	DB	117					; 00000075H
	DB	102					; 00000066H
	DB	95					; 0000005fH
	DB	99					; 00000063H
	DB	111					; 0000006fH
	DB	117					; 00000075H
	DB	110					; 0000006eH
	DB	116					; 00000074H
	DB	0
$LN33@PMC_Greate:
	DB	110					; 0000006eH
	DB	119					; 00000077H
	DB	95					; 0000005fH
	DB	99					; 00000063H
	DB	104					; 00000068H
	DB	101					; 00000065H
	DB	99					; 00000063H
	DB	107					; 0000006bH
	DB	95					; 0000005fH
	DB	99					; 00000063H
	DB	111					; 0000006fH
	DB	100					; 00000064H
	DB	101					; 00000065H
	DB	0
$LN32@PMC_Greate:
	DB	119					; 00000077H
	DB	111					; 0000006fH
	DB	114					; 00000072H
	DB	107					; 0000006bH
	DB	95					; 0000005fH
	DB	118					; 00000076H
	DB	95					; 0000005fH
	DB	98					; 00000062H
	DB	117					; 00000075H
	DB	102					; 00000066H
	DB	95					; 0000005fH
	DB	119					; 00000077H
	DB	111					; 0000006fH
	DB	114					; 00000072H
	DB	100					; 00000064H
	DB	115					; 00000073H
	DB	0
$LN31@PMC_Greate:
	DB	119					; 00000077H
	DB	111					; 0000006fH
	DB	114					; 00000072H
	DB	107					; 0000006bH
	DB	95					; 0000005fH
	DB	118					; 00000076H
	DB	95					; 0000005fH
	DB	98					; 00000062H
	DB	117					; 00000075H
	DB	102					; 00000066H
	DB	95					; 0000005fH
	DB	99					; 00000063H
	DB	111					; 0000006fH
	DB	100					; 00000064H
	DB	101					; 00000065H
	DB	0
$LN30@PMC_Greate:
	DB	119					; 00000077H
	DB	111					; 0000006fH
	DB	114					; 00000072H
	DB	107					; 0000006bH
	DB	95					; 0000005fH
	DB	117					; 00000075H
	DB	95					; 0000005fH
	DB	98					; 00000062H
	DB	117					; 00000075H
	DB	102					; 00000066H
	DB	95					; 0000005fH
	DB	119					; 00000077H
	DB	111					; 0000006fH
	DB	114					; 00000072H
	DB	100					; 00000064H
	DB	115					; 00000073H
	DB	0
$LN29@PMC_Greate:
	DB	119					; 00000077H
	DB	111					; 0000006fH
	DB	114					; 00000072H
	DB	107					; 0000006bH
	DB	95					; 0000005fH
	DB	117					; 00000075H
	DB	95					; 0000005fH
	DB	98					; 00000062H
	DB	117					; 00000075H
	DB	102					; 00000066H
	DB	95					; 0000005fH
	DB	99					; 00000063H
	DB	111					; 0000006fH
	DB	100					; 00000064H
	DB	101					; 00000065H
	DB	0
$LN28@PMC_Greate:
	DB	110					; 0000006eH
	DB	119					; 00000077H
	DB	0
_PMC_GreatestCommonDivisor_X_X@12 ENDP
_TEXT	ENDS
; Function compile flags: /Odtp /RTCsu
; File z:\sources\lunor\repos\rougemeilland\palmtree.math.core.implements\palmtree.math.core.implements\pmc_greatestcommondivisor.c
_TEXT	SEGMENT
tv244 = -348						; size = 4
_w_buf_count$1 = -340					; size = 4
_k$2 = -332						; size = 4
_v_tzcnt$3 = -328					; size = 4
_u_tzcnt$4 = -324					; size = 4
_nw_check_code$5 = -316					; size = 4
_work_v_buf$6 = -308					; size = 4
_work_v_buf_words$7 = -300				; size = 4
_work_v_buf_code$8 = -288				; size = 4
_work_u_buf$9 = -280					; size = 4
_work_u_buf_words$10 = -272				; size = 4
_work_u_buf_code$11 = -260				; size = 4
_work_bit_count$12 = -252				; size = 4
_v_bit_count$13 = -248					; size = 4
_u_bit_count$14 = -244					; size = 4
_w_buf_count$15 = -236					; size = 4
_k$16 = -228						; size = 4
_v_tzcnt$17 = -224					; size = 4
_u_tzcnt$18 = -220					; size = 4
_nw_check_code$19 = -212				; size = 4
_work_v_buf$20 = -204					; size = 4
_work_v_buf_words$21 = -196				; size = 4
_work_v_buf_code$22 = -184				; size = 4
_work_u_buf$23 = -176					; size = 4
_work_u_buf_words$24 = -168				; size = 4
_work_u_buf_code$25 = -156				; size = 4
_work_bit_count$26 = -148				; size = 4
_v_bit_count$27 = -144					; size = 4
_w_buf_count$28 = -136					; size = 4
_k$29 = -128						; size = 4
_v_tzcnt$30 = -124					; size = 4
_u_tzcnt$31 = -120					; size = 4
_nw_check_code$32 = -112				; size = 4
_work_v_buf$33 = -104					; size = 4
_work_v_buf_words$34 = -96				; size = 4
_work_v_buf_code$35 = -84				; size = 4
_work_u_buf$36 = -76					; size = 4
_work_u_buf_words$37 = -68				; size = 4
_work_u_buf_code$38 = -56				; size = 4
_work_bit_count$39 = -48				; size = 4
_v_bit_count$40 = -44					; size = 4
_v_lo$41 = -40						; size = 4
_v_hi$42 = -32						; size = 4
_u_bit_count$43 = -24					; size = 4
_nw$ = -16						; size = 4
_result$ = -8						; size = 4
_nu$ = -4						; size = 4
_u$ = 8							; size = 4
_v$ = 12						; size = 8
_w$ = 20						; size = 4
_PMC_GreatestCommonDivisor_X_L@16 PROC

; 194  : {

	push	ebp
	mov	ebp, esp
	sub	esp, 348				; 0000015cH
	push	edi
	lea	edi, DWORD PTR [ebp-348]
	mov	ecx, 87					; 00000057H
	mov	eax, -858993460				; ccccccccH
	rep stosd
	mov	ecx, OFFSET __5BD2B085_pmc_greatestcommondivisor@c
	call	@__CheckForDebuggerJustMyCode@4

; 195  :     if (__UNIT_TYPE_BIT_COUNT * 2 < sizeof(v) * 8)

	xor	eax, eax
	je	SHORT $LN2@PMC_Greate

; 196  :     {
; 197  :         // _UINT64_T が 2 ワードで表現しきれない処理系には対応しない
; 198  :         return (PMC_STATUS_INTERNAL_ERROR);

	mov	eax, -256				; ffffff00H
	jmp	$LN1@PMC_Greate
$LN2@PMC_Greate:

; 199  :     }
; 200  :     if (u == NULL)

	cmp	DWORD PTR _u$[ebp], 0
	jne	SHORT $LN3@PMC_Greate

; 201  :         return (PMC_STATUS_ARGUMENT_ERROR);

	or	eax, -1
	jmp	$LN1@PMC_Greate
$LN3@PMC_Greate:

; 202  :     if (w == NULL)

	cmp	DWORD PTR _w$[ebp], 0
	jne	SHORT $LN4@PMC_Greate

; 203  :         return (PMC_STATUS_ARGUMENT_ERROR);

	or	eax, -1
	jmp	$LN1@PMC_Greate
$LN4@PMC_Greate:

; 204  :     NUMBER_HEADER* nu = (NUMBER_HEADER*)u;

	mov	ecx, DWORD PTR _u$[ebp]
	mov	DWORD PTR _nu$[ebp], ecx

; 205  :     PMC_STATUS_CODE result;
; 206  :     if ((result = CheckNumber(nu)) != PMC_STATUS_OK)

	mov	edx, DWORD PTR _nu$[ebp]
	push	edx
	call	_CheckNumber
	add	esp, 4
	mov	DWORD PTR _result$[ebp], eax
	cmp	DWORD PTR _result$[ebp], 0
	je	SHORT $LN5@PMC_Greate

; 207  :         return (result);

	mov	eax, DWORD PTR _result$[ebp]
	jmp	$LN1@PMC_Greate
$LN5@PMC_Greate:

; 208  :     NUMBER_HEADER* nw;
; 209  :     if (nu->IS_ZERO)

	mov	eax, DWORD PTR _nu$[ebp]
	mov	ecx, DWORD PTR [eax+16]
	shr	ecx, 1
	and	ecx, 1
	je	SHORT $LN6@PMC_Greate

; 210  :     {
; 211  :         // u が 0 である場合
; 212  : 
; 213  :         if (v == 0)

	mov	edx, DWORD PTR _v$[ebp]
	or	edx, DWORD PTR _v$[ebp+4]
	jne	SHORT $LN8@PMC_Greate

; 214  :         {
; 215  :             // v が 0 である場合
; 216  : 
; 217  :             // u と v がともに 0 であり、GCD は一意に存在しないため、エラーを返す。
; 218  :             return (PMC_STATUS_ARGUMENT_ERROR);

	or	eax, -1
	jmp	$LN1@PMC_Greate

; 219  :         }

	jmp	SHORT $LN9@PMC_Greate
$LN8@PMC_Greate:

; 220  :         else
; 221  :         {
; 222  :             // v が 0 ではない場合
; 223  : 
; 224  :             // GCD は v そのものであるため、v を計算結果として返す。
; 225  :             if ((result = From_L_Imp(v, &nw)) != PMC_STATUS_OK)

	lea	eax, DWORD PTR _nw$[ebp]
	push	eax
	mov	ecx, DWORD PTR _v$[ebp+4]
	push	ecx
	mov	edx, DWORD PTR _v$[ebp]
	push	edx
	call	_From_L_Imp
	add	esp, 12					; 0000000cH
	mov	DWORD PTR _result$[ebp], eax
	cmp	DWORD PTR _result$[ebp], 0
	je	SHORT $LN10@PMC_Greate

; 226  :                 return (result);

	mov	eax, DWORD PTR _result$[ebp]
	jmp	$LN1@PMC_Greate
$LN10@PMC_Greate:

; 227  :             *w = nw;

	mov	eax, DWORD PTR _w$[ebp]
	mov	ecx, DWORD PTR _nw$[ebp]
	mov	DWORD PTR [eax], ecx
$LN9@PMC_Greate:

; 228  :         }
; 229  :     }

	jmp	$LN7@PMC_Greate
$LN6@PMC_Greate:

; 230  :     else
; 231  :     {
; 232  :         // u が 0 ではない場合
; 233  : 
; 234  :         if (v == 0)

	mov	edx, DWORD PTR _v$[ebp]
	or	edx, DWORD PTR _v$[ebp+4]
	jne	SHORT $LN11@PMC_Greate

; 235  :         {
; 236  :             // v が 0 である場合
; 237  : 
; 238  :             // GCD は u そのものであるため、u を計算結果として返す。
; 239  :             if ((result = DuplicateNumber(nu, &nw)) != PMC_STATUS_OK)

	lea	eax, DWORD PTR _nw$[ebp]
	push	eax
	mov	ecx, DWORD PTR _nu$[ebp]
	push	ecx
	call	_DuplicateNumber
	add	esp, 8
	mov	DWORD PTR _result$[ebp], eax
	cmp	DWORD PTR _result$[ebp], 0
	je	SHORT $LN13@PMC_Greate

; 240  :                 return (result);

	mov	eax, DWORD PTR _result$[ebp]
	jmp	$LN1@PMC_Greate
$LN13@PMC_Greate:

; 241  :             *w = nw;

	mov	edx, DWORD PTR _w$[ebp]
	mov	eax, DWORD PTR _nw$[ebp]
	mov	DWORD PTR [edx], eax

; 242  :         }

	jmp	$LN7@PMC_Greate
$LN11@PMC_Greate:

; 243  :         else
; 244  :         {
; 245  :             // u と v がともに 0 ではない場合
; 246  : 
; 247  :             // u と v の GCD を計算する
; 248  :             if (__UNIT_TYPE_BIT_COUNT < sizeof(v) * 8)

	mov	ecx, 1
	test	ecx, ecx
	je	$LN14@PMC_Greate

; 249  :             {
; 250  :                 // _UINT64_T が 1 ワードで表現しきれない場合
; 251  : 
; 252  :                 __UNIT_TYPE u_bit_count = nu->UNIT_BIT_COUNT;

	mov	edx, DWORD PTR _nu$[ebp]
	mov	eax, DWORD PTR [edx+4]
	mov	DWORD PTR _u_bit_count$43[ebp], eax

; 253  :                 _UINT32_T v_hi;
; 254  :                 _UINT32_T v_lo = _FROMDWORDTOWORD(v, &v_hi);

	lea	ecx, DWORD PTR _v_hi$42[ebp]
	push	ecx
	mov	edx, DWORD PTR _v$[ebp+4]
	push	edx
	mov	eax, DWORD PTR _v$[ebp]
	push	eax
	call	__FROMDWORDTOWORD
	add	esp, 12					; 0000000cH
	mov	DWORD PTR _v_lo$41[ebp], eax

; 255  :                 if (v_hi == 0)

	cmp	DWORD PTR _v_hi$42[ebp], 0
	jne	$LN16@PMC_Greate

; 256  :                 {
; 257  :                     // v の値が 32bit で表現可能な場合
; 258  :                     __UNIT_TYPE v_bit_count = sizeof(v_lo) * 8 - _LZCNT_ALT_32(v_lo);

	mov	ecx, DWORD PTR _v_lo$41[ebp]
	push	ecx
	call	__LZCNT_ALT_32
	add	esp, 4
	mov	edx, 32					; 00000020H
	sub	edx, eax
	mov	DWORD PTR _v_bit_count$40[ebp], edx

; 259  :                     __UNIT_TYPE work_bit_count = _MAXIMUM_UNIT(u_bit_count, v_bit_count);

	mov	eax, DWORD PTR _v_bit_count$40[ebp]
	push	eax
	mov	ecx, DWORD PTR _u_bit_count$43[ebp]
	push	ecx
	call	__MAXIMUM_UNIT
	add	esp, 8
	mov	DWORD PTR _work_bit_count$39[ebp], eax

; 260  : 
; 261  :                     __UNIT_TYPE work_u_buf_code;
; 262  :                     __UNIT_TYPE work_u_buf_words;
; 263  :                     __UNIT_TYPE* work_u_buf = AllocateBlock(work_bit_count, &work_u_buf_words, &work_u_buf_code);

	lea	edx, DWORD PTR _work_u_buf_code$38[ebp]
	push	edx
	lea	eax, DWORD PTR _work_u_buf_words$37[ebp]
	push	eax
	mov	ecx, DWORD PTR _work_bit_count$39[ebp]
	push	ecx
	call	_AllocateBlock
	add	esp, 12					; 0000000cH
	mov	DWORD PTR _work_u_buf$36[ebp], eax

; 264  :                     if (work_u_buf == NULL)

	cmp	DWORD PTR _work_u_buf$36[ebp], 0
	jne	SHORT $LN18@PMC_Greate

; 265  :                         return (PMC_STATUS_NOT_ENOUGH_MEMORY);

	mov	eax, -5					; fffffffbH
	jmp	$LN1@PMC_Greate
$LN18@PMC_Greate:

; 266  : 
; 267  :                     __UNIT_TYPE work_v_buf_code;
; 268  :                     __UNIT_TYPE work_v_buf_words;
; 269  :                     __UNIT_TYPE* work_v_buf = AllocateBlock(work_bit_count, &work_v_buf_words, &work_v_buf_code);

	lea	edx, DWORD PTR _work_v_buf_code$35[ebp]
	push	edx
	lea	eax, DWORD PTR _work_v_buf_words$34[ebp]
	push	eax
	mov	ecx, DWORD PTR _work_bit_count$39[ebp]
	push	ecx
	call	_AllocateBlock
	add	esp, 12					; 0000000cH
	mov	DWORD PTR _work_v_buf$33[ebp], eax

; 270  :                     if (work_v_buf == NULL)

	cmp	DWORD PTR _work_v_buf$33[ebp], 0
	jne	SHORT $LN19@PMC_Greate

; 271  :                     {
; 272  :                         DeallocateBlock(work_u_buf, work_u_buf_words);

	mov	edx, DWORD PTR _work_u_buf_words$37[ebp]
	push	edx
	mov	eax, DWORD PTR _work_u_buf$36[ebp]
	push	eax
	call	_DeallocateBlock
	add	esp, 8

; 273  :                         return (PMC_STATUS_NOT_ENOUGH_MEMORY);

	mov	eax, -5					; fffffffbH
	jmp	$LN1@PMC_Greate
$LN19@PMC_Greate:

; 274  :                     }
; 275  : 
; 276  :                     __UNIT_TYPE nw_check_code;
; 277  :                     if ((result = AllocateNumber(&nw, work_bit_count, &nw_check_code)) != PMC_STATUS_OK)

	lea	ecx, DWORD PTR _nw_check_code$32[ebp]
	push	ecx
	mov	edx, DWORD PTR _work_bit_count$39[ebp]
	push	edx
	lea	eax, DWORD PTR _nw$[ebp]
	push	eax
	call	_AllocateNumber
	add	esp, 12					; 0000000cH
	mov	DWORD PTR _result$[ebp], eax
	cmp	DWORD PTR _result$[ebp], 0
	je	SHORT $LN20@PMC_Greate

; 278  :                     {
; 279  :                         DeallocateBlock(work_v_buf, work_v_buf_words);

	mov	ecx, DWORD PTR _work_v_buf_words$34[ebp]
	push	ecx
	mov	edx, DWORD PTR _work_v_buf$33[ebp]
	push	edx
	call	_DeallocateBlock
	add	esp, 8

; 280  :                         DeallocateBlock(work_u_buf, work_u_buf_words);

	mov	eax, DWORD PTR _work_u_buf_words$37[ebp]
	push	eax
	mov	ecx, DWORD PTR _work_u_buf$36[ebp]
	push	ecx
	call	_DeallocateBlock
	add	esp, 8

; 281  :                         return (result);

	mov	eax, DWORD PTR _result$[ebp]
	jmp	$LN1@PMC_Greate
$LN20@PMC_Greate:

; 282  :                     }
; 283  : 
; 284  :                     __UNIT_TYPE u_tzcnt = nu->TRAILING_ZERO_BITS_COUNT;

	mov	edx, DWORD PTR _nu$[ebp]
	mov	eax, DWORD PTR [edx+12]
	mov	DWORD PTR _u_tzcnt$31[ebp], eax

; 285  :                     __UNIT_TYPE v_tzcnt = _TZCNT_ALT_UNIT(v_lo);

	mov	ecx, DWORD PTR _v_lo$41[ebp]
	push	ecx
	call	__TZCNT_ALT_UNIT
	add	esp, 4
	mov	DWORD PTR _v_tzcnt$30[ebp], eax

; 286  :                     __UNIT_TYPE k = _MINIMUM_UNIT(u_tzcnt, v_tzcnt);

	mov	edx, DWORD PTR _v_tzcnt$30[ebp]
	push	edx
	mov	eax, DWORD PTR _u_tzcnt$31[ebp]
	push	eax
	call	__MINIMUM_UNIT
	add	esp, 8
	mov	DWORD PTR _k$29[ebp], eax

; 287  :                     if (u_tzcnt > 0)

	cmp	DWORD PTR _u_tzcnt$31[ebp], 0
	jbe	SHORT $LN21@PMC_Greate

; 288  :                         RightShift_Imp(nu->BLOCK, nu->UNIT_WORD_COUNT, u_tzcnt, work_u_buf, FALSE);

	push	0
	mov	ecx, DWORD PTR _work_u_buf$36[ebp]
	push	ecx
	mov	edx, DWORD PTR _u_tzcnt$31[ebp]
	push	edx
	mov	eax, DWORD PTR _nu$[ebp]
	mov	ecx, DWORD PTR [eax]
	push	ecx
	mov	edx, DWORD PTR _nu$[ebp]
	mov	eax, DWORD PTR [edx+24]
	push	eax
	call	_RightShift_Imp
	add	esp, 20					; 00000014H
	jmp	SHORT $LN22@PMC_Greate
$LN21@PMC_Greate:

; 289  :                     else
; 290  :                         _COPY_MEMORY_UNIT(work_u_buf, nu->BLOCK, nu->UNIT_WORD_COUNT);

	mov	ecx, DWORD PTR _nu$[ebp]
	mov	edx, DWORD PTR [ecx]
	push	edx
	mov	eax, DWORD PTR _nu$[ebp]
	mov	ecx, DWORD PTR [eax+24]
	push	ecx
	mov	edx, DWORD PTR _work_u_buf$36[ebp]
	push	edx
	call	__COPY_MEMORY_UNIT
	add	esp, 12					; 0000000cH
$LN22@PMC_Greate:

; 291  :                     work_v_buf[0] = v_lo >> v_tzcnt;

	mov	eax, DWORD PTR _v_lo$41[ebp]
	mov	ecx, DWORD PTR _v_tzcnt$30[ebp]
	shr	eax, cl
	mov	ecx, 4
	imul	edx, ecx, 0
	mov	ecx, DWORD PTR _work_v_buf$33[ebp]
	mov	DWORD PTR [ecx+edx], eax

; 292  : 
; 293  :                     __UNIT_TYPE w_buf_count;
; 294  :                     GreatestCommonDivisor(work_u_buf, work_v_buf, _DIVIDE_CEILING_UNIT(work_bit_count, __UNIT_TYPE_BIT_COUNT), nw->BLOCK, &w_buf_count);

	lea	edx, DWORD PTR _w_buf_count$28[ebp]
	push	edx
	mov	eax, DWORD PTR _nw$[ebp]
	mov	ecx, DWORD PTR [eax+24]
	push	ecx
	push	32					; 00000020H
	mov	edx, DWORD PTR _work_bit_count$39[ebp]
	push	edx
	call	__DIVIDE_CEILING_UNIT
	add	esp, 8
	push	eax
	mov	eax, DWORD PTR _work_v_buf$33[ebp]
	push	eax
	mov	ecx, DWORD PTR _work_u_buf$36[ebp]
	push	ecx
	call	_GreatestCommonDivisor
	add	esp, 20					; 00000014H

; 295  :                     if ((result = CheckBlockLight(work_u_buf, work_u_buf_code)) != PMC_STATUS_OK)

	mov	edx, DWORD PTR _work_u_buf_code$38[ebp]
	push	edx
	mov	eax, DWORD PTR _work_u_buf$36[ebp]
	push	eax
	call	_CheckBlockLight
	add	esp, 8
	mov	DWORD PTR _result$[ebp], eax
	cmp	DWORD PTR _result$[ebp], 0
	je	SHORT $LN23@PMC_Greate

; 296  :                         return (result);

	mov	eax, DWORD PTR _result$[ebp]
	jmp	$LN1@PMC_Greate
$LN23@PMC_Greate:

; 297  :                     if ((result = CheckBlockLight(work_v_buf, work_v_buf_code)) != PMC_STATUS_OK)

	mov	ecx, DWORD PTR _work_v_buf_code$35[ebp]
	push	ecx
	mov	edx, DWORD PTR _work_v_buf$33[ebp]
	push	edx
	call	_CheckBlockLight
	add	esp, 8
	mov	DWORD PTR _result$[ebp], eax
	cmp	DWORD PTR _result$[ebp], 0
	je	SHORT $LN24@PMC_Greate

; 298  :                         return (result);

	mov	eax, DWORD PTR _result$[ebp]
	jmp	$LN1@PMC_Greate
$LN24@PMC_Greate:

; 299  :                     if ((result = CheckBlockLight(nw->BLOCK, nw_check_code)) != PMC_STATUS_OK)

	mov	eax, DWORD PTR _nw_check_code$32[ebp]
	push	eax
	mov	ecx, DWORD PTR _nw$[ebp]
	mov	edx, DWORD PTR [ecx+24]
	push	edx
	call	_CheckBlockLight
	add	esp, 8
	mov	DWORD PTR _result$[ebp], eax
	cmp	DWORD PTR _result$[ebp], 0
	je	SHORT $LN25@PMC_Greate

; 300  :                         return (result);

	mov	eax, DWORD PTR _result$[ebp]
	jmp	$LN1@PMC_Greate
$LN25@PMC_Greate:

; 301  :                     DeallocateBlock(work_v_buf, work_v_buf_words);

	mov	eax, DWORD PTR _work_v_buf_words$34[ebp]
	push	eax
	mov	ecx, DWORD PTR _work_v_buf$33[ebp]
	push	ecx
	call	_DeallocateBlock
	add	esp, 8

; 302  :                     DeallocateBlock(work_u_buf, work_u_buf_words);

	mov	edx, DWORD PTR _work_u_buf_words$37[ebp]
	push	edx
	mov	eax, DWORD PTR _work_u_buf$36[ebp]
	push	eax
	call	_DeallocateBlock
	add	esp, 8

; 303  : 
; 304  :                     LeftShift_Imp(nw->BLOCK, w_buf_count, k, nw->BLOCK, TRUE);

	push	1
	mov	ecx, DWORD PTR _nw$[ebp]
	mov	edx, DWORD PTR [ecx+24]
	push	edx
	mov	eax, DWORD PTR _k$29[ebp]
	push	eax
	mov	ecx, DWORD PTR _w_buf_count$28[ebp]
	push	ecx
	mov	edx, DWORD PTR _nw$[ebp]
	mov	eax, DWORD PTR [edx+24]
	push	eax
	call	_LeftShift_Imp
	add	esp, 20					; 00000014H

; 305  :                     if ((result = CheckBlockLight(nw->BLOCK, nw_check_code)) != PMC_STATUS_OK)

	mov	ecx, DWORD PTR _nw_check_code$32[ebp]
	push	ecx
	mov	edx, DWORD PTR _nw$[ebp]
	mov	eax, DWORD PTR [edx+24]
	push	eax
	call	_CheckBlockLight
	add	esp, 8
	mov	DWORD PTR _result$[ebp], eax
	cmp	DWORD PTR _result$[ebp], 0
	je	SHORT $LN26@PMC_Greate

; 306  :                         return (result);

	mov	eax, DWORD PTR _result$[ebp]
	jmp	$LN1@PMC_Greate
$LN26@PMC_Greate:

; 307  :                     CommitNumber(nw);

	mov	ecx, DWORD PTR _nw$[ebp]
	push	ecx
	call	_CommitNumber
	add	esp, 4

; 308  :                     *w = nw;

	mov	edx, DWORD PTR _w$[ebp]
	mov	eax, DWORD PTR _nw$[ebp]
	mov	DWORD PTR [edx], eax

; 309  :                 }

	jmp	$LN17@PMC_Greate
$LN16@PMC_Greate:

; 310  :                 else
; 311  :                 {
; 312  :                     // y の値が 32bit では表現できない場合
; 313  :                     __UNIT_TYPE v_bit_count = sizeof(v) * 8 - _LZCNT_ALT_32(v_hi);

	mov	ecx, DWORD PTR _v_hi$42[ebp]
	push	ecx
	call	__LZCNT_ALT_32
	add	esp, 4
	mov	edx, 64					; 00000040H
	sub	edx, eax
	mov	DWORD PTR _v_bit_count$27[ebp], edx

; 314  :                     __UNIT_TYPE work_bit_count = _MAXIMUM_UNIT(u_bit_count, v_bit_count);

	mov	eax, DWORD PTR _v_bit_count$27[ebp]
	push	eax
	mov	ecx, DWORD PTR _u_bit_count$43[ebp]
	push	ecx
	call	__MAXIMUM_UNIT
	add	esp, 8
	mov	DWORD PTR _work_bit_count$26[ebp], eax

; 315  : 
; 316  :                     __UNIT_TYPE work_u_buf_code;
; 317  :                     __UNIT_TYPE work_u_buf_words;
; 318  :                     __UNIT_TYPE* work_u_buf = AllocateBlock(work_bit_count, &work_u_buf_words, &work_u_buf_code);

	lea	edx, DWORD PTR _work_u_buf_code$25[ebp]
	push	edx
	lea	eax, DWORD PTR _work_u_buf_words$24[ebp]
	push	eax
	mov	ecx, DWORD PTR _work_bit_count$26[ebp]
	push	ecx
	call	_AllocateBlock
	add	esp, 12					; 0000000cH
	mov	DWORD PTR _work_u_buf$23[ebp], eax

; 319  :                     if (work_u_buf == NULL)

	cmp	DWORD PTR _work_u_buf$23[ebp], 0
	jne	SHORT $LN27@PMC_Greate

; 320  :                         return (PMC_STATUS_NOT_ENOUGH_MEMORY);

	mov	eax, -5					; fffffffbH
	jmp	$LN1@PMC_Greate
$LN27@PMC_Greate:

; 321  : 
; 322  :                     __UNIT_TYPE work_v_buf_code;
; 323  :                     __UNIT_TYPE work_v_buf_words;
; 324  :                     __UNIT_TYPE* work_v_buf = AllocateBlock(work_bit_count, &work_v_buf_words, &work_v_buf_code);

	lea	edx, DWORD PTR _work_v_buf_code$22[ebp]
	push	edx
	lea	eax, DWORD PTR _work_v_buf_words$21[ebp]
	push	eax
	mov	ecx, DWORD PTR _work_bit_count$26[ebp]
	push	ecx
	call	_AllocateBlock
	add	esp, 12					; 0000000cH
	mov	DWORD PTR _work_v_buf$20[ebp], eax

; 325  :                     if (work_v_buf == NULL)

	cmp	DWORD PTR _work_v_buf$20[ebp], 0
	jne	SHORT $LN28@PMC_Greate

; 326  :                     {
; 327  :                         DeallocateBlock(work_u_buf, work_u_buf_words);

	mov	edx, DWORD PTR _work_u_buf_words$24[ebp]
	push	edx
	mov	eax, DWORD PTR _work_u_buf$23[ebp]
	push	eax
	call	_DeallocateBlock
	add	esp, 8

; 328  :                         return (PMC_STATUS_NOT_ENOUGH_MEMORY);

	mov	eax, -5					; fffffffbH
	jmp	$LN1@PMC_Greate
$LN28@PMC_Greate:

; 329  :                     }
; 330  : 
; 331  :                     __UNIT_TYPE nw_check_code;
; 332  :                     if ((result = AllocateNumber(&nw, work_bit_count, &nw_check_code)) != PMC_STATUS_OK)

	lea	ecx, DWORD PTR _nw_check_code$19[ebp]
	push	ecx
	mov	edx, DWORD PTR _work_bit_count$26[ebp]
	push	edx
	lea	eax, DWORD PTR _nw$[ebp]
	push	eax
	call	_AllocateNumber
	add	esp, 12					; 0000000cH
	mov	DWORD PTR _result$[ebp], eax
	cmp	DWORD PTR _result$[ebp], 0
	je	SHORT $LN29@PMC_Greate

; 333  :                     {
; 334  :                         DeallocateBlock(work_v_buf, work_v_buf_words);

	mov	ecx, DWORD PTR _work_v_buf_words$21[ebp]
	push	ecx
	mov	edx, DWORD PTR _work_v_buf$20[ebp]
	push	edx
	call	_DeallocateBlock
	add	esp, 8

; 335  :                         DeallocateBlock(work_u_buf, work_u_buf_words);

	mov	eax, DWORD PTR _work_u_buf_words$24[ebp]
	push	eax
	mov	ecx, DWORD PTR _work_u_buf$23[ebp]
	push	ecx
	call	_DeallocateBlock
	add	esp, 8

; 336  :                         return (result);

	mov	eax, DWORD PTR _result$[ebp]
	jmp	$LN1@PMC_Greate
$LN29@PMC_Greate:

; 337  :                     }
; 338  : 
; 339  :                     __UNIT_TYPE u_tzcnt = nu->TRAILING_ZERO_BITS_COUNT;

	mov	edx, DWORD PTR _nu$[ebp]
	mov	eax, DWORD PTR [edx+12]
	mov	DWORD PTR _u_tzcnt$18[ebp], eax

; 340  :                     __UNIT_TYPE v_tzcnt = v_lo == 0 ? 32 + _TZCNT_ALT_UNIT(v_hi) : _TZCNT_ALT_UNIT(v_lo);

	cmp	DWORD PTR _v_lo$41[ebp], 0
	jne	SHORT $LN48@PMC_Greate
	mov	ecx, DWORD PTR _v_hi$42[ebp]
	push	ecx
	call	__TZCNT_ALT_UNIT
	add	esp, 4
	add	eax, 32					; 00000020H
	mov	DWORD PTR tv244[ebp], eax
	jmp	SHORT $LN49@PMC_Greate
$LN48@PMC_Greate:
	mov	edx, DWORD PTR _v_lo$41[ebp]
	push	edx
	call	__TZCNT_ALT_UNIT
	add	esp, 4
	mov	DWORD PTR tv244[ebp], eax
$LN49@PMC_Greate:
	mov	eax, DWORD PTR tv244[ebp]
	mov	DWORD PTR _v_tzcnt$17[ebp], eax

; 341  :                     __UNIT_TYPE k = _MINIMUM_UNIT(u_tzcnt, v_tzcnt);

	mov	ecx, DWORD PTR _v_tzcnt$17[ebp]
	push	ecx
	mov	edx, DWORD PTR _u_tzcnt$18[ebp]
	push	edx
	call	__MINIMUM_UNIT
	add	esp, 8
	mov	DWORD PTR _k$16[ebp], eax

; 342  :                     if (u_tzcnt > 0)

	cmp	DWORD PTR _u_tzcnt$18[ebp], 0
	jbe	SHORT $LN30@PMC_Greate

; 343  :                         RightShift_Imp(nu->BLOCK, nu->UNIT_WORD_COUNT, u_tzcnt, work_u_buf, FALSE);

	push	0
	mov	eax, DWORD PTR _work_u_buf$23[ebp]
	push	eax
	mov	ecx, DWORD PTR _u_tzcnt$18[ebp]
	push	ecx
	mov	edx, DWORD PTR _nu$[ebp]
	mov	eax, DWORD PTR [edx]
	push	eax
	mov	ecx, DWORD PTR _nu$[ebp]
	mov	edx, DWORD PTR [ecx+24]
	push	edx
	call	_RightShift_Imp
	add	esp, 20					; 00000014H
	jmp	SHORT $LN31@PMC_Greate
$LN30@PMC_Greate:

; 344  :                     else
; 345  :                         _COPY_MEMORY_UNIT(work_u_buf, nu->BLOCK, nu->UNIT_WORD_COUNT);

	mov	eax, DWORD PTR _nu$[ebp]
	mov	ecx, DWORD PTR [eax]
	push	ecx
	mov	edx, DWORD PTR _nu$[ebp]
	mov	eax, DWORD PTR [edx+24]
	push	eax
	mov	ecx, DWORD PTR _work_u_buf$23[ebp]
	push	ecx
	call	__COPY_MEMORY_UNIT
	add	esp, 12					; 0000000cH
$LN31@PMC_Greate:

; 346  :                     work_v_buf[0] = v_lo;

	mov	edx, 4
	imul	eax, edx, 0
	mov	ecx, DWORD PTR _work_v_buf$20[ebp]
	mov	edx, DWORD PTR _v_lo$41[ebp]
	mov	DWORD PTR [ecx+eax], edx

; 347  :                     work_v_buf[1] = v_hi;

	mov	eax, 4
	shl	eax, 0
	mov	ecx, DWORD PTR _work_v_buf$20[ebp]
	mov	edx, DWORD PTR _v_hi$42[ebp]
	mov	DWORD PTR [ecx+eax], edx

; 348  :                     if (v_tzcnt > 0)

	cmp	DWORD PTR _v_tzcnt$17[ebp], 0
	jbe	SHORT $LN32@PMC_Greate

; 349  :                         RightShift_Imp(work_v_buf, 2, v_tzcnt, work_v_buf, TRUE);

	push	1
	mov	eax, DWORD PTR _work_v_buf$20[ebp]
	push	eax
	mov	ecx, DWORD PTR _v_tzcnt$17[ebp]
	push	ecx
	push	2
	mov	edx, DWORD PTR _work_v_buf$20[ebp]
	push	edx
	call	_RightShift_Imp
	add	esp, 20					; 00000014H
$LN32@PMC_Greate:

; 350  : 
; 351  :                     __UNIT_TYPE w_buf_count;
; 352  :                     GreatestCommonDivisor(work_u_buf, work_v_buf, _DIVIDE_CEILING_UNIT(work_bit_count, __UNIT_TYPE_BIT_COUNT), nw->BLOCK, &w_buf_count);

	lea	eax, DWORD PTR _w_buf_count$15[ebp]
	push	eax
	mov	ecx, DWORD PTR _nw$[ebp]
	mov	edx, DWORD PTR [ecx+24]
	push	edx
	push	32					; 00000020H
	mov	eax, DWORD PTR _work_bit_count$26[ebp]
	push	eax
	call	__DIVIDE_CEILING_UNIT
	add	esp, 8
	push	eax
	mov	ecx, DWORD PTR _work_v_buf$20[ebp]
	push	ecx
	mov	edx, DWORD PTR _work_u_buf$23[ebp]
	push	edx
	call	_GreatestCommonDivisor
	add	esp, 20					; 00000014H

; 353  :                     if ((result = CheckBlockLight(work_u_buf, work_u_buf_code)) != PMC_STATUS_OK)

	mov	eax, DWORD PTR _work_u_buf_code$25[ebp]
	push	eax
	mov	ecx, DWORD PTR _work_u_buf$23[ebp]
	push	ecx
	call	_CheckBlockLight
	add	esp, 8
	mov	DWORD PTR _result$[ebp], eax
	cmp	DWORD PTR _result$[ebp], 0
	je	SHORT $LN33@PMC_Greate

; 354  :                         return (result);

	mov	eax, DWORD PTR _result$[ebp]
	jmp	$LN1@PMC_Greate
$LN33@PMC_Greate:

; 355  :                     if ((result = CheckBlockLight(work_v_buf, work_v_buf_code)) != PMC_STATUS_OK)

	mov	edx, DWORD PTR _work_v_buf_code$22[ebp]
	push	edx
	mov	eax, DWORD PTR _work_v_buf$20[ebp]
	push	eax
	call	_CheckBlockLight
	add	esp, 8
	mov	DWORD PTR _result$[ebp], eax
	cmp	DWORD PTR _result$[ebp], 0
	je	SHORT $LN34@PMC_Greate

; 356  :                         return (result);

	mov	eax, DWORD PTR _result$[ebp]
	jmp	$LN1@PMC_Greate
$LN34@PMC_Greate:

; 357  :                     if ((result = CheckBlockLight(nw->BLOCK, nw_check_code)) != PMC_STATUS_OK)

	mov	ecx, DWORD PTR _nw_check_code$19[ebp]
	push	ecx
	mov	edx, DWORD PTR _nw$[ebp]
	mov	eax, DWORD PTR [edx+24]
	push	eax
	call	_CheckBlockLight
	add	esp, 8
	mov	DWORD PTR _result$[ebp], eax
	cmp	DWORD PTR _result$[ebp], 0
	je	SHORT $LN35@PMC_Greate

; 358  :                         return (result);

	mov	eax, DWORD PTR _result$[ebp]
	jmp	$LN1@PMC_Greate
$LN35@PMC_Greate:

; 359  :                     DeallocateBlock(work_v_buf, work_v_buf_words);

	mov	ecx, DWORD PTR _work_v_buf_words$21[ebp]
	push	ecx
	mov	edx, DWORD PTR _work_v_buf$20[ebp]
	push	edx
	call	_DeallocateBlock
	add	esp, 8

; 360  :                     DeallocateBlock(work_u_buf, work_u_buf_words);

	mov	eax, DWORD PTR _work_u_buf_words$24[ebp]
	push	eax
	mov	ecx, DWORD PTR _work_u_buf$23[ebp]
	push	ecx
	call	_DeallocateBlock
	add	esp, 8

; 361  : 
; 362  :                     LeftShift_Imp(nw->BLOCK, w_buf_count, k, nw->BLOCK, TRUE);

	push	1
	mov	edx, DWORD PTR _nw$[ebp]
	mov	eax, DWORD PTR [edx+24]
	push	eax
	mov	ecx, DWORD PTR _k$16[ebp]
	push	ecx
	mov	edx, DWORD PTR _w_buf_count$15[ebp]
	push	edx
	mov	eax, DWORD PTR _nw$[ebp]
	mov	ecx, DWORD PTR [eax+24]
	push	ecx
	call	_LeftShift_Imp
	add	esp, 20					; 00000014H

; 363  :                     if ((result = CheckBlockLight(nw->BLOCK, nw_check_code)) != PMC_STATUS_OK)

	mov	edx, DWORD PTR _nw_check_code$19[ebp]
	push	edx
	mov	eax, DWORD PTR _nw$[ebp]
	mov	ecx, DWORD PTR [eax+24]
	push	ecx
	call	_CheckBlockLight
	add	esp, 8
	mov	DWORD PTR _result$[ebp], eax
	cmp	DWORD PTR _result$[ebp], 0
	je	SHORT $LN36@PMC_Greate

; 364  :                         return (result);

	mov	eax, DWORD PTR _result$[ebp]
	jmp	$LN1@PMC_Greate
$LN36@PMC_Greate:

; 365  :                     CommitNumber(nw);

	mov	edx, DWORD PTR _nw$[ebp]
	push	edx
	call	_CommitNumber
	add	esp, 4

; 366  :                     *w = nw;

	mov	eax, DWORD PTR _w$[ebp]
	mov	ecx, DWORD PTR _nw$[ebp]
	mov	DWORD PTR [eax], ecx
$LN17@PMC_Greate:

; 367  :                 }
; 368  :             }

	jmp	$LN7@PMC_Greate
$LN14@PMC_Greate:

; 369  :             else
; 370  :             {
; 371  :                 // _UINT64_T が 1 ワードで表現できる場合
; 372  : 
; 373  :                 __UNIT_TYPE u_bit_count = nu->UNIT_BIT_COUNT;

	mov	edx, DWORD PTR _nu$[ebp]
	mov	eax, DWORD PTR [edx+4]
	mov	DWORD PTR _u_bit_count$14[ebp], eax

; 374  :                 __UNIT_TYPE v_bit_count = sizeof(v) * 8 - _LZCNT_ALT_UNIT((__UNIT_TYPE)v);

	mov	ecx, DWORD PTR _v$[ebp]
	push	ecx
	call	__LZCNT_ALT_UNIT
	add	esp, 4
	mov	edx, 64					; 00000040H
	sub	edx, eax
	mov	DWORD PTR _v_bit_count$13[ebp], edx

; 375  :                 __UNIT_TYPE work_bit_count = _MAXIMUM_UNIT(u_bit_count, v_bit_count);

	mov	eax, DWORD PTR _v_bit_count$13[ebp]
	push	eax
	mov	ecx, DWORD PTR _u_bit_count$14[ebp]
	push	ecx
	call	__MAXIMUM_UNIT
	add	esp, 8
	mov	DWORD PTR _work_bit_count$12[ebp], eax

; 376  : 
; 377  :                 __UNIT_TYPE work_u_buf_code;
; 378  :                 __UNIT_TYPE work_u_buf_words;
; 379  :                 __UNIT_TYPE* work_u_buf = AllocateBlock(work_bit_count, &work_u_buf_words, &work_u_buf_code);

	lea	edx, DWORD PTR _work_u_buf_code$11[ebp]
	push	edx
	lea	eax, DWORD PTR _work_u_buf_words$10[ebp]
	push	eax
	mov	ecx, DWORD PTR _work_bit_count$12[ebp]
	push	ecx
	call	_AllocateBlock
	add	esp, 12					; 0000000cH
	mov	DWORD PTR _work_u_buf$9[ebp], eax

; 380  :                 if (work_u_buf == NULL)

	cmp	DWORD PTR _work_u_buf$9[ebp], 0
	jne	SHORT $LN37@PMC_Greate

; 381  :                     return (PMC_STATUS_NOT_ENOUGH_MEMORY);

	mov	eax, -5					; fffffffbH
	jmp	$LN1@PMC_Greate
$LN37@PMC_Greate:

; 382  : 
; 383  :                 __UNIT_TYPE work_v_buf_code;
; 384  :                 __UNIT_TYPE work_v_buf_words;
; 385  :                 __UNIT_TYPE* work_v_buf = AllocateBlock(work_bit_count, &work_v_buf_words, &work_v_buf_code);

	lea	edx, DWORD PTR _work_v_buf_code$8[ebp]
	push	edx
	lea	eax, DWORD PTR _work_v_buf_words$7[ebp]
	push	eax
	mov	ecx, DWORD PTR _work_bit_count$12[ebp]
	push	ecx
	call	_AllocateBlock
	add	esp, 12					; 0000000cH
	mov	DWORD PTR _work_v_buf$6[ebp], eax

; 386  :                 if (work_v_buf == NULL)

	cmp	DWORD PTR _work_v_buf$6[ebp], 0
	jne	SHORT $LN38@PMC_Greate

; 387  :                 {
; 388  :                     DeallocateBlock(work_u_buf, work_u_buf_words);

	mov	edx, DWORD PTR _work_u_buf_words$10[ebp]
	push	edx
	mov	eax, DWORD PTR _work_u_buf$9[ebp]
	push	eax
	call	_DeallocateBlock
	add	esp, 8

; 389  :                     return (PMC_STATUS_NOT_ENOUGH_MEMORY);

	mov	eax, -5					; fffffffbH
	jmp	$LN1@PMC_Greate
$LN38@PMC_Greate:

; 390  :                 }
; 391  : 
; 392  :                 __UNIT_TYPE nw_check_code;
; 393  :                 if ((result = AllocateNumber(&nw, work_bit_count, &nw_check_code)) != PMC_STATUS_OK)

	lea	ecx, DWORD PTR _nw_check_code$5[ebp]
	push	ecx
	mov	edx, DWORD PTR _work_bit_count$12[ebp]
	push	edx
	lea	eax, DWORD PTR _nw$[ebp]
	push	eax
	call	_AllocateNumber
	add	esp, 12					; 0000000cH
	mov	DWORD PTR _result$[ebp], eax
	cmp	DWORD PTR _result$[ebp], 0
	je	SHORT $LN39@PMC_Greate

; 394  :                 {
; 395  :                     DeallocateBlock(work_v_buf, work_v_buf_words);

	mov	ecx, DWORD PTR _work_v_buf_words$7[ebp]
	push	ecx
	mov	edx, DWORD PTR _work_v_buf$6[ebp]
	push	edx
	call	_DeallocateBlock
	add	esp, 8

; 396  :                     DeallocateBlock(work_u_buf, work_u_buf_words);

	mov	eax, DWORD PTR _work_u_buf_words$10[ebp]
	push	eax
	mov	ecx, DWORD PTR _work_u_buf$9[ebp]
	push	ecx
	call	_DeallocateBlock
	add	esp, 8

; 397  :                     return (result);

	mov	eax, DWORD PTR _result$[ebp]
	jmp	$LN1@PMC_Greate
$LN39@PMC_Greate:

; 398  :                 }
; 399  : 
; 400  :                 __UNIT_TYPE u_tzcnt = nu->TRAILING_ZERO_BITS_COUNT;

	mov	edx, DWORD PTR _nu$[ebp]
	mov	eax, DWORD PTR [edx+12]
	mov	DWORD PTR _u_tzcnt$4[ebp], eax

; 401  :                 __UNIT_TYPE v_tzcnt = _TZCNT_ALT_UNIT((__UNIT_TYPE)v);

	mov	ecx, DWORD PTR _v$[ebp]
	push	ecx
	call	__TZCNT_ALT_UNIT
	add	esp, 4
	mov	DWORD PTR _v_tzcnt$3[ebp], eax

; 402  :                 __UNIT_TYPE k = _MINIMUM_UNIT(u_tzcnt, v_tzcnt);

	mov	edx, DWORD PTR _v_tzcnt$3[ebp]
	push	edx
	mov	eax, DWORD PTR _u_tzcnt$4[ebp]
	push	eax
	call	__MINIMUM_UNIT
	add	esp, 8
	mov	DWORD PTR _k$2[ebp], eax

; 403  :                 if (u_tzcnt > 0)

	cmp	DWORD PTR _u_tzcnt$4[ebp], 0
	jbe	SHORT $LN40@PMC_Greate

; 404  :                     RightShift_Imp(nu->BLOCK, nu->UNIT_WORD_COUNT, u_tzcnt, work_u_buf, FALSE);

	push	0
	mov	ecx, DWORD PTR _work_u_buf$9[ebp]
	push	ecx
	mov	edx, DWORD PTR _u_tzcnt$4[ebp]
	push	edx
	mov	eax, DWORD PTR _nu$[ebp]
	mov	ecx, DWORD PTR [eax]
	push	ecx
	mov	edx, DWORD PTR _nu$[ebp]
	mov	eax, DWORD PTR [edx+24]
	push	eax
	call	_RightShift_Imp
	add	esp, 20					; 00000014H
	jmp	SHORT $LN41@PMC_Greate
$LN40@PMC_Greate:

; 405  :                 else
; 406  :                     _COPY_MEMORY_UNIT(work_u_buf, nu->BLOCK, nu->UNIT_WORD_COUNT);

	mov	ecx, DWORD PTR _nu$[ebp]
	mov	edx, DWORD PTR [ecx]
	push	edx
	mov	eax, DWORD PTR _nu$[ebp]
	mov	ecx, DWORD PTR [eax+24]
	push	ecx
	mov	edx, DWORD PTR _work_u_buf$9[ebp]
	push	edx
	call	__COPY_MEMORY_UNIT
	add	esp, 12					; 0000000cH
$LN41@PMC_Greate:

; 407  :                 work_v_buf[0] = (__UNIT_TYPE)(v >> v_tzcnt);

	mov	eax, DWORD PTR _v$[ebp]
	mov	edx, DWORD PTR _v$[ebp+4]
	mov	ecx, DWORD PTR _v_tzcnt$3[ebp]
	call	__aullshr
	mov	ecx, 4
	imul	edx, ecx, 0
	mov	ecx, DWORD PTR _work_v_buf$6[ebp]
	mov	DWORD PTR [ecx+edx], eax

; 408  : 
; 409  :                 __UNIT_TYPE w_buf_count;
; 410  :                 GreatestCommonDivisor(work_u_buf, work_v_buf, _DIVIDE_CEILING_UNIT(work_bit_count, __UNIT_TYPE_BIT_COUNT), nw->BLOCK, &w_buf_count);

	lea	edx, DWORD PTR _w_buf_count$1[ebp]
	push	edx
	mov	eax, DWORD PTR _nw$[ebp]
	mov	ecx, DWORD PTR [eax+24]
	push	ecx
	push	32					; 00000020H
	mov	edx, DWORD PTR _work_bit_count$12[ebp]
	push	edx
	call	__DIVIDE_CEILING_UNIT
	add	esp, 8
	push	eax
	mov	eax, DWORD PTR _work_v_buf$6[ebp]
	push	eax
	mov	ecx, DWORD PTR _work_u_buf$9[ebp]
	push	ecx
	call	_GreatestCommonDivisor
	add	esp, 20					; 00000014H

; 411  :                 if ((result = CheckBlockLight(work_u_buf, work_u_buf_code)) != PMC_STATUS_OK)

	mov	edx, DWORD PTR _work_u_buf_code$11[ebp]
	push	edx
	mov	eax, DWORD PTR _work_u_buf$9[ebp]
	push	eax
	call	_CheckBlockLight
	add	esp, 8
	mov	DWORD PTR _result$[ebp], eax
	cmp	DWORD PTR _result$[ebp], 0
	je	SHORT $LN42@PMC_Greate

; 412  :                     return (result);

	mov	eax, DWORD PTR _result$[ebp]
	jmp	$LN1@PMC_Greate
$LN42@PMC_Greate:

; 413  :                 if ((result = CheckBlockLight(work_v_buf, work_v_buf_code)) != PMC_STATUS_OK)

	mov	ecx, DWORD PTR _work_v_buf_code$8[ebp]
	push	ecx
	mov	edx, DWORD PTR _work_v_buf$6[ebp]
	push	edx
	call	_CheckBlockLight
	add	esp, 8
	mov	DWORD PTR _result$[ebp], eax
	cmp	DWORD PTR _result$[ebp], 0
	je	SHORT $LN43@PMC_Greate

; 414  :                     return (result);

	mov	eax, DWORD PTR _result$[ebp]
	jmp	$LN1@PMC_Greate
$LN43@PMC_Greate:

; 415  :                 if ((result = CheckBlockLight(nw->BLOCK, nw_check_code)) != PMC_STATUS_OK)

	mov	eax, DWORD PTR _nw_check_code$5[ebp]
	push	eax
	mov	ecx, DWORD PTR _nw$[ebp]
	mov	edx, DWORD PTR [ecx+24]
	push	edx
	call	_CheckBlockLight
	add	esp, 8
	mov	DWORD PTR _result$[ebp], eax
	cmp	DWORD PTR _result$[ebp], 0
	je	SHORT $LN44@PMC_Greate

; 416  :                     return (result);

	mov	eax, DWORD PTR _result$[ebp]
	jmp	$LN1@PMC_Greate
$LN44@PMC_Greate:

; 417  :                 DeallocateBlock(work_v_buf, work_v_buf_words);

	mov	eax, DWORD PTR _work_v_buf_words$7[ebp]
	push	eax
	mov	ecx, DWORD PTR _work_v_buf$6[ebp]
	push	ecx
	call	_DeallocateBlock
	add	esp, 8

; 418  :                 DeallocateBlock(work_u_buf, work_u_buf_words);

	mov	edx, DWORD PTR _work_u_buf_words$10[ebp]
	push	edx
	mov	eax, DWORD PTR _work_u_buf$9[ebp]
	push	eax
	call	_DeallocateBlock
	add	esp, 8

; 419  : 
; 420  :                 LeftShift_Imp(nw->BLOCK, w_buf_count, k, nw->BLOCK, TRUE);

	push	1
	mov	ecx, DWORD PTR _nw$[ebp]
	mov	edx, DWORD PTR [ecx+24]
	push	edx
	mov	eax, DWORD PTR _k$2[ebp]
	push	eax
	mov	ecx, DWORD PTR _w_buf_count$1[ebp]
	push	ecx
	mov	edx, DWORD PTR _nw$[ebp]
	mov	eax, DWORD PTR [edx+24]
	push	eax
	call	_LeftShift_Imp
	add	esp, 20					; 00000014H

; 421  :                 if ((result = CheckBlockLight(nw->BLOCK, nw_check_code)) != PMC_STATUS_OK)

	mov	ecx, DWORD PTR _nw_check_code$5[ebp]
	push	ecx
	mov	edx, DWORD PTR _nw$[ebp]
	mov	eax, DWORD PTR [edx+24]
	push	eax
	call	_CheckBlockLight
	add	esp, 8
	mov	DWORD PTR _result$[ebp], eax
	cmp	DWORD PTR _result$[ebp], 0
	je	SHORT $LN45@PMC_Greate

; 422  :                     return (result);

	mov	eax, DWORD PTR _result$[ebp]
	jmp	SHORT $LN1@PMC_Greate
$LN45@PMC_Greate:

; 423  :                 CommitNumber(nw);

	mov	ecx, DWORD PTR _nw$[ebp]
	push	ecx
	call	_CommitNumber
	add	esp, 4

; 424  :                 *w = nw;

	mov	edx, DWORD PTR _w$[ebp]
	mov	eax, DWORD PTR _nw$[ebp]
	mov	DWORD PTR [edx], eax
$LN7@PMC_Greate:

; 425  :             }
; 426  :         }
; 427  :     }
; 428  : #ifdef _DEBUG
; 429  :     if ((result = CheckNumber(*w)) != PMC_STATUS_OK)

	mov	ecx, DWORD PTR _w$[ebp]
	mov	edx, DWORD PTR [ecx]
	push	edx
	call	_CheckNumber
	add	esp, 4
	mov	DWORD PTR _result$[ebp], eax
	cmp	DWORD PTR _result$[ebp], 0
	je	SHORT $LN46@PMC_Greate

; 430  :         return (result);

	mov	eax, DWORD PTR _result$[ebp]
	jmp	SHORT $LN1@PMC_Greate
$LN46@PMC_Greate:

; 431  : #endif
; 432  :     return (PMC_STATUS_OK);

	xor	eax, eax
$LN1@PMC_Greate:

; 433  : }

	push	edx
	mov	ecx, ebp
	push	eax
	lea	edx, DWORD PTR $LN71@PMC_Greate
	call	@_RTC_CheckStackVars@8
	pop	eax
	pop	edx
	pop	edi
	add	esp, 348				; 0000015cH
	cmp	ebp, esp
	call	__RTC_CheckEsp
	mov	esp, ebp
	pop	ebp
	ret	16					; 00000010H
$LN71@PMC_Greate:
	DD	20					; 00000014H
	DD	$LN70@PMC_Greate
$LN70@PMC_Greate:
	DD	-16					; fffffff0H
	DD	4
	DD	$LN50@PMC_Greate
	DD	-32					; ffffffe0H
	DD	4
	DD	$LN51@PMC_Greate
	DD	-56					; ffffffc8H
	DD	4
	DD	$LN52@PMC_Greate
	DD	-68					; ffffffbcH
	DD	4
	DD	$LN53@PMC_Greate
	DD	-84					; ffffffacH
	DD	4
	DD	$LN54@PMC_Greate
	DD	-96					; ffffffa0H
	DD	4
	DD	$LN55@PMC_Greate
	DD	-112					; ffffff90H
	DD	4
	DD	$LN56@PMC_Greate
	DD	-136					; ffffff78H
	DD	4
	DD	$LN57@PMC_Greate
	DD	-156					; ffffff64H
	DD	4
	DD	$LN58@PMC_Greate
	DD	-168					; ffffff58H
	DD	4
	DD	$LN59@PMC_Greate
	DD	-184					; ffffff48H
	DD	4
	DD	$LN60@PMC_Greate
	DD	-196					; ffffff3cH
	DD	4
	DD	$LN61@PMC_Greate
	DD	-212					; ffffff2cH
	DD	4
	DD	$LN62@PMC_Greate
	DD	-236					; ffffff14H
	DD	4
	DD	$LN63@PMC_Greate
	DD	-260					; fffffefcH
	DD	4
	DD	$LN64@PMC_Greate
	DD	-272					; fffffef0H
	DD	4
	DD	$LN65@PMC_Greate
	DD	-288					; fffffee0H
	DD	4
	DD	$LN66@PMC_Greate
	DD	-300					; fffffed4H
	DD	4
	DD	$LN67@PMC_Greate
	DD	-316					; fffffec4H
	DD	4
	DD	$LN68@PMC_Greate
	DD	-340					; fffffeacH
	DD	4
	DD	$LN69@PMC_Greate
$LN69@PMC_Greate:
	DB	119					; 00000077H
	DB	95					; 0000005fH
	DB	98					; 00000062H
	DB	117					; 00000075H
	DB	102					; 00000066H
	DB	95					; 0000005fH
	DB	99					; 00000063H
	DB	111					; 0000006fH
	DB	117					; 00000075H
	DB	110					; 0000006eH
	DB	116					; 00000074H
	DB	0
$LN68@PMC_Greate:
	DB	110					; 0000006eH
	DB	119					; 00000077H
	DB	95					; 0000005fH
	DB	99					; 00000063H
	DB	104					; 00000068H
	DB	101					; 00000065H
	DB	99					; 00000063H
	DB	107					; 0000006bH
	DB	95					; 0000005fH
	DB	99					; 00000063H
	DB	111					; 0000006fH
	DB	100					; 00000064H
	DB	101					; 00000065H
	DB	0
$LN67@PMC_Greate:
	DB	119					; 00000077H
	DB	111					; 0000006fH
	DB	114					; 00000072H
	DB	107					; 0000006bH
	DB	95					; 0000005fH
	DB	118					; 00000076H
	DB	95					; 0000005fH
	DB	98					; 00000062H
	DB	117					; 00000075H
	DB	102					; 00000066H
	DB	95					; 0000005fH
	DB	119					; 00000077H
	DB	111					; 0000006fH
	DB	114					; 00000072H
	DB	100					; 00000064H
	DB	115					; 00000073H
	DB	0
$LN66@PMC_Greate:
	DB	119					; 00000077H
	DB	111					; 0000006fH
	DB	114					; 00000072H
	DB	107					; 0000006bH
	DB	95					; 0000005fH
	DB	118					; 00000076H
	DB	95					; 0000005fH
	DB	98					; 00000062H
	DB	117					; 00000075H
	DB	102					; 00000066H
	DB	95					; 0000005fH
	DB	99					; 00000063H
	DB	111					; 0000006fH
	DB	100					; 00000064H
	DB	101					; 00000065H
	DB	0
$LN65@PMC_Greate:
	DB	119					; 00000077H
	DB	111					; 0000006fH
	DB	114					; 00000072H
	DB	107					; 0000006bH
	DB	95					; 0000005fH
	DB	117					; 00000075H
	DB	95					; 0000005fH
	DB	98					; 00000062H
	DB	117					; 00000075H
	DB	102					; 00000066H
	DB	95					; 0000005fH
	DB	119					; 00000077H
	DB	111					; 0000006fH
	DB	114					; 00000072H
	DB	100					; 00000064H
	DB	115					; 00000073H
	DB	0
$LN64@PMC_Greate:
	DB	119					; 00000077H
	DB	111					; 0000006fH
	DB	114					; 00000072H
	DB	107					; 0000006bH
	DB	95					; 0000005fH
	DB	117					; 00000075H
	DB	95					; 0000005fH
	DB	98					; 00000062H
	DB	117					; 00000075H
	DB	102					; 00000066H
	DB	95					; 0000005fH
	DB	99					; 00000063H
	DB	111					; 0000006fH
	DB	100					; 00000064H
	DB	101					; 00000065H
	DB	0
$LN63@PMC_Greate:
	DB	119					; 00000077H
	DB	95					; 0000005fH
	DB	98					; 00000062H
	DB	117					; 00000075H
	DB	102					; 00000066H
	DB	95					; 0000005fH
	DB	99					; 00000063H
	DB	111					; 0000006fH
	DB	117					; 00000075H
	DB	110					; 0000006eH
	DB	116					; 00000074H
	DB	0
$LN62@PMC_Greate:
	DB	110					; 0000006eH
	DB	119					; 00000077H
	DB	95					; 0000005fH
	DB	99					; 00000063H
	DB	104					; 00000068H
	DB	101					; 00000065H
	DB	99					; 00000063H
	DB	107					; 0000006bH
	DB	95					; 0000005fH
	DB	99					; 00000063H
	DB	111					; 0000006fH
	DB	100					; 00000064H
	DB	101					; 00000065H
	DB	0
$LN61@PMC_Greate:
	DB	119					; 00000077H
	DB	111					; 0000006fH
	DB	114					; 00000072H
	DB	107					; 0000006bH
	DB	95					; 0000005fH
	DB	118					; 00000076H
	DB	95					; 0000005fH
	DB	98					; 00000062H
	DB	117					; 00000075H
	DB	102					; 00000066H
	DB	95					; 0000005fH
	DB	119					; 00000077H
	DB	111					; 0000006fH
	DB	114					; 00000072H
	DB	100					; 00000064H
	DB	115					; 00000073H
	DB	0
$LN60@PMC_Greate:
	DB	119					; 00000077H
	DB	111					; 0000006fH
	DB	114					; 00000072H
	DB	107					; 0000006bH
	DB	95					; 0000005fH
	DB	118					; 00000076H
	DB	95					; 0000005fH
	DB	98					; 00000062H
	DB	117					; 00000075H
	DB	102					; 00000066H
	DB	95					; 0000005fH
	DB	99					; 00000063H
	DB	111					; 0000006fH
	DB	100					; 00000064H
	DB	101					; 00000065H
	DB	0
$LN59@PMC_Greate:
	DB	119					; 00000077H
	DB	111					; 0000006fH
	DB	114					; 00000072H
	DB	107					; 0000006bH
	DB	95					; 0000005fH
	DB	117					; 00000075H
	DB	95					; 0000005fH
	DB	98					; 00000062H
	DB	117					; 00000075H
	DB	102					; 00000066H
	DB	95					; 0000005fH
	DB	119					; 00000077H
	DB	111					; 0000006fH
	DB	114					; 00000072H
	DB	100					; 00000064H
	DB	115					; 00000073H
	DB	0
$LN58@PMC_Greate:
	DB	119					; 00000077H
	DB	111					; 0000006fH
	DB	114					; 00000072H
	DB	107					; 0000006bH
	DB	95					; 0000005fH
	DB	117					; 00000075H
	DB	95					; 0000005fH
	DB	98					; 00000062H
	DB	117					; 00000075H
	DB	102					; 00000066H
	DB	95					; 0000005fH
	DB	99					; 00000063H
	DB	111					; 0000006fH
	DB	100					; 00000064H
	DB	101					; 00000065H
	DB	0
$LN57@PMC_Greate:
	DB	119					; 00000077H
	DB	95					; 0000005fH
	DB	98					; 00000062H
	DB	117					; 00000075H
	DB	102					; 00000066H
	DB	95					; 0000005fH
	DB	99					; 00000063H
	DB	111					; 0000006fH
	DB	117					; 00000075H
	DB	110					; 0000006eH
	DB	116					; 00000074H
	DB	0
$LN56@PMC_Greate:
	DB	110					; 0000006eH
	DB	119					; 00000077H
	DB	95					; 0000005fH
	DB	99					; 00000063H
	DB	104					; 00000068H
	DB	101					; 00000065H
	DB	99					; 00000063H
	DB	107					; 0000006bH
	DB	95					; 0000005fH
	DB	99					; 00000063H
	DB	111					; 0000006fH
	DB	100					; 00000064H
	DB	101					; 00000065H
	DB	0
$LN55@PMC_Greate:
	DB	119					; 00000077H
	DB	111					; 0000006fH
	DB	114					; 00000072H
	DB	107					; 0000006bH
	DB	95					; 0000005fH
	DB	118					; 00000076H
	DB	95					; 0000005fH
	DB	98					; 00000062H
	DB	117					; 00000075H
	DB	102					; 00000066H
	DB	95					; 0000005fH
	DB	119					; 00000077H
	DB	111					; 0000006fH
	DB	114					; 00000072H
	DB	100					; 00000064H
	DB	115					; 00000073H
	DB	0
$LN54@PMC_Greate:
	DB	119					; 00000077H
	DB	111					; 0000006fH
	DB	114					; 00000072H
	DB	107					; 0000006bH
	DB	95					; 0000005fH
	DB	118					; 00000076H
	DB	95					; 0000005fH
	DB	98					; 00000062H
	DB	117					; 00000075H
	DB	102					; 00000066H
	DB	95					; 0000005fH
	DB	99					; 00000063H
	DB	111					; 0000006fH
	DB	100					; 00000064H
	DB	101					; 00000065H
	DB	0
$LN53@PMC_Greate:
	DB	119					; 00000077H
	DB	111					; 0000006fH
	DB	114					; 00000072H
	DB	107					; 0000006bH
	DB	95					; 0000005fH
	DB	117					; 00000075H
	DB	95					; 0000005fH
	DB	98					; 00000062H
	DB	117					; 00000075H
	DB	102					; 00000066H
	DB	95					; 0000005fH
	DB	119					; 00000077H
	DB	111					; 0000006fH
	DB	114					; 00000072H
	DB	100					; 00000064H
	DB	115					; 00000073H
	DB	0
$LN52@PMC_Greate:
	DB	119					; 00000077H
	DB	111					; 0000006fH
	DB	114					; 00000072H
	DB	107					; 0000006bH
	DB	95					; 0000005fH
	DB	117					; 00000075H
	DB	95					; 0000005fH
	DB	98					; 00000062H
	DB	117					; 00000075H
	DB	102					; 00000066H
	DB	95					; 0000005fH
	DB	99					; 00000063H
	DB	111					; 0000006fH
	DB	100					; 00000064H
	DB	101					; 00000065H
	DB	0
$LN51@PMC_Greate:
	DB	118					; 00000076H
	DB	95					; 0000005fH
	DB	104					; 00000068H
	DB	105					; 00000069H
	DB	0
$LN50@PMC_Greate:
	DB	110					; 0000006eH
	DB	119					; 00000077H
	DB	0
_PMC_GreatestCommonDivisor_X_L@16 ENDP
_TEXT	ENDS
; Function compile flags: /Odtp /RTCsu
; File z:\sources\lunor\repos\rougemeilland\palmtree.math.core.implements\palmtree.math.core.implements\pmc_greatestcommondivisor.c
_TEXT	SEGMENT
_w_buf_count$1 = -120					; size = 4
_k$2 = -112						; size = 4
_v_tzcnt$3 = -108					; size = 4
_u_tzcnt$4 = -104					; size = 4
_nw_check_code$5 = -96					; size = 4
_work_v_buf$6 = -88					; size = 4
_work_v_buf_words$7 = -80				; size = 4
_work_v_buf_code$8 = -68				; size = 4
_work_u_buf$9 = -60					; size = 4
_work_u_buf_words$10 = -52				; size = 4
_work_u_buf_code$11 = -40				; size = 4
_work_bit_count$12 = -32				; size = 4
_v_bit_count$13 = -28					; size = 4
_u_bit_count$14 = -24					; size = 4
_nw$ = -16						; size = 4
_result$ = -8						; size = 4
_nu$ = -4						; size = 4
_u$ = 8							; size = 4
_v$ = 12						; size = 4
_w$ = 16						; size = 4
_PMC_GreatestCommonDivisor_X_I@12 PROC

; 78   : {

	push	ebp
	mov	ebp, esp
	sub	esp, 124				; 0000007cH
	push	edi
	lea	edi, DWORD PTR [ebp-124]
	mov	ecx, 31					; 0000001fH
	mov	eax, -858993460				; ccccccccH
	rep stosd
	mov	ecx, OFFSET __5BD2B085_pmc_greatestcommondivisor@c
	call	@__CheckForDebuggerJustMyCode@4

; 79   :     if (__UNIT_TYPE_BIT_COUNT < sizeof(v) * 8)

	xor	eax, eax
	je	SHORT $LN2@PMC_Greate

; 80   :     {
; 81   :         // _UINT32_T が 1 ワードで表現しきれない処理系には対応しない
; 82   :         return (PMC_STATUS_INTERNAL_ERROR);

	mov	eax, -256				; ffffff00H
	jmp	$LN1@PMC_Greate
$LN2@PMC_Greate:

; 83   :     }
; 84   :     if (u == NULL)

	cmp	DWORD PTR _u$[ebp], 0
	jne	SHORT $LN3@PMC_Greate

; 85   :         return (PMC_STATUS_ARGUMENT_ERROR);

	or	eax, -1
	jmp	$LN1@PMC_Greate
$LN3@PMC_Greate:

; 86   :     if (w == NULL)

	cmp	DWORD PTR _w$[ebp], 0
	jne	SHORT $LN4@PMC_Greate

; 87   :         return (PMC_STATUS_ARGUMENT_ERROR);

	or	eax, -1
	jmp	$LN1@PMC_Greate
$LN4@PMC_Greate:

; 88   :     NUMBER_HEADER* nu = (NUMBER_HEADER*)u;

	mov	ecx, DWORD PTR _u$[ebp]
	mov	DWORD PTR _nu$[ebp], ecx

; 89   :     PMC_STATUS_CODE result;
; 90   :     if ((result = CheckNumber(nu)) != PMC_STATUS_OK)

	mov	edx, DWORD PTR _nu$[ebp]
	push	edx
	call	_CheckNumber
	add	esp, 4
	mov	DWORD PTR _result$[ebp], eax
	cmp	DWORD PTR _result$[ebp], 0
	je	SHORT $LN5@PMC_Greate

; 91   :         return (result);

	mov	eax, DWORD PTR _result$[ebp]
	jmp	$LN1@PMC_Greate
$LN5@PMC_Greate:

; 92   :     NUMBER_HEADER* nw;
; 93   :     if (nu->IS_ZERO)

	mov	eax, DWORD PTR _nu$[ebp]
	mov	ecx, DWORD PTR [eax+16]
	shr	ecx, 1
	and	ecx, 1
	je	SHORT $LN6@PMC_Greate

; 94   :     {
; 95   :         // u が 0 である場合
; 96   : 
; 97   :         if (v == 0)

	cmp	DWORD PTR _v$[ebp], 0
	jne	SHORT $LN8@PMC_Greate

; 98   :         {
; 99   :             // v が 0 である場合
; 100  : 
; 101  :             // u と v がともに 0 であり、GCD は一意に存在しないため、エラーを返す。
; 102  :             return (PMC_STATUS_ARGUMENT_ERROR);

	or	eax, -1
	jmp	$LN1@PMC_Greate

; 103  :         }

	jmp	SHORT $LN9@PMC_Greate
$LN8@PMC_Greate:

; 104  :         else
; 105  :         {
; 106  :             // v が 0 ではない場合
; 107  : 
; 108  :             // GCD は v そのものであるため、v を計算結果として返す。
; 109  :             if ((result = From_I_Imp(v, &nw)) != PMC_STATUS_OK)

	lea	edx, DWORD PTR _nw$[ebp]
	push	edx
	mov	eax, DWORD PTR _v$[ebp]
	push	eax
	call	_From_I_Imp
	add	esp, 8
	mov	DWORD PTR _result$[ebp], eax
	cmp	DWORD PTR _result$[ebp], 0
	je	SHORT $LN10@PMC_Greate

; 110  :                 return (result);

	mov	eax, DWORD PTR _result$[ebp]
	jmp	$LN1@PMC_Greate
$LN10@PMC_Greate:

; 111  :             *w = nw;

	mov	ecx, DWORD PTR _w$[ebp]
	mov	edx, DWORD PTR _nw$[ebp]
	mov	DWORD PTR [ecx], edx
$LN9@PMC_Greate:

; 112  :         }
; 113  :     }

	jmp	$LN7@PMC_Greate
$LN6@PMC_Greate:

; 114  :     else
; 115  :     {
; 116  :         // u が 0 ではない場合
; 117  : 
; 118  :         if (v == 0)

	cmp	DWORD PTR _v$[ebp], 0
	jne	SHORT $LN11@PMC_Greate

; 119  :         {
; 120  :             // v が 0 である場合
; 121  : 
; 122  :             // GCD は u そのものであるため、u を計算結果として返す。
; 123  :             if ((result = DuplicateNumber(nu, &nw)) != PMC_STATUS_OK)

	lea	eax, DWORD PTR _nw$[ebp]
	push	eax
	mov	ecx, DWORD PTR _nu$[ebp]
	push	ecx
	call	_DuplicateNumber
	add	esp, 8
	mov	DWORD PTR _result$[ebp], eax
	cmp	DWORD PTR _result$[ebp], 0
	je	SHORT $LN13@PMC_Greate

; 124  :                 return (result);

	mov	eax, DWORD PTR _result$[ebp]
	jmp	$LN1@PMC_Greate
$LN13@PMC_Greate:

; 125  :             *w = nw;

	mov	edx, DWORD PTR _w$[ebp]
	mov	eax, DWORD PTR _nw$[ebp]
	mov	DWORD PTR [edx], eax

; 126  :         }

	jmp	$LN7@PMC_Greate
$LN11@PMC_Greate:

; 127  :         else
; 128  :         {
; 129  :             // u と v がともに 0 ではない場合
; 130  : 
; 131  :             // u と v の GCD を計算する
; 132  :             __UNIT_TYPE u_bit_count = nu->UNIT_BIT_COUNT;

	mov	ecx, DWORD PTR _nu$[ebp]
	mov	edx, DWORD PTR [ecx+4]
	mov	DWORD PTR _u_bit_count$14[ebp], edx

; 133  :             __UNIT_TYPE v_bit_count = sizeof(v) * 8 - _LZCNT_ALT_32(v);

	mov	eax, DWORD PTR _v$[ebp]
	push	eax
	call	__LZCNT_ALT_32
	add	esp, 4
	mov	ecx, 32					; 00000020H
	sub	ecx, eax
	mov	DWORD PTR _v_bit_count$13[ebp], ecx

; 134  :             __UNIT_TYPE work_bit_count = _MAXIMUM_UNIT(u_bit_count, v_bit_count);

	mov	edx, DWORD PTR _v_bit_count$13[ebp]
	push	edx
	mov	eax, DWORD PTR _u_bit_count$14[ebp]
	push	eax
	call	__MAXIMUM_UNIT
	add	esp, 8
	mov	DWORD PTR _work_bit_count$12[ebp], eax

; 135  : 
; 136  :             __UNIT_TYPE work_u_buf_code;
; 137  :             __UNIT_TYPE work_u_buf_words;
; 138  :             __UNIT_TYPE* work_u_buf = AllocateBlock(work_bit_count, &work_u_buf_words, &work_u_buf_code);

	lea	ecx, DWORD PTR _work_u_buf_code$11[ebp]
	push	ecx
	lea	edx, DWORD PTR _work_u_buf_words$10[ebp]
	push	edx
	mov	eax, DWORD PTR _work_bit_count$12[ebp]
	push	eax
	call	_AllocateBlock
	add	esp, 12					; 0000000cH
	mov	DWORD PTR _work_u_buf$9[ebp], eax

; 139  :             if (work_u_buf == NULL)

	cmp	DWORD PTR _work_u_buf$9[ebp], 0
	jne	SHORT $LN14@PMC_Greate

; 140  :                 return (PMC_STATUS_NOT_ENOUGH_MEMORY);

	mov	eax, -5					; fffffffbH
	jmp	$LN1@PMC_Greate
$LN14@PMC_Greate:

; 141  : 
; 142  :             __UNIT_TYPE work_v_buf_code;
; 143  :             __UNIT_TYPE work_v_buf_words;
; 144  :             __UNIT_TYPE* work_v_buf = AllocateBlock(work_bit_count, &work_v_buf_words, &work_v_buf_code);

	lea	ecx, DWORD PTR _work_v_buf_code$8[ebp]
	push	ecx
	lea	edx, DWORD PTR _work_v_buf_words$7[ebp]
	push	edx
	mov	eax, DWORD PTR _work_bit_count$12[ebp]
	push	eax
	call	_AllocateBlock
	add	esp, 12					; 0000000cH
	mov	DWORD PTR _work_v_buf$6[ebp], eax

; 145  :             if (work_v_buf == NULL)

	cmp	DWORD PTR _work_v_buf$6[ebp], 0
	jne	SHORT $LN15@PMC_Greate

; 146  :             {
; 147  :                 DeallocateBlock(work_u_buf, work_u_buf_words);

	mov	ecx, DWORD PTR _work_u_buf_words$10[ebp]
	push	ecx
	mov	edx, DWORD PTR _work_u_buf$9[ebp]
	push	edx
	call	_DeallocateBlock
	add	esp, 8

; 148  :                 return (PMC_STATUS_NOT_ENOUGH_MEMORY);

	mov	eax, -5					; fffffffbH
	jmp	$LN1@PMC_Greate
$LN15@PMC_Greate:

; 149  :             }
; 150  : 
; 151  :             __UNIT_TYPE nw_check_code;
; 152  :             if ((result = AllocateNumber(&nw, work_bit_count, &nw_check_code)) != PMC_STATUS_OK)

	lea	eax, DWORD PTR _nw_check_code$5[ebp]
	push	eax
	mov	ecx, DWORD PTR _work_bit_count$12[ebp]
	push	ecx
	lea	edx, DWORD PTR _nw$[ebp]
	push	edx
	call	_AllocateNumber
	add	esp, 12					; 0000000cH
	mov	DWORD PTR _result$[ebp], eax
	cmp	DWORD PTR _result$[ebp], 0
	je	SHORT $LN16@PMC_Greate

; 153  :             {
; 154  :                 DeallocateBlock(work_v_buf, work_v_buf_words);

	mov	eax, DWORD PTR _work_v_buf_words$7[ebp]
	push	eax
	mov	ecx, DWORD PTR _work_v_buf$6[ebp]
	push	ecx
	call	_DeallocateBlock
	add	esp, 8

; 155  :                 DeallocateBlock(work_u_buf, work_u_buf_words);

	mov	edx, DWORD PTR _work_u_buf_words$10[ebp]
	push	edx
	mov	eax, DWORD PTR _work_u_buf$9[ebp]
	push	eax
	call	_DeallocateBlock
	add	esp, 8

; 156  :                 return (result);

	mov	eax, DWORD PTR _result$[ebp]
	jmp	$LN1@PMC_Greate
$LN16@PMC_Greate:

; 157  :             }
; 158  : 
; 159  :             __UNIT_TYPE u_tzcnt = nu->TRAILING_ZERO_BITS_COUNT;

	mov	ecx, DWORD PTR _nu$[ebp]
	mov	edx, DWORD PTR [ecx+12]
	mov	DWORD PTR _u_tzcnt$4[ebp], edx

; 160  :             __UNIT_TYPE v_tzcnt = _TZCNT_ALT_UNIT(v);

	mov	eax, DWORD PTR _v$[ebp]
	push	eax
	call	__TZCNT_ALT_UNIT
	add	esp, 4
	mov	DWORD PTR _v_tzcnt$3[ebp], eax

; 161  :             __UNIT_TYPE k = _MINIMUM_UNIT(u_tzcnt, v_tzcnt);

	mov	ecx, DWORD PTR _v_tzcnt$3[ebp]
	push	ecx
	mov	edx, DWORD PTR _u_tzcnt$4[ebp]
	push	edx
	call	__MINIMUM_UNIT
	add	esp, 8
	mov	DWORD PTR _k$2[ebp], eax

; 162  :             if (u_tzcnt > 0)

	cmp	DWORD PTR _u_tzcnt$4[ebp], 0
	jbe	SHORT $LN17@PMC_Greate

; 163  :                 RightShift_Imp(nu->BLOCK, nu->UNIT_WORD_COUNT, u_tzcnt, work_u_buf, FALSE);

	push	0
	mov	eax, DWORD PTR _work_u_buf$9[ebp]
	push	eax
	mov	ecx, DWORD PTR _u_tzcnt$4[ebp]
	push	ecx
	mov	edx, DWORD PTR _nu$[ebp]
	mov	eax, DWORD PTR [edx]
	push	eax
	mov	ecx, DWORD PTR _nu$[ebp]
	mov	edx, DWORD PTR [ecx+24]
	push	edx
	call	_RightShift_Imp
	add	esp, 20					; 00000014H
	jmp	SHORT $LN18@PMC_Greate
$LN17@PMC_Greate:

; 164  :             else
; 165  :                 _COPY_MEMORY_UNIT(work_u_buf, nu->BLOCK, nu->UNIT_WORD_COUNT);

	mov	eax, DWORD PTR _nu$[ebp]
	mov	ecx, DWORD PTR [eax]
	push	ecx
	mov	edx, DWORD PTR _nu$[ebp]
	mov	eax, DWORD PTR [edx+24]
	push	eax
	mov	ecx, DWORD PTR _work_u_buf$9[ebp]
	push	ecx
	call	__COPY_MEMORY_UNIT
	add	esp, 12					; 0000000cH
$LN18@PMC_Greate:

; 166  :             work_v_buf[0] = v >> v_tzcnt;

	mov	edx, DWORD PTR _v$[ebp]
	mov	ecx, DWORD PTR _v_tzcnt$3[ebp]
	shr	edx, cl
	mov	eax, 4
	imul	ecx, eax, 0
	mov	eax, DWORD PTR _work_v_buf$6[ebp]
	mov	DWORD PTR [eax+ecx], edx

; 167  : 
; 168  :             __UNIT_TYPE w_buf_count;
; 169  :             GreatestCommonDivisor(work_u_buf, work_v_buf, _DIVIDE_CEILING_UNIT(work_bit_count, __UNIT_TYPE_BIT_COUNT), nw->BLOCK, &w_buf_count);

	lea	ecx, DWORD PTR _w_buf_count$1[ebp]
	push	ecx
	mov	edx, DWORD PTR _nw$[ebp]
	mov	eax, DWORD PTR [edx+24]
	push	eax
	push	32					; 00000020H
	mov	ecx, DWORD PTR _work_bit_count$12[ebp]
	push	ecx
	call	__DIVIDE_CEILING_UNIT
	add	esp, 8
	push	eax
	mov	edx, DWORD PTR _work_v_buf$6[ebp]
	push	edx
	mov	eax, DWORD PTR _work_u_buf$9[ebp]
	push	eax
	call	_GreatestCommonDivisor
	add	esp, 20					; 00000014H

; 170  :             if ((result = CheckBlockLight(work_u_buf, work_u_buf_code)) != PMC_STATUS_OK)

	mov	ecx, DWORD PTR _work_u_buf_code$11[ebp]
	push	ecx
	mov	edx, DWORD PTR _work_u_buf$9[ebp]
	push	edx
	call	_CheckBlockLight
	add	esp, 8
	mov	DWORD PTR _result$[ebp], eax
	cmp	DWORD PTR _result$[ebp], 0
	je	SHORT $LN19@PMC_Greate

; 171  :                 return (result);

	mov	eax, DWORD PTR _result$[ebp]
	jmp	$LN1@PMC_Greate
$LN19@PMC_Greate:

; 172  :             if ((result = CheckBlockLight(work_v_buf, work_v_buf_code)) != PMC_STATUS_OK)

	mov	eax, DWORD PTR _work_v_buf_code$8[ebp]
	push	eax
	mov	ecx, DWORD PTR _work_v_buf$6[ebp]
	push	ecx
	call	_CheckBlockLight
	add	esp, 8
	mov	DWORD PTR _result$[ebp], eax
	cmp	DWORD PTR _result$[ebp], 0
	je	SHORT $LN20@PMC_Greate

; 173  :                 return (result);

	mov	eax, DWORD PTR _result$[ebp]
	jmp	$LN1@PMC_Greate
$LN20@PMC_Greate:

; 174  :             if ((result = CheckBlockLight(nw->BLOCK, nw_check_code)) != PMC_STATUS_OK)

	mov	edx, DWORD PTR _nw_check_code$5[ebp]
	push	edx
	mov	eax, DWORD PTR _nw$[ebp]
	mov	ecx, DWORD PTR [eax+24]
	push	ecx
	call	_CheckBlockLight
	add	esp, 8
	mov	DWORD PTR _result$[ebp], eax
	cmp	DWORD PTR _result$[ebp], 0
	je	SHORT $LN21@PMC_Greate

; 175  :                 return (result);

	mov	eax, DWORD PTR _result$[ebp]
	jmp	$LN1@PMC_Greate
$LN21@PMC_Greate:

; 176  :             DeallocateBlock(work_v_buf, work_v_buf_words);

	mov	edx, DWORD PTR _work_v_buf_words$7[ebp]
	push	edx
	mov	eax, DWORD PTR _work_v_buf$6[ebp]
	push	eax
	call	_DeallocateBlock
	add	esp, 8

; 177  :             DeallocateBlock(work_u_buf, work_u_buf_words);

	mov	ecx, DWORD PTR _work_u_buf_words$10[ebp]
	push	ecx
	mov	edx, DWORD PTR _work_u_buf$9[ebp]
	push	edx
	call	_DeallocateBlock
	add	esp, 8

; 178  : 
; 179  :             LeftShift_Imp(nw->BLOCK, w_buf_count, k, nw->BLOCK, TRUE);

	push	1
	mov	eax, DWORD PTR _nw$[ebp]
	mov	ecx, DWORD PTR [eax+24]
	push	ecx
	mov	edx, DWORD PTR _k$2[ebp]
	push	edx
	mov	eax, DWORD PTR _w_buf_count$1[ebp]
	push	eax
	mov	ecx, DWORD PTR _nw$[ebp]
	mov	edx, DWORD PTR [ecx+24]
	push	edx
	call	_LeftShift_Imp
	add	esp, 20					; 00000014H

; 180  :             if ((result = CheckBlockLight(nw->BLOCK, nw_check_code)) != PMC_STATUS_OK)

	mov	eax, DWORD PTR _nw_check_code$5[ebp]
	push	eax
	mov	ecx, DWORD PTR _nw$[ebp]
	mov	edx, DWORD PTR [ecx+24]
	push	edx
	call	_CheckBlockLight
	add	esp, 8
	mov	DWORD PTR _result$[ebp], eax
	cmp	DWORD PTR _result$[ebp], 0
	je	SHORT $LN22@PMC_Greate

; 181  :                 return (result);

	mov	eax, DWORD PTR _result$[ebp]
	jmp	SHORT $LN1@PMC_Greate
$LN22@PMC_Greate:

; 182  :             CommitNumber(nw);

	mov	eax, DWORD PTR _nw$[ebp]
	push	eax
	call	_CommitNumber
	add	esp, 4

; 183  :             *w = nw;

	mov	ecx, DWORD PTR _w$[ebp]
	mov	edx, DWORD PTR _nw$[ebp]
	mov	DWORD PTR [ecx], edx
$LN7@PMC_Greate:

; 184  :         }
; 185  :     }
; 186  : #ifdef _DEBUG
; 187  :     if ((result = CheckNumber(*w)) != PMC_STATUS_OK)

	mov	eax, DWORD PTR _w$[ebp]
	mov	ecx, DWORD PTR [eax]
	push	ecx
	call	_CheckNumber
	add	esp, 4
	mov	DWORD PTR _result$[ebp], eax
	cmp	DWORD PTR _result$[ebp], 0
	je	SHORT $LN23@PMC_Greate

; 188  :         return (result);

	mov	eax, DWORD PTR _result$[ebp]
	jmp	SHORT $LN1@PMC_Greate
$LN23@PMC_Greate:

; 189  : #endif
; 190  :     return (PMC_STATUS_OK);

	xor	eax, eax
$LN1@PMC_Greate:

; 191  : }

	push	edx
	mov	ecx, ebp
	push	eax
	lea	edx, DWORD PTR $LN33@PMC_Greate
	call	@_RTC_CheckStackVars@8
	pop	eax
	pop	edx
	pop	edi
	add	esp, 124				; 0000007cH
	cmp	ebp, esp
	call	__RTC_CheckEsp
	mov	esp, ebp
	pop	ebp
	ret	12					; 0000000cH
	npad	1
$LN33@PMC_Greate:
	DD	7
	DD	$LN32@PMC_Greate
$LN32@PMC_Greate:
	DD	-16					; fffffff0H
	DD	4
	DD	$LN25@PMC_Greate
	DD	-40					; ffffffd8H
	DD	4
	DD	$LN26@PMC_Greate
	DD	-52					; ffffffccH
	DD	4
	DD	$LN27@PMC_Greate
	DD	-68					; ffffffbcH
	DD	4
	DD	$LN28@PMC_Greate
	DD	-80					; ffffffb0H
	DD	4
	DD	$LN29@PMC_Greate
	DD	-96					; ffffffa0H
	DD	4
	DD	$LN30@PMC_Greate
	DD	-120					; ffffff88H
	DD	4
	DD	$LN31@PMC_Greate
$LN31@PMC_Greate:
	DB	119					; 00000077H
	DB	95					; 0000005fH
	DB	98					; 00000062H
	DB	117					; 00000075H
	DB	102					; 00000066H
	DB	95					; 0000005fH
	DB	99					; 00000063H
	DB	111					; 0000006fH
	DB	117					; 00000075H
	DB	110					; 0000006eH
	DB	116					; 00000074H
	DB	0
$LN30@PMC_Greate:
	DB	110					; 0000006eH
	DB	119					; 00000077H
	DB	95					; 0000005fH
	DB	99					; 00000063H
	DB	104					; 00000068H
	DB	101					; 00000065H
	DB	99					; 00000063H
	DB	107					; 0000006bH
	DB	95					; 0000005fH
	DB	99					; 00000063H
	DB	111					; 0000006fH
	DB	100					; 00000064H
	DB	101					; 00000065H
	DB	0
$LN29@PMC_Greate:
	DB	119					; 00000077H
	DB	111					; 0000006fH
	DB	114					; 00000072H
	DB	107					; 0000006bH
	DB	95					; 0000005fH
	DB	118					; 00000076H
	DB	95					; 0000005fH
	DB	98					; 00000062H
	DB	117					; 00000075H
	DB	102					; 00000066H
	DB	95					; 0000005fH
	DB	119					; 00000077H
	DB	111					; 0000006fH
	DB	114					; 00000072H
	DB	100					; 00000064H
	DB	115					; 00000073H
	DB	0
$LN28@PMC_Greate:
	DB	119					; 00000077H
	DB	111					; 0000006fH
	DB	114					; 00000072H
	DB	107					; 0000006bH
	DB	95					; 0000005fH
	DB	118					; 00000076H
	DB	95					; 0000005fH
	DB	98					; 00000062H
	DB	117					; 00000075H
	DB	102					; 00000066H
	DB	95					; 0000005fH
	DB	99					; 00000063H
	DB	111					; 0000006fH
	DB	100					; 00000064H
	DB	101					; 00000065H
	DB	0
$LN27@PMC_Greate:
	DB	119					; 00000077H
	DB	111					; 0000006fH
	DB	114					; 00000072H
	DB	107					; 0000006bH
	DB	95					; 0000005fH
	DB	117					; 00000075H
	DB	95					; 0000005fH
	DB	98					; 00000062H
	DB	117					; 00000075H
	DB	102					; 00000066H
	DB	95					; 0000005fH
	DB	119					; 00000077H
	DB	111					; 0000006fH
	DB	114					; 00000072H
	DB	100					; 00000064H
	DB	115					; 00000073H
	DB	0
$LN26@PMC_Greate:
	DB	119					; 00000077H
	DB	111					; 0000006fH
	DB	114					; 00000072H
	DB	107					; 0000006bH
	DB	95					; 0000005fH
	DB	117					; 00000075H
	DB	95					; 0000005fH
	DB	98					; 00000062H
	DB	117					; 00000075H
	DB	102					; 00000066H
	DB	95					; 0000005fH
	DB	99					; 00000063H
	DB	111					; 0000006fH
	DB	100					; 00000064H
	DB	101					; 00000065H
	DB	0
$LN25@PMC_Greate:
	DB	110					; 0000006eH
	DB	119					; 00000077H
	DB	0
_PMC_GreatestCommonDivisor_X_I@12 ENDP
_TEXT	ENDS
; Function compile flags: /Odtp /RTCsu
; File z:\sources\lunor\repos\rougemeilland\palmtree.math.core.implements\palmtree.math.core.implements\pmc_greatestcommondivisor.c
_TEXT	SEGMENT
_feature$ = 8						; size = 4
_Initialize_GreatestCommonDivisor PROC

; 555  : {

	push	ebp
	mov	ebp, esp
	mov	ecx, OFFSET __5BD2B085_pmc_greatestcommondivisor@c
	call	@__CheckForDebuggerJustMyCode@4

; 556  :     return (PMC_STATUS_OK);

	xor	eax, eax

; 557  : }

	cmp	ebp, esp
	call	__RTC_CheckEsp
	pop	ebp
	ret	0
_Initialize_GreatestCommonDivisor ENDP
_TEXT	ENDS
END
