; Listing generated by Microsoft (R) Optimizing Compiler Version 19.16.27026.1 

	TITLE	Z:\Sources\Lunor\Repos\rougemeilland\Palmtree.Math.Core.Implements\Palmtree.Math.Core.Implements\pmc_multiply.c
	.686P
	.XMM
	include listing.inc
	.model	flat

INCLUDELIB MSVCRTD
INCLUDELIB OLDNAMES

msvcjmc	SEGMENT
__7B7A869E_ctype@h DB 01H
__457DD326_basetsd@h DB 01H
__4384A2D9_corecrt_memcpy_s@h DB 01H
__4E51A221_corecrt_wstring@h DB 01H
__2140C079_string@h DB 01H
__1887E595_winnt@h DB 01H
__9FC7C64B_processthreadsapi@h DB 01H
__FA470AEC_memoryapi@h DB 01H
__F37DAFF1_winerror@h DB 01H
__7A450CCC_winbase@h DB 01H
__B4B40122_winioctl@h DB 01H
__86261D59_stralign@h DB 01H
__4522B509_pmc_internal@h DB 01H
__C53FCF4E_pmc_multiply@c DB 01H
msvcjmc	ENDS
PUBLIC	_Initialize_Multiply
PUBLIC	_PMC_Multiply_X_I@12
PUBLIC	_PMC_Multiply_X_L@16
PUBLIC	_PMC_Multiply_X_X@12
PUBLIC	__JustMyCode_Default
EXTRN	_CheckBlockLight:PROC
EXTRN	_AllocateNumber:PROC
EXTRN	_DeallocateNumber:PROC
EXTRN	_CommitNumber:PROC
EXTRN	_CheckNumber:PROC
EXTRN	_DuplicateNumber:PROC
EXTRN	_From_I_Imp:PROC
EXTRN	_From_L_Imp:PROC
EXTRN	@_RTC_CheckStackVars@8:PROC
EXTRN	@__CheckForDebuggerJustMyCode@4:PROC
EXTRN	__RTC_CheckEsp:PROC
EXTRN	__RTC_InitBase:PROC
EXTRN	__RTC_Shutdown:PROC
EXTRN	__aullshr:PROC
EXTRN	_number_zero:BYTE
EXTRN	_statistics_info:BYTE
_BSS	SEGMENT
_fp_Multiply_X_1W DD 01H DUP (?)
_fp_Multiply_X_2W DD 01H DUP (?)
_fp_Multiply_X_X DD 01H DUP (?)
_BSS	ENDS
;	COMDAT rtc$TMZ
rtc$TMZ	SEGMENT
__RTC_Shutdown.rtc$TMZ DD FLAT:__RTC_Shutdown
rtc$TMZ	ENDS
;	COMDAT rtc$IMZ
rtc$IMZ	SEGMENT
__RTC_InitBase.rtc$IMZ DD FLAT:__RTC_InitBase
rtc$IMZ	ENDS
; Function compile flags: /Odt
;	COMDAT __JustMyCode_Default
_TEXT	SEGMENT
__JustMyCode_Default PROC				; COMDAT
	push	ebp
	mov	ebp, esp
	pop	ebp
	ret	0
__JustMyCode_Default ENDP
_TEXT	ENDS
; Function compile flags: /Odtp /RTCsu
; File z:\sources\lunor\repos\rougemeilland\palmtree.math.core.implements\palmtree.math.core.implements\pmc_multiply.c
_TEXT	SEGMENT
_x$ = 8							; size = 4
_y$ = 12						; size = 4
_z$ = 16						; size = 4
_Multiply_X_X PROC

; 452  : {

	push	ebp
	mov	ebp, esp
	push	esi
	mov	ecx, OFFSET __C53FCF4E_pmc_multiply@c
	call	@__CheckForDebuggerJustMyCode@4

; 453  :     return ((*fp_Multiply_X_X)(x, y, z));

	mov	esi, esp
	mov	eax, DWORD PTR _z$[ebp]
	push	eax
	mov	ecx, DWORD PTR _y$[ebp]
	push	ecx
	mov	edx, DWORD PTR _x$[ebp]
	push	edx
	call	DWORD PTR _fp_Multiply_X_X
	add	esp, 12					; 0000000cH
	cmp	esi, esp
	call	__RTC_CheckEsp

; 454  : }

	pop	esi
	cmp	ebp, esp
	call	__RTC_CheckEsp
	pop	ebp
	ret	0
_Multiply_X_X ENDP
_TEXT	ENDS
; Function compile flags: /Odtp /RTCsu
; File z:\sources\lunor\repos\rougemeilland\palmtree.math.core.implements\palmtree.math.core.implements\pmc_multiply.c
_TEXT	SEGMENT
_zp$ = -28						; size = 4
_yp$ = -24						; size = 4
_xp$ = -20						; size = 4
_z_count$ = -16						; size = 4
_y_count$ = -12						; size = 4
_x_count$ = -8						; size = 4
_t$1 = -4						; size = 4
_x$ = 8							; size = 4
_y$ = 12						; size = 4
_z$ = 16						; size = 4
_Multiply_X_X_using_MULX_ADCX PROC

; 425  : {

	push	ebp
	mov	ebp, esp
	sub	esp, 28					; 0000001cH
	mov	eax, -858993460				; ccccccccH
	mov	DWORD PTR [ebp-28], eax
	mov	DWORD PTR [ebp-24], eax
	mov	DWORD PTR [ebp-20], eax
	mov	DWORD PTR [ebp-16], eax
	mov	DWORD PTR [ebp-12], eax
	mov	DWORD PTR [ebp-8], eax
	mov	DWORD PTR [ebp-4], eax
	mov	ecx, OFFSET __C53FCF4E_pmc_multiply@c
	call	@__CheckForDebuggerJustMyCode@4

; 426  :     // x のワード長が y のワード長以上であるようにする
; 427  :     if (x->UNIT_WORD_COUNT < y->UNIT_WORD_COUNT)

	mov	eax, DWORD PTR _x$[ebp]
	mov	ecx, DWORD PTR _y$[ebp]
	mov	edx, DWORD PTR [eax]
	cmp	edx, DWORD PTR [ecx]
	jae	SHORT $LN5@Multiply_X

; 428  :     {
; 429  :         NUMBER_HEADER* t = x;

	mov	eax, DWORD PTR _x$[ebp]
	mov	DWORD PTR _t$1[ebp], eax

; 430  :         x = y;

	mov	ecx, DWORD PTR _y$[ebp]
	mov	DWORD PTR _x$[ebp], ecx

; 431  :         y = t;

	mov	edx, DWORD PTR _t$1[ebp]
	mov	DWORD PTR _y$[ebp], edx
$LN5@Multiply_X:

; 432  :     }
; 433  :     __UNIT_TYPE x_count = x->UNIT_WORD_COUNT;

	mov	eax, DWORD PTR _x$[ebp]
	mov	ecx, DWORD PTR [eax]
	mov	DWORD PTR _x_count$[ebp], ecx

; 434  :     __UNIT_TYPE y_count = y->UNIT_WORD_COUNT;

	mov	edx, DWORD PTR _y$[ebp]
	mov	eax, DWORD PTR [edx]
	mov	DWORD PTR _y_count$[ebp], eax

; 435  :     __UNIT_TYPE z_count = z->BLOCK_COUNT;

	mov	ecx, DWORD PTR _z$[ebp]
	mov	edx, DWORD PTR [ecx+20]
	mov	DWORD PTR _z_count$[ebp], edx

; 436  :     __UNIT_TYPE* xp = &x->BLOCK[0];

	mov	eax, 4
	imul	ecx, eax, 0
	mov	edx, DWORD PTR _x$[ebp]
	add	ecx, DWORD PTR [edx+24]
	mov	DWORD PTR _xp$[ebp], ecx

; 437  :     __UNIT_TYPE* yp = &y->BLOCK[0];

	mov	eax, 4
	imul	ecx, eax, 0
	mov	edx, DWORD PTR _y$[ebp]
	add	ecx, DWORD PTR [edx+24]
	mov	DWORD PTR _yp$[ebp], ecx

; 438  :     __UNIT_TYPE* zp = &z->BLOCK[0];

	mov	eax, 4
	imul	ecx, eax, 0
	mov	edx, DWORD PTR _z$[ebp]
	add	ecx, DWORD PTR [edx+24]
	mov	DWORD PTR _zp$[ebp], ecx
$LN4@Multiply_X:

; 439  : 
; 440  :     do
; 441  :     {
; 442  :         Multiply_WORD_using_MULX_ADCX(xp, x_count, *yp, zp);

	mov	eax, DWORD PTR _zp$[ebp]
	push	eax
	mov	ecx, DWORD PTR _yp$[ebp]
	mov	edx, DWORD PTR [ecx]
	push	edx
	mov	eax, DWORD PTR _x_count$[ebp]
	push	eax
	mov	ecx, DWORD PTR _xp$[ebp]
	push	ecx
	call	_Multiply_WORD_using_MULX_ADCX
	add	esp, 16					; 00000010H

; 443  :         ++yp;

	mov	edx, DWORD PTR _yp$[ebp]
	add	edx, 4
	mov	DWORD PTR _yp$[ebp], edx

; 444  :         ++zp;

	mov	eax, DWORD PTR _zp$[ebp]
	add	eax, 4
	mov	DWORD PTR _zp$[ebp], eax

; 445  :         --y_count;

	mov	ecx, DWORD PTR _y_count$[ebp]
	sub	ecx, 1
	mov	DWORD PTR _y_count$[ebp], ecx

; 446  :     } while (y_count != 0);

	jne	SHORT $LN4@Multiply_X

; 447  : 
; 448  :     return (PMC_STATUS_OK);

	xor	eax, eax

; 449  : }

	add	esp, 28					; 0000001cH
	cmp	ebp, esp
	call	__RTC_CheckEsp
	mov	esp, ebp
	pop	ebp
	ret	0
_Multiply_X_X_using_MULX_ADCX ENDP
_TEXT	ENDS
; Function compile flags: /Odtp /RTCsu
; File z:\sources\lunor\repos\rougemeilland\palmtree.math.core.implements\palmtree.math.core.implements\pmc_multiply.c
_TEXT	SEGMENT
_zp$ = -28						; size = 4
_yp$ = -24						; size = 4
_xp$ = -20						; size = 4
_z_count$ = -16						; size = 4
_y_count$ = -12						; size = 4
_x_count$ = -8						; size = 4
_t$1 = -4						; size = 4
_x$ = 8							; size = 4
_y$ = 12						; size = 4
_z$ = 16						; size = 4
_Multiply_X_X_using_MUL_ADC PROC

; 398  : {

	push	ebp
	mov	ebp, esp
	sub	esp, 28					; 0000001cH
	mov	eax, -858993460				; ccccccccH
	mov	DWORD PTR [ebp-28], eax
	mov	DWORD PTR [ebp-24], eax
	mov	DWORD PTR [ebp-20], eax
	mov	DWORD PTR [ebp-16], eax
	mov	DWORD PTR [ebp-12], eax
	mov	DWORD PTR [ebp-8], eax
	mov	DWORD PTR [ebp-4], eax
	mov	ecx, OFFSET __C53FCF4E_pmc_multiply@c
	call	@__CheckForDebuggerJustMyCode@4

; 399  :     // x のワード長が y のワード長以上であるようにする
; 400  :     if (x->UNIT_WORD_COUNT < y->UNIT_WORD_COUNT)

	mov	eax, DWORD PTR _x$[ebp]
	mov	ecx, DWORD PTR _y$[ebp]
	mov	edx, DWORD PTR [eax]
	cmp	edx, DWORD PTR [ecx]
	jae	SHORT $LN5@Multiply_X

; 401  :     {
; 402  :         NUMBER_HEADER* t = x;

	mov	eax, DWORD PTR _x$[ebp]
	mov	DWORD PTR _t$1[ebp], eax

; 403  :         x = y;

	mov	ecx, DWORD PTR _y$[ebp]
	mov	DWORD PTR _x$[ebp], ecx

; 404  :         y = t;

	mov	edx, DWORD PTR _t$1[ebp]
	mov	DWORD PTR _y$[ebp], edx
$LN5@Multiply_X:

; 405  :     }
; 406  :     __UNIT_TYPE x_count = x->UNIT_WORD_COUNT;

	mov	eax, DWORD PTR _x$[ebp]
	mov	ecx, DWORD PTR [eax]
	mov	DWORD PTR _x_count$[ebp], ecx

; 407  :     __UNIT_TYPE y_count = y->UNIT_WORD_COUNT;

	mov	edx, DWORD PTR _y$[ebp]
	mov	eax, DWORD PTR [edx]
	mov	DWORD PTR _y_count$[ebp], eax

; 408  :     __UNIT_TYPE z_count = z->BLOCK_COUNT;

	mov	ecx, DWORD PTR _z$[ebp]
	mov	edx, DWORD PTR [ecx+20]
	mov	DWORD PTR _z_count$[ebp], edx

; 409  :     __UNIT_TYPE* xp = &x->BLOCK[0];

	mov	eax, 4
	imul	ecx, eax, 0
	mov	edx, DWORD PTR _x$[ebp]
	add	ecx, DWORD PTR [edx+24]
	mov	DWORD PTR _xp$[ebp], ecx

; 410  :     __UNIT_TYPE* yp = &y->BLOCK[0];

	mov	eax, 4
	imul	ecx, eax, 0
	mov	edx, DWORD PTR _y$[ebp]
	add	ecx, DWORD PTR [edx+24]
	mov	DWORD PTR _yp$[ebp], ecx

; 411  :     __UNIT_TYPE* zp = &z->BLOCK[0];

	mov	eax, 4
	imul	ecx, eax, 0
	mov	edx, DWORD PTR _z$[ebp]
	add	ecx, DWORD PTR [edx+24]
	mov	DWORD PTR _zp$[ebp], ecx
$LN4@Multiply_X:

; 412  : 
; 413  :     do
; 414  :     {
; 415  :         Multiply_WORD_using_MUL_ADC(xp, x_count, *yp, zp);

	mov	eax, DWORD PTR _zp$[ebp]
	push	eax
	mov	ecx, DWORD PTR _yp$[ebp]
	mov	edx, DWORD PTR [ecx]
	push	edx
	mov	eax, DWORD PTR _x_count$[ebp]
	push	eax
	mov	ecx, DWORD PTR _xp$[ebp]
	push	ecx
	call	_Multiply_WORD_using_MUL_ADC
	add	esp, 16					; 00000010H

; 416  :         ++yp;

	mov	edx, DWORD PTR _yp$[ebp]
	add	edx, 4
	mov	DWORD PTR _yp$[ebp], edx

; 417  :         ++zp;

	mov	eax, DWORD PTR _zp$[ebp]
	add	eax, 4
	mov	DWORD PTR _zp$[ebp], eax

; 418  :         --y_count;

	mov	ecx, DWORD PTR _y_count$[ebp]
	sub	ecx, 1
	mov	DWORD PTR _y_count$[ebp], ecx

; 419  :     } while (y_count != 0);

	jne	SHORT $LN4@Multiply_X

; 420  : 
; 421  :     return (PMC_STATUS_OK);

	xor	eax, eax

; 422  : }

	add	esp, 28					; 0000001cH
	cmp	ebp, esp
	call	__RTC_CheckEsp
	mov	esp, ebp
	pop	ebp
	ret	0
_Multiply_X_X_using_MUL_ADC ENDP
_TEXT	ENDS
; Function compile flags: /Odtp /RTCsu
; File z:\sources\lunor\repos\rougemeilland\palmtree.math.core.implements\palmtree.math.core.implements\pmc_multiply.c
_TEXT	SEGMENT
_x$ = 8							; size = 4
_y_hi$ = 12						; size = 4
_y_lo$ = 16						; size = 4
_z$ = 20						; size = 4
_Multiply_X_2W PROC

; 393  : {

	push	ebp
	mov	ebp, esp
	push	esi
	mov	ecx, OFFSET __C53FCF4E_pmc_multiply@c
	call	@__CheckForDebuggerJustMyCode@4

; 394  :     return ((*fp_Multiply_X_2W)(x, y_hi, y_lo, z));

	mov	esi, esp
	mov	eax, DWORD PTR _z$[ebp]
	push	eax
	mov	ecx, DWORD PTR _y_lo$[ebp]
	push	ecx
	mov	edx, DWORD PTR _y_hi$[ebp]
	push	edx
	mov	eax, DWORD PTR _x$[ebp]
	push	eax
	call	DWORD PTR _fp_Multiply_X_2W
	add	esp, 16					; 00000010H
	cmp	esi, esp
	call	__RTC_CheckEsp

; 395  : }

	pop	esi
	cmp	ebp, esp
	call	__RTC_CheckEsp
	pop	ebp
	ret	0
_Multiply_X_2W ENDP
_TEXT	ENDS
; Function compile flags: /Odtp /RTCsu
; File z:\sources\lunor\repos\rougemeilland\palmtree.math.core.implements\palmtree.math.core.implements\pmc_multiply.c
_TEXT	SEGMENT
_x$ = 8							; size = 4
_y_hi$ = 12						; size = 4
_y_lo$ = 16						; size = 4
_z$ = 20						; size = 4
_Multiply_X_2W_using_MULX_ADCX PROC

; 386  : {

	push	ebp
	mov	ebp, esp
	mov	ecx, OFFSET __C53FCF4E_pmc_multiply@c
	call	@__CheckForDebuggerJustMyCode@4

; 387  :     Multiply_WORD_using_MULX_ADCX(&x->BLOCK[0], x->UNIT_WORD_COUNT, y_lo, &z->BLOCK[0]);

	mov	eax, 4
	imul	ecx, eax, 0
	mov	edx, DWORD PTR _z$[ebp]
	add	ecx, DWORD PTR [edx+24]
	push	ecx
	mov	eax, DWORD PTR _y_lo$[ebp]
	push	eax
	mov	ecx, DWORD PTR _x$[ebp]
	mov	edx, DWORD PTR [ecx]
	push	edx
	mov	eax, 4
	imul	ecx, eax, 0
	mov	edx, DWORD PTR _x$[ebp]
	add	ecx, DWORD PTR [edx+24]
	push	ecx
	call	_Multiply_WORD_using_MULX_ADCX
	add	esp, 16					; 00000010H

; 388  :     Multiply_WORD_using_MULX_ADCX(&x->BLOCK[0], x->UNIT_WORD_COUNT, y_hi, &z->BLOCK[1]);

	mov	eax, 4
	shl	eax, 0
	mov	ecx, DWORD PTR _z$[ebp]
	add	eax, DWORD PTR [ecx+24]
	push	eax
	mov	edx, DWORD PTR _y_hi$[ebp]
	push	edx
	mov	eax, DWORD PTR _x$[ebp]
	mov	ecx, DWORD PTR [eax]
	push	ecx
	mov	edx, 4
	imul	eax, edx, 0
	mov	ecx, DWORD PTR _x$[ebp]
	add	eax, DWORD PTR [ecx+24]
	push	eax
	call	_Multiply_WORD_using_MULX_ADCX
	add	esp, 16					; 00000010H

; 389  :     return (PMC_STATUS_OK);

	xor	eax, eax

; 390  : }

	cmp	ebp, esp
	call	__RTC_CheckEsp
	pop	ebp
	ret	0
_Multiply_X_2W_using_MULX_ADCX ENDP
_TEXT	ENDS
; Function compile flags: /Odtp /RTCsu
; File z:\sources\lunor\repos\rougemeilland\palmtree.math.core.implements\palmtree.math.core.implements\pmc_multiply.c
_TEXT	SEGMENT
_x$ = 8							; size = 4
_y_hi$ = 12						; size = 4
_y_lo$ = 16						; size = 4
_z$ = 20						; size = 4
_Multiply_X_2W_using_MUL_ADC PROC

; 379  : {

	push	ebp
	mov	ebp, esp
	mov	ecx, OFFSET __C53FCF4E_pmc_multiply@c
	call	@__CheckForDebuggerJustMyCode@4

; 380  :     Multiply_WORD_using_MUL_ADC(&x->BLOCK[0], x->UNIT_WORD_COUNT, y_lo, &z->BLOCK[0]);

	mov	eax, 4
	imul	ecx, eax, 0
	mov	edx, DWORD PTR _z$[ebp]
	add	ecx, DWORD PTR [edx+24]
	push	ecx
	mov	eax, DWORD PTR _y_lo$[ebp]
	push	eax
	mov	ecx, DWORD PTR _x$[ebp]
	mov	edx, DWORD PTR [ecx]
	push	edx
	mov	eax, 4
	imul	ecx, eax, 0
	mov	edx, DWORD PTR _x$[ebp]
	add	ecx, DWORD PTR [edx+24]
	push	ecx
	call	_Multiply_WORD_using_MUL_ADC
	add	esp, 16					; 00000010H

; 381  :     Multiply_WORD_using_MUL_ADC(&x->BLOCK[0], x->UNIT_WORD_COUNT, y_hi, &z->BLOCK[1]);

	mov	eax, 4
	shl	eax, 0
	mov	ecx, DWORD PTR _z$[ebp]
	add	eax, DWORD PTR [ecx+24]
	push	eax
	mov	edx, DWORD PTR _y_hi$[ebp]
	push	edx
	mov	eax, DWORD PTR _x$[ebp]
	mov	ecx, DWORD PTR [eax]
	push	ecx
	mov	edx, 4
	imul	eax, edx, 0
	mov	ecx, DWORD PTR _x$[ebp]
	add	eax, DWORD PTR [ecx+24]
	push	eax
	call	_Multiply_WORD_using_MUL_ADC
	add	esp, 16					; 00000010H

; 382  :     return (PMC_STATUS_OK);

	xor	eax, eax

; 383  : }

	cmp	ebp, esp
	call	__RTC_CheckEsp
	pop	ebp
	ret	0
_Multiply_X_2W_using_MUL_ADC ENDP
_TEXT	ENDS
; Function compile flags: /Odtp /RTCsu
; File z:\sources\lunor\repos\rougemeilland\palmtree.math.core.implements\palmtree.math.core.implements\pmc_multiply.c
_TEXT	SEGMENT
_x$ = 8							; size = 4
_y$ = 12						; size = 4
_z$ = 16						; size = 4
_Multiply_X_1W PROC

; 374  : {

	push	ebp
	mov	ebp, esp
	push	esi
	mov	ecx, OFFSET __C53FCF4E_pmc_multiply@c
	call	@__CheckForDebuggerJustMyCode@4

; 375  :     return ((*fp_Multiply_X_1W)(x, y, z));

	mov	esi, esp
	mov	eax, DWORD PTR _z$[ebp]
	push	eax
	mov	ecx, DWORD PTR _y$[ebp]
	push	ecx
	mov	edx, DWORD PTR _x$[ebp]
	push	edx
	call	DWORD PTR _fp_Multiply_X_1W
	add	esp, 12					; 0000000cH
	cmp	esi, esp
	call	__RTC_CheckEsp

; 376  : }

	pop	esi
	cmp	ebp, esp
	call	__RTC_CheckEsp
	pop	ebp
	ret	0
_Multiply_X_1W ENDP
_TEXT	ENDS
; Function compile flags: /Odtp /RTCsu
; File z:\sources\lunor\repos\rougemeilland\palmtree.math.core.implements\palmtree.math.core.implements\pmc_multiply.c
_TEXT	SEGMENT
_x$ = 8							; size = 4
_y$ = 12						; size = 4
_z$ = 16						; size = 4
_Multiply_X_1W_using_MULX_ADCX PROC

; 368  : {

	push	ebp
	mov	ebp, esp
	mov	ecx, OFFSET __C53FCF4E_pmc_multiply@c
	call	@__CheckForDebuggerJustMyCode@4

; 369  :     Multiply_WORD_using_MULX_ADCX(&x->BLOCK[0], x->UNIT_WORD_COUNT, y, &z->BLOCK[0]);

	mov	eax, 4
	imul	ecx, eax, 0
	mov	edx, DWORD PTR _z$[ebp]
	add	ecx, DWORD PTR [edx+24]
	push	ecx
	mov	eax, DWORD PTR _y$[ebp]
	push	eax
	mov	ecx, DWORD PTR _x$[ebp]
	mov	edx, DWORD PTR [ecx]
	push	edx
	mov	eax, 4
	imul	ecx, eax, 0
	mov	edx, DWORD PTR _x$[ebp]
	add	ecx, DWORD PTR [edx+24]
	push	ecx
	call	_Multiply_WORD_using_MULX_ADCX
	add	esp, 16					; 00000010H

; 370  :     return (PMC_STATUS_OK);

	xor	eax, eax

; 371  : }

	cmp	ebp, esp
	call	__RTC_CheckEsp
	pop	ebp
	ret	0
_Multiply_X_1W_using_MULX_ADCX ENDP
_TEXT	ENDS
; Function compile flags: /Odtp /RTCsu
; File z:\sources\lunor\repos\rougemeilland\palmtree.math.core.implements\palmtree.math.core.implements\pmc_multiply.c
_TEXT	SEGMENT
_x$ = 8							; size = 4
_y$ = 12						; size = 4
_z$ = 16						; size = 4
_Multiply_X_1W_using_MUL_ADC PROC

; 362  : {

	push	ebp
	mov	ebp, esp
	mov	ecx, OFFSET __C53FCF4E_pmc_multiply@c
	call	@__CheckForDebuggerJustMyCode@4

; 363  :     Multiply_WORD_using_MUL_ADC(&x->BLOCK[0], x->UNIT_WORD_COUNT, y, &z->BLOCK[0]);

	mov	eax, 4
	imul	ecx, eax, 0
	mov	edx, DWORD PTR _z$[ebp]
	add	ecx, DWORD PTR [edx+24]
	push	ecx
	mov	eax, DWORD PTR _y$[ebp]
	push	eax
	mov	ecx, DWORD PTR _x$[ebp]
	mov	edx, DWORD PTR [ecx]
	push	edx
	mov	eax, 4
	imul	ecx, eax, 0
	mov	edx, DWORD PTR _x$[ebp]
	add	ecx, DWORD PTR [edx+24]
	push	ecx
	call	_Multiply_WORD_using_MUL_ADC
	add	esp, 16					; 00000010H

; 364  :     return (PMC_STATUS_OK);

	xor	eax, eax

; 365  : }

	cmp	ebp, esp
	call	__RTC_CheckEsp
	pop	ebp
	ret	0
_Multiply_X_1W_using_MUL_ADC ENDP
_TEXT	ENDS
; Function compile flags: /Odtp /RTCsu
; File z:\sources\lunor\repos\rougemeilland\palmtree.math.core.implements\palmtree.math.core.implements\pmc_multiply.c
_TEXT	SEGMENT
_count$ = -8						; size = 4
_k$ = -4						; size = 4
_up$ = 8						; size = 4
_u_count$ = 12						; size = 4
_v$ = 16						; size = 4
_wp$ = 20						; size = 4
_Multiply_WORD_using_MULX_ADCX PROC

; 214  : {

	push	ebp
	mov	ebp, esp
	sub	esp, 8
	mov	DWORD PTR [ebp-8], -858993460		; ccccccccH
	mov	DWORD PTR [ebp-4], -858993460		; ccccccccH
	mov	ecx, OFFSET __C53FCF4E_pmc_multiply@c
	call	@__CheckForDebuggerJustMyCode@4

; 215  :     __UNIT_TYPE k = 0;

	mov	DWORD PTR _k$[ebp], 0

; 216  :     __UNIT_TYPE count = u_count >> 5;

	mov	eax, DWORD PTR _u_count$[ebp]
	shr	eax, 5
	mov	DWORD PTR _count$[ebp], eax
$LN2@Multiply_W:

; 217  : 
; 218  :     while (count != 0)

	cmp	DWORD PTR _count$[ebp], 0
	je	$LN3@Multiply_W

; 219  :     {
; 220  :         k = _MULTIPLYX_DIGIT_UNIT(k, &up[0], v, &wp[0]);

	mov	ecx, 4
	imul	edx, ecx, 0
	add	edx, DWORD PTR _wp$[ebp]
	push	edx
	mov	eax, DWORD PTR _v$[ebp]
	push	eax
	mov	ecx, 4
	imul	edx, ecx, 0
	add	edx, DWORD PTR _up$[ebp]
	push	edx
	mov	eax, DWORD PTR _k$[ebp]
	push	eax
	call	__MULTIPLYX_DIGIT_UNIT
	add	esp, 16					; 00000010H
	mov	DWORD PTR _k$[ebp], eax

; 221  :         k = _MULTIPLYX_DIGIT_UNIT(k, &up[1], v, &wp[1]);

	mov	ecx, 4
	shl	ecx, 0
	add	ecx, DWORD PTR _wp$[ebp]
	push	ecx
	mov	edx, DWORD PTR _v$[ebp]
	push	edx
	mov	eax, 4
	shl	eax, 0
	add	eax, DWORD PTR _up$[ebp]
	push	eax
	mov	ecx, DWORD PTR _k$[ebp]
	push	ecx
	call	__MULTIPLYX_DIGIT_UNIT
	add	esp, 16					; 00000010H
	mov	DWORD PTR _k$[ebp], eax

; 222  :         k = _MULTIPLYX_DIGIT_UNIT(k, &up[2], v, &wp[2]);

	mov	edx, 4
	shl	edx, 1
	add	edx, DWORD PTR _wp$[ebp]
	push	edx
	mov	eax, DWORD PTR _v$[ebp]
	push	eax
	mov	ecx, 4
	shl	ecx, 1
	add	ecx, DWORD PTR _up$[ebp]
	push	ecx
	mov	edx, DWORD PTR _k$[ebp]
	push	edx
	call	__MULTIPLYX_DIGIT_UNIT
	add	esp, 16					; 00000010H
	mov	DWORD PTR _k$[ebp], eax

; 223  :         k = _MULTIPLYX_DIGIT_UNIT(k, &up[3], v, &wp[3]);

	mov	eax, 4
	imul	ecx, eax, 3
	add	ecx, DWORD PTR _wp$[ebp]
	push	ecx
	mov	edx, DWORD PTR _v$[ebp]
	push	edx
	mov	eax, 4
	imul	ecx, eax, 3
	add	ecx, DWORD PTR _up$[ebp]
	push	ecx
	mov	edx, DWORD PTR _k$[ebp]
	push	edx
	call	__MULTIPLYX_DIGIT_UNIT
	add	esp, 16					; 00000010H
	mov	DWORD PTR _k$[ebp], eax

; 224  :         k = _MULTIPLYX_DIGIT_UNIT(k, &up[4], v, &wp[4]);

	mov	eax, 4
	shl	eax, 2
	add	eax, DWORD PTR _wp$[ebp]
	push	eax
	mov	ecx, DWORD PTR _v$[ebp]
	push	ecx
	mov	edx, 4
	shl	edx, 2
	add	edx, DWORD PTR _up$[ebp]
	push	edx
	mov	eax, DWORD PTR _k$[ebp]
	push	eax
	call	__MULTIPLYX_DIGIT_UNIT
	add	esp, 16					; 00000010H
	mov	DWORD PTR _k$[ebp], eax

; 225  :         k = _MULTIPLYX_DIGIT_UNIT(k, &up[5], v, &wp[5]);

	mov	ecx, 4
	imul	edx, ecx, 5
	add	edx, DWORD PTR _wp$[ebp]
	push	edx
	mov	eax, DWORD PTR _v$[ebp]
	push	eax
	mov	ecx, 4
	imul	edx, ecx, 5
	add	edx, DWORD PTR _up$[ebp]
	push	edx
	mov	eax, DWORD PTR _k$[ebp]
	push	eax
	call	__MULTIPLYX_DIGIT_UNIT
	add	esp, 16					; 00000010H
	mov	DWORD PTR _k$[ebp], eax

; 226  :         k = _MULTIPLYX_DIGIT_UNIT(k, &up[6], v, &wp[6]);

	mov	ecx, 4
	imul	edx, ecx, 6
	add	edx, DWORD PTR _wp$[ebp]
	push	edx
	mov	eax, DWORD PTR _v$[ebp]
	push	eax
	mov	ecx, 4
	imul	edx, ecx, 6
	add	edx, DWORD PTR _up$[ebp]
	push	edx
	mov	eax, DWORD PTR _k$[ebp]
	push	eax
	call	__MULTIPLYX_DIGIT_UNIT
	add	esp, 16					; 00000010H
	mov	DWORD PTR _k$[ebp], eax

; 227  :         k = _MULTIPLYX_DIGIT_UNIT(k, &up[7], v, &wp[7]);

	mov	ecx, 4
	imul	edx, ecx, 7
	add	edx, DWORD PTR _wp$[ebp]
	push	edx
	mov	eax, DWORD PTR _v$[ebp]
	push	eax
	mov	ecx, 4
	imul	edx, ecx, 7
	add	edx, DWORD PTR _up$[ebp]
	push	edx
	mov	eax, DWORD PTR _k$[ebp]
	push	eax
	call	__MULTIPLYX_DIGIT_UNIT
	add	esp, 16					; 00000010H
	mov	DWORD PTR _k$[ebp], eax

; 228  :         k = _MULTIPLYX_DIGIT_UNIT(k, &up[8], v, &wp[8]);

	mov	ecx, 4
	shl	ecx, 3
	add	ecx, DWORD PTR _wp$[ebp]
	push	ecx
	mov	edx, DWORD PTR _v$[ebp]
	push	edx
	mov	eax, 4
	shl	eax, 3
	add	eax, DWORD PTR _up$[ebp]
	push	eax
	mov	ecx, DWORD PTR _k$[ebp]
	push	ecx
	call	__MULTIPLYX_DIGIT_UNIT
	add	esp, 16					; 00000010H
	mov	DWORD PTR _k$[ebp], eax

; 229  :         k = _MULTIPLYX_DIGIT_UNIT(k, &up[9], v, &wp[9]);

	mov	edx, 4
	imul	eax, edx, 9
	add	eax, DWORD PTR _wp$[ebp]
	push	eax
	mov	ecx, DWORD PTR _v$[ebp]
	push	ecx
	mov	edx, 4
	imul	eax, edx, 9
	add	eax, DWORD PTR _up$[ebp]
	push	eax
	mov	ecx, DWORD PTR _k$[ebp]
	push	ecx
	call	__MULTIPLYX_DIGIT_UNIT
	add	esp, 16					; 00000010H
	mov	DWORD PTR _k$[ebp], eax

; 230  :         k = _MULTIPLYX_DIGIT_UNIT(k, &up[10], v, &wp[10]);

	mov	edx, 4
	imul	eax, edx, 10
	add	eax, DWORD PTR _wp$[ebp]
	push	eax
	mov	ecx, DWORD PTR _v$[ebp]
	push	ecx
	mov	edx, 4
	imul	eax, edx, 10
	add	eax, DWORD PTR _up$[ebp]
	push	eax
	mov	ecx, DWORD PTR _k$[ebp]
	push	ecx
	call	__MULTIPLYX_DIGIT_UNIT
	add	esp, 16					; 00000010H
	mov	DWORD PTR _k$[ebp], eax

; 231  :         k = _MULTIPLYX_DIGIT_UNIT(k, &up[11], v, &wp[11]);

	mov	edx, 4
	imul	eax, edx, 11
	add	eax, DWORD PTR _wp$[ebp]
	push	eax
	mov	ecx, DWORD PTR _v$[ebp]
	push	ecx
	mov	edx, 4
	imul	eax, edx, 11
	add	eax, DWORD PTR _up$[ebp]
	push	eax
	mov	ecx, DWORD PTR _k$[ebp]
	push	ecx
	call	__MULTIPLYX_DIGIT_UNIT
	add	esp, 16					; 00000010H
	mov	DWORD PTR _k$[ebp], eax

; 232  :         k = _MULTIPLYX_DIGIT_UNIT(k, &up[12], v, &wp[12]);

	mov	edx, 4
	imul	eax, edx, 12
	add	eax, DWORD PTR _wp$[ebp]
	push	eax
	mov	ecx, DWORD PTR _v$[ebp]
	push	ecx
	mov	edx, 4
	imul	eax, edx, 12
	add	eax, DWORD PTR _up$[ebp]
	push	eax
	mov	ecx, DWORD PTR _k$[ebp]
	push	ecx
	call	__MULTIPLYX_DIGIT_UNIT
	add	esp, 16					; 00000010H
	mov	DWORD PTR _k$[ebp], eax

; 233  :         k = _MULTIPLYX_DIGIT_UNIT(k, &up[13], v, &wp[13]);

	mov	edx, 4
	imul	eax, edx, 13
	add	eax, DWORD PTR _wp$[ebp]
	push	eax
	mov	ecx, DWORD PTR _v$[ebp]
	push	ecx
	mov	edx, 4
	imul	eax, edx, 13
	add	eax, DWORD PTR _up$[ebp]
	push	eax
	mov	ecx, DWORD PTR _k$[ebp]
	push	ecx
	call	__MULTIPLYX_DIGIT_UNIT
	add	esp, 16					; 00000010H
	mov	DWORD PTR _k$[ebp], eax

; 234  :         k = _MULTIPLYX_DIGIT_UNIT(k, &up[14], v, &wp[14]);

	mov	edx, 4
	imul	eax, edx, 14
	add	eax, DWORD PTR _wp$[ebp]
	push	eax
	mov	ecx, DWORD PTR _v$[ebp]
	push	ecx
	mov	edx, 4
	imul	eax, edx, 14
	add	eax, DWORD PTR _up$[ebp]
	push	eax
	mov	ecx, DWORD PTR _k$[ebp]
	push	ecx
	call	__MULTIPLYX_DIGIT_UNIT
	add	esp, 16					; 00000010H
	mov	DWORD PTR _k$[ebp], eax

; 235  :         k = _MULTIPLYX_DIGIT_UNIT(k, &up[15], v, &wp[15]);

	mov	edx, 4
	imul	eax, edx, 15
	add	eax, DWORD PTR _wp$[ebp]
	push	eax
	mov	ecx, DWORD PTR _v$[ebp]
	push	ecx
	mov	edx, 4
	imul	eax, edx, 15
	add	eax, DWORD PTR _up$[ebp]
	push	eax
	mov	ecx, DWORD PTR _k$[ebp]
	push	ecx
	call	__MULTIPLYX_DIGIT_UNIT
	add	esp, 16					; 00000010H
	mov	DWORD PTR _k$[ebp], eax

; 236  :         k = _MULTIPLYX_DIGIT_UNIT(k, &up[16], v, &wp[16]);

	mov	edx, 4
	shl	edx, 4
	add	edx, DWORD PTR _wp$[ebp]
	push	edx
	mov	eax, DWORD PTR _v$[ebp]
	push	eax
	mov	ecx, 4
	shl	ecx, 4
	add	ecx, DWORD PTR _up$[ebp]
	push	ecx
	mov	edx, DWORD PTR _k$[ebp]
	push	edx
	call	__MULTIPLYX_DIGIT_UNIT
	add	esp, 16					; 00000010H
	mov	DWORD PTR _k$[ebp], eax

; 237  :         k = _MULTIPLYX_DIGIT_UNIT(k, &up[17], v, &wp[17]);

	mov	eax, 4
	imul	ecx, eax, 17
	add	ecx, DWORD PTR _wp$[ebp]
	push	ecx
	mov	edx, DWORD PTR _v$[ebp]
	push	edx
	mov	eax, 4
	imul	ecx, eax, 17
	add	ecx, DWORD PTR _up$[ebp]
	push	ecx
	mov	edx, DWORD PTR _k$[ebp]
	push	edx
	call	__MULTIPLYX_DIGIT_UNIT
	add	esp, 16					; 00000010H
	mov	DWORD PTR _k$[ebp], eax

; 238  :         k = _MULTIPLYX_DIGIT_UNIT(k, &up[18], v, &wp[18]);

	mov	eax, 4
	imul	ecx, eax, 18
	add	ecx, DWORD PTR _wp$[ebp]
	push	ecx
	mov	edx, DWORD PTR _v$[ebp]
	push	edx
	mov	eax, 4
	imul	ecx, eax, 18
	add	ecx, DWORD PTR _up$[ebp]
	push	ecx
	mov	edx, DWORD PTR _k$[ebp]
	push	edx
	call	__MULTIPLYX_DIGIT_UNIT
	add	esp, 16					; 00000010H
	mov	DWORD PTR _k$[ebp], eax

; 239  :         k = _MULTIPLYX_DIGIT_UNIT(k, &up[19], v, &wp[19]);

	mov	eax, 4
	imul	ecx, eax, 19
	add	ecx, DWORD PTR _wp$[ebp]
	push	ecx
	mov	edx, DWORD PTR _v$[ebp]
	push	edx
	mov	eax, 4
	imul	ecx, eax, 19
	add	ecx, DWORD PTR _up$[ebp]
	push	ecx
	mov	edx, DWORD PTR _k$[ebp]
	push	edx
	call	__MULTIPLYX_DIGIT_UNIT
	add	esp, 16					; 00000010H
	mov	DWORD PTR _k$[ebp], eax

; 240  :         k = _MULTIPLYX_DIGIT_UNIT(k, &up[20], v, &wp[20]);

	mov	eax, 4
	imul	ecx, eax, 20
	add	ecx, DWORD PTR _wp$[ebp]
	push	ecx
	mov	edx, DWORD PTR _v$[ebp]
	push	edx
	mov	eax, 4
	imul	ecx, eax, 20
	add	ecx, DWORD PTR _up$[ebp]
	push	ecx
	mov	edx, DWORD PTR _k$[ebp]
	push	edx
	call	__MULTIPLYX_DIGIT_UNIT
	add	esp, 16					; 00000010H
	mov	DWORD PTR _k$[ebp], eax

; 241  :         k = _MULTIPLYX_DIGIT_UNIT(k, &up[21], v, &wp[21]);

	mov	eax, 4
	imul	ecx, eax, 21
	add	ecx, DWORD PTR _wp$[ebp]
	push	ecx
	mov	edx, DWORD PTR _v$[ebp]
	push	edx
	mov	eax, 4
	imul	ecx, eax, 21
	add	ecx, DWORD PTR _up$[ebp]
	push	ecx
	mov	edx, DWORD PTR _k$[ebp]
	push	edx
	call	__MULTIPLYX_DIGIT_UNIT
	add	esp, 16					; 00000010H
	mov	DWORD PTR _k$[ebp], eax

; 242  :         k = _MULTIPLYX_DIGIT_UNIT(k, &up[22], v, &wp[22]);

	mov	eax, 4
	imul	ecx, eax, 22
	add	ecx, DWORD PTR _wp$[ebp]
	push	ecx
	mov	edx, DWORD PTR _v$[ebp]
	push	edx
	mov	eax, 4
	imul	ecx, eax, 22
	add	ecx, DWORD PTR _up$[ebp]
	push	ecx
	mov	edx, DWORD PTR _k$[ebp]
	push	edx
	call	__MULTIPLYX_DIGIT_UNIT
	add	esp, 16					; 00000010H
	mov	DWORD PTR _k$[ebp], eax

; 243  :         k = _MULTIPLYX_DIGIT_UNIT(k, &up[23], v, &wp[23]);

	mov	eax, 4
	imul	ecx, eax, 23
	add	ecx, DWORD PTR _wp$[ebp]
	push	ecx
	mov	edx, DWORD PTR _v$[ebp]
	push	edx
	mov	eax, 4
	imul	ecx, eax, 23
	add	ecx, DWORD PTR _up$[ebp]
	push	ecx
	mov	edx, DWORD PTR _k$[ebp]
	push	edx
	call	__MULTIPLYX_DIGIT_UNIT
	add	esp, 16					; 00000010H
	mov	DWORD PTR _k$[ebp], eax

; 244  :         k = _MULTIPLYX_DIGIT_UNIT(k, &up[24], v, &wp[24]);

	mov	eax, 4
	imul	ecx, eax, 24
	add	ecx, DWORD PTR _wp$[ebp]
	push	ecx
	mov	edx, DWORD PTR _v$[ebp]
	push	edx
	mov	eax, 4
	imul	ecx, eax, 24
	add	ecx, DWORD PTR _up$[ebp]
	push	ecx
	mov	edx, DWORD PTR _k$[ebp]
	push	edx
	call	__MULTIPLYX_DIGIT_UNIT
	add	esp, 16					; 00000010H
	mov	DWORD PTR _k$[ebp], eax

; 245  :         k = _MULTIPLYX_DIGIT_UNIT(k, &up[25], v, &wp[25]);

	mov	eax, 4
	imul	ecx, eax, 25
	add	ecx, DWORD PTR _wp$[ebp]
	push	ecx
	mov	edx, DWORD PTR _v$[ebp]
	push	edx
	mov	eax, 4
	imul	ecx, eax, 25
	add	ecx, DWORD PTR _up$[ebp]
	push	ecx
	mov	edx, DWORD PTR _k$[ebp]
	push	edx
	call	__MULTIPLYX_DIGIT_UNIT
	add	esp, 16					; 00000010H
	mov	DWORD PTR _k$[ebp], eax

; 246  :         k = _MULTIPLYX_DIGIT_UNIT(k, &up[26], v, &wp[26]);

	mov	eax, 4
	imul	ecx, eax, 26
	add	ecx, DWORD PTR _wp$[ebp]
	push	ecx
	mov	edx, DWORD PTR _v$[ebp]
	push	edx
	mov	eax, 4
	imul	ecx, eax, 26
	add	ecx, DWORD PTR _up$[ebp]
	push	ecx
	mov	edx, DWORD PTR _k$[ebp]
	push	edx
	call	__MULTIPLYX_DIGIT_UNIT
	add	esp, 16					; 00000010H
	mov	DWORD PTR _k$[ebp], eax

; 247  :         k = _MULTIPLYX_DIGIT_UNIT(k, &up[27], v, &wp[27]);

	mov	eax, 4
	imul	ecx, eax, 27
	add	ecx, DWORD PTR _wp$[ebp]
	push	ecx
	mov	edx, DWORD PTR _v$[ebp]
	push	edx
	mov	eax, 4
	imul	ecx, eax, 27
	add	ecx, DWORD PTR _up$[ebp]
	push	ecx
	mov	edx, DWORD PTR _k$[ebp]
	push	edx
	call	__MULTIPLYX_DIGIT_UNIT
	add	esp, 16					; 00000010H
	mov	DWORD PTR _k$[ebp], eax

; 248  :         k = _MULTIPLYX_DIGIT_UNIT(k, &up[28], v, &wp[28]);

	mov	eax, 4
	imul	ecx, eax, 28
	add	ecx, DWORD PTR _wp$[ebp]
	push	ecx
	mov	edx, DWORD PTR _v$[ebp]
	push	edx
	mov	eax, 4
	imul	ecx, eax, 28
	add	ecx, DWORD PTR _up$[ebp]
	push	ecx
	mov	edx, DWORD PTR _k$[ebp]
	push	edx
	call	__MULTIPLYX_DIGIT_UNIT
	add	esp, 16					; 00000010H
	mov	DWORD PTR _k$[ebp], eax

; 249  :         k = _MULTIPLYX_DIGIT_UNIT(k, &up[29], v, &wp[29]);

	mov	eax, 4
	imul	ecx, eax, 29
	add	ecx, DWORD PTR _wp$[ebp]
	push	ecx
	mov	edx, DWORD PTR _v$[ebp]
	push	edx
	mov	eax, 4
	imul	ecx, eax, 29
	add	ecx, DWORD PTR _up$[ebp]
	push	ecx
	mov	edx, DWORD PTR _k$[ebp]
	push	edx
	call	__MULTIPLYX_DIGIT_UNIT
	add	esp, 16					; 00000010H
	mov	DWORD PTR _k$[ebp], eax

; 250  :         k = _MULTIPLYX_DIGIT_UNIT(k, &up[30], v, &wp[30]);

	mov	eax, 4
	imul	ecx, eax, 30
	add	ecx, DWORD PTR _wp$[ebp]
	push	ecx
	mov	edx, DWORD PTR _v$[ebp]
	push	edx
	mov	eax, 4
	imul	ecx, eax, 30
	add	ecx, DWORD PTR _up$[ebp]
	push	ecx
	mov	edx, DWORD PTR _k$[ebp]
	push	edx
	call	__MULTIPLYX_DIGIT_UNIT
	add	esp, 16					; 00000010H
	mov	DWORD PTR _k$[ebp], eax

; 251  :         k = _MULTIPLYX_DIGIT_UNIT(k, &up[31], v, &wp[31]);

	mov	eax, 4
	imul	ecx, eax, 31
	add	ecx, DWORD PTR _wp$[ebp]
	push	ecx
	mov	edx, DWORD PTR _v$[ebp]
	push	edx
	mov	eax, 4
	imul	ecx, eax, 31
	add	ecx, DWORD PTR _up$[ebp]
	push	ecx
	mov	edx, DWORD PTR _k$[ebp]
	push	edx
	call	__MULTIPLYX_DIGIT_UNIT
	add	esp, 16					; 00000010H
	mov	DWORD PTR _k$[ebp], eax

; 252  :         up += 32;

	mov	eax, DWORD PTR _up$[ebp]
	add	eax, 128				; 00000080H
	mov	DWORD PTR _up$[ebp], eax

; 253  :         wp += 32;

	mov	ecx, DWORD PTR _wp$[ebp]
	add	ecx, 128				; 00000080H
	mov	DWORD PTR _wp$[ebp], ecx

; 254  :         --count;

	mov	edx, DWORD PTR _count$[ebp]
	sub	edx, 1
	mov	DWORD PTR _count$[ebp], edx

; 255  : #ifdef ENABLED_PERFORMANCE_COUNTER
; 256  :         if (sizeof(k) == sizeof(_UINT32_T))

	mov	eax, 1
	test	eax, eax
	je	SHORT $LN4@Multiply_W

; 257  :             AddToMULTI32Counter(32);

	push	32					; 00000020H
	call	_AddToMULTI32Counter
	add	esp, 4
	jmp	SHORT $LN5@Multiply_W
$LN4@Multiply_W:

; 258  :         else
; 259  :             AddToMULTI64Counter(32);

	push	32					; 00000020H
	call	_AddToMULTI64Counter
	add	esp, 4
$LN5@Multiply_W:

; 260  : #endif
; 261  :     }

	jmp	$LN2@Multiply_W
$LN3@Multiply_W:

; 262  : 
; 263  :     if (u_count & 0x10)

	mov	ecx, DWORD PTR _u_count$[ebp]
	and	ecx, 16					; 00000010H
	je	$LN6@Multiply_W

; 264  :     {
; 265  :         k = _MULTIPLYX_DIGIT_UNIT(k, &up[0], v, &wp[0]);

	mov	edx, 4
	imul	eax, edx, 0
	add	eax, DWORD PTR _wp$[ebp]
	push	eax
	mov	ecx, DWORD PTR _v$[ebp]
	push	ecx
	mov	edx, 4
	imul	eax, edx, 0
	add	eax, DWORD PTR _up$[ebp]
	push	eax
	mov	ecx, DWORD PTR _k$[ebp]
	push	ecx
	call	__MULTIPLYX_DIGIT_UNIT
	add	esp, 16					; 00000010H
	mov	DWORD PTR _k$[ebp], eax

; 266  :         k = _MULTIPLYX_DIGIT_UNIT(k, &up[1], v, &wp[1]);

	mov	edx, 4
	shl	edx, 0
	add	edx, DWORD PTR _wp$[ebp]
	push	edx
	mov	eax, DWORD PTR _v$[ebp]
	push	eax
	mov	ecx, 4
	shl	ecx, 0
	add	ecx, DWORD PTR _up$[ebp]
	push	ecx
	mov	edx, DWORD PTR _k$[ebp]
	push	edx
	call	__MULTIPLYX_DIGIT_UNIT
	add	esp, 16					; 00000010H
	mov	DWORD PTR _k$[ebp], eax

; 267  :         k = _MULTIPLYX_DIGIT_UNIT(k, &up[2], v, &wp[2]);

	mov	eax, 4
	shl	eax, 1
	add	eax, DWORD PTR _wp$[ebp]
	push	eax
	mov	ecx, DWORD PTR _v$[ebp]
	push	ecx
	mov	edx, 4
	shl	edx, 1
	add	edx, DWORD PTR _up$[ebp]
	push	edx
	mov	eax, DWORD PTR _k$[ebp]
	push	eax
	call	__MULTIPLYX_DIGIT_UNIT
	add	esp, 16					; 00000010H
	mov	DWORD PTR _k$[ebp], eax

; 268  :         k = _MULTIPLYX_DIGIT_UNIT(k, &up[3], v, &wp[3]);

	mov	ecx, 4
	imul	edx, ecx, 3
	add	edx, DWORD PTR _wp$[ebp]
	push	edx
	mov	eax, DWORD PTR _v$[ebp]
	push	eax
	mov	ecx, 4
	imul	edx, ecx, 3
	add	edx, DWORD PTR _up$[ebp]
	push	edx
	mov	eax, DWORD PTR _k$[ebp]
	push	eax
	call	__MULTIPLYX_DIGIT_UNIT
	add	esp, 16					; 00000010H
	mov	DWORD PTR _k$[ebp], eax

; 269  :         k = _MULTIPLYX_DIGIT_UNIT(k, &up[4], v, &wp[4]);

	mov	ecx, 4
	shl	ecx, 2
	add	ecx, DWORD PTR _wp$[ebp]
	push	ecx
	mov	edx, DWORD PTR _v$[ebp]
	push	edx
	mov	eax, 4
	shl	eax, 2
	add	eax, DWORD PTR _up$[ebp]
	push	eax
	mov	ecx, DWORD PTR _k$[ebp]
	push	ecx
	call	__MULTIPLYX_DIGIT_UNIT
	add	esp, 16					; 00000010H
	mov	DWORD PTR _k$[ebp], eax

; 270  :         k = _MULTIPLYX_DIGIT_UNIT(k, &up[5], v, &wp[5]);

	mov	edx, 4
	imul	eax, edx, 5
	add	eax, DWORD PTR _wp$[ebp]
	push	eax
	mov	ecx, DWORD PTR _v$[ebp]
	push	ecx
	mov	edx, 4
	imul	eax, edx, 5
	add	eax, DWORD PTR _up$[ebp]
	push	eax
	mov	ecx, DWORD PTR _k$[ebp]
	push	ecx
	call	__MULTIPLYX_DIGIT_UNIT
	add	esp, 16					; 00000010H
	mov	DWORD PTR _k$[ebp], eax

; 271  :         k = _MULTIPLYX_DIGIT_UNIT(k, &up[6], v, &wp[6]);

	mov	edx, 4
	imul	eax, edx, 6
	add	eax, DWORD PTR _wp$[ebp]
	push	eax
	mov	ecx, DWORD PTR _v$[ebp]
	push	ecx
	mov	edx, 4
	imul	eax, edx, 6
	add	eax, DWORD PTR _up$[ebp]
	push	eax
	mov	ecx, DWORD PTR _k$[ebp]
	push	ecx
	call	__MULTIPLYX_DIGIT_UNIT
	add	esp, 16					; 00000010H
	mov	DWORD PTR _k$[ebp], eax

; 272  :         k = _MULTIPLYX_DIGIT_UNIT(k, &up[7], v, &wp[7]);

	mov	edx, 4
	imul	eax, edx, 7
	add	eax, DWORD PTR _wp$[ebp]
	push	eax
	mov	ecx, DWORD PTR _v$[ebp]
	push	ecx
	mov	edx, 4
	imul	eax, edx, 7
	add	eax, DWORD PTR _up$[ebp]
	push	eax
	mov	ecx, DWORD PTR _k$[ebp]
	push	ecx
	call	__MULTIPLYX_DIGIT_UNIT
	add	esp, 16					; 00000010H
	mov	DWORD PTR _k$[ebp], eax

; 273  :         k = _MULTIPLYX_DIGIT_UNIT(k, &up[8], v, &wp[8]);

	mov	edx, 4
	shl	edx, 3
	add	edx, DWORD PTR _wp$[ebp]
	push	edx
	mov	eax, DWORD PTR _v$[ebp]
	push	eax
	mov	ecx, 4
	shl	ecx, 3
	add	ecx, DWORD PTR _up$[ebp]
	push	ecx
	mov	edx, DWORD PTR _k$[ebp]
	push	edx
	call	__MULTIPLYX_DIGIT_UNIT
	add	esp, 16					; 00000010H
	mov	DWORD PTR _k$[ebp], eax

; 274  :         k = _MULTIPLYX_DIGIT_UNIT(k, &up[9], v, &wp[9]);

	mov	eax, 4
	imul	ecx, eax, 9
	add	ecx, DWORD PTR _wp$[ebp]
	push	ecx
	mov	edx, DWORD PTR _v$[ebp]
	push	edx
	mov	eax, 4
	imul	ecx, eax, 9
	add	ecx, DWORD PTR _up$[ebp]
	push	ecx
	mov	edx, DWORD PTR _k$[ebp]
	push	edx
	call	__MULTIPLYX_DIGIT_UNIT
	add	esp, 16					; 00000010H
	mov	DWORD PTR _k$[ebp], eax

; 275  :         k = _MULTIPLYX_DIGIT_UNIT(k, &up[10], v, &wp[10]);

	mov	eax, 4
	imul	ecx, eax, 10
	add	ecx, DWORD PTR _wp$[ebp]
	push	ecx
	mov	edx, DWORD PTR _v$[ebp]
	push	edx
	mov	eax, 4
	imul	ecx, eax, 10
	add	ecx, DWORD PTR _up$[ebp]
	push	ecx
	mov	edx, DWORD PTR _k$[ebp]
	push	edx
	call	__MULTIPLYX_DIGIT_UNIT
	add	esp, 16					; 00000010H
	mov	DWORD PTR _k$[ebp], eax

; 276  :         k = _MULTIPLYX_DIGIT_UNIT(k, &up[11], v, &wp[11]);

	mov	eax, 4
	imul	ecx, eax, 11
	add	ecx, DWORD PTR _wp$[ebp]
	push	ecx
	mov	edx, DWORD PTR _v$[ebp]
	push	edx
	mov	eax, 4
	imul	ecx, eax, 11
	add	ecx, DWORD PTR _up$[ebp]
	push	ecx
	mov	edx, DWORD PTR _k$[ebp]
	push	edx
	call	__MULTIPLYX_DIGIT_UNIT
	add	esp, 16					; 00000010H
	mov	DWORD PTR _k$[ebp], eax

; 277  :         k = _MULTIPLYX_DIGIT_UNIT(k, &up[12], v, &wp[12]);

	mov	eax, 4
	imul	ecx, eax, 12
	add	ecx, DWORD PTR _wp$[ebp]
	push	ecx
	mov	edx, DWORD PTR _v$[ebp]
	push	edx
	mov	eax, 4
	imul	ecx, eax, 12
	add	ecx, DWORD PTR _up$[ebp]
	push	ecx
	mov	edx, DWORD PTR _k$[ebp]
	push	edx
	call	__MULTIPLYX_DIGIT_UNIT
	add	esp, 16					; 00000010H
	mov	DWORD PTR _k$[ebp], eax

; 278  :         k = _MULTIPLYX_DIGIT_UNIT(k, &up[13], v, &wp[13]);

	mov	eax, 4
	imul	ecx, eax, 13
	add	ecx, DWORD PTR _wp$[ebp]
	push	ecx
	mov	edx, DWORD PTR _v$[ebp]
	push	edx
	mov	eax, 4
	imul	ecx, eax, 13
	add	ecx, DWORD PTR _up$[ebp]
	push	ecx
	mov	edx, DWORD PTR _k$[ebp]
	push	edx
	call	__MULTIPLYX_DIGIT_UNIT
	add	esp, 16					; 00000010H
	mov	DWORD PTR _k$[ebp], eax

; 279  :         k = _MULTIPLYX_DIGIT_UNIT(k, &up[14], v, &wp[14]);

	mov	eax, 4
	imul	ecx, eax, 14
	add	ecx, DWORD PTR _wp$[ebp]
	push	ecx
	mov	edx, DWORD PTR _v$[ebp]
	push	edx
	mov	eax, 4
	imul	ecx, eax, 14
	add	ecx, DWORD PTR _up$[ebp]
	push	ecx
	mov	edx, DWORD PTR _k$[ebp]
	push	edx
	call	__MULTIPLYX_DIGIT_UNIT
	add	esp, 16					; 00000010H
	mov	DWORD PTR _k$[ebp], eax

; 280  :         k = _MULTIPLYX_DIGIT_UNIT(k, &up[15], v, &wp[15]);

	mov	eax, 4
	imul	ecx, eax, 15
	add	ecx, DWORD PTR _wp$[ebp]
	push	ecx
	mov	edx, DWORD PTR _v$[ebp]
	push	edx
	mov	eax, 4
	imul	ecx, eax, 15
	add	ecx, DWORD PTR _up$[ebp]
	push	ecx
	mov	edx, DWORD PTR _k$[ebp]
	push	edx
	call	__MULTIPLYX_DIGIT_UNIT
	add	esp, 16					; 00000010H
	mov	DWORD PTR _k$[ebp], eax

; 281  :         up += 16;

	mov	eax, DWORD PTR _up$[ebp]
	add	eax, 64					; 00000040H
	mov	DWORD PTR _up$[ebp], eax

; 282  :         wp += 16;

	mov	ecx, DWORD PTR _wp$[ebp]
	add	ecx, 64					; 00000040H
	mov	DWORD PTR _wp$[ebp], ecx

; 283  : #ifdef ENABLED_PERFORMANCE_COUNTER
; 284  :         if (sizeof(k) == sizeof(_UINT32_T))

	mov	edx, 1
	test	edx, edx
	je	SHORT $LN7@Multiply_W

; 285  :             AddToMULTI32Counter(16);

	push	16					; 00000010H
	call	_AddToMULTI32Counter
	add	esp, 4
	jmp	SHORT $LN6@Multiply_W
$LN7@Multiply_W:

; 286  :         else
; 287  :             AddToMULTI64Counter(16);

	push	16					; 00000010H
	call	_AddToMULTI64Counter
	add	esp, 4
$LN6@Multiply_W:

; 288  : #endif
; 289  :     }
; 290  : 
; 291  :     if (u_count & 0x8)

	mov	eax, DWORD PTR _u_count$[ebp]
	and	eax, 8
	je	$LN9@Multiply_W

; 292  :     {
; 293  :         k = _MULTIPLYX_DIGIT_UNIT(k, &up[0], v, &wp[0]);

	mov	ecx, 4
	imul	edx, ecx, 0
	add	edx, DWORD PTR _wp$[ebp]
	push	edx
	mov	eax, DWORD PTR _v$[ebp]
	push	eax
	mov	ecx, 4
	imul	edx, ecx, 0
	add	edx, DWORD PTR _up$[ebp]
	push	edx
	mov	eax, DWORD PTR _k$[ebp]
	push	eax
	call	__MULTIPLYX_DIGIT_UNIT
	add	esp, 16					; 00000010H
	mov	DWORD PTR _k$[ebp], eax

; 294  :         k = _MULTIPLYX_DIGIT_UNIT(k, &up[1], v, &wp[1]);

	mov	ecx, 4
	shl	ecx, 0
	add	ecx, DWORD PTR _wp$[ebp]
	push	ecx
	mov	edx, DWORD PTR _v$[ebp]
	push	edx
	mov	eax, 4
	shl	eax, 0
	add	eax, DWORD PTR _up$[ebp]
	push	eax
	mov	ecx, DWORD PTR _k$[ebp]
	push	ecx
	call	__MULTIPLYX_DIGIT_UNIT
	add	esp, 16					; 00000010H
	mov	DWORD PTR _k$[ebp], eax

; 295  :         k = _MULTIPLYX_DIGIT_UNIT(k, &up[2], v, &wp[2]);

	mov	edx, 4
	shl	edx, 1
	add	edx, DWORD PTR _wp$[ebp]
	push	edx
	mov	eax, DWORD PTR _v$[ebp]
	push	eax
	mov	ecx, 4
	shl	ecx, 1
	add	ecx, DWORD PTR _up$[ebp]
	push	ecx
	mov	edx, DWORD PTR _k$[ebp]
	push	edx
	call	__MULTIPLYX_DIGIT_UNIT
	add	esp, 16					; 00000010H
	mov	DWORD PTR _k$[ebp], eax

; 296  :         k = _MULTIPLYX_DIGIT_UNIT(k, &up[3], v, &wp[3]);

	mov	eax, 4
	imul	ecx, eax, 3
	add	ecx, DWORD PTR _wp$[ebp]
	push	ecx
	mov	edx, DWORD PTR _v$[ebp]
	push	edx
	mov	eax, 4
	imul	ecx, eax, 3
	add	ecx, DWORD PTR _up$[ebp]
	push	ecx
	mov	edx, DWORD PTR _k$[ebp]
	push	edx
	call	__MULTIPLYX_DIGIT_UNIT
	add	esp, 16					; 00000010H
	mov	DWORD PTR _k$[ebp], eax

; 297  :         k = _MULTIPLYX_DIGIT_UNIT(k, &up[4], v, &wp[4]);

	mov	eax, 4
	shl	eax, 2
	add	eax, DWORD PTR _wp$[ebp]
	push	eax
	mov	ecx, DWORD PTR _v$[ebp]
	push	ecx
	mov	edx, 4
	shl	edx, 2
	add	edx, DWORD PTR _up$[ebp]
	push	edx
	mov	eax, DWORD PTR _k$[ebp]
	push	eax
	call	__MULTIPLYX_DIGIT_UNIT
	add	esp, 16					; 00000010H
	mov	DWORD PTR _k$[ebp], eax

; 298  :         k = _MULTIPLYX_DIGIT_UNIT(k, &up[5], v, &wp[5]);

	mov	ecx, 4
	imul	edx, ecx, 5
	add	edx, DWORD PTR _wp$[ebp]
	push	edx
	mov	eax, DWORD PTR _v$[ebp]
	push	eax
	mov	ecx, 4
	imul	edx, ecx, 5
	add	edx, DWORD PTR _up$[ebp]
	push	edx
	mov	eax, DWORD PTR _k$[ebp]
	push	eax
	call	__MULTIPLYX_DIGIT_UNIT
	add	esp, 16					; 00000010H
	mov	DWORD PTR _k$[ebp], eax

; 299  :         k = _MULTIPLYX_DIGIT_UNIT(k, &up[6], v, &wp[6]);

	mov	ecx, 4
	imul	edx, ecx, 6
	add	edx, DWORD PTR _wp$[ebp]
	push	edx
	mov	eax, DWORD PTR _v$[ebp]
	push	eax
	mov	ecx, 4
	imul	edx, ecx, 6
	add	edx, DWORD PTR _up$[ebp]
	push	edx
	mov	eax, DWORD PTR _k$[ebp]
	push	eax
	call	__MULTIPLYX_DIGIT_UNIT
	add	esp, 16					; 00000010H
	mov	DWORD PTR _k$[ebp], eax

; 300  :         k = _MULTIPLYX_DIGIT_UNIT(k, &up[7], v, &wp[7]);

	mov	ecx, 4
	imul	edx, ecx, 7
	add	edx, DWORD PTR _wp$[ebp]
	push	edx
	mov	eax, DWORD PTR _v$[ebp]
	push	eax
	mov	ecx, 4
	imul	edx, ecx, 7
	add	edx, DWORD PTR _up$[ebp]
	push	edx
	mov	eax, DWORD PTR _k$[ebp]
	push	eax
	call	__MULTIPLYX_DIGIT_UNIT
	add	esp, 16					; 00000010H
	mov	DWORD PTR _k$[ebp], eax

; 301  :         up += 8;

	mov	ecx, DWORD PTR _up$[ebp]
	add	ecx, 32					; 00000020H
	mov	DWORD PTR _up$[ebp], ecx

; 302  :         wp += 8;

	mov	edx, DWORD PTR _wp$[ebp]
	add	edx, 32					; 00000020H
	mov	DWORD PTR _wp$[ebp], edx

; 303  : #ifdef ENABLED_PERFORMANCE_COUNTER
; 304  :         if (sizeof(k) == sizeof(_UINT32_T))

	mov	eax, 1
	test	eax, eax
	je	SHORT $LN10@Multiply_W

; 305  :             AddToMULTI32Counter(8);

	push	8
	call	_AddToMULTI32Counter
	add	esp, 4
	jmp	SHORT $LN9@Multiply_W
$LN10@Multiply_W:

; 306  :         else
; 307  :             AddToMULTI64Counter(8);

	push	8
	call	_AddToMULTI64Counter
	add	esp, 4
$LN9@Multiply_W:

; 308  : #endif
; 309  :     }
; 310  : 
; 311  :     if (u_count & 0x4)

	mov	ecx, DWORD PTR _u_count$[ebp]
	and	ecx, 4
	je	$LN12@Multiply_W

; 312  :     {
; 313  :         k = _MULTIPLYX_DIGIT_UNIT(k, &up[0], v, &wp[0]);

	mov	edx, 4
	imul	eax, edx, 0
	add	eax, DWORD PTR _wp$[ebp]
	push	eax
	mov	ecx, DWORD PTR _v$[ebp]
	push	ecx
	mov	edx, 4
	imul	eax, edx, 0
	add	eax, DWORD PTR _up$[ebp]
	push	eax
	mov	ecx, DWORD PTR _k$[ebp]
	push	ecx
	call	__MULTIPLYX_DIGIT_UNIT
	add	esp, 16					; 00000010H
	mov	DWORD PTR _k$[ebp], eax

; 314  :         k = _MULTIPLYX_DIGIT_UNIT(k, &up[1], v, &wp[1]);

	mov	edx, 4
	shl	edx, 0
	add	edx, DWORD PTR _wp$[ebp]
	push	edx
	mov	eax, DWORD PTR _v$[ebp]
	push	eax
	mov	ecx, 4
	shl	ecx, 0
	add	ecx, DWORD PTR _up$[ebp]
	push	ecx
	mov	edx, DWORD PTR _k$[ebp]
	push	edx
	call	__MULTIPLYX_DIGIT_UNIT
	add	esp, 16					; 00000010H
	mov	DWORD PTR _k$[ebp], eax

; 315  :         k = _MULTIPLYX_DIGIT_UNIT(k, &up[2], v, &wp[2]);

	mov	eax, 4
	shl	eax, 1
	add	eax, DWORD PTR _wp$[ebp]
	push	eax
	mov	ecx, DWORD PTR _v$[ebp]
	push	ecx
	mov	edx, 4
	shl	edx, 1
	add	edx, DWORD PTR _up$[ebp]
	push	edx
	mov	eax, DWORD PTR _k$[ebp]
	push	eax
	call	__MULTIPLYX_DIGIT_UNIT
	add	esp, 16					; 00000010H
	mov	DWORD PTR _k$[ebp], eax

; 316  :         k = _MULTIPLYX_DIGIT_UNIT(k, &up[3], v, &wp[3]);

	mov	ecx, 4
	imul	edx, ecx, 3
	add	edx, DWORD PTR _wp$[ebp]
	push	edx
	mov	eax, DWORD PTR _v$[ebp]
	push	eax
	mov	ecx, 4
	imul	edx, ecx, 3
	add	edx, DWORD PTR _up$[ebp]
	push	edx
	mov	eax, DWORD PTR _k$[ebp]
	push	eax
	call	__MULTIPLYX_DIGIT_UNIT
	add	esp, 16					; 00000010H
	mov	DWORD PTR _k$[ebp], eax

; 317  :         up += 4;

	mov	ecx, DWORD PTR _up$[ebp]
	add	ecx, 16					; 00000010H
	mov	DWORD PTR _up$[ebp], ecx

; 318  :         wp += 4;

	mov	edx, DWORD PTR _wp$[ebp]
	add	edx, 16					; 00000010H
	mov	DWORD PTR _wp$[ebp], edx

; 319  : #ifdef ENABLED_PERFORMANCE_COUNTER
; 320  :         if (sizeof(k) == sizeof(_UINT32_T))

	mov	eax, 1
	test	eax, eax
	je	SHORT $LN13@Multiply_W

; 321  :             AddToMULTI32Counter(4);

	push	4
	call	_AddToMULTI32Counter
	add	esp, 4
	jmp	SHORT $LN12@Multiply_W
$LN13@Multiply_W:

; 322  :         else
; 323  :             AddToMULTI64Counter(4);

	push	4
	call	_AddToMULTI64Counter
	add	esp, 4
$LN12@Multiply_W:

; 324  : #endif
; 325  :     }
; 326  : 
; 327  :     if (u_count & 0x2)

	mov	ecx, DWORD PTR _u_count$[ebp]
	and	ecx, 2
	je	$LN15@Multiply_W

; 328  :     {
; 329  :         k = _MULTIPLYX_DIGIT_UNIT(k, &up[0], v, &wp[0]);

	mov	edx, 4
	imul	eax, edx, 0
	add	eax, DWORD PTR _wp$[ebp]
	push	eax
	mov	ecx, DWORD PTR _v$[ebp]
	push	ecx
	mov	edx, 4
	imul	eax, edx, 0
	add	eax, DWORD PTR _up$[ebp]
	push	eax
	mov	ecx, DWORD PTR _k$[ebp]
	push	ecx
	call	__MULTIPLYX_DIGIT_UNIT
	add	esp, 16					; 00000010H
	mov	DWORD PTR _k$[ebp], eax

; 330  :         k = _MULTIPLYX_DIGIT_UNIT(k, &up[1], v, &wp[1]);

	mov	edx, 4
	shl	edx, 0
	add	edx, DWORD PTR _wp$[ebp]
	push	edx
	mov	eax, DWORD PTR _v$[ebp]
	push	eax
	mov	ecx, 4
	shl	ecx, 0
	add	ecx, DWORD PTR _up$[ebp]
	push	ecx
	mov	edx, DWORD PTR _k$[ebp]
	push	edx
	call	__MULTIPLYX_DIGIT_UNIT
	add	esp, 16					; 00000010H
	mov	DWORD PTR _k$[ebp], eax

; 331  :         up += 2;

	mov	eax, DWORD PTR _up$[ebp]
	add	eax, 8
	mov	DWORD PTR _up$[ebp], eax

; 332  :         wp += 2;

	mov	ecx, DWORD PTR _wp$[ebp]
	add	ecx, 8
	mov	DWORD PTR _wp$[ebp], ecx

; 333  : #ifdef ENABLED_PERFORMANCE_COUNTER
; 334  :         if (sizeof(k) == sizeof(_UINT32_T))

	mov	edx, 1
	test	edx, edx
	je	SHORT $LN16@Multiply_W

; 335  :             AddToMULTI32Counter(2);

	push	2
	call	_AddToMULTI32Counter
	add	esp, 4
	jmp	SHORT $LN15@Multiply_W
$LN16@Multiply_W:

; 336  :         else
; 337  :             AddToMULTI64Counter(2);

	push	2
	call	_AddToMULTI64Counter
	add	esp, 4
$LN15@Multiply_W:

; 338  : #endif
; 339  :     }
; 340  : 
; 341  :     if (u_count & 0x1)

	mov	eax, DWORD PTR _u_count$[ebp]
	and	eax, 1
	je	SHORT $LN18@Multiply_W

; 342  :     {
; 343  :         k = _MULTIPLYX_DIGIT_UNIT(k, &up[0], v, &wp[0]);

	mov	ecx, 4
	imul	edx, ecx, 0
	add	edx, DWORD PTR _wp$[ebp]
	push	edx
	mov	eax, DWORD PTR _v$[ebp]
	push	eax
	mov	ecx, 4
	imul	edx, ecx, 0
	add	edx, DWORD PTR _up$[ebp]
	push	edx
	mov	eax, DWORD PTR _k$[ebp]
	push	eax
	call	__MULTIPLYX_DIGIT_UNIT
	add	esp, 16					; 00000010H
	mov	DWORD PTR _k$[ebp], eax

; 344  :         up += 1;

	mov	ecx, DWORD PTR _up$[ebp]
	add	ecx, 4
	mov	DWORD PTR _up$[ebp], ecx

; 345  :         wp += 1;

	mov	edx, DWORD PTR _wp$[ebp]
	add	edx, 4
	mov	DWORD PTR _wp$[ebp], edx

; 346  : #ifdef ENABLED_PERFORMANCE_COUNTER
; 347  :         if (sizeof(k) == sizeof(_UINT32_T))

	mov	eax, 1
	test	eax, eax
	je	SHORT $LN19@Multiply_W

; 348  :             IncrementMULTI32Counter();

	call	_IncrementMULTI32Counter
	jmp	SHORT $LN18@Multiply_W
$LN19@Multiply_W:

; 349  :         else
; 350  :             IncrementMULTI64Counter();

	call	_IncrementMULTI64Counter
$LN18@Multiply_W:

; 351  : #endif
; 352  :     }
; 353  : 
; 354  :     if (k != 0)

	cmp	DWORD PTR _k$[ebp], 0
	je	SHORT $LN21@Multiply_W

; 355  :         *wp = k;

	mov	ecx, DWORD PTR _wp$[ebp]
	mov	edx, DWORD PTR _k$[ebp]
	mov	DWORD PTR [ecx], edx
$LN21@Multiply_W:

; 356  : 
; 357  :     return (PMC_STATUS_OK);

	xor	eax, eax

; 358  : }

	add	esp, 8
	cmp	ebp, esp
	call	__RTC_CheckEsp
	mov	esp, ebp
	pop	ebp
	ret	0
_Multiply_WORD_using_MULX_ADCX ENDP
_TEXT	ENDS
; Function compile flags: /Odtp /RTCsu
; File z:\sources\lunor\repos\rougemeilland\palmtree.math.core.implements\palmtree.math.core.implements\pmc_multiply.c
_TEXT	SEGMENT
_count$ = -8						; size = 4
_k$ = -4						; size = 4
_up$ = 8						; size = 4
_u_count$ = 12						; size = 4
_v$ = 16						; size = 4
_wp$ = 20						; size = 4
_Multiply_WORD_using_MUL_ADC PROC

; 67   : {

	push	ebp
	mov	ebp, esp
	sub	esp, 8
	mov	DWORD PTR [ebp-8], -858993460		; ccccccccH
	mov	DWORD PTR [ebp-4], -858993460		; ccccccccH
	mov	ecx, OFFSET __C53FCF4E_pmc_multiply@c
	call	@__CheckForDebuggerJustMyCode@4

; 68   :     __UNIT_TYPE k = 0;

	mov	DWORD PTR _k$[ebp], 0

; 69   :     __UNIT_TYPE count = u_count >> 5;

	mov	eax, DWORD PTR _u_count$[ebp]
	shr	eax, 5
	mov	DWORD PTR _count$[ebp], eax
$LN2@Multiply_W:

; 70   : 
; 71   :     while (count != 0)

	cmp	DWORD PTR _count$[ebp], 0
	je	$LN3@Multiply_W

; 72   :     {
; 73   :         k = _MULTIPLY_DIGIT_UNIT(k, &up[0], v, &wp[0]);

	mov	ecx, 4
	imul	edx, ecx, 0
	add	edx, DWORD PTR _wp$[ebp]
	push	edx
	mov	eax, DWORD PTR _v$[ebp]
	push	eax
	mov	ecx, 4
	imul	edx, ecx, 0
	add	edx, DWORD PTR _up$[ebp]
	push	edx
	mov	eax, DWORD PTR _k$[ebp]
	push	eax
	call	__MULTIPLY_DIGIT_UNIT
	add	esp, 16					; 00000010H
	mov	DWORD PTR _k$[ebp], eax

; 74   :         k = _MULTIPLY_DIGIT_UNIT(k, &up[1], v, &wp[1]);

	mov	ecx, 4
	shl	ecx, 0
	add	ecx, DWORD PTR _wp$[ebp]
	push	ecx
	mov	edx, DWORD PTR _v$[ebp]
	push	edx
	mov	eax, 4
	shl	eax, 0
	add	eax, DWORD PTR _up$[ebp]
	push	eax
	mov	ecx, DWORD PTR _k$[ebp]
	push	ecx
	call	__MULTIPLY_DIGIT_UNIT
	add	esp, 16					; 00000010H
	mov	DWORD PTR _k$[ebp], eax

; 75   :         k = _MULTIPLY_DIGIT_UNIT(k, &up[2], v, &wp[2]);

	mov	edx, 4
	shl	edx, 1
	add	edx, DWORD PTR _wp$[ebp]
	push	edx
	mov	eax, DWORD PTR _v$[ebp]
	push	eax
	mov	ecx, 4
	shl	ecx, 1
	add	ecx, DWORD PTR _up$[ebp]
	push	ecx
	mov	edx, DWORD PTR _k$[ebp]
	push	edx
	call	__MULTIPLY_DIGIT_UNIT
	add	esp, 16					; 00000010H
	mov	DWORD PTR _k$[ebp], eax

; 76   :         k = _MULTIPLY_DIGIT_UNIT(k, &up[3], v, &wp[3]);

	mov	eax, 4
	imul	ecx, eax, 3
	add	ecx, DWORD PTR _wp$[ebp]
	push	ecx
	mov	edx, DWORD PTR _v$[ebp]
	push	edx
	mov	eax, 4
	imul	ecx, eax, 3
	add	ecx, DWORD PTR _up$[ebp]
	push	ecx
	mov	edx, DWORD PTR _k$[ebp]
	push	edx
	call	__MULTIPLY_DIGIT_UNIT
	add	esp, 16					; 00000010H
	mov	DWORD PTR _k$[ebp], eax

; 77   :         k = _MULTIPLY_DIGIT_UNIT(k, &up[4], v, &wp[4]);

	mov	eax, 4
	shl	eax, 2
	add	eax, DWORD PTR _wp$[ebp]
	push	eax
	mov	ecx, DWORD PTR _v$[ebp]
	push	ecx
	mov	edx, 4
	shl	edx, 2
	add	edx, DWORD PTR _up$[ebp]
	push	edx
	mov	eax, DWORD PTR _k$[ebp]
	push	eax
	call	__MULTIPLY_DIGIT_UNIT
	add	esp, 16					; 00000010H
	mov	DWORD PTR _k$[ebp], eax

; 78   :         k = _MULTIPLY_DIGIT_UNIT(k, &up[5], v, &wp[5]);

	mov	ecx, 4
	imul	edx, ecx, 5
	add	edx, DWORD PTR _wp$[ebp]
	push	edx
	mov	eax, DWORD PTR _v$[ebp]
	push	eax
	mov	ecx, 4
	imul	edx, ecx, 5
	add	edx, DWORD PTR _up$[ebp]
	push	edx
	mov	eax, DWORD PTR _k$[ebp]
	push	eax
	call	__MULTIPLY_DIGIT_UNIT
	add	esp, 16					; 00000010H
	mov	DWORD PTR _k$[ebp], eax

; 79   :         k = _MULTIPLY_DIGIT_UNIT(k, &up[6], v, &wp[6]);

	mov	ecx, 4
	imul	edx, ecx, 6
	add	edx, DWORD PTR _wp$[ebp]
	push	edx
	mov	eax, DWORD PTR _v$[ebp]
	push	eax
	mov	ecx, 4
	imul	edx, ecx, 6
	add	edx, DWORD PTR _up$[ebp]
	push	edx
	mov	eax, DWORD PTR _k$[ebp]
	push	eax
	call	__MULTIPLY_DIGIT_UNIT
	add	esp, 16					; 00000010H
	mov	DWORD PTR _k$[ebp], eax

; 80   :         k = _MULTIPLY_DIGIT_UNIT(k, &up[7], v, &wp[7]);

	mov	ecx, 4
	imul	edx, ecx, 7
	add	edx, DWORD PTR _wp$[ebp]
	push	edx
	mov	eax, DWORD PTR _v$[ebp]
	push	eax
	mov	ecx, 4
	imul	edx, ecx, 7
	add	edx, DWORD PTR _up$[ebp]
	push	edx
	mov	eax, DWORD PTR _k$[ebp]
	push	eax
	call	__MULTIPLY_DIGIT_UNIT
	add	esp, 16					; 00000010H
	mov	DWORD PTR _k$[ebp], eax

; 81   :         k = _MULTIPLY_DIGIT_UNIT(k, &up[8], v, &wp[8]);

	mov	ecx, 4
	shl	ecx, 3
	add	ecx, DWORD PTR _wp$[ebp]
	push	ecx
	mov	edx, DWORD PTR _v$[ebp]
	push	edx
	mov	eax, 4
	shl	eax, 3
	add	eax, DWORD PTR _up$[ebp]
	push	eax
	mov	ecx, DWORD PTR _k$[ebp]
	push	ecx
	call	__MULTIPLY_DIGIT_UNIT
	add	esp, 16					; 00000010H
	mov	DWORD PTR _k$[ebp], eax

; 82   :         k = _MULTIPLY_DIGIT_UNIT(k, &up[9], v, &wp[9]);

	mov	edx, 4
	imul	eax, edx, 9
	add	eax, DWORD PTR _wp$[ebp]
	push	eax
	mov	ecx, DWORD PTR _v$[ebp]
	push	ecx
	mov	edx, 4
	imul	eax, edx, 9
	add	eax, DWORD PTR _up$[ebp]
	push	eax
	mov	ecx, DWORD PTR _k$[ebp]
	push	ecx
	call	__MULTIPLY_DIGIT_UNIT
	add	esp, 16					; 00000010H
	mov	DWORD PTR _k$[ebp], eax

; 83   :         k = _MULTIPLY_DIGIT_UNIT(k, &up[10], v, &wp[10]);

	mov	edx, 4
	imul	eax, edx, 10
	add	eax, DWORD PTR _wp$[ebp]
	push	eax
	mov	ecx, DWORD PTR _v$[ebp]
	push	ecx
	mov	edx, 4
	imul	eax, edx, 10
	add	eax, DWORD PTR _up$[ebp]
	push	eax
	mov	ecx, DWORD PTR _k$[ebp]
	push	ecx
	call	__MULTIPLY_DIGIT_UNIT
	add	esp, 16					; 00000010H
	mov	DWORD PTR _k$[ebp], eax

; 84   :         k = _MULTIPLY_DIGIT_UNIT(k, &up[11], v, &wp[11]);

	mov	edx, 4
	imul	eax, edx, 11
	add	eax, DWORD PTR _wp$[ebp]
	push	eax
	mov	ecx, DWORD PTR _v$[ebp]
	push	ecx
	mov	edx, 4
	imul	eax, edx, 11
	add	eax, DWORD PTR _up$[ebp]
	push	eax
	mov	ecx, DWORD PTR _k$[ebp]
	push	ecx
	call	__MULTIPLY_DIGIT_UNIT
	add	esp, 16					; 00000010H
	mov	DWORD PTR _k$[ebp], eax

; 85   :         k = _MULTIPLY_DIGIT_UNIT(k, &up[12], v, &wp[12]);

	mov	edx, 4
	imul	eax, edx, 12
	add	eax, DWORD PTR _wp$[ebp]
	push	eax
	mov	ecx, DWORD PTR _v$[ebp]
	push	ecx
	mov	edx, 4
	imul	eax, edx, 12
	add	eax, DWORD PTR _up$[ebp]
	push	eax
	mov	ecx, DWORD PTR _k$[ebp]
	push	ecx
	call	__MULTIPLY_DIGIT_UNIT
	add	esp, 16					; 00000010H
	mov	DWORD PTR _k$[ebp], eax

; 86   :         k = _MULTIPLY_DIGIT_UNIT(k, &up[13], v, &wp[13]);

	mov	edx, 4
	imul	eax, edx, 13
	add	eax, DWORD PTR _wp$[ebp]
	push	eax
	mov	ecx, DWORD PTR _v$[ebp]
	push	ecx
	mov	edx, 4
	imul	eax, edx, 13
	add	eax, DWORD PTR _up$[ebp]
	push	eax
	mov	ecx, DWORD PTR _k$[ebp]
	push	ecx
	call	__MULTIPLY_DIGIT_UNIT
	add	esp, 16					; 00000010H
	mov	DWORD PTR _k$[ebp], eax

; 87   :         k = _MULTIPLY_DIGIT_UNIT(k, &up[14], v, &wp[14]);

	mov	edx, 4
	imul	eax, edx, 14
	add	eax, DWORD PTR _wp$[ebp]
	push	eax
	mov	ecx, DWORD PTR _v$[ebp]
	push	ecx
	mov	edx, 4
	imul	eax, edx, 14
	add	eax, DWORD PTR _up$[ebp]
	push	eax
	mov	ecx, DWORD PTR _k$[ebp]
	push	ecx
	call	__MULTIPLY_DIGIT_UNIT
	add	esp, 16					; 00000010H
	mov	DWORD PTR _k$[ebp], eax

; 88   :         k = _MULTIPLY_DIGIT_UNIT(k, &up[15], v, &wp[15]);

	mov	edx, 4
	imul	eax, edx, 15
	add	eax, DWORD PTR _wp$[ebp]
	push	eax
	mov	ecx, DWORD PTR _v$[ebp]
	push	ecx
	mov	edx, 4
	imul	eax, edx, 15
	add	eax, DWORD PTR _up$[ebp]
	push	eax
	mov	ecx, DWORD PTR _k$[ebp]
	push	ecx
	call	__MULTIPLY_DIGIT_UNIT
	add	esp, 16					; 00000010H
	mov	DWORD PTR _k$[ebp], eax

; 89   :         k = _MULTIPLY_DIGIT_UNIT(k, &up[16], v, &wp[16]);

	mov	edx, 4
	shl	edx, 4
	add	edx, DWORD PTR _wp$[ebp]
	push	edx
	mov	eax, DWORD PTR _v$[ebp]
	push	eax
	mov	ecx, 4
	shl	ecx, 4
	add	ecx, DWORD PTR _up$[ebp]
	push	ecx
	mov	edx, DWORD PTR _k$[ebp]
	push	edx
	call	__MULTIPLY_DIGIT_UNIT
	add	esp, 16					; 00000010H
	mov	DWORD PTR _k$[ebp], eax

; 90   :         k = _MULTIPLY_DIGIT_UNIT(k, &up[17], v, &wp[17]);

	mov	eax, 4
	imul	ecx, eax, 17
	add	ecx, DWORD PTR _wp$[ebp]
	push	ecx
	mov	edx, DWORD PTR _v$[ebp]
	push	edx
	mov	eax, 4
	imul	ecx, eax, 17
	add	ecx, DWORD PTR _up$[ebp]
	push	ecx
	mov	edx, DWORD PTR _k$[ebp]
	push	edx
	call	__MULTIPLY_DIGIT_UNIT
	add	esp, 16					; 00000010H
	mov	DWORD PTR _k$[ebp], eax

; 91   :         k = _MULTIPLY_DIGIT_UNIT(k, &up[18], v, &wp[18]);

	mov	eax, 4
	imul	ecx, eax, 18
	add	ecx, DWORD PTR _wp$[ebp]
	push	ecx
	mov	edx, DWORD PTR _v$[ebp]
	push	edx
	mov	eax, 4
	imul	ecx, eax, 18
	add	ecx, DWORD PTR _up$[ebp]
	push	ecx
	mov	edx, DWORD PTR _k$[ebp]
	push	edx
	call	__MULTIPLY_DIGIT_UNIT
	add	esp, 16					; 00000010H
	mov	DWORD PTR _k$[ebp], eax

; 92   :         k = _MULTIPLY_DIGIT_UNIT(k, &up[19], v, &wp[19]);

	mov	eax, 4
	imul	ecx, eax, 19
	add	ecx, DWORD PTR _wp$[ebp]
	push	ecx
	mov	edx, DWORD PTR _v$[ebp]
	push	edx
	mov	eax, 4
	imul	ecx, eax, 19
	add	ecx, DWORD PTR _up$[ebp]
	push	ecx
	mov	edx, DWORD PTR _k$[ebp]
	push	edx
	call	__MULTIPLY_DIGIT_UNIT
	add	esp, 16					; 00000010H
	mov	DWORD PTR _k$[ebp], eax

; 93   :         k = _MULTIPLY_DIGIT_UNIT(k, &up[20], v, &wp[20]);

	mov	eax, 4
	imul	ecx, eax, 20
	add	ecx, DWORD PTR _wp$[ebp]
	push	ecx
	mov	edx, DWORD PTR _v$[ebp]
	push	edx
	mov	eax, 4
	imul	ecx, eax, 20
	add	ecx, DWORD PTR _up$[ebp]
	push	ecx
	mov	edx, DWORD PTR _k$[ebp]
	push	edx
	call	__MULTIPLY_DIGIT_UNIT
	add	esp, 16					; 00000010H
	mov	DWORD PTR _k$[ebp], eax

; 94   :         k = _MULTIPLY_DIGIT_UNIT(k, &up[21], v, &wp[21]);

	mov	eax, 4
	imul	ecx, eax, 21
	add	ecx, DWORD PTR _wp$[ebp]
	push	ecx
	mov	edx, DWORD PTR _v$[ebp]
	push	edx
	mov	eax, 4
	imul	ecx, eax, 21
	add	ecx, DWORD PTR _up$[ebp]
	push	ecx
	mov	edx, DWORD PTR _k$[ebp]
	push	edx
	call	__MULTIPLY_DIGIT_UNIT
	add	esp, 16					; 00000010H
	mov	DWORD PTR _k$[ebp], eax

; 95   :         k = _MULTIPLY_DIGIT_UNIT(k, &up[22], v, &wp[22]);

	mov	eax, 4
	imul	ecx, eax, 22
	add	ecx, DWORD PTR _wp$[ebp]
	push	ecx
	mov	edx, DWORD PTR _v$[ebp]
	push	edx
	mov	eax, 4
	imul	ecx, eax, 22
	add	ecx, DWORD PTR _up$[ebp]
	push	ecx
	mov	edx, DWORD PTR _k$[ebp]
	push	edx
	call	__MULTIPLY_DIGIT_UNIT
	add	esp, 16					; 00000010H
	mov	DWORD PTR _k$[ebp], eax

; 96   :         k = _MULTIPLY_DIGIT_UNIT(k, &up[23], v, &wp[23]);

	mov	eax, 4
	imul	ecx, eax, 23
	add	ecx, DWORD PTR _wp$[ebp]
	push	ecx
	mov	edx, DWORD PTR _v$[ebp]
	push	edx
	mov	eax, 4
	imul	ecx, eax, 23
	add	ecx, DWORD PTR _up$[ebp]
	push	ecx
	mov	edx, DWORD PTR _k$[ebp]
	push	edx
	call	__MULTIPLY_DIGIT_UNIT
	add	esp, 16					; 00000010H
	mov	DWORD PTR _k$[ebp], eax

; 97   :         k = _MULTIPLY_DIGIT_UNIT(k, &up[24], v, &wp[24]);

	mov	eax, 4
	imul	ecx, eax, 24
	add	ecx, DWORD PTR _wp$[ebp]
	push	ecx
	mov	edx, DWORD PTR _v$[ebp]
	push	edx
	mov	eax, 4
	imul	ecx, eax, 24
	add	ecx, DWORD PTR _up$[ebp]
	push	ecx
	mov	edx, DWORD PTR _k$[ebp]
	push	edx
	call	__MULTIPLY_DIGIT_UNIT
	add	esp, 16					; 00000010H
	mov	DWORD PTR _k$[ebp], eax

; 98   :         k = _MULTIPLY_DIGIT_UNIT(k, &up[25], v, &wp[25]);

	mov	eax, 4
	imul	ecx, eax, 25
	add	ecx, DWORD PTR _wp$[ebp]
	push	ecx
	mov	edx, DWORD PTR _v$[ebp]
	push	edx
	mov	eax, 4
	imul	ecx, eax, 25
	add	ecx, DWORD PTR _up$[ebp]
	push	ecx
	mov	edx, DWORD PTR _k$[ebp]
	push	edx
	call	__MULTIPLY_DIGIT_UNIT
	add	esp, 16					; 00000010H
	mov	DWORD PTR _k$[ebp], eax

; 99   :         k = _MULTIPLY_DIGIT_UNIT(k, &up[26], v, &wp[26]);

	mov	eax, 4
	imul	ecx, eax, 26
	add	ecx, DWORD PTR _wp$[ebp]
	push	ecx
	mov	edx, DWORD PTR _v$[ebp]
	push	edx
	mov	eax, 4
	imul	ecx, eax, 26
	add	ecx, DWORD PTR _up$[ebp]
	push	ecx
	mov	edx, DWORD PTR _k$[ebp]
	push	edx
	call	__MULTIPLY_DIGIT_UNIT
	add	esp, 16					; 00000010H
	mov	DWORD PTR _k$[ebp], eax

; 100  :         k = _MULTIPLY_DIGIT_UNIT(k, &up[27], v, &wp[27]);

	mov	eax, 4
	imul	ecx, eax, 27
	add	ecx, DWORD PTR _wp$[ebp]
	push	ecx
	mov	edx, DWORD PTR _v$[ebp]
	push	edx
	mov	eax, 4
	imul	ecx, eax, 27
	add	ecx, DWORD PTR _up$[ebp]
	push	ecx
	mov	edx, DWORD PTR _k$[ebp]
	push	edx
	call	__MULTIPLY_DIGIT_UNIT
	add	esp, 16					; 00000010H
	mov	DWORD PTR _k$[ebp], eax

; 101  :         k = _MULTIPLY_DIGIT_UNIT(k, &up[28], v, &wp[28]);

	mov	eax, 4
	imul	ecx, eax, 28
	add	ecx, DWORD PTR _wp$[ebp]
	push	ecx
	mov	edx, DWORD PTR _v$[ebp]
	push	edx
	mov	eax, 4
	imul	ecx, eax, 28
	add	ecx, DWORD PTR _up$[ebp]
	push	ecx
	mov	edx, DWORD PTR _k$[ebp]
	push	edx
	call	__MULTIPLY_DIGIT_UNIT
	add	esp, 16					; 00000010H
	mov	DWORD PTR _k$[ebp], eax

; 102  :         k = _MULTIPLY_DIGIT_UNIT(k, &up[29], v, &wp[29]);

	mov	eax, 4
	imul	ecx, eax, 29
	add	ecx, DWORD PTR _wp$[ebp]
	push	ecx
	mov	edx, DWORD PTR _v$[ebp]
	push	edx
	mov	eax, 4
	imul	ecx, eax, 29
	add	ecx, DWORD PTR _up$[ebp]
	push	ecx
	mov	edx, DWORD PTR _k$[ebp]
	push	edx
	call	__MULTIPLY_DIGIT_UNIT
	add	esp, 16					; 00000010H
	mov	DWORD PTR _k$[ebp], eax

; 103  :         k = _MULTIPLY_DIGIT_UNIT(k, &up[30], v, &wp[30]);

	mov	eax, 4
	imul	ecx, eax, 30
	add	ecx, DWORD PTR _wp$[ebp]
	push	ecx
	mov	edx, DWORD PTR _v$[ebp]
	push	edx
	mov	eax, 4
	imul	ecx, eax, 30
	add	ecx, DWORD PTR _up$[ebp]
	push	ecx
	mov	edx, DWORD PTR _k$[ebp]
	push	edx
	call	__MULTIPLY_DIGIT_UNIT
	add	esp, 16					; 00000010H
	mov	DWORD PTR _k$[ebp], eax

; 104  :         k = _MULTIPLY_DIGIT_UNIT(k, &up[31], v, &wp[31]);

	mov	eax, 4
	imul	ecx, eax, 31
	add	ecx, DWORD PTR _wp$[ebp]
	push	ecx
	mov	edx, DWORD PTR _v$[ebp]
	push	edx
	mov	eax, 4
	imul	ecx, eax, 31
	add	ecx, DWORD PTR _up$[ebp]
	push	ecx
	mov	edx, DWORD PTR _k$[ebp]
	push	edx
	call	__MULTIPLY_DIGIT_UNIT
	add	esp, 16					; 00000010H
	mov	DWORD PTR _k$[ebp], eax

; 105  :         up += 32;

	mov	eax, DWORD PTR _up$[ebp]
	add	eax, 128				; 00000080H
	mov	DWORD PTR _up$[ebp], eax

; 106  :         wp += 32;

	mov	ecx, DWORD PTR _wp$[ebp]
	add	ecx, 128				; 00000080H
	mov	DWORD PTR _wp$[ebp], ecx

; 107  :         --count;

	mov	edx, DWORD PTR _count$[ebp]
	sub	edx, 1
	mov	DWORD PTR _count$[ebp], edx

; 108  : #ifdef ENABLED_PERFORMANCE_COUNTER
; 109  :         if (sizeof(k) == sizeof(_UINT32_T))

	mov	eax, 1
	test	eax, eax
	je	SHORT $LN4@Multiply_W

; 110  :             AddToMULTI32Counter(32);

	push	32					; 00000020H
	call	_AddToMULTI32Counter
	add	esp, 4
	jmp	SHORT $LN5@Multiply_W
$LN4@Multiply_W:

; 111  :         else
; 112  :             AddToMULTI64Counter(32);

	push	32					; 00000020H
	call	_AddToMULTI64Counter
	add	esp, 4
$LN5@Multiply_W:

; 113  : #endif
; 114  :     }

	jmp	$LN2@Multiply_W
$LN3@Multiply_W:

; 115  : 
; 116  :     if (u_count & 0x10)

	mov	ecx, DWORD PTR _u_count$[ebp]
	and	ecx, 16					; 00000010H
	je	$LN6@Multiply_W

; 117  :     {
; 118  :         k = _MULTIPLY_DIGIT_UNIT(k, &up[0], v, &wp[0]);

	mov	edx, 4
	imul	eax, edx, 0
	add	eax, DWORD PTR _wp$[ebp]
	push	eax
	mov	ecx, DWORD PTR _v$[ebp]
	push	ecx
	mov	edx, 4
	imul	eax, edx, 0
	add	eax, DWORD PTR _up$[ebp]
	push	eax
	mov	ecx, DWORD PTR _k$[ebp]
	push	ecx
	call	__MULTIPLY_DIGIT_UNIT
	add	esp, 16					; 00000010H
	mov	DWORD PTR _k$[ebp], eax

; 119  :         k = _MULTIPLY_DIGIT_UNIT(k, &up[1], v, &wp[1]);

	mov	edx, 4
	shl	edx, 0
	add	edx, DWORD PTR _wp$[ebp]
	push	edx
	mov	eax, DWORD PTR _v$[ebp]
	push	eax
	mov	ecx, 4
	shl	ecx, 0
	add	ecx, DWORD PTR _up$[ebp]
	push	ecx
	mov	edx, DWORD PTR _k$[ebp]
	push	edx
	call	__MULTIPLY_DIGIT_UNIT
	add	esp, 16					; 00000010H
	mov	DWORD PTR _k$[ebp], eax

; 120  :         k = _MULTIPLY_DIGIT_UNIT(k, &up[2], v, &wp[2]);

	mov	eax, 4
	shl	eax, 1
	add	eax, DWORD PTR _wp$[ebp]
	push	eax
	mov	ecx, DWORD PTR _v$[ebp]
	push	ecx
	mov	edx, 4
	shl	edx, 1
	add	edx, DWORD PTR _up$[ebp]
	push	edx
	mov	eax, DWORD PTR _k$[ebp]
	push	eax
	call	__MULTIPLY_DIGIT_UNIT
	add	esp, 16					; 00000010H
	mov	DWORD PTR _k$[ebp], eax

; 121  :         k = _MULTIPLY_DIGIT_UNIT(k, &up[3], v, &wp[3]);

	mov	ecx, 4
	imul	edx, ecx, 3
	add	edx, DWORD PTR _wp$[ebp]
	push	edx
	mov	eax, DWORD PTR _v$[ebp]
	push	eax
	mov	ecx, 4
	imul	edx, ecx, 3
	add	edx, DWORD PTR _up$[ebp]
	push	edx
	mov	eax, DWORD PTR _k$[ebp]
	push	eax
	call	__MULTIPLY_DIGIT_UNIT
	add	esp, 16					; 00000010H
	mov	DWORD PTR _k$[ebp], eax

; 122  :         k = _MULTIPLY_DIGIT_UNIT(k, &up[4], v, &wp[4]);

	mov	ecx, 4
	shl	ecx, 2
	add	ecx, DWORD PTR _wp$[ebp]
	push	ecx
	mov	edx, DWORD PTR _v$[ebp]
	push	edx
	mov	eax, 4
	shl	eax, 2
	add	eax, DWORD PTR _up$[ebp]
	push	eax
	mov	ecx, DWORD PTR _k$[ebp]
	push	ecx
	call	__MULTIPLY_DIGIT_UNIT
	add	esp, 16					; 00000010H
	mov	DWORD PTR _k$[ebp], eax

; 123  :         k = _MULTIPLY_DIGIT_UNIT(k, &up[5], v, &wp[5]);

	mov	edx, 4
	imul	eax, edx, 5
	add	eax, DWORD PTR _wp$[ebp]
	push	eax
	mov	ecx, DWORD PTR _v$[ebp]
	push	ecx
	mov	edx, 4
	imul	eax, edx, 5
	add	eax, DWORD PTR _up$[ebp]
	push	eax
	mov	ecx, DWORD PTR _k$[ebp]
	push	ecx
	call	__MULTIPLY_DIGIT_UNIT
	add	esp, 16					; 00000010H
	mov	DWORD PTR _k$[ebp], eax

; 124  :         k = _MULTIPLY_DIGIT_UNIT(k, &up[6], v, &wp[6]);

	mov	edx, 4
	imul	eax, edx, 6
	add	eax, DWORD PTR _wp$[ebp]
	push	eax
	mov	ecx, DWORD PTR _v$[ebp]
	push	ecx
	mov	edx, 4
	imul	eax, edx, 6
	add	eax, DWORD PTR _up$[ebp]
	push	eax
	mov	ecx, DWORD PTR _k$[ebp]
	push	ecx
	call	__MULTIPLY_DIGIT_UNIT
	add	esp, 16					; 00000010H
	mov	DWORD PTR _k$[ebp], eax

; 125  :         k = _MULTIPLY_DIGIT_UNIT(k, &up[7], v, &wp[7]);

	mov	edx, 4
	imul	eax, edx, 7
	add	eax, DWORD PTR _wp$[ebp]
	push	eax
	mov	ecx, DWORD PTR _v$[ebp]
	push	ecx
	mov	edx, 4
	imul	eax, edx, 7
	add	eax, DWORD PTR _up$[ebp]
	push	eax
	mov	ecx, DWORD PTR _k$[ebp]
	push	ecx
	call	__MULTIPLY_DIGIT_UNIT
	add	esp, 16					; 00000010H
	mov	DWORD PTR _k$[ebp], eax

; 126  :         k = _MULTIPLY_DIGIT_UNIT(k, &up[8], v, &wp[8]);

	mov	edx, 4
	shl	edx, 3
	add	edx, DWORD PTR _wp$[ebp]
	push	edx
	mov	eax, DWORD PTR _v$[ebp]
	push	eax
	mov	ecx, 4
	shl	ecx, 3
	add	ecx, DWORD PTR _up$[ebp]
	push	ecx
	mov	edx, DWORD PTR _k$[ebp]
	push	edx
	call	__MULTIPLY_DIGIT_UNIT
	add	esp, 16					; 00000010H
	mov	DWORD PTR _k$[ebp], eax

; 127  :         k = _MULTIPLY_DIGIT_UNIT(k, &up[9], v, &wp[9]);

	mov	eax, 4
	imul	ecx, eax, 9
	add	ecx, DWORD PTR _wp$[ebp]
	push	ecx
	mov	edx, DWORD PTR _v$[ebp]
	push	edx
	mov	eax, 4
	imul	ecx, eax, 9
	add	ecx, DWORD PTR _up$[ebp]
	push	ecx
	mov	edx, DWORD PTR _k$[ebp]
	push	edx
	call	__MULTIPLY_DIGIT_UNIT
	add	esp, 16					; 00000010H
	mov	DWORD PTR _k$[ebp], eax

; 128  :         k = _MULTIPLY_DIGIT_UNIT(k, &up[10], v, &wp[10]);

	mov	eax, 4
	imul	ecx, eax, 10
	add	ecx, DWORD PTR _wp$[ebp]
	push	ecx
	mov	edx, DWORD PTR _v$[ebp]
	push	edx
	mov	eax, 4
	imul	ecx, eax, 10
	add	ecx, DWORD PTR _up$[ebp]
	push	ecx
	mov	edx, DWORD PTR _k$[ebp]
	push	edx
	call	__MULTIPLY_DIGIT_UNIT
	add	esp, 16					; 00000010H
	mov	DWORD PTR _k$[ebp], eax

; 129  :         k = _MULTIPLY_DIGIT_UNIT(k, &up[11], v, &wp[11]);

	mov	eax, 4
	imul	ecx, eax, 11
	add	ecx, DWORD PTR _wp$[ebp]
	push	ecx
	mov	edx, DWORD PTR _v$[ebp]
	push	edx
	mov	eax, 4
	imul	ecx, eax, 11
	add	ecx, DWORD PTR _up$[ebp]
	push	ecx
	mov	edx, DWORD PTR _k$[ebp]
	push	edx
	call	__MULTIPLY_DIGIT_UNIT
	add	esp, 16					; 00000010H
	mov	DWORD PTR _k$[ebp], eax

; 130  :         k = _MULTIPLY_DIGIT_UNIT(k, &up[12], v, &wp[12]);

	mov	eax, 4
	imul	ecx, eax, 12
	add	ecx, DWORD PTR _wp$[ebp]
	push	ecx
	mov	edx, DWORD PTR _v$[ebp]
	push	edx
	mov	eax, 4
	imul	ecx, eax, 12
	add	ecx, DWORD PTR _up$[ebp]
	push	ecx
	mov	edx, DWORD PTR _k$[ebp]
	push	edx
	call	__MULTIPLY_DIGIT_UNIT
	add	esp, 16					; 00000010H
	mov	DWORD PTR _k$[ebp], eax

; 131  :         k = _MULTIPLY_DIGIT_UNIT(k, &up[13], v, &wp[13]);

	mov	eax, 4
	imul	ecx, eax, 13
	add	ecx, DWORD PTR _wp$[ebp]
	push	ecx
	mov	edx, DWORD PTR _v$[ebp]
	push	edx
	mov	eax, 4
	imul	ecx, eax, 13
	add	ecx, DWORD PTR _up$[ebp]
	push	ecx
	mov	edx, DWORD PTR _k$[ebp]
	push	edx
	call	__MULTIPLY_DIGIT_UNIT
	add	esp, 16					; 00000010H
	mov	DWORD PTR _k$[ebp], eax

; 132  :         k = _MULTIPLY_DIGIT_UNIT(k, &up[14], v, &wp[14]);

	mov	eax, 4
	imul	ecx, eax, 14
	add	ecx, DWORD PTR _wp$[ebp]
	push	ecx
	mov	edx, DWORD PTR _v$[ebp]
	push	edx
	mov	eax, 4
	imul	ecx, eax, 14
	add	ecx, DWORD PTR _up$[ebp]
	push	ecx
	mov	edx, DWORD PTR _k$[ebp]
	push	edx
	call	__MULTIPLY_DIGIT_UNIT
	add	esp, 16					; 00000010H
	mov	DWORD PTR _k$[ebp], eax

; 133  :         k = _MULTIPLY_DIGIT_UNIT(k, &up[15], v, &wp[15]);

	mov	eax, 4
	imul	ecx, eax, 15
	add	ecx, DWORD PTR _wp$[ebp]
	push	ecx
	mov	edx, DWORD PTR _v$[ebp]
	push	edx
	mov	eax, 4
	imul	ecx, eax, 15
	add	ecx, DWORD PTR _up$[ebp]
	push	ecx
	mov	edx, DWORD PTR _k$[ebp]
	push	edx
	call	__MULTIPLY_DIGIT_UNIT
	add	esp, 16					; 00000010H
	mov	DWORD PTR _k$[ebp], eax

; 134  :         up += 16;

	mov	eax, DWORD PTR _up$[ebp]
	add	eax, 64					; 00000040H
	mov	DWORD PTR _up$[ebp], eax

; 135  :         wp += 16;

	mov	ecx, DWORD PTR _wp$[ebp]
	add	ecx, 64					; 00000040H
	mov	DWORD PTR _wp$[ebp], ecx

; 136  : #ifdef ENABLED_PERFORMANCE_COUNTER
; 137  :         if (sizeof(k) == sizeof(_UINT32_T))

	mov	edx, 1
	test	edx, edx
	je	SHORT $LN7@Multiply_W

; 138  :             AddToMULTI32Counter(16);

	push	16					; 00000010H
	call	_AddToMULTI32Counter
	add	esp, 4
	jmp	SHORT $LN6@Multiply_W
$LN7@Multiply_W:

; 139  :         else
; 140  :             AddToMULTI64Counter(16);

	push	16					; 00000010H
	call	_AddToMULTI64Counter
	add	esp, 4
$LN6@Multiply_W:

; 141  : #endif
; 142  :     }
; 143  : 
; 144  :     if (u_count & 0x8)

	mov	eax, DWORD PTR _u_count$[ebp]
	and	eax, 8
	je	$LN9@Multiply_W

; 145  :     {
; 146  :         k = _MULTIPLY_DIGIT_UNIT(k, &up[0], v, &wp[0]);

	mov	ecx, 4
	imul	edx, ecx, 0
	add	edx, DWORD PTR _wp$[ebp]
	push	edx
	mov	eax, DWORD PTR _v$[ebp]
	push	eax
	mov	ecx, 4
	imul	edx, ecx, 0
	add	edx, DWORD PTR _up$[ebp]
	push	edx
	mov	eax, DWORD PTR _k$[ebp]
	push	eax
	call	__MULTIPLY_DIGIT_UNIT
	add	esp, 16					; 00000010H
	mov	DWORD PTR _k$[ebp], eax

; 147  :         k = _MULTIPLY_DIGIT_UNIT(k, &up[1], v, &wp[1]);

	mov	ecx, 4
	shl	ecx, 0
	add	ecx, DWORD PTR _wp$[ebp]
	push	ecx
	mov	edx, DWORD PTR _v$[ebp]
	push	edx
	mov	eax, 4
	shl	eax, 0
	add	eax, DWORD PTR _up$[ebp]
	push	eax
	mov	ecx, DWORD PTR _k$[ebp]
	push	ecx
	call	__MULTIPLY_DIGIT_UNIT
	add	esp, 16					; 00000010H
	mov	DWORD PTR _k$[ebp], eax

; 148  :         k = _MULTIPLY_DIGIT_UNIT(k, &up[2], v, &wp[2]);

	mov	edx, 4
	shl	edx, 1
	add	edx, DWORD PTR _wp$[ebp]
	push	edx
	mov	eax, DWORD PTR _v$[ebp]
	push	eax
	mov	ecx, 4
	shl	ecx, 1
	add	ecx, DWORD PTR _up$[ebp]
	push	ecx
	mov	edx, DWORD PTR _k$[ebp]
	push	edx
	call	__MULTIPLY_DIGIT_UNIT
	add	esp, 16					; 00000010H
	mov	DWORD PTR _k$[ebp], eax

; 149  :         k = _MULTIPLY_DIGIT_UNIT(k, &up[3], v, &wp[3]);

	mov	eax, 4
	imul	ecx, eax, 3
	add	ecx, DWORD PTR _wp$[ebp]
	push	ecx
	mov	edx, DWORD PTR _v$[ebp]
	push	edx
	mov	eax, 4
	imul	ecx, eax, 3
	add	ecx, DWORD PTR _up$[ebp]
	push	ecx
	mov	edx, DWORD PTR _k$[ebp]
	push	edx
	call	__MULTIPLY_DIGIT_UNIT
	add	esp, 16					; 00000010H
	mov	DWORD PTR _k$[ebp], eax

; 150  :         k = _MULTIPLY_DIGIT_UNIT(k, &up[4], v, &wp[4]);

	mov	eax, 4
	shl	eax, 2
	add	eax, DWORD PTR _wp$[ebp]
	push	eax
	mov	ecx, DWORD PTR _v$[ebp]
	push	ecx
	mov	edx, 4
	shl	edx, 2
	add	edx, DWORD PTR _up$[ebp]
	push	edx
	mov	eax, DWORD PTR _k$[ebp]
	push	eax
	call	__MULTIPLY_DIGIT_UNIT
	add	esp, 16					; 00000010H
	mov	DWORD PTR _k$[ebp], eax

; 151  :         k = _MULTIPLY_DIGIT_UNIT(k, &up[5], v, &wp[5]);

	mov	ecx, 4
	imul	edx, ecx, 5
	add	edx, DWORD PTR _wp$[ebp]
	push	edx
	mov	eax, DWORD PTR _v$[ebp]
	push	eax
	mov	ecx, 4
	imul	edx, ecx, 5
	add	edx, DWORD PTR _up$[ebp]
	push	edx
	mov	eax, DWORD PTR _k$[ebp]
	push	eax
	call	__MULTIPLY_DIGIT_UNIT
	add	esp, 16					; 00000010H
	mov	DWORD PTR _k$[ebp], eax

; 152  :         k = _MULTIPLY_DIGIT_UNIT(k, &up[6], v, &wp[6]);

	mov	ecx, 4
	imul	edx, ecx, 6
	add	edx, DWORD PTR _wp$[ebp]
	push	edx
	mov	eax, DWORD PTR _v$[ebp]
	push	eax
	mov	ecx, 4
	imul	edx, ecx, 6
	add	edx, DWORD PTR _up$[ebp]
	push	edx
	mov	eax, DWORD PTR _k$[ebp]
	push	eax
	call	__MULTIPLY_DIGIT_UNIT
	add	esp, 16					; 00000010H
	mov	DWORD PTR _k$[ebp], eax

; 153  :         k = _MULTIPLY_DIGIT_UNIT(k, &up[7], v, &wp[7]);

	mov	ecx, 4
	imul	edx, ecx, 7
	add	edx, DWORD PTR _wp$[ebp]
	push	edx
	mov	eax, DWORD PTR _v$[ebp]
	push	eax
	mov	ecx, 4
	imul	edx, ecx, 7
	add	edx, DWORD PTR _up$[ebp]
	push	edx
	mov	eax, DWORD PTR _k$[ebp]
	push	eax
	call	__MULTIPLY_DIGIT_UNIT
	add	esp, 16					; 00000010H
	mov	DWORD PTR _k$[ebp], eax

; 154  :         up += 8;

	mov	ecx, DWORD PTR _up$[ebp]
	add	ecx, 32					; 00000020H
	mov	DWORD PTR _up$[ebp], ecx

; 155  :         wp += 8;

	mov	edx, DWORD PTR _wp$[ebp]
	add	edx, 32					; 00000020H
	mov	DWORD PTR _wp$[ebp], edx

; 156  : #ifdef ENABLED_PERFORMANCE_COUNTER
; 157  :         if (sizeof(k) == sizeof(_UINT32_T))

	mov	eax, 1
	test	eax, eax
	je	SHORT $LN10@Multiply_W

; 158  :             AddToMULTI32Counter(8);

	push	8
	call	_AddToMULTI32Counter
	add	esp, 4
	jmp	SHORT $LN9@Multiply_W
$LN10@Multiply_W:

; 159  :         else
; 160  :             AddToMULTI64Counter(8);

	push	8
	call	_AddToMULTI64Counter
	add	esp, 4
$LN9@Multiply_W:

; 161  : #endif
; 162  :     }
; 163  : 
; 164  :     if (u_count & 0x4)

	mov	ecx, DWORD PTR _u_count$[ebp]
	and	ecx, 4
	je	$LN12@Multiply_W

; 165  :     {
; 166  :         k = _MULTIPLY_DIGIT_UNIT(k, &up[0], v, &wp[0]);

	mov	edx, 4
	imul	eax, edx, 0
	add	eax, DWORD PTR _wp$[ebp]
	push	eax
	mov	ecx, DWORD PTR _v$[ebp]
	push	ecx
	mov	edx, 4
	imul	eax, edx, 0
	add	eax, DWORD PTR _up$[ebp]
	push	eax
	mov	ecx, DWORD PTR _k$[ebp]
	push	ecx
	call	__MULTIPLY_DIGIT_UNIT
	add	esp, 16					; 00000010H
	mov	DWORD PTR _k$[ebp], eax

; 167  :         k = _MULTIPLY_DIGIT_UNIT(k, &up[1], v, &wp[1]);

	mov	edx, 4
	shl	edx, 0
	add	edx, DWORD PTR _wp$[ebp]
	push	edx
	mov	eax, DWORD PTR _v$[ebp]
	push	eax
	mov	ecx, 4
	shl	ecx, 0
	add	ecx, DWORD PTR _up$[ebp]
	push	ecx
	mov	edx, DWORD PTR _k$[ebp]
	push	edx
	call	__MULTIPLY_DIGIT_UNIT
	add	esp, 16					; 00000010H
	mov	DWORD PTR _k$[ebp], eax

; 168  :         k = _MULTIPLY_DIGIT_UNIT(k, &up[2], v, &wp[2]);

	mov	eax, 4
	shl	eax, 1
	add	eax, DWORD PTR _wp$[ebp]
	push	eax
	mov	ecx, DWORD PTR _v$[ebp]
	push	ecx
	mov	edx, 4
	shl	edx, 1
	add	edx, DWORD PTR _up$[ebp]
	push	edx
	mov	eax, DWORD PTR _k$[ebp]
	push	eax
	call	__MULTIPLY_DIGIT_UNIT
	add	esp, 16					; 00000010H
	mov	DWORD PTR _k$[ebp], eax

; 169  :         k = _MULTIPLY_DIGIT_UNIT(k, &up[3], v, &wp[3]);

	mov	ecx, 4
	imul	edx, ecx, 3
	add	edx, DWORD PTR _wp$[ebp]
	push	edx
	mov	eax, DWORD PTR _v$[ebp]
	push	eax
	mov	ecx, 4
	imul	edx, ecx, 3
	add	edx, DWORD PTR _up$[ebp]
	push	edx
	mov	eax, DWORD PTR _k$[ebp]
	push	eax
	call	__MULTIPLY_DIGIT_UNIT
	add	esp, 16					; 00000010H
	mov	DWORD PTR _k$[ebp], eax

; 170  :         up += 4;

	mov	ecx, DWORD PTR _up$[ebp]
	add	ecx, 16					; 00000010H
	mov	DWORD PTR _up$[ebp], ecx

; 171  :         wp += 4;

	mov	edx, DWORD PTR _wp$[ebp]
	add	edx, 16					; 00000010H
	mov	DWORD PTR _wp$[ebp], edx

; 172  : #ifdef ENABLED_PERFORMANCE_COUNTER
; 173  :         if (sizeof(k) == sizeof(_UINT32_T))

	mov	eax, 1
	test	eax, eax
	je	SHORT $LN13@Multiply_W

; 174  :             AddToMULTI32Counter(4);

	push	4
	call	_AddToMULTI32Counter
	add	esp, 4
	jmp	SHORT $LN12@Multiply_W
$LN13@Multiply_W:

; 175  :         else
; 176  :             AddToMULTI64Counter(4);

	push	4
	call	_AddToMULTI64Counter
	add	esp, 4
$LN12@Multiply_W:

; 177  : #endif
; 178  :     }
; 179  : 
; 180  :     if (u_count & 0x2)

	mov	ecx, DWORD PTR _u_count$[ebp]
	and	ecx, 2
	je	$LN15@Multiply_W

; 181  :     {
; 182  :         k = _MULTIPLY_DIGIT_UNIT(k, &up[0], v, &wp[0]);

	mov	edx, 4
	imul	eax, edx, 0
	add	eax, DWORD PTR _wp$[ebp]
	push	eax
	mov	ecx, DWORD PTR _v$[ebp]
	push	ecx
	mov	edx, 4
	imul	eax, edx, 0
	add	eax, DWORD PTR _up$[ebp]
	push	eax
	mov	ecx, DWORD PTR _k$[ebp]
	push	ecx
	call	__MULTIPLY_DIGIT_UNIT
	add	esp, 16					; 00000010H
	mov	DWORD PTR _k$[ebp], eax

; 183  :         k = _MULTIPLY_DIGIT_UNIT(k, &up[1], v, &wp[1]);

	mov	edx, 4
	shl	edx, 0
	add	edx, DWORD PTR _wp$[ebp]
	push	edx
	mov	eax, DWORD PTR _v$[ebp]
	push	eax
	mov	ecx, 4
	shl	ecx, 0
	add	ecx, DWORD PTR _up$[ebp]
	push	ecx
	mov	edx, DWORD PTR _k$[ebp]
	push	edx
	call	__MULTIPLY_DIGIT_UNIT
	add	esp, 16					; 00000010H
	mov	DWORD PTR _k$[ebp], eax

; 184  :         up += 2;

	mov	eax, DWORD PTR _up$[ebp]
	add	eax, 8
	mov	DWORD PTR _up$[ebp], eax

; 185  :         wp += 2;

	mov	ecx, DWORD PTR _wp$[ebp]
	add	ecx, 8
	mov	DWORD PTR _wp$[ebp], ecx

; 186  : #ifdef ENABLED_PERFORMANCE_COUNTER
; 187  :         if (sizeof(k) == sizeof(_UINT32_T))

	mov	edx, 1
	test	edx, edx
	je	SHORT $LN16@Multiply_W

; 188  :             AddToMULTI32Counter(2);

	push	2
	call	_AddToMULTI32Counter
	add	esp, 4
	jmp	SHORT $LN15@Multiply_W
$LN16@Multiply_W:

; 189  :         else
; 190  :             AddToMULTI64Counter(2);

	push	2
	call	_AddToMULTI64Counter
	add	esp, 4
$LN15@Multiply_W:

; 191  : #endif
; 192  :     }
; 193  : 
; 194  :     if (u_count & 0x1)

	mov	eax, DWORD PTR _u_count$[ebp]
	and	eax, 1
	je	SHORT $LN18@Multiply_W

; 195  :     {
; 196  :         k = _MULTIPLY_DIGIT_UNIT(k, &up[0], v, &wp[0]);

	mov	ecx, 4
	imul	edx, ecx, 0
	add	edx, DWORD PTR _wp$[ebp]
	push	edx
	mov	eax, DWORD PTR _v$[ebp]
	push	eax
	mov	ecx, 4
	imul	edx, ecx, 0
	add	edx, DWORD PTR _up$[ebp]
	push	edx
	mov	eax, DWORD PTR _k$[ebp]
	push	eax
	call	__MULTIPLY_DIGIT_UNIT
	add	esp, 16					; 00000010H
	mov	DWORD PTR _k$[ebp], eax

; 197  :         up += 1;

	mov	ecx, DWORD PTR _up$[ebp]
	add	ecx, 4
	mov	DWORD PTR _up$[ebp], ecx

; 198  :         wp += 1;

	mov	edx, DWORD PTR _wp$[ebp]
	add	edx, 4
	mov	DWORD PTR _wp$[ebp], edx

; 199  : #ifdef ENABLED_PERFORMANCE_COUNTER
; 200  :         if (sizeof(k) == sizeof(_UINT32_T))

	mov	eax, 1
	test	eax, eax
	je	SHORT $LN19@Multiply_W

; 201  :             IncrementMULTI32Counter();

	call	_IncrementMULTI32Counter
	jmp	SHORT $LN18@Multiply_W
$LN19@Multiply_W:

; 202  :         else
; 203  :             IncrementMULTI64Counter();

	call	_IncrementMULTI64Counter
$LN18@Multiply_W:

; 204  : #endif
; 205  :     }
; 206  : 
; 207  :     if (k != 0)

	cmp	DWORD PTR _k$[ebp], 0
	je	SHORT $LN21@Multiply_W

; 208  :         *wp = k;

	mov	ecx, DWORD PTR _wp$[ebp]
	mov	edx, DWORD PTR _k$[ebp]
	mov	DWORD PTR [ecx], edx
$LN21@Multiply_W:

; 209  : 
; 210  :     return (PMC_STATUS_OK);

	xor	eax, eax

; 211  : }

	add	esp, 8
	cmp	ebp, esp
	call	__RTC_CheckEsp
	mov	esp, ebp
	pop	ebp
	ret	0
_Multiply_WORD_using_MUL_ADC ENDP
_TEXT	ENDS
; Function compile flags: /Odtp /RTCsu
; File z:\sources\lunor\repos\rougemeilland\palmtree.math.core.implements\palmtree.math.core.implements\pmc_multiply.c
_TEXT	SEGMENT
_t_lo$ = -20						; size = 4
_t_hi$ = -8						; size = 4
_k$ = 8							; size = 4
_up$ = 12						; size = 4
_v$ = 16						; size = 4
_wp$ = 20						; size = 4
__MULTIPLYX_DIGIT_UNIT PROC

; 55   : {

	push	ebp
	mov	ebp, esp
	sub	esp, 24					; 00000018H
	mov	eax, -858993460				; ccccccccH
	mov	DWORD PTR [ebp-24], eax
	mov	DWORD PTR [ebp-20], eax
	mov	DWORD PTR [ebp-16], eax
	mov	DWORD PTR [ebp-12], eax
	mov	DWORD PTR [ebp-8], eax
	mov	DWORD PTR [ebp-4], eax
	mov	ecx, OFFSET __C53FCF4E_pmc_multiply@c
	call	@__CheckForDebuggerJustMyCode@4

; 56   :     __UNIT_TYPE t_hi;
; 57   :     __UNIT_TYPE t_lo;
; 58   :     t_lo = _MULTIPLYX_UNIT(*up, v, &t_hi);

	lea	eax, DWORD PTR _t_hi$[ebp]
	push	eax
	mov	ecx, DWORD PTR _v$[ebp]
	push	ecx
	mov	edx, DWORD PTR _up$[ebp]
	mov	eax, DWORD PTR [edx]
	push	eax
	call	__MULTIPLYX_UNIT
	add	esp, 12					; 0000000cH
	mov	DWORD PTR _t_lo$[ebp], eax

; 59   :     _ADDX_UNIT(_ADDX_UNIT(0, t_lo, *wp, &t_lo), t_hi, 0, &t_hi);

	lea	ecx, DWORD PTR _t_hi$[ebp]
	push	ecx
	push	0
	mov	edx, DWORD PTR _t_hi$[ebp]
	push	edx
	lea	eax, DWORD PTR _t_lo$[ebp]
	push	eax
	mov	ecx, DWORD PTR _wp$[ebp]
	mov	edx, DWORD PTR [ecx]
	push	edx
	mov	eax, DWORD PTR _t_lo$[ebp]
	push	eax
	push	0
	call	__ADDX_UNIT
	add	esp, 16					; 00000010H
	movzx	ecx, al
	push	ecx
	call	__ADDX_UNIT
	add	esp, 16					; 00000010H

; 60   :     _ADDX_UNIT(_ADDX_UNIT(0, t_lo, k, &t_lo), t_hi, 0, &t_hi);

	lea	edx, DWORD PTR _t_hi$[ebp]
	push	edx
	push	0
	mov	eax, DWORD PTR _t_hi$[ebp]
	push	eax
	lea	ecx, DWORD PTR _t_lo$[ebp]
	push	ecx
	mov	edx, DWORD PTR _k$[ebp]
	push	edx
	mov	eax, DWORD PTR _t_lo$[ebp]
	push	eax
	push	0
	call	__ADDX_UNIT
	add	esp, 16					; 00000010H
	movzx	ecx, al
	push	ecx
	call	__ADDX_UNIT
	add	esp, 16					; 00000010H

; 61   :     *wp = t_lo;

	mov	edx, DWORD PTR _wp$[ebp]
	mov	eax, DWORD PTR _t_lo$[ebp]
	mov	DWORD PTR [edx], eax

; 62   :     k = t_hi;

	mov	ecx, DWORD PTR _t_hi$[ebp]
	mov	DWORD PTR _k$[ebp], ecx

; 63   :     return (k);

	mov	eax, DWORD PTR _k$[ebp]

; 64   : }

	push	edx
	mov	ecx, ebp
	push	eax
	lea	edx, DWORD PTR $LN6@MULTIPLYX_
	call	@_RTC_CheckStackVars@8
	pop	eax
	pop	edx
	add	esp, 24					; 00000018H
	cmp	ebp, esp
	call	__RTC_CheckEsp
	mov	esp, ebp
	pop	ebp
	ret	0
	npad	2
$LN6@MULTIPLYX_:
	DD	2
	DD	$LN5@MULTIPLYX_
$LN5@MULTIPLYX_:
	DD	-8					; fffffff8H
	DD	4
	DD	$LN3@MULTIPLYX_
	DD	-20					; ffffffecH
	DD	4
	DD	$LN4@MULTIPLYX_
$LN4@MULTIPLYX_:
	DB	116					; 00000074H
	DB	95					; 0000005fH
	DB	108					; 0000006cH
	DB	111					; 0000006fH
	DB	0
$LN3@MULTIPLYX_:
	DB	116					; 00000074H
	DB	95					; 0000005fH
	DB	104					; 00000068H
	DB	105					; 00000069H
	DB	0
__MULTIPLYX_DIGIT_UNIT ENDP
_TEXT	ENDS
; Function compile flags: /Odtp /RTCsu
; File z:\sources\lunor\repos\rougemeilland\palmtree.math.core.implements\palmtree.math.core.implements\pmc_multiply.c
_TEXT	SEGMENT
_t_lo$ = -20						; size = 4
_t_hi$ = -8						; size = 4
_k$ = 8							; size = 4
_up$ = 12						; size = 4
_v$ = 16						; size = 4
_wp$ = 20						; size = 4
__MULTIPLY_DIGIT_UNIT PROC

; 43   : {

	push	ebp
	mov	ebp, esp
	sub	esp, 24					; 00000018H
	mov	eax, -858993460				; ccccccccH
	mov	DWORD PTR [ebp-24], eax
	mov	DWORD PTR [ebp-20], eax
	mov	DWORD PTR [ebp-16], eax
	mov	DWORD PTR [ebp-12], eax
	mov	DWORD PTR [ebp-8], eax
	mov	DWORD PTR [ebp-4], eax
	mov	ecx, OFFSET __C53FCF4E_pmc_multiply@c
	call	@__CheckForDebuggerJustMyCode@4

; 44   :     __UNIT_TYPE t_hi;
; 45   :     __UNIT_TYPE t_lo;
; 46   :     t_lo = _MULTIPLY_UNIT(*up, v, &t_hi);

	lea	eax, DWORD PTR _t_hi$[ebp]
	push	eax
	mov	ecx, DWORD PTR _v$[ebp]
	push	ecx
	mov	edx, DWORD PTR _up$[ebp]
	mov	eax, DWORD PTR [edx]
	push	eax
	call	__MULTIPLY_UNIT
	add	esp, 12					; 0000000cH
	mov	DWORD PTR _t_lo$[ebp], eax

; 47   :     _ADD_UNIT(_ADD_UNIT(0, t_lo, *wp, &t_lo), t_hi, 0, &t_hi);

	lea	ecx, DWORD PTR _t_hi$[ebp]
	push	ecx
	push	0
	mov	edx, DWORD PTR _t_hi$[ebp]
	push	edx
	lea	eax, DWORD PTR _t_lo$[ebp]
	push	eax
	mov	ecx, DWORD PTR _wp$[ebp]
	mov	edx, DWORD PTR [ecx]
	push	edx
	mov	eax, DWORD PTR _t_lo$[ebp]
	push	eax
	push	0
	call	__ADD_UNIT
	add	esp, 16					; 00000010H
	movzx	ecx, al
	push	ecx
	call	__ADD_UNIT
	add	esp, 16					; 00000010H

; 48   :     _ADD_UNIT(_ADD_UNIT(0, t_lo, k, &t_lo), t_hi, 0, &t_hi);

	lea	edx, DWORD PTR _t_hi$[ebp]
	push	edx
	push	0
	mov	eax, DWORD PTR _t_hi$[ebp]
	push	eax
	lea	ecx, DWORD PTR _t_lo$[ebp]
	push	ecx
	mov	edx, DWORD PTR _k$[ebp]
	push	edx
	mov	eax, DWORD PTR _t_lo$[ebp]
	push	eax
	push	0
	call	__ADD_UNIT
	add	esp, 16					; 00000010H
	movzx	ecx, al
	push	ecx
	call	__ADD_UNIT
	add	esp, 16					; 00000010H

; 49   :     *wp = t_lo;

	mov	edx, DWORD PTR _wp$[ebp]
	mov	eax, DWORD PTR _t_lo$[ebp]
	mov	DWORD PTR [edx], eax

; 50   :     k = t_hi;

	mov	ecx, DWORD PTR _t_hi$[ebp]
	mov	DWORD PTR _k$[ebp], ecx

; 51   :     return (k);

	mov	eax, DWORD PTR _k$[ebp]

; 52   : }

	push	edx
	mov	ecx, ebp
	push	eax
	lea	edx, DWORD PTR $LN6@MULTIPLY_D
	call	@_RTC_CheckStackVars@8
	pop	eax
	pop	edx
	add	esp, 24					; 00000018H
	cmp	ebp, esp
	call	__RTC_CheckEsp
	mov	esp, ebp
	pop	ebp
	ret	0
	npad	2
$LN6@MULTIPLY_D:
	DD	2
	DD	$LN5@MULTIPLY_D
$LN5@MULTIPLY_D:
	DD	-8					; fffffff8H
	DD	4
	DD	$LN3@MULTIPLY_D
	DD	-20					; ffffffecH
	DD	4
	DD	$LN4@MULTIPLY_D
$LN4@MULTIPLY_D:
	DB	116					; 00000074H
	DB	95					; 0000005fH
	DB	108					; 0000006cH
	DB	111					; 0000006fH
	DB	0
$LN3@MULTIPLY_D:
	DB	116					; 00000074H
	DB	95					; 0000005fH
	DB	104					; 00000068H
	DB	105					; 00000069H
	DB	0
__MULTIPLY_DIGIT_UNIT ENDP
_TEXT	ENDS
; Function compile flags: /Odtp /RTCsu
; File z:\sources\lunor\repos\rougemeilland\palmtree.math.core.implements\palmtree.math.core.implements\pmc_internal.h
_TEXT	SEGMENT
_value$ = 8						; size = 4
_AddToMULTI64Counter PROC

; 1009 : {

	push	ebp
	mov	ebp, esp
	mov	ecx, OFFSET __4522B509_pmc_internal@h
	call	@__CheckForDebuggerJustMyCode@4

; 1010 :     _InterlockedExchangeAdd(&statistics_info.COUNT_MULTI64, value);

	mov	eax, DWORD PTR _value$[ebp]
	mov	ecx, OFFSET _statistics_info
	lock	 xadd	 DWORD PTR [ecx], eax

; 1011 : }

	cmp	ebp, esp
	call	__RTC_CheckEsp
	pop	ebp
	ret	0
_AddToMULTI64Counter ENDP
_TEXT	ENDS
; Function compile flags: /Odtp /RTCsu
; File z:\sources\lunor\repos\rougemeilland\palmtree.math.core.implements\palmtree.math.core.implements\pmc_internal.h
_TEXT	SEGMENT
_value$ = 8						; size = 4
_AddToMULTI32Counter PROC

; 1003 : {

	push	ebp
	mov	ebp, esp
	mov	ecx, OFFSET __4522B509_pmc_internal@h
	call	@__CheckForDebuggerJustMyCode@4

; 1004 :     _InterlockedExchangeAdd(&statistics_info.COUNT_MULTI32, value);

	mov	eax, DWORD PTR _value$[ebp]
	mov	ecx, OFFSET _statistics_info+4
	lock	 xadd	 DWORD PTR [ecx], eax

; 1005 : }

	cmp	ebp, esp
	call	__RTC_CheckEsp
	pop	ebp
	ret	0
_AddToMULTI32Counter ENDP
_TEXT	ENDS
; Function compile flags: /Odtp /RTCsu
; File z:\sources\lunor\repos\rougemeilland\palmtree.math.core.implements\palmtree.math.core.implements\pmc_internal.h
_TEXT	SEGMENT
_IncrementMULTI64Counter PROC

; 986  : {

	push	ebp
	mov	ebp, esp
	mov	ecx, OFFSET __4522B509_pmc_internal@h
	call	@__CheckForDebuggerJustMyCode@4

; 987  :     _InterlockedIncrement(&statistics_info.COUNT_MULTI64);

	lock	 inc	 (null) PTR _statistics_info

; 988  : }

	cmp	ebp, esp
	call	__RTC_CheckEsp
	pop	ebp
	ret	0
_IncrementMULTI64Counter ENDP
_TEXT	ENDS
; Function compile flags: /Odtp /RTCsu
; File z:\sources\lunor\repos\rougemeilland\palmtree.math.core.implements\palmtree.math.core.implements\pmc_internal.h
_TEXT	SEGMENT
_IncrementMULTI32Counter PROC

; 980  : {

	push	ebp
	mov	ebp, esp
	mov	ecx, OFFSET __4522B509_pmc_internal@h
	call	@__CheckForDebuggerJustMyCode@4

; 981  :     _InterlockedIncrement(&statistics_info.COUNT_MULTI32);

	lock	 inc	 (null) PTR _statistics_info+4

; 982  : }

	cmp	ebp, esp
	call	__RTC_CheckEsp
	pop	ebp
	ret	0
_IncrementMULTI32Counter ENDP
_TEXT	ENDS
; Function compile flags: /Odtp /RTCsu
; File z:\sources\lunor\repos\rougemeilland\palmtree.math.core.implements\palmtree.math.core.implements\pmc_internal.h
_TEXT	SEGMENT
_pos$ = -8						; size = 4
_x$ = 8							; size = 4
__LZCNT_ALT_UNIT PROC

; 859  : {

	push	ebp
	mov	ebp, esp
	sub	esp, 12					; 0000000cH
	mov	DWORD PTR [ebp-12], -858993460		; ccccccccH
	mov	DWORD PTR [ebp-8], -858993460		; ccccccccH
	mov	DWORD PTR [ebp-4], -858993460		; ccccccccH
	mov	ecx, OFFSET __4522B509_pmc_internal@h
	call	@__CheckForDebuggerJustMyCode@4

; 860  :     if (x == 0)

	cmp	DWORD PTR _x$[ebp], 0
	jne	SHORT $LN2@LZCNT_ALT_

; 861  :         return (sizeof(x) * 8);

	mov	eax, 32					; 00000020H
	jmp	SHORT $LN1@LZCNT_ALT_
$LN2@LZCNT_ALT_:

; 862  : #ifdef _M_IX86
; 863  :     _UINT32_T pos;
; 864  : #ifdef _MSC_VER
; 865  :     _BitScanReverse(&pos, x);

	bsr	eax, DWORD PTR _x$[ebp]
	mov	DWORD PTR _pos$[ebp], eax

; 866  : #elif defined(__GNUC__)
; 867  :     __asm__("bsrl %1, %0" : "=r"(pos) : "rm"(x));
; 868  : #else
; 869  : #error unknown compiler
; 870  : #endif
; 871  : #elif defined(_M_X64)
; 872  : #ifdef _MSC_VER
; 873  :     _UINT32_T pos;
; 874  :     _BitScanReverse64(&pos, x);
; 875  : #elif defined(__GNUC__)
; 876  :     _UINT64_T pos;
; 877  :     __asm__("bsrq %1, %0" : "=r"(pos) : "rm"(x));
; 878  : #else
; 879  : #error unknown compiler
; 880  : #endif
; 881  : #else
; 882  : #error unknown platform
; 883  : #endif
; 884  :     return (sizeof(x) * 8 - 1 - pos);

	mov	eax, 31					; 0000001fH
	sub	eax, DWORD PTR _pos$[ebp]
$LN1@LZCNT_ALT_:

; 885  : }

	push	edx
	mov	ecx, ebp
	push	eax
	lea	edx, DWORD PTR $LN6@LZCNT_ALT_
	call	@_RTC_CheckStackVars@8
	pop	eax
	pop	edx
	add	esp, 12					; 0000000cH
	cmp	ebp, esp
	call	__RTC_CheckEsp
	mov	esp, ebp
	pop	ebp
	ret	0
$LN6@LZCNT_ALT_:
	DD	1
	DD	$LN5@LZCNT_ALT_
$LN5@LZCNT_ALT_:
	DD	-8					; fffffff8H
	DD	4
	DD	$LN4@LZCNT_ALT_
$LN4@LZCNT_ALT_:
	DB	112					; 00000070H
	DB	111					; 0000006fH
	DB	115					; 00000073H
	DB	0
__LZCNT_ALT_UNIT ENDP
_TEXT	ENDS
; Function compile flags: /Odtp /RTCsu
; File z:\sources\lunor\repos\rougemeilland\palmtree.math.core.implements\palmtree.math.core.implements\pmc_internal.h
_TEXT	SEGMENT
_pos$ = -8						; size = 4
_x$ = 8							; size = 4
__LZCNT_ALT_32 PROC

; 826  : {

	push	ebp
	mov	ebp, esp
	sub	esp, 12					; 0000000cH
	mov	DWORD PTR [ebp-12], -858993460		; ccccccccH
	mov	DWORD PTR [ebp-8], -858993460		; ccccccccH
	mov	DWORD PTR [ebp-4], -858993460		; ccccccccH
	mov	ecx, OFFSET __4522B509_pmc_internal@h
	call	@__CheckForDebuggerJustMyCode@4

; 827  :     if (x == 0)

	cmp	DWORD PTR _x$[ebp], 0
	jne	SHORT $LN2@LZCNT_ALT_

; 828  :         return (sizeof(x) * 8);

	mov	eax, 32					; 00000020H
	jmp	SHORT $LN1@LZCNT_ALT_
$LN2@LZCNT_ALT_:

; 829  :     _UINT32_T pos;
; 830  : #ifdef _MSC_VER
; 831  :     _BitScanReverse(&pos, x);

	bsr	eax, DWORD PTR _x$[ebp]
	mov	DWORD PTR _pos$[ebp], eax

; 832  : #elif defined(__GNUC__)
; 833  :     __asm__( "bsrl %1, %0" : "=r"(pos) : "rm"(x) );
; 834  : #else
; 835  : #error unknown compiler
; 836  : #endif
; 837  :     return (sizeof(x) * 8 - 1 - pos);

	mov	eax, 31					; 0000001fH
	sub	eax, DWORD PTR _pos$[ebp]
$LN1@LZCNT_ALT_:

; 838  : }

	push	edx
	mov	ecx, ebp
	push	eax
	lea	edx, DWORD PTR $LN6@LZCNT_ALT_
	call	@_RTC_CheckStackVars@8
	pop	eax
	pop	edx
	add	esp, 12					; 0000000cH
	cmp	ebp, esp
	call	__RTC_CheckEsp
	mov	esp, ebp
	pop	ebp
	ret	0
$LN6@LZCNT_ALT_:
	DD	1
	DD	$LN5@LZCNT_ALT_
$LN5@LZCNT_ALT_:
	DD	-8					; fffffff8H
	DD	4
	DD	$LN4@LZCNT_ALT_
$LN4@LZCNT_ALT_:
	DB	112					; 00000070H
	DB	111					; 0000006fH
	DB	115					; 00000073H
	DB	0
__LZCNT_ALT_32 ENDP
_TEXT	ENDS
; Function compile flags: /Odtp /RTCsu
; File z:\sources\lunor\repos\rougemeilland\palmtree.math.core.implements\palmtree.math.core.implements\pmc_internal.h
_TEXT	SEGMENT
_u$ = 8							; size = 4
_v$ = 12						; size = 4
_w_hi$ = 16						; size = 4
__MULTIPLYX_UNIT PROC

; 565  : {

	push	ebp
	mov	ebp, esp
	mov	ecx, OFFSET __4522B509_pmc_internal@h
	call	@__CheckForDebuggerJustMyCode@4

; 566  : #ifdef _MSC_VER
; 567  : #ifdef _M_IX86
; 568  :     return (_FROMDWORDTOWORD((_UINT64_T)u * v, w_hi));

	mov	eax, DWORD PTR _w_hi$[ebp]
	push	eax
	mov	eax, DWORD PTR _u$[ebp]
	mul	DWORD PTR _v$[ebp]
	push	edx
	push	eax
	call	__FROMDWORDTOWORD
	add	esp, 12					; 0000000cH

; 569  : #elif defined(_M_X64)
; 570  :     return (_mulx_u64(u, v, w_hi));
; 571  : #else
; 572  : #error unknown platform
; 573  : #endif
; 574  : #elif defined(__GNUC__)
; 575  : #ifdef _M_IX86
; 576  :     _UINT32_T w_lo;
; 577  :     __asm__("mulxl %3, %0, %1" : "=r"(w_lo), "=r"(*w_hi), "+d"(u) : "rm"(v));
; 578  :     return (w_lo);
; 579  : #elif defined(_M_X64)
; 580  :     _UINT64_T w_lo;
; 581  :     __asm__("mulxq %3, %0, %1" : "=r"(w_lo), "=r"(*w_hi), "+d"(u) : "rm"(v));
; 582  :     return (w_lo);
; 583  : #else
; 584  : #error unknown platform
; 585  : #endif
; 586  : #else
; 587  : #error unknown compiler
; 588  : #endif
; 589  : }

	cmp	ebp, esp
	call	__RTC_CheckEsp
	pop	ebp
	ret	0
__MULTIPLYX_UNIT ENDP
_TEXT	ENDS
; Function compile flags: /Odtp /RTCsu
; File z:\sources\lunor\repos\rougemeilland\palmtree.math.core.implements\palmtree.math.core.implements\pmc_internal.h
_TEXT	SEGMENT
_u$ = 8							; size = 4
_v$ = 12						; size = 4
_w_hi$ = 16						; size = 4
__MULTIPLY_UNIT PROC

; 527  : {

	push	ebp
	mov	ebp, esp
	mov	ecx, OFFSET __4522B509_pmc_internal@h
	call	@__CheckForDebuggerJustMyCode@4

; 528  : #ifdef _M_IX86
; 529  : #ifdef _MSC_VER
; 530  :     return (_FROMDWORDTOWORD((_UINT64_T)u * v, w_hi));

	mov	eax, DWORD PTR _w_hi$[ebp]
	push	eax
	mov	eax, DWORD PTR _u$[ebp]
	mul	DWORD PTR _v$[ebp]
	push	edx
	push	eax
	call	__FROMDWORDTOWORD
	add	esp, 12					; 0000000cH

; 531  : #elif defined(__GNUC__)
; 532  :     _UINT32_T w_lo;
; 533  :     __asm__("mull %3": "=a"(w_lo), "=d"(*w_hi) : "0"(u), "rm"(v));
; 534  :     return (w_lo);
; 535  : #else
; 536  : #error unknown compiler
; 537  : #endif
; 538  : #elif defined(_M_X64)
; 539  :     return (_umul128(u, v, w_hi));
; 540  : #else
; 541  : #error unknown platform
; 542  : #endif
; 543  : }

	cmp	ebp, esp
	call	__RTC_CheckEsp
	pop	ebp
	ret	0
__MULTIPLY_UNIT ENDP
_TEXT	ENDS
; Function compile flags: /Odtp /RTCsu
; File z:\sources\lunor\repos\rougemeilland\palmtree.math.core.implements\palmtree.math.core.implements\pmc_internal.h
_TEXT	SEGMENT
_carry$ = 8						; size = 1
_u$ = 12						; size = 4
_v$ = 16						; size = 4
_w$ = 20						; size = 4
__ADDX_UNIT PROC

; 471  : {

	push	ebp
	mov	ebp, esp
	push	ebx
	mov	ecx, OFFSET __4522B509_pmc_internal@h
	call	@__CheckForDebuggerJustMyCode@4

; 472  : #ifdef _M_IX86
; 473  :     return (_addcarryx_u32(carry, u, v, w));

	mov	eax, DWORD PTR _w$[ebp]
	mov	ecx, DWORD PTR _v$[ebp]
	mov	edx, DWORD PTR _u$[ebp]
	mov	bl, BYTE PTR _carry$[ebp]
	add	bl, 255					; 000000ffH
	adcx	edx, ecx
	setb	cl
	mov	DWORD PTR [eax], edx
	mov	al, cl

; 474  : #elif defined(_M_X64)
; 475  :     return (_addcarryx_u64(carry, u, v, w));
; 476  : #else
; 477  : #error unknown platform
; 478  : #endif
; 479  : }

	pop	ebx
	cmp	ebp, esp
	call	__RTC_CheckEsp
	pop	ebp
	ret	0
__ADDX_UNIT ENDP
_TEXT	ENDS
; Function compile flags: /Odtp /RTCsu
; File z:\sources\lunor\repos\rougemeilland\palmtree.math.core.implements\palmtree.math.core.implements\pmc_internal.h
_TEXT	SEGMENT
_carry$ = 8						; size = 1
_u$ = 12						; size = 4
_v$ = 16						; size = 4
_w$ = 20						; size = 4
__ADD_UNIT PROC

; 443  : {

	push	ebp
	mov	ebp, esp
	push	ebx
	mov	ecx, OFFSET __4522B509_pmc_internal@h
	call	@__CheckForDebuggerJustMyCode@4

; 444  : #ifdef _M_IX86
; 445  :     return (_addcarry_u32(carry, u, v, w));

	mov	eax, DWORD PTR _w$[ebp]
	mov	ecx, DWORD PTR _v$[ebp]
	mov	edx, DWORD PTR _u$[ebp]
	mov	bl, BYTE PTR _carry$[ebp]
	add	bl, 255					; 000000ffH
	adc	edx, ecx
	setb	cl
	mov	DWORD PTR [eax], edx
	mov	al, cl

; 446  : #elif defined(_M_X64)
; 447  :     return (_addcarry_u64(carry, u, v, w));
; 448  : #else
; 449  : #error unknown platform
; 450  : #endif
; 451  : }

	pop	ebx
	cmp	ebp, esp
	call	__RTC_CheckEsp
	pop	ebp
	ret	0
__ADD_UNIT ENDP
_TEXT	ENDS
; Function compile flags: /Odtp /RTCsu
; File z:\sources\lunor\repos\rougemeilland\palmtree.math.core.implements\palmtree.math.core.implements\pmc_internal.h
_TEXT	SEGMENT
_value$ = 8						; size = 8
_result_high$ = 16					; size = 4
__FROMDWORDTOWORD PROC

; 412  : {

	push	ebp
	mov	ebp, esp
	mov	ecx, OFFSET __4522B509_pmc_internal@h
	call	@__CheckForDebuggerJustMyCode@4

; 413  :     *result_high = (_UINT32_T)(value >> 32);

	mov	eax, DWORD PTR _value$[ebp]
	mov	edx, DWORD PTR _value$[ebp+4]
	mov	cl, 32					; 00000020H
	call	__aullshr
	mov	ecx, DWORD PTR _result_high$[ebp]
	mov	DWORD PTR [ecx], eax

; 414  :     return ((_UINT32_T)value);

	mov	eax, DWORD PTR _value$[ebp]

; 415  : }

	cmp	ebp, esp
	call	__RTC_CheckEsp
	pop	ebp
	ret	0
__FROMDWORDTOWORD ENDP
_TEXT	ENDS
; Function compile flags: /Odtp /RTCsu
; File z:\sources\lunor\repos\rougemeilland\palmtree.math.core.implements\palmtree.math.core.implements\pmc_multiply.c
_TEXT	SEGMENT
_nz_light_check_code$1 = -44				; size = 4
_z_bit_count$2 = -36					; size = 4
_y_bit_count$3 = -32					; size = 4
_x_bit_count$4 = -28					; size = 4
_nz$ = -20						; size = 4
_result$ = -12						; size = 4
_ny$ = -8						; size = 4
_nx$ = -4						; size = 4
_x$ = 8							; size = 4
_y$ = 12						; size = 4
_o$ = 16						; size = 4
_PMC_Multiply_X_X@12 PROC

; 686  : {

	push	ebp
	mov	ebp, esp
	sub	esp, 48					; 00000030H
	push	edi
	lea	edi, DWORD PTR [ebp-48]
	mov	ecx, 12					; 0000000cH
	mov	eax, -858993460				; ccccccccH
	rep stosd
	mov	ecx, OFFSET __C53FCF4E_pmc_multiply@c
	call	@__CheckForDebuggerJustMyCode@4

; 687  :     if (x == NULL)

	cmp	DWORD PTR _x$[ebp], 0
	jne	SHORT $LN2@PMC_Multip

; 688  :         return (PMC_STATUS_ARGUMENT_ERROR);

	or	eax, -1
	jmp	$LN1@PMC_Multip
$LN2@PMC_Multip:

; 689  :     if (y == NULL)

	cmp	DWORD PTR _y$[ebp], 0
	jne	SHORT $LN3@PMC_Multip

; 690  :         return (PMC_STATUS_ARGUMENT_ERROR);

	or	eax, -1
	jmp	$LN1@PMC_Multip
$LN3@PMC_Multip:

; 691  :     if (o == NULL)

	cmp	DWORD PTR _o$[ebp], 0
	jne	SHORT $LN4@PMC_Multip

; 692  :         return (PMC_STATUS_ARGUMENT_ERROR);

	or	eax, -1
	jmp	$LN1@PMC_Multip
$LN4@PMC_Multip:

; 693  :     NUMBER_HEADER* nx = (NUMBER_HEADER*)x;

	mov	eax, DWORD PTR _x$[ebp]
	mov	DWORD PTR _nx$[ebp], eax

; 694  :     NUMBER_HEADER* ny = (NUMBER_HEADER*)y;

	mov	ecx, DWORD PTR _y$[ebp]
	mov	DWORD PTR _ny$[ebp], ecx

; 695  :     PMC_STATUS_CODE result;
; 696  :     if ((result = CheckNumber(nx)) != PMC_STATUS_OK)

	mov	edx, DWORD PTR _nx$[ebp]
	push	edx
	call	_CheckNumber
	add	esp, 4
	mov	DWORD PTR _result$[ebp], eax
	cmp	DWORD PTR _result$[ebp], 0
	je	SHORT $LN5@PMC_Multip

; 697  :         return (result);

	mov	eax, DWORD PTR _result$[ebp]
	jmp	$LN1@PMC_Multip
$LN5@PMC_Multip:

; 698  :     if ((result = CheckNumber(ny)) != PMC_STATUS_OK)

	mov	eax, DWORD PTR _ny$[ebp]
	push	eax
	call	_CheckNumber
	add	esp, 4
	mov	DWORD PTR _result$[ebp], eax
	cmp	DWORD PTR _result$[ebp], 0
	je	SHORT $LN6@PMC_Multip

; 699  :         return (result);

	mov	eax, DWORD PTR _result$[ebp]
	jmp	$LN1@PMC_Multip
$LN6@PMC_Multip:

; 700  :     NUMBER_HEADER* nz;
; 701  :     if (nx->IS_ZERO)

	mov	ecx, DWORD PTR _nx$[ebp]
	mov	edx, DWORD PTR [ecx+16]
	shr	edx, 1
	and	edx, 1
	je	SHORT $LN7@PMC_Multip

; 702  :     {
; 703  :         // x が 0 である場合
; 704  : 
; 705  :         // y の値にかかわらず 0 を返す。
; 706  :         *o = &number_zero;

	mov	eax, DWORD PTR _o$[ebp]
	mov	DWORD PTR [eax], OFFSET _number_zero

; 707  :     }

	jmp	$LN8@PMC_Multip
$LN7@PMC_Multip:

; 708  :     else if (nx->IS_ONE)

	mov	ecx, DWORD PTR _nx$[ebp]
	mov	edx, DWORD PTR [ecx+16]
	shr	edx, 2
	and	edx, 1
	je	SHORT $LN9@PMC_Multip

; 709  :     {
; 710  :         // x が 1 である場合
; 711  :         if (ny->IS_ZERO)

	mov	eax, DWORD PTR _ny$[ebp]
	mov	ecx, DWORD PTR [eax+16]
	shr	ecx, 1
	and	ecx, 1
	je	SHORT $LN11@PMC_Multip

; 712  :         {
; 713  :             // y が 0 である場合
; 714  : 
; 715  :             //  0  を返す。
; 716  :             *o = &number_zero;

	mov	edx, DWORD PTR _o$[ebp]
	mov	DWORD PTR [edx], OFFSET _number_zero

; 717  :         }

	jmp	SHORT $LN12@PMC_Multip
$LN11@PMC_Multip:

; 718  :         else
; 719  :         {
; 720  :             // y が 0 ではない場合
; 721  : 
; 722  :             // 乗算結果は y に等しいため、y の値を持つ NUMBER_HEADER 構造体を獲得し、呼び出し元へ返す。
; 723  :             if ((result = DuplicateNumber(ny, &nz)) != PMC_STATUS_OK)

	lea	eax, DWORD PTR _nz$[ebp]
	push	eax
	mov	ecx, DWORD PTR _ny$[ebp]
	push	ecx
	call	_DuplicateNumber
	add	esp, 8
	mov	DWORD PTR _result$[ebp], eax
	cmp	DWORD PTR _result$[ebp], 0
	je	SHORT $LN13@PMC_Multip

; 724  :                 return (result);

	mov	eax, DWORD PTR _result$[ebp]
	jmp	$LN1@PMC_Multip
$LN13@PMC_Multip:

; 725  :             *o = nz;

	mov	edx, DWORD PTR _o$[ebp]
	mov	eax, DWORD PTR _nz$[ebp]
	mov	DWORD PTR [edx], eax
$LN12@PMC_Multip:

; 726  :         }
; 727  :     }

	jmp	$LN8@PMC_Multip
$LN9@PMC_Multip:

; 728  :     else
; 729  :     {
; 730  :         // x が 0 と 1 のどちらでもない場合
; 731  : 
; 732  :         if (ny->IS_ZERO)

	mov	ecx, DWORD PTR _ny$[ebp]
	mov	edx, DWORD PTR [ecx+16]
	shr	edx, 1
	and	edx, 1
	je	SHORT $LN14@PMC_Multip

; 733  :         {
; 734  :             // y が 0 である場合
; 735  : 
; 736  :             //  0  を返す。
; 737  :             nz = &number_zero;

	mov	DWORD PTR _nz$[ebp], OFFSET _number_zero

; 738  :         }

	jmp	$LN15@PMC_Multip
$LN14@PMC_Multip:

; 739  :         else if (ny->IS_ONE)

	mov	eax, DWORD PTR _ny$[ebp]
	mov	ecx, DWORD PTR [eax+16]
	shr	ecx, 2
	and	ecx, 1
	je	SHORT $LN16@PMC_Multip

; 740  :         {
; 741  :             // y が 1 である場合
; 742  : 
; 743  :             // 乗算結果は x に等しいため、x の値を持つ NUMBER_HEADER 構造体を獲得し、呼び出し元へ返す。
; 744  :             if ((result = DuplicateNumber(nx, &nz)) != PMC_STATUS_OK)

	lea	edx, DWORD PTR _nz$[ebp]
	push	edx
	mov	eax, DWORD PTR _nx$[ebp]
	push	eax
	call	_DuplicateNumber
	add	esp, 8
	mov	DWORD PTR _result$[ebp], eax
	cmp	DWORD PTR _result$[ebp], 0
	je	SHORT $LN18@PMC_Multip

; 745  :                 return (result);

	mov	eax, DWORD PTR _result$[ebp]
	jmp	$LN1@PMC_Multip
$LN18@PMC_Multip:

; 746  :         }

	jmp	$LN15@PMC_Multip
$LN16@PMC_Multip:

; 747  :         else
; 748  :         {
; 749  :             // x と y がともに 0 、1 のどちらでもない場合
; 750  : 
; 751  :             // x と y の積を計算する
; 752  :             __UNIT_TYPE x_bit_count = nx->UNIT_BIT_COUNT;

	mov	ecx, DWORD PTR _nx$[ebp]
	mov	edx, DWORD PTR [ecx+4]
	mov	DWORD PTR _x_bit_count$4[ebp], edx

; 753  :             __UNIT_TYPE y_bit_count = ny->UNIT_BIT_COUNT;

	mov	eax, DWORD PTR _ny$[ebp]
	mov	ecx, DWORD PTR [eax+4]
	mov	DWORD PTR _y_bit_count$3[ebp], ecx

; 754  :             __UNIT_TYPE z_bit_count = x_bit_count + y_bit_count;

	mov	edx, DWORD PTR _x_bit_count$4[ebp]
	add	edx, DWORD PTR _y_bit_count$3[ebp]
	mov	DWORD PTR _z_bit_count$2[ebp], edx

; 755  :             __UNIT_TYPE nz_light_check_code;
; 756  :             if ((result = AllocateNumber(&nz, z_bit_count, &nz_light_check_code)) != PMC_STATUS_OK)

	lea	eax, DWORD PTR _nz_light_check_code$1[ebp]
	push	eax
	mov	ecx, DWORD PTR _z_bit_count$2[ebp]
	push	ecx
	lea	edx, DWORD PTR _nz$[ebp]
	push	edx
	call	_AllocateNumber
	add	esp, 12					; 0000000cH
	mov	DWORD PTR _result$[ebp], eax
	cmp	DWORD PTR _result$[ebp], 0
	je	SHORT $LN19@PMC_Multip

; 757  :                 return (result);

	mov	eax, DWORD PTR _result$[ebp]
	jmp	$LN1@PMC_Multip
$LN19@PMC_Multip:

; 758  :             if ((result = Multiply_X_X(nx, ny, nz)) != PMC_STATUS_OK)

	mov	eax, DWORD PTR _nz$[ebp]
	push	eax
	mov	ecx, DWORD PTR _ny$[ebp]
	push	ecx
	mov	edx, DWORD PTR _nx$[ebp]
	push	edx
	call	_Multiply_X_X
	add	esp, 12					; 0000000cH
	mov	DWORD PTR _result$[ebp], eax
	cmp	DWORD PTR _result$[ebp], 0
	je	SHORT $LN20@PMC_Multip

; 759  :             {
; 760  :                 DeallocateNumber(nz);

	mov	eax, DWORD PTR _nz$[ebp]
	push	eax
	call	_DeallocateNumber
	add	esp, 4

; 761  :                 return (result);

	mov	eax, DWORD PTR _result$[ebp]
	jmp	SHORT $LN1@PMC_Multip
$LN20@PMC_Multip:

; 762  :             }
; 763  :             if ((result = CheckBlockLight(nz->BLOCK, nz_light_check_code)) != PMC_STATUS_OK)

	mov	ecx, DWORD PTR _nz_light_check_code$1[ebp]
	push	ecx
	mov	edx, DWORD PTR _nz$[ebp]
	mov	eax, DWORD PTR [edx+24]
	push	eax
	call	_CheckBlockLight
	add	esp, 8
	mov	DWORD PTR _result$[ebp], eax
	cmp	DWORD PTR _result$[ebp], 0
	je	SHORT $LN21@PMC_Multip

; 764  :                 return (result);

	mov	eax, DWORD PTR _result$[ebp]
	jmp	SHORT $LN1@PMC_Multip
$LN21@PMC_Multip:

; 765  :             CommitNumber(nz);

	mov	ecx, DWORD PTR _nz$[ebp]
	push	ecx
	call	_CommitNumber
	add	esp, 4
$LN15@PMC_Multip:

; 766  :         }
; 767  :         *o = nz;

	mov	edx, DWORD PTR _o$[ebp]
	mov	eax, DWORD PTR _nz$[ebp]
	mov	DWORD PTR [edx], eax
$LN8@PMC_Multip:

; 768  :     }
; 769  : #ifdef _DEBUG
; 770  :     if ((result = CheckNumber(*o)) != PMC_STATUS_OK)

	mov	ecx, DWORD PTR _o$[ebp]
	mov	edx, DWORD PTR [ecx]
	push	edx
	call	_CheckNumber
	add	esp, 4
	mov	DWORD PTR _result$[ebp], eax
	cmp	DWORD PTR _result$[ebp], 0
	je	SHORT $LN22@PMC_Multip

; 771  :         return (result);

	mov	eax, DWORD PTR _result$[ebp]
	jmp	SHORT $LN1@PMC_Multip
$LN22@PMC_Multip:

; 772  : #endif
; 773  :     return (PMC_STATUS_OK);

	xor	eax, eax
$LN1@PMC_Multip:

; 774  : }

	push	edx
	mov	ecx, ebp
	push	eax
	lea	edx, DWORD PTR $LN27@PMC_Multip
	call	@_RTC_CheckStackVars@8
	pop	eax
	pop	edx
	pop	edi
	add	esp, 48					; 00000030H
	cmp	ebp, esp
	call	__RTC_CheckEsp
	mov	esp, ebp
	pop	ebp
	ret	12					; 0000000cH
	npad	1
$LN27@PMC_Multip:
	DD	2
	DD	$LN26@PMC_Multip
$LN26@PMC_Multip:
	DD	-20					; ffffffecH
	DD	4
	DD	$LN24@PMC_Multip
	DD	-44					; ffffffd4H
	DD	4
	DD	$LN25@PMC_Multip
$LN25@PMC_Multip:
	DB	110					; 0000006eH
	DB	122					; 0000007aH
	DB	95					; 0000005fH
	DB	108					; 0000006cH
	DB	105					; 00000069H
	DB	103					; 00000067H
	DB	104					; 00000068H
	DB	116					; 00000074H
	DB	95					; 0000005fH
	DB	99					; 00000063H
	DB	104					; 00000068H
	DB	101					; 00000065H
	DB	99					; 00000063H
	DB	107					; 0000006bH
	DB	95					; 0000005fH
	DB	99					; 00000063H
	DB	111					; 0000006fH
	DB	100					; 00000064H
	DB	101					; 00000065H
	DB	0
$LN24@PMC_Multip:
	DB	110					; 0000006eH
	DB	122					; 0000007aH
	DB	0
_PMC_Multiply_X_X@12 ENDP
_TEXT	ENDS
; Function compile flags: /Odtp /RTCsu
; File z:\sources\lunor\repos\rougemeilland\palmtree.math.core.implements\palmtree.math.core.implements\pmc_multiply.c
_TEXT	SEGMENT
_nz_light_check_code$1 = -100				; size = 4
_z_bit_count$2 = -92					; size = 4
_y_bit_count$3 = -88					; size = 4
_x_bit_count$4 = -84					; size = 4
_nz_light_check_code$5 = -76				; size = 4
_z_bit_count$6 = -68					; size = 4
_y_bit_count$7 = -64					; size = 4
_nz_light_check_code$8 = -56				; size = 4
_z_bit_count$9 = -48					; size = 4
_y_bit_count$10 = -44					; size = 4
_y_lo$11 = -40						; size = 4
_y_hi$12 = -32						; size = 4
_x_bit_count$13 = -24					; size = 4
_nz$ = -16						; size = 4
_result$ = -8						; size = 4
_nx$ = -4						; size = 4
_x$ = 8							; size = 4
_y$ = 12						; size = 8
_o$ = 20						; size = 4
_PMC_Multiply_X_L@16 PROC

; 548  : {

	push	ebp
	mov	ebp, esp
	sub	esp, 104				; 00000068H
	push	edi
	lea	edi, DWORD PTR [ebp-104]
	mov	ecx, 26					; 0000001aH
	mov	eax, -858993460				; ccccccccH
	rep stosd
	mov	ecx, OFFSET __C53FCF4E_pmc_multiply@c
	call	@__CheckForDebuggerJustMyCode@4

; 549  :     if (__UNIT_TYPE_BIT_COUNT * 2 < sizeof(y) * 8)

	xor	eax, eax
	je	SHORT $LN2@PMC_Multip

; 550  :     {
; 551  :         // _UINT64_T が 2 ワードで表現しきれない処理系には対応しない
; 552  :         return (PMC_STATUS_INTERNAL_ERROR);

	mov	eax, -256				; ffffff00H
	jmp	$LN1@PMC_Multip
$LN2@PMC_Multip:

; 553  :     }
; 554  :     if (x == NULL)

	cmp	DWORD PTR _x$[ebp], 0
	jne	SHORT $LN3@PMC_Multip

; 555  :         return (PMC_STATUS_ARGUMENT_ERROR);

	or	eax, -1
	jmp	$LN1@PMC_Multip
$LN3@PMC_Multip:

; 556  :     if (o == NULL)

	cmp	DWORD PTR _o$[ebp], 0
	jne	SHORT $LN4@PMC_Multip

; 557  :         return (PMC_STATUS_ARGUMENT_ERROR);

	or	eax, -1
	jmp	$LN1@PMC_Multip
$LN4@PMC_Multip:

; 558  :     NUMBER_HEADER* nx = (NUMBER_HEADER*)x;

	mov	ecx, DWORD PTR _x$[ebp]
	mov	DWORD PTR _nx$[ebp], ecx

; 559  :     PMC_STATUS_CODE result;
; 560  :     if ((result = CheckNumber(nx)) != PMC_STATUS_OK)

	mov	edx, DWORD PTR _nx$[ebp]
	push	edx
	call	_CheckNumber
	add	esp, 4
	mov	DWORD PTR _result$[ebp], eax
	cmp	DWORD PTR _result$[ebp], 0
	je	SHORT $LN5@PMC_Multip

; 561  :         return (result);

	mov	eax, DWORD PTR _result$[ebp]
	jmp	$LN1@PMC_Multip
$LN5@PMC_Multip:

; 562  :     NUMBER_HEADER* nz;
; 563  :     if (nx->IS_ZERO)

	mov	eax, DWORD PTR _nx$[ebp]
	mov	ecx, DWORD PTR [eax+16]
	shr	ecx, 1
	and	ecx, 1
	je	SHORT $LN6@PMC_Multip

; 564  :     {
; 565  :         // x が 0 である場合
; 566  : 
; 567  :         // y の値にかかわらず 0 を返す。
; 568  :         *o = &number_zero;

	mov	edx, DWORD PTR _o$[ebp]
	mov	DWORD PTR [edx], OFFSET _number_zero

; 569  :     }

	jmp	$LN7@PMC_Multip
$LN6@PMC_Multip:

; 570  :     else if (nx->IS_ONE)

	mov	eax, DWORD PTR _nx$[ebp]
	mov	ecx, DWORD PTR [eax+16]
	shr	ecx, 2
	and	ecx, 1
	je	SHORT $LN8@PMC_Multip

; 571  :     {
; 572  :         // x が 1 である場合
; 573  :         if (y == 0)

	mov	edx, DWORD PTR _y$[ebp]
	or	edx, DWORD PTR _y$[ebp+4]
	jne	SHORT $LN10@PMC_Multip

; 574  :         {
; 575  :             // y が 0 である場合
; 576  : 
; 577  :             //  0  を返す。
; 578  :             *o = &number_zero;

	mov	eax, DWORD PTR _o$[ebp]
	mov	DWORD PTR [eax], OFFSET _number_zero

; 579  :         }

	jmp	SHORT $LN11@PMC_Multip
$LN10@PMC_Multip:

; 580  :         else
; 581  :         {
; 582  :             // y が 0 ではない場合
; 583  : 
; 584  :             // 乗算結果は y に等しいため、y の値を持つ NUMBER_HEADER 構造体を獲得し、呼び出し元へ返す。
; 585  :             if ((result = From_L_Imp(y, &nz)) != PMC_STATUS_OK)

	lea	ecx, DWORD PTR _nz$[ebp]
	push	ecx
	mov	edx, DWORD PTR _y$[ebp+4]
	push	edx
	mov	eax, DWORD PTR _y$[ebp]
	push	eax
	call	_From_L_Imp
	add	esp, 12					; 0000000cH
	mov	DWORD PTR _result$[ebp], eax
	cmp	DWORD PTR _result$[ebp], 0
	je	SHORT $LN12@PMC_Multip

; 586  :                 return (result);

	mov	eax, DWORD PTR _result$[ebp]
	jmp	$LN1@PMC_Multip
$LN12@PMC_Multip:

; 587  :             *o = nz;

	mov	ecx, DWORD PTR _o$[ebp]
	mov	edx, DWORD PTR _nz$[ebp]
	mov	DWORD PTR [ecx], edx
$LN11@PMC_Multip:

; 588  :         }
; 589  :     }

	jmp	$LN7@PMC_Multip
$LN8@PMC_Multip:

; 590  :     else
; 591  :     {
; 592  :         // x が 0 と 1 のどちらでもない場合
; 593  : 
; 594  :         if (y == 0)

	mov	eax, DWORD PTR _y$[ebp]
	or	eax, DWORD PTR _y$[ebp+4]
	jne	SHORT $LN13@PMC_Multip

; 595  :         {
; 596  :             // y が 0 である場合
; 597  : 
; 598  :             //  0  を返す。
; 599  :             nz = &number_zero;

	mov	DWORD PTR _nz$[ebp], OFFSET _number_zero

; 600  :         }

	jmp	$LN14@PMC_Multip
$LN13@PMC_Multip:

; 601  :         else if (y == 1)

	cmp	DWORD PTR _y$[ebp], 1
	jne	SHORT $LN15@PMC_Multip
	cmp	DWORD PTR _y$[ebp+4], 0
	jne	SHORT $LN15@PMC_Multip

; 602  :         {
; 603  :             // y が 1 である場合
; 604  : 
; 605  :             // 乗算結果は x に等しいため、x の値を持つ NUMBER_HEADER 構造体を獲得し、呼び出し元へ返す。
; 606  :             if ((result = DuplicateNumber(nx, &nz)) != PMC_STATUS_OK)

	lea	ecx, DWORD PTR _nz$[ebp]
	push	ecx
	mov	edx, DWORD PTR _nx$[ebp]
	push	edx
	call	_DuplicateNumber
	add	esp, 8
	mov	DWORD PTR _result$[ebp], eax
	cmp	DWORD PTR _result$[ebp], 0
	je	SHORT $LN17@PMC_Multip

; 607  :                 return (result);

	mov	eax, DWORD PTR _result$[ebp]
	jmp	$LN1@PMC_Multip
$LN17@PMC_Multip:

; 608  :         }

	jmp	$LN14@PMC_Multip
$LN15@PMC_Multip:

; 609  :         else
; 610  :         {
; 611  :             // x と y がともに 0 、1 のどちらでもない場合
; 612  : 
; 613  :             // x と y の積を計算する
; 614  :             if (__UNIT_TYPE_BIT_COUNT < sizeof(y) * 8)

	mov	eax, 1
	test	eax, eax
	je	$LN18@PMC_Multip

; 615  :             {
; 616  :                 // _UINT64_T が 1 ワードで表現しきれない場合
; 617  : 
; 618  :                 __UNIT_TYPE x_bit_count = nx->UNIT_BIT_COUNT;

	mov	ecx, DWORD PTR _nx$[ebp]
	mov	edx, DWORD PTR [ecx+4]
	mov	DWORD PTR _x_bit_count$13[ebp], edx

; 619  :                 _UINT32_T y_hi;
; 620  :                 _UINT32_T y_lo = _FROMDWORDTOWORD(y, &y_hi);

	lea	eax, DWORD PTR _y_hi$12[ebp]
	push	eax
	mov	ecx, DWORD PTR _y$[ebp+4]
	push	ecx
	mov	edx, DWORD PTR _y$[ebp]
	push	edx
	call	__FROMDWORDTOWORD
	add	esp, 12					; 0000000cH
	mov	DWORD PTR _y_lo$11[ebp], eax

; 621  :                 if (y_hi == 0)

	cmp	DWORD PTR _y_hi$12[ebp], 0
	jne	$LN20@PMC_Multip

; 622  :                 {
; 623  :                     // y の値が 32bit で表現可能な場合
; 624  :                     __UNIT_TYPE y_bit_count = sizeof(y_lo) * 8 - _LZCNT_ALT_32(y_lo);

	mov	eax, DWORD PTR _y_lo$11[ebp]
	push	eax
	call	__LZCNT_ALT_32
	add	esp, 4
	mov	ecx, 32					; 00000020H
	sub	ecx, eax
	mov	DWORD PTR _y_bit_count$10[ebp], ecx

; 625  :                     __UNIT_TYPE z_bit_count = x_bit_count + y_bit_count;

	mov	edx, DWORD PTR _x_bit_count$13[ebp]
	add	edx, DWORD PTR _y_bit_count$10[ebp]
	mov	DWORD PTR _z_bit_count$9[ebp], edx

; 626  :                     __UNIT_TYPE nz_light_check_code;
; 627  :                     if ((result = AllocateNumber(&nz, z_bit_count, &nz_light_check_code)) != PMC_STATUS_OK)

	lea	eax, DWORD PTR _nz_light_check_code$8[ebp]
	push	eax
	mov	ecx, DWORD PTR _z_bit_count$9[ebp]
	push	ecx
	lea	edx, DWORD PTR _nz$[ebp]
	push	edx
	call	_AllocateNumber
	add	esp, 12					; 0000000cH
	mov	DWORD PTR _result$[ebp], eax
	cmp	DWORD PTR _result$[ebp], 0
	je	SHORT $LN22@PMC_Multip

; 628  :                         return (result);

	mov	eax, DWORD PTR _result$[ebp]
	jmp	$LN1@PMC_Multip
$LN22@PMC_Multip:

; 629  :                     if ((result = Multiply_X_1W(nx, y_lo, nz)) != PMC_STATUS_OK)

	mov	eax, DWORD PTR _nz$[ebp]
	push	eax
	mov	ecx, DWORD PTR _y_lo$11[ebp]
	push	ecx
	mov	edx, DWORD PTR _nx$[ebp]
	push	edx
	call	_Multiply_X_1W
	add	esp, 12					; 0000000cH
	mov	DWORD PTR _result$[ebp], eax
	cmp	DWORD PTR _result$[ebp], 0
	je	SHORT $LN23@PMC_Multip

; 630  :                     {
; 631  :                         DeallocateNumber(nz);

	mov	eax, DWORD PTR _nz$[ebp]
	push	eax
	call	_DeallocateNumber
	add	esp, 4

; 632  :                         return (result);

	mov	eax, DWORD PTR _result$[ebp]
	jmp	$LN1@PMC_Multip
$LN23@PMC_Multip:

; 633  :                     }
; 634  :                     if ((result = CheckBlockLight(nz->BLOCK, nz_light_check_code)) != PMC_STATUS_OK)

	mov	ecx, DWORD PTR _nz_light_check_code$8[ebp]
	push	ecx
	mov	edx, DWORD PTR _nz$[ebp]
	mov	eax, DWORD PTR [edx+24]
	push	eax
	call	_CheckBlockLight
	add	esp, 8
	mov	DWORD PTR _result$[ebp], eax
	cmp	DWORD PTR _result$[ebp], 0
	je	SHORT $LN24@PMC_Multip

; 635  :                         return (result);

	mov	eax, DWORD PTR _result$[ebp]
	jmp	$LN1@PMC_Multip
$LN24@PMC_Multip:

; 636  :                 }

	jmp	$LN21@PMC_Multip
$LN20@PMC_Multip:

; 637  :                 else
; 638  :                 {
; 639  :                     // y の値が 32bit では表現できない場合
; 640  :                     __UNIT_TYPE y_bit_count = sizeof(y) * 8 - _LZCNT_ALT_32(y_hi);

	mov	ecx, DWORD PTR _y_hi$12[ebp]
	push	ecx
	call	__LZCNT_ALT_32
	add	esp, 4
	mov	edx, 64					; 00000040H
	sub	edx, eax
	mov	DWORD PTR _y_bit_count$7[ebp], edx

; 641  :                     __UNIT_TYPE z_bit_count = x_bit_count + y_bit_count;

	mov	eax, DWORD PTR _x_bit_count$13[ebp]
	add	eax, DWORD PTR _y_bit_count$7[ebp]
	mov	DWORD PTR _z_bit_count$6[ebp], eax

; 642  :                     __UNIT_TYPE nz_light_check_code;
; 643  :                     if ((result = AllocateNumber(&nz, z_bit_count, &nz_light_check_code)) != PMC_STATUS_OK)

	lea	ecx, DWORD PTR _nz_light_check_code$5[ebp]
	push	ecx
	mov	edx, DWORD PTR _z_bit_count$6[ebp]
	push	edx
	lea	eax, DWORD PTR _nz$[ebp]
	push	eax
	call	_AllocateNumber
	add	esp, 12					; 0000000cH
	mov	DWORD PTR _result$[ebp], eax
	cmp	DWORD PTR _result$[ebp], 0
	je	SHORT $LN25@PMC_Multip

; 644  :                         return (result);

	mov	eax, DWORD PTR _result$[ebp]
	jmp	$LN1@PMC_Multip
$LN25@PMC_Multip:

; 645  :                     if ((result = Multiply_X_2W(nx, y_hi, y_lo, nz)) != PMC_STATUS_OK)

	mov	ecx, DWORD PTR _nz$[ebp]
	push	ecx
	mov	edx, DWORD PTR _y_lo$11[ebp]
	push	edx
	mov	eax, DWORD PTR _y_hi$12[ebp]
	push	eax
	mov	ecx, DWORD PTR _nx$[ebp]
	push	ecx
	call	_Multiply_X_2W
	add	esp, 16					; 00000010H
	mov	DWORD PTR _result$[ebp], eax
	cmp	DWORD PTR _result$[ebp], 0
	je	SHORT $LN26@PMC_Multip

; 646  :                     {
; 647  :                         DeallocateNumber(nz);

	mov	edx, DWORD PTR _nz$[ebp]
	push	edx
	call	_DeallocateNumber
	add	esp, 4

; 648  :                         return (result);

	mov	eax, DWORD PTR _result$[ebp]
	jmp	$LN1@PMC_Multip
$LN26@PMC_Multip:

; 649  :                     }
; 650  :                     if ((result = CheckBlockLight(nz->BLOCK, nz_light_check_code)) != PMC_STATUS_OK)

	mov	eax, DWORD PTR _nz_light_check_code$5[ebp]
	push	eax
	mov	ecx, DWORD PTR _nz$[ebp]
	mov	edx, DWORD PTR [ecx+24]
	push	edx
	call	_CheckBlockLight
	add	esp, 8
	mov	DWORD PTR _result$[ebp], eax
	cmp	DWORD PTR _result$[ebp], 0
	je	SHORT $LN21@PMC_Multip

; 651  :                         return (result);

	mov	eax, DWORD PTR _result$[ebp]
	jmp	$LN1@PMC_Multip
$LN21@PMC_Multip:

; 652  :                 }
; 653  :                 CommitNumber(nz);

	mov	eax, DWORD PTR _nz$[ebp]
	push	eax
	call	_CommitNumber
	add	esp, 4

; 654  :             }

	jmp	$LN14@PMC_Multip
$LN18@PMC_Multip:

; 655  :             else
; 656  :             {
; 657  :                 // _UINT64_T が 1 ワードで表現できる場合
; 658  : 
; 659  :                 __UNIT_TYPE x_bit_count = nx->UNIT_BIT_COUNT;

	mov	ecx, DWORD PTR _nx$[ebp]
	mov	edx, DWORD PTR [ecx+4]
	mov	DWORD PTR _x_bit_count$4[ebp], edx

; 660  :                 __UNIT_TYPE y_bit_count = sizeof(y) * 8 - _LZCNT_ALT_UNIT((__UNIT_TYPE)y);

	mov	eax, DWORD PTR _y$[ebp]
	push	eax
	call	__LZCNT_ALT_UNIT
	add	esp, 4
	mov	ecx, 64					; 00000040H
	sub	ecx, eax
	mov	DWORD PTR _y_bit_count$3[ebp], ecx

; 661  :                 __UNIT_TYPE z_bit_count = x_bit_count + y_bit_count;

	mov	edx, DWORD PTR _x_bit_count$4[ebp]
	add	edx, DWORD PTR _y_bit_count$3[ebp]
	mov	DWORD PTR _z_bit_count$2[ebp], edx

; 662  :                 __UNIT_TYPE nz_light_check_code;
; 663  :                 if ((result = AllocateNumber(&nz, z_bit_count, &nz_light_check_code)) != PMC_STATUS_OK)

	lea	eax, DWORD PTR _nz_light_check_code$1[ebp]
	push	eax
	mov	ecx, DWORD PTR _z_bit_count$2[ebp]
	push	ecx
	lea	edx, DWORD PTR _nz$[ebp]
	push	edx
	call	_AllocateNumber
	add	esp, 12					; 0000000cH
	mov	DWORD PTR _result$[ebp], eax
	cmp	DWORD PTR _result$[ebp], 0
	je	SHORT $LN28@PMC_Multip

; 664  :                     return (result);

	mov	eax, DWORD PTR _result$[ebp]
	jmp	$LN1@PMC_Multip
$LN28@PMC_Multip:

; 665  :                 if ((result = Multiply_X_1W(nx, (__UNIT_TYPE)y, nz)) != PMC_STATUS_OK)

	mov	eax, DWORD PTR _nz$[ebp]
	push	eax
	mov	ecx, DWORD PTR _y$[ebp]
	push	ecx
	mov	edx, DWORD PTR _nx$[ebp]
	push	edx
	call	_Multiply_X_1W
	add	esp, 12					; 0000000cH
	mov	DWORD PTR _result$[ebp], eax
	cmp	DWORD PTR _result$[ebp], 0
	je	SHORT $LN29@PMC_Multip

; 666  :                 {
; 667  :                     DeallocateNumber(nz);

	mov	eax, DWORD PTR _nz$[ebp]
	push	eax
	call	_DeallocateNumber
	add	esp, 4

; 668  :                     return (result);

	mov	eax, DWORD PTR _result$[ebp]
	jmp	SHORT $LN1@PMC_Multip
$LN29@PMC_Multip:

; 669  :                 }
; 670  :                 if ((result = CheckBlockLight(nz->BLOCK, nz_light_check_code)) != PMC_STATUS_OK)

	mov	ecx, DWORD PTR _nz_light_check_code$1[ebp]
	push	ecx
	mov	edx, DWORD PTR _nz$[ebp]
	mov	eax, DWORD PTR [edx+24]
	push	eax
	call	_CheckBlockLight
	add	esp, 8
	mov	DWORD PTR _result$[ebp], eax
	cmp	DWORD PTR _result$[ebp], 0
	je	SHORT $LN30@PMC_Multip

; 671  :                     return (result);

	mov	eax, DWORD PTR _result$[ebp]
	jmp	SHORT $LN1@PMC_Multip
$LN30@PMC_Multip:

; 672  :                 CommitNumber(nz);

	mov	ecx, DWORD PTR _nz$[ebp]
	push	ecx
	call	_CommitNumber
	add	esp, 4
$LN14@PMC_Multip:

; 673  :             }
; 674  : 
; 675  :         }
; 676  :         *o = nz;

	mov	edx, DWORD PTR _o$[ebp]
	mov	eax, DWORD PTR _nz$[ebp]
	mov	DWORD PTR [edx], eax
$LN7@PMC_Multip:

; 677  :     }
; 678  : #ifdef _DEBUG
; 679  :     if ((result = CheckNumber(*o)) != PMC_STATUS_OK)

	mov	ecx, DWORD PTR _o$[ebp]
	mov	edx, DWORD PTR [ecx]
	push	edx
	call	_CheckNumber
	add	esp, 4
	mov	DWORD PTR _result$[ebp], eax
	cmp	DWORD PTR _result$[ebp], 0
	je	SHORT $LN31@PMC_Multip

; 680  :         return (result);

	mov	eax, DWORD PTR _result$[ebp]
	jmp	SHORT $LN1@PMC_Multip
$LN31@PMC_Multip:

; 681  : #endif
; 682  :     return (PMC_STATUS_OK);

	xor	eax, eax
$LN1@PMC_Multip:

; 683  : }

	push	edx
	mov	ecx, ebp
	push	eax
	lea	edx, DWORD PTR $LN39@PMC_Multip
	call	@_RTC_CheckStackVars@8
	pop	eax
	pop	edx
	pop	edi
	add	esp, 104				; 00000068H
	cmp	ebp, esp
	call	__RTC_CheckEsp
	mov	esp, ebp
	pop	ebp
	ret	16					; 00000010H
$LN39@PMC_Multip:
	DD	5
	DD	$LN38@PMC_Multip
$LN38@PMC_Multip:
	DD	-16					; fffffff0H
	DD	4
	DD	$LN33@PMC_Multip
	DD	-32					; ffffffe0H
	DD	4
	DD	$LN34@PMC_Multip
	DD	-56					; ffffffc8H
	DD	4
	DD	$LN35@PMC_Multip
	DD	-76					; ffffffb4H
	DD	4
	DD	$LN36@PMC_Multip
	DD	-100					; ffffff9cH
	DD	4
	DD	$LN37@PMC_Multip
$LN37@PMC_Multip:
	DB	110					; 0000006eH
	DB	122					; 0000007aH
	DB	95					; 0000005fH
	DB	108					; 0000006cH
	DB	105					; 00000069H
	DB	103					; 00000067H
	DB	104					; 00000068H
	DB	116					; 00000074H
	DB	95					; 0000005fH
	DB	99					; 00000063H
	DB	104					; 00000068H
	DB	101					; 00000065H
	DB	99					; 00000063H
	DB	107					; 0000006bH
	DB	95					; 0000005fH
	DB	99					; 00000063H
	DB	111					; 0000006fH
	DB	100					; 00000064H
	DB	101					; 00000065H
	DB	0
$LN36@PMC_Multip:
	DB	110					; 0000006eH
	DB	122					; 0000007aH
	DB	95					; 0000005fH
	DB	108					; 0000006cH
	DB	105					; 00000069H
	DB	103					; 00000067H
	DB	104					; 00000068H
	DB	116					; 00000074H
	DB	95					; 0000005fH
	DB	99					; 00000063H
	DB	104					; 00000068H
	DB	101					; 00000065H
	DB	99					; 00000063H
	DB	107					; 0000006bH
	DB	95					; 0000005fH
	DB	99					; 00000063H
	DB	111					; 0000006fH
	DB	100					; 00000064H
	DB	101					; 00000065H
	DB	0
$LN35@PMC_Multip:
	DB	110					; 0000006eH
	DB	122					; 0000007aH
	DB	95					; 0000005fH
	DB	108					; 0000006cH
	DB	105					; 00000069H
	DB	103					; 00000067H
	DB	104					; 00000068H
	DB	116					; 00000074H
	DB	95					; 0000005fH
	DB	99					; 00000063H
	DB	104					; 00000068H
	DB	101					; 00000065H
	DB	99					; 00000063H
	DB	107					; 0000006bH
	DB	95					; 0000005fH
	DB	99					; 00000063H
	DB	111					; 0000006fH
	DB	100					; 00000064H
	DB	101					; 00000065H
	DB	0
$LN34@PMC_Multip:
	DB	121					; 00000079H
	DB	95					; 0000005fH
	DB	104					; 00000068H
	DB	105					; 00000069H
	DB	0
$LN33@PMC_Multip:
	DB	110					; 0000006eH
	DB	122					; 0000007aH
	DB	0
_PMC_Multiply_X_L@16 ENDP
_TEXT	ENDS
; Function compile flags: /Odtp /RTCsu
; File z:\sources\lunor\repos\rougemeilland\palmtree.math.core.implements\palmtree.math.core.implements\pmc_multiply.c
_TEXT	SEGMENT
_nz_light_check_code$1 = -40				; size = 4
_z_bit_count$2 = -32					; size = 4
_y_bit_count$3 = -28					; size = 4
_x_bit_count$4 = -24					; size = 4
_nz$ = -16						; size = 4
_result$ = -8						; size = 4
_nx$ = -4						; size = 4
_x$ = 8							; size = 4
_y$ = 12						; size = 4
_o$ = 16						; size = 4
_PMC_Multiply_X_I@12 PROC

; 457  : {

	push	ebp
	mov	ebp, esp
	sub	esp, 44					; 0000002cH
	push	edi
	lea	edi, DWORD PTR [ebp-44]
	mov	ecx, 11					; 0000000bH
	mov	eax, -858993460				; ccccccccH
	rep stosd
	mov	ecx, OFFSET __C53FCF4E_pmc_multiply@c
	call	@__CheckForDebuggerJustMyCode@4

; 458  :     if (__UNIT_TYPE_BIT_COUNT < sizeof(y) * 8)

	xor	eax, eax
	je	SHORT $LN2@PMC_Multip

; 459  :     {
; 460  :         // _UINT32_T が 1 ワードで表現しきれない処理系には対応しない
; 461  :         return (PMC_STATUS_INTERNAL_ERROR);

	mov	eax, -256				; ffffff00H
	jmp	$LN1@PMC_Multip
$LN2@PMC_Multip:

; 462  :     }
; 463  :     if (x == NULL)

	cmp	DWORD PTR _x$[ebp], 0
	jne	SHORT $LN3@PMC_Multip

; 464  :         return (PMC_STATUS_ARGUMENT_ERROR);

	or	eax, -1
	jmp	$LN1@PMC_Multip
$LN3@PMC_Multip:

; 465  :     if (o == NULL)

	cmp	DWORD PTR _o$[ebp], 0
	jne	SHORT $LN4@PMC_Multip

; 466  :         return (PMC_STATUS_ARGUMENT_ERROR);

	or	eax, -1
	jmp	$LN1@PMC_Multip
$LN4@PMC_Multip:

; 467  :     NUMBER_HEADER* nx = (NUMBER_HEADER*)x;

	mov	ecx, DWORD PTR _x$[ebp]
	mov	DWORD PTR _nx$[ebp], ecx

; 468  :     PMC_STATUS_CODE result;
; 469  :     if ((result = CheckNumber(nx)) != PMC_STATUS_OK)

	mov	edx, DWORD PTR _nx$[ebp]
	push	edx
	call	_CheckNumber
	add	esp, 4
	mov	DWORD PTR _result$[ebp], eax
	cmp	DWORD PTR _result$[ebp], 0
	je	SHORT $LN5@PMC_Multip

; 470  :         return (result);

	mov	eax, DWORD PTR _result$[ebp]
	jmp	$LN1@PMC_Multip
$LN5@PMC_Multip:

; 471  :     NUMBER_HEADER* nz;
; 472  :     if (nx->IS_ZERO)

	mov	eax, DWORD PTR _nx$[ebp]
	mov	ecx, DWORD PTR [eax+16]
	shr	ecx, 1
	and	ecx, 1
	je	SHORT $LN6@PMC_Multip

; 473  :     {
; 474  :         // x が 0 である場合
; 475  : 
; 476  :         // y の値にかかわらず 0 を返す。
; 477  :         *o = &number_zero;

	mov	edx, DWORD PTR _o$[ebp]
	mov	DWORD PTR [edx], OFFSET _number_zero

; 478  :     }

	jmp	$LN7@PMC_Multip
$LN6@PMC_Multip:

; 479  :     else if (nx->IS_ONE)

	mov	eax, DWORD PTR _nx$[ebp]
	mov	ecx, DWORD PTR [eax+16]
	shr	ecx, 2
	and	ecx, 1
	je	SHORT $LN8@PMC_Multip

; 480  :     {
; 481  :         // x が 1 である場合
; 482  :         if (y == 0)

	cmp	DWORD PTR _y$[ebp], 0
	jne	SHORT $LN10@PMC_Multip

; 483  :         {
; 484  :             // y が 0 である場合
; 485  : 
; 486  :             //  0  を返す。
; 487  :             *o = &number_zero;

	mov	edx, DWORD PTR _o$[ebp]
	mov	DWORD PTR [edx], OFFSET _number_zero

; 488  :         }

	jmp	SHORT $LN11@PMC_Multip
$LN10@PMC_Multip:

; 489  :         else
; 490  :         {
; 491  :             // y が 0 ではない場合
; 492  : 
; 493  :             // 乗算結果は y に等しいため、y の値を持つ NUMBER_HEADER 構造体を獲得し、呼び出し元へ返す。
; 494  :             if ((result = From_I_Imp(y, &nz)) != PMC_STATUS_OK)

	lea	eax, DWORD PTR _nz$[ebp]
	push	eax
	mov	ecx, DWORD PTR _y$[ebp]
	push	ecx
	call	_From_I_Imp
	add	esp, 8
	mov	DWORD PTR _result$[ebp], eax
	cmp	DWORD PTR _result$[ebp], 0
	je	SHORT $LN12@PMC_Multip

; 495  :                 return (result);

	mov	eax, DWORD PTR _result$[ebp]
	jmp	$LN1@PMC_Multip
$LN12@PMC_Multip:

; 496  :             *o = nz;

	mov	edx, DWORD PTR _o$[ebp]
	mov	eax, DWORD PTR _nz$[ebp]
	mov	DWORD PTR [edx], eax
$LN11@PMC_Multip:

; 497  :         }
; 498  :     }

	jmp	$LN7@PMC_Multip
$LN8@PMC_Multip:

; 499  :     else
; 500  :     {
; 501  :         // x が 0 と 1 のどちらでもない場合
; 502  : 
; 503  :         if (y == 0)

	cmp	DWORD PTR _y$[ebp], 0
	jne	SHORT $LN13@PMC_Multip

; 504  :         {
; 505  :             // y が 0 である場合
; 506  : 
; 507  :             //  0  を返す。
; 508  :             nz = &number_zero;

	mov	DWORD PTR _nz$[ebp], OFFSET _number_zero

; 509  :         }

	jmp	$LN14@PMC_Multip
$LN13@PMC_Multip:

; 510  :         else if (y == 1)

	cmp	DWORD PTR _y$[ebp], 1
	jne	SHORT $LN15@PMC_Multip

; 511  :         {
; 512  :             // y が 1 である場合
; 513  : 
; 514  :             // 乗算結果は x に等しいため、x の値を持つ NUMBER_HEADER 構造体を獲得し、呼び出し元へ返す。
; 515  :             if ((result = DuplicateNumber(nx, &nz)) != PMC_STATUS_OK)

	lea	ecx, DWORD PTR _nz$[ebp]
	push	ecx
	mov	edx, DWORD PTR _nx$[ebp]
	push	edx
	call	_DuplicateNumber
	add	esp, 8
	mov	DWORD PTR _result$[ebp], eax
	cmp	DWORD PTR _result$[ebp], 0
	je	SHORT $LN17@PMC_Multip

; 516  :                 return (result);

	mov	eax, DWORD PTR _result$[ebp]
	jmp	$LN1@PMC_Multip
$LN17@PMC_Multip:

; 517  :         }

	jmp	$LN14@PMC_Multip
$LN15@PMC_Multip:

; 518  :         else
; 519  :         {
; 520  :             // x と y がともに 0 、1 のどちらでもない場合
; 521  : 
; 522  :             // x と y の積を計算する
; 523  :             __UNIT_TYPE x_bit_count = nx->UNIT_BIT_COUNT;

	mov	eax, DWORD PTR _nx$[ebp]
	mov	ecx, DWORD PTR [eax+4]
	mov	DWORD PTR _x_bit_count$4[ebp], ecx

; 524  :             __UNIT_TYPE y_bit_count = sizeof(y) * 8 - _LZCNT_ALT_32(y);

	mov	edx, DWORD PTR _y$[ebp]
	push	edx
	call	__LZCNT_ALT_32
	add	esp, 4
	mov	ecx, 32					; 00000020H
	sub	ecx, eax
	mov	DWORD PTR _y_bit_count$3[ebp], ecx

; 525  :             __UNIT_TYPE z_bit_count = x_bit_count + y_bit_count;

	mov	edx, DWORD PTR _x_bit_count$4[ebp]
	add	edx, DWORD PTR _y_bit_count$3[ebp]
	mov	DWORD PTR _z_bit_count$2[ebp], edx

; 526  :             __UNIT_TYPE nz_light_check_code;
; 527  :             if ((result = AllocateNumber(&nz, z_bit_count, &nz_light_check_code)) != PMC_STATUS_OK)

	lea	eax, DWORD PTR _nz_light_check_code$1[ebp]
	push	eax
	mov	ecx, DWORD PTR _z_bit_count$2[ebp]
	push	ecx
	lea	edx, DWORD PTR _nz$[ebp]
	push	edx
	call	_AllocateNumber
	add	esp, 12					; 0000000cH
	mov	DWORD PTR _result$[ebp], eax
	cmp	DWORD PTR _result$[ebp], 0
	je	SHORT $LN18@PMC_Multip

; 528  :                 return (result);

	mov	eax, DWORD PTR _result$[ebp]
	jmp	$LN1@PMC_Multip
$LN18@PMC_Multip:

; 529  :             if ((result = Multiply_X_1W(nx, y, nz)) != PMC_STATUS_OK)

	mov	eax, DWORD PTR _nz$[ebp]
	push	eax
	mov	ecx, DWORD PTR _y$[ebp]
	push	ecx
	mov	edx, DWORD PTR _nx$[ebp]
	push	edx
	call	_Multiply_X_1W
	add	esp, 12					; 0000000cH
	mov	DWORD PTR _result$[ebp], eax
	cmp	DWORD PTR _result$[ebp], 0
	je	SHORT $LN19@PMC_Multip

; 530  :             {
; 531  :                 DeallocateNumber(nz);

	mov	eax, DWORD PTR _nz$[ebp]
	push	eax
	call	_DeallocateNumber
	add	esp, 4

; 532  :                 return (result);

	mov	eax, DWORD PTR _result$[ebp]
	jmp	SHORT $LN1@PMC_Multip
$LN19@PMC_Multip:

; 533  :             }
; 534  :             if ((result = CheckBlockLight(nz->BLOCK, nz_light_check_code)) != PMC_STATUS_OK)

	mov	ecx, DWORD PTR _nz_light_check_code$1[ebp]
	push	ecx
	mov	edx, DWORD PTR _nz$[ebp]
	mov	eax, DWORD PTR [edx+24]
	push	eax
	call	_CheckBlockLight
	add	esp, 8
	mov	DWORD PTR _result$[ebp], eax
	cmp	DWORD PTR _result$[ebp], 0
	je	SHORT $LN20@PMC_Multip

; 535  :                 return (result);

	mov	eax, DWORD PTR _result$[ebp]
	jmp	SHORT $LN1@PMC_Multip
$LN20@PMC_Multip:

; 536  :             CommitNumber(nz);

	mov	ecx, DWORD PTR _nz$[ebp]
	push	ecx
	call	_CommitNumber
	add	esp, 4
$LN14@PMC_Multip:

; 537  :         }
; 538  :         *o = nz;

	mov	edx, DWORD PTR _o$[ebp]
	mov	eax, DWORD PTR _nz$[ebp]
	mov	DWORD PTR [edx], eax
$LN7@PMC_Multip:

; 539  :     }
; 540  : #ifdef _DEBUG
; 541  :     if ((result = CheckNumber(*o)) != PMC_STATUS_OK)

	mov	ecx, DWORD PTR _o$[ebp]
	mov	edx, DWORD PTR [ecx]
	push	edx
	call	_CheckNumber
	add	esp, 4
	mov	DWORD PTR _result$[ebp], eax
	cmp	DWORD PTR _result$[ebp], 0
	je	SHORT $LN21@PMC_Multip

; 542  :         return (result);

	mov	eax, DWORD PTR _result$[ebp]
	jmp	SHORT $LN1@PMC_Multip
$LN21@PMC_Multip:

; 543  : #endif
; 544  :     return (PMC_STATUS_OK);

	xor	eax, eax
$LN1@PMC_Multip:

; 545  : }

	push	edx
	mov	ecx, ebp
	push	eax
	lea	edx, DWORD PTR $LN26@PMC_Multip
	call	@_RTC_CheckStackVars@8
	pop	eax
	pop	edx
	pop	edi
	add	esp, 44					; 0000002cH
	cmp	ebp, esp
	call	__RTC_CheckEsp
	mov	esp, ebp
	pop	ebp
	ret	12					; 0000000cH
	npad	1
$LN26@PMC_Multip:
	DD	2
	DD	$LN25@PMC_Multip
$LN25@PMC_Multip:
	DD	-16					; fffffff0H
	DD	4
	DD	$LN23@PMC_Multip
	DD	-40					; ffffffd8H
	DD	4
	DD	$LN24@PMC_Multip
$LN24@PMC_Multip:
	DB	110					; 0000006eH
	DB	122					; 0000007aH
	DB	95					; 0000005fH
	DB	108					; 0000006cH
	DB	105					; 00000069H
	DB	103					; 00000067H
	DB	104					; 00000068H
	DB	116					; 00000074H
	DB	95					; 0000005fH
	DB	99					; 00000063H
	DB	104					; 00000068H
	DB	101					; 00000065H
	DB	99					; 00000063H
	DB	107					; 0000006bH
	DB	95					; 0000005fH
	DB	99					; 00000063H
	DB	111					; 0000006fH
	DB	100					; 00000064H
	DB	101					; 00000065H
	DB	0
$LN23@PMC_Multip:
	DB	110					; 0000006eH
	DB	122					; 0000007aH
	DB	0
_PMC_Multiply_X_I@12 ENDP
_TEXT	ENDS
; Function compile flags: /Odtp /RTCsu
; File z:\sources\lunor\repos\rougemeilland\palmtree.math.core.implements\palmtree.math.core.implements\pmc_multiply.c
_TEXT	SEGMENT
_feature$ = 8						; size = 4
_Initialize_Multiply PROC

; 777  : {

	push	ebp
	mov	ebp, esp
	mov	ecx, OFFSET __C53FCF4E_pmc_multiply@c
	call	@__CheckForDebuggerJustMyCode@4

; 778  :     if (feature->PROCESSOR_FEATURE_ADX && feature->PROCESSOR_FEATURE_BMI2)

	mov	eax, DWORD PTR _feature$[ebp]
	mov	ecx, DWORD PTR [eax]
	shr	ecx, 1
	and	ecx, 1
	je	SHORT $LN2@Initialize
	mov	edx, DWORD PTR _feature$[ebp]
	mov	eax, DWORD PTR [edx]
	shr	eax, 3
	and	eax, 1
	je	SHORT $LN2@Initialize

; 779  :     {
; 780  :         fp_Multiply_X_1W = Multiply_X_1W_using_MULX_ADCX;

	mov	DWORD PTR _fp_Multiply_X_1W, OFFSET _Multiply_X_1W_using_MULX_ADCX

; 781  :         fp_Multiply_X_2W = Multiply_X_2W_using_MULX_ADCX;

	mov	DWORD PTR _fp_Multiply_X_2W, OFFSET _Multiply_X_2W_using_MULX_ADCX

; 782  :         fp_Multiply_X_X = Multiply_X_X_using_MULX_ADCX;

	mov	DWORD PTR _fp_Multiply_X_X, OFFSET _Multiply_X_X_using_MULX_ADCX

; 783  :     }

	jmp	SHORT $LN3@Initialize
$LN2@Initialize:

; 784  :     else
; 785  :     {
; 786  :         fp_Multiply_X_1W = Multiply_X_1W_using_MUL_ADC;

	mov	DWORD PTR _fp_Multiply_X_1W, OFFSET _Multiply_X_1W_using_MUL_ADC

; 787  :         fp_Multiply_X_2W = Multiply_X_2W_using_MUL_ADC;

	mov	DWORD PTR _fp_Multiply_X_2W, OFFSET _Multiply_X_2W_using_MUL_ADC

; 788  :         fp_Multiply_X_X = Multiply_X_X_using_MUL_ADC;

	mov	DWORD PTR _fp_Multiply_X_X, OFFSET _Multiply_X_X_using_MUL_ADC
$LN3@Initialize:

; 789  :     }
; 790  :     return (PMC_STATUS_OK);

	xor	eax, eax

; 791  : }

	cmp	ebp, esp
	call	__RTC_CheckEsp
	pop	ebp
	ret	0
_Initialize_Multiply ENDP
_TEXT	ENDS
END
