; Listing generated by Microsoft (R) Optimizing Compiler Version 19.16.27026.1 

	TITLE	Z:\Sources\Lunor\Repos\rougemeilland\Palmtree.Math.Core.Implements\Palmtree.Math.Core.Implements\pmc_to.c
	.686P
	.XMM
	include listing.inc
	.model	flat

INCLUDELIB MSVCRTD
INCLUDELIB OLDNAMES

msvcjmc	SEGMENT
__7B7A869E_ctype@h DB 01H
__457DD326_basetsd@h DB 01H
__4384A2D9_corecrt_memcpy_s@h DB 01H
__4E51A221_corecrt_wstring@h DB 01H
__2140C079_string@h DB 01H
__1887E595_winnt@h DB 01H
__9FC7C64B_processthreadsapi@h DB 01H
__FA470AEC_memoryapi@h DB 01H
__F37DAFF1_winerror@h DB 01H
__7A450CCC_winbase@h DB 01H
__B4B40122_winioctl@h DB 01H
__86261D59_stralign@h DB 01H
__4522B509_pmc_internal@h DB 01H
__83853269_pmc_to@c DB 01H
msvcjmc	ENDS
PUBLIC	_Initialize_To
PUBLIC	_PMC_To_X_I@8
PUBLIC	_PMC_To_X_L@8
PUBLIC	_PMC_To_X_B@16
PUBLIC	__JustMyCode_Default
EXTRN	_CheckNumber:PROC
EXTRN	@__CheckForDebuggerJustMyCode@4:PROC
EXTRN	__RTC_CheckEsp:PROC
EXTRN	__RTC_InitBase:PROC
EXTRN	__RTC_Shutdown:PROC
EXTRN	__allshl:PROC
;	COMDAT rtc$TMZ
rtc$TMZ	SEGMENT
__RTC_Shutdown.rtc$TMZ DD FLAT:__RTC_Shutdown
rtc$TMZ	ENDS
;	COMDAT rtc$IMZ
rtc$IMZ	SEGMENT
__RTC_InitBase.rtc$IMZ DD FLAT:__RTC_InitBase
rtc$IMZ	ENDS
; Function compile flags: /Odt
;	COMDAT __JustMyCode_Default
_TEXT	SEGMENT
__JustMyCode_Default PROC				; COMDAT
	push	ebp
	mov	ebp, esp
	pop	ebp
	ret	0
__JustMyCode_Default ENDP
_TEXT	ENDS
; Function compile flags: /Odtp /RTCsu
; File z:\sources\lunor\repos\rougemeilland\palmtree.math.core.implements\palmtree.math.core.implements\pmc_internal.h
_TEXT	SEGMENT
_u$ = 8							; size = 4
_v$ = 12						; size = 4
__DIVIDE_CEILING_SIZE PROC

; 428  : {

	push	ebp
	mov	ebp, esp
	mov	ecx, OFFSET __4522B509_pmc_internal@h
	call	@__CheckForDebuggerJustMyCode@4

; 429  :     return ((u + v - 1) / v);

	mov	eax, DWORD PTR _v$[ebp]
	mov	ecx, DWORD PTR _u$[ebp]
	lea	eax, DWORD PTR [ecx+eax-1]
	xor	edx, edx
	div	DWORD PTR _v$[ebp]

; 430  : }

	cmp	ebp, esp
	call	__RTC_CheckEsp
	pop	ebp
	ret	0
__DIVIDE_CEILING_SIZE ENDP
_TEXT	ENDS
; Function compile flags: /Odtp /RTCsu
; File z:\sources\lunor\repos\rougemeilland\palmtree.math.core.implements\palmtree.math.core.implements\pmc_internal.h
_TEXT	SEGMENT
_value_high$ = 8					; size = 4
_value_low$ = 12					; size = 4
__FROMWORDTODWORD PROC

; 407  : {

	push	ebp
	mov	ebp, esp
	mov	ecx, OFFSET __4522B509_pmc_internal@h
	call	@__CheckForDebuggerJustMyCode@4

; 408  :     return (((_UINT64_T)value_high << 32) | value_low);

	xor	edx, edx
	mov	eax, DWORD PTR _value_high$[ebp]
	mov	cl, 32					; 00000020H
	call	__allshl
	xor	ecx, ecx
	or	eax, DWORD PTR _value_low$[ebp]
	or	edx, ecx

; 409  : }

	cmp	ebp, esp
	call	__RTC_CheckEsp
	pop	ebp
	ret	0
__FROMWORDTODWORD ENDP
_TEXT	ENDS
; Function compile flags: /Odtp /RTCsu
; File z:\sources\lunor\repos\rougemeilland\palmtree.math.core.implements\palmtree.math.core.implements\pmc_internal.h
_TEXT	SEGMENT
_d$ = 8							; size = 4
_s$ = 12						; size = 4
_count$ = 16						; size = 4
__COPY_MEMORY_BYTE PROC

; 279  : {

	push	ebp
	mov	ebp, esp
	push	esi
	push	edi
	mov	ecx, OFFSET __4522B509_pmc_internal@h
	call	@__CheckForDebuggerJustMyCode@4

; 280  :     __movsb(d, s, count);

	mov	edi, DWORD PTR _d$[ebp]
	mov	esi, DWORD PTR _s$[ebp]
	mov	ecx, DWORD PTR _count$[ebp]
	rep movsb

; 281  : }

	pop	edi
	pop	esi
	cmp	ebp, esp
	call	__RTC_CheckEsp
	pop	ebp
	ret	0
__COPY_MEMORY_BYTE ENDP
_TEXT	ENDS
; Function compile flags: /Odtp /RTCsu
; File z:\sources\lunor\repos\rougemeilland\palmtree.math.core.implements\palmtree.math.core.implements\pmc_to.c
_TEXT	SEGMENT
_result$ = -8						; size = 4
_np$ = -4						; size = 4
_p$ = 8							; size = 4
_buffer$ = 12						; size = 4
_buffer_size$ = 16					; size = 4
_count$ = 20						; size = 4
_PMC_To_X_B@16 PROC

; 92   : {

	push	ebp
	mov	ebp, esp
	sub	esp, 8
	mov	DWORD PTR [ebp-8], -858993460		; ccccccccH
	mov	DWORD PTR [ebp-4], -858993460		; ccccccccH
	mov	ecx, OFFSET __83853269_pmc_to@c
	call	@__CheckForDebuggerJustMyCode@4

; 93   :     if (buffer == NULL)

	cmp	DWORD PTR _buffer$[ebp], 0
	jne	SHORT $LN2@PMC_To_X_B

; 94   :         return (PMC_STATUS_ARGUMENT_ERROR);

	or	eax, -1
	jmp	$LN1@PMC_To_X_B
$LN2@PMC_To_X_B:

; 95   :     NUMBER_HEADER* np = (NUMBER_HEADER*)p;

	mov	eax, DWORD PTR _p$[ebp]
	mov	DWORD PTR _np$[ebp], eax

; 96   :     PMC_STATUS_CODE result;
; 97   :     if ((result = CheckNumber(np)) != PMC_STATUS_OK)

	mov	ecx, DWORD PTR _np$[ebp]
	push	ecx
	call	_CheckNumber
	add	esp, 4
	mov	DWORD PTR _result$[ebp], eax
	cmp	DWORD PTR _result$[ebp], 0
	je	SHORT $LN3@PMC_To_X_B

; 98   :         return (result);

	mov	eax, DWORD PTR _result$[ebp]
	jmp	SHORT $LN1@PMC_To_X_B
$LN3@PMC_To_X_B:

; 99   :     if (np->UNIT_BIT_COUNT > sizeof(*buffer) * 8 * buffer_size)

	mov	edx, DWORD PTR _buffer_size$[ebp]
	shl	edx, 3
	mov	eax, DWORD PTR _np$[ebp]
	cmp	DWORD PTR [eax+4], edx
	jbe	SHORT $LN4@PMC_To_X_B

; 100  :         return (PMC_STATUS_INSUFFICIENT_BUFFER);

	mov	eax, -4					; fffffffcH
	jmp	SHORT $LN1@PMC_To_X_B
$LN4@PMC_To_X_B:

; 101  :     if (np->IS_ZERO)

	mov	ecx, DWORD PTR _np$[ebp]
	mov	edx, DWORD PTR [ecx+16]
	shr	edx, 1
	and	edx, 1
	je	SHORT $LN5@PMC_To_X_B

; 102  :     {
; 103  :         buffer[0] = 0;

	mov	eax, 1
	imul	ecx, eax, 0
	mov	edx, DWORD PTR _buffer$[ebp]
	mov	BYTE PTR [edx+ecx], 0

; 104  :         *count = 1;

	mov	eax, DWORD PTR _count$[ebp]
	mov	DWORD PTR [eax], 1

; 105  :     }

	jmp	SHORT $LN6@PMC_To_X_B
$LN5@PMC_To_X_B:

; 106  :     else
; 107  :     {
; 108  :         _COPY_MEMORY_BYTE(buffer, np->BLOCK, _DIVIDE_CEILING_SIZE(np->UNIT_BIT_COUNT, 8));

	push	8
	mov	ecx, DWORD PTR _np$[ebp]
	mov	edx, DWORD PTR [ecx+4]
	push	edx
	call	__DIVIDE_CEILING_SIZE
	add	esp, 8
	push	eax
	mov	eax, DWORD PTR _np$[ebp]
	mov	ecx, DWORD PTR [eax+24]
	push	ecx
	mov	edx, DWORD PTR _buffer$[ebp]
	push	edx
	call	__COPY_MEMORY_BYTE
	add	esp, 12					; 0000000cH

; 109  :         *count = _DIVIDE_CEILING_SIZE(np->UNIT_BIT_COUNT, 8);

	push	8
	mov	eax, DWORD PTR _np$[ebp]
	mov	ecx, DWORD PTR [eax+4]
	push	ecx
	call	__DIVIDE_CEILING_SIZE
	add	esp, 8
	mov	edx, DWORD PTR _count$[ebp]
	mov	DWORD PTR [edx], eax
$LN6@PMC_To_X_B:

; 110  :     }
; 111  :     return (PMC_STATUS_OK);

	xor	eax, eax
$LN1@PMC_To_X_B:

; 112  : }

	add	esp, 8
	cmp	ebp, esp
	call	__RTC_CheckEsp
	mov	esp, ebp
	pop	ebp
	ret	16					; 00000010H
_PMC_To_X_B@16 ENDP
_TEXT	ENDS
; Function compile flags: /Odtp /RTCsu
; File z:\sources\lunor\repos\rougemeilland\palmtree.math.core.implements\palmtree.math.core.implements\pmc_to.c
_TEXT	SEGMENT
_result$ = -8						; size = 4
_np$ = -4						; size = 4
_p$ = 8							; size = 4
_o$ = 12						; size = 4
_PMC_To_X_L@8 PROC

; 58   : {

	push	ebp
	mov	ebp, esp
	sub	esp, 8
	mov	DWORD PTR [ebp-8], -858993460		; ccccccccH
	mov	DWORD PTR [ebp-4], -858993460		; ccccccccH
	mov	ecx, OFFSET __83853269_pmc_to@c
	call	@__CheckForDebuggerJustMyCode@4

; 59   :     if (sizeof(__UNIT_TYPE) * 2 < sizeof(*o))

	xor	eax, eax
	je	SHORT $LN2@PMC_To_X_L

; 60   :     {
; 61   :         // 32bit未満のCPUは未対応
; 62   :         return (PMC_STATUS_NOT_SUPPORTED);

	mov	eax, -6					; fffffffaH
	jmp	$LN1@PMC_To_X_L
$LN2@PMC_To_X_L:

; 63   :     }
; 64   :     NUMBER_HEADER* np = (NUMBER_HEADER*)p;

	mov	ecx, DWORD PTR _p$[ebp]
	mov	DWORD PTR _np$[ebp], ecx

; 65   :     PMC_STATUS_CODE result;
; 66   :     if ((result = CheckNumber(np)) != PMC_STATUS_OK)

	mov	edx, DWORD PTR _np$[ebp]
	push	edx
	call	_CheckNumber
	add	esp, 4
	mov	DWORD PTR _result$[ebp], eax
	cmp	DWORD PTR _result$[ebp], 0
	je	SHORT $LN3@PMC_To_X_L

; 67   :         return (result);

	mov	eax, DWORD PTR _result$[ebp]
	jmp	$LN1@PMC_To_X_L
$LN3@PMC_To_X_L:

; 68   :     if (np->UNIT_BIT_COUNT > sizeof(*o) * 8)

	mov	eax, DWORD PTR _np$[ebp]
	cmp	DWORD PTR [eax+4], 64			; 00000040H
	jbe	SHORT $LN4@PMC_To_X_L

; 69   :         return (PMC_STATUS_OVERFLOW);

	mov	eax, -2					; fffffffeH
	jmp	$LN1@PMC_To_X_L
$LN4@PMC_To_X_L:

; 70   :     if (np->IS_ZERO)

	mov	ecx, DWORD PTR _np$[ebp]
	mov	edx, DWORD PTR [ecx+16]
	shr	edx, 1
	and	edx, 1
	je	SHORT $LN5@PMC_To_X_L

; 71   :     {
; 72   :         *o = 0;

	mov	eax, DWORD PTR _o$[ebp]
	mov	DWORD PTR [eax], 0
	mov	DWORD PTR [eax+4], 0

; 73   :         return (PMC_STATUS_OK);

	xor	eax, eax
	jmp	SHORT $LN1@PMC_To_X_L
$LN5@PMC_To_X_L:

; 74   :     }
; 75   :     if (np->UNIT_BIT_COUNT <= __UNIT_TYPE_BIT_COUNT)

	mov	ecx, DWORD PTR _np$[ebp]
	cmp	DWORD PTR [ecx+4], 32			; 00000020H
	ja	SHORT $LN6@PMC_To_X_L

; 76   :     {
; 77   :         // 値が 1 ワードで表現できる場合
; 78   :         *o = np->BLOCK[0];

	mov	edx, 4
	imul	eax, edx, 0
	mov	ecx, DWORD PTR _np$[ebp]
	mov	edx, DWORD PTR [ecx+24]
	mov	eax, DWORD PTR [edx+eax]
	xor	ecx, ecx
	mov	edx, DWORD PTR _o$[ebp]
	mov	DWORD PTR [edx], eax
	mov	DWORD PTR [edx+4], ecx

; 79   :         return (PMC_STATUS_OK);

	xor	eax, eax
	jmp	SHORT $LN1@PMC_To_X_L

; 80   :     }

	jmp	SHORT $LN1@PMC_To_X_L
$LN6@PMC_To_X_L:

; 81   :     else if (np->UNIT_BIT_COUNT <= __UNIT_TYPE_BIT_COUNT * 2)

	mov	eax, DWORD PTR _np$[ebp]
	cmp	DWORD PTR [eax+4], 64			; 00000040H
	ja	SHORT $LN8@PMC_To_X_L

; 82   :     {
; 83   :         // 値が 2 ワードで表現できる場合
; 84   :         *o = _FROMWORDTODWORD((_UINT32_T)np->BLOCK[1], (_UINT32_T)np->BLOCK[0]);

	mov	ecx, 4
	imul	edx, ecx, 0
	mov	eax, DWORD PTR _np$[ebp]
	mov	ecx, DWORD PTR [eax+24]
	mov	edx, DWORD PTR [ecx+edx]
	push	edx
	mov	eax, 4
	shl	eax, 0
	mov	ecx, DWORD PTR _np$[ebp]
	mov	edx, DWORD PTR [ecx+24]
	mov	eax, DWORD PTR [edx+eax]
	push	eax
	call	__FROMWORDTODWORD
	add	esp, 8
	mov	ecx, DWORD PTR _o$[ebp]
	mov	DWORD PTR [ecx], eax
	mov	DWORD PTR [ecx+4], edx

; 85   :         return (PMC_STATUS_OK);

	xor	eax, eax
	jmp	SHORT $LN1@PMC_To_X_L

; 86   :     }

	jmp	SHORT $LN1@PMC_To_X_L
$LN8@PMC_To_X_L:

; 87   :     else
; 88   :         return (PMC_STATUS_ARGUMENT_ERROR);

	or	eax, -1
$LN1@PMC_To_X_L:

; 89   : }

	add	esp, 8
	cmp	ebp, esp
	call	__RTC_CheckEsp
	mov	esp, ebp
	pop	ebp
	ret	8
_PMC_To_X_L@8 ENDP
_TEXT	ENDS
; Function compile flags: /Odtp /RTCsu
; File z:\sources\lunor\repos\rougemeilland\palmtree.math.core.implements\palmtree.math.core.implements\pmc_to.c
_TEXT	SEGMENT
_result$ = -8						; size = 4
_np$ = -4						; size = 4
_p$ = 8							; size = 4
_o$ = 12						; size = 4
_PMC_To_X_I@8 PROC

; 38   : {

	push	ebp
	mov	ebp, esp
	sub	esp, 8
	mov	DWORD PTR [ebp-8], -858993460		; ccccccccH
	mov	DWORD PTR [ebp-4], -858993460		; ccccccccH
	mov	ecx, OFFSET __83853269_pmc_to@c
	call	@__CheckForDebuggerJustMyCode@4

; 39   :     if (sizeof(__UNIT_TYPE) < sizeof(*o))

	xor	eax, eax
	je	SHORT $LN2@PMC_To_X_I

; 40   :     {
; 41   :         // 32bit未満のCPUは未対応
; 42   :         return (PMC_STATUS_NOT_SUPPORTED);

	mov	eax, -6					; fffffffaH
	jmp	SHORT $LN1@PMC_To_X_I
$LN2@PMC_To_X_I:

; 43   :     }
; 44   :     NUMBER_HEADER* np = (NUMBER_HEADER*)p;

	mov	ecx, DWORD PTR _p$[ebp]
	mov	DWORD PTR _np$[ebp], ecx

; 45   :     PMC_STATUS_CODE result;
; 46   :     if ((result = CheckNumber(np)) != PMC_STATUS_OK)

	mov	edx, DWORD PTR _np$[ebp]
	push	edx
	call	_CheckNumber
	add	esp, 4
	mov	DWORD PTR _result$[ebp], eax
	cmp	DWORD PTR _result$[ebp], 0
	je	SHORT $LN3@PMC_To_X_I

; 47   :         return (result);

	mov	eax, DWORD PTR _result$[ebp]
	jmp	SHORT $LN1@PMC_To_X_I
$LN3@PMC_To_X_I:

; 48   :     if (np->UNIT_BIT_COUNT > sizeof(*o) * 8)

	mov	eax, DWORD PTR _np$[ebp]
	cmp	DWORD PTR [eax+4], 32			; 00000020H
	jbe	SHORT $LN4@PMC_To_X_I

; 49   :         return (PMC_STATUS_OVERFLOW);

	mov	eax, -2					; fffffffeH
	jmp	SHORT $LN1@PMC_To_X_I
$LN4@PMC_To_X_I:

; 50   :     if (np->IS_ZERO)

	mov	ecx, DWORD PTR _np$[ebp]
	mov	edx, DWORD PTR [ecx+16]
	shr	edx, 1
	and	edx, 1
	je	SHORT $LN5@PMC_To_X_I

; 51   :         *o = 0;

	mov	eax, DWORD PTR _o$[ebp]
	mov	DWORD PTR [eax], 0
	jmp	SHORT $LN6@PMC_To_X_I
$LN5@PMC_To_X_I:

; 52   :     else
; 53   :         *o = (_UINT32_T)np->BLOCK[0];

	mov	ecx, 4
	imul	edx, ecx, 0
	mov	eax, DWORD PTR _np$[ebp]
	mov	ecx, DWORD PTR [eax+24]
	mov	eax, DWORD PTR _o$[ebp]
	mov	ecx, DWORD PTR [edx+ecx]
	mov	DWORD PTR [eax], ecx
$LN6@PMC_To_X_I:

; 54   :     return (PMC_STATUS_OK);

	xor	eax, eax
$LN1@PMC_To_X_I:

; 55   : }   

	add	esp, 8
	cmp	ebp, esp
	call	__RTC_CheckEsp
	mov	esp, ebp
	pop	ebp
	ret	8
_PMC_To_X_I@8 ENDP
_TEXT	ENDS
; Function compile flags: /Odtp /RTCsu
; File z:\sources\lunor\repos\rougemeilland\palmtree.math.core.implements\palmtree.math.core.implements\pmc_to.c
_TEXT	SEGMENT
_feature$ = 8						; size = 4
_Initialize_To PROC

; 115  : {

	push	ebp
	mov	ebp, esp
	mov	ecx, OFFSET __83853269_pmc_to@c
	call	@__CheckForDebuggerJustMyCode@4

; 116  :     return (PMC_STATUS_OK);

	xor	eax, eax

; 117  : }

	cmp	ebp, esp
	call	__RTC_CheckEsp
	pop	ebp
	ret	0
_Initialize_To ENDP
_TEXT	ENDS
END
