; Listing generated by Microsoft (R) Optimizing Compiler Version 19.16.27026.1 

	TITLE	Z:\Sources\Lunor\Repos\rougemeilland\Palmtree.Math.Core.Implements\Palmtree.Math.Core.Implements\pmc_from.c
	.686P
	.XMM
	include listing.inc
	.model	flat

INCLUDELIB MSVCRTD
INCLUDELIB OLDNAMES

msvcjmc	SEGMENT
__7B7A869E_ctype@h DB 01H
__457DD326_basetsd@h DB 01H
__4384A2D9_corecrt_memcpy_s@h DB 01H
__4E51A221_corecrt_wstring@h DB 01H
__2140C079_string@h DB 01H
__1887E595_winnt@h DB 01H
__9FC7C64B_processthreadsapi@h DB 01H
__FA470AEC_memoryapi@h DB 01H
__F37DAFF1_winerror@h DB 01H
__7A450CCC_winbase@h DB 01H
__B4B40122_winioctl@h DB 01H
__86261D59_stralign@h DB 01H
__4522B509_pmc_internal@h DB 01H
__5C0CD9D4_pmc_from@c DB 01H
msvcjmc	ENDS
PUBLIC	_From_I_Imp
PUBLIC	_From_L_Imp
PUBLIC	_Initialize_From
PUBLIC	_PMC_From_I@8
PUBLIC	_PMC_From_L@12
PUBLIC	_PMC_From_B@12
PUBLIC	__JustMyCode_Default
EXTRN	_AllocateNumber:PROC
EXTRN	_CommitNumber:PROC
EXTRN	_CheckNumber:PROC
EXTRN	@_RTC_CheckStackVars@8:PROC
EXTRN	@__CheckForDebuggerJustMyCode@4:PROC
EXTRN	__RTC_CheckEsp:PROC
EXTRN	__RTC_InitBase:PROC
EXTRN	__RTC_Shutdown:PROC
EXTRN	__aullshr:PROC
EXTRN	_number_zero:BYTE
;	COMDAT rtc$TMZ
rtc$TMZ	SEGMENT
__RTC_Shutdown.rtc$TMZ DD FLAT:__RTC_Shutdown
rtc$TMZ	ENDS
;	COMDAT rtc$IMZ
rtc$IMZ	SEGMENT
__RTC_InitBase.rtc$IMZ DD FLAT:__RTC_InitBase
rtc$IMZ	ENDS
; Function compile flags: /Odt
;	COMDAT __JustMyCode_Default
_TEXT	SEGMENT
__JustMyCode_Default PROC				; COMDAT
	push	ebp
	mov	ebp, esp
	pop	ebp
	ret	0
__JustMyCode_Default ENDP
_TEXT	ENDS
; Function compile flags: /Odtp /RTCsu
; File z:\sources\lunor\repos\rougemeilland\palmtree.math.core.implements\palmtree.math.core.implements\pmc_from.c
_TEXT	SEGMENT
_p$ = 8							; size = 4
_count$ = 12						; size = 4
_CountActualBitsFromBuffer PROC

; 134  : {

	push	ebp
	mov	ebp, esp
	push	esi
	mov	ecx, OFFSET __5C0CD9D4_pmc_from@c
	call	@__CheckForDebuggerJustMyCode@4

; 135  :     p += count;

	mov	eax, DWORD PTR _p$[ebp]
	add	eax, DWORD PTR _count$[ebp]
	mov	DWORD PTR _p$[ebp], eax
$LN2@CountActua:

; 136  :     while (count > 0)

	cmp	DWORD PTR _count$[ebp], 0
	jbe	SHORT $LN3@CountActua

; 137  :     {
; 138  :         --p;

	mov	ecx, DWORD PTR _p$[ebp]
	sub	ecx, 1
	mov	DWORD PTR _p$[ebp], ecx

; 139  :         if (*p != 0)

	mov	edx, DWORD PTR _p$[ebp]
	movzx	eax, BYTE PTR [edx]
	test	eax, eax
	je	SHORT $LN4@CountActua

; 140  :             return (count * 8 - _LZCNT_ALT_8(*p));

	mov	esi, DWORD PTR _count$[ebp]
	shl	esi, 3
	mov	ecx, DWORD PTR _p$[ebp]
	movzx	edx, BYTE PTR [ecx]
	push	edx
	call	__LZCNT_ALT_8
	add	esp, 4
	movzx	eax, al
	sub	esi, eax
	mov	eax, esi
	jmp	SHORT $LN1@CountActua
$LN4@CountActua:

; 141  :         --count;

	mov	ecx, DWORD PTR _count$[ebp]
	sub	ecx, 1
	mov	DWORD PTR _count$[ebp], ecx

; 142  :     }

	jmp	SHORT $LN2@CountActua
$LN3@CountActua:

; 143  :     return (0);

	xor	eax, eax
$LN1@CountActua:

; 144  : }

	pop	esi
	cmp	ebp, esp
	call	__RTC_CheckEsp
	pop	ebp
	ret	0
_CountActualBitsFromBuffer ENDP
_TEXT	ENDS
; Function compile flags: /Odtp /RTCsu
; File z:\sources\lunor\repos\rougemeilland\palmtree.math.core.implements\palmtree.math.core.implements\pmc_internal.h
_TEXT	SEGMENT
_pos$ = -8						; size = 4
_x$ = 8							; size = 4
__LZCNT_ALT_UNIT PROC

; 840  : {

	push	ebp
	mov	ebp, esp
	sub	esp, 12					; 0000000cH
	mov	DWORD PTR [ebp-12], -858993460		; ccccccccH
	mov	DWORD PTR [ebp-8], -858993460		; ccccccccH
	mov	DWORD PTR [ebp-4], -858993460		; ccccccccH
	mov	ecx, OFFSET __4522B509_pmc_internal@h
	call	@__CheckForDebuggerJustMyCode@4

; 841  :     if (x == 0)

	cmp	DWORD PTR _x$[ebp], 0
	jne	SHORT $LN2@LZCNT_ALT_

; 842  :         return (sizeof(x) * 8);

	mov	eax, 32					; 00000020H
	jmp	SHORT $LN1@LZCNT_ALT_
$LN2@LZCNT_ALT_:

; 843  : #ifdef _M_IX86
; 844  :     _UINT32_T pos;
; 845  : #ifdef _MSC_VER
; 846  :     _BitScanReverse(&pos, x);

	bsr	eax, DWORD PTR _x$[ebp]
	mov	DWORD PTR _pos$[ebp], eax

; 847  : #elif defined(__GNUC__)
; 848  :     __asm__("bsrl %1, %0" : "=r"(pos) : "rm"(x));
; 849  : #else
; 850  : #error unknown compiler
; 851  : #endif
; 852  : #elif defined(_M_X64)
; 853  : #ifdef _MSC_VER
; 854  :     _UINT32_T pos;
; 855  :     _BitScanReverse64(&pos, x);
; 856  : #elif defined(__GNUC__)
; 857  :     _UINT64_T pos;
; 858  :     __asm__("bsrq %1, %0" : "=r"(pos) : "rm"(x));
; 859  : #else
; 860  : #error unknown compiler
; 861  : #endif
; 862  : #else
; 863  : #error unknown platform
; 864  : #endif
; 865  :     return (sizeof(x) * 8 - 1 - pos);

	mov	eax, 31					; 0000001fH
	sub	eax, DWORD PTR _pos$[ebp]
$LN1@LZCNT_ALT_:

; 866  : }

	push	edx
	mov	ecx, ebp
	push	eax
	lea	edx, DWORD PTR $LN6@LZCNT_ALT_
	call	@_RTC_CheckStackVars@8
	pop	eax
	pop	edx
	add	esp, 12					; 0000000cH
	cmp	ebp, esp
	call	__RTC_CheckEsp
	mov	esp, ebp
	pop	ebp
	ret	0
$LN6@LZCNT_ALT_:
	DD	1
	DD	$LN5@LZCNT_ALT_
$LN5@LZCNT_ALT_:
	DD	-8					; fffffff8H
	DD	4
	DD	$LN4@LZCNT_ALT_
$LN4@LZCNT_ALT_:
	DB	112					; 00000070H
	DB	111					; 0000006fH
	DB	115					; 00000073H
	DB	0
__LZCNT_ALT_UNIT ENDP
_TEXT	ENDS
; Function compile flags: /Odtp /RTCsu
; File z:\sources\lunor\repos\rougemeilland\palmtree.math.core.implements\palmtree.math.core.implements\pmc_internal.h
_TEXT	SEGMENT
_pos$ = -8						; size = 4
_x$ = 8							; size = 4
__LZCNT_ALT_32 PROC

; 807  : {

	push	ebp
	mov	ebp, esp
	sub	esp, 12					; 0000000cH
	mov	DWORD PTR [ebp-12], -858993460		; ccccccccH
	mov	DWORD PTR [ebp-8], -858993460		; ccccccccH
	mov	DWORD PTR [ebp-4], -858993460		; ccccccccH
	mov	ecx, OFFSET __4522B509_pmc_internal@h
	call	@__CheckForDebuggerJustMyCode@4

; 808  :     if (x == 0)

	cmp	DWORD PTR _x$[ebp], 0
	jne	SHORT $LN2@LZCNT_ALT_

; 809  :         return (sizeof(x) * 8);

	mov	eax, 32					; 00000020H
	jmp	SHORT $LN1@LZCNT_ALT_
$LN2@LZCNT_ALT_:

; 810  :     _UINT32_T pos;
; 811  : #ifdef _MSC_VER
; 812  :     _BitScanReverse(&pos, x);

	bsr	eax, DWORD PTR _x$[ebp]
	mov	DWORD PTR _pos$[ebp], eax

; 813  : #elif defined(__GNUC__)
; 814  :     __asm__( "bsrl %1, %0" : "=r"(pos) : "rm"(x) );
; 815  : #else
; 816  : #error unknown compiler
; 817  : #endif
; 818  :     return (sizeof(x) * 8 - 1 - pos);

	mov	eax, 31					; 0000001fH
	sub	eax, DWORD PTR _pos$[ebp]
$LN1@LZCNT_ALT_:

; 819  : }

	push	edx
	mov	ecx, ebp
	push	eax
	lea	edx, DWORD PTR $LN6@LZCNT_ALT_
	call	@_RTC_CheckStackVars@8
	pop	eax
	pop	edx
	add	esp, 12					; 0000000cH
	cmp	ebp, esp
	call	__RTC_CheckEsp
	mov	esp, ebp
	pop	ebp
	ret	0
$LN6@LZCNT_ALT_:
	DD	1
	DD	$LN5@LZCNT_ALT_
$LN5@LZCNT_ALT_:
	DD	-8					; fffffff8H
	DD	4
	DD	$LN4@LZCNT_ALT_
$LN4@LZCNT_ALT_:
	DB	112					; 00000070H
	DB	111					; 0000006fH
	DB	115					; 00000073H
	DB	0
__LZCNT_ALT_32 ENDP
_TEXT	ENDS
; Function compile flags: /Odtp /RTCsu
; File z:\sources\lunor\repos\rougemeilland\palmtree.math.core.implements\palmtree.math.core.implements\pmc_internal.h
_TEXT	SEGMENT
_pos$ = -8						; size = 4
_x$ = 8							; size = 1
__LZCNT_ALT_8 PROC

; 792  : {

	push	ebp
	mov	ebp, esp
	sub	esp, 12					; 0000000cH
	mov	DWORD PTR [ebp-12], -858993460		; ccccccccH
	mov	DWORD PTR [ebp-8], -858993460		; ccccccccH
	mov	DWORD PTR [ebp-4], -858993460		; ccccccccH
	mov	ecx, OFFSET __4522B509_pmc_internal@h
	call	@__CheckForDebuggerJustMyCode@4

; 793  :     if (x == 0)

	movzx	eax, BYTE PTR _x$[ebp]
	test	eax, eax
	jne	SHORT $LN2@LZCNT_ALT_

; 794  :         return (sizeof(x) * 8);

	mov	al, 8
	jmp	SHORT $LN1@LZCNT_ALT_
$LN2@LZCNT_ALT_:

; 795  :     _UINT32_T pos;
; 796  : #ifdef _MSC_VER
; 797  :     _BitScanReverse(&pos, x);

	movzx	ecx, BYTE PTR _x$[ebp]
	bsr	edx, ecx
	mov	DWORD PTR _pos$[ebp], edx

; 798  : #elif defined(__GNUC__)
; 799  :     __asm__( "bsrl %1, %0" : "=r"(pos) : "rm"((_UINT32_T)x) );
; 800  : #else
; 801  : #error unknown compiler
; 802  : #endif
; 803  :     return ((unsigned char)(sizeof(x) * 8 - 1 - pos));

	mov	eax, 7
	sub	eax, DWORD PTR _pos$[ebp]
$LN1@LZCNT_ALT_:

; 804  : }

	push	edx
	mov	ecx, ebp
	push	eax
	lea	edx, DWORD PTR $LN6@LZCNT_ALT_
	call	@_RTC_CheckStackVars@8
	pop	eax
	pop	edx
	add	esp, 12					; 0000000cH
	cmp	ebp, esp
	call	__RTC_CheckEsp
	mov	esp, ebp
	pop	ebp
	ret	0
	npad	2
$LN6@LZCNT_ALT_:
	DD	1
	DD	$LN5@LZCNT_ALT_
$LN5@LZCNT_ALT_:
	DD	-8					; fffffff8H
	DD	4
	DD	$LN4@LZCNT_ALT_
$LN4@LZCNT_ALT_:
	DB	112					; 00000070H
	DB	111					; 0000006fH
	DB	115					; 00000073H
	DB	0
__LZCNT_ALT_8 ENDP
_TEXT	ENDS
; Function compile flags: /Odtp /RTCsu
; File z:\sources\lunor\repos\rougemeilland\palmtree.math.core.implements\palmtree.math.core.implements\pmc_internal.h
_TEXT	SEGMENT
_u$ = 8							; size = 4
_v$ = 12						; size = 4
__DIVIDE_CEILING_SIZE PROC

; 409  : {

	push	ebp
	mov	ebp, esp
	mov	ecx, OFFSET __4522B509_pmc_internal@h
	call	@__CheckForDebuggerJustMyCode@4

; 410  :     return ((u + v - 1) / v);

	mov	eax, DWORD PTR _v$[ebp]
	mov	ecx, DWORD PTR _u$[ebp]
	lea	eax, DWORD PTR [ecx+eax-1]
	xor	edx, edx
	div	DWORD PTR _v$[ebp]

; 411  : }

	cmp	ebp, esp
	call	__RTC_CheckEsp
	pop	ebp
	ret	0
__DIVIDE_CEILING_SIZE ENDP
_TEXT	ENDS
; Function compile flags: /Odtp /RTCsu
; File z:\sources\lunor\repos\rougemeilland\palmtree.math.core.implements\palmtree.math.core.implements\pmc_internal.h
_TEXT	SEGMENT
_value$ = 8						; size = 8
_result_high$ = 16					; size = 4
__FROMDWORDTOWORD PROC

; 393  : {

	push	ebp
	mov	ebp, esp
	mov	ecx, OFFSET __4522B509_pmc_internal@h
	call	@__CheckForDebuggerJustMyCode@4

; 394  :     *result_high = (_UINT32_T)(value >> 32);

	mov	eax, DWORD PTR _value$[ebp]
	mov	edx, DWORD PTR _value$[ebp+4]
	mov	cl, 32					; 00000020H
	call	__aullshr
	mov	ecx, DWORD PTR _result_high$[ebp]
	mov	DWORD PTR [ecx], eax

; 395  :     return ((_UINT32_T)value);

	mov	eax, DWORD PTR _value$[ebp]

; 396  : }

	cmp	ebp, esp
	call	__RTC_CheckEsp
	pop	ebp
	ret	0
__FROMDWORDTOWORD ENDP
_TEXT	ENDS
; Function compile flags: /Odtp /RTCsu
; File z:\sources\lunor\repos\rougemeilland\palmtree.math.core.implements\palmtree.math.core.implements\pmc_internal.h
_TEXT	SEGMENT
_d$ = 8							; size = 4
_s$ = 12						; size = 4
_count$ = 16						; size = 4
__COPY_MEMORY_BYTE PROC

; 260  : {

	push	ebp
	mov	ebp, esp
	push	esi
	push	edi
	mov	ecx, OFFSET __4522B509_pmc_internal@h
	call	@__CheckForDebuggerJustMyCode@4

; 261  :     __movsb(d, s, count);

	mov	edi, DWORD PTR _d$[ebp]
	mov	esi, DWORD PTR _s$[ebp]
	mov	ecx, DWORD PTR _count$[ebp]
	rep movsb

; 262  : }

	pop	edi
	pop	esi
	cmp	ebp, esp
	call	__RTC_CheckEsp
	pop	ebp
	ret	0
__COPY_MEMORY_BYTE ENDP
_TEXT	ENDS
; Function compile flags: /Odtp /RTCsu
; File z:\sources\lunor\repos\rougemeilland\palmtree.math.core.implements\palmtree.math.core.implements\pmc_from.c
_TEXT	SEGMENT
_p$1 = -16						; size = 4
_bit_count$ = -8					; size = 4
_result$ = -4						; size = 4
_buffer$ = 8						; size = 4
_count$ = 12						; size = 4
_o$ = 16						; size = 4
_PMC_From_B@12 PROC

; 148  : {

	push	ebp
	mov	ebp, esp
	sub	esp, 20					; 00000014H
	mov	eax, -858993460				; ccccccccH
	mov	DWORD PTR [ebp-20], eax
	mov	DWORD PTR [ebp-16], eax
	mov	DWORD PTR [ebp-12], eax
	mov	DWORD PTR [ebp-8], eax
	mov	DWORD PTR [ebp-4], eax
	mov	ecx, OFFSET __5C0CD9D4_pmc_from@c
	call	@__CheckForDebuggerJustMyCode@4

; 149  :     PMC_STATUS_CODE result;
; 150  :     if (buffer == NULL)

	cmp	DWORD PTR _buffer$[ebp], 0
	jne	SHORT $LN2@PMC_From_B

; 151  :         return (PMC_STATUS_ARGUMENT_ERROR);

	or	eax, -1
	jmp	$LN1@PMC_From_B
$LN2@PMC_From_B:

; 152  :     if (o == NULL)

	cmp	DWORD PTR _o$[ebp], 0
	jne	SHORT $LN3@PMC_From_B

; 153  :         return (PMC_STATUS_ARGUMENT_ERROR);

	or	eax, -1
	jmp	$LN1@PMC_From_B
$LN3@PMC_From_B:

; 154  :     __UNIT_TYPE bit_count = CountActualBitsFromBuffer(buffer, count);

	mov	eax, DWORD PTR _count$[ebp]
	push	eax
	mov	ecx, DWORD PTR _buffer$[ebp]
	push	ecx
	call	_CountActualBitsFromBuffer
	add	esp, 8
	mov	DWORD PTR _bit_count$[ebp], eax

; 155  :     if (bit_count == 0)

	cmp	DWORD PTR _bit_count$[ebp], 0
	jne	SHORT $LN4@PMC_From_B

; 156  :         *o = &number_zero;

	mov	edx, DWORD PTR _o$[ebp]
	mov	DWORD PTR [edx], OFFSET _number_zero
	jmp	SHORT $LN5@PMC_From_B
$LN4@PMC_From_B:

; 157  :     else
; 158  :     {
; 159  :         NUMBER_HEADER* p;
; 160  :         if ((result = AllocateNumber(&p, bit_count, NULL)) != PMC_STATUS_OK)

	push	0
	mov	eax, DWORD PTR _bit_count$[ebp]
	push	eax
	lea	ecx, DWORD PTR _p$1[ebp]
	push	ecx
	call	_AllocateNumber
	add	esp, 12					; 0000000cH
	mov	DWORD PTR _result$[ebp], eax
	cmp	DWORD PTR _result$[ebp], 0
	je	SHORT $LN6@PMC_From_B

; 161  :             return (result);

	mov	eax, DWORD PTR _result$[ebp]
	jmp	SHORT $LN1@PMC_From_B
$LN6@PMC_From_B:

; 162  :         _COPY_MEMORY_BYTE(p->BLOCK, buffer, _DIVIDE_CEILING_SIZE(bit_count, 8));

	push	8
	mov	edx, DWORD PTR _bit_count$[ebp]
	push	edx
	call	__DIVIDE_CEILING_SIZE
	add	esp, 8
	push	eax
	mov	eax, DWORD PTR _buffer$[ebp]
	push	eax
	mov	ecx, DWORD PTR _p$1[ebp]
	mov	edx, DWORD PTR [ecx+24]
	push	edx
	call	__COPY_MEMORY_BYTE
	add	esp, 12					; 0000000cH

; 163  :         CommitNumber(p);

	mov	eax, DWORD PTR _p$1[ebp]
	push	eax
	call	_CommitNumber
	add	esp, 4

; 164  :         *o = p;

	mov	ecx, DWORD PTR _o$[ebp]
	mov	edx, DWORD PTR _p$1[ebp]
	mov	DWORD PTR [ecx], edx
$LN5@PMC_From_B:

; 165  :     }
; 166  : #ifdef _DEBUG
; 167  :     if ((result = CheckNumber(*o)) != PMC_STATUS_OK)

	mov	eax, DWORD PTR _o$[ebp]
	mov	ecx, DWORD PTR [eax]
	push	ecx
	call	_CheckNumber
	add	esp, 4
	mov	DWORD PTR _result$[ebp], eax
	cmp	DWORD PTR _result$[ebp], 0
	je	SHORT $LN7@PMC_From_B

; 168  :         return (result);

	mov	eax, DWORD PTR _result$[ebp]
	jmp	SHORT $LN1@PMC_From_B
$LN7@PMC_From_B:

; 169  : #endif
; 170  :     return (PMC_STATUS_OK);

	xor	eax, eax
$LN1@PMC_From_B:

; 171  : }

	push	edx
	mov	ecx, ebp
	push	eax
	lea	edx, DWORD PTR $LN11@PMC_From_B
	call	@_RTC_CheckStackVars@8
	pop	eax
	pop	edx
	add	esp, 20					; 00000014H
	cmp	ebp, esp
	call	__RTC_CheckEsp
	mov	esp, ebp
	pop	ebp
	ret	12					; 0000000cH
	npad	3
$LN11@PMC_From_B:
	DD	1
	DD	$LN10@PMC_From_B
$LN10@PMC_From_B:
	DD	-16					; fffffff0H
	DD	4
	DD	$LN9@PMC_From_B
$LN9@PMC_From_B:
	DB	112					; 00000070H
	DB	0
_PMC_From_B@12 ENDP
_TEXT	ENDS
; Function compile flags: /Odtp /RTCsu
; File z:\sources\lunor\repos\rougemeilland\palmtree.math.core.implements\palmtree.math.core.implements\pmc_from.c
_TEXT	SEGMENT
_result$ = -16						; size = 4
_p$ = -8						; size = 4
_x$ = 8							; size = 8
_o$ = 16						; size = 4
_PMC_From_L@12 PROC

; 110  : {

	push	ebp
	mov	ebp, esp
	sub	esp, 16					; 00000010H
	mov	eax, -858993460				; ccccccccH
	mov	DWORD PTR [ebp-16], eax
	mov	DWORD PTR [ebp-12], eax
	mov	DWORD PTR [ebp-8], eax
	mov	DWORD PTR [ebp-4], eax
	mov	ecx, OFFSET __5C0CD9D4_pmc_from@c
	call	@__CheckForDebuggerJustMyCode@4

; 111  :     NUMBER_HEADER* p;
; 112  :     PMC_STATUS_CODE result;
; 113  :     if (sizeof(__UNIT_TYPE) * 2 < sizeof(x))

	xor	eax, eax
	je	SHORT $LN2@PMC_From_L

; 114  :     {
; 115  :         // 32bit未満のCPUには未対応
; 116  :         return (PMC_STATUS_INTERNAL_ERROR);

	mov	eax, -256				; ffffff00H
	jmp	SHORT $LN1@PMC_From_L
$LN2@PMC_From_L:

; 117  :     }
; 118  :     if (x == 0)

	mov	ecx, DWORD PTR _x$[ebp]
	or	ecx, DWORD PTR _x$[ebp+4]
	jne	SHORT $LN3@PMC_From_L

; 119  :         *o = &number_zero;

	mov	edx, DWORD PTR _o$[ebp]
	mov	DWORD PTR [edx], OFFSET _number_zero
	jmp	SHORT $LN4@PMC_From_L
$LN3@PMC_From_L:

; 120  :     else
; 121  :     {
; 122  :         if ((result = From_L_Imp(x, &p)) != PMC_STATUS_OK)

	lea	eax, DWORD PTR _p$[ebp]
	push	eax
	mov	ecx, DWORD PTR _x$[ebp+4]
	push	ecx
	mov	edx, DWORD PTR _x$[ebp]
	push	edx
	call	_From_L_Imp
	add	esp, 12					; 0000000cH
	mov	DWORD PTR _result$[ebp], eax
	cmp	DWORD PTR _result$[ebp], 0
	je	SHORT $LN5@PMC_From_L

; 123  :             return (result);

	mov	eax, DWORD PTR _result$[ebp]
	jmp	SHORT $LN1@PMC_From_L
$LN5@PMC_From_L:

; 124  :         *o = p;

	mov	eax, DWORD PTR _o$[ebp]
	mov	ecx, DWORD PTR _p$[ebp]
	mov	DWORD PTR [eax], ecx
$LN4@PMC_From_L:

; 125  :     }
; 126  : #ifdef _DEBUG
; 127  :     if ((result = CheckNumber(*o)) != PMC_STATUS_OK)

	mov	edx, DWORD PTR _o$[ebp]
	mov	eax, DWORD PTR [edx]
	push	eax
	call	_CheckNumber
	add	esp, 4
	mov	DWORD PTR _result$[ebp], eax
	cmp	DWORD PTR _result$[ebp], 0
	je	SHORT $LN6@PMC_From_L

; 128  :         return (result);

	mov	eax, DWORD PTR _result$[ebp]
	jmp	SHORT $LN1@PMC_From_L
$LN6@PMC_From_L:

; 129  : #endif
; 130  :     return (PMC_STATUS_OK);

	xor	eax, eax
$LN1@PMC_From_L:

; 131  : }

	push	edx
	mov	ecx, ebp
	push	eax
	lea	edx, DWORD PTR $LN10@PMC_From_L
	call	@_RTC_CheckStackVars@8
	pop	eax
	pop	edx
	add	esp, 16					; 00000010H
	cmp	ebp, esp
	call	__RTC_CheckEsp
	mov	esp, ebp
	pop	ebp
	ret	12					; 0000000cH
$LN10@PMC_From_L:
	DD	1
	DD	$LN9@PMC_From_L
$LN9@PMC_From_L:
	DD	-8					; fffffff8H
	DD	4
	DD	$LN8@PMC_From_L
$LN8@PMC_From_L:
	DB	112					; 00000070H
	DB	0
_PMC_From_L@12 ENDP
_TEXT	ENDS
; Function compile flags: /Odtp /RTCsu
; File z:\sources\lunor\repos\rougemeilland\palmtree.math.core.implements\palmtree.math.core.implements\pmc_from.c
_TEXT	SEGMENT
_p$1 = -12						; size = 4
_result$ = -4						; size = 4
_x$ = 8							; size = 4
_o$ = 12						; size = 4
_PMC_From_I@8 PROC

; 89   : {

	push	ebp
	mov	ebp, esp
	sub	esp, 16					; 00000010H
	mov	eax, -858993460				; ccccccccH
	mov	DWORD PTR [ebp-16], eax
	mov	DWORD PTR [ebp-12], eax
	mov	DWORD PTR [ebp-8], eax
	mov	DWORD PTR [ebp-4], eax
	mov	ecx, OFFSET __5C0CD9D4_pmc_from@c
	call	@__CheckForDebuggerJustMyCode@4

; 90   :     PMC_STATUS_CODE result;
; 91   :     if (sizeof(__UNIT_TYPE) < sizeof(x))

	xor	eax, eax
	je	SHORT $LN2@PMC_From_I

; 92   :         return (PMC_STATUS_INTERNAL_ERROR);

	mov	eax, -256				; ffffff00H
	jmp	SHORT $LN1@PMC_From_I
$LN2@PMC_From_I:

; 93   :     if (x == 0)

	cmp	DWORD PTR _x$[ebp], 0
	jne	SHORT $LN3@PMC_From_I

; 94   :         *o = &number_zero;

	mov	ecx, DWORD PTR _o$[ebp]
	mov	DWORD PTR [ecx], OFFSET _number_zero
	jmp	SHORT $LN4@PMC_From_I
$LN3@PMC_From_I:

; 95   :     else
; 96   :     {
; 97   :         NUMBER_HEADER* p;
; 98   :         if ((result = From_I_Imp(x, &p)) != PMC_STATUS_OK)

	lea	edx, DWORD PTR _p$1[ebp]
	push	edx
	mov	eax, DWORD PTR _x$[ebp]
	push	eax
	call	_From_I_Imp
	add	esp, 8
	mov	DWORD PTR _result$[ebp], eax
	cmp	DWORD PTR _result$[ebp], 0
	je	SHORT $LN5@PMC_From_I

; 99   :             return (result);

	mov	eax, DWORD PTR _result$[ebp]
	jmp	SHORT $LN1@PMC_From_I
$LN5@PMC_From_I:

; 100  :         *o = p;

	mov	ecx, DWORD PTR _o$[ebp]
	mov	edx, DWORD PTR _p$1[ebp]
	mov	DWORD PTR [ecx], edx
$LN4@PMC_From_I:

; 101  :     }
; 102  : #ifdef _DEBUG
; 103  :     if ((result = CheckNumber(*o)) != PMC_STATUS_OK)

	mov	eax, DWORD PTR _o$[ebp]
	mov	ecx, DWORD PTR [eax]
	push	ecx
	call	_CheckNumber
	add	esp, 4
	mov	DWORD PTR _result$[ebp], eax
	cmp	DWORD PTR _result$[ebp], 0
	je	SHORT $LN6@PMC_From_I

; 104  :         return (result);

	mov	eax, DWORD PTR _result$[ebp]
	jmp	SHORT $LN1@PMC_From_I
$LN6@PMC_From_I:

; 105  : #endif
; 106  :     return (PMC_STATUS_OK);

	xor	eax, eax
$LN1@PMC_From_I:

; 107  : }

	push	edx
	mov	ecx, ebp
	push	eax
	lea	edx, DWORD PTR $LN10@PMC_From_I
	call	@_RTC_CheckStackVars@8
	pop	eax
	pop	edx
	add	esp, 16					; 00000010H
	cmp	ebp, esp
	call	__RTC_CheckEsp
	mov	esp, ebp
	pop	ebp
	ret	8
	npad	2
$LN10@PMC_From_I:
	DD	1
	DD	$LN9@PMC_From_I
$LN9@PMC_From_I:
	DD	-12					; fffffff4H
	DD	4
	DD	$LN8@PMC_From_I
$LN8@PMC_From_I:
	DB	112					; 00000070H
	DB	0
_PMC_From_I@8 ENDP
_TEXT	ENDS
; Function compile flags: /Odtp /RTCsu
; File z:\sources\lunor\repos\rougemeilland\palmtree.math.core.implements\palmtree.math.core.implements\pmc_from.c
_TEXT	SEGMENT
_feature$ = 8						; size = 4
_Initialize_From PROC

; 174  : {

	push	ebp
	mov	ebp, esp
	mov	ecx, OFFSET __5C0CD9D4_pmc_from@c
	call	@__CheckForDebuggerJustMyCode@4

; 175  :     return (PMC_STATUS_OK);

	xor	eax, eax

; 176  : }

	cmp	ebp, esp
	call	__RTC_CheckEsp
	pop	ebp
	ret	0
_Initialize_From ENDP
_TEXT	ENDS
; Function compile flags: /Odtp /RTCsu
; File z:\sources\lunor\repos\rougemeilland\palmtree.math.core.implements\palmtree.math.core.implements\pmc_from.c
_TEXT	SEGMENT
_x_bit_length$1 = -32					; size = 4
_x_bit_length$2 = -28					; size = 4
_x_bit_length$3 = -24					; size = 4
_x_lo$4 = -20						; size = 4
_x_hi$5 = -12						; size = 4
_result$ = -4						; size = 4
_x$ = 8							; size = 8
_o$ = 16						; size = 4
_From_L_Imp PROC

; 47   : {

	push	ebp
	mov	ebp, esp
	sub	esp, 32					; 00000020H
	mov	eax, -858993460				; ccccccccH
	mov	DWORD PTR [ebp-32], eax
	mov	DWORD PTR [ebp-28], eax
	mov	DWORD PTR [ebp-24], eax
	mov	DWORD PTR [ebp-20], eax
	mov	DWORD PTR [ebp-16], eax
	mov	DWORD PTR [ebp-12], eax
	mov	DWORD PTR [ebp-8], eax
	mov	DWORD PTR [ebp-4], eax
	mov	ecx, OFFSET __5C0CD9D4_pmc_from@c
	call	@__CheckForDebuggerJustMyCode@4

; 48   :     PMC_STATUS_CODE result;
; 49   :     if (sizeof(__UNIT_TYPE) * 2 < sizeof(x))

	xor	eax, eax
	je	SHORT $LN2@From_L_Imp

; 50   :     {
; 51   :         // _UINT64_T を表現するのに 2 ワードでは不足する処理系には対応しない。
; 52   :         return (PMC_STATUS_INTERNAL_ERROR);

	mov	eax, -256				; ffffff00H
	jmp	$LN1@From_L_Imp

; 53   :     }

	jmp	$LN3@From_L_Imp
$LN2@From_L_Imp:

; 54   :     else if (sizeof(__UNIT_TYPE) < sizeof(x))

	mov	ecx, 1
	test	ecx, ecx
	je	$LN4@From_L_Imp

; 55   :     {
; 56   :         // _UINT64_T を表現するのに 1 ワードでは不足する(ちょうど 2 ワード必要とする)処理系の場合
; 57   : 
; 58   :         _UINT32_T x_hi;
; 59   :         _UINT32_T x_lo = _FROMDWORDTOWORD(x, &x_hi);

	lea	edx, DWORD PTR _x_hi$5[ebp]
	push	edx
	mov	eax, DWORD PTR _x$[ebp+4]
	push	eax
	mov	ecx, DWORD PTR _x$[ebp]
	push	ecx
	call	__FROMDWORDTOWORD
	add	esp, 12					; 0000000cH
	mov	DWORD PTR _x_lo$4[ebp], eax

; 60   :         if (x_hi == 0)

	cmp	DWORD PTR _x_hi$5[ebp], 0
	jne	SHORT $LN6@From_L_Imp

; 61   :         {
; 62   :             __UNIT_TYPE x_bit_length = sizeof(x_lo) * 8 - _LZCNT_ALT_32(x_lo);

	mov	edx, DWORD PTR _x_lo$4[ebp]
	push	edx
	call	__LZCNT_ALT_32
	add	esp, 4
	mov	ecx, 32					; 00000020H
	sub	ecx, eax
	mov	DWORD PTR _x_bit_length$3[ebp], ecx

; 63   :             if ((result = AllocateNumber(o, x_bit_length, NULL)) != PMC_STATUS_OK)

	push	0
	mov	edx, DWORD PTR _x_bit_length$3[ebp]
	push	edx
	mov	eax, DWORD PTR _o$[ebp]
	push	eax
	call	_AllocateNumber
	add	esp, 12					; 0000000cH
	mov	DWORD PTR _result$[ebp], eax
	cmp	DWORD PTR _result$[ebp], 0
	je	SHORT $LN8@From_L_Imp

; 64   :                 return (result);

	mov	eax, DWORD PTR _result$[ebp]
	jmp	$LN1@From_L_Imp
$LN8@From_L_Imp:

; 65   :         }

	jmp	SHORT $LN7@From_L_Imp
$LN6@From_L_Imp:

; 66   :         else
; 67   :         {
; 68   :             __UNIT_TYPE x_bit_length = sizeof(x) * 8 - _LZCNT_ALT_32(x_hi);

	mov	ecx, DWORD PTR _x_hi$5[ebp]
	push	ecx
	call	__LZCNT_ALT_32
	add	esp, 4
	mov	edx, 64					; 00000040H
	sub	edx, eax
	mov	DWORD PTR _x_bit_length$2[ebp], edx

; 69   :             if ((result = AllocateNumber(o, x_bit_length, NULL)) != PMC_STATUS_OK)

	push	0
	mov	eax, DWORD PTR _x_bit_length$2[ebp]
	push	eax
	mov	ecx, DWORD PTR _o$[ebp]
	push	ecx
	call	_AllocateNumber
	add	esp, 12					; 0000000cH
	mov	DWORD PTR _result$[ebp], eax
	cmp	DWORD PTR _result$[ebp], 0
	je	SHORT $LN9@From_L_Imp

; 70   :                 return (result);

	mov	eax, DWORD PTR _result$[ebp]
	jmp	$LN1@From_L_Imp
$LN9@From_L_Imp:

; 71   :             (*o)->BLOCK[1] = x_hi;

	mov	edx, DWORD PTR _o$[ebp]
	mov	eax, DWORD PTR [edx]
	mov	ecx, 4
	shl	ecx, 0
	mov	edx, DWORD PTR [eax+24]
	mov	eax, DWORD PTR _x_hi$5[ebp]
	mov	DWORD PTR [ecx+edx], eax
$LN7@From_L_Imp:

; 72   :         }
; 73   :         (*o)->BLOCK[0] = x_lo;

	mov	ecx, DWORD PTR _o$[ebp]
	mov	edx, DWORD PTR [ecx]
	mov	eax, 4
	imul	ecx, eax, 0
	mov	edx, DWORD PTR [edx+24]
	mov	eax, DWORD PTR _x_lo$4[ebp]
	mov	DWORD PTR [ecx+edx], eax

; 74   :     }

	jmp	SHORT $LN3@From_L_Imp
$LN4@From_L_Imp:

; 75   :     else
; 76   :     {
; 77   :         // _UINT64_T を表現するのに 1 ワードで十分である処理系の場合
; 78   : 
; 79   :         __UNIT_TYPE x_bit_length = sizeof(x) * 8 - _LZCNT_ALT_UNIT((__UNIT_TYPE)x);

	mov	ecx, DWORD PTR _x$[ebp]
	push	ecx
	call	__LZCNT_ALT_UNIT
	add	esp, 4
	mov	edx, 64					; 00000040H
	sub	edx, eax
	mov	DWORD PTR _x_bit_length$1[ebp], edx

; 80   :         if ((result = AllocateNumber(o, x_bit_length, NULL)) != PMC_STATUS_OK)

	push	0
	mov	eax, DWORD PTR _x_bit_length$1[ebp]
	push	eax
	mov	ecx, DWORD PTR _o$[ebp]
	push	ecx
	call	_AllocateNumber
	add	esp, 12					; 0000000cH
	mov	DWORD PTR _result$[ebp], eax
	cmp	DWORD PTR _result$[ebp], 0
	je	SHORT $LN10@From_L_Imp

; 81   :             return (result);

	mov	eax, DWORD PTR _result$[ebp]
	jmp	SHORT $LN1@From_L_Imp
$LN10@From_L_Imp:

; 82   :         (*o)->BLOCK[0] = (__UNIT_TYPE)x;

	mov	edx, DWORD PTR _x$[ebp]
	mov	eax, DWORD PTR _o$[ebp]
	mov	ecx, DWORD PTR [eax]
	mov	eax, 4
	imul	eax, eax, 0
	mov	ecx, DWORD PTR [ecx+24]
	mov	DWORD PTR [eax+ecx], edx
$LN3@From_L_Imp:

; 83   :     }
; 84   :     CommitNumber(*o);

	mov	edx, DWORD PTR _o$[ebp]
	mov	eax, DWORD PTR [edx]
	push	eax
	call	_CommitNumber
	add	esp, 4

; 85   :     return (PMC_STATUS_OK);

	xor	eax, eax
$LN1@From_L_Imp:

; 86   : }

	push	edx
	mov	ecx, ebp
	push	eax
	lea	edx, DWORD PTR $LN14@From_L_Imp
	call	@_RTC_CheckStackVars@8
	pop	eax
	pop	edx
	add	esp, 32					; 00000020H
	cmp	ebp, esp
	call	__RTC_CheckEsp
	mov	esp, ebp
	pop	ebp
	ret	0
	npad	1
$LN14@From_L_Imp:
	DD	1
	DD	$LN13@From_L_Imp
$LN13@From_L_Imp:
	DD	-12					; fffffff4H
	DD	4
	DD	$LN12@From_L_Imp
$LN12@From_L_Imp:
	DB	120					; 00000078H
	DB	95					; 0000005fH
	DB	104					; 00000068H
	DB	105					; 00000069H
	DB	0
_From_L_Imp ENDP
_TEXT	ENDS
; Function compile flags: /Odtp /RTCsu
; File z:\sources\lunor\repos\rougemeilland\palmtree.math.core.implements\palmtree.math.core.implements\pmc_from.c
_TEXT	SEGMENT
_result$ = -4						; size = 4
_x$ = 8							; size = 4
_o$ = 12						; size = 4
_From_I_Imp PROC

; 37   : {

	push	ebp
	mov	ebp, esp
	push	ecx
	mov	DWORD PTR [ebp-4], -858993460		; ccccccccH
	mov	ecx, OFFSET __5C0CD9D4_pmc_from@c
	call	@__CheckForDebuggerJustMyCode@4

; 38   :     PMC_STATUS_CODE result;
; 39   :     if ((result = AllocateNumber(o, sizeof(x) * 8 - _LZCNT_ALT_32(x), NULL)) != PMC_STATUS_OK)

	push	0
	mov	eax, DWORD PTR _x$[ebp]
	push	eax
	call	__LZCNT_ALT_32
	add	esp, 4
	mov	ecx, 32					; 00000020H
	sub	ecx, eax
	push	ecx
	mov	edx, DWORD PTR _o$[ebp]
	push	edx
	call	_AllocateNumber
	add	esp, 12					; 0000000cH
	mov	DWORD PTR _result$[ebp], eax
	cmp	DWORD PTR _result$[ebp], 0
	je	SHORT $LN2@From_I_Imp

; 40   :         return (result);

	mov	eax, DWORD PTR _result$[ebp]
	jmp	SHORT $LN1@From_I_Imp
$LN2@From_I_Imp:

; 41   :     (*o)->BLOCK[0] = x;

	mov	eax, DWORD PTR _o$[ebp]
	mov	ecx, DWORD PTR [eax]
	mov	edx, 4
	imul	eax, edx, 0
	mov	ecx, DWORD PTR [ecx+24]
	mov	edx, DWORD PTR _x$[ebp]
	mov	DWORD PTR [eax+ecx], edx

; 42   :     CommitNumber(*o);

	mov	eax, DWORD PTR _o$[ebp]
	mov	ecx, DWORD PTR [eax]
	push	ecx
	call	_CommitNumber
	add	esp, 4

; 43   :     return (PMC_STATUS_OK);

	xor	eax, eax
$LN1@From_I_Imp:

; 44   : }

	add	esp, 4
	cmp	ebp, esp
	call	__RTC_CheckEsp
	mov	esp, ebp
	pop	ebp
	ret	0
_From_I_Imp ENDP
_TEXT	ENDS
END
