; Listing generated by Microsoft (R) Optimizing Compiler Version 19.16.27026.1 

	TITLE	Z:\Sources\Lunor\Repos\rougemeilland\Palmtree.Math.Core.Implements\Palmtree.Math.Core.Implements\pmc_shift.c
	.686P
	.XMM
	include listing.inc
	.model	flat

INCLUDELIB MSVCRTD
INCLUDELIB OLDNAMES

msvcjmc	SEGMENT
__7B7A869E_ctype@h DB 01H
__457DD326_basetsd@h DB 01H
__4384A2D9_corecrt_memcpy_s@h DB 01H
__4E51A221_corecrt_wstring@h DB 01H
__2140C079_string@h DB 01H
__1887E595_winnt@h DB 01H
__9FC7C64B_processthreadsapi@h DB 01H
__FA470AEC_memoryapi@h DB 01H
__F37DAFF1_winerror@h DB 01H
__7A450CCC_winbase@h DB 01H
__B4B40122_winioctl@h DB 01H
__86261D59_stralign@h DB 01H
__4522B509_pmc_internal@h DB 01H
__BE4F50ED_pmc_shift@c DB 01H
msvcjmc	ENDS
PUBLIC	_RightShift_Imp_DIV
PUBLIC	_LeftShift_Imp_DIV
PUBLIC	_Initialize_Shift
PUBLIC	_PMC_RightShift_X_I@12
PUBLIC	_PMC_RightShift_X_L@16
PUBLIC	_PMC_LeftShift_X_I@12
PUBLIC	_PMC_LeftShift_X_L@16
PUBLIC	_RightShift_Imp
PUBLIC	_LeftShift_Imp
PUBLIC	__JustMyCode_Default
EXTRN	_CheckBlockLight:PROC
EXTRN	_AllocateNumber:PROC
EXTRN	_CommitNumber:PROC
EXTRN	_CheckNumber:PROC
EXTRN	_DuplicateNumber:PROC
EXTRN	@_RTC_CheckStackVars@8:PROC
EXTRN	@__CheckForDebuggerJustMyCode@4:PROC
EXTRN	__RTC_CheckEsp:PROC
EXTRN	__RTC_InitBase:PROC
EXTRN	__RTC_Shutdown:PROC
EXTRN	_number_zero:BYTE
;	COMDAT rtc$TMZ
rtc$TMZ	SEGMENT
__RTC_Shutdown.rtc$TMZ DD FLAT:__RTC_Shutdown
rtc$TMZ	ENDS
;	COMDAT rtc$IMZ
rtc$IMZ	SEGMENT
__RTC_InitBase.rtc$IMZ DD FLAT:__RTC_InitBase
rtc$IMZ	ENDS
; Function compile flags: /Odt
;	COMDAT __JustMyCode_Default
_TEXT	SEGMENT
__JustMyCode_Default PROC				; COMDAT
	push	ebp
	mov	ebp, esp
	pop	ebp
	ret	0
__JustMyCode_Default ENDP
_TEXT	ENDS
; Function compile flags: /Odtp /RTCsu
; File z:\sources\lunor\repos\rougemeilland\palmtree.math.core.implements\palmtree.math.core.implements\pmc_shift.c
_TEXT	SEGMENT
_count$1 = -36						; size = 4
_work$2 = -32						; size = 4
_temp$3 = -28						; size = 4
_n_rshift_bit_count$4 = -24				; size = 4
_n_lshift_bit_count$ = -20				; size = 4
_n_word_count$ = -16					; size = 4
_op$ = -12						; size = 4
_p_count$ = -8						; size = 4
_pp$ = -4						; size = 4
_p$ = 8							; size = 4
_p_word_count$ = 12					; size = 4
_n$ = 16						; size = 4
_o$ = 20						; size = 4
_padding_zero$ = 24					; size = 4
_LeftShift_Imp PROC

; 304  : {

	push	ebp
	mov	ebp, esp
	sub	esp, 36					; 00000024H
	mov	eax, -858993460				; ccccccccH
	mov	DWORD PTR [ebp-36], eax
	mov	DWORD PTR [ebp-32], eax
	mov	DWORD PTR [ebp-28], eax
	mov	DWORD PTR [ebp-24], eax
	mov	DWORD PTR [ebp-20], eax
	mov	DWORD PTR [ebp-16], eax
	mov	DWORD PTR [ebp-12], eax
	mov	DWORD PTR [ebp-8], eax
	mov	DWORD PTR [ebp-4], eax
	mov	ecx, OFFSET __BE4F50ED_pmc_shift@c
	call	@__CheckForDebuggerJustMyCode@4

; 305  :     __UNIT_TYPE* pp = p;

	mov	eax, DWORD PTR _p$[ebp]
	mov	DWORD PTR _pp$[ebp], eax

; 306  :     __UNIT_TYPE p_count = p_word_count;

	mov	ecx, DWORD PTR _p_word_count$[ebp]
	mov	DWORD PTR _p_count$[ebp], ecx

; 307  :     __UNIT_TYPE* op = o;

	mov	edx, DWORD PTR _o$[ebp]
	mov	DWORD PTR _op$[ebp], edx

; 308  :     __UNIT_TYPE n_word_count = n / __UNIT_TYPE_BIT_COUNT;

	mov	eax, DWORD PTR _n$[ebp]
	shr	eax, 5
	mov	DWORD PTR _n_word_count$[ebp], eax

; 309  :     __UNIT_TYPE n_lshift_bit_count = n % __UNIT_TYPE_BIT_COUNT;

	mov	eax, DWORD PTR _n$[ebp]
	xor	edx, edx
	mov	ecx, 32					; 00000020H
	div	ecx
	mov	DWORD PTR _n_lshift_bit_count$[ebp], edx

; 310  :     if (n_lshift_bit_count == 0)

	cmp	DWORD PTR _n_lshift_bit_count$[ebp], 0
	jne	SHORT $LN4@LeftShift_

; 311  :     {
; 312  :         // シフト数がちょうどワード境界分であれば単にワード単位のデータ移動のみ行う。
; 313  :         _COPY_MEMORY_UNIT(op + n_word_count, pp, p_count);

	mov	edx, DWORD PTR _p_count$[ebp]
	push	edx
	mov	eax, DWORD PTR _pp$[ebp]
	push	eax
	mov	ecx, DWORD PTR _n_word_count$[ebp]
	mov	edx, DWORD PTR _op$[ebp]
	lea	eax, DWORD PTR [edx+ecx*4]
	push	eax
	call	__COPY_MEMORY_UNIT
	add	esp, 12					; 0000000cH

; 314  :     }

	jmp	$LN1@LeftShift_
$LN4@LeftShift_:

; 315  :     else
; 316  :     {
; 317  :         __UNIT_TYPE n_rshift_bit_count = __UNIT_TYPE_BIT_COUNT - n_lshift_bit_count;

	mov	ecx, 32					; 00000020H
	sub	ecx, DWORD PTR _n_lshift_bit_count$[ebp]
	mov	DWORD PTR _n_rshift_bit_count$4[ebp], ecx

; 318  :         pp += p_count - 1;

	mov	edx, DWORD PTR _p_count$[ebp]
	mov	eax, DWORD PTR _pp$[ebp]
	lea	ecx, DWORD PTR [eax+edx*4-4]
	mov	DWORD PTR _pp$[ebp], ecx

; 319  :         op += p_count + n_word_count;

	mov	edx, DWORD PTR _p_count$[ebp]
	add	edx, DWORD PTR _n_word_count$[ebp]
	mov	eax, DWORD PTR _op$[ebp]
	lea	ecx, DWORD PTR [eax+edx*4]
	mov	DWORD PTR _op$[ebp], ecx

; 320  :         p_count -= 1;

	mov	edx, DWORD PTR _p_count$[ebp]
	sub	edx, 1
	mov	DWORD PTR _p_count$[ebp], edx

; 321  :         __UNIT_TYPE temp = *pp;

	mov	eax, DWORD PTR _pp$[ebp]
	mov	ecx, DWORD PTR [eax]
	mov	DWORD PTR _temp$3[ebp], ecx

; 322  :         __UNIT_TYPE work = temp >> n_rshift_bit_count;

	mov	edx, DWORD PTR _temp$3[ebp]
	mov	ecx, DWORD PTR _n_rshift_bit_count$4[ebp]
	shr	edx, cl
	mov	DWORD PTR _work$2[ebp], edx

; 323  :         if (work != 0)

	cmp	DWORD PTR _work$2[ebp], 0
	je	SHORT $LN6@LeftShift_

; 324  :             *op = work;

	mov	eax, DWORD PTR _op$[ebp]
	mov	ecx, DWORD PTR _work$2[ebp]
	mov	DWORD PTR [eax], ecx
$LN6@LeftShift_:

; 325  :         --pp;

	mov	edx, DWORD PTR _pp$[ebp]
	sub	edx, 4
	mov	DWORD PTR _pp$[ebp], edx

; 326  :         --op;

	mov	eax, DWORD PTR _op$[ebp]
	sub	eax, 4
	mov	DWORD PTR _op$[ebp], eax

; 327  : 
; 328  :         __UNIT_TYPE count = p_count >> 5;

	mov	ecx, DWORD PTR _p_count$[ebp]
	shr	ecx, 5
	mov	DWORD PTR _count$1[ebp], ecx
$LN2@LeftShift_:

; 329  :         while (count != 0)

	cmp	DWORD PTR _count$1[ebp], 0
	je	$LN3@LeftShift_

; 330  :         {
; 331  :             work = temp << n_lshift_bit_count; temp = pp[-0]; work |= temp >> n_rshift_bit_count; op[-0] = work;

	mov	edx, DWORD PTR _temp$3[ebp]
	mov	ecx, DWORD PTR _n_lshift_bit_count$[ebp]
	shl	edx, cl
	mov	DWORD PTR _work$2[ebp], edx
	mov	eax, 4
	imul	ecx, eax, 0
	mov	edx, DWORD PTR _pp$[ebp]
	mov	eax, DWORD PTR [edx+ecx]
	mov	DWORD PTR _temp$3[ebp], eax
	mov	edx, DWORD PTR _temp$3[ebp]
	mov	ecx, DWORD PTR _n_rshift_bit_count$4[ebp]
	shr	edx, cl
	or	edx, DWORD PTR _work$2[ebp]
	mov	DWORD PTR _work$2[ebp], edx
	mov	eax, 4
	imul	ecx, eax, 0
	mov	edx, DWORD PTR _op$[ebp]
	mov	eax, DWORD PTR _work$2[ebp]
	mov	DWORD PTR [edx+ecx], eax

; 332  :             work = temp << n_lshift_bit_count; temp = pp[-1]; work |= temp >> n_rshift_bit_count; op[-1] = work;

	mov	edx, DWORD PTR _temp$3[ebp]
	mov	ecx, DWORD PTR _n_lshift_bit_count$[ebp]
	shl	edx, cl
	mov	DWORD PTR _work$2[ebp], edx
	mov	eax, 4
	imul	ecx, eax, -1
	mov	edx, DWORD PTR _pp$[ebp]
	mov	eax, DWORD PTR [edx+ecx]
	mov	DWORD PTR _temp$3[ebp], eax
	mov	edx, DWORD PTR _temp$3[ebp]
	mov	ecx, DWORD PTR _n_rshift_bit_count$4[ebp]
	shr	edx, cl
	or	edx, DWORD PTR _work$2[ebp]
	mov	DWORD PTR _work$2[ebp], edx
	mov	eax, 4
	imul	ecx, eax, -1
	mov	edx, DWORD PTR _op$[ebp]
	mov	eax, DWORD PTR _work$2[ebp]
	mov	DWORD PTR [edx+ecx], eax

; 333  :             work = temp << n_lshift_bit_count; temp = pp[-2]; work |= temp >> n_rshift_bit_count; op[-2] = work;

	mov	edx, DWORD PTR _temp$3[ebp]
	mov	ecx, DWORD PTR _n_lshift_bit_count$[ebp]
	shl	edx, cl
	mov	DWORD PTR _work$2[ebp], edx
	mov	eax, 4
	imul	ecx, eax, -2
	mov	edx, DWORD PTR _pp$[ebp]
	mov	eax, DWORD PTR [edx+ecx]
	mov	DWORD PTR _temp$3[ebp], eax
	mov	edx, DWORD PTR _temp$3[ebp]
	mov	ecx, DWORD PTR _n_rshift_bit_count$4[ebp]
	shr	edx, cl
	or	edx, DWORD PTR _work$2[ebp]
	mov	DWORD PTR _work$2[ebp], edx
	mov	eax, 4
	imul	ecx, eax, -2
	mov	edx, DWORD PTR _op$[ebp]
	mov	eax, DWORD PTR _work$2[ebp]
	mov	DWORD PTR [edx+ecx], eax

; 334  :             work = temp << n_lshift_bit_count; temp = pp[-3]; work |= temp >> n_rshift_bit_count; op[-3] = work;

	mov	edx, DWORD PTR _temp$3[ebp]
	mov	ecx, DWORD PTR _n_lshift_bit_count$[ebp]
	shl	edx, cl
	mov	DWORD PTR _work$2[ebp], edx
	mov	eax, 4
	imul	ecx, eax, -3
	mov	edx, DWORD PTR _pp$[ebp]
	mov	eax, DWORD PTR [edx+ecx]
	mov	DWORD PTR _temp$3[ebp], eax
	mov	edx, DWORD PTR _temp$3[ebp]
	mov	ecx, DWORD PTR _n_rshift_bit_count$4[ebp]
	shr	edx, cl
	or	edx, DWORD PTR _work$2[ebp]
	mov	DWORD PTR _work$2[ebp], edx
	mov	eax, 4
	imul	ecx, eax, -3
	mov	edx, DWORD PTR _op$[ebp]
	mov	eax, DWORD PTR _work$2[ebp]
	mov	DWORD PTR [edx+ecx], eax

; 335  :             work = temp << n_lshift_bit_count; temp = pp[-4]; work |= temp >> n_rshift_bit_count; op[-4] = work;

	mov	edx, DWORD PTR _temp$3[ebp]
	mov	ecx, DWORD PTR _n_lshift_bit_count$[ebp]
	shl	edx, cl
	mov	DWORD PTR _work$2[ebp], edx
	mov	eax, 4
	imul	ecx, eax, -4
	mov	edx, DWORD PTR _pp$[ebp]
	mov	eax, DWORD PTR [edx+ecx]
	mov	DWORD PTR _temp$3[ebp], eax
	mov	edx, DWORD PTR _temp$3[ebp]
	mov	ecx, DWORD PTR _n_rshift_bit_count$4[ebp]
	shr	edx, cl
	or	edx, DWORD PTR _work$2[ebp]
	mov	DWORD PTR _work$2[ebp], edx
	mov	eax, 4
	imul	ecx, eax, -4
	mov	edx, DWORD PTR _op$[ebp]
	mov	eax, DWORD PTR _work$2[ebp]
	mov	DWORD PTR [edx+ecx], eax

; 336  :             work = temp << n_lshift_bit_count; temp = pp[-5]; work |= temp >> n_rshift_bit_count; op[-5] = work;

	mov	edx, DWORD PTR _temp$3[ebp]
	mov	ecx, DWORD PTR _n_lshift_bit_count$[ebp]
	shl	edx, cl
	mov	DWORD PTR _work$2[ebp], edx
	mov	eax, 4
	imul	ecx, eax, -5
	mov	edx, DWORD PTR _pp$[ebp]
	mov	eax, DWORD PTR [edx+ecx]
	mov	DWORD PTR _temp$3[ebp], eax
	mov	edx, DWORD PTR _temp$3[ebp]
	mov	ecx, DWORD PTR _n_rshift_bit_count$4[ebp]
	shr	edx, cl
	or	edx, DWORD PTR _work$2[ebp]
	mov	DWORD PTR _work$2[ebp], edx
	mov	eax, 4
	imul	ecx, eax, -5
	mov	edx, DWORD PTR _op$[ebp]
	mov	eax, DWORD PTR _work$2[ebp]
	mov	DWORD PTR [edx+ecx], eax

; 337  :             work = temp << n_lshift_bit_count; temp = pp[-6]; work |= temp >> n_rshift_bit_count; op[-6] = work;

	mov	edx, DWORD PTR _temp$3[ebp]
	mov	ecx, DWORD PTR _n_lshift_bit_count$[ebp]
	shl	edx, cl
	mov	DWORD PTR _work$2[ebp], edx
	mov	eax, 4
	imul	ecx, eax, -6
	mov	edx, DWORD PTR _pp$[ebp]
	mov	eax, DWORD PTR [edx+ecx]
	mov	DWORD PTR _temp$3[ebp], eax
	mov	edx, DWORD PTR _temp$3[ebp]
	mov	ecx, DWORD PTR _n_rshift_bit_count$4[ebp]
	shr	edx, cl
	or	edx, DWORD PTR _work$2[ebp]
	mov	DWORD PTR _work$2[ebp], edx
	mov	eax, 4
	imul	ecx, eax, -6
	mov	edx, DWORD PTR _op$[ebp]
	mov	eax, DWORD PTR _work$2[ebp]
	mov	DWORD PTR [edx+ecx], eax

; 338  :             work = temp << n_lshift_bit_count; temp = pp[-7]; work |= temp >> n_rshift_bit_count; op[-7] = work;

	mov	edx, DWORD PTR _temp$3[ebp]
	mov	ecx, DWORD PTR _n_lshift_bit_count$[ebp]
	shl	edx, cl
	mov	DWORD PTR _work$2[ebp], edx
	mov	eax, 4
	imul	ecx, eax, -7
	mov	edx, DWORD PTR _pp$[ebp]
	mov	eax, DWORD PTR [edx+ecx]
	mov	DWORD PTR _temp$3[ebp], eax
	mov	edx, DWORD PTR _temp$3[ebp]
	mov	ecx, DWORD PTR _n_rshift_bit_count$4[ebp]
	shr	edx, cl
	or	edx, DWORD PTR _work$2[ebp]
	mov	DWORD PTR _work$2[ebp], edx
	mov	eax, 4
	imul	ecx, eax, -7
	mov	edx, DWORD PTR _op$[ebp]
	mov	eax, DWORD PTR _work$2[ebp]
	mov	DWORD PTR [edx+ecx], eax

; 339  :             work = temp << n_lshift_bit_count; temp = pp[-8]; work |= temp >> n_rshift_bit_count; op[-8] = work;

	mov	edx, DWORD PTR _temp$3[ebp]
	mov	ecx, DWORD PTR _n_lshift_bit_count$[ebp]
	shl	edx, cl
	mov	DWORD PTR _work$2[ebp], edx
	mov	eax, 4
	imul	ecx, eax, -8
	mov	edx, DWORD PTR _pp$[ebp]
	mov	eax, DWORD PTR [edx+ecx]
	mov	DWORD PTR _temp$3[ebp], eax
	mov	edx, DWORD PTR _temp$3[ebp]
	mov	ecx, DWORD PTR _n_rshift_bit_count$4[ebp]
	shr	edx, cl
	or	edx, DWORD PTR _work$2[ebp]
	mov	DWORD PTR _work$2[ebp], edx
	mov	eax, 4
	imul	ecx, eax, -8
	mov	edx, DWORD PTR _op$[ebp]
	mov	eax, DWORD PTR _work$2[ebp]
	mov	DWORD PTR [edx+ecx], eax

; 340  :             work = temp << n_lshift_bit_count; temp = pp[-9]; work |= temp >> n_rshift_bit_count; op[-9] = work;

	mov	edx, DWORD PTR _temp$3[ebp]
	mov	ecx, DWORD PTR _n_lshift_bit_count$[ebp]
	shl	edx, cl
	mov	DWORD PTR _work$2[ebp], edx
	mov	eax, 4
	imul	ecx, eax, -9
	mov	edx, DWORD PTR _pp$[ebp]
	mov	eax, DWORD PTR [edx+ecx]
	mov	DWORD PTR _temp$3[ebp], eax
	mov	edx, DWORD PTR _temp$3[ebp]
	mov	ecx, DWORD PTR _n_rshift_bit_count$4[ebp]
	shr	edx, cl
	or	edx, DWORD PTR _work$2[ebp]
	mov	DWORD PTR _work$2[ebp], edx
	mov	eax, 4
	imul	ecx, eax, -9
	mov	edx, DWORD PTR _op$[ebp]
	mov	eax, DWORD PTR _work$2[ebp]
	mov	DWORD PTR [edx+ecx], eax

; 341  :             work = temp << n_lshift_bit_count; temp = pp[-10]; work |= temp >> n_rshift_bit_count; op[-10] = work;

	mov	edx, DWORD PTR _temp$3[ebp]
	mov	ecx, DWORD PTR _n_lshift_bit_count$[ebp]
	shl	edx, cl
	mov	DWORD PTR _work$2[ebp], edx
	mov	eax, 4
	imul	ecx, eax, -10
	mov	edx, DWORD PTR _pp$[ebp]
	mov	eax, DWORD PTR [edx+ecx]
	mov	DWORD PTR _temp$3[ebp], eax
	mov	edx, DWORD PTR _temp$3[ebp]
	mov	ecx, DWORD PTR _n_rshift_bit_count$4[ebp]
	shr	edx, cl
	or	edx, DWORD PTR _work$2[ebp]
	mov	DWORD PTR _work$2[ebp], edx
	mov	eax, 4
	imul	ecx, eax, -10
	mov	edx, DWORD PTR _op$[ebp]
	mov	eax, DWORD PTR _work$2[ebp]
	mov	DWORD PTR [edx+ecx], eax

; 342  :             work = temp << n_lshift_bit_count; temp = pp[-11]; work |= temp >> n_rshift_bit_count; op[-11] = work;

	mov	edx, DWORD PTR _temp$3[ebp]
	mov	ecx, DWORD PTR _n_lshift_bit_count$[ebp]
	shl	edx, cl
	mov	DWORD PTR _work$2[ebp], edx
	mov	eax, 4
	imul	ecx, eax, -11
	mov	edx, DWORD PTR _pp$[ebp]
	mov	eax, DWORD PTR [edx+ecx]
	mov	DWORD PTR _temp$3[ebp], eax
	mov	edx, DWORD PTR _temp$3[ebp]
	mov	ecx, DWORD PTR _n_rshift_bit_count$4[ebp]
	shr	edx, cl
	or	edx, DWORD PTR _work$2[ebp]
	mov	DWORD PTR _work$2[ebp], edx
	mov	eax, 4
	imul	ecx, eax, -11
	mov	edx, DWORD PTR _op$[ebp]
	mov	eax, DWORD PTR _work$2[ebp]
	mov	DWORD PTR [edx+ecx], eax

; 343  :             work = temp << n_lshift_bit_count; temp = pp[-12]; work |= temp >> n_rshift_bit_count; op[-12] = work;

	mov	edx, DWORD PTR _temp$3[ebp]
	mov	ecx, DWORD PTR _n_lshift_bit_count$[ebp]
	shl	edx, cl
	mov	DWORD PTR _work$2[ebp], edx
	mov	eax, 4
	imul	ecx, eax, -12
	mov	edx, DWORD PTR _pp$[ebp]
	mov	eax, DWORD PTR [edx+ecx]
	mov	DWORD PTR _temp$3[ebp], eax
	mov	edx, DWORD PTR _temp$3[ebp]
	mov	ecx, DWORD PTR _n_rshift_bit_count$4[ebp]
	shr	edx, cl
	or	edx, DWORD PTR _work$2[ebp]
	mov	DWORD PTR _work$2[ebp], edx
	mov	eax, 4
	imul	ecx, eax, -12
	mov	edx, DWORD PTR _op$[ebp]
	mov	eax, DWORD PTR _work$2[ebp]
	mov	DWORD PTR [edx+ecx], eax

; 344  :             work = temp << n_lshift_bit_count; temp = pp[-13]; work |= temp >> n_rshift_bit_count; op[-13] = work;

	mov	edx, DWORD PTR _temp$3[ebp]
	mov	ecx, DWORD PTR _n_lshift_bit_count$[ebp]
	shl	edx, cl
	mov	DWORD PTR _work$2[ebp], edx
	mov	eax, 4
	imul	ecx, eax, -13
	mov	edx, DWORD PTR _pp$[ebp]
	mov	eax, DWORD PTR [edx+ecx]
	mov	DWORD PTR _temp$3[ebp], eax
	mov	edx, DWORD PTR _temp$3[ebp]
	mov	ecx, DWORD PTR _n_rshift_bit_count$4[ebp]
	shr	edx, cl
	or	edx, DWORD PTR _work$2[ebp]
	mov	DWORD PTR _work$2[ebp], edx
	mov	eax, 4
	imul	ecx, eax, -13
	mov	edx, DWORD PTR _op$[ebp]
	mov	eax, DWORD PTR _work$2[ebp]
	mov	DWORD PTR [edx+ecx], eax

; 345  :             work = temp << n_lshift_bit_count; temp = pp[-14]; work |= temp >> n_rshift_bit_count; op[-14] = work;

	mov	edx, DWORD PTR _temp$3[ebp]
	mov	ecx, DWORD PTR _n_lshift_bit_count$[ebp]
	shl	edx, cl
	mov	DWORD PTR _work$2[ebp], edx
	mov	eax, 4
	imul	ecx, eax, -14
	mov	edx, DWORD PTR _pp$[ebp]
	mov	eax, DWORD PTR [edx+ecx]
	mov	DWORD PTR _temp$3[ebp], eax
	mov	edx, DWORD PTR _temp$3[ebp]
	mov	ecx, DWORD PTR _n_rshift_bit_count$4[ebp]
	shr	edx, cl
	or	edx, DWORD PTR _work$2[ebp]
	mov	DWORD PTR _work$2[ebp], edx
	mov	eax, 4
	imul	ecx, eax, -14
	mov	edx, DWORD PTR _op$[ebp]
	mov	eax, DWORD PTR _work$2[ebp]
	mov	DWORD PTR [edx+ecx], eax

; 346  :             work = temp << n_lshift_bit_count; temp = pp[-15]; work |= temp >> n_rshift_bit_count; op[-15] = work;

	mov	edx, DWORD PTR _temp$3[ebp]
	mov	ecx, DWORD PTR _n_lshift_bit_count$[ebp]
	shl	edx, cl
	mov	DWORD PTR _work$2[ebp], edx
	mov	eax, 4
	imul	ecx, eax, -15
	mov	edx, DWORD PTR _pp$[ebp]
	mov	eax, DWORD PTR [edx+ecx]
	mov	DWORD PTR _temp$3[ebp], eax
	mov	edx, DWORD PTR _temp$3[ebp]
	mov	ecx, DWORD PTR _n_rshift_bit_count$4[ebp]
	shr	edx, cl
	or	edx, DWORD PTR _work$2[ebp]
	mov	DWORD PTR _work$2[ebp], edx
	mov	eax, 4
	imul	ecx, eax, -15
	mov	edx, DWORD PTR _op$[ebp]
	mov	eax, DWORD PTR _work$2[ebp]
	mov	DWORD PTR [edx+ecx], eax

; 347  :             work = temp << n_lshift_bit_count; temp = pp[-16]; work |= temp >> n_rshift_bit_count; op[-16] = work;

	mov	edx, DWORD PTR _temp$3[ebp]
	mov	ecx, DWORD PTR _n_lshift_bit_count$[ebp]
	shl	edx, cl
	mov	DWORD PTR _work$2[ebp], edx
	mov	eax, 4
	imul	ecx, eax, -16
	mov	edx, DWORD PTR _pp$[ebp]
	mov	eax, DWORD PTR [edx+ecx]
	mov	DWORD PTR _temp$3[ebp], eax
	mov	edx, DWORD PTR _temp$3[ebp]
	mov	ecx, DWORD PTR _n_rshift_bit_count$4[ebp]
	shr	edx, cl
	or	edx, DWORD PTR _work$2[ebp]
	mov	DWORD PTR _work$2[ebp], edx
	mov	eax, 4
	imul	ecx, eax, -16
	mov	edx, DWORD PTR _op$[ebp]
	mov	eax, DWORD PTR _work$2[ebp]
	mov	DWORD PTR [edx+ecx], eax

; 348  :             work = temp << n_lshift_bit_count; temp = pp[-17]; work |= temp >> n_rshift_bit_count; op[-17] = work;

	mov	edx, DWORD PTR _temp$3[ebp]
	mov	ecx, DWORD PTR _n_lshift_bit_count$[ebp]
	shl	edx, cl
	mov	DWORD PTR _work$2[ebp], edx
	mov	eax, 4
	imul	ecx, eax, -17
	mov	edx, DWORD PTR _pp$[ebp]
	mov	eax, DWORD PTR [edx+ecx]
	mov	DWORD PTR _temp$3[ebp], eax
	mov	edx, DWORD PTR _temp$3[ebp]
	mov	ecx, DWORD PTR _n_rshift_bit_count$4[ebp]
	shr	edx, cl
	or	edx, DWORD PTR _work$2[ebp]
	mov	DWORD PTR _work$2[ebp], edx
	mov	eax, 4
	imul	ecx, eax, -17
	mov	edx, DWORD PTR _op$[ebp]
	mov	eax, DWORD PTR _work$2[ebp]
	mov	DWORD PTR [edx+ecx], eax

; 349  :             work = temp << n_lshift_bit_count; temp = pp[-18]; work |= temp >> n_rshift_bit_count; op[-18] = work;

	mov	edx, DWORD PTR _temp$3[ebp]
	mov	ecx, DWORD PTR _n_lshift_bit_count$[ebp]
	shl	edx, cl
	mov	DWORD PTR _work$2[ebp], edx
	mov	eax, 4
	imul	ecx, eax, -18
	mov	edx, DWORD PTR _pp$[ebp]
	mov	eax, DWORD PTR [edx+ecx]
	mov	DWORD PTR _temp$3[ebp], eax
	mov	edx, DWORD PTR _temp$3[ebp]
	mov	ecx, DWORD PTR _n_rshift_bit_count$4[ebp]
	shr	edx, cl
	or	edx, DWORD PTR _work$2[ebp]
	mov	DWORD PTR _work$2[ebp], edx
	mov	eax, 4
	imul	ecx, eax, -18
	mov	edx, DWORD PTR _op$[ebp]
	mov	eax, DWORD PTR _work$2[ebp]
	mov	DWORD PTR [edx+ecx], eax

; 350  :             work = temp << n_lshift_bit_count; temp = pp[-19]; work |= temp >> n_rshift_bit_count; op[-19] = work;

	mov	edx, DWORD PTR _temp$3[ebp]
	mov	ecx, DWORD PTR _n_lshift_bit_count$[ebp]
	shl	edx, cl
	mov	DWORD PTR _work$2[ebp], edx
	mov	eax, 4
	imul	ecx, eax, -19
	mov	edx, DWORD PTR _pp$[ebp]
	mov	eax, DWORD PTR [edx+ecx]
	mov	DWORD PTR _temp$3[ebp], eax
	mov	edx, DWORD PTR _temp$3[ebp]
	mov	ecx, DWORD PTR _n_rshift_bit_count$4[ebp]
	shr	edx, cl
	or	edx, DWORD PTR _work$2[ebp]
	mov	DWORD PTR _work$2[ebp], edx
	mov	eax, 4
	imul	ecx, eax, -19
	mov	edx, DWORD PTR _op$[ebp]
	mov	eax, DWORD PTR _work$2[ebp]
	mov	DWORD PTR [edx+ecx], eax

; 351  :             work = temp << n_lshift_bit_count; temp = pp[-20]; work |= temp >> n_rshift_bit_count; op[-20] = work;

	mov	edx, DWORD PTR _temp$3[ebp]
	mov	ecx, DWORD PTR _n_lshift_bit_count$[ebp]
	shl	edx, cl
	mov	DWORD PTR _work$2[ebp], edx
	mov	eax, 4
	imul	ecx, eax, -20
	mov	edx, DWORD PTR _pp$[ebp]
	mov	eax, DWORD PTR [edx+ecx]
	mov	DWORD PTR _temp$3[ebp], eax
	mov	edx, DWORD PTR _temp$3[ebp]
	mov	ecx, DWORD PTR _n_rshift_bit_count$4[ebp]
	shr	edx, cl
	or	edx, DWORD PTR _work$2[ebp]
	mov	DWORD PTR _work$2[ebp], edx
	mov	eax, 4
	imul	ecx, eax, -20
	mov	edx, DWORD PTR _op$[ebp]
	mov	eax, DWORD PTR _work$2[ebp]
	mov	DWORD PTR [edx+ecx], eax

; 352  :             work = temp << n_lshift_bit_count; temp = pp[-21]; work |= temp >> n_rshift_bit_count; op[-21] = work;

	mov	edx, DWORD PTR _temp$3[ebp]
	mov	ecx, DWORD PTR _n_lshift_bit_count$[ebp]
	shl	edx, cl
	mov	DWORD PTR _work$2[ebp], edx
	mov	eax, 4
	imul	ecx, eax, -21
	mov	edx, DWORD PTR _pp$[ebp]
	mov	eax, DWORD PTR [edx+ecx]
	mov	DWORD PTR _temp$3[ebp], eax
	mov	edx, DWORD PTR _temp$3[ebp]
	mov	ecx, DWORD PTR _n_rshift_bit_count$4[ebp]
	shr	edx, cl
	or	edx, DWORD PTR _work$2[ebp]
	mov	DWORD PTR _work$2[ebp], edx
	mov	eax, 4
	imul	ecx, eax, -21
	mov	edx, DWORD PTR _op$[ebp]
	mov	eax, DWORD PTR _work$2[ebp]
	mov	DWORD PTR [edx+ecx], eax

; 353  :             work = temp << n_lshift_bit_count; temp = pp[-22]; work |= temp >> n_rshift_bit_count; op[-22] = work;

	mov	edx, DWORD PTR _temp$3[ebp]
	mov	ecx, DWORD PTR _n_lshift_bit_count$[ebp]
	shl	edx, cl
	mov	DWORD PTR _work$2[ebp], edx
	mov	eax, 4
	imul	ecx, eax, -22
	mov	edx, DWORD PTR _pp$[ebp]
	mov	eax, DWORD PTR [edx+ecx]
	mov	DWORD PTR _temp$3[ebp], eax
	mov	edx, DWORD PTR _temp$3[ebp]
	mov	ecx, DWORD PTR _n_rshift_bit_count$4[ebp]
	shr	edx, cl
	or	edx, DWORD PTR _work$2[ebp]
	mov	DWORD PTR _work$2[ebp], edx
	mov	eax, 4
	imul	ecx, eax, -22
	mov	edx, DWORD PTR _op$[ebp]
	mov	eax, DWORD PTR _work$2[ebp]
	mov	DWORD PTR [edx+ecx], eax

; 354  :             work = temp << n_lshift_bit_count; temp = pp[-23]; work |= temp >> n_rshift_bit_count; op[-23] = work;

	mov	edx, DWORD PTR _temp$3[ebp]
	mov	ecx, DWORD PTR _n_lshift_bit_count$[ebp]
	shl	edx, cl
	mov	DWORD PTR _work$2[ebp], edx
	mov	eax, 4
	imul	ecx, eax, -23
	mov	edx, DWORD PTR _pp$[ebp]
	mov	eax, DWORD PTR [edx+ecx]
	mov	DWORD PTR _temp$3[ebp], eax
	mov	edx, DWORD PTR _temp$3[ebp]
	mov	ecx, DWORD PTR _n_rshift_bit_count$4[ebp]
	shr	edx, cl
	or	edx, DWORD PTR _work$2[ebp]
	mov	DWORD PTR _work$2[ebp], edx
	mov	eax, 4
	imul	ecx, eax, -23
	mov	edx, DWORD PTR _op$[ebp]
	mov	eax, DWORD PTR _work$2[ebp]
	mov	DWORD PTR [edx+ecx], eax

; 355  :             work = temp << n_lshift_bit_count; temp = pp[-24]; work |= temp >> n_rshift_bit_count; op[-24] = work;

	mov	edx, DWORD PTR _temp$3[ebp]
	mov	ecx, DWORD PTR _n_lshift_bit_count$[ebp]
	shl	edx, cl
	mov	DWORD PTR _work$2[ebp], edx
	mov	eax, 4
	imul	ecx, eax, -24
	mov	edx, DWORD PTR _pp$[ebp]
	mov	eax, DWORD PTR [edx+ecx]
	mov	DWORD PTR _temp$3[ebp], eax
	mov	edx, DWORD PTR _temp$3[ebp]
	mov	ecx, DWORD PTR _n_rshift_bit_count$4[ebp]
	shr	edx, cl
	or	edx, DWORD PTR _work$2[ebp]
	mov	DWORD PTR _work$2[ebp], edx
	mov	eax, 4
	imul	ecx, eax, -24
	mov	edx, DWORD PTR _op$[ebp]
	mov	eax, DWORD PTR _work$2[ebp]
	mov	DWORD PTR [edx+ecx], eax

; 356  :             work = temp << n_lshift_bit_count; temp = pp[-25]; work |= temp >> n_rshift_bit_count; op[-25] = work;

	mov	edx, DWORD PTR _temp$3[ebp]
	mov	ecx, DWORD PTR _n_lshift_bit_count$[ebp]
	shl	edx, cl
	mov	DWORD PTR _work$2[ebp], edx
	mov	eax, 4
	imul	ecx, eax, -25
	mov	edx, DWORD PTR _pp$[ebp]
	mov	eax, DWORD PTR [edx+ecx]
	mov	DWORD PTR _temp$3[ebp], eax
	mov	edx, DWORD PTR _temp$3[ebp]
	mov	ecx, DWORD PTR _n_rshift_bit_count$4[ebp]
	shr	edx, cl
	or	edx, DWORD PTR _work$2[ebp]
	mov	DWORD PTR _work$2[ebp], edx
	mov	eax, 4
	imul	ecx, eax, -25
	mov	edx, DWORD PTR _op$[ebp]
	mov	eax, DWORD PTR _work$2[ebp]
	mov	DWORD PTR [edx+ecx], eax

; 357  :             work = temp << n_lshift_bit_count; temp = pp[-26]; work |= temp >> n_rshift_bit_count; op[-26] = work;

	mov	edx, DWORD PTR _temp$3[ebp]
	mov	ecx, DWORD PTR _n_lshift_bit_count$[ebp]
	shl	edx, cl
	mov	DWORD PTR _work$2[ebp], edx
	mov	eax, 4
	imul	ecx, eax, -26
	mov	edx, DWORD PTR _pp$[ebp]
	mov	eax, DWORD PTR [edx+ecx]
	mov	DWORD PTR _temp$3[ebp], eax
	mov	edx, DWORD PTR _temp$3[ebp]
	mov	ecx, DWORD PTR _n_rshift_bit_count$4[ebp]
	shr	edx, cl
	or	edx, DWORD PTR _work$2[ebp]
	mov	DWORD PTR _work$2[ebp], edx
	mov	eax, 4
	imul	ecx, eax, -26
	mov	edx, DWORD PTR _op$[ebp]
	mov	eax, DWORD PTR _work$2[ebp]
	mov	DWORD PTR [edx+ecx], eax

; 358  :             work = temp << n_lshift_bit_count; temp = pp[-27]; work |= temp >> n_rshift_bit_count; op[-27] = work;

	mov	edx, DWORD PTR _temp$3[ebp]
	mov	ecx, DWORD PTR _n_lshift_bit_count$[ebp]
	shl	edx, cl
	mov	DWORD PTR _work$2[ebp], edx
	mov	eax, 4
	imul	ecx, eax, -27
	mov	edx, DWORD PTR _pp$[ebp]
	mov	eax, DWORD PTR [edx+ecx]
	mov	DWORD PTR _temp$3[ebp], eax
	mov	edx, DWORD PTR _temp$3[ebp]
	mov	ecx, DWORD PTR _n_rshift_bit_count$4[ebp]
	shr	edx, cl
	or	edx, DWORD PTR _work$2[ebp]
	mov	DWORD PTR _work$2[ebp], edx
	mov	eax, 4
	imul	ecx, eax, -27
	mov	edx, DWORD PTR _op$[ebp]
	mov	eax, DWORD PTR _work$2[ebp]
	mov	DWORD PTR [edx+ecx], eax

; 359  :             work = temp << n_lshift_bit_count; temp = pp[-28]; work |= temp >> n_rshift_bit_count; op[-28] = work;

	mov	edx, DWORD PTR _temp$3[ebp]
	mov	ecx, DWORD PTR _n_lshift_bit_count$[ebp]
	shl	edx, cl
	mov	DWORD PTR _work$2[ebp], edx
	mov	eax, 4
	imul	ecx, eax, -28
	mov	edx, DWORD PTR _pp$[ebp]
	mov	eax, DWORD PTR [edx+ecx]
	mov	DWORD PTR _temp$3[ebp], eax
	mov	edx, DWORD PTR _temp$3[ebp]
	mov	ecx, DWORD PTR _n_rshift_bit_count$4[ebp]
	shr	edx, cl
	or	edx, DWORD PTR _work$2[ebp]
	mov	DWORD PTR _work$2[ebp], edx
	mov	eax, 4
	imul	ecx, eax, -28
	mov	edx, DWORD PTR _op$[ebp]
	mov	eax, DWORD PTR _work$2[ebp]
	mov	DWORD PTR [edx+ecx], eax

; 360  :             work = temp << n_lshift_bit_count; temp = pp[-29]; work |= temp >> n_rshift_bit_count; op[-29] = work;

	mov	edx, DWORD PTR _temp$3[ebp]
	mov	ecx, DWORD PTR _n_lshift_bit_count$[ebp]
	shl	edx, cl
	mov	DWORD PTR _work$2[ebp], edx
	mov	eax, 4
	imul	ecx, eax, -29
	mov	edx, DWORD PTR _pp$[ebp]
	mov	eax, DWORD PTR [edx+ecx]
	mov	DWORD PTR _temp$3[ebp], eax
	mov	edx, DWORD PTR _temp$3[ebp]
	mov	ecx, DWORD PTR _n_rshift_bit_count$4[ebp]
	shr	edx, cl
	or	edx, DWORD PTR _work$2[ebp]
	mov	DWORD PTR _work$2[ebp], edx
	mov	eax, 4
	imul	ecx, eax, -29
	mov	edx, DWORD PTR _op$[ebp]
	mov	eax, DWORD PTR _work$2[ebp]
	mov	DWORD PTR [edx+ecx], eax

; 361  :             work = temp << n_lshift_bit_count; temp = pp[-30]; work |= temp >> n_rshift_bit_count; op[-30] = work;

	mov	edx, DWORD PTR _temp$3[ebp]
	mov	ecx, DWORD PTR _n_lshift_bit_count$[ebp]
	shl	edx, cl
	mov	DWORD PTR _work$2[ebp], edx
	mov	eax, 4
	imul	ecx, eax, -30
	mov	edx, DWORD PTR _pp$[ebp]
	mov	eax, DWORD PTR [edx+ecx]
	mov	DWORD PTR _temp$3[ebp], eax
	mov	edx, DWORD PTR _temp$3[ebp]
	mov	ecx, DWORD PTR _n_rshift_bit_count$4[ebp]
	shr	edx, cl
	or	edx, DWORD PTR _work$2[ebp]
	mov	DWORD PTR _work$2[ebp], edx
	mov	eax, 4
	imul	ecx, eax, -30
	mov	edx, DWORD PTR _op$[ebp]
	mov	eax, DWORD PTR _work$2[ebp]
	mov	DWORD PTR [edx+ecx], eax

; 362  :             work = temp << n_lshift_bit_count; temp = pp[-31]; work |= temp >> n_rshift_bit_count; op[-31] = work;

	mov	edx, DWORD PTR _temp$3[ebp]
	mov	ecx, DWORD PTR _n_lshift_bit_count$[ebp]
	shl	edx, cl
	mov	DWORD PTR _work$2[ebp], edx
	mov	eax, 4
	imul	ecx, eax, -31
	mov	edx, DWORD PTR _pp$[ebp]
	mov	eax, DWORD PTR [edx+ecx]
	mov	DWORD PTR _temp$3[ebp], eax
	mov	edx, DWORD PTR _temp$3[ebp]
	mov	ecx, DWORD PTR _n_rshift_bit_count$4[ebp]
	shr	edx, cl
	or	edx, DWORD PTR _work$2[ebp]
	mov	DWORD PTR _work$2[ebp], edx
	mov	eax, 4
	imul	ecx, eax, -31
	mov	edx, DWORD PTR _op$[ebp]
	mov	eax, DWORD PTR _work$2[ebp]
	mov	DWORD PTR [edx+ecx], eax

; 363  :             pp -= 32;

	mov	ecx, DWORD PTR _pp$[ebp]
	sub	ecx, 128				; 00000080H
	mov	DWORD PTR _pp$[ebp], ecx

; 364  :             op -= 32;

	mov	edx, DWORD PTR _op$[ebp]
	sub	edx, 128				; 00000080H
	mov	DWORD PTR _op$[ebp], edx

; 365  :             --count;

	mov	eax, DWORD PTR _count$1[ebp]
	sub	eax, 1
	mov	DWORD PTR _count$1[ebp], eax

; 366  :         }

	jmp	$LN2@LeftShift_
$LN3@LeftShift_:

; 367  : 
; 368  :         if (p_count & 0x10)

	mov	ecx, DWORD PTR _p_count$[ebp]
	and	ecx, 16					; 00000010H
	je	$LN7@LeftShift_

; 369  :         {
; 370  :             work = temp << n_lshift_bit_count; temp = pp[-0]; work |= temp >> n_rshift_bit_count; op[-0] = work;

	mov	edx, DWORD PTR _temp$3[ebp]
	mov	ecx, DWORD PTR _n_lshift_bit_count$[ebp]
	shl	edx, cl
	mov	DWORD PTR _work$2[ebp], edx
	mov	eax, 4
	imul	ecx, eax, 0
	mov	edx, DWORD PTR _pp$[ebp]
	mov	eax, DWORD PTR [edx+ecx]
	mov	DWORD PTR _temp$3[ebp], eax
	mov	edx, DWORD PTR _temp$3[ebp]
	mov	ecx, DWORD PTR _n_rshift_bit_count$4[ebp]
	shr	edx, cl
	or	edx, DWORD PTR _work$2[ebp]
	mov	DWORD PTR _work$2[ebp], edx
	mov	eax, 4
	imul	ecx, eax, 0
	mov	edx, DWORD PTR _op$[ebp]
	mov	eax, DWORD PTR _work$2[ebp]
	mov	DWORD PTR [edx+ecx], eax

; 371  :             work = temp << n_lshift_bit_count; temp = pp[-1]; work |= temp >> n_rshift_bit_count; op[-1] = work;

	mov	edx, DWORD PTR _temp$3[ebp]
	mov	ecx, DWORD PTR _n_lshift_bit_count$[ebp]
	shl	edx, cl
	mov	DWORD PTR _work$2[ebp], edx
	mov	eax, 4
	imul	ecx, eax, -1
	mov	edx, DWORD PTR _pp$[ebp]
	mov	eax, DWORD PTR [edx+ecx]
	mov	DWORD PTR _temp$3[ebp], eax
	mov	edx, DWORD PTR _temp$3[ebp]
	mov	ecx, DWORD PTR _n_rshift_bit_count$4[ebp]
	shr	edx, cl
	or	edx, DWORD PTR _work$2[ebp]
	mov	DWORD PTR _work$2[ebp], edx
	mov	eax, 4
	imul	ecx, eax, -1
	mov	edx, DWORD PTR _op$[ebp]
	mov	eax, DWORD PTR _work$2[ebp]
	mov	DWORD PTR [edx+ecx], eax

; 372  :             work = temp << n_lshift_bit_count; temp = pp[-2]; work |= temp >> n_rshift_bit_count; op[-2] = work;

	mov	edx, DWORD PTR _temp$3[ebp]
	mov	ecx, DWORD PTR _n_lshift_bit_count$[ebp]
	shl	edx, cl
	mov	DWORD PTR _work$2[ebp], edx
	mov	eax, 4
	imul	ecx, eax, -2
	mov	edx, DWORD PTR _pp$[ebp]
	mov	eax, DWORD PTR [edx+ecx]
	mov	DWORD PTR _temp$3[ebp], eax
	mov	edx, DWORD PTR _temp$3[ebp]
	mov	ecx, DWORD PTR _n_rshift_bit_count$4[ebp]
	shr	edx, cl
	or	edx, DWORD PTR _work$2[ebp]
	mov	DWORD PTR _work$2[ebp], edx
	mov	eax, 4
	imul	ecx, eax, -2
	mov	edx, DWORD PTR _op$[ebp]
	mov	eax, DWORD PTR _work$2[ebp]
	mov	DWORD PTR [edx+ecx], eax

; 373  :             work = temp << n_lshift_bit_count; temp = pp[-3]; work |= temp >> n_rshift_bit_count; op[-3] = work;

	mov	edx, DWORD PTR _temp$3[ebp]
	mov	ecx, DWORD PTR _n_lshift_bit_count$[ebp]
	shl	edx, cl
	mov	DWORD PTR _work$2[ebp], edx
	mov	eax, 4
	imul	ecx, eax, -3
	mov	edx, DWORD PTR _pp$[ebp]
	mov	eax, DWORD PTR [edx+ecx]
	mov	DWORD PTR _temp$3[ebp], eax
	mov	edx, DWORD PTR _temp$3[ebp]
	mov	ecx, DWORD PTR _n_rshift_bit_count$4[ebp]
	shr	edx, cl
	or	edx, DWORD PTR _work$2[ebp]
	mov	DWORD PTR _work$2[ebp], edx
	mov	eax, 4
	imul	ecx, eax, -3
	mov	edx, DWORD PTR _op$[ebp]
	mov	eax, DWORD PTR _work$2[ebp]
	mov	DWORD PTR [edx+ecx], eax

; 374  :             work = temp << n_lshift_bit_count; temp = pp[-4]; work |= temp >> n_rshift_bit_count; op[-4] = work;

	mov	edx, DWORD PTR _temp$3[ebp]
	mov	ecx, DWORD PTR _n_lshift_bit_count$[ebp]
	shl	edx, cl
	mov	DWORD PTR _work$2[ebp], edx
	mov	eax, 4
	imul	ecx, eax, -4
	mov	edx, DWORD PTR _pp$[ebp]
	mov	eax, DWORD PTR [edx+ecx]
	mov	DWORD PTR _temp$3[ebp], eax
	mov	edx, DWORD PTR _temp$3[ebp]
	mov	ecx, DWORD PTR _n_rshift_bit_count$4[ebp]
	shr	edx, cl
	or	edx, DWORD PTR _work$2[ebp]
	mov	DWORD PTR _work$2[ebp], edx
	mov	eax, 4
	imul	ecx, eax, -4
	mov	edx, DWORD PTR _op$[ebp]
	mov	eax, DWORD PTR _work$2[ebp]
	mov	DWORD PTR [edx+ecx], eax

; 375  :             work = temp << n_lshift_bit_count; temp = pp[-5]; work |= temp >> n_rshift_bit_count; op[-5] = work;

	mov	edx, DWORD PTR _temp$3[ebp]
	mov	ecx, DWORD PTR _n_lshift_bit_count$[ebp]
	shl	edx, cl
	mov	DWORD PTR _work$2[ebp], edx
	mov	eax, 4
	imul	ecx, eax, -5
	mov	edx, DWORD PTR _pp$[ebp]
	mov	eax, DWORD PTR [edx+ecx]
	mov	DWORD PTR _temp$3[ebp], eax
	mov	edx, DWORD PTR _temp$3[ebp]
	mov	ecx, DWORD PTR _n_rshift_bit_count$4[ebp]
	shr	edx, cl
	or	edx, DWORD PTR _work$2[ebp]
	mov	DWORD PTR _work$2[ebp], edx
	mov	eax, 4
	imul	ecx, eax, -5
	mov	edx, DWORD PTR _op$[ebp]
	mov	eax, DWORD PTR _work$2[ebp]
	mov	DWORD PTR [edx+ecx], eax

; 376  :             work = temp << n_lshift_bit_count; temp = pp[-6]; work |= temp >> n_rshift_bit_count; op[-6] = work;

	mov	edx, DWORD PTR _temp$3[ebp]
	mov	ecx, DWORD PTR _n_lshift_bit_count$[ebp]
	shl	edx, cl
	mov	DWORD PTR _work$2[ebp], edx
	mov	eax, 4
	imul	ecx, eax, -6
	mov	edx, DWORD PTR _pp$[ebp]
	mov	eax, DWORD PTR [edx+ecx]
	mov	DWORD PTR _temp$3[ebp], eax
	mov	edx, DWORD PTR _temp$3[ebp]
	mov	ecx, DWORD PTR _n_rshift_bit_count$4[ebp]
	shr	edx, cl
	or	edx, DWORD PTR _work$2[ebp]
	mov	DWORD PTR _work$2[ebp], edx
	mov	eax, 4
	imul	ecx, eax, -6
	mov	edx, DWORD PTR _op$[ebp]
	mov	eax, DWORD PTR _work$2[ebp]
	mov	DWORD PTR [edx+ecx], eax

; 377  :             work = temp << n_lshift_bit_count; temp = pp[-7]; work |= temp >> n_rshift_bit_count; op[-7] = work;

	mov	edx, DWORD PTR _temp$3[ebp]
	mov	ecx, DWORD PTR _n_lshift_bit_count$[ebp]
	shl	edx, cl
	mov	DWORD PTR _work$2[ebp], edx
	mov	eax, 4
	imul	ecx, eax, -7
	mov	edx, DWORD PTR _pp$[ebp]
	mov	eax, DWORD PTR [edx+ecx]
	mov	DWORD PTR _temp$3[ebp], eax
	mov	edx, DWORD PTR _temp$3[ebp]
	mov	ecx, DWORD PTR _n_rshift_bit_count$4[ebp]
	shr	edx, cl
	or	edx, DWORD PTR _work$2[ebp]
	mov	DWORD PTR _work$2[ebp], edx
	mov	eax, 4
	imul	ecx, eax, -7
	mov	edx, DWORD PTR _op$[ebp]
	mov	eax, DWORD PTR _work$2[ebp]
	mov	DWORD PTR [edx+ecx], eax

; 378  :             work = temp << n_lshift_bit_count; temp = pp[-8]; work |= temp >> n_rshift_bit_count; op[-8] = work;

	mov	edx, DWORD PTR _temp$3[ebp]
	mov	ecx, DWORD PTR _n_lshift_bit_count$[ebp]
	shl	edx, cl
	mov	DWORD PTR _work$2[ebp], edx
	mov	eax, 4
	imul	ecx, eax, -8
	mov	edx, DWORD PTR _pp$[ebp]
	mov	eax, DWORD PTR [edx+ecx]
	mov	DWORD PTR _temp$3[ebp], eax
	mov	edx, DWORD PTR _temp$3[ebp]
	mov	ecx, DWORD PTR _n_rshift_bit_count$4[ebp]
	shr	edx, cl
	or	edx, DWORD PTR _work$2[ebp]
	mov	DWORD PTR _work$2[ebp], edx
	mov	eax, 4
	imul	ecx, eax, -8
	mov	edx, DWORD PTR _op$[ebp]
	mov	eax, DWORD PTR _work$2[ebp]
	mov	DWORD PTR [edx+ecx], eax

; 379  :             work = temp << n_lshift_bit_count; temp = pp[-9]; work |= temp >> n_rshift_bit_count; op[-9] = work;

	mov	edx, DWORD PTR _temp$3[ebp]
	mov	ecx, DWORD PTR _n_lshift_bit_count$[ebp]
	shl	edx, cl
	mov	DWORD PTR _work$2[ebp], edx
	mov	eax, 4
	imul	ecx, eax, -9
	mov	edx, DWORD PTR _pp$[ebp]
	mov	eax, DWORD PTR [edx+ecx]
	mov	DWORD PTR _temp$3[ebp], eax
	mov	edx, DWORD PTR _temp$3[ebp]
	mov	ecx, DWORD PTR _n_rshift_bit_count$4[ebp]
	shr	edx, cl
	or	edx, DWORD PTR _work$2[ebp]
	mov	DWORD PTR _work$2[ebp], edx
	mov	eax, 4
	imul	ecx, eax, -9
	mov	edx, DWORD PTR _op$[ebp]
	mov	eax, DWORD PTR _work$2[ebp]
	mov	DWORD PTR [edx+ecx], eax

; 380  :             work = temp << n_lshift_bit_count; temp = pp[-10]; work |= temp >> n_rshift_bit_count; op[-10] = work;

	mov	edx, DWORD PTR _temp$3[ebp]
	mov	ecx, DWORD PTR _n_lshift_bit_count$[ebp]
	shl	edx, cl
	mov	DWORD PTR _work$2[ebp], edx
	mov	eax, 4
	imul	ecx, eax, -10
	mov	edx, DWORD PTR _pp$[ebp]
	mov	eax, DWORD PTR [edx+ecx]
	mov	DWORD PTR _temp$3[ebp], eax
	mov	edx, DWORD PTR _temp$3[ebp]
	mov	ecx, DWORD PTR _n_rshift_bit_count$4[ebp]
	shr	edx, cl
	or	edx, DWORD PTR _work$2[ebp]
	mov	DWORD PTR _work$2[ebp], edx
	mov	eax, 4
	imul	ecx, eax, -10
	mov	edx, DWORD PTR _op$[ebp]
	mov	eax, DWORD PTR _work$2[ebp]
	mov	DWORD PTR [edx+ecx], eax

; 381  :             work = temp << n_lshift_bit_count; temp = pp[-11]; work |= temp >> n_rshift_bit_count; op[-11] = work;

	mov	edx, DWORD PTR _temp$3[ebp]
	mov	ecx, DWORD PTR _n_lshift_bit_count$[ebp]
	shl	edx, cl
	mov	DWORD PTR _work$2[ebp], edx
	mov	eax, 4
	imul	ecx, eax, -11
	mov	edx, DWORD PTR _pp$[ebp]
	mov	eax, DWORD PTR [edx+ecx]
	mov	DWORD PTR _temp$3[ebp], eax
	mov	edx, DWORD PTR _temp$3[ebp]
	mov	ecx, DWORD PTR _n_rshift_bit_count$4[ebp]
	shr	edx, cl
	or	edx, DWORD PTR _work$2[ebp]
	mov	DWORD PTR _work$2[ebp], edx
	mov	eax, 4
	imul	ecx, eax, -11
	mov	edx, DWORD PTR _op$[ebp]
	mov	eax, DWORD PTR _work$2[ebp]
	mov	DWORD PTR [edx+ecx], eax

; 382  :             work = temp << n_lshift_bit_count; temp = pp[-12]; work |= temp >> n_rshift_bit_count; op[-12] = work;

	mov	edx, DWORD PTR _temp$3[ebp]
	mov	ecx, DWORD PTR _n_lshift_bit_count$[ebp]
	shl	edx, cl
	mov	DWORD PTR _work$2[ebp], edx
	mov	eax, 4
	imul	ecx, eax, -12
	mov	edx, DWORD PTR _pp$[ebp]
	mov	eax, DWORD PTR [edx+ecx]
	mov	DWORD PTR _temp$3[ebp], eax
	mov	edx, DWORD PTR _temp$3[ebp]
	mov	ecx, DWORD PTR _n_rshift_bit_count$4[ebp]
	shr	edx, cl
	or	edx, DWORD PTR _work$2[ebp]
	mov	DWORD PTR _work$2[ebp], edx
	mov	eax, 4
	imul	ecx, eax, -12
	mov	edx, DWORD PTR _op$[ebp]
	mov	eax, DWORD PTR _work$2[ebp]
	mov	DWORD PTR [edx+ecx], eax

; 383  :             work = temp << n_lshift_bit_count; temp = pp[-13]; work |= temp >> n_rshift_bit_count; op[-13] = work;

	mov	edx, DWORD PTR _temp$3[ebp]
	mov	ecx, DWORD PTR _n_lshift_bit_count$[ebp]
	shl	edx, cl
	mov	DWORD PTR _work$2[ebp], edx
	mov	eax, 4
	imul	ecx, eax, -13
	mov	edx, DWORD PTR _pp$[ebp]
	mov	eax, DWORD PTR [edx+ecx]
	mov	DWORD PTR _temp$3[ebp], eax
	mov	edx, DWORD PTR _temp$3[ebp]
	mov	ecx, DWORD PTR _n_rshift_bit_count$4[ebp]
	shr	edx, cl
	or	edx, DWORD PTR _work$2[ebp]
	mov	DWORD PTR _work$2[ebp], edx
	mov	eax, 4
	imul	ecx, eax, -13
	mov	edx, DWORD PTR _op$[ebp]
	mov	eax, DWORD PTR _work$2[ebp]
	mov	DWORD PTR [edx+ecx], eax

; 384  :             work = temp << n_lshift_bit_count; temp = pp[-14]; work |= temp >> n_rshift_bit_count; op[-14] = work;

	mov	edx, DWORD PTR _temp$3[ebp]
	mov	ecx, DWORD PTR _n_lshift_bit_count$[ebp]
	shl	edx, cl
	mov	DWORD PTR _work$2[ebp], edx
	mov	eax, 4
	imul	ecx, eax, -14
	mov	edx, DWORD PTR _pp$[ebp]
	mov	eax, DWORD PTR [edx+ecx]
	mov	DWORD PTR _temp$3[ebp], eax
	mov	edx, DWORD PTR _temp$3[ebp]
	mov	ecx, DWORD PTR _n_rshift_bit_count$4[ebp]
	shr	edx, cl
	or	edx, DWORD PTR _work$2[ebp]
	mov	DWORD PTR _work$2[ebp], edx
	mov	eax, 4
	imul	ecx, eax, -14
	mov	edx, DWORD PTR _op$[ebp]
	mov	eax, DWORD PTR _work$2[ebp]
	mov	DWORD PTR [edx+ecx], eax

; 385  :             work = temp << n_lshift_bit_count; temp = pp[-15]; work |= temp >> n_rshift_bit_count; op[-15] = work;

	mov	edx, DWORD PTR _temp$3[ebp]
	mov	ecx, DWORD PTR _n_lshift_bit_count$[ebp]
	shl	edx, cl
	mov	DWORD PTR _work$2[ebp], edx
	mov	eax, 4
	imul	ecx, eax, -15
	mov	edx, DWORD PTR _pp$[ebp]
	mov	eax, DWORD PTR [edx+ecx]
	mov	DWORD PTR _temp$3[ebp], eax
	mov	edx, DWORD PTR _temp$3[ebp]
	mov	ecx, DWORD PTR _n_rshift_bit_count$4[ebp]
	shr	edx, cl
	or	edx, DWORD PTR _work$2[ebp]
	mov	DWORD PTR _work$2[ebp], edx
	mov	eax, 4
	imul	ecx, eax, -15
	mov	edx, DWORD PTR _op$[ebp]
	mov	eax, DWORD PTR _work$2[ebp]
	mov	DWORD PTR [edx+ecx], eax

; 386  :             pp -= 16;

	mov	ecx, DWORD PTR _pp$[ebp]
	sub	ecx, 64					; 00000040H
	mov	DWORD PTR _pp$[ebp], ecx

; 387  :             op -= 16;

	mov	edx, DWORD PTR _op$[ebp]
	sub	edx, 64					; 00000040H
	mov	DWORD PTR _op$[ebp], edx
$LN7@LeftShift_:

; 388  :         }
; 389  : 
; 390  :         if (p_count & 0x8)

	mov	eax, DWORD PTR _p_count$[ebp]
	and	eax, 8
	je	$LN8@LeftShift_

; 391  :         {
; 392  :             work = temp << n_lshift_bit_count; temp = pp[-0]; work |= temp >> n_rshift_bit_count; op[-0] = work;

	mov	edx, DWORD PTR _temp$3[ebp]
	mov	ecx, DWORD PTR _n_lshift_bit_count$[ebp]
	shl	edx, cl
	mov	DWORD PTR _work$2[ebp], edx
	mov	eax, 4
	imul	ecx, eax, 0
	mov	edx, DWORD PTR _pp$[ebp]
	mov	eax, DWORD PTR [edx+ecx]
	mov	DWORD PTR _temp$3[ebp], eax
	mov	edx, DWORD PTR _temp$3[ebp]
	mov	ecx, DWORD PTR _n_rshift_bit_count$4[ebp]
	shr	edx, cl
	or	edx, DWORD PTR _work$2[ebp]
	mov	DWORD PTR _work$2[ebp], edx
	mov	eax, 4
	imul	ecx, eax, 0
	mov	edx, DWORD PTR _op$[ebp]
	mov	eax, DWORD PTR _work$2[ebp]
	mov	DWORD PTR [edx+ecx], eax

; 393  :             work = temp << n_lshift_bit_count; temp = pp[-1]; work |= temp >> n_rshift_bit_count; op[-1] = work;

	mov	edx, DWORD PTR _temp$3[ebp]
	mov	ecx, DWORD PTR _n_lshift_bit_count$[ebp]
	shl	edx, cl
	mov	DWORD PTR _work$2[ebp], edx
	mov	eax, 4
	imul	ecx, eax, -1
	mov	edx, DWORD PTR _pp$[ebp]
	mov	eax, DWORD PTR [edx+ecx]
	mov	DWORD PTR _temp$3[ebp], eax
	mov	edx, DWORD PTR _temp$3[ebp]
	mov	ecx, DWORD PTR _n_rshift_bit_count$4[ebp]
	shr	edx, cl
	or	edx, DWORD PTR _work$2[ebp]
	mov	DWORD PTR _work$2[ebp], edx
	mov	eax, 4
	imul	ecx, eax, -1
	mov	edx, DWORD PTR _op$[ebp]
	mov	eax, DWORD PTR _work$2[ebp]
	mov	DWORD PTR [edx+ecx], eax

; 394  :             work = temp << n_lshift_bit_count; temp = pp[-2]; work |= temp >> n_rshift_bit_count; op[-2] = work;

	mov	edx, DWORD PTR _temp$3[ebp]
	mov	ecx, DWORD PTR _n_lshift_bit_count$[ebp]
	shl	edx, cl
	mov	DWORD PTR _work$2[ebp], edx
	mov	eax, 4
	imul	ecx, eax, -2
	mov	edx, DWORD PTR _pp$[ebp]
	mov	eax, DWORD PTR [edx+ecx]
	mov	DWORD PTR _temp$3[ebp], eax
	mov	edx, DWORD PTR _temp$3[ebp]
	mov	ecx, DWORD PTR _n_rshift_bit_count$4[ebp]
	shr	edx, cl
	or	edx, DWORD PTR _work$2[ebp]
	mov	DWORD PTR _work$2[ebp], edx
	mov	eax, 4
	imul	ecx, eax, -2
	mov	edx, DWORD PTR _op$[ebp]
	mov	eax, DWORD PTR _work$2[ebp]
	mov	DWORD PTR [edx+ecx], eax

; 395  :             work = temp << n_lshift_bit_count; temp = pp[-3]; work |= temp >> n_rshift_bit_count; op[-3] = work;

	mov	edx, DWORD PTR _temp$3[ebp]
	mov	ecx, DWORD PTR _n_lshift_bit_count$[ebp]
	shl	edx, cl
	mov	DWORD PTR _work$2[ebp], edx
	mov	eax, 4
	imul	ecx, eax, -3
	mov	edx, DWORD PTR _pp$[ebp]
	mov	eax, DWORD PTR [edx+ecx]
	mov	DWORD PTR _temp$3[ebp], eax
	mov	edx, DWORD PTR _temp$3[ebp]
	mov	ecx, DWORD PTR _n_rshift_bit_count$4[ebp]
	shr	edx, cl
	or	edx, DWORD PTR _work$2[ebp]
	mov	DWORD PTR _work$2[ebp], edx
	mov	eax, 4
	imul	ecx, eax, -3
	mov	edx, DWORD PTR _op$[ebp]
	mov	eax, DWORD PTR _work$2[ebp]
	mov	DWORD PTR [edx+ecx], eax

; 396  :             work = temp << n_lshift_bit_count; temp = pp[-4]; work |= temp >> n_rshift_bit_count; op[-4] = work;

	mov	edx, DWORD PTR _temp$3[ebp]
	mov	ecx, DWORD PTR _n_lshift_bit_count$[ebp]
	shl	edx, cl
	mov	DWORD PTR _work$2[ebp], edx
	mov	eax, 4
	imul	ecx, eax, -4
	mov	edx, DWORD PTR _pp$[ebp]
	mov	eax, DWORD PTR [edx+ecx]
	mov	DWORD PTR _temp$3[ebp], eax
	mov	edx, DWORD PTR _temp$3[ebp]
	mov	ecx, DWORD PTR _n_rshift_bit_count$4[ebp]
	shr	edx, cl
	or	edx, DWORD PTR _work$2[ebp]
	mov	DWORD PTR _work$2[ebp], edx
	mov	eax, 4
	imul	ecx, eax, -4
	mov	edx, DWORD PTR _op$[ebp]
	mov	eax, DWORD PTR _work$2[ebp]
	mov	DWORD PTR [edx+ecx], eax

; 397  :             work = temp << n_lshift_bit_count; temp = pp[-5]; work |= temp >> n_rshift_bit_count; op[-5] = work;

	mov	edx, DWORD PTR _temp$3[ebp]
	mov	ecx, DWORD PTR _n_lshift_bit_count$[ebp]
	shl	edx, cl
	mov	DWORD PTR _work$2[ebp], edx
	mov	eax, 4
	imul	ecx, eax, -5
	mov	edx, DWORD PTR _pp$[ebp]
	mov	eax, DWORD PTR [edx+ecx]
	mov	DWORD PTR _temp$3[ebp], eax
	mov	edx, DWORD PTR _temp$3[ebp]
	mov	ecx, DWORD PTR _n_rshift_bit_count$4[ebp]
	shr	edx, cl
	or	edx, DWORD PTR _work$2[ebp]
	mov	DWORD PTR _work$2[ebp], edx
	mov	eax, 4
	imul	ecx, eax, -5
	mov	edx, DWORD PTR _op$[ebp]
	mov	eax, DWORD PTR _work$2[ebp]
	mov	DWORD PTR [edx+ecx], eax

; 398  :             work = temp << n_lshift_bit_count; temp = pp[-6]; work |= temp >> n_rshift_bit_count; op[-6] = work;

	mov	edx, DWORD PTR _temp$3[ebp]
	mov	ecx, DWORD PTR _n_lshift_bit_count$[ebp]
	shl	edx, cl
	mov	DWORD PTR _work$2[ebp], edx
	mov	eax, 4
	imul	ecx, eax, -6
	mov	edx, DWORD PTR _pp$[ebp]
	mov	eax, DWORD PTR [edx+ecx]
	mov	DWORD PTR _temp$3[ebp], eax
	mov	edx, DWORD PTR _temp$3[ebp]
	mov	ecx, DWORD PTR _n_rshift_bit_count$4[ebp]
	shr	edx, cl
	or	edx, DWORD PTR _work$2[ebp]
	mov	DWORD PTR _work$2[ebp], edx
	mov	eax, 4
	imul	ecx, eax, -6
	mov	edx, DWORD PTR _op$[ebp]
	mov	eax, DWORD PTR _work$2[ebp]
	mov	DWORD PTR [edx+ecx], eax

; 399  :             work = temp << n_lshift_bit_count; temp = pp[-7]; work |= temp >> n_rshift_bit_count; op[-7] = work;

	mov	edx, DWORD PTR _temp$3[ebp]
	mov	ecx, DWORD PTR _n_lshift_bit_count$[ebp]
	shl	edx, cl
	mov	DWORD PTR _work$2[ebp], edx
	mov	eax, 4
	imul	ecx, eax, -7
	mov	edx, DWORD PTR _pp$[ebp]
	mov	eax, DWORD PTR [edx+ecx]
	mov	DWORD PTR _temp$3[ebp], eax
	mov	edx, DWORD PTR _temp$3[ebp]
	mov	ecx, DWORD PTR _n_rshift_bit_count$4[ebp]
	shr	edx, cl
	or	edx, DWORD PTR _work$2[ebp]
	mov	DWORD PTR _work$2[ebp], edx
	mov	eax, 4
	imul	ecx, eax, -7
	mov	edx, DWORD PTR _op$[ebp]
	mov	eax, DWORD PTR _work$2[ebp]
	mov	DWORD PTR [edx+ecx], eax

; 400  :             pp -= 8;

	mov	ecx, DWORD PTR _pp$[ebp]
	sub	ecx, 32					; 00000020H
	mov	DWORD PTR _pp$[ebp], ecx

; 401  :             op -= 8;

	mov	edx, DWORD PTR _op$[ebp]
	sub	edx, 32					; 00000020H
	mov	DWORD PTR _op$[ebp], edx
$LN8@LeftShift_:

; 402  :         }
; 403  : 
; 404  :         if (p_count & 0x4)

	mov	eax, DWORD PTR _p_count$[ebp]
	and	eax, 4
	je	$LN9@LeftShift_

; 405  :         {
; 406  :             work = temp << n_lshift_bit_count; temp = pp[-0]; work |= temp >> n_rshift_bit_count; op[-0] = work;

	mov	edx, DWORD PTR _temp$3[ebp]
	mov	ecx, DWORD PTR _n_lshift_bit_count$[ebp]
	shl	edx, cl
	mov	DWORD PTR _work$2[ebp], edx
	mov	eax, 4
	imul	ecx, eax, 0
	mov	edx, DWORD PTR _pp$[ebp]
	mov	eax, DWORD PTR [edx+ecx]
	mov	DWORD PTR _temp$3[ebp], eax
	mov	edx, DWORD PTR _temp$3[ebp]
	mov	ecx, DWORD PTR _n_rshift_bit_count$4[ebp]
	shr	edx, cl
	or	edx, DWORD PTR _work$2[ebp]
	mov	DWORD PTR _work$2[ebp], edx
	mov	eax, 4
	imul	ecx, eax, 0
	mov	edx, DWORD PTR _op$[ebp]
	mov	eax, DWORD PTR _work$2[ebp]
	mov	DWORD PTR [edx+ecx], eax

; 407  :             work = temp << n_lshift_bit_count; temp = pp[-1]; work |= temp >> n_rshift_bit_count; op[-1] = work;

	mov	edx, DWORD PTR _temp$3[ebp]
	mov	ecx, DWORD PTR _n_lshift_bit_count$[ebp]
	shl	edx, cl
	mov	DWORD PTR _work$2[ebp], edx
	mov	eax, 4
	imul	ecx, eax, -1
	mov	edx, DWORD PTR _pp$[ebp]
	mov	eax, DWORD PTR [edx+ecx]
	mov	DWORD PTR _temp$3[ebp], eax
	mov	edx, DWORD PTR _temp$3[ebp]
	mov	ecx, DWORD PTR _n_rshift_bit_count$4[ebp]
	shr	edx, cl
	or	edx, DWORD PTR _work$2[ebp]
	mov	DWORD PTR _work$2[ebp], edx
	mov	eax, 4
	imul	ecx, eax, -1
	mov	edx, DWORD PTR _op$[ebp]
	mov	eax, DWORD PTR _work$2[ebp]
	mov	DWORD PTR [edx+ecx], eax

; 408  :             work = temp << n_lshift_bit_count; temp = pp[-2]; work |= temp >> n_rshift_bit_count; op[-2] = work;

	mov	edx, DWORD PTR _temp$3[ebp]
	mov	ecx, DWORD PTR _n_lshift_bit_count$[ebp]
	shl	edx, cl
	mov	DWORD PTR _work$2[ebp], edx
	mov	eax, 4
	imul	ecx, eax, -2
	mov	edx, DWORD PTR _pp$[ebp]
	mov	eax, DWORD PTR [edx+ecx]
	mov	DWORD PTR _temp$3[ebp], eax
	mov	edx, DWORD PTR _temp$3[ebp]
	mov	ecx, DWORD PTR _n_rshift_bit_count$4[ebp]
	shr	edx, cl
	or	edx, DWORD PTR _work$2[ebp]
	mov	DWORD PTR _work$2[ebp], edx
	mov	eax, 4
	imul	ecx, eax, -2
	mov	edx, DWORD PTR _op$[ebp]
	mov	eax, DWORD PTR _work$2[ebp]
	mov	DWORD PTR [edx+ecx], eax

; 409  :             work = temp << n_lshift_bit_count; temp = pp[-3]; work |= temp >> n_rshift_bit_count; op[-3] = work;

	mov	edx, DWORD PTR _temp$3[ebp]
	mov	ecx, DWORD PTR _n_lshift_bit_count$[ebp]
	shl	edx, cl
	mov	DWORD PTR _work$2[ebp], edx
	mov	eax, 4
	imul	ecx, eax, -3
	mov	edx, DWORD PTR _pp$[ebp]
	mov	eax, DWORD PTR [edx+ecx]
	mov	DWORD PTR _temp$3[ebp], eax
	mov	edx, DWORD PTR _temp$3[ebp]
	mov	ecx, DWORD PTR _n_rshift_bit_count$4[ebp]
	shr	edx, cl
	or	edx, DWORD PTR _work$2[ebp]
	mov	DWORD PTR _work$2[ebp], edx
	mov	eax, 4
	imul	ecx, eax, -3
	mov	edx, DWORD PTR _op$[ebp]
	mov	eax, DWORD PTR _work$2[ebp]
	mov	DWORD PTR [edx+ecx], eax

; 410  :             pp -= 4;

	mov	ecx, DWORD PTR _pp$[ebp]
	sub	ecx, 16					; 00000010H
	mov	DWORD PTR _pp$[ebp], ecx

; 411  :             op -= 4;

	mov	edx, DWORD PTR _op$[ebp]
	sub	edx, 16					; 00000010H
	mov	DWORD PTR _op$[ebp], edx
$LN9@LeftShift_:

; 412  :         }
; 413  : 
; 414  :         if (p_count & 0x2)

	mov	eax, DWORD PTR _p_count$[ebp]
	and	eax, 2
	je	$LN10@LeftShift_

; 415  :         {
; 416  :             work = temp << n_lshift_bit_count; temp = pp[-0]; work |= temp >> n_rshift_bit_count; op[-0] = work;

	mov	edx, DWORD PTR _temp$3[ebp]
	mov	ecx, DWORD PTR _n_lshift_bit_count$[ebp]
	shl	edx, cl
	mov	DWORD PTR _work$2[ebp], edx
	mov	eax, 4
	imul	ecx, eax, 0
	mov	edx, DWORD PTR _pp$[ebp]
	mov	eax, DWORD PTR [edx+ecx]
	mov	DWORD PTR _temp$3[ebp], eax
	mov	edx, DWORD PTR _temp$3[ebp]
	mov	ecx, DWORD PTR _n_rshift_bit_count$4[ebp]
	shr	edx, cl
	or	edx, DWORD PTR _work$2[ebp]
	mov	DWORD PTR _work$2[ebp], edx
	mov	eax, 4
	imul	ecx, eax, 0
	mov	edx, DWORD PTR _op$[ebp]
	mov	eax, DWORD PTR _work$2[ebp]
	mov	DWORD PTR [edx+ecx], eax

; 417  :             work = temp << n_lshift_bit_count; temp = pp[-1]; work |= temp >> n_rshift_bit_count; op[-1] = work;

	mov	edx, DWORD PTR _temp$3[ebp]
	mov	ecx, DWORD PTR _n_lshift_bit_count$[ebp]
	shl	edx, cl
	mov	DWORD PTR _work$2[ebp], edx
	mov	eax, 4
	imul	ecx, eax, -1
	mov	edx, DWORD PTR _pp$[ebp]
	mov	eax, DWORD PTR [edx+ecx]
	mov	DWORD PTR _temp$3[ebp], eax
	mov	edx, DWORD PTR _temp$3[ebp]
	mov	ecx, DWORD PTR _n_rshift_bit_count$4[ebp]
	shr	edx, cl
	or	edx, DWORD PTR _work$2[ebp]
	mov	DWORD PTR _work$2[ebp], edx
	mov	eax, 4
	imul	ecx, eax, -1
	mov	edx, DWORD PTR _op$[ebp]
	mov	eax, DWORD PTR _work$2[ebp]
	mov	DWORD PTR [edx+ecx], eax

; 418  :             pp -= 2;

	mov	ecx, DWORD PTR _pp$[ebp]
	sub	ecx, 8
	mov	DWORD PTR _pp$[ebp], ecx

; 419  :             op -= 2;

	mov	edx, DWORD PTR _op$[ebp]
	sub	edx, 8
	mov	DWORD PTR _op$[ebp], edx
$LN10@LeftShift_:

; 420  :         }
; 421  : 
; 422  :         if (p_count & 0x1)

	mov	eax, DWORD PTR _p_count$[ebp]
	and	eax, 1
	je	SHORT $LN11@LeftShift_

; 423  :         {
; 424  :             work = temp << n_lshift_bit_count; temp = pp[-0]; work |= temp >> n_rshift_bit_count; op[-0] = work;

	mov	edx, DWORD PTR _temp$3[ebp]
	mov	ecx, DWORD PTR _n_lshift_bit_count$[ebp]
	shl	edx, cl
	mov	DWORD PTR _work$2[ebp], edx
	mov	eax, 4
	imul	ecx, eax, 0
	mov	edx, DWORD PTR _pp$[ebp]
	mov	eax, DWORD PTR [edx+ecx]
	mov	DWORD PTR _temp$3[ebp], eax
	mov	edx, DWORD PTR _temp$3[ebp]
	mov	ecx, DWORD PTR _n_rshift_bit_count$4[ebp]
	shr	edx, cl
	or	edx, DWORD PTR _work$2[ebp]
	mov	DWORD PTR _work$2[ebp], edx
	mov	eax, 4
	imul	ecx, eax, 0
	mov	edx, DWORD PTR _op$[ebp]
	mov	eax, DWORD PTR _work$2[ebp]
	mov	DWORD PTR [edx+ecx], eax

; 425  :             pp -= 1;

	mov	ecx, DWORD PTR _pp$[ebp]
	sub	ecx, 4
	mov	DWORD PTR _pp$[ebp], ecx

; 426  :             op -= 1;

	mov	edx, DWORD PTR _op$[ebp]
	sub	edx, 4
	mov	DWORD PTR _op$[ebp], edx
$LN11@LeftShift_:

; 427  :         }
; 428  :         work = temp << n_lshift_bit_count;

	mov	eax, DWORD PTR _temp$3[ebp]
	mov	ecx, DWORD PTR _n_lshift_bit_count$[ebp]
	shl	eax, cl
	mov	DWORD PTR _work$2[ebp], eax

; 429  :         *op = work;

	mov	ecx, DWORD PTR _op$[ebp]
	mov	edx, DWORD PTR _work$2[ebp]
	mov	DWORD PTR [ecx], edx

; 430  : 
; 431  :         if (padding_zero)

	cmp	DWORD PTR _padding_zero$[ebp], 0
	je	SHORT $LN1@LeftShift_

; 432  :             _ZERO_MEMORY_UNIT(p, n_word_count);

	mov	eax, DWORD PTR _n_word_count$[ebp]
	push	eax
	mov	ecx, DWORD PTR _p$[ebp]
	push	ecx
	call	__ZERO_MEMORY_UNIT
	add	esp, 8
$LN1@LeftShift_:

; 433  :     }
; 434  : }

	add	esp, 36					; 00000024H
	cmp	ebp, esp
	call	__RTC_CheckEsp
	mov	esp, ebp
	pop	ebp
	ret	0
_LeftShift_Imp ENDP
_TEXT	ENDS
; Function compile flags: /Odtp /RTCsu
; File z:\sources\lunor\repos\rougemeilland\palmtree.math.core.implements\palmtree.math.core.implements\pmc_shift.c
_TEXT	SEGMENT
_count$1 = -40						; size = 4
_t_count$2 = -36					; size = 4
_work$3 = -32						; size = 4
_temp$4 = -28						; size = 4
_n_lshift_bit_count$5 = -24				; size = 4
_n_rshift_bit_count$ = -20				; size = 4
_n_word_count$ = -16					; size = 4
_op$ = -12						; size = 4
_p_count$ = -8						; size = 4
_pp$ = -4						; size = 4
_p$ = 8							; size = 4
_p_word_count$ = 12					; size = 4
_n$ = 16						; size = 4
_o$ = 20						; size = 4
_padding_zero$ = 24					; size = 4
_RightShift_Imp PROC

; 38   : {

	push	ebp
	mov	ebp, esp
	sub	esp, 40					; 00000028H
	push	edi
	lea	edi, DWORD PTR [ebp-40]
	mov	ecx, 10					; 0000000aH
	mov	eax, -858993460				; ccccccccH
	rep stosd
	mov	ecx, OFFSET __BE4F50ED_pmc_shift@c
	call	@__CheckForDebuggerJustMyCode@4

; 39   :     __UNIT_TYPE* pp = p;

	mov	eax, DWORD PTR _p$[ebp]
	mov	DWORD PTR _pp$[ebp], eax

; 40   :     __UNIT_TYPE p_count = p_word_count;

	mov	ecx, DWORD PTR _p_word_count$[ebp]
	mov	DWORD PTR _p_count$[ebp], ecx

; 41   :     __UNIT_TYPE* op = o;

	mov	edx, DWORD PTR _o$[ebp]
	mov	DWORD PTR _op$[ebp], edx

; 42   :     // n_word_count ワード右に移動し、更に n_bit_count ビット右に移動する。
; 43   :     __UNIT_TYPE n_word_count = n / __UNIT_TYPE_BIT_COUNT;

	mov	eax, DWORD PTR _n$[ebp]
	shr	eax, 5
	mov	DWORD PTR _n_word_count$[ebp], eax

; 44   :     __UNIT_TYPE n_rshift_bit_count = n % __UNIT_TYPE_BIT_COUNT;

	mov	eax, DWORD PTR _n$[ebp]
	xor	edx, edx
	mov	ecx, 32					; 00000020H
	div	ecx
	mov	DWORD PTR _n_rshift_bit_count$[ebp], edx

; 45   :     if (n_rshift_bit_count == 0)

	cmp	DWORD PTR _n_rshift_bit_count$[ebp], 0
	jne	SHORT $LN4@RightShift

; 46   :     {
; 47   :         // シフト数がちょうどワード境界分であれば単にワード単位のデータ移動のみ行う。
; 48   :         _COPY_MEMORY_UNIT(op, pp + n_word_count, p_count - n_word_count);

	mov	edx, DWORD PTR _p_count$[ebp]
	sub	edx, DWORD PTR _n_word_count$[ebp]
	push	edx
	mov	eax, DWORD PTR _n_word_count$[ebp]
	mov	ecx, DWORD PTR _pp$[ebp]
	lea	edx, DWORD PTR [ecx+eax*4]
	push	edx
	mov	eax, DWORD PTR _op$[ebp]
	push	eax
	call	__COPY_MEMORY_UNIT
	add	esp, 12					; 0000000cH

; 49   :     }

	jmp	$LN1@RightShift
$LN4@RightShift:

; 50   :     else
; 51   :     {
; 52   :         pp += n_word_count;

	mov	ecx, DWORD PTR _n_word_count$[ebp]
	mov	edx, DWORD PTR _pp$[ebp]
	lea	eax, DWORD PTR [edx+ecx*4]
	mov	DWORD PTR _pp$[ebp], eax

; 53   :         __UNIT_TYPE n_lshift_bit_count = __UNIT_TYPE_BIT_COUNT - n_rshift_bit_count;

	mov	ecx, 32					; 00000020H
	sub	ecx, DWORD PTR _n_rshift_bit_count$[ebp]
	mov	DWORD PTR _n_lshift_bit_count$5[ebp], ecx

; 54   :         // p_count - n_word_count 回繰り返し
; 55   : 
; 56   :         __UNIT_TYPE temp = *pp++;

	mov	edx, DWORD PTR _pp$[ebp]
	mov	eax, DWORD PTR [edx]
	mov	DWORD PTR _temp$4[ebp], eax
	mov	ecx, DWORD PTR _pp$[ebp]
	add	ecx, 4
	mov	DWORD PTR _pp$[ebp], ecx

; 57   :         __UNIT_TYPE work;
; 58   :         __UNIT_TYPE t_count = p_count - n_word_count - 1;

	mov	edx, DWORD PTR _p_count$[ebp]
	sub	edx, DWORD PTR _n_word_count$[ebp]
	sub	edx, 1
	mov	DWORD PTR _t_count$2[ebp], edx

; 59   : 
; 60   :         __UNIT_TYPE count = t_count >> 5;

	mov	eax, DWORD PTR _t_count$2[ebp]
	shr	eax, 5
	mov	DWORD PTR _count$1[ebp], eax
$LN2@RightShift:

; 61   :         while ( count > 0)

	cmp	DWORD PTR _count$1[ebp], 0
	jbe	$LN3@RightShift

; 62   :         {
; 63   :             work = temp >> n_rshift_bit_count; temp = pp[0]; work |= temp << n_lshift_bit_count; op[0] = work;

	mov	edx, DWORD PTR _temp$4[ebp]
	mov	ecx, DWORD PTR _n_rshift_bit_count$[ebp]
	shr	edx, cl
	mov	DWORD PTR _work$3[ebp], edx
	mov	eax, 4
	imul	ecx, eax, 0
	mov	edx, DWORD PTR _pp$[ebp]
	mov	eax, DWORD PTR [edx+ecx]
	mov	DWORD PTR _temp$4[ebp], eax
	mov	edx, DWORD PTR _temp$4[ebp]
	mov	ecx, DWORD PTR _n_lshift_bit_count$5[ebp]
	shl	edx, cl
	or	edx, DWORD PTR _work$3[ebp]
	mov	DWORD PTR _work$3[ebp], edx
	mov	eax, 4
	imul	ecx, eax, 0
	mov	edx, DWORD PTR _op$[ebp]
	mov	eax, DWORD PTR _work$3[ebp]
	mov	DWORD PTR [edx+ecx], eax

; 64   :             work = temp >> n_rshift_bit_count; temp = pp[1]; work |= temp << n_lshift_bit_count; op[1] = work;

	mov	edx, DWORD PTR _temp$4[ebp]
	mov	ecx, DWORD PTR _n_rshift_bit_count$[ebp]
	shr	edx, cl
	mov	DWORD PTR _work$3[ebp], edx
	mov	eax, 4
	shl	eax, 0
	mov	ecx, DWORD PTR _pp$[ebp]
	mov	edx, DWORD PTR [ecx+eax]
	mov	DWORD PTR _temp$4[ebp], edx
	mov	eax, DWORD PTR _temp$4[ebp]
	mov	ecx, DWORD PTR _n_lshift_bit_count$5[ebp]
	shl	eax, cl
	or	eax, DWORD PTR _work$3[ebp]
	mov	DWORD PTR _work$3[ebp], eax
	mov	ecx, 4
	shl	ecx, 0
	mov	edx, DWORD PTR _op$[ebp]
	mov	eax, DWORD PTR _work$3[ebp]
	mov	DWORD PTR [edx+ecx], eax

; 65   :             work = temp >> n_rshift_bit_count; temp = pp[2]; work |= temp << n_lshift_bit_count; op[2] = work;

	mov	edx, DWORD PTR _temp$4[ebp]
	mov	ecx, DWORD PTR _n_rshift_bit_count$[ebp]
	shr	edx, cl
	mov	DWORD PTR _work$3[ebp], edx
	mov	eax, 4
	shl	eax, 1
	mov	ecx, DWORD PTR _pp$[ebp]
	mov	edx, DWORD PTR [ecx+eax]
	mov	DWORD PTR _temp$4[ebp], edx
	mov	eax, DWORD PTR _temp$4[ebp]
	mov	ecx, DWORD PTR _n_lshift_bit_count$5[ebp]
	shl	eax, cl
	or	eax, DWORD PTR _work$3[ebp]
	mov	DWORD PTR _work$3[ebp], eax
	mov	ecx, 4
	shl	ecx, 1
	mov	edx, DWORD PTR _op$[ebp]
	mov	eax, DWORD PTR _work$3[ebp]
	mov	DWORD PTR [edx+ecx], eax

; 66   :             work = temp >> n_rshift_bit_count; temp = pp[3]; work |= temp << n_lshift_bit_count; op[3] = work;

	mov	edx, DWORD PTR _temp$4[ebp]
	mov	ecx, DWORD PTR _n_rshift_bit_count$[ebp]
	shr	edx, cl
	mov	DWORD PTR _work$3[ebp], edx
	mov	eax, 4
	imul	ecx, eax, 3
	mov	edx, DWORD PTR _pp$[ebp]
	mov	eax, DWORD PTR [edx+ecx]
	mov	DWORD PTR _temp$4[ebp], eax
	mov	edx, DWORD PTR _temp$4[ebp]
	mov	ecx, DWORD PTR _n_lshift_bit_count$5[ebp]
	shl	edx, cl
	or	edx, DWORD PTR _work$3[ebp]
	mov	DWORD PTR _work$3[ebp], edx
	mov	eax, 4
	imul	ecx, eax, 3
	mov	edx, DWORD PTR _op$[ebp]
	mov	eax, DWORD PTR _work$3[ebp]
	mov	DWORD PTR [edx+ecx], eax

; 67   :             work = temp >> n_rshift_bit_count; temp = pp[4]; work |= temp << n_lshift_bit_count; op[4] = work;

	mov	edx, DWORD PTR _temp$4[ebp]
	mov	ecx, DWORD PTR _n_rshift_bit_count$[ebp]
	shr	edx, cl
	mov	DWORD PTR _work$3[ebp], edx
	mov	eax, 4
	shl	eax, 2
	mov	ecx, DWORD PTR _pp$[ebp]
	mov	edx, DWORD PTR [ecx+eax]
	mov	DWORD PTR _temp$4[ebp], edx
	mov	eax, DWORD PTR _temp$4[ebp]
	mov	ecx, DWORD PTR _n_lshift_bit_count$5[ebp]
	shl	eax, cl
	or	eax, DWORD PTR _work$3[ebp]
	mov	DWORD PTR _work$3[ebp], eax
	mov	ecx, 4
	shl	ecx, 2
	mov	edx, DWORD PTR _op$[ebp]
	mov	eax, DWORD PTR _work$3[ebp]
	mov	DWORD PTR [edx+ecx], eax

; 68   :             work = temp >> n_rshift_bit_count; temp = pp[5]; work |= temp << n_lshift_bit_count; op[5] = work;

	mov	edx, DWORD PTR _temp$4[ebp]
	mov	ecx, DWORD PTR _n_rshift_bit_count$[ebp]
	shr	edx, cl
	mov	DWORD PTR _work$3[ebp], edx
	mov	eax, 4
	imul	ecx, eax, 5
	mov	edx, DWORD PTR _pp$[ebp]
	mov	eax, DWORD PTR [edx+ecx]
	mov	DWORD PTR _temp$4[ebp], eax
	mov	edx, DWORD PTR _temp$4[ebp]
	mov	ecx, DWORD PTR _n_lshift_bit_count$5[ebp]
	shl	edx, cl
	or	edx, DWORD PTR _work$3[ebp]
	mov	DWORD PTR _work$3[ebp], edx
	mov	eax, 4
	imul	ecx, eax, 5
	mov	edx, DWORD PTR _op$[ebp]
	mov	eax, DWORD PTR _work$3[ebp]
	mov	DWORD PTR [edx+ecx], eax

; 69   :             work = temp >> n_rshift_bit_count; temp = pp[6]; work |= temp << n_lshift_bit_count; op[6] = work;

	mov	edx, DWORD PTR _temp$4[ebp]
	mov	ecx, DWORD PTR _n_rshift_bit_count$[ebp]
	shr	edx, cl
	mov	DWORD PTR _work$3[ebp], edx
	mov	eax, 4
	imul	ecx, eax, 6
	mov	edx, DWORD PTR _pp$[ebp]
	mov	eax, DWORD PTR [edx+ecx]
	mov	DWORD PTR _temp$4[ebp], eax
	mov	edx, DWORD PTR _temp$4[ebp]
	mov	ecx, DWORD PTR _n_lshift_bit_count$5[ebp]
	shl	edx, cl
	or	edx, DWORD PTR _work$3[ebp]
	mov	DWORD PTR _work$3[ebp], edx
	mov	eax, 4
	imul	ecx, eax, 6
	mov	edx, DWORD PTR _op$[ebp]
	mov	eax, DWORD PTR _work$3[ebp]
	mov	DWORD PTR [edx+ecx], eax

; 70   :             work = temp >> n_rshift_bit_count; temp = pp[7]; work |= temp << n_lshift_bit_count; op[7] = work;

	mov	edx, DWORD PTR _temp$4[ebp]
	mov	ecx, DWORD PTR _n_rshift_bit_count$[ebp]
	shr	edx, cl
	mov	DWORD PTR _work$3[ebp], edx
	mov	eax, 4
	imul	ecx, eax, 7
	mov	edx, DWORD PTR _pp$[ebp]
	mov	eax, DWORD PTR [edx+ecx]
	mov	DWORD PTR _temp$4[ebp], eax
	mov	edx, DWORD PTR _temp$4[ebp]
	mov	ecx, DWORD PTR _n_lshift_bit_count$5[ebp]
	shl	edx, cl
	or	edx, DWORD PTR _work$3[ebp]
	mov	DWORD PTR _work$3[ebp], edx
	mov	eax, 4
	imul	ecx, eax, 7
	mov	edx, DWORD PTR _op$[ebp]
	mov	eax, DWORD PTR _work$3[ebp]
	mov	DWORD PTR [edx+ecx], eax

; 71   :             work = temp >> n_rshift_bit_count; temp = pp[8]; work |= temp << n_lshift_bit_count; op[8] = work;

	mov	edx, DWORD PTR _temp$4[ebp]
	mov	ecx, DWORD PTR _n_rshift_bit_count$[ebp]
	shr	edx, cl
	mov	DWORD PTR _work$3[ebp], edx
	mov	eax, 4
	shl	eax, 3
	mov	ecx, DWORD PTR _pp$[ebp]
	mov	edx, DWORD PTR [ecx+eax]
	mov	DWORD PTR _temp$4[ebp], edx
	mov	eax, DWORD PTR _temp$4[ebp]
	mov	ecx, DWORD PTR _n_lshift_bit_count$5[ebp]
	shl	eax, cl
	or	eax, DWORD PTR _work$3[ebp]
	mov	DWORD PTR _work$3[ebp], eax
	mov	ecx, 4
	shl	ecx, 3
	mov	edx, DWORD PTR _op$[ebp]
	mov	eax, DWORD PTR _work$3[ebp]
	mov	DWORD PTR [edx+ecx], eax

; 72   :             work = temp >> n_rshift_bit_count; temp = pp[9]; work |= temp << n_lshift_bit_count; op[9] = work;

	mov	edx, DWORD PTR _temp$4[ebp]
	mov	ecx, DWORD PTR _n_rshift_bit_count$[ebp]
	shr	edx, cl
	mov	DWORD PTR _work$3[ebp], edx
	mov	eax, 4
	imul	ecx, eax, 9
	mov	edx, DWORD PTR _pp$[ebp]
	mov	eax, DWORD PTR [edx+ecx]
	mov	DWORD PTR _temp$4[ebp], eax
	mov	edx, DWORD PTR _temp$4[ebp]
	mov	ecx, DWORD PTR _n_lshift_bit_count$5[ebp]
	shl	edx, cl
	or	edx, DWORD PTR _work$3[ebp]
	mov	DWORD PTR _work$3[ebp], edx
	mov	eax, 4
	imul	ecx, eax, 9
	mov	edx, DWORD PTR _op$[ebp]
	mov	eax, DWORD PTR _work$3[ebp]
	mov	DWORD PTR [edx+ecx], eax

; 73   :             work = temp >> n_rshift_bit_count; temp = pp[10]; work |= temp << n_lshift_bit_count; op[10] = work;

	mov	edx, DWORD PTR _temp$4[ebp]
	mov	ecx, DWORD PTR _n_rshift_bit_count$[ebp]
	shr	edx, cl
	mov	DWORD PTR _work$3[ebp], edx
	mov	eax, 4
	imul	ecx, eax, 10
	mov	edx, DWORD PTR _pp$[ebp]
	mov	eax, DWORD PTR [edx+ecx]
	mov	DWORD PTR _temp$4[ebp], eax
	mov	edx, DWORD PTR _temp$4[ebp]
	mov	ecx, DWORD PTR _n_lshift_bit_count$5[ebp]
	shl	edx, cl
	or	edx, DWORD PTR _work$3[ebp]
	mov	DWORD PTR _work$3[ebp], edx
	mov	eax, 4
	imul	ecx, eax, 10
	mov	edx, DWORD PTR _op$[ebp]
	mov	eax, DWORD PTR _work$3[ebp]
	mov	DWORD PTR [edx+ecx], eax

; 74   :             work = temp >> n_rshift_bit_count; temp = pp[11]; work |= temp << n_lshift_bit_count; op[11] = work;

	mov	edx, DWORD PTR _temp$4[ebp]
	mov	ecx, DWORD PTR _n_rshift_bit_count$[ebp]
	shr	edx, cl
	mov	DWORD PTR _work$3[ebp], edx
	mov	eax, 4
	imul	ecx, eax, 11
	mov	edx, DWORD PTR _pp$[ebp]
	mov	eax, DWORD PTR [edx+ecx]
	mov	DWORD PTR _temp$4[ebp], eax
	mov	edx, DWORD PTR _temp$4[ebp]
	mov	ecx, DWORD PTR _n_lshift_bit_count$5[ebp]
	shl	edx, cl
	or	edx, DWORD PTR _work$3[ebp]
	mov	DWORD PTR _work$3[ebp], edx
	mov	eax, 4
	imul	ecx, eax, 11
	mov	edx, DWORD PTR _op$[ebp]
	mov	eax, DWORD PTR _work$3[ebp]
	mov	DWORD PTR [edx+ecx], eax

; 75   :             work = temp >> n_rshift_bit_count; temp = pp[12]; work |= temp << n_lshift_bit_count; op[12] = work;

	mov	edx, DWORD PTR _temp$4[ebp]
	mov	ecx, DWORD PTR _n_rshift_bit_count$[ebp]
	shr	edx, cl
	mov	DWORD PTR _work$3[ebp], edx
	mov	eax, 4
	imul	ecx, eax, 12
	mov	edx, DWORD PTR _pp$[ebp]
	mov	eax, DWORD PTR [edx+ecx]
	mov	DWORD PTR _temp$4[ebp], eax
	mov	edx, DWORD PTR _temp$4[ebp]
	mov	ecx, DWORD PTR _n_lshift_bit_count$5[ebp]
	shl	edx, cl
	or	edx, DWORD PTR _work$3[ebp]
	mov	DWORD PTR _work$3[ebp], edx
	mov	eax, 4
	imul	ecx, eax, 12
	mov	edx, DWORD PTR _op$[ebp]
	mov	eax, DWORD PTR _work$3[ebp]
	mov	DWORD PTR [edx+ecx], eax

; 76   :             work = temp >> n_rshift_bit_count; temp = pp[13]; work |= temp << n_lshift_bit_count; op[13] = work;

	mov	edx, DWORD PTR _temp$4[ebp]
	mov	ecx, DWORD PTR _n_rshift_bit_count$[ebp]
	shr	edx, cl
	mov	DWORD PTR _work$3[ebp], edx
	mov	eax, 4
	imul	ecx, eax, 13
	mov	edx, DWORD PTR _pp$[ebp]
	mov	eax, DWORD PTR [edx+ecx]
	mov	DWORD PTR _temp$4[ebp], eax
	mov	edx, DWORD PTR _temp$4[ebp]
	mov	ecx, DWORD PTR _n_lshift_bit_count$5[ebp]
	shl	edx, cl
	or	edx, DWORD PTR _work$3[ebp]
	mov	DWORD PTR _work$3[ebp], edx
	mov	eax, 4
	imul	ecx, eax, 13
	mov	edx, DWORD PTR _op$[ebp]
	mov	eax, DWORD PTR _work$3[ebp]
	mov	DWORD PTR [edx+ecx], eax

; 77   :             work = temp >> n_rshift_bit_count; temp = pp[14]; work |= temp << n_lshift_bit_count; op[14] = work;

	mov	edx, DWORD PTR _temp$4[ebp]
	mov	ecx, DWORD PTR _n_rshift_bit_count$[ebp]
	shr	edx, cl
	mov	DWORD PTR _work$3[ebp], edx
	mov	eax, 4
	imul	ecx, eax, 14
	mov	edx, DWORD PTR _pp$[ebp]
	mov	eax, DWORD PTR [edx+ecx]
	mov	DWORD PTR _temp$4[ebp], eax
	mov	edx, DWORD PTR _temp$4[ebp]
	mov	ecx, DWORD PTR _n_lshift_bit_count$5[ebp]
	shl	edx, cl
	or	edx, DWORD PTR _work$3[ebp]
	mov	DWORD PTR _work$3[ebp], edx
	mov	eax, 4
	imul	ecx, eax, 14
	mov	edx, DWORD PTR _op$[ebp]
	mov	eax, DWORD PTR _work$3[ebp]
	mov	DWORD PTR [edx+ecx], eax

; 78   :             work = temp >> n_rshift_bit_count; temp = pp[15]; work |= temp << n_lshift_bit_count; op[15] = work;

	mov	edx, DWORD PTR _temp$4[ebp]
	mov	ecx, DWORD PTR _n_rshift_bit_count$[ebp]
	shr	edx, cl
	mov	DWORD PTR _work$3[ebp], edx
	mov	eax, 4
	imul	ecx, eax, 15
	mov	edx, DWORD PTR _pp$[ebp]
	mov	eax, DWORD PTR [edx+ecx]
	mov	DWORD PTR _temp$4[ebp], eax
	mov	edx, DWORD PTR _temp$4[ebp]
	mov	ecx, DWORD PTR _n_lshift_bit_count$5[ebp]
	shl	edx, cl
	or	edx, DWORD PTR _work$3[ebp]
	mov	DWORD PTR _work$3[ebp], edx
	mov	eax, 4
	imul	ecx, eax, 15
	mov	edx, DWORD PTR _op$[ebp]
	mov	eax, DWORD PTR _work$3[ebp]
	mov	DWORD PTR [edx+ecx], eax

; 79   :             work = temp >> n_rshift_bit_count; temp = pp[16]; work |= temp << n_lshift_bit_count; op[16] = work;

	mov	edx, DWORD PTR _temp$4[ebp]
	mov	ecx, DWORD PTR _n_rshift_bit_count$[ebp]
	shr	edx, cl
	mov	DWORD PTR _work$3[ebp], edx
	mov	eax, 4
	shl	eax, 4
	mov	ecx, DWORD PTR _pp$[ebp]
	mov	edx, DWORD PTR [ecx+eax]
	mov	DWORD PTR _temp$4[ebp], edx
	mov	eax, DWORD PTR _temp$4[ebp]
	mov	ecx, DWORD PTR _n_lshift_bit_count$5[ebp]
	shl	eax, cl
	or	eax, DWORD PTR _work$3[ebp]
	mov	DWORD PTR _work$3[ebp], eax
	mov	ecx, 4
	shl	ecx, 4
	mov	edx, DWORD PTR _op$[ebp]
	mov	eax, DWORD PTR _work$3[ebp]
	mov	DWORD PTR [edx+ecx], eax

; 80   :             work = temp >> n_rshift_bit_count; temp = pp[17]; work |= temp << n_lshift_bit_count; op[17] = work;

	mov	edx, DWORD PTR _temp$4[ebp]
	mov	ecx, DWORD PTR _n_rshift_bit_count$[ebp]
	shr	edx, cl
	mov	DWORD PTR _work$3[ebp], edx
	mov	eax, 4
	imul	ecx, eax, 17
	mov	edx, DWORD PTR _pp$[ebp]
	mov	eax, DWORD PTR [edx+ecx]
	mov	DWORD PTR _temp$4[ebp], eax
	mov	edx, DWORD PTR _temp$4[ebp]
	mov	ecx, DWORD PTR _n_lshift_bit_count$5[ebp]
	shl	edx, cl
	or	edx, DWORD PTR _work$3[ebp]
	mov	DWORD PTR _work$3[ebp], edx
	mov	eax, 4
	imul	ecx, eax, 17
	mov	edx, DWORD PTR _op$[ebp]
	mov	eax, DWORD PTR _work$3[ebp]
	mov	DWORD PTR [edx+ecx], eax

; 81   :             work = temp >> n_rshift_bit_count; temp = pp[18]; work |= temp << n_lshift_bit_count; op[18] = work;

	mov	edx, DWORD PTR _temp$4[ebp]
	mov	ecx, DWORD PTR _n_rshift_bit_count$[ebp]
	shr	edx, cl
	mov	DWORD PTR _work$3[ebp], edx
	mov	eax, 4
	imul	ecx, eax, 18
	mov	edx, DWORD PTR _pp$[ebp]
	mov	eax, DWORD PTR [edx+ecx]
	mov	DWORD PTR _temp$4[ebp], eax
	mov	edx, DWORD PTR _temp$4[ebp]
	mov	ecx, DWORD PTR _n_lshift_bit_count$5[ebp]
	shl	edx, cl
	or	edx, DWORD PTR _work$3[ebp]
	mov	DWORD PTR _work$3[ebp], edx
	mov	eax, 4
	imul	ecx, eax, 18
	mov	edx, DWORD PTR _op$[ebp]
	mov	eax, DWORD PTR _work$3[ebp]
	mov	DWORD PTR [edx+ecx], eax

; 82   :             work = temp >> n_rshift_bit_count; temp = pp[19]; work |= temp << n_lshift_bit_count; op[19] = work;

	mov	edx, DWORD PTR _temp$4[ebp]
	mov	ecx, DWORD PTR _n_rshift_bit_count$[ebp]
	shr	edx, cl
	mov	DWORD PTR _work$3[ebp], edx
	mov	eax, 4
	imul	ecx, eax, 19
	mov	edx, DWORD PTR _pp$[ebp]
	mov	eax, DWORD PTR [edx+ecx]
	mov	DWORD PTR _temp$4[ebp], eax
	mov	edx, DWORD PTR _temp$4[ebp]
	mov	ecx, DWORD PTR _n_lshift_bit_count$5[ebp]
	shl	edx, cl
	or	edx, DWORD PTR _work$3[ebp]
	mov	DWORD PTR _work$3[ebp], edx
	mov	eax, 4
	imul	ecx, eax, 19
	mov	edx, DWORD PTR _op$[ebp]
	mov	eax, DWORD PTR _work$3[ebp]
	mov	DWORD PTR [edx+ecx], eax

; 83   :             work = temp >> n_rshift_bit_count; temp = pp[20]; work |= temp << n_lshift_bit_count; op[20] = work;

	mov	edx, DWORD PTR _temp$4[ebp]
	mov	ecx, DWORD PTR _n_rshift_bit_count$[ebp]
	shr	edx, cl
	mov	DWORD PTR _work$3[ebp], edx
	mov	eax, 4
	imul	ecx, eax, 20
	mov	edx, DWORD PTR _pp$[ebp]
	mov	eax, DWORD PTR [edx+ecx]
	mov	DWORD PTR _temp$4[ebp], eax
	mov	edx, DWORD PTR _temp$4[ebp]
	mov	ecx, DWORD PTR _n_lshift_bit_count$5[ebp]
	shl	edx, cl
	or	edx, DWORD PTR _work$3[ebp]
	mov	DWORD PTR _work$3[ebp], edx
	mov	eax, 4
	imul	ecx, eax, 20
	mov	edx, DWORD PTR _op$[ebp]
	mov	eax, DWORD PTR _work$3[ebp]
	mov	DWORD PTR [edx+ecx], eax

; 84   :             work = temp >> n_rshift_bit_count; temp = pp[21]; work |= temp << n_lshift_bit_count; op[21] = work;

	mov	edx, DWORD PTR _temp$4[ebp]
	mov	ecx, DWORD PTR _n_rshift_bit_count$[ebp]
	shr	edx, cl
	mov	DWORD PTR _work$3[ebp], edx
	mov	eax, 4
	imul	ecx, eax, 21
	mov	edx, DWORD PTR _pp$[ebp]
	mov	eax, DWORD PTR [edx+ecx]
	mov	DWORD PTR _temp$4[ebp], eax
	mov	edx, DWORD PTR _temp$4[ebp]
	mov	ecx, DWORD PTR _n_lshift_bit_count$5[ebp]
	shl	edx, cl
	or	edx, DWORD PTR _work$3[ebp]
	mov	DWORD PTR _work$3[ebp], edx
	mov	eax, 4
	imul	ecx, eax, 21
	mov	edx, DWORD PTR _op$[ebp]
	mov	eax, DWORD PTR _work$3[ebp]
	mov	DWORD PTR [edx+ecx], eax

; 85   :             work = temp >> n_rshift_bit_count; temp = pp[22]; work |= temp << n_lshift_bit_count; op[22] = work;

	mov	edx, DWORD PTR _temp$4[ebp]
	mov	ecx, DWORD PTR _n_rshift_bit_count$[ebp]
	shr	edx, cl
	mov	DWORD PTR _work$3[ebp], edx
	mov	eax, 4
	imul	ecx, eax, 22
	mov	edx, DWORD PTR _pp$[ebp]
	mov	eax, DWORD PTR [edx+ecx]
	mov	DWORD PTR _temp$4[ebp], eax
	mov	edx, DWORD PTR _temp$4[ebp]
	mov	ecx, DWORD PTR _n_lshift_bit_count$5[ebp]
	shl	edx, cl
	or	edx, DWORD PTR _work$3[ebp]
	mov	DWORD PTR _work$3[ebp], edx
	mov	eax, 4
	imul	ecx, eax, 22
	mov	edx, DWORD PTR _op$[ebp]
	mov	eax, DWORD PTR _work$3[ebp]
	mov	DWORD PTR [edx+ecx], eax

; 86   :             work = temp >> n_rshift_bit_count; temp = pp[23]; work |= temp << n_lshift_bit_count; op[23] = work;

	mov	edx, DWORD PTR _temp$4[ebp]
	mov	ecx, DWORD PTR _n_rshift_bit_count$[ebp]
	shr	edx, cl
	mov	DWORD PTR _work$3[ebp], edx
	mov	eax, 4
	imul	ecx, eax, 23
	mov	edx, DWORD PTR _pp$[ebp]
	mov	eax, DWORD PTR [edx+ecx]
	mov	DWORD PTR _temp$4[ebp], eax
	mov	edx, DWORD PTR _temp$4[ebp]
	mov	ecx, DWORD PTR _n_lshift_bit_count$5[ebp]
	shl	edx, cl
	or	edx, DWORD PTR _work$3[ebp]
	mov	DWORD PTR _work$3[ebp], edx
	mov	eax, 4
	imul	ecx, eax, 23
	mov	edx, DWORD PTR _op$[ebp]
	mov	eax, DWORD PTR _work$3[ebp]
	mov	DWORD PTR [edx+ecx], eax

; 87   :             work = temp >> n_rshift_bit_count; temp = pp[24]; work |= temp << n_lshift_bit_count; op[24] = work;

	mov	edx, DWORD PTR _temp$4[ebp]
	mov	ecx, DWORD PTR _n_rshift_bit_count$[ebp]
	shr	edx, cl
	mov	DWORD PTR _work$3[ebp], edx
	mov	eax, 4
	imul	ecx, eax, 24
	mov	edx, DWORD PTR _pp$[ebp]
	mov	eax, DWORD PTR [edx+ecx]
	mov	DWORD PTR _temp$4[ebp], eax
	mov	edx, DWORD PTR _temp$4[ebp]
	mov	ecx, DWORD PTR _n_lshift_bit_count$5[ebp]
	shl	edx, cl
	or	edx, DWORD PTR _work$3[ebp]
	mov	DWORD PTR _work$3[ebp], edx
	mov	eax, 4
	imul	ecx, eax, 24
	mov	edx, DWORD PTR _op$[ebp]
	mov	eax, DWORD PTR _work$3[ebp]
	mov	DWORD PTR [edx+ecx], eax

; 88   :             work = temp >> n_rshift_bit_count; temp = pp[25]; work |= temp << n_lshift_bit_count; op[25] = work;

	mov	edx, DWORD PTR _temp$4[ebp]
	mov	ecx, DWORD PTR _n_rshift_bit_count$[ebp]
	shr	edx, cl
	mov	DWORD PTR _work$3[ebp], edx
	mov	eax, 4
	imul	ecx, eax, 25
	mov	edx, DWORD PTR _pp$[ebp]
	mov	eax, DWORD PTR [edx+ecx]
	mov	DWORD PTR _temp$4[ebp], eax
	mov	edx, DWORD PTR _temp$4[ebp]
	mov	ecx, DWORD PTR _n_lshift_bit_count$5[ebp]
	shl	edx, cl
	or	edx, DWORD PTR _work$3[ebp]
	mov	DWORD PTR _work$3[ebp], edx
	mov	eax, 4
	imul	ecx, eax, 25
	mov	edx, DWORD PTR _op$[ebp]
	mov	eax, DWORD PTR _work$3[ebp]
	mov	DWORD PTR [edx+ecx], eax

; 89   :             work = temp >> n_rshift_bit_count; temp = pp[26]; work |= temp << n_lshift_bit_count; op[26] = work;

	mov	edx, DWORD PTR _temp$4[ebp]
	mov	ecx, DWORD PTR _n_rshift_bit_count$[ebp]
	shr	edx, cl
	mov	DWORD PTR _work$3[ebp], edx
	mov	eax, 4
	imul	ecx, eax, 26
	mov	edx, DWORD PTR _pp$[ebp]
	mov	eax, DWORD PTR [edx+ecx]
	mov	DWORD PTR _temp$4[ebp], eax
	mov	edx, DWORD PTR _temp$4[ebp]
	mov	ecx, DWORD PTR _n_lshift_bit_count$5[ebp]
	shl	edx, cl
	or	edx, DWORD PTR _work$3[ebp]
	mov	DWORD PTR _work$3[ebp], edx
	mov	eax, 4
	imul	ecx, eax, 26
	mov	edx, DWORD PTR _op$[ebp]
	mov	eax, DWORD PTR _work$3[ebp]
	mov	DWORD PTR [edx+ecx], eax

; 90   :             work = temp >> n_rshift_bit_count; temp = pp[27]; work |= temp << n_lshift_bit_count; op[27] = work;

	mov	edx, DWORD PTR _temp$4[ebp]
	mov	ecx, DWORD PTR _n_rshift_bit_count$[ebp]
	shr	edx, cl
	mov	DWORD PTR _work$3[ebp], edx
	mov	eax, 4
	imul	ecx, eax, 27
	mov	edx, DWORD PTR _pp$[ebp]
	mov	eax, DWORD PTR [edx+ecx]
	mov	DWORD PTR _temp$4[ebp], eax
	mov	edx, DWORD PTR _temp$4[ebp]
	mov	ecx, DWORD PTR _n_lshift_bit_count$5[ebp]
	shl	edx, cl
	or	edx, DWORD PTR _work$3[ebp]
	mov	DWORD PTR _work$3[ebp], edx
	mov	eax, 4
	imul	ecx, eax, 27
	mov	edx, DWORD PTR _op$[ebp]
	mov	eax, DWORD PTR _work$3[ebp]
	mov	DWORD PTR [edx+ecx], eax

; 91   :             work = temp >> n_rshift_bit_count; temp = pp[28]; work |= temp << n_lshift_bit_count; op[28] = work;

	mov	edx, DWORD PTR _temp$4[ebp]
	mov	ecx, DWORD PTR _n_rshift_bit_count$[ebp]
	shr	edx, cl
	mov	DWORD PTR _work$3[ebp], edx
	mov	eax, 4
	imul	ecx, eax, 28
	mov	edx, DWORD PTR _pp$[ebp]
	mov	eax, DWORD PTR [edx+ecx]
	mov	DWORD PTR _temp$4[ebp], eax
	mov	edx, DWORD PTR _temp$4[ebp]
	mov	ecx, DWORD PTR _n_lshift_bit_count$5[ebp]
	shl	edx, cl
	or	edx, DWORD PTR _work$3[ebp]
	mov	DWORD PTR _work$3[ebp], edx
	mov	eax, 4
	imul	ecx, eax, 28
	mov	edx, DWORD PTR _op$[ebp]
	mov	eax, DWORD PTR _work$3[ebp]
	mov	DWORD PTR [edx+ecx], eax

; 92   :             work = temp >> n_rshift_bit_count; temp = pp[29]; work |= temp << n_lshift_bit_count; op[29] = work;

	mov	edx, DWORD PTR _temp$4[ebp]
	mov	ecx, DWORD PTR _n_rshift_bit_count$[ebp]
	shr	edx, cl
	mov	DWORD PTR _work$3[ebp], edx
	mov	eax, 4
	imul	ecx, eax, 29
	mov	edx, DWORD PTR _pp$[ebp]
	mov	eax, DWORD PTR [edx+ecx]
	mov	DWORD PTR _temp$4[ebp], eax
	mov	edx, DWORD PTR _temp$4[ebp]
	mov	ecx, DWORD PTR _n_lshift_bit_count$5[ebp]
	shl	edx, cl
	or	edx, DWORD PTR _work$3[ebp]
	mov	DWORD PTR _work$3[ebp], edx
	mov	eax, 4
	imul	ecx, eax, 29
	mov	edx, DWORD PTR _op$[ebp]
	mov	eax, DWORD PTR _work$3[ebp]
	mov	DWORD PTR [edx+ecx], eax

; 93   :             work = temp >> n_rshift_bit_count; temp = pp[30]; work |= temp << n_lshift_bit_count; op[30] = work;

	mov	edx, DWORD PTR _temp$4[ebp]
	mov	ecx, DWORD PTR _n_rshift_bit_count$[ebp]
	shr	edx, cl
	mov	DWORD PTR _work$3[ebp], edx
	mov	eax, 4
	imul	ecx, eax, 30
	mov	edx, DWORD PTR _pp$[ebp]
	mov	eax, DWORD PTR [edx+ecx]
	mov	DWORD PTR _temp$4[ebp], eax
	mov	edx, DWORD PTR _temp$4[ebp]
	mov	ecx, DWORD PTR _n_lshift_bit_count$5[ebp]
	shl	edx, cl
	or	edx, DWORD PTR _work$3[ebp]
	mov	DWORD PTR _work$3[ebp], edx
	mov	eax, 4
	imul	ecx, eax, 30
	mov	edx, DWORD PTR _op$[ebp]
	mov	eax, DWORD PTR _work$3[ebp]
	mov	DWORD PTR [edx+ecx], eax

; 94   :             work = temp >> n_rshift_bit_count; temp = pp[31]; work |= temp << n_lshift_bit_count; op[31] = work;

	mov	edx, DWORD PTR _temp$4[ebp]
	mov	ecx, DWORD PTR _n_rshift_bit_count$[ebp]
	shr	edx, cl
	mov	DWORD PTR _work$3[ebp], edx
	mov	eax, 4
	imul	ecx, eax, 31
	mov	edx, DWORD PTR _pp$[ebp]
	mov	eax, DWORD PTR [edx+ecx]
	mov	DWORD PTR _temp$4[ebp], eax
	mov	edx, DWORD PTR _temp$4[ebp]
	mov	ecx, DWORD PTR _n_lshift_bit_count$5[ebp]
	shl	edx, cl
	or	edx, DWORD PTR _work$3[ebp]
	mov	DWORD PTR _work$3[ebp], edx
	mov	eax, 4
	imul	ecx, eax, 31
	mov	edx, DWORD PTR _op$[ebp]
	mov	eax, DWORD PTR _work$3[ebp]
	mov	DWORD PTR [edx+ecx], eax

; 95   :             --count;

	mov	ecx, DWORD PTR _count$1[ebp]
	sub	ecx, 1
	mov	DWORD PTR _count$1[ebp], ecx

; 96   :             pp += 32;

	mov	edx, DWORD PTR _pp$[ebp]
	add	edx, 128				; 00000080H
	mov	DWORD PTR _pp$[ebp], edx

; 97   :             op += 32;

	mov	eax, DWORD PTR _op$[ebp]
	add	eax, 128				; 00000080H
	mov	DWORD PTR _op$[ebp], eax

; 98   :         }

	jmp	$LN2@RightShift
$LN3@RightShift:

; 99   : 
; 100  :         if (t_count & 0x10)

	mov	ecx, DWORD PTR _t_count$2[ebp]
	and	ecx, 16					; 00000010H
	je	$LN6@RightShift

; 101  :         {
; 102  :             work = temp >> n_rshift_bit_count; temp = pp[0]; work |= temp << n_lshift_bit_count; op[0] = work;

	mov	edx, DWORD PTR _temp$4[ebp]
	mov	ecx, DWORD PTR _n_rshift_bit_count$[ebp]
	shr	edx, cl
	mov	DWORD PTR _work$3[ebp], edx
	mov	eax, 4
	imul	ecx, eax, 0
	mov	edx, DWORD PTR _pp$[ebp]
	mov	eax, DWORD PTR [edx+ecx]
	mov	DWORD PTR _temp$4[ebp], eax
	mov	edx, DWORD PTR _temp$4[ebp]
	mov	ecx, DWORD PTR _n_lshift_bit_count$5[ebp]
	shl	edx, cl
	or	edx, DWORD PTR _work$3[ebp]
	mov	DWORD PTR _work$3[ebp], edx
	mov	eax, 4
	imul	ecx, eax, 0
	mov	edx, DWORD PTR _op$[ebp]
	mov	eax, DWORD PTR _work$3[ebp]
	mov	DWORD PTR [edx+ecx], eax

; 103  :             work = temp >> n_rshift_bit_count; temp = pp[1]; work |= temp << n_lshift_bit_count; op[1] = work;

	mov	edx, DWORD PTR _temp$4[ebp]
	mov	ecx, DWORD PTR _n_rshift_bit_count$[ebp]
	shr	edx, cl
	mov	DWORD PTR _work$3[ebp], edx
	mov	eax, 4
	shl	eax, 0
	mov	ecx, DWORD PTR _pp$[ebp]
	mov	edx, DWORD PTR [ecx+eax]
	mov	DWORD PTR _temp$4[ebp], edx
	mov	eax, DWORD PTR _temp$4[ebp]
	mov	ecx, DWORD PTR _n_lshift_bit_count$5[ebp]
	shl	eax, cl
	or	eax, DWORD PTR _work$3[ebp]
	mov	DWORD PTR _work$3[ebp], eax
	mov	ecx, 4
	shl	ecx, 0
	mov	edx, DWORD PTR _op$[ebp]
	mov	eax, DWORD PTR _work$3[ebp]
	mov	DWORD PTR [edx+ecx], eax

; 104  :             work = temp >> n_rshift_bit_count; temp = pp[2]; work |= temp << n_lshift_bit_count; op[2] = work;

	mov	edx, DWORD PTR _temp$4[ebp]
	mov	ecx, DWORD PTR _n_rshift_bit_count$[ebp]
	shr	edx, cl
	mov	DWORD PTR _work$3[ebp], edx
	mov	eax, 4
	shl	eax, 1
	mov	ecx, DWORD PTR _pp$[ebp]
	mov	edx, DWORD PTR [ecx+eax]
	mov	DWORD PTR _temp$4[ebp], edx
	mov	eax, DWORD PTR _temp$4[ebp]
	mov	ecx, DWORD PTR _n_lshift_bit_count$5[ebp]
	shl	eax, cl
	or	eax, DWORD PTR _work$3[ebp]
	mov	DWORD PTR _work$3[ebp], eax
	mov	ecx, 4
	shl	ecx, 1
	mov	edx, DWORD PTR _op$[ebp]
	mov	eax, DWORD PTR _work$3[ebp]
	mov	DWORD PTR [edx+ecx], eax

; 105  :             work = temp >> n_rshift_bit_count; temp = pp[3]; work |= temp << n_lshift_bit_count; op[3] = work;

	mov	edx, DWORD PTR _temp$4[ebp]
	mov	ecx, DWORD PTR _n_rshift_bit_count$[ebp]
	shr	edx, cl
	mov	DWORD PTR _work$3[ebp], edx
	mov	eax, 4
	imul	ecx, eax, 3
	mov	edx, DWORD PTR _pp$[ebp]
	mov	eax, DWORD PTR [edx+ecx]
	mov	DWORD PTR _temp$4[ebp], eax
	mov	edx, DWORD PTR _temp$4[ebp]
	mov	ecx, DWORD PTR _n_lshift_bit_count$5[ebp]
	shl	edx, cl
	or	edx, DWORD PTR _work$3[ebp]
	mov	DWORD PTR _work$3[ebp], edx
	mov	eax, 4
	imul	ecx, eax, 3
	mov	edx, DWORD PTR _op$[ebp]
	mov	eax, DWORD PTR _work$3[ebp]
	mov	DWORD PTR [edx+ecx], eax

; 106  :             work = temp >> n_rshift_bit_count; temp = pp[4]; work |= temp << n_lshift_bit_count; op[4] = work;

	mov	edx, DWORD PTR _temp$4[ebp]
	mov	ecx, DWORD PTR _n_rshift_bit_count$[ebp]
	shr	edx, cl
	mov	DWORD PTR _work$3[ebp], edx
	mov	eax, 4
	shl	eax, 2
	mov	ecx, DWORD PTR _pp$[ebp]
	mov	edx, DWORD PTR [ecx+eax]
	mov	DWORD PTR _temp$4[ebp], edx
	mov	eax, DWORD PTR _temp$4[ebp]
	mov	ecx, DWORD PTR _n_lshift_bit_count$5[ebp]
	shl	eax, cl
	or	eax, DWORD PTR _work$3[ebp]
	mov	DWORD PTR _work$3[ebp], eax
	mov	ecx, 4
	shl	ecx, 2
	mov	edx, DWORD PTR _op$[ebp]
	mov	eax, DWORD PTR _work$3[ebp]
	mov	DWORD PTR [edx+ecx], eax

; 107  :             work = temp >> n_rshift_bit_count; temp = pp[5]; work |= temp << n_lshift_bit_count; op[5] = work;

	mov	edx, DWORD PTR _temp$4[ebp]
	mov	ecx, DWORD PTR _n_rshift_bit_count$[ebp]
	shr	edx, cl
	mov	DWORD PTR _work$3[ebp], edx
	mov	eax, 4
	imul	ecx, eax, 5
	mov	edx, DWORD PTR _pp$[ebp]
	mov	eax, DWORD PTR [edx+ecx]
	mov	DWORD PTR _temp$4[ebp], eax
	mov	edx, DWORD PTR _temp$4[ebp]
	mov	ecx, DWORD PTR _n_lshift_bit_count$5[ebp]
	shl	edx, cl
	or	edx, DWORD PTR _work$3[ebp]
	mov	DWORD PTR _work$3[ebp], edx
	mov	eax, 4
	imul	ecx, eax, 5
	mov	edx, DWORD PTR _op$[ebp]
	mov	eax, DWORD PTR _work$3[ebp]
	mov	DWORD PTR [edx+ecx], eax

; 108  :             work = temp >> n_rshift_bit_count; temp = pp[6]; work |= temp << n_lshift_bit_count; op[6] = work;

	mov	edx, DWORD PTR _temp$4[ebp]
	mov	ecx, DWORD PTR _n_rshift_bit_count$[ebp]
	shr	edx, cl
	mov	DWORD PTR _work$3[ebp], edx
	mov	eax, 4
	imul	ecx, eax, 6
	mov	edx, DWORD PTR _pp$[ebp]
	mov	eax, DWORD PTR [edx+ecx]
	mov	DWORD PTR _temp$4[ebp], eax
	mov	edx, DWORD PTR _temp$4[ebp]
	mov	ecx, DWORD PTR _n_lshift_bit_count$5[ebp]
	shl	edx, cl
	or	edx, DWORD PTR _work$3[ebp]
	mov	DWORD PTR _work$3[ebp], edx
	mov	eax, 4
	imul	ecx, eax, 6
	mov	edx, DWORD PTR _op$[ebp]
	mov	eax, DWORD PTR _work$3[ebp]
	mov	DWORD PTR [edx+ecx], eax

; 109  :             work = temp >> n_rshift_bit_count; temp = pp[7]; work |= temp << n_lshift_bit_count; op[7] = work;

	mov	edx, DWORD PTR _temp$4[ebp]
	mov	ecx, DWORD PTR _n_rshift_bit_count$[ebp]
	shr	edx, cl
	mov	DWORD PTR _work$3[ebp], edx
	mov	eax, 4
	imul	ecx, eax, 7
	mov	edx, DWORD PTR _pp$[ebp]
	mov	eax, DWORD PTR [edx+ecx]
	mov	DWORD PTR _temp$4[ebp], eax
	mov	edx, DWORD PTR _temp$4[ebp]
	mov	ecx, DWORD PTR _n_lshift_bit_count$5[ebp]
	shl	edx, cl
	or	edx, DWORD PTR _work$3[ebp]
	mov	DWORD PTR _work$3[ebp], edx
	mov	eax, 4
	imul	ecx, eax, 7
	mov	edx, DWORD PTR _op$[ebp]
	mov	eax, DWORD PTR _work$3[ebp]
	mov	DWORD PTR [edx+ecx], eax

; 110  :             work = temp >> n_rshift_bit_count; temp = pp[8]; work |= temp << n_lshift_bit_count; op[8] = work;

	mov	edx, DWORD PTR _temp$4[ebp]
	mov	ecx, DWORD PTR _n_rshift_bit_count$[ebp]
	shr	edx, cl
	mov	DWORD PTR _work$3[ebp], edx
	mov	eax, 4
	shl	eax, 3
	mov	ecx, DWORD PTR _pp$[ebp]
	mov	edx, DWORD PTR [ecx+eax]
	mov	DWORD PTR _temp$4[ebp], edx
	mov	eax, DWORD PTR _temp$4[ebp]
	mov	ecx, DWORD PTR _n_lshift_bit_count$5[ebp]
	shl	eax, cl
	or	eax, DWORD PTR _work$3[ebp]
	mov	DWORD PTR _work$3[ebp], eax
	mov	ecx, 4
	shl	ecx, 3
	mov	edx, DWORD PTR _op$[ebp]
	mov	eax, DWORD PTR _work$3[ebp]
	mov	DWORD PTR [edx+ecx], eax

; 111  :             work = temp >> n_rshift_bit_count; temp = pp[9]; work |= temp << n_lshift_bit_count; op[9] = work;

	mov	edx, DWORD PTR _temp$4[ebp]
	mov	ecx, DWORD PTR _n_rshift_bit_count$[ebp]
	shr	edx, cl
	mov	DWORD PTR _work$3[ebp], edx
	mov	eax, 4
	imul	ecx, eax, 9
	mov	edx, DWORD PTR _pp$[ebp]
	mov	eax, DWORD PTR [edx+ecx]
	mov	DWORD PTR _temp$4[ebp], eax
	mov	edx, DWORD PTR _temp$4[ebp]
	mov	ecx, DWORD PTR _n_lshift_bit_count$5[ebp]
	shl	edx, cl
	or	edx, DWORD PTR _work$3[ebp]
	mov	DWORD PTR _work$3[ebp], edx
	mov	eax, 4
	imul	ecx, eax, 9
	mov	edx, DWORD PTR _op$[ebp]
	mov	eax, DWORD PTR _work$3[ebp]
	mov	DWORD PTR [edx+ecx], eax

; 112  :             work = temp >> n_rshift_bit_count; temp = pp[10]; work |= temp << n_lshift_bit_count; op[10] = work;

	mov	edx, DWORD PTR _temp$4[ebp]
	mov	ecx, DWORD PTR _n_rshift_bit_count$[ebp]
	shr	edx, cl
	mov	DWORD PTR _work$3[ebp], edx
	mov	eax, 4
	imul	ecx, eax, 10
	mov	edx, DWORD PTR _pp$[ebp]
	mov	eax, DWORD PTR [edx+ecx]
	mov	DWORD PTR _temp$4[ebp], eax
	mov	edx, DWORD PTR _temp$4[ebp]
	mov	ecx, DWORD PTR _n_lshift_bit_count$5[ebp]
	shl	edx, cl
	or	edx, DWORD PTR _work$3[ebp]
	mov	DWORD PTR _work$3[ebp], edx
	mov	eax, 4
	imul	ecx, eax, 10
	mov	edx, DWORD PTR _op$[ebp]
	mov	eax, DWORD PTR _work$3[ebp]
	mov	DWORD PTR [edx+ecx], eax

; 113  :             work = temp >> n_rshift_bit_count; temp = pp[11]; work |= temp << n_lshift_bit_count; op[11] = work;

	mov	edx, DWORD PTR _temp$4[ebp]
	mov	ecx, DWORD PTR _n_rshift_bit_count$[ebp]
	shr	edx, cl
	mov	DWORD PTR _work$3[ebp], edx
	mov	eax, 4
	imul	ecx, eax, 11
	mov	edx, DWORD PTR _pp$[ebp]
	mov	eax, DWORD PTR [edx+ecx]
	mov	DWORD PTR _temp$4[ebp], eax
	mov	edx, DWORD PTR _temp$4[ebp]
	mov	ecx, DWORD PTR _n_lshift_bit_count$5[ebp]
	shl	edx, cl
	or	edx, DWORD PTR _work$3[ebp]
	mov	DWORD PTR _work$3[ebp], edx
	mov	eax, 4
	imul	ecx, eax, 11
	mov	edx, DWORD PTR _op$[ebp]
	mov	eax, DWORD PTR _work$3[ebp]
	mov	DWORD PTR [edx+ecx], eax

; 114  :             work = temp >> n_rshift_bit_count; temp = pp[12]; work |= temp << n_lshift_bit_count; op[12] = work;

	mov	edx, DWORD PTR _temp$4[ebp]
	mov	ecx, DWORD PTR _n_rshift_bit_count$[ebp]
	shr	edx, cl
	mov	DWORD PTR _work$3[ebp], edx
	mov	eax, 4
	imul	ecx, eax, 12
	mov	edx, DWORD PTR _pp$[ebp]
	mov	eax, DWORD PTR [edx+ecx]
	mov	DWORD PTR _temp$4[ebp], eax
	mov	edx, DWORD PTR _temp$4[ebp]
	mov	ecx, DWORD PTR _n_lshift_bit_count$5[ebp]
	shl	edx, cl
	or	edx, DWORD PTR _work$3[ebp]
	mov	DWORD PTR _work$3[ebp], edx
	mov	eax, 4
	imul	ecx, eax, 12
	mov	edx, DWORD PTR _op$[ebp]
	mov	eax, DWORD PTR _work$3[ebp]
	mov	DWORD PTR [edx+ecx], eax

; 115  :             work = temp >> n_rshift_bit_count; temp = pp[13]; work |= temp << n_lshift_bit_count; op[13] = work;

	mov	edx, DWORD PTR _temp$4[ebp]
	mov	ecx, DWORD PTR _n_rshift_bit_count$[ebp]
	shr	edx, cl
	mov	DWORD PTR _work$3[ebp], edx
	mov	eax, 4
	imul	ecx, eax, 13
	mov	edx, DWORD PTR _pp$[ebp]
	mov	eax, DWORD PTR [edx+ecx]
	mov	DWORD PTR _temp$4[ebp], eax
	mov	edx, DWORD PTR _temp$4[ebp]
	mov	ecx, DWORD PTR _n_lshift_bit_count$5[ebp]
	shl	edx, cl
	or	edx, DWORD PTR _work$3[ebp]
	mov	DWORD PTR _work$3[ebp], edx
	mov	eax, 4
	imul	ecx, eax, 13
	mov	edx, DWORD PTR _op$[ebp]
	mov	eax, DWORD PTR _work$3[ebp]
	mov	DWORD PTR [edx+ecx], eax

; 116  :             work = temp >> n_rshift_bit_count; temp = pp[14]; work |= temp << n_lshift_bit_count; op[14] = work;

	mov	edx, DWORD PTR _temp$4[ebp]
	mov	ecx, DWORD PTR _n_rshift_bit_count$[ebp]
	shr	edx, cl
	mov	DWORD PTR _work$3[ebp], edx
	mov	eax, 4
	imul	ecx, eax, 14
	mov	edx, DWORD PTR _pp$[ebp]
	mov	eax, DWORD PTR [edx+ecx]
	mov	DWORD PTR _temp$4[ebp], eax
	mov	edx, DWORD PTR _temp$4[ebp]
	mov	ecx, DWORD PTR _n_lshift_bit_count$5[ebp]
	shl	edx, cl
	or	edx, DWORD PTR _work$3[ebp]
	mov	DWORD PTR _work$3[ebp], edx
	mov	eax, 4
	imul	ecx, eax, 14
	mov	edx, DWORD PTR _op$[ebp]
	mov	eax, DWORD PTR _work$3[ebp]
	mov	DWORD PTR [edx+ecx], eax

; 117  :             work = temp >> n_rshift_bit_count; temp = pp[15]; work |= temp << n_lshift_bit_count; op[15] = work;

	mov	edx, DWORD PTR _temp$4[ebp]
	mov	ecx, DWORD PTR _n_rshift_bit_count$[ebp]
	shr	edx, cl
	mov	DWORD PTR _work$3[ebp], edx
	mov	eax, 4
	imul	ecx, eax, 15
	mov	edx, DWORD PTR _pp$[ebp]
	mov	eax, DWORD PTR [edx+ecx]
	mov	DWORD PTR _temp$4[ebp], eax
	mov	edx, DWORD PTR _temp$4[ebp]
	mov	ecx, DWORD PTR _n_lshift_bit_count$5[ebp]
	shl	edx, cl
	or	edx, DWORD PTR _work$3[ebp]
	mov	DWORD PTR _work$3[ebp], edx
	mov	eax, 4
	imul	ecx, eax, 15
	mov	edx, DWORD PTR _op$[ebp]
	mov	eax, DWORD PTR _work$3[ebp]
	mov	DWORD PTR [edx+ecx], eax

; 118  :             pp += 16;

	mov	ecx, DWORD PTR _pp$[ebp]
	add	ecx, 64					; 00000040H
	mov	DWORD PTR _pp$[ebp], ecx

; 119  :             op += 16;

	mov	edx, DWORD PTR _op$[ebp]
	add	edx, 64					; 00000040H
	mov	DWORD PTR _op$[ebp], edx
$LN6@RightShift:

; 120  :         }
; 121  : 
; 122  :         if (t_count & 0x8)

	mov	eax, DWORD PTR _t_count$2[ebp]
	and	eax, 8
	je	$LN7@RightShift

; 123  :         {
; 124  :             work = temp >> n_rshift_bit_count; temp = pp[0]; work |= temp << n_lshift_bit_count; op[0] = work;

	mov	edx, DWORD PTR _temp$4[ebp]
	mov	ecx, DWORD PTR _n_rshift_bit_count$[ebp]
	shr	edx, cl
	mov	DWORD PTR _work$3[ebp], edx
	mov	eax, 4
	imul	ecx, eax, 0
	mov	edx, DWORD PTR _pp$[ebp]
	mov	eax, DWORD PTR [edx+ecx]
	mov	DWORD PTR _temp$4[ebp], eax
	mov	edx, DWORD PTR _temp$4[ebp]
	mov	ecx, DWORD PTR _n_lshift_bit_count$5[ebp]
	shl	edx, cl
	or	edx, DWORD PTR _work$3[ebp]
	mov	DWORD PTR _work$3[ebp], edx
	mov	eax, 4
	imul	ecx, eax, 0
	mov	edx, DWORD PTR _op$[ebp]
	mov	eax, DWORD PTR _work$3[ebp]
	mov	DWORD PTR [edx+ecx], eax

; 125  :             work = temp >> n_rshift_bit_count; temp = pp[1]; work |= temp << n_lshift_bit_count; op[1] = work;

	mov	edx, DWORD PTR _temp$4[ebp]
	mov	ecx, DWORD PTR _n_rshift_bit_count$[ebp]
	shr	edx, cl
	mov	DWORD PTR _work$3[ebp], edx
	mov	eax, 4
	shl	eax, 0
	mov	ecx, DWORD PTR _pp$[ebp]
	mov	edx, DWORD PTR [ecx+eax]
	mov	DWORD PTR _temp$4[ebp], edx
	mov	eax, DWORD PTR _temp$4[ebp]
	mov	ecx, DWORD PTR _n_lshift_bit_count$5[ebp]
	shl	eax, cl
	or	eax, DWORD PTR _work$3[ebp]
	mov	DWORD PTR _work$3[ebp], eax
	mov	ecx, 4
	shl	ecx, 0
	mov	edx, DWORD PTR _op$[ebp]
	mov	eax, DWORD PTR _work$3[ebp]
	mov	DWORD PTR [edx+ecx], eax

; 126  :             work = temp >> n_rshift_bit_count; temp = pp[2]; work |= temp << n_lshift_bit_count; op[2] = work;

	mov	edx, DWORD PTR _temp$4[ebp]
	mov	ecx, DWORD PTR _n_rshift_bit_count$[ebp]
	shr	edx, cl
	mov	DWORD PTR _work$3[ebp], edx
	mov	eax, 4
	shl	eax, 1
	mov	ecx, DWORD PTR _pp$[ebp]
	mov	edx, DWORD PTR [ecx+eax]
	mov	DWORD PTR _temp$4[ebp], edx
	mov	eax, DWORD PTR _temp$4[ebp]
	mov	ecx, DWORD PTR _n_lshift_bit_count$5[ebp]
	shl	eax, cl
	or	eax, DWORD PTR _work$3[ebp]
	mov	DWORD PTR _work$3[ebp], eax
	mov	ecx, 4
	shl	ecx, 1
	mov	edx, DWORD PTR _op$[ebp]
	mov	eax, DWORD PTR _work$3[ebp]
	mov	DWORD PTR [edx+ecx], eax

; 127  :             work = temp >> n_rshift_bit_count; temp = pp[3]; work |= temp << n_lshift_bit_count; op[3] = work;

	mov	edx, DWORD PTR _temp$4[ebp]
	mov	ecx, DWORD PTR _n_rshift_bit_count$[ebp]
	shr	edx, cl
	mov	DWORD PTR _work$3[ebp], edx
	mov	eax, 4
	imul	ecx, eax, 3
	mov	edx, DWORD PTR _pp$[ebp]
	mov	eax, DWORD PTR [edx+ecx]
	mov	DWORD PTR _temp$4[ebp], eax
	mov	edx, DWORD PTR _temp$4[ebp]
	mov	ecx, DWORD PTR _n_lshift_bit_count$5[ebp]
	shl	edx, cl
	or	edx, DWORD PTR _work$3[ebp]
	mov	DWORD PTR _work$3[ebp], edx
	mov	eax, 4
	imul	ecx, eax, 3
	mov	edx, DWORD PTR _op$[ebp]
	mov	eax, DWORD PTR _work$3[ebp]
	mov	DWORD PTR [edx+ecx], eax

; 128  :             work = temp >> n_rshift_bit_count; temp = pp[4]; work |= temp << n_lshift_bit_count; op[4] = work;

	mov	edx, DWORD PTR _temp$4[ebp]
	mov	ecx, DWORD PTR _n_rshift_bit_count$[ebp]
	shr	edx, cl
	mov	DWORD PTR _work$3[ebp], edx
	mov	eax, 4
	shl	eax, 2
	mov	ecx, DWORD PTR _pp$[ebp]
	mov	edx, DWORD PTR [ecx+eax]
	mov	DWORD PTR _temp$4[ebp], edx
	mov	eax, DWORD PTR _temp$4[ebp]
	mov	ecx, DWORD PTR _n_lshift_bit_count$5[ebp]
	shl	eax, cl
	or	eax, DWORD PTR _work$3[ebp]
	mov	DWORD PTR _work$3[ebp], eax
	mov	ecx, 4
	shl	ecx, 2
	mov	edx, DWORD PTR _op$[ebp]
	mov	eax, DWORD PTR _work$3[ebp]
	mov	DWORD PTR [edx+ecx], eax

; 129  :             work = temp >> n_rshift_bit_count; temp = pp[5]; work |= temp << n_lshift_bit_count; op[5] = work;

	mov	edx, DWORD PTR _temp$4[ebp]
	mov	ecx, DWORD PTR _n_rshift_bit_count$[ebp]
	shr	edx, cl
	mov	DWORD PTR _work$3[ebp], edx
	mov	eax, 4
	imul	ecx, eax, 5
	mov	edx, DWORD PTR _pp$[ebp]
	mov	eax, DWORD PTR [edx+ecx]
	mov	DWORD PTR _temp$4[ebp], eax
	mov	edx, DWORD PTR _temp$4[ebp]
	mov	ecx, DWORD PTR _n_lshift_bit_count$5[ebp]
	shl	edx, cl
	or	edx, DWORD PTR _work$3[ebp]
	mov	DWORD PTR _work$3[ebp], edx
	mov	eax, 4
	imul	ecx, eax, 5
	mov	edx, DWORD PTR _op$[ebp]
	mov	eax, DWORD PTR _work$3[ebp]
	mov	DWORD PTR [edx+ecx], eax

; 130  :             work = temp >> n_rshift_bit_count; temp = pp[6]; work |= temp << n_lshift_bit_count; op[6] = work;

	mov	edx, DWORD PTR _temp$4[ebp]
	mov	ecx, DWORD PTR _n_rshift_bit_count$[ebp]
	shr	edx, cl
	mov	DWORD PTR _work$3[ebp], edx
	mov	eax, 4
	imul	ecx, eax, 6
	mov	edx, DWORD PTR _pp$[ebp]
	mov	eax, DWORD PTR [edx+ecx]
	mov	DWORD PTR _temp$4[ebp], eax
	mov	edx, DWORD PTR _temp$4[ebp]
	mov	ecx, DWORD PTR _n_lshift_bit_count$5[ebp]
	shl	edx, cl
	or	edx, DWORD PTR _work$3[ebp]
	mov	DWORD PTR _work$3[ebp], edx
	mov	eax, 4
	imul	ecx, eax, 6
	mov	edx, DWORD PTR _op$[ebp]
	mov	eax, DWORD PTR _work$3[ebp]
	mov	DWORD PTR [edx+ecx], eax

; 131  :             work = temp >> n_rshift_bit_count; temp = pp[7]; work |= temp << n_lshift_bit_count; op[7] = work;

	mov	edx, DWORD PTR _temp$4[ebp]
	mov	ecx, DWORD PTR _n_rshift_bit_count$[ebp]
	shr	edx, cl
	mov	DWORD PTR _work$3[ebp], edx
	mov	eax, 4
	imul	ecx, eax, 7
	mov	edx, DWORD PTR _pp$[ebp]
	mov	eax, DWORD PTR [edx+ecx]
	mov	DWORD PTR _temp$4[ebp], eax
	mov	edx, DWORD PTR _temp$4[ebp]
	mov	ecx, DWORD PTR _n_lshift_bit_count$5[ebp]
	shl	edx, cl
	or	edx, DWORD PTR _work$3[ebp]
	mov	DWORD PTR _work$3[ebp], edx
	mov	eax, 4
	imul	ecx, eax, 7
	mov	edx, DWORD PTR _op$[ebp]
	mov	eax, DWORD PTR _work$3[ebp]
	mov	DWORD PTR [edx+ecx], eax

; 132  :             pp += 8;

	mov	ecx, DWORD PTR _pp$[ebp]
	add	ecx, 32					; 00000020H
	mov	DWORD PTR _pp$[ebp], ecx

; 133  :             op += 8;

	mov	edx, DWORD PTR _op$[ebp]
	add	edx, 32					; 00000020H
	mov	DWORD PTR _op$[ebp], edx
$LN7@RightShift:

; 134  :         }
; 135  : 
; 136  :         if (t_count & 0x4)

	mov	eax, DWORD PTR _t_count$2[ebp]
	and	eax, 4
	je	$LN8@RightShift

; 137  :         {
; 138  :             work = temp >> n_rshift_bit_count; temp = pp[0]; work |= temp << n_lshift_bit_count; op[0] = work;

	mov	edx, DWORD PTR _temp$4[ebp]
	mov	ecx, DWORD PTR _n_rshift_bit_count$[ebp]
	shr	edx, cl
	mov	DWORD PTR _work$3[ebp], edx
	mov	eax, 4
	imul	ecx, eax, 0
	mov	edx, DWORD PTR _pp$[ebp]
	mov	eax, DWORD PTR [edx+ecx]
	mov	DWORD PTR _temp$4[ebp], eax
	mov	edx, DWORD PTR _temp$4[ebp]
	mov	ecx, DWORD PTR _n_lshift_bit_count$5[ebp]
	shl	edx, cl
	or	edx, DWORD PTR _work$3[ebp]
	mov	DWORD PTR _work$3[ebp], edx
	mov	eax, 4
	imul	ecx, eax, 0
	mov	edx, DWORD PTR _op$[ebp]
	mov	eax, DWORD PTR _work$3[ebp]
	mov	DWORD PTR [edx+ecx], eax

; 139  :             work = temp >> n_rshift_bit_count; temp = pp[1]; work |= temp << n_lshift_bit_count; op[1] = work;

	mov	edx, DWORD PTR _temp$4[ebp]
	mov	ecx, DWORD PTR _n_rshift_bit_count$[ebp]
	shr	edx, cl
	mov	DWORD PTR _work$3[ebp], edx
	mov	eax, 4
	shl	eax, 0
	mov	ecx, DWORD PTR _pp$[ebp]
	mov	edx, DWORD PTR [ecx+eax]
	mov	DWORD PTR _temp$4[ebp], edx
	mov	eax, DWORD PTR _temp$4[ebp]
	mov	ecx, DWORD PTR _n_lshift_bit_count$5[ebp]
	shl	eax, cl
	or	eax, DWORD PTR _work$3[ebp]
	mov	DWORD PTR _work$3[ebp], eax
	mov	ecx, 4
	shl	ecx, 0
	mov	edx, DWORD PTR _op$[ebp]
	mov	eax, DWORD PTR _work$3[ebp]
	mov	DWORD PTR [edx+ecx], eax

; 140  :             work = temp >> n_rshift_bit_count; temp = pp[2]; work |= temp << n_lshift_bit_count; op[2] = work;

	mov	edx, DWORD PTR _temp$4[ebp]
	mov	ecx, DWORD PTR _n_rshift_bit_count$[ebp]
	shr	edx, cl
	mov	DWORD PTR _work$3[ebp], edx
	mov	eax, 4
	shl	eax, 1
	mov	ecx, DWORD PTR _pp$[ebp]
	mov	edx, DWORD PTR [ecx+eax]
	mov	DWORD PTR _temp$4[ebp], edx
	mov	eax, DWORD PTR _temp$4[ebp]
	mov	ecx, DWORD PTR _n_lshift_bit_count$5[ebp]
	shl	eax, cl
	or	eax, DWORD PTR _work$3[ebp]
	mov	DWORD PTR _work$3[ebp], eax
	mov	ecx, 4
	shl	ecx, 1
	mov	edx, DWORD PTR _op$[ebp]
	mov	eax, DWORD PTR _work$3[ebp]
	mov	DWORD PTR [edx+ecx], eax

; 141  :             work = temp >> n_rshift_bit_count; temp = pp[3]; work |= temp << n_lshift_bit_count; op[3] = work;

	mov	edx, DWORD PTR _temp$4[ebp]
	mov	ecx, DWORD PTR _n_rshift_bit_count$[ebp]
	shr	edx, cl
	mov	DWORD PTR _work$3[ebp], edx
	mov	eax, 4
	imul	ecx, eax, 3
	mov	edx, DWORD PTR _pp$[ebp]
	mov	eax, DWORD PTR [edx+ecx]
	mov	DWORD PTR _temp$4[ebp], eax
	mov	edx, DWORD PTR _temp$4[ebp]
	mov	ecx, DWORD PTR _n_lshift_bit_count$5[ebp]
	shl	edx, cl
	or	edx, DWORD PTR _work$3[ebp]
	mov	DWORD PTR _work$3[ebp], edx
	mov	eax, 4
	imul	ecx, eax, 3
	mov	edx, DWORD PTR _op$[ebp]
	mov	eax, DWORD PTR _work$3[ebp]
	mov	DWORD PTR [edx+ecx], eax

; 142  :             pp += 4;

	mov	ecx, DWORD PTR _pp$[ebp]
	add	ecx, 16					; 00000010H
	mov	DWORD PTR _pp$[ebp], ecx

; 143  :             op += 4;

	mov	edx, DWORD PTR _op$[ebp]
	add	edx, 16					; 00000010H
	mov	DWORD PTR _op$[ebp], edx
$LN8@RightShift:

; 144  :         }
; 145  : 
; 146  :         if (t_count & 0x2)

	mov	eax, DWORD PTR _t_count$2[ebp]
	and	eax, 2
	je	$LN9@RightShift

; 147  :         {
; 148  :             work = temp >> n_rshift_bit_count; temp = pp[0]; work |= temp << n_lshift_bit_count; op[0] = work;

	mov	edx, DWORD PTR _temp$4[ebp]
	mov	ecx, DWORD PTR _n_rshift_bit_count$[ebp]
	shr	edx, cl
	mov	DWORD PTR _work$3[ebp], edx
	mov	eax, 4
	imul	ecx, eax, 0
	mov	edx, DWORD PTR _pp$[ebp]
	mov	eax, DWORD PTR [edx+ecx]
	mov	DWORD PTR _temp$4[ebp], eax
	mov	edx, DWORD PTR _temp$4[ebp]
	mov	ecx, DWORD PTR _n_lshift_bit_count$5[ebp]
	shl	edx, cl
	or	edx, DWORD PTR _work$3[ebp]
	mov	DWORD PTR _work$3[ebp], edx
	mov	eax, 4
	imul	ecx, eax, 0
	mov	edx, DWORD PTR _op$[ebp]
	mov	eax, DWORD PTR _work$3[ebp]
	mov	DWORD PTR [edx+ecx], eax

; 149  :             work = temp >> n_rshift_bit_count; temp = pp[1]; work |= temp << n_lshift_bit_count; op[1] = work;

	mov	edx, DWORD PTR _temp$4[ebp]
	mov	ecx, DWORD PTR _n_rshift_bit_count$[ebp]
	shr	edx, cl
	mov	DWORD PTR _work$3[ebp], edx
	mov	eax, 4
	shl	eax, 0
	mov	ecx, DWORD PTR _pp$[ebp]
	mov	edx, DWORD PTR [ecx+eax]
	mov	DWORD PTR _temp$4[ebp], edx
	mov	eax, DWORD PTR _temp$4[ebp]
	mov	ecx, DWORD PTR _n_lshift_bit_count$5[ebp]
	shl	eax, cl
	or	eax, DWORD PTR _work$3[ebp]
	mov	DWORD PTR _work$3[ebp], eax
	mov	ecx, 4
	shl	ecx, 0
	mov	edx, DWORD PTR _op$[ebp]
	mov	eax, DWORD PTR _work$3[ebp]
	mov	DWORD PTR [edx+ecx], eax

; 150  :             pp += 2;

	mov	ecx, DWORD PTR _pp$[ebp]
	add	ecx, 8
	mov	DWORD PTR _pp$[ebp], ecx

; 151  :             op += 2;

	mov	edx, DWORD PTR _op$[ebp]
	add	edx, 8
	mov	DWORD PTR _op$[ebp], edx
$LN9@RightShift:

; 152  :         }
; 153  : 
; 154  :         if (t_count & 0x1)

	mov	eax, DWORD PTR _t_count$2[ebp]
	and	eax, 1
	je	SHORT $LN10@RightShift

; 155  :         {
; 156  :             work = temp >> n_rshift_bit_count; temp = pp[0]; work |= temp << n_lshift_bit_count; op[0] = work;

	mov	edx, DWORD PTR _temp$4[ebp]
	mov	ecx, DWORD PTR _n_rshift_bit_count$[ebp]
	shr	edx, cl
	mov	DWORD PTR _work$3[ebp], edx
	mov	eax, 4
	imul	ecx, eax, 0
	mov	edx, DWORD PTR _pp$[ebp]
	mov	eax, DWORD PTR [edx+ecx]
	mov	DWORD PTR _temp$4[ebp], eax
	mov	edx, DWORD PTR _temp$4[ebp]
	mov	ecx, DWORD PTR _n_lshift_bit_count$5[ebp]
	shl	edx, cl
	or	edx, DWORD PTR _work$3[ebp]
	mov	DWORD PTR _work$3[ebp], edx
	mov	eax, 4
	imul	ecx, eax, 0
	mov	edx, DWORD PTR _op$[ebp]
	mov	eax, DWORD PTR _work$3[ebp]
	mov	DWORD PTR [edx+ecx], eax

; 157  :             pp += 1;

	mov	ecx, DWORD PTR _pp$[ebp]
	add	ecx, 4
	mov	DWORD PTR _pp$[ebp], ecx

; 158  :             op += 1;

	mov	edx, DWORD PTR _op$[ebp]
	add	edx, 4
	mov	DWORD PTR _op$[ebp], edx
$LN10@RightShift:

; 159  :         }
; 160  : 
; 161  :         work = temp >> n_rshift_bit_count;

	mov	eax, DWORD PTR _temp$4[ebp]
	mov	ecx, DWORD PTR _n_rshift_bit_count$[ebp]
	shr	eax, cl
	mov	DWORD PTR _work$3[ebp], eax

; 162  :         if (work != 0)

	cmp	DWORD PTR _work$3[ebp], 0
	je	SHORT $LN11@RightShift

; 163  :             *op = work;

	mov	ecx, DWORD PTR _op$[ebp]
	mov	edx, DWORD PTR _work$3[ebp]
	mov	DWORD PTR [ecx], edx
$LN11@RightShift:

; 164  : 
; 165  :         if (padding_zero)

	cmp	DWORD PTR _padding_zero$[ebp], 0
	je	SHORT $LN1@RightShift

; 166  :             _ZERO_MEMORY_UNIT(p + p_word_count - n_word_count, n_word_count);

	mov	eax, DWORD PTR _n_word_count$[ebp]
	push	eax
	mov	ecx, DWORD PTR _p_word_count$[ebp]
	mov	edx, DWORD PTR _p$[ebp]
	lea	eax, DWORD PTR [edx+ecx*4]
	mov	ecx, DWORD PTR _n_word_count$[ebp]
	shl	ecx, 2
	sub	eax, ecx
	push	eax
	call	__ZERO_MEMORY_UNIT
	add	esp, 8
$LN1@RightShift:

; 167  :     }
; 168  : }

	pop	edi
	add	esp, 40					; 00000028H
	cmp	ebp, esp
	call	__RTC_CheckEsp
	mov	esp, ebp
	pop	ebp
	ret	0
_RightShift_Imp ENDP
_TEXT	ENDS
; Function compile flags: /Odtp /RTCsu
; File z:\sources\lunor\repos\rougemeilland\palmtree.math.core.implements\palmtree.math.core.implements\pmc_internal.h
_TEXT	SEGMENT
_d$ = 8							; size = 4
_count$ = 12						; size = 4
__ZERO_MEMORY_UNIT_DIV PROC

; 338  : {

	push	ebp
	mov	ebp, esp
	push	edi
	mov	ecx, OFFSET __4522B509_pmc_internal@h
	call	@__CheckForDebuggerJustMyCode@4

; 339  : #ifdef _M_IX86
; 340  :     __stosd((unsigned long*)d, 0, (unsigned long)count);

	mov	edi, DWORD PTR _d$[ebp]
	xor	eax, eax
	mov	ecx, DWORD PTR _count$[ebp]
	rep stosd

; 341  : #elif defined(_M_X64)
; 342  : #ifdef _MSC_VER
; 343  :     __stosd((unsigned long*)d, 0, (unsigned long)count);
; 344  : #elif defined(__GNUC__)
; 345  :     __stosq(d, 0, count);
; 346  : #else
; 347  : #error unknown compiler
; 348  : #endif
; 349  : #else
; 350  : #error unknown platform
; 351  : #endif
; 352  : }

	pop	edi
	cmp	ebp, esp
	call	__RTC_CheckEsp
	pop	ebp
	ret	0
__ZERO_MEMORY_UNIT_DIV ENDP
_TEXT	ENDS
; Function compile flags: /Odtp /RTCsu
; File z:\sources\lunor\repos\rougemeilland\palmtree.math.core.implements\palmtree.math.core.implements\pmc_internal.h
_TEXT	SEGMENT
_d$ = 8							; size = 4
_count$ = 12						; size = 4
__ZERO_MEMORY_UNIT PROC

; 327  : {

	push	ebp
	mov	ebp, esp
	push	edi
	mov	ecx, OFFSET __4522B509_pmc_internal@h
	call	@__CheckForDebuggerJustMyCode@4

; 328  : #ifdef _M_IX86
; 329  :     __stosd((unsigned long*)d, 0, (unsigned long)count);

	mov	edi, DWORD PTR _d$[ebp]
	xor	eax, eax
	mov	ecx, DWORD PTR _count$[ebp]
	rep stosd

; 330  : #elif defined(_M_X64)
; 331  :     __stosq(d, 0, count);
; 332  : #else
; 333  : #error unknown platform
; 334  : #endif
; 335  : }

	pop	edi
	cmp	ebp, esp
	call	__RTC_CheckEsp
	pop	ebp
	ret	0
__ZERO_MEMORY_UNIT ENDP
_TEXT	ENDS
; Function compile flags: /Odtp /RTCsu
; File z:\sources\lunor\repos\rougemeilland\palmtree.math.core.implements\palmtree.math.core.implements\pmc_internal.h
_TEXT	SEGMENT
_d$ = 8							; size = 4
_s$ = 12						; size = 4
_count$ = 16						; size = 4
__COPY_MEMORY_UNIT_DIV PROC

; 288  : {

	push	ebp
	mov	ebp, esp
	push	esi
	push	edi
	mov	ecx, OFFSET __4522B509_pmc_internal@h
	call	@__CheckForDebuggerJustMyCode@4

; 289  : #ifdef _M_IX86
; 290  :     __movsd((unsigned long *)d, (unsigned long *)s, (unsigned long)count);

	mov	edi, DWORD PTR _d$[ebp]
	mov	esi, DWORD PTR _s$[ebp]
	mov	ecx, DWORD PTR _count$[ebp]
	rep movsd

; 291  : #elif defined(_M_X64)
; 292  : #ifdef _MSC_VER
; 293  :     __movsd((unsigned long *)d, (unsigned long *)s, (unsigned long)count);
; 294  : #elif defined(__GNUC__)
; 295  :     __movsq(d, s, count);
; 296  : #else
; 297  : #error unknown compiler
; 298  : #endif
; 299  : #else
; 300  : #error unknown platform
; 301  : #endif
; 302  : }

	pop	edi
	pop	esi
	cmp	ebp, esp
	call	__RTC_CheckEsp
	pop	ebp
	ret	0
__COPY_MEMORY_UNIT_DIV ENDP
_TEXT	ENDS
; Function compile flags: /Odtp /RTCsu
; File z:\sources\lunor\repos\rougemeilland\palmtree.math.core.implements\palmtree.math.core.implements\pmc_internal.h
_TEXT	SEGMENT
_d$ = 8							; size = 4
_s$ = 12						; size = 4
_count$ = 16						; size = 4
__COPY_MEMORY_UNIT PROC

; 277  : {

	push	ebp
	mov	ebp, esp
	push	esi
	push	edi
	mov	ecx, OFFSET __4522B509_pmc_internal@h
	call	@__CheckForDebuggerJustMyCode@4

; 278  : #ifdef _M_IX86
; 279  :     __movsd((unsigned long *)d, (unsigned long *)s, (unsigned long)count);

	mov	edi, DWORD PTR _d$[ebp]
	mov	esi, DWORD PTR _s$[ebp]
	mov	ecx, DWORD PTR _count$[ebp]
	rep movsd

; 280  : #elif defined(_M_X64)
; 281  :     __movsq(d, s, count);
; 282  : #else
; 283  : #error unknown platform
; 284  : #endif
; 285  : }

	pop	edi
	pop	esi
	cmp	ebp, esp
	call	__RTC_CheckEsp
	pop	ebp
	ret	0
__COPY_MEMORY_UNIT ENDP
_TEXT	ENDS
; Function compile flags: /Odtp /RTCsu
; File z:\sources\lunor\repos\rougemeilland\palmtree.math.core.implements\palmtree.math.core.implements\pmc_shift.c
_TEXT	SEGMENT
_no_light_check_code$1 = -36				; size = 4
_o_bit_count$2 = -28					; size = 4
_p_bit_count$3 = -24					; size = 4
_result$ = -20						; size = 4
_no$ = -12						; size = 4
_np$ = -4						; size = 4
_p$ = 8							; size = 4
_n$ = 12						; size = 8
_o$ = 20						; size = 4
_PMC_LeftShift_X_L@16 PROC

; 712  : {

	push	ebp
	mov	ebp, esp
	sub	esp, 40					; 00000028H
	push	edi
	lea	edi, DWORD PTR [ebp-40]
	mov	ecx, 10					; 0000000aH
	mov	eax, -858993460				; ccccccccH
	rep stosd
	mov	ecx, OFFSET __BE4F50ED_pmc_shift@c
	call	@__CheckForDebuggerJustMyCode@4

; 713  :     if (__UNIT_TYPE_BIT_COUNT < sizeof(n) * 8)

	mov	eax, 1
	test	eax, eax
	je	SHORT $LN2@PMC_LeftSh

; 714  :     {
; 715  :         // _UINT64_T が 1 ワードで表現しきれない処理系には対応しない
; 716  :         return (PMC_STATUS_NOT_SUPPORTED);

	mov	eax, -6					; fffffffaH
	jmp	$LN1@PMC_LeftSh
$LN2@PMC_LeftSh:

; 717  :     }
; 718  :     if (p == NULL)

	cmp	DWORD PTR _p$[ebp], 0
	jne	SHORT $LN3@PMC_LeftSh

; 719  :         return (PMC_STATUS_ARGUMENT_ERROR);

	or	eax, -1
	jmp	$LN1@PMC_LeftSh
$LN3@PMC_LeftSh:

; 720  :     if (o == NULL)

	cmp	DWORD PTR _o$[ebp], 0
	jne	SHORT $LN4@PMC_LeftSh

; 721  :         return (PMC_STATUS_ARGUMENT_ERROR);

	or	eax, -1
	jmp	$LN1@PMC_LeftSh
$LN4@PMC_LeftSh:

; 722  :     NUMBER_HEADER* np = (NUMBER_HEADER*)p;

	mov	ecx, DWORD PTR _p$[ebp]
	mov	DWORD PTR _np$[ebp], ecx

; 723  :     NUMBER_HEADER* no;
; 724  :     PMC_STATUS_CODE result;
; 725  :     if ((result = CheckNumber(np)) != PMC_STATUS_OK)

	mov	edx, DWORD PTR _np$[ebp]
	push	edx
	call	_CheckNumber
	add	esp, 4
	mov	DWORD PTR _result$[ebp], eax
	cmp	DWORD PTR _result$[ebp], 0
	je	SHORT $LN5@PMC_LeftSh

; 726  :         return (result);

	mov	eax, DWORD PTR _result$[ebp]
	jmp	$LN1@PMC_LeftSh
$LN5@PMC_LeftSh:

; 727  :     if (np->IS_ZERO)

	mov	eax, DWORD PTR _np$[ebp]
	mov	ecx, DWORD PTR [eax+16]
	shr	ecx, 1
	and	ecx, 1
	je	SHORT $LN6@PMC_LeftSh

; 728  :         *o = &number_zero;

	mov	edx, DWORD PTR _o$[ebp]
	mov	DWORD PTR [edx], OFFSET _number_zero
	jmp	$LN7@PMC_LeftSh
$LN6@PMC_LeftSh:

; 729  :     else if (n == 0)

	mov	eax, DWORD PTR _n$[ebp]
	or	eax, DWORD PTR _n$[ebp+4]
	jne	SHORT $LN8@PMC_LeftSh

; 730  :     {
; 731  :         if ((result = DuplicateNumber(np, &no)) != PMC_STATUS_OK)

	lea	ecx, DWORD PTR _no$[ebp]
	push	ecx
	mov	edx, DWORD PTR _np$[ebp]
	push	edx
	call	_DuplicateNumber
	add	esp, 8
	mov	DWORD PTR _result$[ebp], eax
	cmp	DWORD PTR _result$[ebp], 0
	je	SHORT $LN10@PMC_LeftSh

; 732  :             return (result);

	mov	eax, DWORD PTR _result$[ebp]
	jmp	$LN1@PMC_LeftSh
$LN10@PMC_LeftSh:

; 733  :         *o = no;

	mov	eax, DWORD PTR _o$[ebp]
	mov	ecx, DWORD PTR _no$[ebp]
	mov	DWORD PTR [eax], ecx

; 734  :     }

	jmp	$LN7@PMC_LeftSh
$LN8@PMC_LeftSh:

; 735  :     else
; 736  :     {
; 737  :         __UNIT_TYPE p_bit_count = np->UNIT_BIT_COUNT;

	mov	edx, DWORD PTR _np$[ebp]
	mov	eax, DWORD PTR [edx+4]
	mov	DWORD PTR _p_bit_count$3[ebp], eax

; 738  :         __UNIT_TYPE o_bit_count = p_bit_count + (__UNIT_TYPE)n;

	mov	ecx, DWORD PTR _n$[ebp]
	add	ecx, DWORD PTR _p_bit_count$3[ebp]
	mov	DWORD PTR _o_bit_count$2[ebp], ecx

; 739  :         __UNIT_TYPE no_light_check_code;
; 740  :         if ((result = AllocateNumber(&no, o_bit_count, &no_light_check_code)) != PMC_STATUS_OK)

	lea	edx, DWORD PTR _no_light_check_code$1[ebp]
	push	edx
	mov	eax, DWORD PTR _o_bit_count$2[ebp]
	push	eax
	lea	ecx, DWORD PTR _no$[ebp]
	push	ecx
	call	_AllocateNumber
	add	esp, 12					; 0000000cH
	mov	DWORD PTR _result$[ebp], eax
	cmp	DWORD PTR _result$[ebp], 0
	je	SHORT $LN11@PMC_LeftSh

; 741  :             return (result);

	mov	eax, DWORD PTR _result$[ebp]
	jmp	SHORT $LN1@PMC_LeftSh
$LN11@PMC_LeftSh:

; 742  :         LeftShift_Imp(np->BLOCK, np->UNIT_WORD_COUNT, (__UNIT_TYPE)n, no->BLOCK, FALSE);

	push	0
	mov	edx, DWORD PTR _no$[ebp]
	mov	eax, DWORD PTR [edx+24]
	push	eax
	mov	ecx, DWORD PTR _n$[ebp]
	push	ecx
	mov	edx, DWORD PTR _np$[ebp]
	mov	eax, DWORD PTR [edx]
	push	eax
	mov	ecx, DWORD PTR _np$[ebp]
	mov	edx, DWORD PTR [ecx+24]
	push	edx
	call	_LeftShift_Imp
	add	esp, 20					; 00000014H

; 743  :         if ((result = CheckBlockLight(no->BLOCK, no_light_check_code)) != PMC_STATUS_OK)

	mov	eax, DWORD PTR _no_light_check_code$1[ebp]
	push	eax
	mov	ecx, DWORD PTR _no$[ebp]
	mov	edx, DWORD PTR [ecx+24]
	push	edx
	call	_CheckBlockLight
	add	esp, 8
	mov	DWORD PTR _result$[ebp], eax
	cmp	DWORD PTR _result$[ebp], 0
	je	SHORT $LN12@PMC_LeftSh

; 744  :             return (result);

	mov	eax, DWORD PTR _result$[ebp]
	jmp	SHORT $LN1@PMC_LeftSh
$LN12@PMC_LeftSh:

; 745  :         CommitNumber(no);

	mov	eax, DWORD PTR _no$[ebp]
	push	eax
	call	_CommitNumber
	add	esp, 4

; 746  :         *o = no;

	mov	ecx, DWORD PTR _o$[ebp]
	mov	edx, DWORD PTR _no$[ebp]
	mov	DWORD PTR [ecx], edx
$LN7@PMC_LeftSh:

; 747  :     }
; 748  : #ifdef _DEBUG
; 749  :     if ((result = CheckNumber(*o)) != PMC_STATUS_OK)

	mov	eax, DWORD PTR _o$[ebp]
	mov	ecx, DWORD PTR [eax]
	push	ecx
	call	_CheckNumber
	add	esp, 4
	mov	DWORD PTR _result$[ebp], eax
	cmp	DWORD PTR _result$[ebp], 0
	je	SHORT $LN13@PMC_LeftSh

; 750  :         return (result);

	mov	eax, DWORD PTR _result$[ebp]
	jmp	SHORT $LN1@PMC_LeftSh
$LN13@PMC_LeftSh:

; 751  : #endif
; 752  :     return (PMC_STATUS_OK);

	xor	eax, eax
$LN1@PMC_LeftSh:

; 753  : }

	push	edx
	mov	ecx, ebp
	push	eax
	lea	edx, DWORD PTR $LN18@PMC_LeftSh
	call	@_RTC_CheckStackVars@8
	pop	eax
	pop	edx
	pop	edi
	add	esp, 40					; 00000028H
	cmp	ebp, esp
	call	__RTC_CheckEsp
	mov	esp, ebp
	pop	ebp
	ret	16					; 00000010H
	npad	2
$LN18@PMC_LeftSh:
	DD	2
	DD	$LN17@PMC_LeftSh
$LN17@PMC_LeftSh:
	DD	-12					; fffffff4H
	DD	4
	DD	$LN15@PMC_LeftSh
	DD	-36					; ffffffdcH
	DD	4
	DD	$LN16@PMC_LeftSh
$LN16@PMC_LeftSh:
	DB	110					; 0000006eH
	DB	111					; 0000006fH
	DB	95					; 0000005fH
	DB	108					; 0000006cH
	DB	105					; 00000069H
	DB	103					; 00000067H
	DB	104					; 00000068H
	DB	116					; 00000074H
	DB	95					; 0000005fH
	DB	99					; 00000063H
	DB	104					; 00000068H
	DB	101					; 00000065H
	DB	99					; 00000063H
	DB	107					; 0000006bH
	DB	95					; 0000005fH
	DB	99					; 00000063H
	DB	111					; 0000006fH
	DB	100					; 00000064H
	DB	101					; 00000065H
	DB	0
$LN15@PMC_LeftSh:
	DB	110					; 0000006eH
	DB	111					; 0000006fH
	DB	0
_PMC_LeftShift_X_L@16 ENDP
_TEXT	ENDS
; Function compile flags: /Odtp /RTCsu
; File z:\sources\lunor\repos\rougemeilland\palmtree.math.core.implements\palmtree.math.core.implements\pmc_shift.c
_TEXT	SEGMENT
_no_light_check_code$1 = -36				; size = 4
_o_bit_count$2 = -28					; size = 4
_p_bit_count$3 = -24					; size = 4
_result$ = -20						; size = 4
_no$ = -12						; size = 4
_np$ = -4						; size = 4
_p$ = 8							; size = 4
_n$ = 12						; size = 4
_o$ = 16						; size = 4
_PMC_LeftShift_X_I@12 PROC

; 668  : {

	push	ebp
	mov	ebp, esp
	sub	esp, 40					; 00000028H
	push	edi
	lea	edi, DWORD PTR [ebp-40]
	mov	ecx, 10					; 0000000aH
	mov	eax, -858993460				; ccccccccH
	rep stosd
	mov	ecx, OFFSET __BE4F50ED_pmc_shift@c
	call	@__CheckForDebuggerJustMyCode@4

; 669  :     if (__UNIT_TYPE_BIT_COUNT < sizeof(n) * 8)

	xor	eax, eax
	je	SHORT $LN2@PMC_LeftSh

; 670  :     {
; 671  :         // _UINT32_T が 1 ワードで表現しきれない処理系には対応しない
; 672  :         return (PMC_STATUS_NOT_SUPPORTED);

	mov	eax, -6					; fffffffaH
	jmp	$LN1@PMC_LeftSh
$LN2@PMC_LeftSh:

; 673  :     }
; 674  :     if (p == NULL)

	cmp	DWORD PTR _p$[ebp], 0
	jne	SHORT $LN3@PMC_LeftSh

; 675  :         return (PMC_STATUS_ARGUMENT_ERROR);

	or	eax, -1
	jmp	$LN1@PMC_LeftSh
$LN3@PMC_LeftSh:

; 676  :     if (o == NULL)

	cmp	DWORD PTR _o$[ebp], 0
	jne	SHORT $LN4@PMC_LeftSh

; 677  :         return (PMC_STATUS_ARGUMENT_ERROR);

	or	eax, -1
	jmp	$LN1@PMC_LeftSh
$LN4@PMC_LeftSh:

; 678  :     NUMBER_HEADER* np = (NUMBER_HEADER*)p;

	mov	ecx, DWORD PTR _p$[ebp]
	mov	DWORD PTR _np$[ebp], ecx

; 679  :     NUMBER_HEADER* no;
; 680  :     PMC_STATUS_CODE result;
; 681  :     if ((result = CheckNumber(np)) != PMC_STATUS_OK)

	mov	edx, DWORD PTR _np$[ebp]
	push	edx
	call	_CheckNumber
	add	esp, 4
	mov	DWORD PTR _result$[ebp], eax
	cmp	DWORD PTR _result$[ebp], 0
	je	SHORT $LN5@PMC_LeftSh

; 682  :         return (result);

	mov	eax, DWORD PTR _result$[ebp]
	jmp	$LN1@PMC_LeftSh
$LN5@PMC_LeftSh:

; 683  :     if (np->IS_ZERO)

	mov	eax, DWORD PTR _np$[ebp]
	mov	ecx, DWORD PTR [eax+16]
	shr	ecx, 1
	and	ecx, 1
	je	SHORT $LN6@PMC_LeftSh

; 684  :         *o = &number_zero;

	mov	edx, DWORD PTR _o$[ebp]
	mov	DWORD PTR [edx], OFFSET _number_zero
	jmp	$LN7@PMC_LeftSh
$LN6@PMC_LeftSh:

; 685  :     else if (n == 0)

	cmp	DWORD PTR _n$[ebp], 0
	jne	SHORT $LN8@PMC_LeftSh

; 686  :     {
; 687  :         if ((result = DuplicateNumber(np, &no)) != PMC_STATUS_OK)

	lea	eax, DWORD PTR _no$[ebp]
	push	eax
	mov	ecx, DWORD PTR _np$[ebp]
	push	ecx
	call	_DuplicateNumber
	add	esp, 8
	mov	DWORD PTR _result$[ebp], eax
	cmp	DWORD PTR _result$[ebp], 0
	je	SHORT $LN10@PMC_LeftSh

; 688  :             return (result);

	mov	eax, DWORD PTR _result$[ebp]
	jmp	$LN1@PMC_LeftSh
$LN10@PMC_LeftSh:

; 689  :         *o = no;

	mov	edx, DWORD PTR _o$[ebp]
	mov	eax, DWORD PTR _no$[ebp]
	mov	DWORD PTR [edx], eax

; 690  :     }

	jmp	$LN7@PMC_LeftSh
$LN8@PMC_LeftSh:

; 691  :     else
; 692  :     {
; 693  :         __UNIT_TYPE p_bit_count = np->UNIT_BIT_COUNT;

	mov	ecx, DWORD PTR _np$[ebp]
	mov	edx, DWORD PTR [ecx+4]
	mov	DWORD PTR _p_bit_count$3[ebp], edx

; 694  :         __UNIT_TYPE o_bit_count = p_bit_count + n;

	mov	eax, DWORD PTR _p_bit_count$3[ebp]
	add	eax, DWORD PTR _n$[ebp]
	mov	DWORD PTR _o_bit_count$2[ebp], eax

; 695  :         __UNIT_TYPE no_light_check_code;
; 696  :         if ((result = AllocateNumber(&no, o_bit_count, &no_light_check_code)) != PMC_STATUS_OK)

	lea	ecx, DWORD PTR _no_light_check_code$1[ebp]
	push	ecx
	mov	edx, DWORD PTR _o_bit_count$2[ebp]
	push	edx
	lea	eax, DWORD PTR _no$[ebp]
	push	eax
	call	_AllocateNumber
	add	esp, 12					; 0000000cH
	mov	DWORD PTR _result$[ebp], eax
	cmp	DWORD PTR _result$[ebp], 0
	je	SHORT $LN11@PMC_LeftSh

; 697  :             return (result);

	mov	eax, DWORD PTR _result$[ebp]
	jmp	SHORT $LN1@PMC_LeftSh
$LN11@PMC_LeftSh:

; 698  :         LeftShift_Imp(np->BLOCK, np->UNIT_WORD_COUNT, n, no->BLOCK, FALSE);

	push	0
	mov	ecx, DWORD PTR _no$[ebp]
	mov	edx, DWORD PTR [ecx+24]
	push	edx
	mov	eax, DWORD PTR _n$[ebp]
	push	eax
	mov	ecx, DWORD PTR _np$[ebp]
	mov	edx, DWORD PTR [ecx]
	push	edx
	mov	eax, DWORD PTR _np$[ebp]
	mov	ecx, DWORD PTR [eax+24]
	push	ecx
	call	_LeftShift_Imp
	add	esp, 20					; 00000014H

; 699  :         if ((result = CheckBlockLight(no->BLOCK, no_light_check_code)) != PMC_STATUS_OK)

	mov	edx, DWORD PTR _no_light_check_code$1[ebp]
	push	edx
	mov	eax, DWORD PTR _no$[ebp]
	mov	ecx, DWORD PTR [eax+24]
	push	ecx
	call	_CheckBlockLight
	add	esp, 8
	mov	DWORD PTR _result$[ebp], eax
	cmp	DWORD PTR _result$[ebp], 0
	je	SHORT $LN12@PMC_LeftSh

; 700  :             return (result);

	mov	eax, DWORD PTR _result$[ebp]
	jmp	SHORT $LN1@PMC_LeftSh
$LN12@PMC_LeftSh:

; 701  :         CommitNumber(no);

	mov	edx, DWORD PTR _no$[ebp]
	push	edx
	call	_CommitNumber
	add	esp, 4

; 702  :         *o = no;

	mov	eax, DWORD PTR _o$[ebp]
	mov	ecx, DWORD PTR _no$[ebp]
	mov	DWORD PTR [eax], ecx
$LN7@PMC_LeftSh:

; 703  :     }
; 704  : #ifdef _DEBUG
; 705  :     if ((result = CheckNumber(*o)) != PMC_STATUS_OK)

	mov	edx, DWORD PTR _o$[ebp]
	mov	eax, DWORD PTR [edx]
	push	eax
	call	_CheckNumber
	add	esp, 4
	mov	DWORD PTR _result$[ebp], eax
	cmp	DWORD PTR _result$[ebp], 0
	je	SHORT $LN13@PMC_LeftSh

; 706  :         return (result);

	mov	eax, DWORD PTR _result$[ebp]
	jmp	SHORT $LN1@PMC_LeftSh
$LN13@PMC_LeftSh:

; 707  : #endif
; 708  :     return (PMC_STATUS_OK);

	xor	eax, eax
$LN1@PMC_LeftSh:

; 709  : }

	push	edx
	mov	ecx, ebp
	push	eax
	lea	edx, DWORD PTR $LN18@PMC_LeftSh
	call	@_RTC_CheckStackVars@8
	pop	eax
	pop	edx
	pop	edi
	add	esp, 40					; 00000028H
	cmp	ebp, esp
	call	__RTC_CheckEsp
	mov	esp, ebp
	pop	ebp
	ret	12					; 0000000cH
	npad	1
$LN18@PMC_LeftSh:
	DD	2
	DD	$LN17@PMC_LeftSh
$LN17@PMC_LeftSh:
	DD	-12					; fffffff4H
	DD	4
	DD	$LN15@PMC_LeftSh
	DD	-36					; ffffffdcH
	DD	4
	DD	$LN16@PMC_LeftSh
$LN16@PMC_LeftSh:
	DB	110					; 0000006eH
	DB	111					; 0000006fH
	DB	95					; 0000005fH
	DB	108					; 0000006cH
	DB	105					; 00000069H
	DB	103					; 00000067H
	DB	104					; 00000068H
	DB	116					; 00000074H
	DB	95					; 0000005fH
	DB	99					; 00000063H
	DB	104					; 00000068H
	DB	101					; 00000065H
	DB	99					; 00000063H
	DB	107					; 0000006bH
	DB	95					; 0000005fH
	DB	99					; 00000063H
	DB	111					; 0000006fH
	DB	100					; 00000064H
	DB	101					; 00000065H
	DB	0
$LN15@PMC_LeftSh:
	DB	110					; 0000006eH
	DB	111					; 0000006fH
	DB	0
_PMC_LeftShift_X_I@12 ENDP
_TEXT	ENDS
; Function compile flags: /Odtp /RTCsu
; File z:\sources\lunor\repos\rougemeilland\palmtree.math.core.implements\palmtree.math.core.implements\pmc_shift.c
_TEXT	SEGMENT
tv164 = -48						; size = 8
_no_light_check_code$1 = -36				; size = 4
_o_bit_count$2 = -28					; size = 4
_p_bit_count$3 = -24					; size = 4
_result$ = -20						; size = 4
_no$ = -12						; size = 4
_np$ = -4						; size = 4
_p$ = 8							; size = 4
_n$ = 12						; size = 8
_o$ = 20						; size = 4
_PMC_RightShift_X_L@16 PROC

; 619  : {

	push	ebp
	mov	ebp, esp
	sub	esp, 48					; 00000030H
	push	edi
	lea	edi, DWORD PTR [ebp-48]
	mov	ecx, 12					; 0000000cH
	mov	eax, -858993460				; ccccccccH
	rep stosd
	mov	ecx, OFFSET __BE4F50ED_pmc_shift@c
	call	@__CheckForDebuggerJustMyCode@4

; 620  :     if (__UNIT_TYPE_BIT_COUNT < sizeof(n) * 8)

	mov	eax, 1
	test	eax, eax
	je	SHORT $LN2@PMC_RightS

; 621  :     {
; 622  :         // _UINT64_T が 1 ワードで表現しきれない処理系には対応しない
; 623  :         return (PMC_STATUS_NOT_SUPPORTED);

	mov	eax, -6					; fffffffaH
	jmp	$LN1@PMC_RightS
$LN2@PMC_RightS:

; 624  :     }
; 625  :     if (p == NULL)

	cmp	DWORD PTR _p$[ebp], 0
	jne	SHORT $LN3@PMC_RightS

; 626  :         return (PMC_STATUS_ARGUMENT_ERROR);

	or	eax, -1
	jmp	$LN1@PMC_RightS
$LN3@PMC_RightS:

; 627  :     if (o == NULL)

	cmp	DWORD PTR _o$[ebp], 0
	jne	SHORT $LN4@PMC_RightS

; 628  :         return (PMC_STATUS_ARGUMENT_ERROR);

	or	eax, -1
	jmp	$LN1@PMC_RightS
$LN4@PMC_RightS:

; 629  :     NUMBER_HEADER* np = (NUMBER_HEADER*)p;

	mov	ecx, DWORD PTR _p$[ebp]
	mov	DWORD PTR _np$[ebp], ecx

; 630  :     NUMBER_HEADER* no;
; 631  :     PMC_STATUS_CODE result;
; 632  :     if ((result = CheckNumber(np)) != PMC_STATUS_OK)

	mov	edx, DWORD PTR _np$[ebp]
	push	edx
	call	_CheckNumber
	add	esp, 4
	mov	DWORD PTR _result$[ebp], eax
	cmp	DWORD PTR _result$[ebp], 0
	je	SHORT $LN5@PMC_RightS

; 633  :         return (result);

	mov	eax, DWORD PTR _result$[ebp]
	jmp	$LN1@PMC_RightS
$LN5@PMC_RightS:

; 634  :     if (np->IS_ZERO)

	mov	eax, DWORD PTR _np$[ebp]
	mov	ecx, DWORD PTR [eax+16]
	shr	ecx, 1
	and	ecx, 1
	je	SHORT $LN6@PMC_RightS

; 635  :         *o = &number_zero;

	mov	edx, DWORD PTR _o$[ebp]
	mov	DWORD PTR [edx], OFFSET _number_zero
	jmp	$LN7@PMC_RightS
$LN6@PMC_RightS:

; 636  :     else if (n == 0)

	mov	eax, DWORD PTR _n$[ebp]
	or	eax, DWORD PTR _n$[ebp+4]
	jne	SHORT $LN8@PMC_RightS

; 637  :     {
; 638  :         if ((result = DuplicateNumber(np, &no)) != PMC_STATUS_OK)

	lea	ecx, DWORD PTR _no$[ebp]
	push	ecx
	mov	edx, DWORD PTR _np$[ebp]
	push	edx
	call	_DuplicateNumber
	add	esp, 8
	mov	DWORD PTR _result$[ebp], eax
	cmp	DWORD PTR _result$[ebp], 0
	je	SHORT $LN10@PMC_RightS

; 639  :             return (result);

	mov	eax, DWORD PTR _result$[ebp]
	jmp	$LN1@PMC_RightS
$LN10@PMC_RightS:

; 640  :         *o = no;

	mov	eax, DWORD PTR _o$[ebp]
	mov	ecx, DWORD PTR _no$[ebp]
	mov	DWORD PTR [eax], ecx

; 641  :     }

	jmp	$LN7@PMC_RightS
$LN8@PMC_RightS:

; 642  :     else
; 643  :     {
; 644  :         __UNIT_TYPE p_bit_count = np->UNIT_BIT_COUNT;

	mov	edx, DWORD PTR _np$[ebp]
	mov	eax, DWORD PTR [edx+4]
	mov	DWORD PTR _p_bit_count$3[ebp], eax

; 645  :         if (p_bit_count <= n)

	mov	ecx, DWORD PTR _p_bit_count$3[ebp]
	xor	edx, edx
	mov	DWORD PTR tv164[ebp], ecx
	mov	DWORD PTR tv164[ebp+4], edx
	mov	eax, DWORD PTR tv164[ebp+4]
	cmp	eax, DWORD PTR _n$[ebp+4]
	ja	SHORT $LN11@PMC_RightS
	jb	SHORT $LN17@PMC_RightS
	mov	ecx, DWORD PTR tv164[ebp]
	cmp	ecx, DWORD PTR _n$[ebp]
	ja	SHORT $LN11@PMC_RightS
$LN17@PMC_RightS:

; 646  :             *o = &number_zero;

	mov	edx, DWORD PTR _o$[ebp]
	mov	DWORD PTR [edx], OFFSET _number_zero
	jmp	$LN7@PMC_RightS
$LN11@PMC_RightS:

; 647  :         else
; 648  :         {
; 649  :             __UNIT_TYPE o_bit_count = p_bit_count - (__UNIT_TYPE)n;

	mov	eax, DWORD PTR _p_bit_count$3[ebp]
	sub	eax, DWORD PTR _n$[ebp]
	mov	DWORD PTR _o_bit_count$2[ebp], eax

; 650  :             __UNIT_TYPE no_light_check_code;
; 651  :             if ((result = AllocateNumber(&no, o_bit_count, &no_light_check_code)) != PMC_STATUS_OK)

	lea	ecx, DWORD PTR _no_light_check_code$1[ebp]
	push	ecx
	mov	edx, DWORD PTR _o_bit_count$2[ebp]
	push	edx
	lea	eax, DWORD PTR _no$[ebp]
	push	eax
	call	_AllocateNumber
	add	esp, 12					; 0000000cH
	mov	DWORD PTR _result$[ebp], eax
	cmp	DWORD PTR _result$[ebp], 0
	je	SHORT $LN13@PMC_RightS

; 652  :                 return (result);

	mov	eax, DWORD PTR _result$[ebp]
	jmp	SHORT $LN1@PMC_RightS
$LN13@PMC_RightS:

; 653  :             RightShift_Imp(np->BLOCK, np->UNIT_WORD_COUNT, (__UNIT_TYPE)n, no->BLOCK, FALSE);

	push	0
	mov	ecx, DWORD PTR _no$[ebp]
	mov	edx, DWORD PTR [ecx+24]
	push	edx
	mov	eax, DWORD PTR _n$[ebp]
	push	eax
	mov	ecx, DWORD PTR _np$[ebp]
	mov	edx, DWORD PTR [ecx]
	push	edx
	mov	eax, DWORD PTR _np$[ebp]
	mov	ecx, DWORD PTR [eax+24]
	push	ecx
	call	_RightShift_Imp
	add	esp, 20					; 00000014H

; 654  :             if ((result = CheckBlockLight(no->BLOCK, no_light_check_code)) != PMC_STATUS_OK)

	mov	edx, DWORD PTR _no_light_check_code$1[ebp]
	push	edx
	mov	eax, DWORD PTR _no$[ebp]
	mov	ecx, DWORD PTR [eax+24]
	push	ecx
	call	_CheckBlockLight
	add	esp, 8
	mov	DWORD PTR _result$[ebp], eax
	cmp	DWORD PTR _result$[ebp], 0
	je	SHORT $LN14@PMC_RightS

; 655  :                 return (result);

	mov	eax, DWORD PTR _result$[ebp]
	jmp	SHORT $LN1@PMC_RightS
$LN14@PMC_RightS:

; 656  :             CommitNumber(no);

	mov	edx, DWORD PTR _no$[ebp]
	push	edx
	call	_CommitNumber
	add	esp, 4

; 657  :             *o = no;

	mov	eax, DWORD PTR _o$[ebp]
	mov	ecx, DWORD PTR _no$[ebp]
	mov	DWORD PTR [eax], ecx
$LN7@PMC_RightS:

; 658  :         }
; 659  :     }
; 660  : #ifdef _DEBUG
; 661  :     if ((result = CheckNumber(*o)) != PMC_STATUS_OK)

	mov	edx, DWORD PTR _o$[ebp]
	mov	eax, DWORD PTR [edx]
	push	eax
	call	_CheckNumber
	add	esp, 4
	mov	DWORD PTR _result$[ebp], eax
	cmp	DWORD PTR _result$[ebp], 0
	je	SHORT $LN15@PMC_RightS

; 662  :         return (result);

	mov	eax, DWORD PTR _result$[ebp]
	jmp	SHORT $LN1@PMC_RightS
$LN15@PMC_RightS:

; 663  : #endif
; 664  :     return (PMC_STATUS_OK);

	xor	eax, eax
$LN1@PMC_RightS:

; 665  : }

	push	edx
	mov	ecx, ebp
	push	eax
	lea	edx, DWORD PTR $LN21@PMC_RightS
	call	@_RTC_CheckStackVars@8
	pop	eax
	pop	edx
	pop	edi
	add	esp, 48					; 00000030H
	cmp	ebp, esp
	call	__RTC_CheckEsp
	mov	esp, ebp
	pop	ebp
	ret	16					; 00000010H
	npad	3
$LN21@PMC_RightS:
	DD	2
	DD	$LN20@PMC_RightS
$LN20@PMC_RightS:
	DD	-12					; fffffff4H
	DD	4
	DD	$LN18@PMC_RightS
	DD	-36					; ffffffdcH
	DD	4
	DD	$LN19@PMC_RightS
$LN19@PMC_RightS:
	DB	110					; 0000006eH
	DB	111					; 0000006fH
	DB	95					; 0000005fH
	DB	108					; 0000006cH
	DB	105					; 00000069H
	DB	103					; 00000067H
	DB	104					; 00000068H
	DB	116					; 00000074H
	DB	95					; 0000005fH
	DB	99					; 00000063H
	DB	104					; 00000068H
	DB	101					; 00000065H
	DB	99					; 00000063H
	DB	107					; 0000006bH
	DB	95					; 0000005fH
	DB	99					; 00000063H
	DB	111					; 0000006fH
	DB	100					; 00000064H
	DB	101					; 00000065H
	DB	0
$LN18@PMC_RightS:
	DB	110					; 0000006eH
	DB	111					; 0000006fH
	DB	0
_PMC_RightShift_X_L@16 ENDP
_TEXT	ENDS
; Function compile flags: /Odtp /RTCsu
; File z:\sources\lunor\repos\rougemeilland\palmtree.math.core.implements\palmtree.math.core.implements\pmc_shift.c
_TEXT	SEGMENT
_no_light_check_code$1 = -36				; size = 4
_o_bit_count$2 = -28					; size = 4
_p_bit_count$3 = -24					; size = 4
_result$ = -20						; size = 4
_no$ = -12						; size = 4
_np$ = -4						; size = 4
_p$ = 8							; size = 4
_n$ = 12						; size = 4
_o$ = 16						; size = 4
_PMC_RightShift_X_I@12 PROC

; 570  : {

	push	ebp
	mov	ebp, esp
	sub	esp, 40					; 00000028H
	push	edi
	lea	edi, DWORD PTR [ebp-40]
	mov	ecx, 10					; 0000000aH
	mov	eax, -858993460				; ccccccccH
	rep stosd
	mov	ecx, OFFSET __BE4F50ED_pmc_shift@c
	call	@__CheckForDebuggerJustMyCode@4

; 571  :     if (__UNIT_TYPE_BIT_COUNT < sizeof(n) * 8)

	xor	eax, eax
	je	SHORT $LN2@PMC_RightS

; 572  :     {
; 573  :         // _UINT32_T が 1 ワードで表現しきれない処理系には対応しない
; 574  :         return (PMC_STATUS_NOT_SUPPORTED);

	mov	eax, -6					; fffffffaH
	jmp	$LN1@PMC_RightS
$LN2@PMC_RightS:

; 575  :     }
; 576  :     if (p == NULL)

	cmp	DWORD PTR _p$[ebp], 0
	jne	SHORT $LN3@PMC_RightS

; 577  :         return (PMC_STATUS_ARGUMENT_ERROR);

	or	eax, -1
	jmp	$LN1@PMC_RightS
$LN3@PMC_RightS:

; 578  :     if (o == NULL)

	cmp	DWORD PTR _o$[ebp], 0
	jne	SHORT $LN4@PMC_RightS

; 579  :         return (PMC_STATUS_ARGUMENT_ERROR);

	or	eax, -1
	jmp	$LN1@PMC_RightS
$LN4@PMC_RightS:

; 580  :     NUMBER_HEADER* np = (NUMBER_HEADER*)p;

	mov	ecx, DWORD PTR _p$[ebp]
	mov	DWORD PTR _np$[ebp], ecx

; 581  :     NUMBER_HEADER* no;
; 582  :     PMC_STATUS_CODE result;
; 583  :     if ((result = CheckNumber(np)) != PMC_STATUS_OK)

	mov	edx, DWORD PTR _np$[ebp]
	push	edx
	call	_CheckNumber
	add	esp, 4
	mov	DWORD PTR _result$[ebp], eax
	cmp	DWORD PTR _result$[ebp], 0
	je	SHORT $LN5@PMC_RightS

; 584  :         return (result);

	mov	eax, DWORD PTR _result$[ebp]
	jmp	$LN1@PMC_RightS
$LN5@PMC_RightS:

; 585  :     if (np->IS_ZERO)

	mov	eax, DWORD PTR _np$[ebp]
	mov	ecx, DWORD PTR [eax+16]
	shr	ecx, 1
	and	ecx, 1
	je	SHORT $LN6@PMC_RightS

; 586  :         *o = &number_zero;

	mov	edx, DWORD PTR _o$[ebp]
	mov	DWORD PTR [edx], OFFSET _number_zero
	jmp	$LN7@PMC_RightS
$LN6@PMC_RightS:

; 587  :     else if (n == 0)

	cmp	DWORD PTR _n$[ebp], 0
	jne	SHORT $LN8@PMC_RightS

; 588  :     {
; 589  :         if ((result = DuplicateNumber(np, &no)) != PMC_STATUS_OK)

	lea	eax, DWORD PTR _no$[ebp]
	push	eax
	mov	ecx, DWORD PTR _np$[ebp]
	push	ecx
	call	_DuplicateNumber
	add	esp, 8
	mov	DWORD PTR _result$[ebp], eax
	cmp	DWORD PTR _result$[ebp], 0
	je	SHORT $LN10@PMC_RightS

; 590  :             return (result);

	mov	eax, DWORD PTR _result$[ebp]
	jmp	$LN1@PMC_RightS
$LN10@PMC_RightS:

; 591  :         *o = no;

	mov	edx, DWORD PTR _o$[ebp]
	mov	eax, DWORD PTR _no$[ebp]
	mov	DWORD PTR [edx], eax

; 592  :     }

	jmp	$LN7@PMC_RightS
$LN8@PMC_RightS:

; 593  :     else
; 594  :     {
; 595  :         __UNIT_TYPE p_bit_count = np->UNIT_BIT_COUNT;

	mov	ecx, DWORD PTR _np$[ebp]
	mov	edx, DWORD PTR [ecx+4]
	mov	DWORD PTR _p_bit_count$3[ebp], edx

; 596  :         if (p_bit_count <= n)

	mov	eax, DWORD PTR _p_bit_count$3[ebp]
	cmp	eax, DWORD PTR _n$[ebp]
	ja	SHORT $LN11@PMC_RightS

; 597  :             *o = &number_zero;

	mov	ecx, DWORD PTR _o$[ebp]
	mov	DWORD PTR [ecx], OFFSET _number_zero
	jmp	$LN7@PMC_RightS
$LN11@PMC_RightS:

; 598  :         else
; 599  :         {
; 600  :             __UNIT_TYPE o_bit_count = p_bit_count - n;

	mov	edx, DWORD PTR _p_bit_count$3[ebp]
	sub	edx, DWORD PTR _n$[ebp]
	mov	DWORD PTR _o_bit_count$2[ebp], edx

; 601  :             __UNIT_TYPE no_light_check_code;
; 602  :             if ((result = AllocateNumber(&no, o_bit_count, &no_light_check_code)) != PMC_STATUS_OK)

	lea	eax, DWORD PTR _no_light_check_code$1[ebp]
	push	eax
	mov	ecx, DWORD PTR _o_bit_count$2[ebp]
	push	ecx
	lea	edx, DWORD PTR _no$[ebp]
	push	edx
	call	_AllocateNumber
	add	esp, 12					; 0000000cH
	mov	DWORD PTR _result$[ebp], eax
	cmp	DWORD PTR _result$[ebp], 0
	je	SHORT $LN13@PMC_RightS

; 603  :                 return (result);

	mov	eax, DWORD PTR _result$[ebp]
	jmp	SHORT $LN1@PMC_RightS
$LN13@PMC_RightS:

; 604  :             RightShift_Imp(np->BLOCK, np->UNIT_WORD_COUNT, n, no->BLOCK, FALSE);

	push	0
	mov	eax, DWORD PTR _no$[ebp]
	mov	ecx, DWORD PTR [eax+24]
	push	ecx
	mov	edx, DWORD PTR _n$[ebp]
	push	edx
	mov	eax, DWORD PTR _np$[ebp]
	mov	ecx, DWORD PTR [eax]
	push	ecx
	mov	edx, DWORD PTR _np$[ebp]
	mov	eax, DWORD PTR [edx+24]
	push	eax
	call	_RightShift_Imp
	add	esp, 20					; 00000014H

; 605  :             if ((result = CheckBlockLight(no->BLOCK, no_light_check_code)) != PMC_STATUS_OK)

	mov	ecx, DWORD PTR _no_light_check_code$1[ebp]
	push	ecx
	mov	edx, DWORD PTR _no$[ebp]
	mov	eax, DWORD PTR [edx+24]
	push	eax
	call	_CheckBlockLight
	add	esp, 8
	mov	DWORD PTR _result$[ebp], eax
	cmp	DWORD PTR _result$[ebp], 0
	je	SHORT $LN14@PMC_RightS

; 606  :                 return (result);

	mov	eax, DWORD PTR _result$[ebp]
	jmp	SHORT $LN1@PMC_RightS
$LN14@PMC_RightS:

; 607  :             CommitNumber(no);

	mov	ecx, DWORD PTR _no$[ebp]
	push	ecx
	call	_CommitNumber
	add	esp, 4

; 608  :             *o = no;

	mov	edx, DWORD PTR _o$[ebp]
	mov	eax, DWORD PTR _no$[ebp]
	mov	DWORD PTR [edx], eax
$LN7@PMC_RightS:

; 609  :         }
; 610  :     }
; 611  : #ifdef _DEBUG
; 612  :     if ((result = CheckNumber(*o)) != PMC_STATUS_OK)

	mov	ecx, DWORD PTR _o$[ebp]
	mov	edx, DWORD PTR [ecx]
	push	edx
	call	_CheckNumber
	add	esp, 4
	mov	DWORD PTR _result$[ebp], eax
	cmp	DWORD PTR _result$[ebp], 0
	je	SHORT $LN15@PMC_RightS

; 613  :         return (result);

	mov	eax, DWORD PTR _result$[ebp]
	jmp	SHORT $LN1@PMC_RightS
$LN15@PMC_RightS:

; 614  : #endif
; 615  :     return (PMC_STATUS_OK);

	xor	eax, eax
$LN1@PMC_RightS:

; 616  : }

	push	edx
	mov	ecx, ebp
	push	eax
	lea	edx, DWORD PTR $LN20@PMC_RightS
	call	@_RTC_CheckStackVars@8
	pop	eax
	pop	edx
	pop	edi
	add	esp, 40					; 00000028H
	cmp	ebp, esp
	call	__RTC_CheckEsp
	mov	esp, ebp
	pop	ebp
	ret	12					; 0000000cH
	npad	3
$LN20@PMC_RightS:
	DD	2
	DD	$LN19@PMC_RightS
$LN19@PMC_RightS:
	DD	-12					; fffffff4H
	DD	4
	DD	$LN17@PMC_RightS
	DD	-36					; ffffffdcH
	DD	4
	DD	$LN18@PMC_RightS
$LN18@PMC_RightS:
	DB	110					; 0000006eH
	DB	111					; 0000006fH
	DB	95					; 0000005fH
	DB	108					; 0000006cH
	DB	105					; 00000069H
	DB	103					; 00000067H
	DB	104					; 00000068H
	DB	116					; 00000074H
	DB	95					; 0000005fH
	DB	99					; 00000063H
	DB	104					; 00000068H
	DB	101					; 00000065H
	DB	99					; 00000063H
	DB	107					; 0000006bH
	DB	95					; 0000005fH
	DB	99					; 00000063H
	DB	111					; 0000006fH
	DB	100					; 00000064H
	DB	101					; 00000065H
	DB	0
$LN17@PMC_RightS:
	DB	110					; 0000006eH
	DB	111					; 0000006fH
	DB	0
_PMC_RightShift_X_I@12 ENDP
_TEXT	ENDS
; Function compile flags: /Odtp /RTCsu
; File z:\sources\lunor\repos\rougemeilland\palmtree.math.core.implements\palmtree.math.core.implements\pmc_shift.c
_TEXT	SEGMENT
_feature$ = 8						; size = 4
_Initialize_Shift PROC

; 756  : {

	push	ebp
	mov	ebp, esp
	mov	ecx, OFFSET __BE4F50ED_pmc_shift@c
	call	@__CheckForDebuggerJustMyCode@4

; 757  :     return (PMC_STATUS_OK);

	xor	eax, eax

; 758  : }

	cmp	ebp, esp
	call	__RTC_CheckEsp
	pop	ebp
	ret	0
_Initialize_Shift ENDP
_TEXT	ENDS
; Function compile flags: /Odtp /RTCsu
; File z:\sources\lunor\repos\rougemeilland\palmtree.math.core.implements\palmtree.math.core.implements\pmc_shift.c
_TEXT	SEGMENT
_count$1 = -36						; size = 4
_work$2 = -32						; size = 4
_temp$3 = -28						; size = 4
_n_rshift_bit_count$4 = -24				; size = 4
_n_lshift_bit_count$ = -20				; size = 4
_n_word_count$ = -16					; size = 4
_op$ = -12						; size = 4
_p_count$ = -8						; size = 4
_pp$ = -4						; size = 4
_p$ = 8							; size = 4
_p_word_count$ = 12					; size = 4
_n$ = 16						; size = 4
_o$ = 20						; size = 4
_padding_zero$ = 24					; size = 4
_LeftShift_Imp_DIV PROC

; 437  : {

	push	ebp
	mov	ebp, esp
	sub	esp, 36					; 00000024H
	mov	eax, -858993460				; ccccccccH
	mov	DWORD PTR [ebp-36], eax
	mov	DWORD PTR [ebp-32], eax
	mov	DWORD PTR [ebp-28], eax
	mov	DWORD PTR [ebp-24], eax
	mov	DWORD PTR [ebp-20], eax
	mov	DWORD PTR [ebp-16], eax
	mov	DWORD PTR [ebp-12], eax
	mov	DWORD PTR [ebp-8], eax
	mov	DWORD PTR [ebp-4], eax
	mov	ecx, OFFSET __BE4F50ED_pmc_shift@c
	call	@__CheckForDebuggerJustMyCode@4

; 438  :     __UNIT_TYPE_DIV* pp = p;

	mov	eax, DWORD PTR _p$[ebp]
	mov	DWORD PTR _pp$[ebp], eax

; 439  :     __UNIT_TYPE p_count = p_word_count;

	mov	ecx, DWORD PTR _p_word_count$[ebp]
	mov	DWORD PTR _p_count$[ebp], ecx

; 440  :     __UNIT_TYPE_DIV* op = o;

	mov	edx, DWORD PTR _o$[ebp]
	mov	DWORD PTR _op$[ebp], edx

; 441  :     __UNIT_TYPE n_word_count = n / __UNIT_TYPE_BIT_COUNT;

	mov	eax, DWORD PTR _n$[ebp]
	shr	eax, 5
	mov	DWORD PTR _n_word_count$[ebp], eax

; 442  :     __UNIT_TYPE n_lshift_bit_count = n % __UNIT_TYPE_BIT_COUNT;

	mov	eax, DWORD PTR _n$[ebp]
	xor	edx, edx
	mov	ecx, 32					; 00000020H
	div	ecx
	mov	DWORD PTR _n_lshift_bit_count$[ebp], edx

; 443  :     if (n_lshift_bit_count == 0)

	cmp	DWORD PTR _n_lshift_bit_count$[ebp], 0
	jne	SHORT $LN4@LeftShift_

; 444  :     {
; 445  :         // シフト数がちょうどワード境界分であれば単にワード単位のデータ移動のみ行う。
; 446  :         _COPY_MEMORY_UNIT_DIV(op + n_word_count, pp, p_count);

	mov	edx, DWORD PTR _p_count$[ebp]
	push	edx
	mov	eax, DWORD PTR _pp$[ebp]
	push	eax
	mov	ecx, DWORD PTR _n_word_count$[ebp]
	mov	edx, DWORD PTR _op$[ebp]
	lea	eax, DWORD PTR [edx+ecx*4]
	push	eax
	call	__COPY_MEMORY_UNIT_DIV
	add	esp, 12					; 0000000cH

; 447  :     }

	jmp	$LN1@LeftShift_
$LN4@LeftShift_:

; 448  :     else
; 449  :     {
; 450  :         __UNIT_TYPE n_rshift_bit_count = __UNIT_TYPE_BIT_COUNT - n_lshift_bit_count;

	mov	ecx, 32					; 00000020H
	sub	ecx, DWORD PTR _n_lshift_bit_count$[ebp]
	mov	DWORD PTR _n_rshift_bit_count$4[ebp], ecx

; 451  :         pp += p_count - 1;

	mov	edx, DWORD PTR _p_count$[ebp]
	mov	eax, DWORD PTR _pp$[ebp]
	lea	ecx, DWORD PTR [eax+edx*4-4]
	mov	DWORD PTR _pp$[ebp], ecx

; 452  :         op += p_count + n_word_count;

	mov	edx, DWORD PTR _p_count$[ebp]
	add	edx, DWORD PTR _n_word_count$[ebp]
	mov	eax, DWORD PTR _op$[ebp]
	lea	ecx, DWORD PTR [eax+edx*4]
	mov	DWORD PTR _op$[ebp], ecx

; 453  :         p_count -= 1;

	mov	edx, DWORD PTR _p_count$[ebp]
	sub	edx, 1
	mov	DWORD PTR _p_count$[ebp], edx

; 454  :         __UNIT_TYPE_DIV temp = *pp;

	mov	eax, DWORD PTR _pp$[ebp]
	mov	ecx, DWORD PTR [eax]
	mov	DWORD PTR _temp$3[ebp], ecx

; 455  :         __UNIT_TYPE_DIV work = temp >> n_rshift_bit_count;

	mov	edx, DWORD PTR _temp$3[ebp]
	mov	ecx, DWORD PTR _n_rshift_bit_count$4[ebp]
	shr	edx, cl
	mov	DWORD PTR _work$2[ebp], edx

; 456  :         if (work != 0)

	cmp	DWORD PTR _work$2[ebp], 0
	je	SHORT $LN6@LeftShift_

; 457  :             *op = work;

	mov	eax, DWORD PTR _op$[ebp]
	mov	ecx, DWORD PTR _work$2[ebp]
	mov	DWORD PTR [eax], ecx
$LN6@LeftShift_:

; 458  :         --pp;

	mov	edx, DWORD PTR _pp$[ebp]
	sub	edx, 4
	mov	DWORD PTR _pp$[ebp], edx

; 459  :         --op;

	mov	eax, DWORD PTR _op$[ebp]
	sub	eax, 4
	mov	DWORD PTR _op$[ebp], eax

; 460  : 
; 461  :         __UNIT_TYPE count = p_count >> 5;

	mov	ecx, DWORD PTR _p_count$[ebp]
	shr	ecx, 5
	mov	DWORD PTR _count$1[ebp], ecx
$LN2@LeftShift_:

; 462  :         while (count != 0)

	cmp	DWORD PTR _count$1[ebp], 0
	je	$LN3@LeftShift_

; 463  :         {
; 464  :             work = temp << n_lshift_bit_count; temp = pp[-0]; work |= temp >> n_rshift_bit_count; op[-0] = work;

	mov	edx, DWORD PTR _temp$3[ebp]
	mov	ecx, DWORD PTR _n_lshift_bit_count$[ebp]
	shl	edx, cl
	mov	DWORD PTR _work$2[ebp], edx
	mov	eax, 4
	imul	ecx, eax, 0
	mov	edx, DWORD PTR _pp$[ebp]
	mov	eax, DWORD PTR [edx+ecx]
	mov	DWORD PTR _temp$3[ebp], eax
	mov	edx, DWORD PTR _temp$3[ebp]
	mov	ecx, DWORD PTR _n_rshift_bit_count$4[ebp]
	shr	edx, cl
	or	edx, DWORD PTR _work$2[ebp]
	mov	DWORD PTR _work$2[ebp], edx
	mov	eax, 4
	imul	ecx, eax, 0
	mov	edx, DWORD PTR _op$[ebp]
	mov	eax, DWORD PTR _work$2[ebp]
	mov	DWORD PTR [edx+ecx], eax

; 465  :             work = temp << n_lshift_bit_count; temp = pp[-1]; work |= temp >> n_rshift_bit_count; op[-1] = work;

	mov	edx, DWORD PTR _temp$3[ebp]
	mov	ecx, DWORD PTR _n_lshift_bit_count$[ebp]
	shl	edx, cl
	mov	DWORD PTR _work$2[ebp], edx
	mov	eax, 4
	imul	ecx, eax, -1
	mov	edx, DWORD PTR _pp$[ebp]
	mov	eax, DWORD PTR [edx+ecx]
	mov	DWORD PTR _temp$3[ebp], eax
	mov	edx, DWORD PTR _temp$3[ebp]
	mov	ecx, DWORD PTR _n_rshift_bit_count$4[ebp]
	shr	edx, cl
	or	edx, DWORD PTR _work$2[ebp]
	mov	DWORD PTR _work$2[ebp], edx
	mov	eax, 4
	imul	ecx, eax, -1
	mov	edx, DWORD PTR _op$[ebp]
	mov	eax, DWORD PTR _work$2[ebp]
	mov	DWORD PTR [edx+ecx], eax

; 466  :             work = temp << n_lshift_bit_count; temp = pp[-2]; work |= temp >> n_rshift_bit_count; op[-2] = work;

	mov	edx, DWORD PTR _temp$3[ebp]
	mov	ecx, DWORD PTR _n_lshift_bit_count$[ebp]
	shl	edx, cl
	mov	DWORD PTR _work$2[ebp], edx
	mov	eax, 4
	imul	ecx, eax, -2
	mov	edx, DWORD PTR _pp$[ebp]
	mov	eax, DWORD PTR [edx+ecx]
	mov	DWORD PTR _temp$3[ebp], eax
	mov	edx, DWORD PTR _temp$3[ebp]
	mov	ecx, DWORD PTR _n_rshift_bit_count$4[ebp]
	shr	edx, cl
	or	edx, DWORD PTR _work$2[ebp]
	mov	DWORD PTR _work$2[ebp], edx
	mov	eax, 4
	imul	ecx, eax, -2
	mov	edx, DWORD PTR _op$[ebp]
	mov	eax, DWORD PTR _work$2[ebp]
	mov	DWORD PTR [edx+ecx], eax

; 467  :             work = temp << n_lshift_bit_count; temp = pp[-3]; work |= temp >> n_rshift_bit_count; op[-3] = work;

	mov	edx, DWORD PTR _temp$3[ebp]
	mov	ecx, DWORD PTR _n_lshift_bit_count$[ebp]
	shl	edx, cl
	mov	DWORD PTR _work$2[ebp], edx
	mov	eax, 4
	imul	ecx, eax, -3
	mov	edx, DWORD PTR _pp$[ebp]
	mov	eax, DWORD PTR [edx+ecx]
	mov	DWORD PTR _temp$3[ebp], eax
	mov	edx, DWORD PTR _temp$3[ebp]
	mov	ecx, DWORD PTR _n_rshift_bit_count$4[ebp]
	shr	edx, cl
	or	edx, DWORD PTR _work$2[ebp]
	mov	DWORD PTR _work$2[ebp], edx
	mov	eax, 4
	imul	ecx, eax, -3
	mov	edx, DWORD PTR _op$[ebp]
	mov	eax, DWORD PTR _work$2[ebp]
	mov	DWORD PTR [edx+ecx], eax

; 468  :             work = temp << n_lshift_bit_count; temp = pp[-4]; work |= temp >> n_rshift_bit_count; op[-4] = work;

	mov	edx, DWORD PTR _temp$3[ebp]
	mov	ecx, DWORD PTR _n_lshift_bit_count$[ebp]
	shl	edx, cl
	mov	DWORD PTR _work$2[ebp], edx
	mov	eax, 4
	imul	ecx, eax, -4
	mov	edx, DWORD PTR _pp$[ebp]
	mov	eax, DWORD PTR [edx+ecx]
	mov	DWORD PTR _temp$3[ebp], eax
	mov	edx, DWORD PTR _temp$3[ebp]
	mov	ecx, DWORD PTR _n_rshift_bit_count$4[ebp]
	shr	edx, cl
	or	edx, DWORD PTR _work$2[ebp]
	mov	DWORD PTR _work$2[ebp], edx
	mov	eax, 4
	imul	ecx, eax, -4
	mov	edx, DWORD PTR _op$[ebp]
	mov	eax, DWORD PTR _work$2[ebp]
	mov	DWORD PTR [edx+ecx], eax

; 469  :             work = temp << n_lshift_bit_count; temp = pp[-5]; work |= temp >> n_rshift_bit_count; op[-5] = work;

	mov	edx, DWORD PTR _temp$3[ebp]
	mov	ecx, DWORD PTR _n_lshift_bit_count$[ebp]
	shl	edx, cl
	mov	DWORD PTR _work$2[ebp], edx
	mov	eax, 4
	imul	ecx, eax, -5
	mov	edx, DWORD PTR _pp$[ebp]
	mov	eax, DWORD PTR [edx+ecx]
	mov	DWORD PTR _temp$3[ebp], eax
	mov	edx, DWORD PTR _temp$3[ebp]
	mov	ecx, DWORD PTR _n_rshift_bit_count$4[ebp]
	shr	edx, cl
	or	edx, DWORD PTR _work$2[ebp]
	mov	DWORD PTR _work$2[ebp], edx
	mov	eax, 4
	imul	ecx, eax, -5
	mov	edx, DWORD PTR _op$[ebp]
	mov	eax, DWORD PTR _work$2[ebp]
	mov	DWORD PTR [edx+ecx], eax

; 470  :             work = temp << n_lshift_bit_count; temp = pp[-6]; work |= temp >> n_rshift_bit_count; op[-6] = work;

	mov	edx, DWORD PTR _temp$3[ebp]
	mov	ecx, DWORD PTR _n_lshift_bit_count$[ebp]
	shl	edx, cl
	mov	DWORD PTR _work$2[ebp], edx
	mov	eax, 4
	imul	ecx, eax, -6
	mov	edx, DWORD PTR _pp$[ebp]
	mov	eax, DWORD PTR [edx+ecx]
	mov	DWORD PTR _temp$3[ebp], eax
	mov	edx, DWORD PTR _temp$3[ebp]
	mov	ecx, DWORD PTR _n_rshift_bit_count$4[ebp]
	shr	edx, cl
	or	edx, DWORD PTR _work$2[ebp]
	mov	DWORD PTR _work$2[ebp], edx
	mov	eax, 4
	imul	ecx, eax, -6
	mov	edx, DWORD PTR _op$[ebp]
	mov	eax, DWORD PTR _work$2[ebp]
	mov	DWORD PTR [edx+ecx], eax

; 471  :             work = temp << n_lshift_bit_count; temp = pp[-7]; work |= temp >> n_rshift_bit_count; op[-7] = work;

	mov	edx, DWORD PTR _temp$3[ebp]
	mov	ecx, DWORD PTR _n_lshift_bit_count$[ebp]
	shl	edx, cl
	mov	DWORD PTR _work$2[ebp], edx
	mov	eax, 4
	imul	ecx, eax, -7
	mov	edx, DWORD PTR _pp$[ebp]
	mov	eax, DWORD PTR [edx+ecx]
	mov	DWORD PTR _temp$3[ebp], eax
	mov	edx, DWORD PTR _temp$3[ebp]
	mov	ecx, DWORD PTR _n_rshift_bit_count$4[ebp]
	shr	edx, cl
	or	edx, DWORD PTR _work$2[ebp]
	mov	DWORD PTR _work$2[ebp], edx
	mov	eax, 4
	imul	ecx, eax, -7
	mov	edx, DWORD PTR _op$[ebp]
	mov	eax, DWORD PTR _work$2[ebp]
	mov	DWORD PTR [edx+ecx], eax

; 472  :             work = temp << n_lshift_bit_count; temp = pp[-8]; work |= temp >> n_rshift_bit_count; op[-8] = work;

	mov	edx, DWORD PTR _temp$3[ebp]
	mov	ecx, DWORD PTR _n_lshift_bit_count$[ebp]
	shl	edx, cl
	mov	DWORD PTR _work$2[ebp], edx
	mov	eax, 4
	imul	ecx, eax, -8
	mov	edx, DWORD PTR _pp$[ebp]
	mov	eax, DWORD PTR [edx+ecx]
	mov	DWORD PTR _temp$3[ebp], eax
	mov	edx, DWORD PTR _temp$3[ebp]
	mov	ecx, DWORD PTR _n_rshift_bit_count$4[ebp]
	shr	edx, cl
	or	edx, DWORD PTR _work$2[ebp]
	mov	DWORD PTR _work$2[ebp], edx
	mov	eax, 4
	imul	ecx, eax, -8
	mov	edx, DWORD PTR _op$[ebp]
	mov	eax, DWORD PTR _work$2[ebp]
	mov	DWORD PTR [edx+ecx], eax

; 473  :             work = temp << n_lshift_bit_count; temp = pp[-9]; work |= temp >> n_rshift_bit_count; op[-9] = work;

	mov	edx, DWORD PTR _temp$3[ebp]
	mov	ecx, DWORD PTR _n_lshift_bit_count$[ebp]
	shl	edx, cl
	mov	DWORD PTR _work$2[ebp], edx
	mov	eax, 4
	imul	ecx, eax, -9
	mov	edx, DWORD PTR _pp$[ebp]
	mov	eax, DWORD PTR [edx+ecx]
	mov	DWORD PTR _temp$3[ebp], eax
	mov	edx, DWORD PTR _temp$3[ebp]
	mov	ecx, DWORD PTR _n_rshift_bit_count$4[ebp]
	shr	edx, cl
	or	edx, DWORD PTR _work$2[ebp]
	mov	DWORD PTR _work$2[ebp], edx
	mov	eax, 4
	imul	ecx, eax, -9
	mov	edx, DWORD PTR _op$[ebp]
	mov	eax, DWORD PTR _work$2[ebp]
	mov	DWORD PTR [edx+ecx], eax

; 474  :             work = temp << n_lshift_bit_count; temp = pp[-10]; work |= temp >> n_rshift_bit_count; op[-10] = work;

	mov	edx, DWORD PTR _temp$3[ebp]
	mov	ecx, DWORD PTR _n_lshift_bit_count$[ebp]
	shl	edx, cl
	mov	DWORD PTR _work$2[ebp], edx
	mov	eax, 4
	imul	ecx, eax, -10
	mov	edx, DWORD PTR _pp$[ebp]
	mov	eax, DWORD PTR [edx+ecx]
	mov	DWORD PTR _temp$3[ebp], eax
	mov	edx, DWORD PTR _temp$3[ebp]
	mov	ecx, DWORD PTR _n_rshift_bit_count$4[ebp]
	shr	edx, cl
	or	edx, DWORD PTR _work$2[ebp]
	mov	DWORD PTR _work$2[ebp], edx
	mov	eax, 4
	imul	ecx, eax, -10
	mov	edx, DWORD PTR _op$[ebp]
	mov	eax, DWORD PTR _work$2[ebp]
	mov	DWORD PTR [edx+ecx], eax

; 475  :             work = temp << n_lshift_bit_count; temp = pp[-11]; work |= temp >> n_rshift_bit_count; op[-11] = work;

	mov	edx, DWORD PTR _temp$3[ebp]
	mov	ecx, DWORD PTR _n_lshift_bit_count$[ebp]
	shl	edx, cl
	mov	DWORD PTR _work$2[ebp], edx
	mov	eax, 4
	imul	ecx, eax, -11
	mov	edx, DWORD PTR _pp$[ebp]
	mov	eax, DWORD PTR [edx+ecx]
	mov	DWORD PTR _temp$3[ebp], eax
	mov	edx, DWORD PTR _temp$3[ebp]
	mov	ecx, DWORD PTR _n_rshift_bit_count$4[ebp]
	shr	edx, cl
	or	edx, DWORD PTR _work$2[ebp]
	mov	DWORD PTR _work$2[ebp], edx
	mov	eax, 4
	imul	ecx, eax, -11
	mov	edx, DWORD PTR _op$[ebp]
	mov	eax, DWORD PTR _work$2[ebp]
	mov	DWORD PTR [edx+ecx], eax

; 476  :             work = temp << n_lshift_bit_count; temp = pp[-12]; work |= temp >> n_rshift_bit_count; op[-12] = work;

	mov	edx, DWORD PTR _temp$3[ebp]
	mov	ecx, DWORD PTR _n_lshift_bit_count$[ebp]
	shl	edx, cl
	mov	DWORD PTR _work$2[ebp], edx
	mov	eax, 4
	imul	ecx, eax, -12
	mov	edx, DWORD PTR _pp$[ebp]
	mov	eax, DWORD PTR [edx+ecx]
	mov	DWORD PTR _temp$3[ebp], eax
	mov	edx, DWORD PTR _temp$3[ebp]
	mov	ecx, DWORD PTR _n_rshift_bit_count$4[ebp]
	shr	edx, cl
	or	edx, DWORD PTR _work$2[ebp]
	mov	DWORD PTR _work$2[ebp], edx
	mov	eax, 4
	imul	ecx, eax, -12
	mov	edx, DWORD PTR _op$[ebp]
	mov	eax, DWORD PTR _work$2[ebp]
	mov	DWORD PTR [edx+ecx], eax

; 477  :             work = temp << n_lshift_bit_count; temp = pp[-13]; work |= temp >> n_rshift_bit_count; op[-13] = work;

	mov	edx, DWORD PTR _temp$3[ebp]
	mov	ecx, DWORD PTR _n_lshift_bit_count$[ebp]
	shl	edx, cl
	mov	DWORD PTR _work$2[ebp], edx
	mov	eax, 4
	imul	ecx, eax, -13
	mov	edx, DWORD PTR _pp$[ebp]
	mov	eax, DWORD PTR [edx+ecx]
	mov	DWORD PTR _temp$3[ebp], eax
	mov	edx, DWORD PTR _temp$3[ebp]
	mov	ecx, DWORD PTR _n_rshift_bit_count$4[ebp]
	shr	edx, cl
	or	edx, DWORD PTR _work$2[ebp]
	mov	DWORD PTR _work$2[ebp], edx
	mov	eax, 4
	imul	ecx, eax, -13
	mov	edx, DWORD PTR _op$[ebp]
	mov	eax, DWORD PTR _work$2[ebp]
	mov	DWORD PTR [edx+ecx], eax

; 478  :             work = temp << n_lshift_bit_count; temp = pp[-14]; work |= temp >> n_rshift_bit_count; op[-14] = work;

	mov	edx, DWORD PTR _temp$3[ebp]
	mov	ecx, DWORD PTR _n_lshift_bit_count$[ebp]
	shl	edx, cl
	mov	DWORD PTR _work$2[ebp], edx
	mov	eax, 4
	imul	ecx, eax, -14
	mov	edx, DWORD PTR _pp$[ebp]
	mov	eax, DWORD PTR [edx+ecx]
	mov	DWORD PTR _temp$3[ebp], eax
	mov	edx, DWORD PTR _temp$3[ebp]
	mov	ecx, DWORD PTR _n_rshift_bit_count$4[ebp]
	shr	edx, cl
	or	edx, DWORD PTR _work$2[ebp]
	mov	DWORD PTR _work$2[ebp], edx
	mov	eax, 4
	imul	ecx, eax, -14
	mov	edx, DWORD PTR _op$[ebp]
	mov	eax, DWORD PTR _work$2[ebp]
	mov	DWORD PTR [edx+ecx], eax

; 479  :             work = temp << n_lshift_bit_count; temp = pp[-15]; work |= temp >> n_rshift_bit_count; op[-15] = work;

	mov	edx, DWORD PTR _temp$3[ebp]
	mov	ecx, DWORD PTR _n_lshift_bit_count$[ebp]
	shl	edx, cl
	mov	DWORD PTR _work$2[ebp], edx
	mov	eax, 4
	imul	ecx, eax, -15
	mov	edx, DWORD PTR _pp$[ebp]
	mov	eax, DWORD PTR [edx+ecx]
	mov	DWORD PTR _temp$3[ebp], eax
	mov	edx, DWORD PTR _temp$3[ebp]
	mov	ecx, DWORD PTR _n_rshift_bit_count$4[ebp]
	shr	edx, cl
	or	edx, DWORD PTR _work$2[ebp]
	mov	DWORD PTR _work$2[ebp], edx
	mov	eax, 4
	imul	ecx, eax, -15
	mov	edx, DWORD PTR _op$[ebp]
	mov	eax, DWORD PTR _work$2[ebp]
	mov	DWORD PTR [edx+ecx], eax

; 480  :             work = temp << n_lshift_bit_count; temp = pp[-16]; work |= temp >> n_rshift_bit_count; op[-16] = work;

	mov	edx, DWORD PTR _temp$3[ebp]
	mov	ecx, DWORD PTR _n_lshift_bit_count$[ebp]
	shl	edx, cl
	mov	DWORD PTR _work$2[ebp], edx
	mov	eax, 4
	imul	ecx, eax, -16
	mov	edx, DWORD PTR _pp$[ebp]
	mov	eax, DWORD PTR [edx+ecx]
	mov	DWORD PTR _temp$3[ebp], eax
	mov	edx, DWORD PTR _temp$3[ebp]
	mov	ecx, DWORD PTR _n_rshift_bit_count$4[ebp]
	shr	edx, cl
	or	edx, DWORD PTR _work$2[ebp]
	mov	DWORD PTR _work$2[ebp], edx
	mov	eax, 4
	imul	ecx, eax, -16
	mov	edx, DWORD PTR _op$[ebp]
	mov	eax, DWORD PTR _work$2[ebp]
	mov	DWORD PTR [edx+ecx], eax

; 481  :             work = temp << n_lshift_bit_count; temp = pp[-17]; work |= temp >> n_rshift_bit_count; op[-17] = work;

	mov	edx, DWORD PTR _temp$3[ebp]
	mov	ecx, DWORD PTR _n_lshift_bit_count$[ebp]
	shl	edx, cl
	mov	DWORD PTR _work$2[ebp], edx
	mov	eax, 4
	imul	ecx, eax, -17
	mov	edx, DWORD PTR _pp$[ebp]
	mov	eax, DWORD PTR [edx+ecx]
	mov	DWORD PTR _temp$3[ebp], eax
	mov	edx, DWORD PTR _temp$3[ebp]
	mov	ecx, DWORD PTR _n_rshift_bit_count$4[ebp]
	shr	edx, cl
	or	edx, DWORD PTR _work$2[ebp]
	mov	DWORD PTR _work$2[ebp], edx
	mov	eax, 4
	imul	ecx, eax, -17
	mov	edx, DWORD PTR _op$[ebp]
	mov	eax, DWORD PTR _work$2[ebp]
	mov	DWORD PTR [edx+ecx], eax

; 482  :             work = temp << n_lshift_bit_count; temp = pp[-18]; work |= temp >> n_rshift_bit_count; op[-18] = work;

	mov	edx, DWORD PTR _temp$3[ebp]
	mov	ecx, DWORD PTR _n_lshift_bit_count$[ebp]
	shl	edx, cl
	mov	DWORD PTR _work$2[ebp], edx
	mov	eax, 4
	imul	ecx, eax, -18
	mov	edx, DWORD PTR _pp$[ebp]
	mov	eax, DWORD PTR [edx+ecx]
	mov	DWORD PTR _temp$3[ebp], eax
	mov	edx, DWORD PTR _temp$3[ebp]
	mov	ecx, DWORD PTR _n_rshift_bit_count$4[ebp]
	shr	edx, cl
	or	edx, DWORD PTR _work$2[ebp]
	mov	DWORD PTR _work$2[ebp], edx
	mov	eax, 4
	imul	ecx, eax, -18
	mov	edx, DWORD PTR _op$[ebp]
	mov	eax, DWORD PTR _work$2[ebp]
	mov	DWORD PTR [edx+ecx], eax

; 483  :             work = temp << n_lshift_bit_count; temp = pp[-19]; work |= temp >> n_rshift_bit_count; op[-19] = work;

	mov	edx, DWORD PTR _temp$3[ebp]
	mov	ecx, DWORD PTR _n_lshift_bit_count$[ebp]
	shl	edx, cl
	mov	DWORD PTR _work$2[ebp], edx
	mov	eax, 4
	imul	ecx, eax, -19
	mov	edx, DWORD PTR _pp$[ebp]
	mov	eax, DWORD PTR [edx+ecx]
	mov	DWORD PTR _temp$3[ebp], eax
	mov	edx, DWORD PTR _temp$3[ebp]
	mov	ecx, DWORD PTR _n_rshift_bit_count$4[ebp]
	shr	edx, cl
	or	edx, DWORD PTR _work$2[ebp]
	mov	DWORD PTR _work$2[ebp], edx
	mov	eax, 4
	imul	ecx, eax, -19
	mov	edx, DWORD PTR _op$[ebp]
	mov	eax, DWORD PTR _work$2[ebp]
	mov	DWORD PTR [edx+ecx], eax

; 484  :             work = temp << n_lshift_bit_count; temp = pp[-20]; work |= temp >> n_rshift_bit_count; op[-20] = work;

	mov	edx, DWORD PTR _temp$3[ebp]
	mov	ecx, DWORD PTR _n_lshift_bit_count$[ebp]
	shl	edx, cl
	mov	DWORD PTR _work$2[ebp], edx
	mov	eax, 4
	imul	ecx, eax, -20
	mov	edx, DWORD PTR _pp$[ebp]
	mov	eax, DWORD PTR [edx+ecx]
	mov	DWORD PTR _temp$3[ebp], eax
	mov	edx, DWORD PTR _temp$3[ebp]
	mov	ecx, DWORD PTR _n_rshift_bit_count$4[ebp]
	shr	edx, cl
	or	edx, DWORD PTR _work$2[ebp]
	mov	DWORD PTR _work$2[ebp], edx
	mov	eax, 4
	imul	ecx, eax, -20
	mov	edx, DWORD PTR _op$[ebp]
	mov	eax, DWORD PTR _work$2[ebp]
	mov	DWORD PTR [edx+ecx], eax

; 485  :             work = temp << n_lshift_bit_count; temp = pp[-21]; work |= temp >> n_rshift_bit_count; op[-21] = work;

	mov	edx, DWORD PTR _temp$3[ebp]
	mov	ecx, DWORD PTR _n_lshift_bit_count$[ebp]
	shl	edx, cl
	mov	DWORD PTR _work$2[ebp], edx
	mov	eax, 4
	imul	ecx, eax, -21
	mov	edx, DWORD PTR _pp$[ebp]
	mov	eax, DWORD PTR [edx+ecx]
	mov	DWORD PTR _temp$3[ebp], eax
	mov	edx, DWORD PTR _temp$3[ebp]
	mov	ecx, DWORD PTR _n_rshift_bit_count$4[ebp]
	shr	edx, cl
	or	edx, DWORD PTR _work$2[ebp]
	mov	DWORD PTR _work$2[ebp], edx
	mov	eax, 4
	imul	ecx, eax, -21
	mov	edx, DWORD PTR _op$[ebp]
	mov	eax, DWORD PTR _work$2[ebp]
	mov	DWORD PTR [edx+ecx], eax

; 486  :             work = temp << n_lshift_bit_count; temp = pp[-22]; work |= temp >> n_rshift_bit_count; op[-22] = work;

	mov	edx, DWORD PTR _temp$3[ebp]
	mov	ecx, DWORD PTR _n_lshift_bit_count$[ebp]
	shl	edx, cl
	mov	DWORD PTR _work$2[ebp], edx
	mov	eax, 4
	imul	ecx, eax, -22
	mov	edx, DWORD PTR _pp$[ebp]
	mov	eax, DWORD PTR [edx+ecx]
	mov	DWORD PTR _temp$3[ebp], eax
	mov	edx, DWORD PTR _temp$3[ebp]
	mov	ecx, DWORD PTR _n_rshift_bit_count$4[ebp]
	shr	edx, cl
	or	edx, DWORD PTR _work$2[ebp]
	mov	DWORD PTR _work$2[ebp], edx
	mov	eax, 4
	imul	ecx, eax, -22
	mov	edx, DWORD PTR _op$[ebp]
	mov	eax, DWORD PTR _work$2[ebp]
	mov	DWORD PTR [edx+ecx], eax

; 487  :             work = temp << n_lshift_bit_count; temp = pp[-23]; work |= temp >> n_rshift_bit_count; op[-23] = work;

	mov	edx, DWORD PTR _temp$3[ebp]
	mov	ecx, DWORD PTR _n_lshift_bit_count$[ebp]
	shl	edx, cl
	mov	DWORD PTR _work$2[ebp], edx
	mov	eax, 4
	imul	ecx, eax, -23
	mov	edx, DWORD PTR _pp$[ebp]
	mov	eax, DWORD PTR [edx+ecx]
	mov	DWORD PTR _temp$3[ebp], eax
	mov	edx, DWORD PTR _temp$3[ebp]
	mov	ecx, DWORD PTR _n_rshift_bit_count$4[ebp]
	shr	edx, cl
	or	edx, DWORD PTR _work$2[ebp]
	mov	DWORD PTR _work$2[ebp], edx
	mov	eax, 4
	imul	ecx, eax, -23
	mov	edx, DWORD PTR _op$[ebp]
	mov	eax, DWORD PTR _work$2[ebp]
	mov	DWORD PTR [edx+ecx], eax

; 488  :             work = temp << n_lshift_bit_count; temp = pp[-24]; work |= temp >> n_rshift_bit_count; op[-24] = work;

	mov	edx, DWORD PTR _temp$3[ebp]
	mov	ecx, DWORD PTR _n_lshift_bit_count$[ebp]
	shl	edx, cl
	mov	DWORD PTR _work$2[ebp], edx
	mov	eax, 4
	imul	ecx, eax, -24
	mov	edx, DWORD PTR _pp$[ebp]
	mov	eax, DWORD PTR [edx+ecx]
	mov	DWORD PTR _temp$3[ebp], eax
	mov	edx, DWORD PTR _temp$3[ebp]
	mov	ecx, DWORD PTR _n_rshift_bit_count$4[ebp]
	shr	edx, cl
	or	edx, DWORD PTR _work$2[ebp]
	mov	DWORD PTR _work$2[ebp], edx
	mov	eax, 4
	imul	ecx, eax, -24
	mov	edx, DWORD PTR _op$[ebp]
	mov	eax, DWORD PTR _work$2[ebp]
	mov	DWORD PTR [edx+ecx], eax

; 489  :             work = temp << n_lshift_bit_count; temp = pp[-25]; work |= temp >> n_rshift_bit_count; op[-25] = work;

	mov	edx, DWORD PTR _temp$3[ebp]
	mov	ecx, DWORD PTR _n_lshift_bit_count$[ebp]
	shl	edx, cl
	mov	DWORD PTR _work$2[ebp], edx
	mov	eax, 4
	imul	ecx, eax, -25
	mov	edx, DWORD PTR _pp$[ebp]
	mov	eax, DWORD PTR [edx+ecx]
	mov	DWORD PTR _temp$3[ebp], eax
	mov	edx, DWORD PTR _temp$3[ebp]
	mov	ecx, DWORD PTR _n_rshift_bit_count$4[ebp]
	shr	edx, cl
	or	edx, DWORD PTR _work$2[ebp]
	mov	DWORD PTR _work$2[ebp], edx
	mov	eax, 4
	imul	ecx, eax, -25
	mov	edx, DWORD PTR _op$[ebp]
	mov	eax, DWORD PTR _work$2[ebp]
	mov	DWORD PTR [edx+ecx], eax

; 490  :             work = temp << n_lshift_bit_count; temp = pp[-26]; work |= temp >> n_rshift_bit_count; op[-26] = work;

	mov	edx, DWORD PTR _temp$3[ebp]
	mov	ecx, DWORD PTR _n_lshift_bit_count$[ebp]
	shl	edx, cl
	mov	DWORD PTR _work$2[ebp], edx
	mov	eax, 4
	imul	ecx, eax, -26
	mov	edx, DWORD PTR _pp$[ebp]
	mov	eax, DWORD PTR [edx+ecx]
	mov	DWORD PTR _temp$3[ebp], eax
	mov	edx, DWORD PTR _temp$3[ebp]
	mov	ecx, DWORD PTR _n_rshift_bit_count$4[ebp]
	shr	edx, cl
	or	edx, DWORD PTR _work$2[ebp]
	mov	DWORD PTR _work$2[ebp], edx
	mov	eax, 4
	imul	ecx, eax, -26
	mov	edx, DWORD PTR _op$[ebp]
	mov	eax, DWORD PTR _work$2[ebp]
	mov	DWORD PTR [edx+ecx], eax

; 491  :             work = temp << n_lshift_bit_count; temp = pp[-27]; work |= temp >> n_rshift_bit_count; op[-27] = work;

	mov	edx, DWORD PTR _temp$3[ebp]
	mov	ecx, DWORD PTR _n_lshift_bit_count$[ebp]
	shl	edx, cl
	mov	DWORD PTR _work$2[ebp], edx
	mov	eax, 4
	imul	ecx, eax, -27
	mov	edx, DWORD PTR _pp$[ebp]
	mov	eax, DWORD PTR [edx+ecx]
	mov	DWORD PTR _temp$3[ebp], eax
	mov	edx, DWORD PTR _temp$3[ebp]
	mov	ecx, DWORD PTR _n_rshift_bit_count$4[ebp]
	shr	edx, cl
	or	edx, DWORD PTR _work$2[ebp]
	mov	DWORD PTR _work$2[ebp], edx
	mov	eax, 4
	imul	ecx, eax, -27
	mov	edx, DWORD PTR _op$[ebp]
	mov	eax, DWORD PTR _work$2[ebp]
	mov	DWORD PTR [edx+ecx], eax

; 492  :             work = temp << n_lshift_bit_count; temp = pp[-28]; work |= temp >> n_rshift_bit_count; op[-28] = work;

	mov	edx, DWORD PTR _temp$3[ebp]
	mov	ecx, DWORD PTR _n_lshift_bit_count$[ebp]
	shl	edx, cl
	mov	DWORD PTR _work$2[ebp], edx
	mov	eax, 4
	imul	ecx, eax, -28
	mov	edx, DWORD PTR _pp$[ebp]
	mov	eax, DWORD PTR [edx+ecx]
	mov	DWORD PTR _temp$3[ebp], eax
	mov	edx, DWORD PTR _temp$3[ebp]
	mov	ecx, DWORD PTR _n_rshift_bit_count$4[ebp]
	shr	edx, cl
	or	edx, DWORD PTR _work$2[ebp]
	mov	DWORD PTR _work$2[ebp], edx
	mov	eax, 4
	imul	ecx, eax, -28
	mov	edx, DWORD PTR _op$[ebp]
	mov	eax, DWORD PTR _work$2[ebp]
	mov	DWORD PTR [edx+ecx], eax

; 493  :             work = temp << n_lshift_bit_count; temp = pp[-29]; work |= temp >> n_rshift_bit_count; op[-29] = work;

	mov	edx, DWORD PTR _temp$3[ebp]
	mov	ecx, DWORD PTR _n_lshift_bit_count$[ebp]
	shl	edx, cl
	mov	DWORD PTR _work$2[ebp], edx
	mov	eax, 4
	imul	ecx, eax, -29
	mov	edx, DWORD PTR _pp$[ebp]
	mov	eax, DWORD PTR [edx+ecx]
	mov	DWORD PTR _temp$3[ebp], eax
	mov	edx, DWORD PTR _temp$3[ebp]
	mov	ecx, DWORD PTR _n_rshift_bit_count$4[ebp]
	shr	edx, cl
	or	edx, DWORD PTR _work$2[ebp]
	mov	DWORD PTR _work$2[ebp], edx
	mov	eax, 4
	imul	ecx, eax, -29
	mov	edx, DWORD PTR _op$[ebp]
	mov	eax, DWORD PTR _work$2[ebp]
	mov	DWORD PTR [edx+ecx], eax

; 494  :             work = temp << n_lshift_bit_count; temp = pp[-30]; work |= temp >> n_rshift_bit_count; op[-30] = work;

	mov	edx, DWORD PTR _temp$3[ebp]
	mov	ecx, DWORD PTR _n_lshift_bit_count$[ebp]
	shl	edx, cl
	mov	DWORD PTR _work$2[ebp], edx
	mov	eax, 4
	imul	ecx, eax, -30
	mov	edx, DWORD PTR _pp$[ebp]
	mov	eax, DWORD PTR [edx+ecx]
	mov	DWORD PTR _temp$3[ebp], eax
	mov	edx, DWORD PTR _temp$3[ebp]
	mov	ecx, DWORD PTR _n_rshift_bit_count$4[ebp]
	shr	edx, cl
	or	edx, DWORD PTR _work$2[ebp]
	mov	DWORD PTR _work$2[ebp], edx
	mov	eax, 4
	imul	ecx, eax, -30
	mov	edx, DWORD PTR _op$[ebp]
	mov	eax, DWORD PTR _work$2[ebp]
	mov	DWORD PTR [edx+ecx], eax

; 495  :             work = temp << n_lshift_bit_count; temp = pp[-31]; work |= temp >> n_rshift_bit_count; op[-31] = work;

	mov	edx, DWORD PTR _temp$3[ebp]
	mov	ecx, DWORD PTR _n_lshift_bit_count$[ebp]
	shl	edx, cl
	mov	DWORD PTR _work$2[ebp], edx
	mov	eax, 4
	imul	ecx, eax, -31
	mov	edx, DWORD PTR _pp$[ebp]
	mov	eax, DWORD PTR [edx+ecx]
	mov	DWORD PTR _temp$3[ebp], eax
	mov	edx, DWORD PTR _temp$3[ebp]
	mov	ecx, DWORD PTR _n_rshift_bit_count$4[ebp]
	shr	edx, cl
	or	edx, DWORD PTR _work$2[ebp]
	mov	DWORD PTR _work$2[ebp], edx
	mov	eax, 4
	imul	ecx, eax, -31
	mov	edx, DWORD PTR _op$[ebp]
	mov	eax, DWORD PTR _work$2[ebp]
	mov	DWORD PTR [edx+ecx], eax

; 496  :             pp -= 32;

	mov	ecx, DWORD PTR _pp$[ebp]
	sub	ecx, 128				; 00000080H
	mov	DWORD PTR _pp$[ebp], ecx

; 497  :             op -= 32;

	mov	edx, DWORD PTR _op$[ebp]
	sub	edx, 128				; 00000080H
	mov	DWORD PTR _op$[ebp], edx

; 498  :             --count;

	mov	eax, DWORD PTR _count$1[ebp]
	sub	eax, 1
	mov	DWORD PTR _count$1[ebp], eax

; 499  :         }

	jmp	$LN2@LeftShift_
$LN3@LeftShift_:

; 500  : 
; 501  :         if (p_count & 0x10)

	mov	ecx, DWORD PTR _p_count$[ebp]
	and	ecx, 16					; 00000010H
	je	$LN7@LeftShift_

; 502  :         {
; 503  :             work = temp << n_lshift_bit_count; temp = pp[-0]; work |= temp >> n_rshift_bit_count; op[-0] = work;

	mov	edx, DWORD PTR _temp$3[ebp]
	mov	ecx, DWORD PTR _n_lshift_bit_count$[ebp]
	shl	edx, cl
	mov	DWORD PTR _work$2[ebp], edx
	mov	eax, 4
	imul	ecx, eax, 0
	mov	edx, DWORD PTR _pp$[ebp]
	mov	eax, DWORD PTR [edx+ecx]
	mov	DWORD PTR _temp$3[ebp], eax
	mov	edx, DWORD PTR _temp$3[ebp]
	mov	ecx, DWORD PTR _n_rshift_bit_count$4[ebp]
	shr	edx, cl
	or	edx, DWORD PTR _work$2[ebp]
	mov	DWORD PTR _work$2[ebp], edx
	mov	eax, 4
	imul	ecx, eax, 0
	mov	edx, DWORD PTR _op$[ebp]
	mov	eax, DWORD PTR _work$2[ebp]
	mov	DWORD PTR [edx+ecx], eax

; 504  :             work = temp << n_lshift_bit_count; temp = pp[-1]; work |= temp >> n_rshift_bit_count; op[-1] = work;

	mov	edx, DWORD PTR _temp$3[ebp]
	mov	ecx, DWORD PTR _n_lshift_bit_count$[ebp]
	shl	edx, cl
	mov	DWORD PTR _work$2[ebp], edx
	mov	eax, 4
	imul	ecx, eax, -1
	mov	edx, DWORD PTR _pp$[ebp]
	mov	eax, DWORD PTR [edx+ecx]
	mov	DWORD PTR _temp$3[ebp], eax
	mov	edx, DWORD PTR _temp$3[ebp]
	mov	ecx, DWORD PTR _n_rshift_bit_count$4[ebp]
	shr	edx, cl
	or	edx, DWORD PTR _work$2[ebp]
	mov	DWORD PTR _work$2[ebp], edx
	mov	eax, 4
	imul	ecx, eax, -1
	mov	edx, DWORD PTR _op$[ebp]
	mov	eax, DWORD PTR _work$2[ebp]
	mov	DWORD PTR [edx+ecx], eax

; 505  :             work = temp << n_lshift_bit_count; temp = pp[-2]; work |= temp >> n_rshift_bit_count; op[-2] = work;

	mov	edx, DWORD PTR _temp$3[ebp]
	mov	ecx, DWORD PTR _n_lshift_bit_count$[ebp]
	shl	edx, cl
	mov	DWORD PTR _work$2[ebp], edx
	mov	eax, 4
	imul	ecx, eax, -2
	mov	edx, DWORD PTR _pp$[ebp]
	mov	eax, DWORD PTR [edx+ecx]
	mov	DWORD PTR _temp$3[ebp], eax
	mov	edx, DWORD PTR _temp$3[ebp]
	mov	ecx, DWORD PTR _n_rshift_bit_count$4[ebp]
	shr	edx, cl
	or	edx, DWORD PTR _work$2[ebp]
	mov	DWORD PTR _work$2[ebp], edx
	mov	eax, 4
	imul	ecx, eax, -2
	mov	edx, DWORD PTR _op$[ebp]
	mov	eax, DWORD PTR _work$2[ebp]
	mov	DWORD PTR [edx+ecx], eax

; 506  :             work = temp << n_lshift_bit_count; temp = pp[-3]; work |= temp >> n_rshift_bit_count; op[-3] = work;

	mov	edx, DWORD PTR _temp$3[ebp]
	mov	ecx, DWORD PTR _n_lshift_bit_count$[ebp]
	shl	edx, cl
	mov	DWORD PTR _work$2[ebp], edx
	mov	eax, 4
	imul	ecx, eax, -3
	mov	edx, DWORD PTR _pp$[ebp]
	mov	eax, DWORD PTR [edx+ecx]
	mov	DWORD PTR _temp$3[ebp], eax
	mov	edx, DWORD PTR _temp$3[ebp]
	mov	ecx, DWORD PTR _n_rshift_bit_count$4[ebp]
	shr	edx, cl
	or	edx, DWORD PTR _work$2[ebp]
	mov	DWORD PTR _work$2[ebp], edx
	mov	eax, 4
	imul	ecx, eax, -3
	mov	edx, DWORD PTR _op$[ebp]
	mov	eax, DWORD PTR _work$2[ebp]
	mov	DWORD PTR [edx+ecx], eax

; 507  :             work = temp << n_lshift_bit_count; temp = pp[-4]; work |= temp >> n_rshift_bit_count; op[-4] = work;

	mov	edx, DWORD PTR _temp$3[ebp]
	mov	ecx, DWORD PTR _n_lshift_bit_count$[ebp]
	shl	edx, cl
	mov	DWORD PTR _work$2[ebp], edx
	mov	eax, 4
	imul	ecx, eax, -4
	mov	edx, DWORD PTR _pp$[ebp]
	mov	eax, DWORD PTR [edx+ecx]
	mov	DWORD PTR _temp$3[ebp], eax
	mov	edx, DWORD PTR _temp$3[ebp]
	mov	ecx, DWORD PTR _n_rshift_bit_count$4[ebp]
	shr	edx, cl
	or	edx, DWORD PTR _work$2[ebp]
	mov	DWORD PTR _work$2[ebp], edx
	mov	eax, 4
	imul	ecx, eax, -4
	mov	edx, DWORD PTR _op$[ebp]
	mov	eax, DWORD PTR _work$2[ebp]
	mov	DWORD PTR [edx+ecx], eax

; 508  :             work = temp << n_lshift_bit_count; temp = pp[-5]; work |= temp >> n_rshift_bit_count; op[-5] = work;

	mov	edx, DWORD PTR _temp$3[ebp]
	mov	ecx, DWORD PTR _n_lshift_bit_count$[ebp]
	shl	edx, cl
	mov	DWORD PTR _work$2[ebp], edx
	mov	eax, 4
	imul	ecx, eax, -5
	mov	edx, DWORD PTR _pp$[ebp]
	mov	eax, DWORD PTR [edx+ecx]
	mov	DWORD PTR _temp$3[ebp], eax
	mov	edx, DWORD PTR _temp$3[ebp]
	mov	ecx, DWORD PTR _n_rshift_bit_count$4[ebp]
	shr	edx, cl
	or	edx, DWORD PTR _work$2[ebp]
	mov	DWORD PTR _work$2[ebp], edx
	mov	eax, 4
	imul	ecx, eax, -5
	mov	edx, DWORD PTR _op$[ebp]
	mov	eax, DWORD PTR _work$2[ebp]
	mov	DWORD PTR [edx+ecx], eax

; 509  :             work = temp << n_lshift_bit_count; temp = pp[-6]; work |= temp >> n_rshift_bit_count; op[-6] = work;

	mov	edx, DWORD PTR _temp$3[ebp]
	mov	ecx, DWORD PTR _n_lshift_bit_count$[ebp]
	shl	edx, cl
	mov	DWORD PTR _work$2[ebp], edx
	mov	eax, 4
	imul	ecx, eax, -6
	mov	edx, DWORD PTR _pp$[ebp]
	mov	eax, DWORD PTR [edx+ecx]
	mov	DWORD PTR _temp$3[ebp], eax
	mov	edx, DWORD PTR _temp$3[ebp]
	mov	ecx, DWORD PTR _n_rshift_bit_count$4[ebp]
	shr	edx, cl
	or	edx, DWORD PTR _work$2[ebp]
	mov	DWORD PTR _work$2[ebp], edx
	mov	eax, 4
	imul	ecx, eax, -6
	mov	edx, DWORD PTR _op$[ebp]
	mov	eax, DWORD PTR _work$2[ebp]
	mov	DWORD PTR [edx+ecx], eax

; 510  :             work = temp << n_lshift_bit_count; temp = pp[-7]; work |= temp >> n_rshift_bit_count; op[-7] = work;

	mov	edx, DWORD PTR _temp$3[ebp]
	mov	ecx, DWORD PTR _n_lshift_bit_count$[ebp]
	shl	edx, cl
	mov	DWORD PTR _work$2[ebp], edx
	mov	eax, 4
	imul	ecx, eax, -7
	mov	edx, DWORD PTR _pp$[ebp]
	mov	eax, DWORD PTR [edx+ecx]
	mov	DWORD PTR _temp$3[ebp], eax
	mov	edx, DWORD PTR _temp$3[ebp]
	mov	ecx, DWORD PTR _n_rshift_bit_count$4[ebp]
	shr	edx, cl
	or	edx, DWORD PTR _work$2[ebp]
	mov	DWORD PTR _work$2[ebp], edx
	mov	eax, 4
	imul	ecx, eax, -7
	mov	edx, DWORD PTR _op$[ebp]
	mov	eax, DWORD PTR _work$2[ebp]
	mov	DWORD PTR [edx+ecx], eax

; 511  :             work = temp << n_lshift_bit_count; temp = pp[-8]; work |= temp >> n_rshift_bit_count; op[-8] = work;

	mov	edx, DWORD PTR _temp$3[ebp]
	mov	ecx, DWORD PTR _n_lshift_bit_count$[ebp]
	shl	edx, cl
	mov	DWORD PTR _work$2[ebp], edx
	mov	eax, 4
	imul	ecx, eax, -8
	mov	edx, DWORD PTR _pp$[ebp]
	mov	eax, DWORD PTR [edx+ecx]
	mov	DWORD PTR _temp$3[ebp], eax
	mov	edx, DWORD PTR _temp$3[ebp]
	mov	ecx, DWORD PTR _n_rshift_bit_count$4[ebp]
	shr	edx, cl
	or	edx, DWORD PTR _work$2[ebp]
	mov	DWORD PTR _work$2[ebp], edx
	mov	eax, 4
	imul	ecx, eax, -8
	mov	edx, DWORD PTR _op$[ebp]
	mov	eax, DWORD PTR _work$2[ebp]
	mov	DWORD PTR [edx+ecx], eax

; 512  :             work = temp << n_lshift_bit_count; temp = pp[-9]; work |= temp >> n_rshift_bit_count; op[-9] = work;

	mov	edx, DWORD PTR _temp$3[ebp]
	mov	ecx, DWORD PTR _n_lshift_bit_count$[ebp]
	shl	edx, cl
	mov	DWORD PTR _work$2[ebp], edx
	mov	eax, 4
	imul	ecx, eax, -9
	mov	edx, DWORD PTR _pp$[ebp]
	mov	eax, DWORD PTR [edx+ecx]
	mov	DWORD PTR _temp$3[ebp], eax
	mov	edx, DWORD PTR _temp$3[ebp]
	mov	ecx, DWORD PTR _n_rshift_bit_count$4[ebp]
	shr	edx, cl
	or	edx, DWORD PTR _work$2[ebp]
	mov	DWORD PTR _work$2[ebp], edx
	mov	eax, 4
	imul	ecx, eax, -9
	mov	edx, DWORD PTR _op$[ebp]
	mov	eax, DWORD PTR _work$2[ebp]
	mov	DWORD PTR [edx+ecx], eax

; 513  :             work = temp << n_lshift_bit_count; temp = pp[-10]; work |= temp >> n_rshift_bit_count; op[-10] = work;

	mov	edx, DWORD PTR _temp$3[ebp]
	mov	ecx, DWORD PTR _n_lshift_bit_count$[ebp]
	shl	edx, cl
	mov	DWORD PTR _work$2[ebp], edx
	mov	eax, 4
	imul	ecx, eax, -10
	mov	edx, DWORD PTR _pp$[ebp]
	mov	eax, DWORD PTR [edx+ecx]
	mov	DWORD PTR _temp$3[ebp], eax
	mov	edx, DWORD PTR _temp$3[ebp]
	mov	ecx, DWORD PTR _n_rshift_bit_count$4[ebp]
	shr	edx, cl
	or	edx, DWORD PTR _work$2[ebp]
	mov	DWORD PTR _work$2[ebp], edx
	mov	eax, 4
	imul	ecx, eax, -10
	mov	edx, DWORD PTR _op$[ebp]
	mov	eax, DWORD PTR _work$2[ebp]
	mov	DWORD PTR [edx+ecx], eax

; 514  :             work = temp << n_lshift_bit_count; temp = pp[-11]; work |= temp >> n_rshift_bit_count; op[-11] = work;

	mov	edx, DWORD PTR _temp$3[ebp]
	mov	ecx, DWORD PTR _n_lshift_bit_count$[ebp]
	shl	edx, cl
	mov	DWORD PTR _work$2[ebp], edx
	mov	eax, 4
	imul	ecx, eax, -11
	mov	edx, DWORD PTR _pp$[ebp]
	mov	eax, DWORD PTR [edx+ecx]
	mov	DWORD PTR _temp$3[ebp], eax
	mov	edx, DWORD PTR _temp$3[ebp]
	mov	ecx, DWORD PTR _n_rshift_bit_count$4[ebp]
	shr	edx, cl
	or	edx, DWORD PTR _work$2[ebp]
	mov	DWORD PTR _work$2[ebp], edx
	mov	eax, 4
	imul	ecx, eax, -11
	mov	edx, DWORD PTR _op$[ebp]
	mov	eax, DWORD PTR _work$2[ebp]
	mov	DWORD PTR [edx+ecx], eax

; 515  :             work = temp << n_lshift_bit_count; temp = pp[-12]; work |= temp >> n_rshift_bit_count; op[-12] = work;

	mov	edx, DWORD PTR _temp$3[ebp]
	mov	ecx, DWORD PTR _n_lshift_bit_count$[ebp]
	shl	edx, cl
	mov	DWORD PTR _work$2[ebp], edx
	mov	eax, 4
	imul	ecx, eax, -12
	mov	edx, DWORD PTR _pp$[ebp]
	mov	eax, DWORD PTR [edx+ecx]
	mov	DWORD PTR _temp$3[ebp], eax
	mov	edx, DWORD PTR _temp$3[ebp]
	mov	ecx, DWORD PTR _n_rshift_bit_count$4[ebp]
	shr	edx, cl
	or	edx, DWORD PTR _work$2[ebp]
	mov	DWORD PTR _work$2[ebp], edx
	mov	eax, 4
	imul	ecx, eax, -12
	mov	edx, DWORD PTR _op$[ebp]
	mov	eax, DWORD PTR _work$2[ebp]
	mov	DWORD PTR [edx+ecx], eax

; 516  :             work = temp << n_lshift_bit_count; temp = pp[-13]; work |= temp >> n_rshift_bit_count; op[-13] = work;

	mov	edx, DWORD PTR _temp$3[ebp]
	mov	ecx, DWORD PTR _n_lshift_bit_count$[ebp]
	shl	edx, cl
	mov	DWORD PTR _work$2[ebp], edx
	mov	eax, 4
	imul	ecx, eax, -13
	mov	edx, DWORD PTR _pp$[ebp]
	mov	eax, DWORD PTR [edx+ecx]
	mov	DWORD PTR _temp$3[ebp], eax
	mov	edx, DWORD PTR _temp$3[ebp]
	mov	ecx, DWORD PTR _n_rshift_bit_count$4[ebp]
	shr	edx, cl
	or	edx, DWORD PTR _work$2[ebp]
	mov	DWORD PTR _work$2[ebp], edx
	mov	eax, 4
	imul	ecx, eax, -13
	mov	edx, DWORD PTR _op$[ebp]
	mov	eax, DWORD PTR _work$2[ebp]
	mov	DWORD PTR [edx+ecx], eax

; 517  :             work = temp << n_lshift_bit_count; temp = pp[-14]; work |= temp >> n_rshift_bit_count; op[-14] = work;

	mov	edx, DWORD PTR _temp$3[ebp]
	mov	ecx, DWORD PTR _n_lshift_bit_count$[ebp]
	shl	edx, cl
	mov	DWORD PTR _work$2[ebp], edx
	mov	eax, 4
	imul	ecx, eax, -14
	mov	edx, DWORD PTR _pp$[ebp]
	mov	eax, DWORD PTR [edx+ecx]
	mov	DWORD PTR _temp$3[ebp], eax
	mov	edx, DWORD PTR _temp$3[ebp]
	mov	ecx, DWORD PTR _n_rshift_bit_count$4[ebp]
	shr	edx, cl
	or	edx, DWORD PTR _work$2[ebp]
	mov	DWORD PTR _work$2[ebp], edx
	mov	eax, 4
	imul	ecx, eax, -14
	mov	edx, DWORD PTR _op$[ebp]
	mov	eax, DWORD PTR _work$2[ebp]
	mov	DWORD PTR [edx+ecx], eax

; 518  :             work = temp << n_lshift_bit_count; temp = pp[-15]; work |= temp >> n_rshift_bit_count; op[-15] = work;

	mov	edx, DWORD PTR _temp$3[ebp]
	mov	ecx, DWORD PTR _n_lshift_bit_count$[ebp]
	shl	edx, cl
	mov	DWORD PTR _work$2[ebp], edx
	mov	eax, 4
	imul	ecx, eax, -15
	mov	edx, DWORD PTR _pp$[ebp]
	mov	eax, DWORD PTR [edx+ecx]
	mov	DWORD PTR _temp$3[ebp], eax
	mov	edx, DWORD PTR _temp$3[ebp]
	mov	ecx, DWORD PTR _n_rshift_bit_count$4[ebp]
	shr	edx, cl
	or	edx, DWORD PTR _work$2[ebp]
	mov	DWORD PTR _work$2[ebp], edx
	mov	eax, 4
	imul	ecx, eax, -15
	mov	edx, DWORD PTR _op$[ebp]
	mov	eax, DWORD PTR _work$2[ebp]
	mov	DWORD PTR [edx+ecx], eax

; 519  :             pp -= 16;

	mov	ecx, DWORD PTR _pp$[ebp]
	sub	ecx, 64					; 00000040H
	mov	DWORD PTR _pp$[ebp], ecx

; 520  :             op -= 16;

	mov	edx, DWORD PTR _op$[ebp]
	sub	edx, 64					; 00000040H
	mov	DWORD PTR _op$[ebp], edx
$LN7@LeftShift_:

; 521  :         }
; 522  : 
; 523  :         if (p_count & 0x8)

	mov	eax, DWORD PTR _p_count$[ebp]
	and	eax, 8
	je	$LN8@LeftShift_

; 524  :         {
; 525  :             work = temp << n_lshift_bit_count; temp = pp[-0]; work |= temp >> n_rshift_bit_count; op[-0] = work;

	mov	edx, DWORD PTR _temp$3[ebp]
	mov	ecx, DWORD PTR _n_lshift_bit_count$[ebp]
	shl	edx, cl
	mov	DWORD PTR _work$2[ebp], edx
	mov	eax, 4
	imul	ecx, eax, 0
	mov	edx, DWORD PTR _pp$[ebp]
	mov	eax, DWORD PTR [edx+ecx]
	mov	DWORD PTR _temp$3[ebp], eax
	mov	edx, DWORD PTR _temp$3[ebp]
	mov	ecx, DWORD PTR _n_rshift_bit_count$4[ebp]
	shr	edx, cl
	or	edx, DWORD PTR _work$2[ebp]
	mov	DWORD PTR _work$2[ebp], edx
	mov	eax, 4
	imul	ecx, eax, 0
	mov	edx, DWORD PTR _op$[ebp]
	mov	eax, DWORD PTR _work$2[ebp]
	mov	DWORD PTR [edx+ecx], eax

; 526  :             work = temp << n_lshift_bit_count; temp = pp[-1]; work |= temp >> n_rshift_bit_count; op[-1] = work;

	mov	edx, DWORD PTR _temp$3[ebp]
	mov	ecx, DWORD PTR _n_lshift_bit_count$[ebp]
	shl	edx, cl
	mov	DWORD PTR _work$2[ebp], edx
	mov	eax, 4
	imul	ecx, eax, -1
	mov	edx, DWORD PTR _pp$[ebp]
	mov	eax, DWORD PTR [edx+ecx]
	mov	DWORD PTR _temp$3[ebp], eax
	mov	edx, DWORD PTR _temp$3[ebp]
	mov	ecx, DWORD PTR _n_rshift_bit_count$4[ebp]
	shr	edx, cl
	or	edx, DWORD PTR _work$2[ebp]
	mov	DWORD PTR _work$2[ebp], edx
	mov	eax, 4
	imul	ecx, eax, -1
	mov	edx, DWORD PTR _op$[ebp]
	mov	eax, DWORD PTR _work$2[ebp]
	mov	DWORD PTR [edx+ecx], eax

; 527  :             work = temp << n_lshift_bit_count; temp = pp[-2]; work |= temp >> n_rshift_bit_count; op[-2] = work;

	mov	edx, DWORD PTR _temp$3[ebp]
	mov	ecx, DWORD PTR _n_lshift_bit_count$[ebp]
	shl	edx, cl
	mov	DWORD PTR _work$2[ebp], edx
	mov	eax, 4
	imul	ecx, eax, -2
	mov	edx, DWORD PTR _pp$[ebp]
	mov	eax, DWORD PTR [edx+ecx]
	mov	DWORD PTR _temp$3[ebp], eax
	mov	edx, DWORD PTR _temp$3[ebp]
	mov	ecx, DWORD PTR _n_rshift_bit_count$4[ebp]
	shr	edx, cl
	or	edx, DWORD PTR _work$2[ebp]
	mov	DWORD PTR _work$2[ebp], edx
	mov	eax, 4
	imul	ecx, eax, -2
	mov	edx, DWORD PTR _op$[ebp]
	mov	eax, DWORD PTR _work$2[ebp]
	mov	DWORD PTR [edx+ecx], eax

; 528  :             work = temp << n_lshift_bit_count; temp = pp[-3]; work |= temp >> n_rshift_bit_count; op[-3] = work;

	mov	edx, DWORD PTR _temp$3[ebp]
	mov	ecx, DWORD PTR _n_lshift_bit_count$[ebp]
	shl	edx, cl
	mov	DWORD PTR _work$2[ebp], edx
	mov	eax, 4
	imul	ecx, eax, -3
	mov	edx, DWORD PTR _pp$[ebp]
	mov	eax, DWORD PTR [edx+ecx]
	mov	DWORD PTR _temp$3[ebp], eax
	mov	edx, DWORD PTR _temp$3[ebp]
	mov	ecx, DWORD PTR _n_rshift_bit_count$4[ebp]
	shr	edx, cl
	or	edx, DWORD PTR _work$2[ebp]
	mov	DWORD PTR _work$2[ebp], edx
	mov	eax, 4
	imul	ecx, eax, -3
	mov	edx, DWORD PTR _op$[ebp]
	mov	eax, DWORD PTR _work$2[ebp]
	mov	DWORD PTR [edx+ecx], eax

; 529  :             work = temp << n_lshift_bit_count; temp = pp[-4]; work |= temp >> n_rshift_bit_count; op[-4] = work;

	mov	edx, DWORD PTR _temp$3[ebp]
	mov	ecx, DWORD PTR _n_lshift_bit_count$[ebp]
	shl	edx, cl
	mov	DWORD PTR _work$2[ebp], edx
	mov	eax, 4
	imul	ecx, eax, -4
	mov	edx, DWORD PTR _pp$[ebp]
	mov	eax, DWORD PTR [edx+ecx]
	mov	DWORD PTR _temp$3[ebp], eax
	mov	edx, DWORD PTR _temp$3[ebp]
	mov	ecx, DWORD PTR _n_rshift_bit_count$4[ebp]
	shr	edx, cl
	or	edx, DWORD PTR _work$2[ebp]
	mov	DWORD PTR _work$2[ebp], edx
	mov	eax, 4
	imul	ecx, eax, -4
	mov	edx, DWORD PTR _op$[ebp]
	mov	eax, DWORD PTR _work$2[ebp]
	mov	DWORD PTR [edx+ecx], eax

; 530  :             work = temp << n_lshift_bit_count; temp = pp[-5]; work |= temp >> n_rshift_bit_count; op[-5] = work;

	mov	edx, DWORD PTR _temp$3[ebp]
	mov	ecx, DWORD PTR _n_lshift_bit_count$[ebp]
	shl	edx, cl
	mov	DWORD PTR _work$2[ebp], edx
	mov	eax, 4
	imul	ecx, eax, -5
	mov	edx, DWORD PTR _pp$[ebp]
	mov	eax, DWORD PTR [edx+ecx]
	mov	DWORD PTR _temp$3[ebp], eax
	mov	edx, DWORD PTR _temp$3[ebp]
	mov	ecx, DWORD PTR _n_rshift_bit_count$4[ebp]
	shr	edx, cl
	or	edx, DWORD PTR _work$2[ebp]
	mov	DWORD PTR _work$2[ebp], edx
	mov	eax, 4
	imul	ecx, eax, -5
	mov	edx, DWORD PTR _op$[ebp]
	mov	eax, DWORD PTR _work$2[ebp]
	mov	DWORD PTR [edx+ecx], eax

; 531  :             work = temp << n_lshift_bit_count; temp = pp[-6]; work |= temp >> n_rshift_bit_count; op[-6] = work;

	mov	edx, DWORD PTR _temp$3[ebp]
	mov	ecx, DWORD PTR _n_lshift_bit_count$[ebp]
	shl	edx, cl
	mov	DWORD PTR _work$2[ebp], edx
	mov	eax, 4
	imul	ecx, eax, -6
	mov	edx, DWORD PTR _pp$[ebp]
	mov	eax, DWORD PTR [edx+ecx]
	mov	DWORD PTR _temp$3[ebp], eax
	mov	edx, DWORD PTR _temp$3[ebp]
	mov	ecx, DWORD PTR _n_rshift_bit_count$4[ebp]
	shr	edx, cl
	or	edx, DWORD PTR _work$2[ebp]
	mov	DWORD PTR _work$2[ebp], edx
	mov	eax, 4
	imul	ecx, eax, -6
	mov	edx, DWORD PTR _op$[ebp]
	mov	eax, DWORD PTR _work$2[ebp]
	mov	DWORD PTR [edx+ecx], eax

; 532  :             work = temp << n_lshift_bit_count; temp = pp[-7]; work |= temp >> n_rshift_bit_count; op[-7] = work;

	mov	edx, DWORD PTR _temp$3[ebp]
	mov	ecx, DWORD PTR _n_lshift_bit_count$[ebp]
	shl	edx, cl
	mov	DWORD PTR _work$2[ebp], edx
	mov	eax, 4
	imul	ecx, eax, -7
	mov	edx, DWORD PTR _pp$[ebp]
	mov	eax, DWORD PTR [edx+ecx]
	mov	DWORD PTR _temp$3[ebp], eax
	mov	edx, DWORD PTR _temp$3[ebp]
	mov	ecx, DWORD PTR _n_rshift_bit_count$4[ebp]
	shr	edx, cl
	or	edx, DWORD PTR _work$2[ebp]
	mov	DWORD PTR _work$2[ebp], edx
	mov	eax, 4
	imul	ecx, eax, -7
	mov	edx, DWORD PTR _op$[ebp]
	mov	eax, DWORD PTR _work$2[ebp]
	mov	DWORD PTR [edx+ecx], eax

; 533  :             pp -= 8;

	mov	ecx, DWORD PTR _pp$[ebp]
	sub	ecx, 32					; 00000020H
	mov	DWORD PTR _pp$[ebp], ecx

; 534  :             op -= 8;

	mov	edx, DWORD PTR _op$[ebp]
	sub	edx, 32					; 00000020H
	mov	DWORD PTR _op$[ebp], edx
$LN8@LeftShift_:

; 535  :         }
; 536  : 
; 537  :         if (p_count & 0x4)

	mov	eax, DWORD PTR _p_count$[ebp]
	and	eax, 4
	je	$LN9@LeftShift_

; 538  :         {
; 539  :             work = temp << n_lshift_bit_count; temp = pp[-0]; work |= temp >> n_rshift_bit_count; op[-0] = work;

	mov	edx, DWORD PTR _temp$3[ebp]
	mov	ecx, DWORD PTR _n_lshift_bit_count$[ebp]
	shl	edx, cl
	mov	DWORD PTR _work$2[ebp], edx
	mov	eax, 4
	imul	ecx, eax, 0
	mov	edx, DWORD PTR _pp$[ebp]
	mov	eax, DWORD PTR [edx+ecx]
	mov	DWORD PTR _temp$3[ebp], eax
	mov	edx, DWORD PTR _temp$3[ebp]
	mov	ecx, DWORD PTR _n_rshift_bit_count$4[ebp]
	shr	edx, cl
	or	edx, DWORD PTR _work$2[ebp]
	mov	DWORD PTR _work$2[ebp], edx
	mov	eax, 4
	imul	ecx, eax, 0
	mov	edx, DWORD PTR _op$[ebp]
	mov	eax, DWORD PTR _work$2[ebp]
	mov	DWORD PTR [edx+ecx], eax

; 540  :             work = temp << n_lshift_bit_count; temp = pp[-1]; work |= temp >> n_rshift_bit_count; op[-1] = work;

	mov	edx, DWORD PTR _temp$3[ebp]
	mov	ecx, DWORD PTR _n_lshift_bit_count$[ebp]
	shl	edx, cl
	mov	DWORD PTR _work$2[ebp], edx
	mov	eax, 4
	imul	ecx, eax, -1
	mov	edx, DWORD PTR _pp$[ebp]
	mov	eax, DWORD PTR [edx+ecx]
	mov	DWORD PTR _temp$3[ebp], eax
	mov	edx, DWORD PTR _temp$3[ebp]
	mov	ecx, DWORD PTR _n_rshift_bit_count$4[ebp]
	shr	edx, cl
	or	edx, DWORD PTR _work$2[ebp]
	mov	DWORD PTR _work$2[ebp], edx
	mov	eax, 4
	imul	ecx, eax, -1
	mov	edx, DWORD PTR _op$[ebp]
	mov	eax, DWORD PTR _work$2[ebp]
	mov	DWORD PTR [edx+ecx], eax

; 541  :             work = temp << n_lshift_bit_count; temp = pp[-2]; work |= temp >> n_rshift_bit_count; op[-2] = work;

	mov	edx, DWORD PTR _temp$3[ebp]
	mov	ecx, DWORD PTR _n_lshift_bit_count$[ebp]
	shl	edx, cl
	mov	DWORD PTR _work$2[ebp], edx
	mov	eax, 4
	imul	ecx, eax, -2
	mov	edx, DWORD PTR _pp$[ebp]
	mov	eax, DWORD PTR [edx+ecx]
	mov	DWORD PTR _temp$3[ebp], eax
	mov	edx, DWORD PTR _temp$3[ebp]
	mov	ecx, DWORD PTR _n_rshift_bit_count$4[ebp]
	shr	edx, cl
	or	edx, DWORD PTR _work$2[ebp]
	mov	DWORD PTR _work$2[ebp], edx
	mov	eax, 4
	imul	ecx, eax, -2
	mov	edx, DWORD PTR _op$[ebp]
	mov	eax, DWORD PTR _work$2[ebp]
	mov	DWORD PTR [edx+ecx], eax

; 542  :             work = temp << n_lshift_bit_count; temp = pp[-3]; work |= temp >> n_rshift_bit_count; op[-3] = work;

	mov	edx, DWORD PTR _temp$3[ebp]
	mov	ecx, DWORD PTR _n_lshift_bit_count$[ebp]
	shl	edx, cl
	mov	DWORD PTR _work$2[ebp], edx
	mov	eax, 4
	imul	ecx, eax, -3
	mov	edx, DWORD PTR _pp$[ebp]
	mov	eax, DWORD PTR [edx+ecx]
	mov	DWORD PTR _temp$3[ebp], eax
	mov	edx, DWORD PTR _temp$3[ebp]
	mov	ecx, DWORD PTR _n_rshift_bit_count$4[ebp]
	shr	edx, cl
	or	edx, DWORD PTR _work$2[ebp]
	mov	DWORD PTR _work$2[ebp], edx
	mov	eax, 4
	imul	ecx, eax, -3
	mov	edx, DWORD PTR _op$[ebp]
	mov	eax, DWORD PTR _work$2[ebp]
	mov	DWORD PTR [edx+ecx], eax

; 543  :             pp -= 4;

	mov	ecx, DWORD PTR _pp$[ebp]
	sub	ecx, 16					; 00000010H
	mov	DWORD PTR _pp$[ebp], ecx

; 544  :             op -= 4;

	mov	edx, DWORD PTR _op$[ebp]
	sub	edx, 16					; 00000010H
	mov	DWORD PTR _op$[ebp], edx
$LN9@LeftShift_:

; 545  :         }
; 546  : 
; 547  :         if (p_count & 0x2)

	mov	eax, DWORD PTR _p_count$[ebp]
	and	eax, 2
	je	$LN10@LeftShift_

; 548  :         {
; 549  :             work = temp << n_lshift_bit_count; temp = pp[-0]; work |= temp >> n_rshift_bit_count; op[-0] = work;

	mov	edx, DWORD PTR _temp$3[ebp]
	mov	ecx, DWORD PTR _n_lshift_bit_count$[ebp]
	shl	edx, cl
	mov	DWORD PTR _work$2[ebp], edx
	mov	eax, 4
	imul	ecx, eax, 0
	mov	edx, DWORD PTR _pp$[ebp]
	mov	eax, DWORD PTR [edx+ecx]
	mov	DWORD PTR _temp$3[ebp], eax
	mov	edx, DWORD PTR _temp$3[ebp]
	mov	ecx, DWORD PTR _n_rshift_bit_count$4[ebp]
	shr	edx, cl
	or	edx, DWORD PTR _work$2[ebp]
	mov	DWORD PTR _work$2[ebp], edx
	mov	eax, 4
	imul	ecx, eax, 0
	mov	edx, DWORD PTR _op$[ebp]
	mov	eax, DWORD PTR _work$2[ebp]
	mov	DWORD PTR [edx+ecx], eax

; 550  :             work = temp << n_lshift_bit_count; temp = pp[-1]; work |= temp >> n_rshift_bit_count; op[-1] = work;

	mov	edx, DWORD PTR _temp$3[ebp]
	mov	ecx, DWORD PTR _n_lshift_bit_count$[ebp]
	shl	edx, cl
	mov	DWORD PTR _work$2[ebp], edx
	mov	eax, 4
	imul	ecx, eax, -1
	mov	edx, DWORD PTR _pp$[ebp]
	mov	eax, DWORD PTR [edx+ecx]
	mov	DWORD PTR _temp$3[ebp], eax
	mov	edx, DWORD PTR _temp$3[ebp]
	mov	ecx, DWORD PTR _n_rshift_bit_count$4[ebp]
	shr	edx, cl
	or	edx, DWORD PTR _work$2[ebp]
	mov	DWORD PTR _work$2[ebp], edx
	mov	eax, 4
	imul	ecx, eax, -1
	mov	edx, DWORD PTR _op$[ebp]
	mov	eax, DWORD PTR _work$2[ebp]
	mov	DWORD PTR [edx+ecx], eax

; 551  :             pp -= 2;

	mov	ecx, DWORD PTR _pp$[ebp]
	sub	ecx, 8
	mov	DWORD PTR _pp$[ebp], ecx

; 552  :             op -= 2;

	mov	edx, DWORD PTR _op$[ebp]
	sub	edx, 8
	mov	DWORD PTR _op$[ebp], edx
$LN10@LeftShift_:

; 553  :         }
; 554  : 
; 555  :         if (p_count & 0x1)

	mov	eax, DWORD PTR _p_count$[ebp]
	and	eax, 1
	je	SHORT $LN11@LeftShift_

; 556  :         {
; 557  :             work = temp << n_lshift_bit_count; temp = pp[-0]; work |= temp >> n_rshift_bit_count; op[-0] = work;

	mov	edx, DWORD PTR _temp$3[ebp]
	mov	ecx, DWORD PTR _n_lshift_bit_count$[ebp]
	shl	edx, cl
	mov	DWORD PTR _work$2[ebp], edx
	mov	eax, 4
	imul	ecx, eax, 0
	mov	edx, DWORD PTR _pp$[ebp]
	mov	eax, DWORD PTR [edx+ecx]
	mov	DWORD PTR _temp$3[ebp], eax
	mov	edx, DWORD PTR _temp$3[ebp]
	mov	ecx, DWORD PTR _n_rshift_bit_count$4[ebp]
	shr	edx, cl
	or	edx, DWORD PTR _work$2[ebp]
	mov	DWORD PTR _work$2[ebp], edx
	mov	eax, 4
	imul	ecx, eax, 0
	mov	edx, DWORD PTR _op$[ebp]
	mov	eax, DWORD PTR _work$2[ebp]
	mov	DWORD PTR [edx+ecx], eax

; 558  :             pp -= 1;

	mov	ecx, DWORD PTR _pp$[ebp]
	sub	ecx, 4
	mov	DWORD PTR _pp$[ebp], ecx

; 559  :             op -= 1;

	mov	edx, DWORD PTR _op$[ebp]
	sub	edx, 4
	mov	DWORD PTR _op$[ebp], edx
$LN11@LeftShift_:

; 560  :         }
; 561  :         work = temp << n_lshift_bit_count;

	mov	eax, DWORD PTR _temp$3[ebp]
	mov	ecx, DWORD PTR _n_lshift_bit_count$[ebp]
	shl	eax, cl
	mov	DWORD PTR _work$2[ebp], eax

; 562  :         *op = work;

	mov	ecx, DWORD PTR _op$[ebp]
	mov	edx, DWORD PTR _work$2[ebp]
	mov	DWORD PTR [ecx], edx

; 563  : 
; 564  :         if (padding_zero)

	cmp	DWORD PTR _padding_zero$[ebp], 0
	je	SHORT $LN1@LeftShift_

; 565  :             _ZERO_MEMORY_UNIT_DIV(p, n_word_count);

	mov	eax, DWORD PTR _n_word_count$[ebp]
	push	eax
	mov	ecx, DWORD PTR _p$[ebp]
	push	ecx
	call	__ZERO_MEMORY_UNIT_DIV
	add	esp, 8
$LN1@LeftShift_:

; 566  :     }
; 567  : }

	add	esp, 36					; 00000024H
	cmp	ebp, esp
	call	__RTC_CheckEsp
	mov	esp, ebp
	pop	ebp
	ret	0
_LeftShift_Imp_DIV ENDP
_TEXT	ENDS
; Function compile flags: /Odtp /RTCsu
; File z:\sources\lunor\repos\rougemeilland\palmtree.math.core.implements\palmtree.math.core.implements\pmc_shift.c
_TEXT	SEGMENT
_count$1 = -40						; size = 4
_t_count$2 = -36					; size = 4
_work$3 = -32						; size = 4
_temp$4 = -28						; size = 4
_n_lshift_bit_count$5 = -24				; size = 4
_n_rshift_bit_count$ = -20				; size = 4
_n_word_count$ = -16					; size = 4
_op$ = -12						; size = 4
_p_count$ = -8						; size = 4
_pp$ = -4						; size = 4
_p$ = 8							; size = 4
_p_word_count$ = 12					; size = 4
_n$ = 16						; size = 4
_o$ = 20						; size = 4
_padding_zero$ = 24					; size = 4
_RightShift_Imp_DIV PROC

; 171  : {

	push	ebp
	mov	ebp, esp
	sub	esp, 40					; 00000028H
	push	edi
	lea	edi, DWORD PTR [ebp-40]
	mov	ecx, 10					; 0000000aH
	mov	eax, -858993460				; ccccccccH
	rep stosd
	mov	ecx, OFFSET __BE4F50ED_pmc_shift@c
	call	@__CheckForDebuggerJustMyCode@4

; 172  :     __UNIT_TYPE_DIV* pp = p;

	mov	eax, DWORD PTR _p$[ebp]
	mov	DWORD PTR _pp$[ebp], eax

; 173  :     __UNIT_TYPE p_count = p_word_count;

	mov	ecx, DWORD PTR _p_word_count$[ebp]
	mov	DWORD PTR _p_count$[ebp], ecx

; 174  :     __UNIT_TYPE_DIV* op = o;

	mov	edx, DWORD PTR _o$[ebp]
	mov	DWORD PTR _op$[ebp], edx

; 175  :     // n_word_count ワード右に移動し、更に n_bit_count ビット右に移動する。
; 176  :     __UNIT_TYPE n_word_count = n / __UNIT_TYPE_BIT_COUNT;

	mov	eax, DWORD PTR _n$[ebp]
	shr	eax, 5
	mov	DWORD PTR _n_word_count$[ebp], eax

; 177  :     __UNIT_TYPE n_rshift_bit_count = n % __UNIT_TYPE_BIT_COUNT;

	mov	eax, DWORD PTR _n$[ebp]
	xor	edx, edx
	mov	ecx, 32					; 00000020H
	div	ecx
	mov	DWORD PTR _n_rshift_bit_count$[ebp], edx

; 178  :     if (n_rshift_bit_count == 0)

	cmp	DWORD PTR _n_rshift_bit_count$[ebp], 0
	jne	SHORT $LN4@RightShift

; 179  :     {
; 180  :         // シフト数がちょうどワード境界分であれば単にワード単位のデータ移動のみ行う。
; 181  :         _COPY_MEMORY_UNIT_DIV(op, pp + n_word_count, p_count - n_word_count);

	mov	edx, DWORD PTR _p_count$[ebp]
	sub	edx, DWORD PTR _n_word_count$[ebp]
	push	edx
	mov	eax, DWORD PTR _n_word_count$[ebp]
	mov	ecx, DWORD PTR _pp$[ebp]
	lea	edx, DWORD PTR [ecx+eax*4]
	push	edx
	mov	eax, DWORD PTR _op$[ebp]
	push	eax
	call	__COPY_MEMORY_UNIT_DIV
	add	esp, 12					; 0000000cH

; 182  :     }

	jmp	$LN1@RightShift
$LN4@RightShift:

; 183  :     else
; 184  :     {
; 185  :         pp += n_word_count;

	mov	ecx, DWORD PTR _n_word_count$[ebp]
	mov	edx, DWORD PTR _pp$[ebp]
	lea	eax, DWORD PTR [edx+ecx*4]
	mov	DWORD PTR _pp$[ebp], eax

; 186  :         __UNIT_TYPE n_lshift_bit_count = __UNIT_TYPE_BIT_COUNT - n_rshift_bit_count;

	mov	ecx, 32					; 00000020H
	sub	ecx, DWORD PTR _n_rshift_bit_count$[ebp]
	mov	DWORD PTR _n_lshift_bit_count$5[ebp], ecx

; 187  :         // p_count - n_word_count 回繰り返し
; 188  : 
; 189  :         __UNIT_TYPE_DIV temp = *pp++;

	mov	edx, DWORD PTR _pp$[ebp]
	mov	eax, DWORD PTR [edx]
	mov	DWORD PTR _temp$4[ebp], eax
	mov	ecx, DWORD PTR _pp$[ebp]
	add	ecx, 4
	mov	DWORD PTR _pp$[ebp], ecx

; 190  :         __UNIT_TYPE_DIV work;
; 191  :         __UNIT_TYPE t_count = p_count - n_word_count - 1;

	mov	edx, DWORD PTR _p_count$[ebp]
	sub	edx, DWORD PTR _n_word_count$[ebp]
	sub	edx, 1
	mov	DWORD PTR _t_count$2[ebp], edx

; 192  : 
; 193  :         __UNIT_TYPE count = t_count >> 5;

	mov	eax, DWORD PTR _t_count$2[ebp]
	shr	eax, 5
	mov	DWORD PTR _count$1[ebp], eax
$LN2@RightShift:

; 194  :         while (count > 0)

	cmp	DWORD PTR _count$1[ebp], 0
	jbe	$LN3@RightShift

; 195  :         {
; 196  :             work = temp >> n_rshift_bit_count; temp = pp[0]; work |= temp << n_lshift_bit_count; op[0] = work;

	mov	edx, DWORD PTR _temp$4[ebp]
	mov	ecx, DWORD PTR _n_rshift_bit_count$[ebp]
	shr	edx, cl
	mov	DWORD PTR _work$3[ebp], edx
	mov	eax, 4
	imul	ecx, eax, 0
	mov	edx, DWORD PTR _pp$[ebp]
	mov	eax, DWORD PTR [edx+ecx]
	mov	DWORD PTR _temp$4[ebp], eax
	mov	edx, DWORD PTR _temp$4[ebp]
	mov	ecx, DWORD PTR _n_lshift_bit_count$5[ebp]
	shl	edx, cl
	or	edx, DWORD PTR _work$3[ebp]
	mov	DWORD PTR _work$3[ebp], edx
	mov	eax, 4
	imul	ecx, eax, 0
	mov	edx, DWORD PTR _op$[ebp]
	mov	eax, DWORD PTR _work$3[ebp]
	mov	DWORD PTR [edx+ecx], eax

; 197  :             work = temp >> n_rshift_bit_count; temp = pp[1]; work |= temp << n_lshift_bit_count; op[1] = work;

	mov	edx, DWORD PTR _temp$4[ebp]
	mov	ecx, DWORD PTR _n_rshift_bit_count$[ebp]
	shr	edx, cl
	mov	DWORD PTR _work$3[ebp], edx
	mov	eax, 4
	shl	eax, 0
	mov	ecx, DWORD PTR _pp$[ebp]
	mov	edx, DWORD PTR [ecx+eax]
	mov	DWORD PTR _temp$4[ebp], edx
	mov	eax, DWORD PTR _temp$4[ebp]
	mov	ecx, DWORD PTR _n_lshift_bit_count$5[ebp]
	shl	eax, cl
	or	eax, DWORD PTR _work$3[ebp]
	mov	DWORD PTR _work$3[ebp], eax
	mov	ecx, 4
	shl	ecx, 0
	mov	edx, DWORD PTR _op$[ebp]
	mov	eax, DWORD PTR _work$3[ebp]
	mov	DWORD PTR [edx+ecx], eax

; 198  :             work = temp >> n_rshift_bit_count; temp = pp[2]; work |= temp << n_lshift_bit_count; op[2] = work;

	mov	edx, DWORD PTR _temp$4[ebp]
	mov	ecx, DWORD PTR _n_rshift_bit_count$[ebp]
	shr	edx, cl
	mov	DWORD PTR _work$3[ebp], edx
	mov	eax, 4
	shl	eax, 1
	mov	ecx, DWORD PTR _pp$[ebp]
	mov	edx, DWORD PTR [ecx+eax]
	mov	DWORD PTR _temp$4[ebp], edx
	mov	eax, DWORD PTR _temp$4[ebp]
	mov	ecx, DWORD PTR _n_lshift_bit_count$5[ebp]
	shl	eax, cl
	or	eax, DWORD PTR _work$3[ebp]
	mov	DWORD PTR _work$3[ebp], eax
	mov	ecx, 4
	shl	ecx, 1
	mov	edx, DWORD PTR _op$[ebp]
	mov	eax, DWORD PTR _work$3[ebp]
	mov	DWORD PTR [edx+ecx], eax

; 199  :             work = temp >> n_rshift_bit_count; temp = pp[3]; work |= temp << n_lshift_bit_count; op[3] = work;

	mov	edx, DWORD PTR _temp$4[ebp]
	mov	ecx, DWORD PTR _n_rshift_bit_count$[ebp]
	shr	edx, cl
	mov	DWORD PTR _work$3[ebp], edx
	mov	eax, 4
	imul	ecx, eax, 3
	mov	edx, DWORD PTR _pp$[ebp]
	mov	eax, DWORD PTR [edx+ecx]
	mov	DWORD PTR _temp$4[ebp], eax
	mov	edx, DWORD PTR _temp$4[ebp]
	mov	ecx, DWORD PTR _n_lshift_bit_count$5[ebp]
	shl	edx, cl
	or	edx, DWORD PTR _work$3[ebp]
	mov	DWORD PTR _work$3[ebp], edx
	mov	eax, 4
	imul	ecx, eax, 3
	mov	edx, DWORD PTR _op$[ebp]
	mov	eax, DWORD PTR _work$3[ebp]
	mov	DWORD PTR [edx+ecx], eax

; 200  :             work = temp >> n_rshift_bit_count; temp = pp[4]; work |= temp << n_lshift_bit_count; op[4] = work;

	mov	edx, DWORD PTR _temp$4[ebp]
	mov	ecx, DWORD PTR _n_rshift_bit_count$[ebp]
	shr	edx, cl
	mov	DWORD PTR _work$3[ebp], edx
	mov	eax, 4
	shl	eax, 2
	mov	ecx, DWORD PTR _pp$[ebp]
	mov	edx, DWORD PTR [ecx+eax]
	mov	DWORD PTR _temp$4[ebp], edx
	mov	eax, DWORD PTR _temp$4[ebp]
	mov	ecx, DWORD PTR _n_lshift_bit_count$5[ebp]
	shl	eax, cl
	or	eax, DWORD PTR _work$3[ebp]
	mov	DWORD PTR _work$3[ebp], eax
	mov	ecx, 4
	shl	ecx, 2
	mov	edx, DWORD PTR _op$[ebp]
	mov	eax, DWORD PTR _work$3[ebp]
	mov	DWORD PTR [edx+ecx], eax

; 201  :             work = temp >> n_rshift_bit_count; temp = pp[5]; work |= temp << n_lshift_bit_count; op[5] = work;

	mov	edx, DWORD PTR _temp$4[ebp]
	mov	ecx, DWORD PTR _n_rshift_bit_count$[ebp]
	shr	edx, cl
	mov	DWORD PTR _work$3[ebp], edx
	mov	eax, 4
	imul	ecx, eax, 5
	mov	edx, DWORD PTR _pp$[ebp]
	mov	eax, DWORD PTR [edx+ecx]
	mov	DWORD PTR _temp$4[ebp], eax
	mov	edx, DWORD PTR _temp$4[ebp]
	mov	ecx, DWORD PTR _n_lshift_bit_count$5[ebp]
	shl	edx, cl
	or	edx, DWORD PTR _work$3[ebp]
	mov	DWORD PTR _work$3[ebp], edx
	mov	eax, 4
	imul	ecx, eax, 5
	mov	edx, DWORD PTR _op$[ebp]
	mov	eax, DWORD PTR _work$3[ebp]
	mov	DWORD PTR [edx+ecx], eax

; 202  :             work = temp >> n_rshift_bit_count; temp = pp[6]; work |= temp << n_lshift_bit_count; op[6] = work;

	mov	edx, DWORD PTR _temp$4[ebp]
	mov	ecx, DWORD PTR _n_rshift_bit_count$[ebp]
	shr	edx, cl
	mov	DWORD PTR _work$3[ebp], edx
	mov	eax, 4
	imul	ecx, eax, 6
	mov	edx, DWORD PTR _pp$[ebp]
	mov	eax, DWORD PTR [edx+ecx]
	mov	DWORD PTR _temp$4[ebp], eax
	mov	edx, DWORD PTR _temp$4[ebp]
	mov	ecx, DWORD PTR _n_lshift_bit_count$5[ebp]
	shl	edx, cl
	or	edx, DWORD PTR _work$3[ebp]
	mov	DWORD PTR _work$3[ebp], edx
	mov	eax, 4
	imul	ecx, eax, 6
	mov	edx, DWORD PTR _op$[ebp]
	mov	eax, DWORD PTR _work$3[ebp]
	mov	DWORD PTR [edx+ecx], eax

; 203  :             work = temp >> n_rshift_bit_count; temp = pp[7]; work |= temp << n_lshift_bit_count; op[7] = work;

	mov	edx, DWORD PTR _temp$4[ebp]
	mov	ecx, DWORD PTR _n_rshift_bit_count$[ebp]
	shr	edx, cl
	mov	DWORD PTR _work$3[ebp], edx
	mov	eax, 4
	imul	ecx, eax, 7
	mov	edx, DWORD PTR _pp$[ebp]
	mov	eax, DWORD PTR [edx+ecx]
	mov	DWORD PTR _temp$4[ebp], eax
	mov	edx, DWORD PTR _temp$4[ebp]
	mov	ecx, DWORD PTR _n_lshift_bit_count$5[ebp]
	shl	edx, cl
	or	edx, DWORD PTR _work$3[ebp]
	mov	DWORD PTR _work$3[ebp], edx
	mov	eax, 4
	imul	ecx, eax, 7
	mov	edx, DWORD PTR _op$[ebp]
	mov	eax, DWORD PTR _work$3[ebp]
	mov	DWORD PTR [edx+ecx], eax

; 204  :             work = temp >> n_rshift_bit_count; temp = pp[8]; work |= temp << n_lshift_bit_count; op[8] = work;

	mov	edx, DWORD PTR _temp$4[ebp]
	mov	ecx, DWORD PTR _n_rshift_bit_count$[ebp]
	shr	edx, cl
	mov	DWORD PTR _work$3[ebp], edx
	mov	eax, 4
	shl	eax, 3
	mov	ecx, DWORD PTR _pp$[ebp]
	mov	edx, DWORD PTR [ecx+eax]
	mov	DWORD PTR _temp$4[ebp], edx
	mov	eax, DWORD PTR _temp$4[ebp]
	mov	ecx, DWORD PTR _n_lshift_bit_count$5[ebp]
	shl	eax, cl
	or	eax, DWORD PTR _work$3[ebp]
	mov	DWORD PTR _work$3[ebp], eax
	mov	ecx, 4
	shl	ecx, 3
	mov	edx, DWORD PTR _op$[ebp]
	mov	eax, DWORD PTR _work$3[ebp]
	mov	DWORD PTR [edx+ecx], eax

; 205  :             work = temp >> n_rshift_bit_count; temp = pp[9]; work |= temp << n_lshift_bit_count; op[9] = work;

	mov	edx, DWORD PTR _temp$4[ebp]
	mov	ecx, DWORD PTR _n_rshift_bit_count$[ebp]
	shr	edx, cl
	mov	DWORD PTR _work$3[ebp], edx
	mov	eax, 4
	imul	ecx, eax, 9
	mov	edx, DWORD PTR _pp$[ebp]
	mov	eax, DWORD PTR [edx+ecx]
	mov	DWORD PTR _temp$4[ebp], eax
	mov	edx, DWORD PTR _temp$4[ebp]
	mov	ecx, DWORD PTR _n_lshift_bit_count$5[ebp]
	shl	edx, cl
	or	edx, DWORD PTR _work$3[ebp]
	mov	DWORD PTR _work$3[ebp], edx
	mov	eax, 4
	imul	ecx, eax, 9
	mov	edx, DWORD PTR _op$[ebp]
	mov	eax, DWORD PTR _work$3[ebp]
	mov	DWORD PTR [edx+ecx], eax

; 206  :             work = temp >> n_rshift_bit_count; temp = pp[10]; work |= temp << n_lshift_bit_count; op[10] = work;

	mov	edx, DWORD PTR _temp$4[ebp]
	mov	ecx, DWORD PTR _n_rshift_bit_count$[ebp]
	shr	edx, cl
	mov	DWORD PTR _work$3[ebp], edx
	mov	eax, 4
	imul	ecx, eax, 10
	mov	edx, DWORD PTR _pp$[ebp]
	mov	eax, DWORD PTR [edx+ecx]
	mov	DWORD PTR _temp$4[ebp], eax
	mov	edx, DWORD PTR _temp$4[ebp]
	mov	ecx, DWORD PTR _n_lshift_bit_count$5[ebp]
	shl	edx, cl
	or	edx, DWORD PTR _work$3[ebp]
	mov	DWORD PTR _work$3[ebp], edx
	mov	eax, 4
	imul	ecx, eax, 10
	mov	edx, DWORD PTR _op$[ebp]
	mov	eax, DWORD PTR _work$3[ebp]
	mov	DWORD PTR [edx+ecx], eax

; 207  :             work = temp >> n_rshift_bit_count; temp = pp[11]; work |= temp << n_lshift_bit_count; op[11] = work;

	mov	edx, DWORD PTR _temp$4[ebp]
	mov	ecx, DWORD PTR _n_rshift_bit_count$[ebp]
	shr	edx, cl
	mov	DWORD PTR _work$3[ebp], edx
	mov	eax, 4
	imul	ecx, eax, 11
	mov	edx, DWORD PTR _pp$[ebp]
	mov	eax, DWORD PTR [edx+ecx]
	mov	DWORD PTR _temp$4[ebp], eax
	mov	edx, DWORD PTR _temp$4[ebp]
	mov	ecx, DWORD PTR _n_lshift_bit_count$5[ebp]
	shl	edx, cl
	or	edx, DWORD PTR _work$3[ebp]
	mov	DWORD PTR _work$3[ebp], edx
	mov	eax, 4
	imul	ecx, eax, 11
	mov	edx, DWORD PTR _op$[ebp]
	mov	eax, DWORD PTR _work$3[ebp]
	mov	DWORD PTR [edx+ecx], eax

; 208  :             work = temp >> n_rshift_bit_count; temp = pp[12]; work |= temp << n_lshift_bit_count; op[12] = work;

	mov	edx, DWORD PTR _temp$4[ebp]
	mov	ecx, DWORD PTR _n_rshift_bit_count$[ebp]
	shr	edx, cl
	mov	DWORD PTR _work$3[ebp], edx
	mov	eax, 4
	imul	ecx, eax, 12
	mov	edx, DWORD PTR _pp$[ebp]
	mov	eax, DWORD PTR [edx+ecx]
	mov	DWORD PTR _temp$4[ebp], eax
	mov	edx, DWORD PTR _temp$4[ebp]
	mov	ecx, DWORD PTR _n_lshift_bit_count$5[ebp]
	shl	edx, cl
	or	edx, DWORD PTR _work$3[ebp]
	mov	DWORD PTR _work$3[ebp], edx
	mov	eax, 4
	imul	ecx, eax, 12
	mov	edx, DWORD PTR _op$[ebp]
	mov	eax, DWORD PTR _work$3[ebp]
	mov	DWORD PTR [edx+ecx], eax

; 209  :             work = temp >> n_rshift_bit_count; temp = pp[13]; work |= temp << n_lshift_bit_count; op[13] = work;

	mov	edx, DWORD PTR _temp$4[ebp]
	mov	ecx, DWORD PTR _n_rshift_bit_count$[ebp]
	shr	edx, cl
	mov	DWORD PTR _work$3[ebp], edx
	mov	eax, 4
	imul	ecx, eax, 13
	mov	edx, DWORD PTR _pp$[ebp]
	mov	eax, DWORD PTR [edx+ecx]
	mov	DWORD PTR _temp$4[ebp], eax
	mov	edx, DWORD PTR _temp$4[ebp]
	mov	ecx, DWORD PTR _n_lshift_bit_count$5[ebp]
	shl	edx, cl
	or	edx, DWORD PTR _work$3[ebp]
	mov	DWORD PTR _work$3[ebp], edx
	mov	eax, 4
	imul	ecx, eax, 13
	mov	edx, DWORD PTR _op$[ebp]
	mov	eax, DWORD PTR _work$3[ebp]
	mov	DWORD PTR [edx+ecx], eax

; 210  :             work = temp >> n_rshift_bit_count; temp = pp[14]; work |= temp << n_lshift_bit_count; op[14] = work;

	mov	edx, DWORD PTR _temp$4[ebp]
	mov	ecx, DWORD PTR _n_rshift_bit_count$[ebp]
	shr	edx, cl
	mov	DWORD PTR _work$3[ebp], edx
	mov	eax, 4
	imul	ecx, eax, 14
	mov	edx, DWORD PTR _pp$[ebp]
	mov	eax, DWORD PTR [edx+ecx]
	mov	DWORD PTR _temp$4[ebp], eax
	mov	edx, DWORD PTR _temp$4[ebp]
	mov	ecx, DWORD PTR _n_lshift_bit_count$5[ebp]
	shl	edx, cl
	or	edx, DWORD PTR _work$3[ebp]
	mov	DWORD PTR _work$3[ebp], edx
	mov	eax, 4
	imul	ecx, eax, 14
	mov	edx, DWORD PTR _op$[ebp]
	mov	eax, DWORD PTR _work$3[ebp]
	mov	DWORD PTR [edx+ecx], eax

; 211  :             work = temp >> n_rshift_bit_count; temp = pp[15]; work |= temp << n_lshift_bit_count; op[15] = work;

	mov	edx, DWORD PTR _temp$4[ebp]
	mov	ecx, DWORD PTR _n_rshift_bit_count$[ebp]
	shr	edx, cl
	mov	DWORD PTR _work$3[ebp], edx
	mov	eax, 4
	imul	ecx, eax, 15
	mov	edx, DWORD PTR _pp$[ebp]
	mov	eax, DWORD PTR [edx+ecx]
	mov	DWORD PTR _temp$4[ebp], eax
	mov	edx, DWORD PTR _temp$4[ebp]
	mov	ecx, DWORD PTR _n_lshift_bit_count$5[ebp]
	shl	edx, cl
	or	edx, DWORD PTR _work$3[ebp]
	mov	DWORD PTR _work$3[ebp], edx
	mov	eax, 4
	imul	ecx, eax, 15
	mov	edx, DWORD PTR _op$[ebp]
	mov	eax, DWORD PTR _work$3[ebp]
	mov	DWORD PTR [edx+ecx], eax

; 212  :             work = temp >> n_rshift_bit_count; temp = pp[16]; work |= temp << n_lshift_bit_count; op[16] = work;

	mov	edx, DWORD PTR _temp$4[ebp]
	mov	ecx, DWORD PTR _n_rshift_bit_count$[ebp]
	shr	edx, cl
	mov	DWORD PTR _work$3[ebp], edx
	mov	eax, 4
	shl	eax, 4
	mov	ecx, DWORD PTR _pp$[ebp]
	mov	edx, DWORD PTR [ecx+eax]
	mov	DWORD PTR _temp$4[ebp], edx
	mov	eax, DWORD PTR _temp$4[ebp]
	mov	ecx, DWORD PTR _n_lshift_bit_count$5[ebp]
	shl	eax, cl
	or	eax, DWORD PTR _work$3[ebp]
	mov	DWORD PTR _work$3[ebp], eax
	mov	ecx, 4
	shl	ecx, 4
	mov	edx, DWORD PTR _op$[ebp]
	mov	eax, DWORD PTR _work$3[ebp]
	mov	DWORD PTR [edx+ecx], eax

; 213  :             work = temp >> n_rshift_bit_count; temp = pp[17]; work |= temp << n_lshift_bit_count; op[17] = work;

	mov	edx, DWORD PTR _temp$4[ebp]
	mov	ecx, DWORD PTR _n_rshift_bit_count$[ebp]
	shr	edx, cl
	mov	DWORD PTR _work$3[ebp], edx
	mov	eax, 4
	imul	ecx, eax, 17
	mov	edx, DWORD PTR _pp$[ebp]
	mov	eax, DWORD PTR [edx+ecx]
	mov	DWORD PTR _temp$4[ebp], eax
	mov	edx, DWORD PTR _temp$4[ebp]
	mov	ecx, DWORD PTR _n_lshift_bit_count$5[ebp]
	shl	edx, cl
	or	edx, DWORD PTR _work$3[ebp]
	mov	DWORD PTR _work$3[ebp], edx
	mov	eax, 4
	imul	ecx, eax, 17
	mov	edx, DWORD PTR _op$[ebp]
	mov	eax, DWORD PTR _work$3[ebp]
	mov	DWORD PTR [edx+ecx], eax

; 214  :             work = temp >> n_rshift_bit_count; temp = pp[18]; work |= temp << n_lshift_bit_count; op[18] = work;

	mov	edx, DWORD PTR _temp$4[ebp]
	mov	ecx, DWORD PTR _n_rshift_bit_count$[ebp]
	shr	edx, cl
	mov	DWORD PTR _work$3[ebp], edx
	mov	eax, 4
	imul	ecx, eax, 18
	mov	edx, DWORD PTR _pp$[ebp]
	mov	eax, DWORD PTR [edx+ecx]
	mov	DWORD PTR _temp$4[ebp], eax
	mov	edx, DWORD PTR _temp$4[ebp]
	mov	ecx, DWORD PTR _n_lshift_bit_count$5[ebp]
	shl	edx, cl
	or	edx, DWORD PTR _work$3[ebp]
	mov	DWORD PTR _work$3[ebp], edx
	mov	eax, 4
	imul	ecx, eax, 18
	mov	edx, DWORD PTR _op$[ebp]
	mov	eax, DWORD PTR _work$3[ebp]
	mov	DWORD PTR [edx+ecx], eax

; 215  :             work = temp >> n_rshift_bit_count; temp = pp[19]; work |= temp << n_lshift_bit_count; op[19] = work;

	mov	edx, DWORD PTR _temp$4[ebp]
	mov	ecx, DWORD PTR _n_rshift_bit_count$[ebp]
	shr	edx, cl
	mov	DWORD PTR _work$3[ebp], edx
	mov	eax, 4
	imul	ecx, eax, 19
	mov	edx, DWORD PTR _pp$[ebp]
	mov	eax, DWORD PTR [edx+ecx]
	mov	DWORD PTR _temp$4[ebp], eax
	mov	edx, DWORD PTR _temp$4[ebp]
	mov	ecx, DWORD PTR _n_lshift_bit_count$5[ebp]
	shl	edx, cl
	or	edx, DWORD PTR _work$3[ebp]
	mov	DWORD PTR _work$3[ebp], edx
	mov	eax, 4
	imul	ecx, eax, 19
	mov	edx, DWORD PTR _op$[ebp]
	mov	eax, DWORD PTR _work$3[ebp]
	mov	DWORD PTR [edx+ecx], eax

; 216  :             work = temp >> n_rshift_bit_count; temp = pp[20]; work |= temp << n_lshift_bit_count; op[20] = work;

	mov	edx, DWORD PTR _temp$4[ebp]
	mov	ecx, DWORD PTR _n_rshift_bit_count$[ebp]
	shr	edx, cl
	mov	DWORD PTR _work$3[ebp], edx
	mov	eax, 4
	imul	ecx, eax, 20
	mov	edx, DWORD PTR _pp$[ebp]
	mov	eax, DWORD PTR [edx+ecx]
	mov	DWORD PTR _temp$4[ebp], eax
	mov	edx, DWORD PTR _temp$4[ebp]
	mov	ecx, DWORD PTR _n_lshift_bit_count$5[ebp]
	shl	edx, cl
	or	edx, DWORD PTR _work$3[ebp]
	mov	DWORD PTR _work$3[ebp], edx
	mov	eax, 4
	imul	ecx, eax, 20
	mov	edx, DWORD PTR _op$[ebp]
	mov	eax, DWORD PTR _work$3[ebp]
	mov	DWORD PTR [edx+ecx], eax

; 217  :             work = temp >> n_rshift_bit_count; temp = pp[21]; work |= temp << n_lshift_bit_count; op[21] = work;

	mov	edx, DWORD PTR _temp$4[ebp]
	mov	ecx, DWORD PTR _n_rshift_bit_count$[ebp]
	shr	edx, cl
	mov	DWORD PTR _work$3[ebp], edx
	mov	eax, 4
	imul	ecx, eax, 21
	mov	edx, DWORD PTR _pp$[ebp]
	mov	eax, DWORD PTR [edx+ecx]
	mov	DWORD PTR _temp$4[ebp], eax
	mov	edx, DWORD PTR _temp$4[ebp]
	mov	ecx, DWORD PTR _n_lshift_bit_count$5[ebp]
	shl	edx, cl
	or	edx, DWORD PTR _work$3[ebp]
	mov	DWORD PTR _work$3[ebp], edx
	mov	eax, 4
	imul	ecx, eax, 21
	mov	edx, DWORD PTR _op$[ebp]
	mov	eax, DWORD PTR _work$3[ebp]
	mov	DWORD PTR [edx+ecx], eax

; 218  :             work = temp >> n_rshift_bit_count; temp = pp[22]; work |= temp << n_lshift_bit_count; op[22] = work;

	mov	edx, DWORD PTR _temp$4[ebp]
	mov	ecx, DWORD PTR _n_rshift_bit_count$[ebp]
	shr	edx, cl
	mov	DWORD PTR _work$3[ebp], edx
	mov	eax, 4
	imul	ecx, eax, 22
	mov	edx, DWORD PTR _pp$[ebp]
	mov	eax, DWORD PTR [edx+ecx]
	mov	DWORD PTR _temp$4[ebp], eax
	mov	edx, DWORD PTR _temp$4[ebp]
	mov	ecx, DWORD PTR _n_lshift_bit_count$5[ebp]
	shl	edx, cl
	or	edx, DWORD PTR _work$3[ebp]
	mov	DWORD PTR _work$3[ebp], edx
	mov	eax, 4
	imul	ecx, eax, 22
	mov	edx, DWORD PTR _op$[ebp]
	mov	eax, DWORD PTR _work$3[ebp]
	mov	DWORD PTR [edx+ecx], eax

; 219  :             work = temp >> n_rshift_bit_count; temp = pp[23]; work |= temp << n_lshift_bit_count; op[23] = work;

	mov	edx, DWORD PTR _temp$4[ebp]
	mov	ecx, DWORD PTR _n_rshift_bit_count$[ebp]
	shr	edx, cl
	mov	DWORD PTR _work$3[ebp], edx
	mov	eax, 4
	imul	ecx, eax, 23
	mov	edx, DWORD PTR _pp$[ebp]
	mov	eax, DWORD PTR [edx+ecx]
	mov	DWORD PTR _temp$4[ebp], eax
	mov	edx, DWORD PTR _temp$4[ebp]
	mov	ecx, DWORD PTR _n_lshift_bit_count$5[ebp]
	shl	edx, cl
	or	edx, DWORD PTR _work$3[ebp]
	mov	DWORD PTR _work$3[ebp], edx
	mov	eax, 4
	imul	ecx, eax, 23
	mov	edx, DWORD PTR _op$[ebp]
	mov	eax, DWORD PTR _work$3[ebp]
	mov	DWORD PTR [edx+ecx], eax

; 220  :             work = temp >> n_rshift_bit_count; temp = pp[24]; work |= temp << n_lshift_bit_count; op[24] = work;

	mov	edx, DWORD PTR _temp$4[ebp]
	mov	ecx, DWORD PTR _n_rshift_bit_count$[ebp]
	shr	edx, cl
	mov	DWORD PTR _work$3[ebp], edx
	mov	eax, 4
	imul	ecx, eax, 24
	mov	edx, DWORD PTR _pp$[ebp]
	mov	eax, DWORD PTR [edx+ecx]
	mov	DWORD PTR _temp$4[ebp], eax
	mov	edx, DWORD PTR _temp$4[ebp]
	mov	ecx, DWORD PTR _n_lshift_bit_count$5[ebp]
	shl	edx, cl
	or	edx, DWORD PTR _work$3[ebp]
	mov	DWORD PTR _work$3[ebp], edx
	mov	eax, 4
	imul	ecx, eax, 24
	mov	edx, DWORD PTR _op$[ebp]
	mov	eax, DWORD PTR _work$3[ebp]
	mov	DWORD PTR [edx+ecx], eax

; 221  :             work = temp >> n_rshift_bit_count; temp = pp[25]; work |= temp << n_lshift_bit_count; op[25] = work;

	mov	edx, DWORD PTR _temp$4[ebp]
	mov	ecx, DWORD PTR _n_rshift_bit_count$[ebp]
	shr	edx, cl
	mov	DWORD PTR _work$3[ebp], edx
	mov	eax, 4
	imul	ecx, eax, 25
	mov	edx, DWORD PTR _pp$[ebp]
	mov	eax, DWORD PTR [edx+ecx]
	mov	DWORD PTR _temp$4[ebp], eax
	mov	edx, DWORD PTR _temp$4[ebp]
	mov	ecx, DWORD PTR _n_lshift_bit_count$5[ebp]
	shl	edx, cl
	or	edx, DWORD PTR _work$3[ebp]
	mov	DWORD PTR _work$3[ebp], edx
	mov	eax, 4
	imul	ecx, eax, 25
	mov	edx, DWORD PTR _op$[ebp]
	mov	eax, DWORD PTR _work$3[ebp]
	mov	DWORD PTR [edx+ecx], eax

; 222  :             work = temp >> n_rshift_bit_count; temp = pp[26]; work |= temp << n_lshift_bit_count; op[26] = work;

	mov	edx, DWORD PTR _temp$4[ebp]
	mov	ecx, DWORD PTR _n_rshift_bit_count$[ebp]
	shr	edx, cl
	mov	DWORD PTR _work$3[ebp], edx
	mov	eax, 4
	imul	ecx, eax, 26
	mov	edx, DWORD PTR _pp$[ebp]
	mov	eax, DWORD PTR [edx+ecx]
	mov	DWORD PTR _temp$4[ebp], eax
	mov	edx, DWORD PTR _temp$4[ebp]
	mov	ecx, DWORD PTR _n_lshift_bit_count$5[ebp]
	shl	edx, cl
	or	edx, DWORD PTR _work$3[ebp]
	mov	DWORD PTR _work$3[ebp], edx
	mov	eax, 4
	imul	ecx, eax, 26
	mov	edx, DWORD PTR _op$[ebp]
	mov	eax, DWORD PTR _work$3[ebp]
	mov	DWORD PTR [edx+ecx], eax

; 223  :             work = temp >> n_rshift_bit_count; temp = pp[27]; work |= temp << n_lshift_bit_count; op[27] = work;

	mov	edx, DWORD PTR _temp$4[ebp]
	mov	ecx, DWORD PTR _n_rshift_bit_count$[ebp]
	shr	edx, cl
	mov	DWORD PTR _work$3[ebp], edx
	mov	eax, 4
	imul	ecx, eax, 27
	mov	edx, DWORD PTR _pp$[ebp]
	mov	eax, DWORD PTR [edx+ecx]
	mov	DWORD PTR _temp$4[ebp], eax
	mov	edx, DWORD PTR _temp$4[ebp]
	mov	ecx, DWORD PTR _n_lshift_bit_count$5[ebp]
	shl	edx, cl
	or	edx, DWORD PTR _work$3[ebp]
	mov	DWORD PTR _work$3[ebp], edx
	mov	eax, 4
	imul	ecx, eax, 27
	mov	edx, DWORD PTR _op$[ebp]
	mov	eax, DWORD PTR _work$3[ebp]
	mov	DWORD PTR [edx+ecx], eax

; 224  :             work = temp >> n_rshift_bit_count; temp = pp[28]; work |= temp << n_lshift_bit_count; op[28] = work;

	mov	edx, DWORD PTR _temp$4[ebp]
	mov	ecx, DWORD PTR _n_rshift_bit_count$[ebp]
	shr	edx, cl
	mov	DWORD PTR _work$3[ebp], edx
	mov	eax, 4
	imul	ecx, eax, 28
	mov	edx, DWORD PTR _pp$[ebp]
	mov	eax, DWORD PTR [edx+ecx]
	mov	DWORD PTR _temp$4[ebp], eax
	mov	edx, DWORD PTR _temp$4[ebp]
	mov	ecx, DWORD PTR _n_lshift_bit_count$5[ebp]
	shl	edx, cl
	or	edx, DWORD PTR _work$3[ebp]
	mov	DWORD PTR _work$3[ebp], edx
	mov	eax, 4
	imul	ecx, eax, 28
	mov	edx, DWORD PTR _op$[ebp]
	mov	eax, DWORD PTR _work$3[ebp]
	mov	DWORD PTR [edx+ecx], eax

; 225  :             work = temp >> n_rshift_bit_count; temp = pp[29]; work |= temp << n_lshift_bit_count; op[29] = work;

	mov	edx, DWORD PTR _temp$4[ebp]
	mov	ecx, DWORD PTR _n_rshift_bit_count$[ebp]
	shr	edx, cl
	mov	DWORD PTR _work$3[ebp], edx
	mov	eax, 4
	imul	ecx, eax, 29
	mov	edx, DWORD PTR _pp$[ebp]
	mov	eax, DWORD PTR [edx+ecx]
	mov	DWORD PTR _temp$4[ebp], eax
	mov	edx, DWORD PTR _temp$4[ebp]
	mov	ecx, DWORD PTR _n_lshift_bit_count$5[ebp]
	shl	edx, cl
	or	edx, DWORD PTR _work$3[ebp]
	mov	DWORD PTR _work$3[ebp], edx
	mov	eax, 4
	imul	ecx, eax, 29
	mov	edx, DWORD PTR _op$[ebp]
	mov	eax, DWORD PTR _work$3[ebp]
	mov	DWORD PTR [edx+ecx], eax

; 226  :             work = temp >> n_rshift_bit_count; temp = pp[30]; work |= temp << n_lshift_bit_count; op[30] = work;

	mov	edx, DWORD PTR _temp$4[ebp]
	mov	ecx, DWORD PTR _n_rshift_bit_count$[ebp]
	shr	edx, cl
	mov	DWORD PTR _work$3[ebp], edx
	mov	eax, 4
	imul	ecx, eax, 30
	mov	edx, DWORD PTR _pp$[ebp]
	mov	eax, DWORD PTR [edx+ecx]
	mov	DWORD PTR _temp$4[ebp], eax
	mov	edx, DWORD PTR _temp$4[ebp]
	mov	ecx, DWORD PTR _n_lshift_bit_count$5[ebp]
	shl	edx, cl
	or	edx, DWORD PTR _work$3[ebp]
	mov	DWORD PTR _work$3[ebp], edx
	mov	eax, 4
	imul	ecx, eax, 30
	mov	edx, DWORD PTR _op$[ebp]
	mov	eax, DWORD PTR _work$3[ebp]
	mov	DWORD PTR [edx+ecx], eax

; 227  :             work = temp >> n_rshift_bit_count; temp = pp[31]; work |= temp << n_lshift_bit_count; op[31] = work;

	mov	edx, DWORD PTR _temp$4[ebp]
	mov	ecx, DWORD PTR _n_rshift_bit_count$[ebp]
	shr	edx, cl
	mov	DWORD PTR _work$3[ebp], edx
	mov	eax, 4
	imul	ecx, eax, 31
	mov	edx, DWORD PTR _pp$[ebp]
	mov	eax, DWORD PTR [edx+ecx]
	mov	DWORD PTR _temp$4[ebp], eax
	mov	edx, DWORD PTR _temp$4[ebp]
	mov	ecx, DWORD PTR _n_lshift_bit_count$5[ebp]
	shl	edx, cl
	or	edx, DWORD PTR _work$3[ebp]
	mov	DWORD PTR _work$3[ebp], edx
	mov	eax, 4
	imul	ecx, eax, 31
	mov	edx, DWORD PTR _op$[ebp]
	mov	eax, DWORD PTR _work$3[ebp]
	mov	DWORD PTR [edx+ecx], eax

; 228  :             --count;

	mov	ecx, DWORD PTR _count$1[ebp]
	sub	ecx, 1
	mov	DWORD PTR _count$1[ebp], ecx

; 229  :             pp += 32;

	mov	edx, DWORD PTR _pp$[ebp]
	add	edx, 128				; 00000080H
	mov	DWORD PTR _pp$[ebp], edx

; 230  :             op += 32;

	mov	eax, DWORD PTR _op$[ebp]
	add	eax, 128				; 00000080H
	mov	DWORD PTR _op$[ebp], eax

; 231  :         }

	jmp	$LN2@RightShift
$LN3@RightShift:

; 232  : 
; 233  :         if (t_count & 0x10)

	mov	ecx, DWORD PTR _t_count$2[ebp]
	and	ecx, 16					; 00000010H
	je	$LN6@RightShift

; 234  :         {
; 235  :             work = temp >> n_rshift_bit_count; temp = pp[0]; work |= temp << n_lshift_bit_count; op[0] = work;

	mov	edx, DWORD PTR _temp$4[ebp]
	mov	ecx, DWORD PTR _n_rshift_bit_count$[ebp]
	shr	edx, cl
	mov	DWORD PTR _work$3[ebp], edx
	mov	eax, 4
	imul	ecx, eax, 0
	mov	edx, DWORD PTR _pp$[ebp]
	mov	eax, DWORD PTR [edx+ecx]
	mov	DWORD PTR _temp$4[ebp], eax
	mov	edx, DWORD PTR _temp$4[ebp]
	mov	ecx, DWORD PTR _n_lshift_bit_count$5[ebp]
	shl	edx, cl
	or	edx, DWORD PTR _work$3[ebp]
	mov	DWORD PTR _work$3[ebp], edx
	mov	eax, 4
	imul	ecx, eax, 0
	mov	edx, DWORD PTR _op$[ebp]
	mov	eax, DWORD PTR _work$3[ebp]
	mov	DWORD PTR [edx+ecx], eax

; 236  :             work = temp >> n_rshift_bit_count; temp = pp[1]; work |= temp << n_lshift_bit_count; op[1] = work;

	mov	edx, DWORD PTR _temp$4[ebp]
	mov	ecx, DWORD PTR _n_rshift_bit_count$[ebp]
	shr	edx, cl
	mov	DWORD PTR _work$3[ebp], edx
	mov	eax, 4
	shl	eax, 0
	mov	ecx, DWORD PTR _pp$[ebp]
	mov	edx, DWORD PTR [ecx+eax]
	mov	DWORD PTR _temp$4[ebp], edx
	mov	eax, DWORD PTR _temp$4[ebp]
	mov	ecx, DWORD PTR _n_lshift_bit_count$5[ebp]
	shl	eax, cl
	or	eax, DWORD PTR _work$3[ebp]
	mov	DWORD PTR _work$3[ebp], eax
	mov	ecx, 4
	shl	ecx, 0
	mov	edx, DWORD PTR _op$[ebp]
	mov	eax, DWORD PTR _work$3[ebp]
	mov	DWORD PTR [edx+ecx], eax

; 237  :             work = temp >> n_rshift_bit_count; temp = pp[2]; work |= temp << n_lshift_bit_count; op[2] = work;

	mov	edx, DWORD PTR _temp$4[ebp]
	mov	ecx, DWORD PTR _n_rshift_bit_count$[ebp]
	shr	edx, cl
	mov	DWORD PTR _work$3[ebp], edx
	mov	eax, 4
	shl	eax, 1
	mov	ecx, DWORD PTR _pp$[ebp]
	mov	edx, DWORD PTR [ecx+eax]
	mov	DWORD PTR _temp$4[ebp], edx
	mov	eax, DWORD PTR _temp$4[ebp]
	mov	ecx, DWORD PTR _n_lshift_bit_count$5[ebp]
	shl	eax, cl
	or	eax, DWORD PTR _work$3[ebp]
	mov	DWORD PTR _work$3[ebp], eax
	mov	ecx, 4
	shl	ecx, 1
	mov	edx, DWORD PTR _op$[ebp]
	mov	eax, DWORD PTR _work$3[ebp]
	mov	DWORD PTR [edx+ecx], eax

; 238  :             work = temp >> n_rshift_bit_count; temp = pp[3]; work |= temp << n_lshift_bit_count; op[3] = work;

	mov	edx, DWORD PTR _temp$4[ebp]
	mov	ecx, DWORD PTR _n_rshift_bit_count$[ebp]
	shr	edx, cl
	mov	DWORD PTR _work$3[ebp], edx
	mov	eax, 4
	imul	ecx, eax, 3
	mov	edx, DWORD PTR _pp$[ebp]
	mov	eax, DWORD PTR [edx+ecx]
	mov	DWORD PTR _temp$4[ebp], eax
	mov	edx, DWORD PTR _temp$4[ebp]
	mov	ecx, DWORD PTR _n_lshift_bit_count$5[ebp]
	shl	edx, cl
	or	edx, DWORD PTR _work$3[ebp]
	mov	DWORD PTR _work$3[ebp], edx
	mov	eax, 4
	imul	ecx, eax, 3
	mov	edx, DWORD PTR _op$[ebp]
	mov	eax, DWORD PTR _work$3[ebp]
	mov	DWORD PTR [edx+ecx], eax

; 239  :             work = temp >> n_rshift_bit_count; temp = pp[4]; work |= temp << n_lshift_bit_count; op[4] = work;

	mov	edx, DWORD PTR _temp$4[ebp]
	mov	ecx, DWORD PTR _n_rshift_bit_count$[ebp]
	shr	edx, cl
	mov	DWORD PTR _work$3[ebp], edx
	mov	eax, 4
	shl	eax, 2
	mov	ecx, DWORD PTR _pp$[ebp]
	mov	edx, DWORD PTR [ecx+eax]
	mov	DWORD PTR _temp$4[ebp], edx
	mov	eax, DWORD PTR _temp$4[ebp]
	mov	ecx, DWORD PTR _n_lshift_bit_count$5[ebp]
	shl	eax, cl
	or	eax, DWORD PTR _work$3[ebp]
	mov	DWORD PTR _work$3[ebp], eax
	mov	ecx, 4
	shl	ecx, 2
	mov	edx, DWORD PTR _op$[ebp]
	mov	eax, DWORD PTR _work$3[ebp]
	mov	DWORD PTR [edx+ecx], eax

; 240  :             work = temp >> n_rshift_bit_count; temp = pp[5]; work |= temp << n_lshift_bit_count; op[5] = work;

	mov	edx, DWORD PTR _temp$4[ebp]
	mov	ecx, DWORD PTR _n_rshift_bit_count$[ebp]
	shr	edx, cl
	mov	DWORD PTR _work$3[ebp], edx
	mov	eax, 4
	imul	ecx, eax, 5
	mov	edx, DWORD PTR _pp$[ebp]
	mov	eax, DWORD PTR [edx+ecx]
	mov	DWORD PTR _temp$4[ebp], eax
	mov	edx, DWORD PTR _temp$4[ebp]
	mov	ecx, DWORD PTR _n_lshift_bit_count$5[ebp]
	shl	edx, cl
	or	edx, DWORD PTR _work$3[ebp]
	mov	DWORD PTR _work$3[ebp], edx
	mov	eax, 4
	imul	ecx, eax, 5
	mov	edx, DWORD PTR _op$[ebp]
	mov	eax, DWORD PTR _work$3[ebp]
	mov	DWORD PTR [edx+ecx], eax

; 241  :             work = temp >> n_rshift_bit_count; temp = pp[6]; work |= temp << n_lshift_bit_count; op[6] = work;

	mov	edx, DWORD PTR _temp$4[ebp]
	mov	ecx, DWORD PTR _n_rshift_bit_count$[ebp]
	shr	edx, cl
	mov	DWORD PTR _work$3[ebp], edx
	mov	eax, 4
	imul	ecx, eax, 6
	mov	edx, DWORD PTR _pp$[ebp]
	mov	eax, DWORD PTR [edx+ecx]
	mov	DWORD PTR _temp$4[ebp], eax
	mov	edx, DWORD PTR _temp$4[ebp]
	mov	ecx, DWORD PTR _n_lshift_bit_count$5[ebp]
	shl	edx, cl
	or	edx, DWORD PTR _work$3[ebp]
	mov	DWORD PTR _work$3[ebp], edx
	mov	eax, 4
	imul	ecx, eax, 6
	mov	edx, DWORD PTR _op$[ebp]
	mov	eax, DWORD PTR _work$3[ebp]
	mov	DWORD PTR [edx+ecx], eax

; 242  :             work = temp >> n_rshift_bit_count; temp = pp[7]; work |= temp << n_lshift_bit_count; op[7] = work;

	mov	edx, DWORD PTR _temp$4[ebp]
	mov	ecx, DWORD PTR _n_rshift_bit_count$[ebp]
	shr	edx, cl
	mov	DWORD PTR _work$3[ebp], edx
	mov	eax, 4
	imul	ecx, eax, 7
	mov	edx, DWORD PTR _pp$[ebp]
	mov	eax, DWORD PTR [edx+ecx]
	mov	DWORD PTR _temp$4[ebp], eax
	mov	edx, DWORD PTR _temp$4[ebp]
	mov	ecx, DWORD PTR _n_lshift_bit_count$5[ebp]
	shl	edx, cl
	or	edx, DWORD PTR _work$3[ebp]
	mov	DWORD PTR _work$3[ebp], edx
	mov	eax, 4
	imul	ecx, eax, 7
	mov	edx, DWORD PTR _op$[ebp]
	mov	eax, DWORD PTR _work$3[ebp]
	mov	DWORD PTR [edx+ecx], eax

; 243  :             work = temp >> n_rshift_bit_count; temp = pp[8]; work |= temp << n_lshift_bit_count; op[8] = work;

	mov	edx, DWORD PTR _temp$4[ebp]
	mov	ecx, DWORD PTR _n_rshift_bit_count$[ebp]
	shr	edx, cl
	mov	DWORD PTR _work$3[ebp], edx
	mov	eax, 4
	shl	eax, 3
	mov	ecx, DWORD PTR _pp$[ebp]
	mov	edx, DWORD PTR [ecx+eax]
	mov	DWORD PTR _temp$4[ebp], edx
	mov	eax, DWORD PTR _temp$4[ebp]
	mov	ecx, DWORD PTR _n_lshift_bit_count$5[ebp]
	shl	eax, cl
	or	eax, DWORD PTR _work$3[ebp]
	mov	DWORD PTR _work$3[ebp], eax
	mov	ecx, 4
	shl	ecx, 3
	mov	edx, DWORD PTR _op$[ebp]
	mov	eax, DWORD PTR _work$3[ebp]
	mov	DWORD PTR [edx+ecx], eax

; 244  :             work = temp >> n_rshift_bit_count; temp = pp[9]; work |= temp << n_lshift_bit_count; op[9] = work;

	mov	edx, DWORD PTR _temp$4[ebp]
	mov	ecx, DWORD PTR _n_rshift_bit_count$[ebp]
	shr	edx, cl
	mov	DWORD PTR _work$3[ebp], edx
	mov	eax, 4
	imul	ecx, eax, 9
	mov	edx, DWORD PTR _pp$[ebp]
	mov	eax, DWORD PTR [edx+ecx]
	mov	DWORD PTR _temp$4[ebp], eax
	mov	edx, DWORD PTR _temp$4[ebp]
	mov	ecx, DWORD PTR _n_lshift_bit_count$5[ebp]
	shl	edx, cl
	or	edx, DWORD PTR _work$3[ebp]
	mov	DWORD PTR _work$3[ebp], edx
	mov	eax, 4
	imul	ecx, eax, 9
	mov	edx, DWORD PTR _op$[ebp]
	mov	eax, DWORD PTR _work$3[ebp]
	mov	DWORD PTR [edx+ecx], eax

; 245  :             work = temp >> n_rshift_bit_count; temp = pp[10]; work |= temp << n_lshift_bit_count; op[10] = work;

	mov	edx, DWORD PTR _temp$4[ebp]
	mov	ecx, DWORD PTR _n_rshift_bit_count$[ebp]
	shr	edx, cl
	mov	DWORD PTR _work$3[ebp], edx
	mov	eax, 4
	imul	ecx, eax, 10
	mov	edx, DWORD PTR _pp$[ebp]
	mov	eax, DWORD PTR [edx+ecx]
	mov	DWORD PTR _temp$4[ebp], eax
	mov	edx, DWORD PTR _temp$4[ebp]
	mov	ecx, DWORD PTR _n_lshift_bit_count$5[ebp]
	shl	edx, cl
	or	edx, DWORD PTR _work$3[ebp]
	mov	DWORD PTR _work$3[ebp], edx
	mov	eax, 4
	imul	ecx, eax, 10
	mov	edx, DWORD PTR _op$[ebp]
	mov	eax, DWORD PTR _work$3[ebp]
	mov	DWORD PTR [edx+ecx], eax

; 246  :             work = temp >> n_rshift_bit_count; temp = pp[11]; work |= temp << n_lshift_bit_count; op[11] = work;

	mov	edx, DWORD PTR _temp$4[ebp]
	mov	ecx, DWORD PTR _n_rshift_bit_count$[ebp]
	shr	edx, cl
	mov	DWORD PTR _work$3[ebp], edx
	mov	eax, 4
	imul	ecx, eax, 11
	mov	edx, DWORD PTR _pp$[ebp]
	mov	eax, DWORD PTR [edx+ecx]
	mov	DWORD PTR _temp$4[ebp], eax
	mov	edx, DWORD PTR _temp$4[ebp]
	mov	ecx, DWORD PTR _n_lshift_bit_count$5[ebp]
	shl	edx, cl
	or	edx, DWORD PTR _work$3[ebp]
	mov	DWORD PTR _work$3[ebp], edx
	mov	eax, 4
	imul	ecx, eax, 11
	mov	edx, DWORD PTR _op$[ebp]
	mov	eax, DWORD PTR _work$3[ebp]
	mov	DWORD PTR [edx+ecx], eax

; 247  :             work = temp >> n_rshift_bit_count; temp = pp[12]; work |= temp << n_lshift_bit_count; op[12] = work;

	mov	edx, DWORD PTR _temp$4[ebp]
	mov	ecx, DWORD PTR _n_rshift_bit_count$[ebp]
	shr	edx, cl
	mov	DWORD PTR _work$3[ebp], edx
	mov	eax, 4
	imul	ecx, eax, 12
	mov	edx, DWORD PTR _pp$[ebp]
	mov	eax, DWORD PTR [edx+ecx]
	mov	DWORD PTR _temp$4[ebp], eax
	mov	edx, DWORD PTR _temp$4[ebp]
	mov	ecx, DWORD PTR _n_lshift_bit_count$5[ebp]
	shl	edx, cl
	or	edx, DWORD PTR _work$3[ebp]
	mov	DWORD PTR _work$3[ebp], edx
	mov	eax, 4
	imul	ecx, eax, 12
	mov	edx, DWORD PTR _op$[ebp]
	mov	eax, DWORD PTR _work$3[ebp]
	mov	DWORD PTR [edx+ecx], eax

; 248  :             work = temp >> n_rshift_bit_count; temp = pp[13]; work |= temp << n_lshift_bit_count; op[13] = work;

	mov	edx, DWORD PTR _temp$4[ebp]
	mov	ecx, DWORD PTR _n_rshift_bit_count$[ebp]
	shr	edx, cl
	mov	DWORD PTR _work$3[ebp], edx
	mov	eax, 4
	imul	ecx, eax, 13
	mov	edx, DWORD PTR _pp$[ebp]
	mov	eax, DWORD PTR [edx+ecx]
	mov	DWORD PTR _temp$4[ebp], eax
	mov	edx, DWORD PTR _temp$4[ebp]
	mov	ecx, DWORD PTR _n_lshift_bit_count$5[ebp]
	shl	edx, cl
	or	edx, DWORD PTR _work$3[ebp]
	mov	DWORD PTR _work$3[ebp], edx
	mov	eax, 4
	imul	ecx, eax, 13
	mov	edx, DWORD PTR _op$[ebp]
	mov	eax, DWORD PTR _work$3[ebp]
	mov	DWORD PTR [edx+ecx], eax

; 249  :             work = temp >> n_rshift_bit_count; temp = pp[14]; work |= temp << n_lshift_bit_count; op[14] = work;

	mov	edx, DWORD PTR _temp$4[ebp]
	mov	ecx, DWORD PTR _n_rshift_bit_count$[ebp]
	shr	edx, cl
	mov	DWORD PTR _work$3[ebp], edx
	mov	eax, 4
	imul	ecx, eax, 14
	mov	edx, DWORD PTR _pp$[ebp]
	mov	eax, DWORD PTR [edx+ecx]
	mov	DWORD PTR _temp$4[ebp], eax
	mov	edx, DWORD PTR _temp$4[ebp]
	mov	ecx, DWORD PTR _n_lshift_bit_count$5[ebp]
	shl	edx, cl
	or	edx, DWORD PTR _work$3[ebp]
	mov	DWORD PTR _work$3[ebp], edx
	mov	eax, 4
	imul	ecx, eax, 14
	mov	edx, DWORD PTR _op$[ebp]
	mov	eax, DWORD PTR _work$3[ebp]
	mov	DWORD PTR [edx+ecx], eax

; 250  :             work = temp >> n_rshift_bit_count; temp = pp[15]; work |= temp << n_lshift_bit_count; op[15] = work;

	mov	edx, DWORD PTR _temp$4[ebp]
	mov	ecx, DWORD PTR _n_rshift_bit_count$[ebp]
	shr	edx, cl
	mov	DWORD PTR _work$3[ebp], edx
	mov	eax, 4
	imul	ecx, eax, 15
	mov	edx, DWORD PTR _pp$[ebp]
	mov	eax, DWORD PTR [edx+ecx]
	mov	DWORD PTR _temp$4[ebp], eax
	mov	edx, DWORD PTR _temp$4[ebp]
	mov	ecx, DWORD PTR _n_lshift_bit_count$5[ebp]
	shl	edx, cl
	or	edx, DWORD PTR _work$3[ebp]
	mov	DWORD PTR _work$3[ebp], edx
	mov	eax, 4
	imul	ecx, eax, 15
	mov	edx, DWORD PTR _op$[ebp]
	mov	eax, DWORD PTR _work$3[ebp]
	mov	DWORD PTR [edx+ecx], eax

; 251  :             pp += 16;

	mov	ecx, DWORD PTR _pp$[ebp]
	add	ecx, 64					; 00000040H
	mov	DWORD PTR _pp$[ebp], ecx

; 252  :             op += 16;

	mov	edx, DWORD PTR _op$[ebp]
	add	edx, 64					; 00000040H
	mov	DWORD PTR _op$[ebp], edx
$LN6@RightShift:

; 253  :         }
; 254  : 
; 255  :         if (t_count & 0x8)

	mov	eax, DWORD PTR _t_count$2[ebp]
	and	eax, 8
	je	$LN7@RightShift

; 256  :         {
; 257  :             work = temp >> n_rshift_bit_count; temp = pp[0]; work |= temp << n_lshift_bit_count; op[0] = work;

	mov	edx, DWORD PTR _temp$4[ebp]
	mov	ecx, DWORD PTR _n_rshift_bit_count$[ebp]
	shr	edx, cl
	mov	DWORD PTR _work$3[ebp], edx
	mov	eax, 4
	imul	ecx, eax, 0
	mov	edx, DWORD PTR _pp$[ebp]
	mov	eax, DWORD PTR [edx+ecx]
	mov	DWORD PTR _temp$4[ebp], eax
	mov	edx, DWORD PTR _temp$4[ebp]
	mov	ecx, DWORD PTR _n_lshift_bit_count$5[ebp]
	shl	edx, cl
	or	edx, DWORD PTR _work$3[ebp]
	mov	DWORD PTR _work$3[ebp], edx
	mov	eax, 4
	imul	ecx, eax, 0
	mov	edx, DWORD PTR _op$[ebp]
	mov	eax, DWORD PTR _work$3[ebp]
	mov	DWORD PTR [edx+ecx], eax

; 258  :             work = temp >> n_rshift_bit_count; temp = pp[1]; work |= temp << n_lshift_bit_count; op[1] = work;

	mov	edx, DWORD PTR _temp$4[ebp]
	mov	ecx, DWORD PTR _n_rshift_bit_count$[ebp]
	shr	edx, cl
	mov	DWORD PTR _work$3[ebp], edx
	mov	eax, 4
	shl	eax, 0
	mov	ecx, DWORD PTR _pp$[ebp]
	mov	edx, DWORD PTR [ecx+eax]
	mov	DWORD PTR _temp$4[ebp], edx
	mov	eax, DWORD PTR _temp$4[ebp]
	mov	ecx, DWORD PTR _n_lshift_bit_count$5[ebp]
	shl	eax, cl
	or	eax, DWORD PTR _work$3[ebp]
	mov	DWORD PTR _work$3[ebp], eax
	mov	ecx, 4
	shl	ecx, 0
	mov	edx, DWORD PTR _op$[ebp]
	mov	eax, DWORD PTR _work$3[ebp]
	mov	DWORD PTR [edx+ecx], eax

; 259  :             work = temp >> n_rshift_bit_count; temp = pp[2]; work |= temp << n_lshift_bit_count; op[2] = work;

	mov	edx, DWORD PTR _temp$4[ebp]
	mov	ecx, DWORD PTR _n_rshift_bit_count$[ebp]
	shr	edx, cl
	mov	DWORD PTR _work$3[ebp], edx
	mov	eax, 4
	shl	eax, 1
	mov	ecx, DWORD PTR _pp$[ebp]
	mov	edx, DWORD PTR [ecx+eax]
	mov	DWORD PTR _temp$4[ebp], edx
	mov	eax, DWORD PTR _temp$4[ebp]
	mov	ecx, DWORD PTR _n_lshift_bit_count$5[ebp]
	shl	eax, cl
	or	eax, DWORD PTR _work$3[ebp]
	mov	DWORD PTR _work$3[ebp], eax
	mov	ecx, 4
	shl	ecx, 1
	mov	edx, DWORD PTR _op$[ebp]
	mov	eax, DWORD PTR _work$3[ebp]
	mov	DWORD PTR [edx+ecx], eax

; 260  :             work = temp >> n_rshift_bit_count; temp = pp[3]; work |= temp << n_lshift_bit_count; op[3] = work;

	mov	edx, DWORD PTR _temp$4[ebp]
	mov	ecx, DWORD PTR _n_rshift_bit_count$[ebp]
	shr	edx, cl
	mov	DWORD PTR _work$3[ebp], edx
	mov	eax, 4
	imul	ecx, eax, 3
	mov	edx, DWORD PTR _pp$[ebp]
	mov	eax, DWORD PTR [edx+ecx]
	mov	DWORD PTR _temp$4[ebp], eax
	mov	edx, DWORD PTR _temp$4[ebp]
	mov	ecx, DWORD PTR _n_lshift_bit_count$5[ebp]
	shl	edx, cl
	or	edx, DWORD PTR _work$3[ebp]
	mov	DWORD PTR _work$3[ebp], edx
	mov	eax, 4
	imul	ecx, eax, 3
	mov	edx, DWORD PTR _op$[ebp]
	mov	eax, DWORD PTR _work$3[ebp]
	mov	DWORD PTR [edx+ecx], eax

; 261  :             work = temp >> n_rshift_bit_count; temp = pp[4]; work |= temp << n_lshift_bit_count; op[4] = work;

	mov	edx, DWORD PTR _temp$4[ebp]
	mov	ecx, DWORD PTR _n_rshift_bit_count$[ebp]
	shr	edx, cl
	mov	DWORD PTR _work$3[ebp], edx
	mov	eax, 4
	shl	eax, 2
	mov	ecx, DWORD PTR _pp$[ebp]
	mov	edx, DWORD PTR [ecx+eax]
	mov	DWORD PTR _temp$4[ebp], edx
	mov	eax, DWORD PTR _temp$4[ebp]
	mov	ecx, DWORD PTR _n_lshift_bit_count$5[ebp]
	shl	eax, cl
	or	eax, DWORD PTR _work$3[ebp]
	mov	DWORD PTR _work$3[ebp], eax
	mov	ecx, 4
	shl	ecx, 2
	mov	edx, DWORD PTR _op$[ebp]
	mov	eax, DWORD PTR _work$3[ebp]
	mov	DWORD PTR [edx+ecx], eax

; 262  :             work = temp >> n_rshift_bit_count; temp = pp[5]; work |= temp << n_lshift_bit_count; op[5] = work;

	mov	edx, DWORD PTR _temp$4[ebp]
	mov	ecx, DWORD PTR _n_rshift_bit_count$[ebp]
	shr	edx, cl
	mov	DWORD PTR _work$3[ebp], edx
	mov	eax, 4
	imul	ecx, eax, 5
	mov	edx, DWORD PTR _pp$[ebp]
	mov	eax, DWORD PTR [edx+ecx]
	mov	DWORD PTR _temp$4[ebp], eax
	mov	edx, DWORD PTR _temp$4[ebp]
	mov	ecx, DWORD PTR _n_lshift_bit_count$5[ebp]
	shl	edx, cl
	or	edx, DWORD PTR _work$3[ebp]
	mov	DWORD PTR _work$3[ebp], edx
	mov	eax, 4
	imul	ecx, eax, 5
	mov	edx, DWORD PTR _op$[ebp]
	mov	eax, DWORD PTR _work$3[ebp]
	mov	DWORD PTR [edx+ecx], eax

; 263  :             work = temp >> n_rshift_bit_count; temp = pp[6]; work |= temp << n_lshift_bit_count; op[6] = work;

	mov	edx, DWORD PTR _temp$4[ebp]
	mov	ecx, DWORD PTR _n_rshift_bit_count$[ebp]
	shr	edx, cl
	mov	DWORD PTR _work$3[ebp], edx
	mov	eax, 4
	imul	ecx, eax, 6
	mov	edx, DWORD PTR _pp$[ebp]
	mov	eax, DWORD PTR [edx+ecx]
	mov	DWORD PTR _temp$4[ebp], eax
	mov	edx, DWORD PTR _temp$4[ebp]
	mov	ecx, DWORD PTR _n_lshift_bit_count$5[ebp]
	shl	edx, cl
	or	edx, DWORD PTR _work$3[ebp]
	mov	DWORD PTR _work$3[ebp], edx
	mov	eax, 4
	imul	ecx, eax, 6
	mov	edx, DWORD PTR _op$[ebp]
	mov	eax, DWORD PTR _work$3[ebp]
	mov	DWORD PTR [edx+ecx], eax

; 264  :             work = temp >> n_rshift_bit_count; temp = pp[7]; work |= temp << n_lshift_bit_count; op[7] = work;

	mov	edx, DWORD PTR _temp$4[ebp]
	mov	ecx, DWORD PTR _n_rshift_bit_count$[ebp]
	shr	edx, cl
	mov	DWORD PTR _work$3[ebp], edx
	mov	eax, 4
	imul	ecx, eax, 7
	mov	edx, DWORD PTR _pp$[ebp]
	mov	eax, DWORD PTR [edx+ecx]
	mov	DWORD PTR _temp$4[ebp], eax
	mov	edx, DWORD PTR _temp$4[ebp]
	mov	ecx, DWORD PTR _n_lshift_bit_count$5[ebp]
	shl	edx, cl
	or	edx, DWORD PTR _work$3[ebp]
	mov	DWORD PTR _work$3[ebp], edx
	mov	eax, 4
	imul	ecx, eax, 7
	mov	edx, DWORD PTR _op$[ebp]
	mov	eax, DWORD PTR _work$3[ebp]
	mov	DWORD PTR [edx+ecx], eax

; 265  :             pp += 8;

	mov	ecx, DWORD PTR _pp$[ebp]
	add	ecx, 32					; 00000020H
	mov	DWORD PTR _pp$[ebp], ecx

; 266  :             op += 8;

	mov	edx, DWORD PTR _op$[ebp]
	add	edx, 32					; 00000020H
	mov	DWORD PTR _op$[ebp], edx
$LN7@RightShift:

; 267  :         }
; 268  : 
; 269  :         if (t_count & 0x4)

	mov	eax, DWORD PTR _t_count$2[ebp]
	and	eax, 4
	je	$LN8@RightShift

; 270  :         {
; 271  :             work = temp >> n_rshift_bit_count; temp = pp[0]; work |= temp << n_lshift_bit_count; op[0] = work;

	mov	edx, DWORD PTR _temp$4[ebp]
	mov	ecx, DWORD PTR _n_rshift_bit_count$[ebp]
	shr	edx, cl
	mov	DWORD PTR _work$3[ebp], edx
	mov	eax, 4
	imul	ecx, eax, 0
	mov	edx, DWORD PTR _pp$[ebp]
	mov	eax, DWORD PTR [edx+ecx]
	mov	DWORD PTR _temp$4[ebp], eax
	mov	edx, DWORD PTR _temp$4[ebp]
	mov	ecx, DWORD PTR _n_lshift_bit_count$5[ebp]
	shl	edx, cl
	or	edx, DWORD PTR _work$3[ebp]
	mov	DWORD PTR _work$3[ebp], edx
	mov	eax, 4
	imul	ecx, eax, 0
	mov	edx, DWORD PTR _op$[ebp]
	mov	eax, DWORD PTR _work$3[ebp]
	mov	DWORD PTR [edx+ecx], eax

; 272  :             work = temp >> n_rshift_bit_count; temp = pp[1]; work |= temp << n_lshift_bit_count; op[1] = work;

	mov	edx, DWORD PTR _temp$4[ebp]
	mov	ecx, DWORD PTR _n_rshift_bit_count$[ebp]
	shr	edx, cl
	mov	DWORD PTR _work$3[ebp], edx
	mov	eax, 4
	shl	eax, 0
	mov	ecx, DWORD PTR _pp$[ebp]
	mov	edx, DWORD PTR [ecx+eax]
	mov	DWORD PTR _temp$4[ebp], edx
	mov	eax, DWORD PTR _temp$4[ebp]
	mov	ecx, DWORD PTR _n_lshift_bit_count$5[ebp]
	shl	eax, cl
	or	eax, DWORD PTR _work$3[ebp]
	mov	DWORD PTR _work$3[ebp], eax
	mov	ecx, 4
	shl	ecx, 0
	mov	edx, DWORD PTR _op$[ebp]
	mov	eax, DWORD PTR _work$3[ebp]
	mov	DWORD PTR [edx+ecx], eax

; 273  :             work = temp >> n_rshift_bit_count; temp = pp[2]; work |= temp << n_lshift_bit_count; op[2] = work;

	mov	edx, DWORD PTR _temp$4[ebp]
	mov	ecx, DWORD PTR _n_rshift_bit_count$[ebp]
	shr	edx, cl
	mov	DWORD PTR _work$3[ebp], edx
	mov	eax, 4
	shl	eax, 1
	mov	ecx, DWORD PTR _pp$[ebp]
	mov	edx, DWORD PTR [ecx+eax]
	mov	DWORD PTR _temp$4[ebp], edx
	mov	eax, DWORD PTR _temp$4[ebp]
	mov	ecx, DWORD PTR _n_lshift_bit_count$5[ebp]
	shl	eax, cl
	or	eax, DWORD PTR _work$3[ebp]
	mov	DWORD PTR _work$3[ebp], eax
	mov	ecx, 4
	shl	ecx, 1
	mov	edx, DWORD PTR _op$[ebp]
	mov	eax, DWORD PTR _work$3[ebp]
	mov	DWORD PTR [edx+ecx], eax

; 274  :             work = temp >> n_rshift_bit_count; temp = pp[3]; work |= temp << n_lshift_bit_count; op[3] = work;

	mov	edx, DWORD PTR _temp$4[ebp]
	mov	ecx, DWORD PTR _n_rshift_bit_count$[ebp]
	shr	edx, cl
	mov	DWORD PTR _work$3[ebp], edx
	mov	eax, 4
	imul	ecx, eax, 3
	mov	edx, DWORD PTR _pp$[ebp]
	mov	eax, DWORD PTR [edx+ecx]
	mov	DWORD PTR _temp$4[ebp], eax
	mov	edx, DWORD PTR _temp$4[ebp]
	mov	ecx, DWORD PTR _n_lshift_bit_count$5[ebp]
	shl	edx, cl
	or	edx, DWORD PTR _work$3[ebp]
	mov	DWORD PTR _work$3[ebp], edx
	mov	eax, 4
	imul	ecx, eax, 3
	mov	edx, DWORD PTR _op$[ebp]
	mov	eax, DWORD PTR _work$3[ebp]
	mov	DWORD PTR [edx+ecx], eax

; 275  :             pp += 4;

	mov	ecx, DWORD PTR _pp$[ebp]
	add	ecx, 16					; 00000010H
	mov	DWORD PTR _pp$[ebp], ecx

; 276  :             op += 4;

	mov	edx, DWORD PTR _op$[ebp]
	add	edx, 16					; 00000010H
	mov	DWORD PTR _op$[ebp], edx
$LN8@RightShift:

; 277  :         }
; 278  : 
; 279  :         if (t_count & 0x2)

	mov	eax, DWORD PTR _t_count$2[ebp]
	and	eax, 2
	je	$LN9@RightShift

; 280  :         {
; 281  :             work = temp >> n_rshift_bit_count; temp = pp[0]; work |= temp << n_lshift_bit_count; op[0] = work;

	mov	edx, DWORD PTR _temp$4[ebp]
	mov	ecx, DWORD PTR _n_rshift_bit_count$[ebp]
	shr	edx, cl
	mov	DWORD PTR _work$3[ebp], edx
	mov	eax, 4
	imul	ecx, eax, 0
	mov	edx, DWORD PTR _pp$[ebp]
	mov	eax, DWORD PTR [edx+ecx]
	mov	DWORD PTR _temp$4[ebp], eax
	mov	edx, DWORD PTR _temp$4[ebp]
	mov	ecx, DWORD PTR _n_lshift_bit_count$5[ebp]
	shl	edx, cl
	or	edx, DWORD PTR _work$3[ebp]
	mov	DWORD PTR _work$3[ebp], edx
	mov	eax, 4
	imul	ecx, eax, 0
	mov	edx, DWORD PTR _op$[ebp]
	mov	eax, DWORD PTR _work$3[ebp]
	mov	DWORD PTR [edx+ecx], eax

; 282  :             work = temp >> n_rshift_bit_count; temp = pp[1]; work |= temp << n_lshift_bit_count; op[1] = work;

	mov	edx, DWORD PTR _temp$4[ebp]
	mov	ecx, DWORD PTR _n_rshift_bit_count$[ebp]
	shr	edx, cl
	mov	DWORD PTR _work$3[ebp], edx
	mov	eax, 4
	shl	eax, 0
	mov	ecx, DWORD PTR _pp$[ebp]
	mov	edx, DWORD PTR [ecx+eax]
	mov	DWORD PTR _temp$4[ebp], edx
	mov	eax, DWORD PTR _temp$4[ebp]
	mov	ecx, DWORD PTR _n_lshift_bit_count$5[ebp]
	shl	eax, cl
	or	eax, DWORD PTR _work$3[ebp]
	mov	DWORD PTR _work$3[ebp], eax
	mov	ecx, 4
	shl	ecx, 0
	mov	edx, DWORD PTR _op$[ebp]
	mov	eax, DWORD PTR _work$3[ebp]
	mov	DWORD PTR [edx+ecx], eax

; 283  :             pp += 2;

	mov	ecx, DWORD PTR _pp$[ebp]
	add	ecx, 8
	mov	DWORD PTR _pp$[ebp], ecx

; 284  :             op += 2;

	mov	edx, DWORD PTR _op$[ebp]
	add	edx, 8
	mov	DWORD PTR _op$[ebp], edx
$LN9@RightShift:

; 285  :         }
; 286  : 
; 287  :         if (t_count & 0x1)

	mov	eax, DWORD PTR _t_count$2[ebp]
	and	eax, 1
	je	SHORT $LN10@RightShift

; 288  :         {
; 289  :             work = temp >> n_rshift_bit_count; temp = pp[0]; work |= temp << n_lshift_bit_count; op[0] = work;

	mov	edx, DWORD PTR _temp$4[ebp]
	mov	ecx, DWORD PTR _n_rshift_bit_count$[ebp]
	shr	edx, cl
	mov	DWORD PTR _work$3[ebp], edx
	mov	eax, 4
	imul	ecx, eax, 0
	mov	edx, DWORD PTR _pp$[ebp]
	mov	eax, DWORD PTR [edx+ecx]
	mov	DWORD PTR _temp$4[ebp], eax
	mov	edx, DWORD PTR _temp$4[ebp]
	mov	ecx, DWORD PTR _n_lshift_bit_count$5[ebp]
	shl	edx, cl
	or	edx, DWORD PTR _work$3[ebp]
	mov	DWORD PTR _work$3[ebp], edx
	mov	eax, 4
	imul	ecx, eax, 0
	mov	edx, DWORD PTR _op$[ebp]
	mov	eax, DWORD PTR _work$3[ebp]
	mov	DWORD PTR [edx+ecx], eax

; 290  :             pp += 1;

	mov	ecx, DWORD PTR _pp$[ebp]
	add	ecx, 4
	mov	DWORD PTR _pp$[ebp], ecx

; 291  :             op += 1;

	mov	edx, DWORD PTR _op$[ebp]
	add	edx, 4
	mov	DWORD PTR _op$[ebp], edx
$LN10@RightShift:

; 292  :         }
; 293  : 
; 294  :         work = temp >> n_rshift_bit_count;

	mov	eax, DWORD PTR _temp$4[ebp]
	mov	ecx, DWORD PTR _n_rshift_bit_count$[ebp]
	shr	eax, cl
	mov	DWORD PTR _work$3[ebp], eax

; 295  :         if (work != 0)

	cmp	DWORD PTR _work$3[ebp], 0
	je	SHORT $LN11@RightShift

; 296  :             *op = work;

	mov	ecx, DWORD PTR _op$[ebp]
	mov	edx, DWORD PTR _work$3[ebp]
	mov	DWORD PTR [ecx], edx
$LN11@RightShift:

; 297  : 
; 298  :         if (padding_zero)

	cmp	DWORD PTR _padding_zero$[ebp], 0
	je	SHORT $LN1@RightShift

; 299  :             _ZERO_MEMORY_UNIT_DIV(p + p_word_count - n_word_count, n_word_count);

	mov	eax, DWORD PTR _n_word_count$[ebp]
	push	eax
	mov	ecx, DWORD PTR _p_word_count$[ebp]
	mov	edx, DWORD PTR _p$[ebp]
	lea	eax, DWORD PTR [edx+ecx*4]
	mov	ecx, DWORD PTR _n_word_count$[ebp]
	shl	ecx, 2
	sub	eax, ecx
	push	eax
	call	__ZERO_MEMORY_UNIT_DIV
	add	esp, 8
$LN1@RightShift:

; 300  :     }
; 301  : }

	pop	edi
	add	esp, 40					; 00000028H
	cmp	ebp, esp
	call	__RTC_CheckEsp
	mov	esp, ebp
	pop	ebp
	ret	0
_RightShift_Imp_DIV ENDP
_TEXT	ENDS
END
