; Listing generated by Microsoft (R) Optimizing Compiler Version 19.16.27026.1 

	TITLE	Z:\Sources\Lunor\Repos\rougemeilland\Palmtree.Math.Core.Implements\Palmtree.Math.Core.Implements\pmc_compare.c
	.686P
	.XMM
	include listing.inc
	.model	flat

INCLUDELIB MSVCRTD
INCLUDELIB OLDNAMES

msvcjmc	SEGMENT
__7B7A869E_ctype@h DB 01H
__457DD326_basetsd@h DB 01H
__4384A2D9_corecrt_memcpy_s@h DB 01H
__4E51A221_corecrt_wstring@h DB 01H
__2140C079_string@h DB 01H
__1887E595_winnt@h DB 01H
__9FC7C64B_processthreadsapi@h DB 01H
__FA470AEC_memoryapi@h DB 01H
__F37DAFF1_winerror@h DB 01H
__7A450CCC_winbase@h DB 01H
__B4B40122_winioctl@h DB 01H
__86261D59_stralign@h DB 01H
__4522B509_pmc_internal@h DB 01H
__F5940173_pmc_compare@c DB 01H
msvcjmc	ENDS
PUBLIC	_Compare_Imp
PUBLIC	_Initialize_Compare
PUBLIC	_PMC_Compare_I_X@12
PUBLIC	_PMC_Compare_L_X@16
PUBLIC	_PMC_Compare_X_I@12
PUBLIC	_PMC_Compare_X_L@16
PUBLIC	_PMC_Compare_X_X@12
PUBLIC	__JustMyCode_Default
EXTRN	_CheckNumber:PROC
EXTRN	@_RTC_CheckStackVars@8:PROC
EXTRN	@__CheckForDebuggerJustMyCode@4:PROC
EXTRN	__RTC_CheckEsp:PROC
EXTRN	__RTC_InitBase:PROC
EXTRN	__RTC_Shutdown:PROC
EXTRN	__aullshr:PROC
;	COMDAT rtc$TMZ
rtc$TMZ	SEGMENT
__RTC_Shutdown.rtc$TMZ DD FLAT:__RTC_Shutdown
rtc$TMZ	ENDS
;	COMDAT rtc$IMZ
rtc$IMZ	SEGMENT
__RTC_InitBase.rtc$IMZ DD FLAT:__RTC_InitBase
rtc$IMZ	ENDS
; Function compile flags: /Odt
;	COMDAT __JustMyCode_Default
_TEXT	SEGMENT
__JustMyCode_Default PROC				; COMDAT
	push	ebp
	mov	ebp, esp
	pop	ebp
	ret	0
__JustMyCode_Default ENDP
_TEXT	ENDS
; Function compile flags: /Odtp /RTCsu
; File z:\sources\lunor\repos\rougemeilland\palmtree.math.core.implements\palmtree.math.core.implements\pmc_compare.c
_TEXT	SEGMENT
tv252 = -52						; size = 8
tv240 = -44						; size = 8
_v_bit_count$1 = -36					; size = 4
_u_bit_count$2 = -32					; size = 4
_v_bit_count$3 = -28					; size = 4
_v_bit_count$4 = -24					; size = 4
_v_lo$5 = -20						; size = 4
_v_hi$6 = -12						; size = 4
_u_bit_count$7 = -4					; size = 4
_u$ = 8							; size = 4
_v$ = 12						; size = 8
_w$ = 20						; size = 4
_PMC_Compare_X_L_Imp PROC

; 150  : {

	push	ebp
	mov	ebp, esp
	sub	esp, 52					; 00000034H
	push	edi
	lea	edi, DWORD PTR [ebp-52]
	mov	ecx, 13					; 0000000dH
	mov	eax, -858993460				; ccccccccH
	rep stosd
	mov	ecx, OFFSET __F5940173_pmc_compare@c
	call	@__CheckForDebuggerJustMyCode@4

; 151  :     if (u->IS_ZERO)

	mov	eax, DWORD PTR _u$[ebp]
	mov	ecx, DWORD PTR [eax+16]
	shr	ecx, 1
	and	ecx, 1
	je	SHORT $LN2@PMC_Compar

; 152  :     {
; 153  :         // u が 0 である場合
; 154  :         if (v == 0)

	mov	edx, DWORD PTR _v$[ebp]
	or	edx, DWORD PTR _v$[ebp+4]
	jne	SHORT $LN4@PMC_Compar

; 155  :         {
; 156  :             // v が 0 である場合
; 157  :             *w = 0;

	mov	eax, DWORD PTR _w$[ebp]
	mov	DWORD PTR [eax], 0

; 158  :         }

	jmp	SHORT $LN5@PMC_Compar
$LN4@PMC_Compar:

; 159  :         else
; 160  :         {
; 161  :             // v が 0 でない場合
; 162  :             *w = -1;

	mov	ecx, DWORD PTR _w$[ebp]
	mov	DWORD PTR [ecx], -1
$LN5@PMC_Compar:

; 163  :         }
; 164  :     }

	jmp	$LN1@PMC_Compar
$LN2@PMC_Compar:

; 165  :     else if (v == 0)

	mov	edx, DWORD PTR _v$[ebp]
	or	edx, DWORD PTR _v$[ebp+4]
	jne	SHORT $LN6@PMC_Compar

; 166  :     {
; 167  :         // v が 0 である場合
; 168  :         *w = 1;

	mov	eax, DWORD PTR _w$[ebp]
	mov	DWORD PTR [eax], 1

; 169  :     }

	jmp	$LN1@PMC_Compar
$LN6@PMC_Compar:

; 170  :     else
; 171  :     {
; 172  :         // u と v がともに 0 ではない場合
; 173  :         if (__UNIT_TYPE_BIT_COUNT < sizeof(v) * 8)

	mov	ecx, 1
	test	ecx, ecx
	je	$LN8@PMC_Compar

; 174  :         {
; 175  :             // _UINT64_T が 1 ワードで表現しきれない場合
; 176  :             __UNIT_TYPE u_bit_count = u->UNIT_BIT_COUNT;

	mov	edx, DWORD PTR _u$[ebp]
	mov	eax, DWORD PTR [edx+4]
	mov	DWORD PTR _u_bit_count$7[ebp], eax

; 177  :             _UINT32_T v_hi;
; 178  :             _UINT32_T v_lo = _FROMDWORDTOWORD(v, &v_hi);

	lea	ecx, DWORD PTR _v_hi$6[ebp]
	push	ecx
	mov	edx, DWORD PTR _v$[ebp+4]
	push	edx
	mov	eax, DWORD PTR _v$[ebp]
	push	eax
	call	__FROMDWORDTOWORD
	add	esp, 12					; 0000000cH
	mov	DWORD PTR _v_lo$5[ebp], eax

; 179  :             if (v_hi == 0)

	cmp	DWORD PTR _v_hi$6[ebp], 0
	jne	$LN10@PMC_Compar

; 180  :             {
; 181  :                 // v の値が 32bit では表現できる場合
; 182  :                 __UNIT_TYPE v_bit_count = sizeof(v_lo) * 8 - _LZCNT_ALT_32(v_lo);

	mov	ecx, DWORD PTR _v_lo$5[ebp]
	push	ecx
	call	__LZCNT_ALT_32
	add	esp, 4
	mov	edx, 32					; 00000020H
	sub	edx, eax
	mov	DWORD PTR _v_bit_count$4[ebp], edx

; 183  :                 if (u_bit_count > v_bit_count)

	mov	eax, DWORD PTR _u_bit_count$7[ebp]
	cmp	eax, DWORD PTR _v_bit_count$4[ebp]
	jbe	SHORT $LN12@PMC_Compar

; 184  :                 {
; 185  :                     // 明らかに u > v である場合
; 186  :                     *w = 1;

	mov	ecx, DWORD PTR _w$[ebp]
	mov	DWORD PTR [ecx], 1

; 187  :                 }

	jmp	SHORT $LN13@PMC_Compar
$LN12@PMC_Compar:

; 188  :                 else if (u_bit_count < v_bit_count)

	mov	edx, DWORD PTR _u_bit_count$7[ebp]
	cmp	edx, DWORD PTR _v_bit_count$4[ebp]
	jae	SHORT $LN14@PMC_Compar

; 189  :                 {
; 190  :                     // 明らかに u < v である場合
; 191  :                     *w = -1;

	mov	eax, DWORD PTR _w$[ebp]
	mov	DWORD PTR [eax], -1

; 192  :                 }

	jmp	SHORT $LN13@PMC_Compar
$LN14@PMC_Compar:

; 193  :                 else
; 194  :                 {
; 195  :                     // u > 0 && v > 0 かつ u のビット長と v のビット長が等しく、かつ v が 1 ワードで表現できる場合
; 196  :                     // ⇒ u と v はともに 1 ワードで表現できる
; 197  :                     if (u->BLOCK[0] > v_lo)

	mov	ecx, 4
	imul	edx, ecx, 0
	mov	eax, DWORD PTR _u$[ebp]
	mov	ecx, DWORD PTR [eax+24]
	mov	edx, DWORD PTR [edx+ecx]
	cmp	edx, DWORD PTR _v_lo$5[ebp]
	jbe	SHORT $LN16@PMC_Compar

; 198  :                         *w = 1;

	mov	eax, DWORD PTR _w$[ebp]
	mov	DWORD PTR [eax], 1
	jmp	SHORT $LN13@PMC_Compar
$LN16@PMC_Compar:

; 199  :                     else if (u->BLOCK[0] < v_lo)

	mov	ecx, 4
	imul	edx, ecx, 0
	mov	eax, DWORD PTR _u$[ebp]
	mov	ecx, DWORD PTR [eax+24]
	mov	edx, DWORD PTR [edx+ecx]
	cmp	edx, DWORD PTR _v_lo$5[ebp]
	jae	SHORT $LN18@PMC_Compar

; 200  :                         *w = -1;

	mov	eax, DWORD PTR _w$[ebp]
	mov	DWORD PTR [eax], -1
	jmp	SHORT $LN13@PMC_Compar
$LN18@PMC_Compar:

; 201  :                     else
; 202  :                         *w = 0;

	mov	ecx, DWORD PTR _w$[ebp]
	mov	DWORD PTR [ecx], 0
$LN13@PMC_Compar:

; 203  :                 }
; 204  :             }

	jmp	$LN11@PMC_Compar
$LN10@PMC_Compar:

; 205  :             else
; 206  :             {
; 207  :                 // v の値が 32bit では表現できない場合
; 208  :                 __UNIT_TYPE v_bit_count = sizeof(v) * 8 - _LZCNT_ALT_32(v_hi);

	mov	edx, DWORD PTR _v_hi$6[ebp]
	push	edx
	call	__LZCNT_ALT_32
	add	esp, 4
	mov	ecx, 64					; 00000040H
	sub	ecx, eax
	mov	DWORD PTR _v_bit_count$3[ebp], ecx

; 209  :                 if (u_bit_count > v_bit_count)

	mov	edx, DWORD PTR _u_bit_count$7[ebp]
	cmp	edx, DWORD PTR _v_bit_count$3[ebp]
	jbe	SHORT $LN20@PMC_Compar

; 210  :                 {
; 211  :                     // 明らかに u > v である場合
; 212  :                     *w = 1;

	mov	eax, DWORD PTR _w$[ebp]
	mov	DWORD PTR [eax], 1

; 213  :                 }

	jmp	$LN11@PMC_Compar
$LN20@PMC_Compar:

; 214  :                 else if (u_bit_count < v_bit_count)

	mov	ecx, DWORD PTR _u_bit_count$7[ebp]
	cmp	ecx, DWORD PTR _v_bit_count$3[ebp]
	jae	SHORT $LN22@PMC_Compar

; 215  :                 {
; 216  :                     // 明らかに u < v である場合
; 217  :                     *w = -1;

	mov	edx, DWORD PTR _w$[ebp]
	mov	DWORD PTR [edx], -1

; 218  :                 }

	jmp	$LN11@PMC_Compar
$LN22@PMC_Compar:

; 219  :                 else
; 220  :                 {
; 221  :                     // u > 0 && v > 0 かつ u のビット長と v のビット長が等しく、かつ v が 2 ワードで表現できる場合
; 222  :                     // ⇒ u と v はともに 2 ワードで表現できる
; 223  :                     if (u->BLOCK[1] > v_hi)

	mov	eax, 4
	shl	eax, 0
	mov	ecx, DWORD PTR _u$[ebp]
	mov	edx, DWORD PTR [ecx+24]
	mov	eax, DWORD PTR [eax+edx]
	cmp	eax, DWORD PTR _v_hi$6[ebp]
	jbe	SHORT $LN24@PMC_Compar

; 224  :                         *w = 1;

	mov	ecx, DWORD PTR _w$[ebp]
	mov	DWORD PTR [ecx], 1
	jmp	SHORT $LN11@PMC_Compar
$LN24@PMC_Compar:

; 225  :                     else if (u->BLOCK[1] < v_hi)

	mov	edx, 4
	shl	edx, 0
	mov	eax, DWORD PTR _u$[ebp]
	mov	ecx, DWORD PTR [eax+24]
	mov	edx, DWORD PTR [edx+ecx]
	cmp	edx, DWORD PTR _v_hi$6[ebp]
	jae	SHORT $LN26@PMC_Compar

; 226  :                         *w = -1;

	mov	eax, DWORD PTR _w$[ebp]
	mov	DWORD PTR [eax], -1
	jmp	SHORT $LN11@PMC_Compar
$LN26@PMC_Compar:

; 227  :                     else if (u->BLOCK[0] > v_lo)

	mov	ecx, 4
	imul	edx, ecx, 0
	mov	eax, DWORD PTR _u$[ebp]
	mov	ecx, DWORD PTR [eax+24]
	mov	edx, DWORD PTR [edx+ecx]
	cmp	edx, DWORD PTR _v_lo$5[ebp]
	jbe	SHORT $LN28@PMC_Compar

; 228  :                         *w = 1;

	mov	eax, DWORD PTR _w$[ebp]
	mov	DWORD PTR [eax], 1
	jmp	SHORT $LN11@PMC_Compar
$LN28@PMC_Compar:

; 229  :                     else if (u->BLOCK[0] < v_lo)

	mov	ecx, 4
	imul	edx, ecx, 0
	mov	eax, DWORD PTR _u$[ebp]
	mov	ecx, DWORD PTR [eax+24]
	mov	edx, DWORD PTR [edx+ecx]
	cmp	edx, DWORD PTR _v_lo$5[ebp]
	jae	SHORT $LN30@PMC_Compar

; 230  :                         *w = -1;

	mov	eax, DWORD PTR _w$[ebp]
	mov	DWORD PTR [eax], -1
	jmp	SHORT $LN11@PMC_Compar
$LN30@PMC_Compar:

; 231  :                     else
; 232  :                         *w = 0;

	mov	ecx, DWORD PTR _w$[ebp]
	mov	DWORD PTR [ecx], 0
$LN11@PMC_Compar:

; 233  :                 }
; 234  :             }
; 235  :         }

	jmp	$LN1@PMC_Compar
$LN8@PMC_Compar:

; 236  :         else
; 237  :         {
; 238  :             // _UINT64_T が 1 ワードで表現できる場合
; 239  : 
; 240  :             __UNIT_TYPE u_bit_count = u->UNIT_BIT_COUNT;

	mov	edx, DWORD PTR _u$[ebp]
	mov	eax, DWORD PTR [edx+4]
	mov	DWORD PTR _u_bit_count$2[ebp], eax

; 241  :             __UNIT_TYPE v_bit_count = sizeof(v) * 8 - _LZCNT_ALT_UNIT((__UNIT_TYPE)v);

	mov	ecx, DWORD PTR _v$[ebp]
	push	ecx
	call	__LZCNT_ALT_UNIT
	add	esp, 4
	mov	edx, 64					; 00000040H
	sub	edx, eax
	mov	DWORD PTR _v_bit_count$1[ebp], edx

; 242  :             if (u_bit_count > v_bit_count)

	mov	eax, DWORD PTR _u_bit_count$2[ebp]
	cmp	eax, DWORD PTR _v_bit_count$1[ebp]
	jbe	SHORT $LN32@PMC_Compar

; 243  :             {
; 244  :                 // 明らかに u > v である場合
; 245  :                 *w = 1;

	mov	ecx, DWORD PTR _w$[ebp]
	mov	DWORD PTR [ecx], 1

; 246  :             }

	jmp	$LN1@PMC_Compar
$LN32@PMC_Compar:

; 247  :             else if (u_bit_count < v_bit_count)

	mov	edx, DWORD PTR _u_bit_count$2[ebp]
	cmp	edx, DWORD PTR _v_bit_count$1[ebp]
	jae	SHORT $LN34@PMC_Compar

; 248  :             {
; 249  :                 // 明らかに u < v である場合
; 250  :                 *w = -1;

	mov	eax, DWORD PTR _w$[ebp]
	mov	DWORD PTR [eax], -1

; 251  :             }

	jmp	SHORT $LN1@PMC_Compar
$LN34@PMC_Compar:

; 252  :             else
; 253  :             {
; 254  :                 // u > 0 && v > 0 かつ u のビット長と v のビット長が等しく、かつ v が 1 ワードで表現できる場合
; 255  :                 // ⇒ u と v はともに 1 ワードで表現できる
; 256  :                 if (u->BLOCK[0] > v)

	mov	ecx, 4
	imul	edx, ecx, 0
	mov	eax, DWORD PTR _u$[ebp]
	mov	ecx, DWORD PTR [eax+24]
	mov	edx, DWORD PTR [ecx+edx]
	xor	eax, eax
	mov	DWORD PTR tv240[ebp], edx
	mov	DWORD PTR tv240[ebp+4], eax
	mov	ecx, DWORD PTR tv240[ebp+4]
	cmp	ecx, DWORD PTR _v$[ebp+4]
	jb	SHORT $LN36@PMC_Compar
	ja	SHORT $LN41@PMC_Compar
	mov	edx, DWORD PTR tv240[ebp]
	cmp	edx, DWORD PTR _v$[ebp]
	jbe	SHORT $LN36@PMC_Compar
$LN41@PMC_Compar:

; 257  :                     *w = 1;

	mov	eax, DWORD PTR _w$[ebp]
	mov	DWORD PTR [eax], 1
	jmp	SHORT $LN1@PMC_Compar
$LN36@PMC_Compar:

; 258  :                 else if (u->BLOCK[0] < v)

	mov	ecx, 4
	imul	edx, ecx, 0
	mov	eax, DWORD PTR _u$[ebp]
	mov	ecx, DWORD PTR [eax+24]
	mov	edx, DWORD PTR [ecx+edx]
	xor	eax, eax
	mov	DWORD PTR tv252[ebp], edx
	mov	DWORD PTR tv252[ebp+4], eax
	mov	ecx, DWORD PTR tv252[ebp+4]
	cmp	ecx, DWORD PTR _v$[ebp+4]
	ja	SHORT $LN38@PMC_Compar
	jb	SHORT $LN42@PMC_Compar
	mov	edx, DWORD PTR tv252[ebp]
	cmp	edx, DWORD PTR _v$[ebp]
	jae	SHORT $LN38@PMC_Compar
$LN42@PMC_Compar:

; 259  :                     *w = -1;

	mov	eax, DWORD PTR _w$[ebp]
	mov	DWORD PTR [eax], -1
	jmp	SHORT $LN1@PMC_Compar
$LN38@PMC_Compar:

; 260  :                 else
; 261  :                     *w = 0;

	mov	ecx, DWORD PTR _w$[ebp]
	mov	DWORD PTR [ecx], 0
$LN1@PMC_Compar:

; 262  :             }
; 263  :         }
; 264  :     }
; 265  : }

	push	edx
	mov	ecx, ebp
	push	eax
	lea	edx, DWORD PTR $LN45@PMC_Compar
	call	@_RTC_CheckStackVars@8
	pop	eax
	pop	edx
	pop	edi
	add	esp, 52					; 00000034H
	cmp	ebp, esp
	call	__RTC_CheckEsp
	mov	esp, ebp
	pop	ebp
	ret	0
$LN45@PMC_Compar:
	DD	1
	DD	$LN44@PMC_Compar
$LN44@PMC_Compar:
	DD	-12					; fffffff4H
	DD	4
	DD	$LN43@PMC_Compar
$LN43@PMC_Compar:
	DB	118					; 00000076H
	DB	95					; 0000005fH
	DB	104					; 00000068H
	DB	105					; 00000069H
	DB	0
_PMC_Compare_X_L_Imp ENDP
_TEXT	ENDS
; Function compile flags: /Odtp /RTCsu
; File z:\sources\lunor\repos\rougemeilland\palmtree.math.core.implements\palmtree.math.core.implements\pmc_compare.c
_TEXT	SEGMENT
_v_bit_count$1 = -8					; size = 4
_u_bit_count$2 = -4					; size = 4
_u$ = 8							; size = 4
_v$ = 12						; size = 4
_w$ = 16						; size = 4
_PMC_Compare_X_I_Imp PROC

; 60   : {

	push	ebp
	mov	ebp, esp
	sub	esp, 8
	mov	DWORD PTR [ebp-8], -858993460		; ccccccccH
	mov	DWORD PTR [ebp-4], -858993460		; ccccccccH
	mov	ecx, OFFSET __F5940173_pmc_compare@c
	call	@__CheckForDebuggerJustMyCode@4

; 61   :     if (u->IS_ZERO)

	mov	eax, DWORD PTR _u$[ebp]
	mov	ecx, DWORD PTR [eax+16]
	shr	ecx, 1
	and	ecx, 1
	je	SHORT $LN2@PMC_Compar

; 62   :     {
; 63   :         // u が 0 である場合
; 64   :         if (v == 0)

	cmp	DWORD PTR _v$[ebp], 0
	jne	SHORT $LN4@PMC_Compar

; 65   :         {
; 66   :             // v が 0 である場合
; 67   :             *w = 0;

	mov	edx, DWORD PTR _w$[ebp]
	mov	DWORD PTR [edx], 0

; 68   :         }

	jmp	SHORT $LN5@PMC_Compar
$LN4@PMC_Compar:

; 69   :         else
; 70   :         {
; 71   :             // v が 0 でない場合
; 72   :             *w = -1;

	mov	eax, DWORD PTR _w$[ebp]
	mov	DWORD PTR [eax], -1
$LN5@PMC_Compar:

; 73   :         }
; 74   :     }

	jmp	$LN1@PMC_Compar
$LN2@PMC_Compar:

; 75   :     else if (v == 0)

	cmp	DWORD PTR _v$[ebp], 0
	jne	SHORT $LN6@PMC_Compar

; 76   :     {
; 77   :         // v が 0 である場合
; 78   :         *w = 1;

	mov	ecx, DWORD PTR _w$[ebp]
	mov	DWORD PTR [ecx], 1

; 79   :     }

	jmp	$LN1@PMC_Compar
$LN6@PMC_Compar:

; 80   :     else
; 81   :     {
; 82   :         // x と y がともに 0 ではない場合
; 83   :         __UNIT_TYPE u_bit_count = u->UNIT_BIT_COUNT;

	mov	edx, DWORD PTR _u$[ebp]
	mov	eax, DWORD PTR [edx+4]
	mov	DWORD PTR _u_bit_count$2[ebp], eax

; 84   :         __UNIT_TYPE v_bit_count = sizeof(v) * 8 - _LZCNT_ALT_32(v);

	mov	ecx, DWORD PTR _v$[ebp]
	push	ecx
	call	__LZCNT_ALT_32
	add	esp, 4
	mov	edx, 32					; 00000020H
	sub	edx, eax
	mov	DWORD PTR _v_bit_count$1[ebp], edx

; 85   :         if (u_bit_count > v_bit_count)

	mov	eax, DWORD PTR _u_bit_count$2[ebp]
	cmp	eax, DWORD PTR _v_bit_count$1[ebp]
	jbe	SHORT $LN8@PMC_Compar

; 86   :         {
; 87   :             // 明らかに u > v である場合
; 88   :             *w = 1;

	mov	ecx, DWORD PTR _w$[ebp]
	mov	DWORD PTR [ecx], 1

; 89   :         }

	jmp	SHORT $LN1@PMC_Compar
$LN8@PMC_Compar:

; 90   :         else if (u_bit_count < v_bit_count)

	mov	edx, DWORD PTR _u_bit_count$2[ebp]
	cmp	edx, DWORD PTR _v_bit_count$1[ebp]
	jae	SHORT $LN10@PMC_Compar

; 91   :         {
; 92   :             // 明らかに u < v である場合
; 93   :             *w = -1;

	mov	eax, DWORD PTR _w$[ebp]
	mov	DWORD PTR [eax], -1

; 94   :         }

	jmp	SHORT $LN1@PMC_Compar
$LN10@PMC_Compar:

; 95   :         else
; 96   :         {
; 97   :             // u > 0 && v > 0 かつ u のビット長と v のビット長が等しい場合
; 98   :             // ⇒ u と v はともに 1 ワードで表現できる
; 99   :             if (u->BLOCK[0] > v)

	mov	ecx, 4
	imul	edx, ecx, 0
	mov	eax, DWORD PTR _u$[ebp]
	mov	ecx, DWORD PTR [eax+24]
	mov	edx, DWORD PTR [edx+ecx]
	cmp	edx, DWORD PTR _v$[ebp]
	jbe	SHORT $LN12@PMC_Compar

; 100  :                 *w = 1;

	mov	eax, DWORD PTR _w$[ebp]
	mov	DWORD PTR [eax], 1
	jmp	SHORT $LN1@PMC_Compar
$LN12@PMC_Compar:

; 101  :             else if (u->BLOCK[0] < v)

	mov	ecx, 4
	imul	edx, ecx, 0
	mov	eax, DWORD PTR _u$[ebp]
	mov	ecx, DWORD PTR [eax+24]
	mov	edx, DWORD PTR [edx+ecx]
	cmp	edx, DWORD PTR _v$[ebp]
	jae	SHORT $LN14@PMC_Compar

; 102  :                 *w = -1;

	mov	eax, DWORD PTR _w$[ebp]
	mov	DWORD PTR [eax], -1
	jmp	SHORT $LN1@PMC_Compar
$LN14@PMC_Compar:

; 103  :             else
; 104  :                 *w = 0;

	mov	ecx, DWORD PTR _w$[ebp]
	mov	DWORD PTR [ecx], 0
$LN1@PMC_Compar:

; 105  :         }
; 106  :     }
; 107  : }

	add	esp, 8
	cmp	ebp, esp
	call	__RTC_CheckEsp
	mov	esp, ebp
	pop	ebp
	ret	0
_PMC_Compare_X_I_Imp ENDP
_TEXT	ENDS
; Function compile flags: /Odtp /RTCsu
; File z:\sources\lunor\repos\rougemeilland\palmtree.math.core.implements\palmtree.math.core.implements\pmc_internal.h
_TEXT	SEGMENT
_pos$ = -8						; size = 4
_x$ = 8							; size = 4
__LZCNT_ALT_UNIT PROC

; 879  : {

	push	ebp
	mov	ebp, esp
	sub	esp, 12					; 0000000cH
	mov	DWORD PTR [ebp-12], -858993460		; ccccccccH
	mov	DWORD PTR [ebp-8], -858993460		; ccccccccH
	mov	DWORD PTR [ebp-4], -858993460		; ccccccccH
	mov	ecx, OFFSET __4522B509_pmc_internal@h
	call	@__CheckForDebuggerJustMyCode@4

; 880  :     if (x == 0)

	cmp	DWORD PTR _x$[ebp], 0
	jne	SHORT $LN2@LZCNT_ALT_

; 881  :         return (sizeof(x) * 8);

	mov	eax, 32					; 00000020H
	jmp	SHORT $LN1@LZCNT_ALT_
$LN2@LZCNT_ALT_:

; 882  : #ifdef _M_IX86
; 883  :     _UINT32_T pos;
; 884  : #ifdef _MSC_VER
; 885  :     _BitScanReverse(&pos, x);

	bsr	eax, DWORD PTR _x$[ebp]
	mov	DWORD PTR _pos$[ebp], eax

; 886  : #elif defined(__GNUC__)
; 887  :     __asm__("bsrl %1, %0" : "=r"(pos) : "rm"(x));
; 888  : #else
; 889  : #error unknown compiler
; 890  : #endif
; 891  : #elif defined(_M_X64)
; 892  : #ifdef _MSC_VER
; 893  :     _UINT32_T pos;
; 894  :     _BitScanReverse64(&pos, x);
; 895  : #elif defined(__GNUC__)
; 896  :     _UINT64_T pos;
; 897  :     __asm__("bsrq %1, %0" : "=r"(pos) : "rm"(x));
; 898  : #else
; 899  : #error unknown compiler
; 900  : #endif
; 901  : #else
; 902  : #error unknown platform
; 903  : #endif
; 904  :     return (sizeof(x) * 8 - 1 - pos);

	mov	eax, 31					; 0000001fH
	sub	eax, DWORD PTR _pos$[ebp]
$LN1@LZCNT_ALT_:

; 905  : }

	push	edx
	mov	ecx, ebp
	push	eax
	lea	edx, DWORD PTR $LN6@LZCNT_ALT_
	call	@_RTC_CheckStackVars@8
	pop	eax
	pop	edx
	add	esp, 12					; 0000000cH
	cmp	ebp, esp
	call	__RTC_CheckEsp
	mov	esp, ebp
	pop	ebp
	ret	0
$LN6@LZCNT_ALT_:
	DD	1
	DD	$LN5@LZCNT_ALT_
$LN5@LZCNT_ALT_:
	DD	-8					; fffffff8H
	DD	4
	DD	$LN4@LZCNT_ALT_
$LN4@LZCNT_ALT_:
	DB	112					; 00000070H
	DB	111					; 0000006fH
	DB	115					; 00000073H
	DB	0
__LZCNT_ALT_UNIT ENDP
_TEXT	ENDS
; Function compile flags: /Odtp /RTCsu
; File z:\sources\lunor\repos\rougemeilland\palmtree.math.core.implements\palmtree.math.core.implements\pmc_internal.h
_TEXT	SEGMENT
_pos$ = -8						; size = 4
_x$ = 8							; size = 4
__LZCNT_ALT_32 PROC

; 846  : {

	push	ebp
	mov	ebp, esp
	sub	esp, 12					; 0000000cH
	mov	DWORD PTR [ebp-12], -858993460		; ccccccccH
	mov	DWORD PTR [ebp-8], -858993460		; ccccccccH
	mov	DWORD PTR [ebp-4], -858993460		; ccccccccH
	mov	ecx, OFFSET __4522B509_pmc_internal@h
	call	@__CheckForDebuggerJustMyCode@4

; 847  :     if (x == 0)

	cmp	DWORD PTR _x$[ebp], 0
	jne	SHORT $LN2@LZCNT_ALT_

; 848  :         return (sizeof(x) * 8);

	mov	eax, 32					; 00000020H
	jmp	SHORT $LN1@LZCNT_ALT_
$LN2@LZCNT_ALT_:

; 849  :     _UINT32_T pos;
; 850  : #ifdef _MSC_VER
; 851  :     _BitScanReverse(&pos, x);

	bsr	eax, DWORD PTR _x$[ebp]
	mov	DWORD PTR _pos$[ebp], eax

; 852  : #elif defined(__GNUC__)
; 853  :     __asm__( "bsrl %1, %0" : "=r"(pos) : "rm"(x) );
; 854  : #else
; 855  : #error unknown compiler
; 856  : #endif
; 857  :     return (sizeof(x) * 8 - 1 - pos);

	mov	eax, 31					; 0000001fH
	sub	eax, DWORD PTR _pos$[ebp]
$LN1@LZCNT_ALT_:

; 858  : }

	push	edx
	mov	ecx, ebp
	push	eax
	lea	edx, DWORD PTR $LN6@LZCNT_ALT_
	call	@_RTC_CheckStackVars@8
	pop	eax
	pop	edx
	add	esp, 12					; 0000000cH
	cmp	ebp, esp
	call	__RTC_CheckEsp
	mov	esp, ebp
	pop	ebp
	ret	0
$LN6@LZCNT_ALT_:
	DD	1
	DD	$LN5@LZCNT_ALT_
$LN5@LZCNT_ALT_:
	DD	-8					; fffffff8H
	DD	4
	DD	$LN4@LZCNT_ALT_
$LN4@LZCNT_ALT_:
	DB	112					; 00000070H
	DB	111					; 0000006fH
	DB	115					; 00000073H
	DB	0
__LZCNT_ALT_32 ENDP
_TEXT	ENDS
; Function compile flags: /Odtp /RTCsu
; File z:\sources\lunor\repos\rougemeilland\palmtree.math.core.implements\palmtree.math.core.implements\pmc_internal.h
_TEXT	SEGMENT
_value$ = 8						; size = 8
_result_high$ = 16					; size = 4
__FROMDWORDTOWORD PROC

; 432  : {

	push	ebp
	mov	ebp, esp
	mov	ecx, OFFSET __4522B509_pmc_internal@h
	call	@__CheckForDebuggerJustMyCode@4

; 433  :     *result_high = (_UINT32_T)(value >> 32);

	mov	eax, DWORD PTR _value$[ebp]
	mov	edx, DWORD PTR _value$[ebp+4]
	mov	cl, 32					; 00000020H
	call	__aullshr
	mov	ecx, DWORD PTR _result_high$[ebp]
	mov	DWORD PTR [ecx], eax

; 434  :     return ((_UINT32_T)value);

	mov	eax, DWORD PTR _value$[ebp]

; 435  : }

	cmp	ebp, esp
	call	__RTC_CheckEsp
	pop	ebp
	ret	0
__FROMDWORDTOWORD ENDP
_TEXT	ENDS
; Function compile flags: /Odtp /RTCsu
; File z:\sources\lunor\repos\rougemeilland\palmtree.math.core.implements\palmtree.math.core.implements\pmc_compare.c
_TEXT	SEGMENT
tv81 = -24						; size = 4
_v_bit_count$1 = -20					; size = 4
_u_bit_count$2 = -16					; size = 4
_result$ = -12						; size = 4
_nv$ = -8						; size = 4
_nu$ = -4						; size = 4
_u$ = 8							; size = 4
_v$ = 12						; size = 4
_w$ = 16						; size = 4
_PMC_Compare_X_X@12 PROC

; 308  : {

	push	ebp
	mov	ebp, esp
	sub	esp, 24					; 00000018H
	mov	eax, -858993460				; ccccccccH
	mov	DWORD PTR [ebp-24], eax
	mov	DWORD PTR [ebp-20], eax
	mov	DWORD PTR [ebp-16], eax
	mov	DWORD PTR [ebp-12], eax
	mov	DWORD PTR [ebp-8], eax
	mov	DWORD PTR [ebp-4], eax
	mov	ecx, OFFSET __F5940173_pmc_compare@c
	call	@__CheckForDebuggerJustMyCode@4

; 309  :     if (u == NULL)

	cmp	DWORD PTR _u$[ebp], 0
	jne	SHORT $LN2@PMC_Compar

; 310  :         return (PMC_STATUS_ARGUMENT_ERROR);

	or	eax, -1
	jmp	$LN1@PMC_Compar
$LN2@PMC_Compar:

; 311  :     if (v == NULL)

	cmp	DWORD PTR _v$[ebp], 0
	jne	SHORT $LN3@PMC_Compar

; 312  :         return (PMC_STATUS_ARGUMENT_ERROR);

	or	eax, -1
	jmp	$LN1@PMC_Compar
$LN3@PMC_Compar:

; 313  :     if (w == NULL)

	cmp	DWORD PTR _w$[ebp], 0
	jne	SHORT $LN4@PMC_Compar

; 314  :         return (PMC_STATUS_ARGUMENT_ERROR);

	or	eax, -1
	jmp	$LN1@PMC_Compar
$LN4@PMC_Compar:

; 315  :     NUMBER_HEADER* nu = (NUMBER_HEADER*)u;

	mov	eax, DWORD PTR _u$[ebp]
	mov	DWORD PTR _nu$[ebp], eax

; 316  :     NUMBER_HEADER* nv = (NUMBER_HEADER*)v;

	mov	ecx, DWORD PTR _v$[ebp]
	mov	DWORD PTR _nv$[ebp], ecx

; 317  :     PMC_STATUS_CODE result;
; 318  :     if ((result = CheckNumber(nu)) != PMC_STATUS_OK)

	mov	edx, DWORD PTR _nu$[ebp]
	push	edx
	call	_CheckNumber
	add	esp, 4
	mov	DWORD PTR _result$[ebp], eax
	cmp	DWORD PTR _result$[ebp], 0
	je	SHORT $LN5@PMC_Compar

; 319  :         return (result);

	mov	eax, DWORD PTR _result$[ebp]
	jmp	$LN1@PMC_Compar
$LN5@PMC_Compar:

; 320  :     if ((result = CheckNumber(nv)) != PMC_STATUS_OK)

	mov	eax, DWORD PTR _nv$[ebp]
	push	eax
	call	_CheckNumber
	add	esp, 4
	mov	DWORD PTR _result$[ebp], eax
	cmp	DWORD PTR _result$[ebp], 0
	je	SHORT $LN6@PMC_Compar

; 321  :         return (result);

	mov	eax, DWORD PTR _result$[ebp]
	jmp	$LN1@PMC_Compar
$LN6@PMC_Compar:

; 322  :     if (nu->IS_ZERO)

	mov	ecx, DWORD PTR _nu$[ebp]
	mov	edx, DWORD PTR [ecx+16]
	shr	edx, 1
	and	edx, 1
	je	SHORT $LN7@PMC_Compar

; 323  :     {
; 324  :         *w = nv->IS_ZERO ? 0 : -1;

	mov	eax, DWORD PTR _nv$[ebp]
	mov	ecx, DWORD PTR [eax+16]
	shr	ecx, 1
	and	ecx, 1
	je	SHORT $LN16@PMC_Compar
	mov	DWORD PTR tv81[ebp], 0
	jmp	SHORT $LN17@PMC_Compar
$LN16@PMC_Compar:
	mov	DWORD PTR tv81[ebp], -1
$LN17@PMC_Compar:
	mov	edx, DWORD PTR _w$[ebp]
	mov	eax, DWORD PTR tv81[ebp]
	mov	DWORD PTR [edx], eax

; 325  :     }

	jmp	SHORT $LN8@PMC_Compar
$LN7@PMC_Compar:

; 326  :     else if (nv->IS_ZERO)

	mov	ecx, DWORD PTR _nv$[ebp]
	mov	edx, DWORD PTR [ecx+16]
	shr	edx, 1
	and	edx, 1
	je	SHORT $LN9@PMC_Compar

; 327  :     {
; 328  :         *w = 1;

	mov	eax, DWORD PTR _w$[ebp]
	mov	DWORD PTR [eax], 1

; 329  :     }

	jmp	SHORT $LN8@PMC_Compar
$LN9@PMC_Compar:

; 330  :     else
; 331  :     {
; 332  :         __UNIT_TYPE u_bit_count = nu->UNIT_BIT_COUNT;

	mov	ecx, DWORD PTR _nu$[ebp]
	mov	edx, DWORD PTR [ecx+4]
	mov	DWORD PTR _u_bit_count$2[ebp], edx

; 333  :         __UNIT_TYPE v_bit_count = nv->UNIT_BIT_COUNT;

	mov	eax, DWORD PTR _nv$[ebp]
	mov	ecx, DWORD PTR [eax+4]
	mov	DWORD PTR _v_bit_count$1[ebp], ecx

; 334  :         if (u_bit_count > v_bit_count)

	mov	edx, DWORD PTR _u_bit_count$2[ebp]
	cmp	edx, DWORD PTR _v_bit_count$1[ebp]
	jbe	SHORT $LN11@PMC_Compar

; 335  :         {
; 336  :             // 明らかに u > v である場合
; 337  :             *w = 1;

	mov	eax, DWORD PTR _w$[ebp]
	mov	DWORD PTR [eax], 1

; 338  :         }

	jmp	SHORT $LN8@PMC_Compar
$LN11@PMC_Compar:

; 339  :         else if (u_bit_count < v_bit_count)

	mov	ecx, DWORD PTR _u_bit_count$2[ebp]
	cmp	ecx, DWORD PTR _v_bit_count$1[ebp]
	jae	SHORT $LN13@PMC_Compar

; 340  :         {
; 341  :             // 明らかに u < v である場合
; 342  :             *w = -1;

	mov	edx, DWORD PTR _w$[ebp]
	mov	DWORD PTR [edx], -1

; 343  :         }

	jmp	SHORT $LN8@PMC_Compar
$LN13@PMC_Compar:

; 344  :         else
; 345  :         {
; 346  :             // u > 0 && v > 0 かつ u のビット長と v のビット長が等しい場合
; 347  :             *w = Compare_Imp(nu->BLOCK, nv->BLOCK, nu->UNIT_WORD_COUNT);

	mov	eax, DWORD PTR _nu$[ebp]
	mov	ecx, DWORD PTR [eax]
	push	ecx
	mov	edx, DWORD PTR _nv$[ebp]
	mov	eax, DWORD PTR [edx+24]
	push	eax
	mov	ecx, DWORD PTR _nu$[ebp]
	mov	edx, DWORD PTR [ecx+24]
	push	edx
	call	_Compare_Imp
	add	esp, 12					; 0000000cH
	mov	ecx, DWORD PTR _w$[ebp]
	mov	DWORD PTR [ecx], eax
$LN8@PMC_Compar:

; 348  :         }
; 349  :     }
; 350  :     return (PMC_STATUS_OK);

	xor	eax, eax
$LN1@PMC_Compar:

; 351  : }

	add	esp, 24					; 00000018H
	cmp	ebp, esp
	call	__RTC_CheckEsp
	mov	esp, ebp
	pop	ebp
	ret	12					; 0000000cH
_PMC_Compare_X_X@12 ENDP
_TEXT	ENDS
; Function compile flags: /Odtp /RTCsu
; File z:\sources\lunor\repos\rougemeilland\palmtree.math.core.implements\palmtree.math.core.implements\pmc_compare.c
_TEXT	SEGMENT
_w_temp$ = -12						; size = 4
_result$ = -4						; size = 4
_u$ = 8							; size = 4
_v$ = 12						; size = 8
_w$ = 20						; size = 4
_PMC_Compare_X_L@16 PROC

; 288  : {

	push	ebp
	mov	ebp, esp
	sub	esp, 16					; 00000010H
	mov	eax, -858993460				; ccccccccH
	mov	DWORD PTR [ebp-16], eax
	mov	DWORD PTR [ebp-12], eax
	mov	DWORD PTR [ebp-8], eax
	mov	DWORD PTR [ebp-4], eax
	mov	ecx, OFFSET __F5940173_pmc_compare@c
	call	@__CheckForDebuggerJustMyCode@4

; 289  :     if (__UNIT_TYPE_BIT_COUNT * 2 < sizeof(v) * 8)

	xor	eax, eax
	je	SHORT $LN2@PMC_Compar

; 290  :     {
; 291  :         // _UINT64_T が 2 ワードで表現しきれない処理系には対応しない
; 292  :         return (PMC_STATUS_INTERNAL_ERROR);

	mov	eax, -256				; ffffff00H
	jmp	SHORT $LN1@PMC_Compar
$LN2@PMC_Compar:

; 293  :     }
; 294  :     if (u == NULL)

	cmp	DWORD PTR _u$[ebp], 0
	jne	SHORT $LN3@PMC_Compar

; 295  :         return (PMC_STATUS_ARGUMENT_ERROR);

	or	eax, -1
	jmp	SHORT $LN1@PMC_Compar
$LN3@PMC_Compar:

; 296  :     if (w == NULL)

	cmp	DWORD PTR _w$[ebp], 0
	jne	SHORT $LN4@PMC_Compar

; 297  :         return (PMC_STATUS_ARGUMENT_ERROR);

	or	eax, -1
	jmp	SHORT $LN1@PMC_Compar
$LN4@PMC_Compar:

; 298  :     PMC_STATUS_CODE result;
; 299  :     if ((result = CheckNumber((NUMBER_HEADER*)u)) != PMC_STATUS_OK)

	mov	ecx, DWORD PTR _u$[ebp]
	push	ecx
	call	_CheckNumber
	add	esp, 4
	mov	DWORD PTR _result$[ebp], eax
	cmp	DWORD PTR _result$[ebp], 0
	je	SHORT $LN5@PMC_Compar

; 300  :         return (result);

	mov	eax, DWORD PTR _result$[ebp]
	jmp	SHORT $LN1@PMC_Compar
$LN5@PMC_Compar:

; 301  :     _INT32_T w_temp;
; 302  :     PMC_Compare_X_L_Imp((NUMBER_HEADER*)u, v, &w_temp);

	lea	edx, DWORD PTR _w_temp$[ebp]
	push	edx
	mov	eax, DWORD PTR _v$[ebp+4]
	push	eax
	mov	ecx, DWORD PTR _v$[ebp]
	push	ecx
	mov	edx, DWORD PTR _u$[ebp]
	push	edx
	call	_PMC_Compare_X_L_Imp
	add	esp, 16					; 00000010H

; 303  :     *w = w_temp;

	mov	eax, DWORD PTR _w$[ebp]
	mov	ecx, DWORD PTR _w_temp$[ebp]
	mov	DWORD PTR [eax], ecx

; 304  :     return (PMC_STATUS_OK);

	xor	eax, eax
$LN1@PMC_Compar:

; 305  : }

	push	edx
	mov	ecx, ebp
	push	eax
	lea	edx, DWORD PTR $LN9@PMC_Compar
	call	@_RTC_CheckStackVars@8
	pop	eax
	pop	edx
	add	esp, 16					; 00000010H
	cmp	ebp, esp
	call	__RTC_CheckEsp
	mov	esp, ebp
	pop	ebp
	ret	16					; 00000010H
	npad	1
$LN9@PMC_Compar:
	DD	1
	DD	$LN8@PMC_Compar
$LN8@PMC_Compar:
	DD	-12					; fffffff4H
	DD	4
	DD	$LN7@PMC_Compar
$LN7@PMC_Compar:
	DB	119					; 00000077H
	DB	95					; 0000005fH
	DB	116					; 00000074H
	DB	101					; 00000065H
	DB	109					; 0000006dH
	DB	112					; 00000070H
	DB	0
_PMC_Compare_X_L@16 ENDP
_TEXT	ENDS
; Function compile flags: /Odtp /RTCsu
; File z:\sources\lunor\repos\rougemeilland\palmtree.math.core.implements\palmtree.math.core.implements\pmc_compare.c
_TEXT	SEGMENT
_w_temp$ = -12						; size = 4
_result$ = -4						; size = 4
_u$ = 8							; size = 4
_v$ = 12						; size = 4
_w$ = 16						; size = 4
_PMC_Compare_X_I@12 PROC

; 130  : {

	push	ebp
	mov	ebp, esp
	sub	esp, 16					; 00000010H
	mov	eax, -858993460				; ccccccccH
	mov	DWORD PTR [ebp-16], eax
	mov	DWORD PTR [ebp-12], eax
	mov	DWORD PTR [ebp-8], eax
	mov	DWORD PTR [ebp-4], eax
	mov	ecx, OFFSET __F5940173_pmc_compare@c
	call	@__CheckForDebuggerJustMyCode@4

; 131  :     if (__UNIT_TYPE_BIT_COUNT < sizeof(v) * 8)

	xor	eax, eax
	je	SHORT $LN2@PMC_Compar

; 132  :     {
; 133  :         // _UINT32_T が 1 ワードで表現しきれない処理系には対応しない
; 134  :         return (PMC_STATUS_INTERNAL_ERROR);

	mov	eax, -256				; ffffff00H
	jmp	SHORT $LN1@PMC_Compar
$LN2@PMC_Compar:

; 135  :     }
; 136  :     if (u == NULL)

	cmp	DWORD PTR _u$[ebp], 0
	jne	SHORT $LN3@PMC_Compar

; 137  :         return (PMC_STATUS_ARGUMENT_ERROR);

	or	eax, -1
	jmp	SHORT $LN1@PMC_Compar
$LN3@PMC_Compar:

; 138  :     if (w == NULL)

	cmp	DWORD PTR _w$[ebp], 0
	jne	SHORT $LN4@PMC_Compar

; 139  :         return (PMC_STATUS_ARGUMENT_ERROR);

	or	eax, -1
	jmp	SHORT $LN1@PMC_Compar
$LN4@PMC_Compar:

; 140  :     PMC_STATUS_CODE result;
; 141  :     if ((result = CheckNumber((NUMBER_HEADER*)u)) != PMC_STATUS_OK)

	mov	ecx, DWORD PTR _u$[ebp]
	push	ecx
	call	_CheckNumber
	add	esp, 4
	mov	DWORD PTR _result$[ebp], eax
	cmp	DWORD PTR _result$[ebp], 0
	je	SHORT $LN5@PMC_Compar

; 142  :         return (result);

	mov	eax, DWORD PTR _result$[ebp]
	jmp	SHORT $LN1@PMC_Compar
$LN5@PMC_Compar:

; 143  :     _INT32_T w_temp;
; 144  :     PMC_Compare_X_I_Imp((NUMBER_HEADER*)u, v, &w_temp);

	lea	edx, DWORD PTR _w_temp$[ebp]
	push	edx
	mov	eax, DWORD PTR _v$[ebp]
	push	eax
	mov	ecx, DWORD PTR _u$[ebp]
	push	ecx
	call	_PMC_Compare_X_I_Imp
	add	esp, 12					; 0000000cH

; 145  :     *w = w_temp;

	mov	edx, DWORD PTR _w$[ebp]
	mov	eax, DWORD PTR _w_temp$[ebp]
	mov	DWORD PTR [edx], eax

; 146  :     return (PMC_STATUS_OK);

	xor	eax, eax
$LN1@PMC_Compar:

; 147  : }

	push	edx
	mov	ecx, ebp
	push	eax
	lea	edx, DWORD PTR $LN9@PMC_Compar
	call	@_RTC_CheckStackVars@8
	pop	eax
	pop	edx
	add	esp, 16					; 00000010H
	cmp	ebp, esp
	call	__RTC_CheckEsp
	mov	esp, ebp
	pop	ebp
	ret	12					; 0000000cH
	npad	1
$LN9@PMC_Compar:
	DD	1
	DD	$LN8@PMC_Compar
$LN8@PMC_Compar:
	DD	-12					; fffffff4H
	DD	4
	DD	$LN7@PMC_Compar
$LN7@PMC_Compar:
	DB	119					; 00000077H
	DB	95					; 0000005fH
	DB	116					; 00000074H
	DB	101					; 00000065H
	DB	109					; 0000006dH
	DB	112					; 00000070H
	DB	0
_PMC_Compare_X_I@12 ENDP
_TEXT	ENDS
; Function compile flags: /Odtp /RTCsu
; File z:\sources\lunor\repos\rougemeilland\palmtree.math.core.implements\palmtree.math.core.implements\pmc_compare.c
_TEXT	SEGMENT
_w_temp$ = -12						; size = 4
_result$ = -4						; size = 4
_u$ = 8							; size = 8
_v$ = 16						; size = 4
_w$ = 20						; size = 4
_PMC_Compare_L_X@16 PROC

; 268  : {

	push	ebp
	mov	ebp, esp
	sub	esp, 16					; 00000010H
	mov	eax, -858993460				; ccccccccH
	mov	DWORD PTR [ebp-16], eax
	mov	DWORD PTR [ebp-12], eax
	mov	DWORD PTR [ebp-8], eax
	mov	DWORD PTR [ebp-4], eax
	mov	ecx, OFFSET __F5940173_pmc_compare@c
	call	@__CheckForDebuggerJustMyCode@4

; 269  :     if (__UNIT_TYPE_BIT_COUNT * 2 < sizeof(u) * 8)

	xor	eax, eax
	je	SHORT $LN2@PMC_Compar

; 270  :     {
; 271  :         // _UINT64_T が 2 ワードで表現しきれない処理系には対応しない
; 272  :         return (PMC_STATUS_INTERNAL_ERROR);

	mov	eax, -256				; ffffff00H
	jmp	SHORT $LN1@PMC_Compar
$LN2@PMC_Compar:

; 273  :     }
; 274  :     if (v == NULL)

	cmp	DWORD PTR _v$[ebp], 0
	jne	SHORT $LN3@PMC_Compar

; 275  :         return (PMC_STATUS_ARGUMENT_ERROR);

	or	eax, -1
	jmp	SHORT $LN1@PMC_Compar
$LN3@PMC_Compar:

; 276  :     if (w == NULL)

	cmp	DWORD PTR _w$[ebp], 0
	jne	SHORT $LN4@PMC_Compar

; 277  :         return (PMC_STATUS_ARGUMENT_ERROR);

	or	eax, -1
	jmp	SHORT $LN1@PMC_Compar
$LN4@PMC_Compar:

; 278  :     PMC_STATUS_CODE result;
; 279  :     if ((result = CheckNumber((NUMBER_HEADER*)v)) != PMC_STATUS_OK)

	mov	ecx, DWORD PTR _v$[ebp]
	push	ecx
	call	_CheckNumber
	add	esp, 4
	mov	DWORD PTR _result$[ebp], eax
	cmp	DWORD PTR _result$[ebp], 0
	je	SHORT $LN5@PMC_Compar

; 280  :         return (result);

	mov	eax, DWORD PTR _result$[ebp]
	jmp	SHORT $LN1@PMC_Compar
$LN5@PMC_Compar:

; 281  :     _INT32_T w_temp;
; 282  :     PMC_Compare_X_L_Imp((NUMBER_HEADER*)v, u, &w_temp);

	lea	edx, DWORD PTR _w_temp$[ebp]
	push	edx
	mov	eax, DWORD PTR _u$[ebp+4]
	push	eax
	mov	ecx, DWORD PTR _u$[ebp]
	push	ecx
	mov	edx, DWORD PTR _v$[ebp]
	push	edx
	call	_PMC_Compare_X_L_Imp
	add	esp, 16					; 00000010H

; 283  :     *w = -w_temp;

	mov	eax, DWORD PTR _w_temp$[ebp]
	neg	eax
	mov	ecx, DWORD PTR _w$[ebp]
	mov	DWORD PTR [ecx], eax

; 284  :     return (PMC_STATUS_OK);

	xor	eax, eax
$LN1@PMC_Compar:

; 285  : }

	push	edx
	mov	ecx, ebp
	push	eax
	lea	edx, DWORD PTR $LN9@PMC_Compar
	call	@_RTC_CheckStackVars@8
	pop	eax
	pop	edx
	add	esp, 16					; 00000010H
	cmp	ebp, esp
	call	__RTC_CheckEsp
	mov	esp, ebp
	pop	ebp
	ret	16					; 00000010H
	npad	3
$LN9@PMC_Compar:
	DD	1
	DD	$LN8@PMC_Compar
$LN8@PMC_Compar:
	DD	-12					; fffffff4H
	DD	4
	DD	$LN7@PMC_Compar
$LN7@PMC_Compar:
	DB	119					; 00000077H
	DB	95					; 0000005fH
	DB	116					; 00000074H
	DB	101					; 00000065H
	DB	109					; 0000006dH
	DB	112					; 00000070H
	DB	0
_PMC_Compare_L_X@16 ENDP
_TEXT	ENDS
; Function compile flags: /Odtp /RTCsu
; File z:\sources\lunor\repos\rougemeilland\palmtree.math.core.implements\palmtree.math.core.implements\pmc_compare.c
_TEXT	SEGMENT
_w_temp$ = -12						; size = 4
_result$ = -4						; size = 4
_u$ = 8							; size = 4
_v$ = 12						; size = 4
_w$ = 16						; size = 4
_PMC_Compare_I_X@12 PROC

; 110  : {

	push	ebp
	mov	ebp, esp
	sub	esp, 16					; 00000010H
	mov	eax, -858993460				; ccccccccH
	mov	DWORD PTR [ebp-16], eax
	mov	DWORD PTR [ebp-12], eax
	mov	DWORD PTR [ebp-8], eax
	mov	DWORD PTR [ebp-4], eax
	mov	ecx, OFFSET __F5940173_pmc_compare@c
	call	@__CheckForDebuggerJustMyCode@4

; 111  :     if (__UNIT_TYPE_BIT_COUNT < sizeof(u) * 8)

	xor	eax, eax
	je	SHORT $LN2@PMC_Compar

; 112  :     {
; 113  :         // _UINT32_T が 1 ワードで表現しきれない処理系には対応しない
; 114  :         return (PMC_STATUS_INTERNAL_ERROR);

	mov	eax, -256				; ffffff00H
	jmp	SHORT $LN1@PMC_Compar
$LN2@PMC_Compar:

; 115  :     }
; 116  :     if (v == NULL)

	cmp	DWORD PTR _v$[ebp], 0
	jne	SHORT $LN3@PMC_Compar

; 117  :         return (PMC_STATUS_ARGUMENT_ERROR);

	or	eax, -1
	jmp	SHORT $LN1@PMC_Compar
$LN3@PMC_Compar:

; 118  :     if (w == NULL)

	cmp	DWORD PTR _w$[ebp], 0
	jne	SHORT $LN4@PMC_Compar

; 119  :         return (PMC_STATUS_ARGUMENT_ERROR);

	or	eax, -1
	jmp	SHORT $LN1@PMC_Compar
$LN4@PMC_Compar:

; 120  :     PMC_STATUS_CODE result;
; 121  :     if ((result = CheckNumber((NUMBER_HEADER*)v)) != PMC_STATUS_OK)

	mov	ecx, DWORD PTR _v$[ebp]
	push	ecx
	call	_CheckNumber
	add	esp, 4
	mov	DWORD PTR _result$[ebp], eax
	cmp	DWORD PTR _result$[ebp], 0
	je	SHORT $LN5@PMC_Compar

; 122  :         return (result);

	mov	eax, DWORD PTR _result$[ebp]
	jmp	SHORT $LN1@PMC_Compar
$LN5@PMC_Compar:

; 123  :     _INT32_T w_temp;
; 124  :     PMC_Compare_X_I_Imp((NUMBER_HEADER*)v, u, &w_temp);

	lea	edx, DWORD PTR _w_temp$[ebp]
	push	edx
	mov	eax, DWORD PTR _u$[ebp]
	push	eax
	mov	ecx, DWORD PTR _v$[ebp]
	push	ecx
	call	_PMC_Compare_X_I_Imp
	add	esp, 12					; 0000000cH

; 125  :     *w = -w_temp;

	mov	edx, DWORD PTR _w_temp$[ebp]
	neg	edx
	mov	eax, DWORD PTR _w$[ebp]
	mov	DWORD PTR [eax], edx

; 126  :     return (PMC_STATUS_OK);

	xor	eax, eax
$LN1@PMC_Compar:

; 127  : }

	push	edx
	mov	ecx, ebp
	push	eax
	lea	edx, DWORD PTR $LN9@PMC_Compar
	call	@_RTC_CheckStackVars@8
	pop	eax
	pop	edx
	add	esp, 16					; 00000010H
	cmp	ebp, esp
	call	__RTC_CheckEsp
	mov	esp, ebp
	pop	ebp
	ret	12					; 0000000cH
	npad	3
$LN9@PMC_Compar:
	DD	1
	DD	$LN8@PMC_Compar
$LN8@PMC_Compar:
	DD	-12					; fffffff4H
	DD	4
	DD	$LN7@PMC_Compar
$LN7@PMC_Compar:
	DB	119					; 00000077H
	DB	95					; 0000005fH
	DB	116					; 00000074H
	DB	101					; 00000065H
	DB	109					; 0000006dH
	DB	112					; 00000070H
	DB	0
_PMC_Compare_I_X@12 ENDP
_TEXT	ENDS
; Function compile flags: /Odtp /RTCsu
; File z:\sources\lunor\repos\rougemeilland\palmtree.math.core.implements\palmtree.math.core.implements\pmc_compare.c
_TEXT	SEGMENT
_feature$ = 8						; size = 4
_Initialize_Compare PROC

; 354  : {

	push	ebp
	mov	ebp, esp
	mov	ecx, OFFSET __F5940173_pmc_compare@c
	call	@__CheckForDebuggerJustMyCode@4

; 355  :     return (PMC_STATUS_OK);

	xor	eax, eax

; 356  : }

	cmp	ebp, esp
	call	__RTC_CheckEsp
	pop	ebp
	ret	0
_Initialize_Compare ENDP
_TEXT	ENDS
; Function compile flags: /Odtp /RTCsu
; File z:\sources\lunor\repos\rougemeilland\palmtree.math.core.implements\palmtree.math.core.implements\pmc_compare.c
_TEXT	SEGMENT
_u$ = 8							; size = 4
_v$ = 12						; size = 4
_count$ = 16						; size = 4
_Compare_Imp PROC

; 38   : {

	push	ebp
	mov	ebp, esp
	mov	ecx, OFFSET __F5940173_pmc_compare@c
	call	@__CheckForDebuggerJustMyCode@4

; 39   :     u += count;

	mov	eax, DWORD PTR _count$[ebp]
	mov	ecx, DWORD PTR _u$[ebp]
	lea	edx, DWORD PTR [ecx+eax*4]
	mov	DWORD PTR _u$[ebp], edx

; 40   :     v += count;

	mov	eax, DWORD PTR _count$[ebp]
	mov	ecx, DWORD PTR _v$[ebp]
	lea	edx, DWORD PTR [ecx+eax*4]
	mov	DWORD PTR _v$[ebp], edx
$LN2@Compare_Im:

; 41   :     while (count > 0)

	cmp	DWORD PTR _count$[ebp], 0
	jbe	SHORT $LN3@Compare_Im

; 42   :     {
; 43   :         --u;

	mov	eax, DWORD PTR _u$[ebp]
	sub	eax, 4
	mov	DWORD PTR _u$[ebp], eax

; 44   :         --v;

	mov	ecx, DWORD PTR _v$[ebp]
	sub	ecx, 4
	mov	DWORD PTR _v$[ebp], ecx

; 45   :         --count;

	mov	edx, DWORD PTR _count$[ebp]
	sub	edx, 1
	mov	DWORD PTR _count$[ebp], edx

; 46   : 
; 47   :         if (*u > *v)

	mov	eax, DWORD PTR _u$[ebp]
	mov	ecx, DWORD PTR _v$[ebp]
	mov	edx, DWORD PTR [eax]
	cmp	edx, DWORD PTR [ecx]
	jbe	SHORT $LN4@Compare_Im

; 48   :             return (1);

	mov	eax, 1
	jmp	SHORT $LN1@Compare_Im
	jmp	SHORT $LN5@Compare_Im
$LN4@Compare_Im:

; 49   :         else if (*u < *v)

	mov	eax, DWORD PTR _u$[ebp]
	mov	ecx, DWORD PTR _v$[ebp]
	mov	edx, DWORD PTR [eax]
	cmp	edx, DWORD PTR [ecx]
	jae	SHORT $LN5@Compare_Im

; 50   :             return (-1);

	or	eax, -1
	jmp	SHORT $LN1@Compare_Im
$LN5@Compare_Im:

; 51   :         else
; 52   :         {
; 53   :         }
; 54   :     }

	jmp	SHORT $LN2@Compare_Im
$LN3@Compare_Im:

; 55   :     return (0);

	xor	eax, eax
$LN1@Compare_Im:

; 56   : }

	cmp	ebp, esp
	call	__RTC_CheckEsp
	pop	ebp
	ret	0
_Compare_Imp ENDP
_TEXT	ENDS
END
