; Listing generated by Microsoft (R) Optimizing Compiler Version 19.16.27026.1 

	TITLE	Z:\Sources\Lunor\Repos\rougemeilland\Palmtree.Math.Core.Implements\Palmtree.Math.Core.Implements\pmc_modpow.c
	.686P
	.XMM
	include listing.inc
	.model	flat

INCLUDELIB MSVCRTD
INCLUDELIB OLDNAMES

msvcjmc	SEGMENT
__7B7A869E_ctype@h DB 01H
__457DD326_basetsd@h DB 01H
__4384A2D9_corecrt_memcpy_s@h DB 01H
__4E51A221_corecrt_wstring@h DB 01H
__2140C079_string@h DB 01H
__1887E595_winnt@h DB 01H
__9FC7C64B_processthreadsapi@h DB 01H
__FA470AEC_memoryapi@h DB 01H
__F37DAFF1_winerror@h DB 01H
__7A450CCC_winbase@h DB 01H
__B4B40122_winioctl@h DB 01H
__86261D59_stralign@h DB 01H
__4522B509_pmc_internal@h DB 01H
__54B479F5_pmc_modpow@c DB 01H
msvcjmc	ENDS
PUBLIC	_Initialize_ModPow
PUBLIC	_PMC_ModPow_X_X_X@16
PUBLIC	__JustMyCode_Default
EXTRN	_AllocateBlock:PROC
EXTRN	_DeallocateBlock:PROC
EXTRN	_CheckBlockLight:PROC
EXTRN	_AllocateNumber:PROC
EXTRN	_DeallocateNumber:PROC
EXTRN	_CommitNumber:PROC
EXTRN	_CheckNumber:PROC
EXTRN	_DuplicateNumber:PROC
EXTRN	_Multiply_X_X_Imp:PROC
EXTRN	_DivRem_X_X:PROC
EXTRN	_Compare_Imp:PROC
EXTRN	@_RTC_CheckStackVars@8:PROC
EXTRN	@__CheckForDebuggerJustMyCode@4:PROC
EXTRN	__RTC_CheckEsp:PROC
EXTRN	__RTC_InitBase:PROC
EXTRN	__RTC_Shutdown:PROC
EXTRN	_number_zero:BYTE
EXTRN	_number_one:BYTE
;	COMDAT rtc$TMZ
rtc$TMZ	SEGMENT
__RTC_Shutdown.rtc$TMZ DD FLAT:__RTC_Shutdown
rtc$TMZ	ENDS
;	COMDAT rtc$IMZ
rtc$IMZ	SEGMENT
__RTC_InitBase.rtc$IMZ DD FLAT:__RTC_InitBase
rtc$IMZ	ENDS
; Function compile flags: /Odt
;	COMDAT __JustMyCode_Default
_TEXT	SEGMENT
__JustMyCode_Default PROC				; COMDAT
	push	ebp
	mov	ebp, esp
	pop	ebp
	ret	0
__JustMyCode_Default ENDP
_TEXT	ENDS
; Function compile flags: /Odtp /RTCsu
; File z:\sources\lunor\repos\rougemeilland\palmtree.math.core.implements\palmtree.math.core.implements\pmc_modpow.c
_TEXT	SEGMENT
_result$ = -4						; size = 4
_v$ = 8							; size = 4
_e$ = 12						; size = 4
_m$ = 16						; size = 4
_r$ = 20						; size = 4
_PMC_ModPow_X_X_X_Imp PROC

; 506  : {

	push	ebp
	mov	ebp, esp
	push	ecx
	mov	DWORD PTR [ebp-4], -858993460		; ccccccccH
	mov	ecx, OFFSET __54B479F5_pmc_modpow@c
	call	@__CheckForDebuggerJustMyCode@4

; 507  :     PMC_STATUS_CODE result;
; 508  : 
; 509  :     if (m->IS_ZERO)

	mov	eax, DWORD PTR _m$[ebp]
	mov	ecx, DWORD PTR [eax+16]
	shr	ecx, 1
	and	ecx, 1
	je	SHORT $LN2@PMC_ModPow

; 510  :     {
; 511  :         // m が 0 の場合
; 512  : 
; 513  :         // 0 による除算は許されないのでエラーを通知する
; 514  :         return (PMC_STATUS_DIVISION_BY_ZERO);

	mov	eax, -3					; fffffffdH
	jmp	$LN1@PMC_ModPow

; 515  :     }

	jmp	$LN3@PMC_ModPow
$LN2@PMC_ModPow:

; 516  :     else if (m->IS_ONE)

	mov	edx, DWORD PTR _m$[ebp]
	mov	eax, DWORD PTR [edx+16]
	shr	eax, 2
	and	eax, 1
	je	SHORT $LN4@PMC_ModPow

; 517  :     {
; 518  :         // m が 1 の場合
; 519  :         if (v->IS_ZERO)

	mov	ecx, DWORD PTR _v$[ebp]
	mov	edx, DWORD PTR [ecx+16]
	shr	edx, 1
	and	edx, 1
	je	SHORT $LN6@PMC_ModPow

; 520  :         {
; 521  :             // v が 0 の場合
; 522  :             if (e->IS_ZERO)

	mov	eax, DWORD PTR _e$[ebp]
	mov	ecx, DWORD PTR [eax+16]
	shr	ecx, 1
	and	ecx, 1
	je	SHORT $LN8@PMC_ModPow

; 523  :             {
; 524  :                 // e が 0 の場合
; 525  : 
; 526  :                 // 0 の 0 乗となるので、エラーを返す
; 527  :                 return (PMC_STATUS_ARGUMENT_ERROR);

	or	eax, -1
	jmp	$LN1@PMC_ModPow

; 528  :             }

	jmp	SHORT $LN9@PMC_ModPow
$LN8@PMC_ModPow:

; 529  :             else
; 530  :             {
; 531  :                 // e が 0 ではない場合
; 532  : 
; 533  :                 // v の e 乗がどんな値であっても 1 では必ず割り切れるので剰余は 0 となる。
; 534  :                 *r = &number_zero;

	mov	edx, DWORD PTR _r$[ebp]
	mov	DWORD PTR [edx], OFFSET _number_zero
$LN9@PMC_ModPow:

; 535  :             }
; 536  :         }

	jmp	SHORT $LN7@PMC_ModPow
$LN6@PMC_ModPow:

; 537  :         else
; 538  :         {
; 539  :             // v が 0 ではない場合
; 540  : 
; 541  :             // v の e 乗がどんな値であっても 1 では必ず割り切れるので剰余は 0 となる。
; 542  :             *r = &number_zero;

	mov	eax, DWORD PTR _r$[ebp]
	mov	DWORD PTR [eax], OFFSET _number_zero
$LN7@PMC_ModPow:

; 543  :         }
; 544  :     }

	jmp	$LN3@PMC_ModPow
$LN4@PMC_ModPow:

; 545  :     else
; 546  :     {
; 547  :         // m が 2 以上の場合
; 548  :         if (v->IS_ZERO)

	mov	ecx, DWORD PTR _v$[ebp]
	mov	edx, DWORD PTR [ecx+16]
	shr	edx, 1
	and	edx, 1
	je	SHORT $LN10@PMC_ModPow

; 549  :         {
; 550  :             // v が 0 の場合
; 551  :             if (e->IS_ZERO)

	mov	eax, DWORD PTR _e$[ebp]
	mov	ecx, DWORD PTR [eax+16]
	shr	ecx, 1
	and	ecx, 1
	je	SHORT $LN12@PMC_ModPow

; 552  :             {
; 553  :                 // e が 0 の場合
; 554  : 
; 555  :                 // 0 の 0 乗となるので、エラーを返す
; 556  :                 return (PMC_STATUS_ARGUMENT_ERROR);

	or	eax, -1
	jmp	$LN1@PMC_ModPow

; 557  :             }

	jmp	SHORT $LN13@PMC_ModPow
$LN12@PMC_ModPow:

; 558  :             else
; 559  :             {
; 560  :                 // e が 0 ではない場合
; 561  : 
; 562  :                 *r = &number_zero;

	mov	edx, DWORD PTR _r$[ebp]
	mov	DWORD PTR [edx], OFFSET _number_zero
$LN13@PMC_ModPow:

; 563  :             }
; 564  :         }

	jmp	$LN3@PMC_ModPow
$LN10@PMC_ModPow:

; 565  :         else if (v->IS_ONE)

	mov	eax, DWORD PTR _v$[ebp]
	mov	ecx, DWORD PTR [eax+16]
	shr	ecx, 2
	and	ecx, 1
	je	SHORT $LN14@PMC_ModPow

; 566  :         {
; 567  :             // v が 1 の場合
; 568  : 
; 569  :             // 1 を何乗しても 1 であり、1 を 2 以上の数で割ればその剰余は必ず 1 となる
; 570  :             *r = &number_one;

	mov	edx, DWORD PTR _r$[ebp]
	mov	DWORD PTR [edx], OFFSET _number_one

; 571  :         }

	jmp	SHORT $LN3@PMC_ModPow
$LN14@PMC_ModPow:

; 572  :         else
; 573  :         {
; 574  :             // v が 2 以上の場合
; 575  :             if (e->IS_ZERO)

	mov	eax, DWORD PTR _e$[ebp]
	mov	ecx, DWORD PTR [eax+16]
	shr	ecx, 1
	and	ecx, 1
	je	SHORT $LN16@PMC_ModPow

; 576  :             {
; 577  :                 // e が 0 の場合
; 578  :                 *r = &number_one;

	mov	edx, DWORD PTR _r$[ebp]
	mov	DWORD PTR [edx], OFFSET _number_one

; 579  :             }

	jmp	SHORT $LN3@PMC_ModPow
$LN16@PMC_ModPow:

; 580  :             else if (e->IS_ONE)

	mov	eax, DWORD PTR _e$[ebp]
	mov	ecx, DWORD PTR [eax+16]
	shr	ecx, 2
	and	ecx, 1
	je	SHORT $LN18@PMC_ModPow

; 581  :             {
; 582  :                 // e が 1 の場合
; 583  : 
; 584  :                 // v % m を計算して返す
; 585  :                 if ((result = Remainder(v, m, r)) != PMC_STATUS_OK)

	mov	edx, DWORD PTR _r$[ebp]
	push	edx
	mov	eax, DWORD PTR _m$[ebp]
	push	eax
	mov	ecx, DWORD PTR _v$[ebp]
	push	ecx
	call	_Remainder
	add	esp, 12					; 0000000cH
	mov	DWORD PTR _result$[ebp], eax
	cmp	DWORD PTR _result$[ebp], 0
	je	SHORT $LN20@PMC_ModPow

; 586  :                     return (result);

	mov	eax, DWORD PTR _result$[ebp]
	jmp	SHORT $LN1@PMC_ModPow
$LN20@PMC_ModPow:

; 587  :             }

	jmp	SHORT $LN3@PMC_ModPow
$LN18@PMC_ModPow:

; 588  :             else
; 589  :             {
; 590  :                 // v、e、m がすべて 2 以上である場合
; 591  :                 // v の e 乗 の m による剰余を計算して返す
; 592  :                 if ((result = ModulePower(v, e, m, r)) != PMC_STATUS_OK)

	mov	edx, DWORD PTR _r$[ebp]
	push	edx
	mov	eax, DWORD PTR _m$[ebp]
	push	eax
	mov	ecx, DWORD PTR _e$[ebp]
	push	ecx
	mov	edx, DWORD PTR _v$[ebp]
	push	edx
	call	_ModulePower
	add	esp, 16					; 00000010H
	mov	DWORD PTR _result$[ebp], eax
	cmp	DWORD PTR _result$[ebp], 0
	je	SHORT $LN3@PMC_ModPow

; 593  :                     return (result);

	mov	eax, DWORD PTR _result$[ebp]
	jmp	SHORT $LN1@PMC_ModPow
$LN3@PMC_ModPow:

; 594  :             }
; 595  :         }
; 596  :     }
; 597  :     return (PMC_STATUS_OK);

	xor	eax, eax
$LN1@PMC_ModPow:

; 598  : }

	add	esp, 4
	cmp	ebp, esp
	call	__RTC_CheckEsp
	mov	esp, ebp
	pop	ebp
	ret	0
_PMC_ModPow_X_X_X_Imp ENDP
_TEXT	ENDS
; Function compile flags: /Odtp /RTCsu
; File z:\sources\lunor\repos\rougemeilland\palmtree.math.core.implements\palmtree.math.core.implements\pmc_modpow.c
_TEXT	SEGMENT
_u_count$ = -236					; size = 4
_w_ptr$ = -228						; size = 4
_v_ptr$ = -220						; size = 4
_u_ptr$ = -212						; size = 4
_e_mask$ = -204						; size = 4
_e_count$ = -200					; size = 4
_cmp$ = -196						; size = 4
_v_count$ = -192					; size = 4
_r_check_code$ = -184					; size = 4
_r_bit_count$ = -176					; size = 4
_q_buf$ = -172						; size = 4
_q_buf_words$ = -164					; size = 4
_q_buf_code$ = -152					; size = 4
_q_buf_bit_count$ = -144				; size = 4
_work_v_buf$ = -140					; size = 4
_work_v_buf_words$ = -132				; size = 4
_work_v_buf_code$ = -120				; size = 4
_work_v_bit_count$ = -112				; size = 4
_work_2_buf$ = -108					; size = 4
_work_2_buf_words$ = -100				; size = 4
_work_2_buf_code$ = -88					; size = 4
_work_2_bit_count$ = -80				; size = 4
_work_1_buf$ = -76					; size = 4
_work_1_buf_words$ = -68				; size = 4
_work_1_buf_code$ = -56					; size = 4
_work_1_bit_count$ = -48				; size = 4
_v_2_buf$ = -44						; size = 4
_v_2_buf_words$ = -36					; size = 4
_v_2_buf_code$ = -24					; size = 4
_v_2_bit_count$ = -16					; size = 4
_m_count$ = -12						; size = 4
_m_buf$ = -8						; size = 4
_result$ = -4						; size = 4
_v$ = 8							; size = 4
_e$ = 12						; size = 4
_m$ = 16						; size = 4
_r$ = 20						; size = 4
_ModulePower PROC

; 161  : {

	push	ebp
	mov	ebp, esp
	sub	esp, 236				; 000000ecH
	push	edi
	lea	edi, DWORD PTR [ebp-236]
	mov	ecx, 59					; 0000003bH
	mov	eax, -858993460				; ccccccccH
	rep stosd
	mov	ecx, OFFSET __54B479F5_pmc_modpow@c
	call	@__CheckForDebuggerJustMyCode@4

; 162  : #ifdef DO_TRACE
; 163  :     ReportIN(v, e, m);
; 164  : #endif
; 165  :     PMC_STATUS_CODE result;
; 166  :     __UNIT_TYPE* m_buf = m->BLOCK;

	mov	eax, DWORD PTR _m$[ebp]
	mov	ecx, DWORD PTR [eax+24]
	mov	DWORD PTR _m_buf$[ebp], ecx

; 167  :     __UNIT_TYPE m_count = m->UNIT_WORD_COUNT;

	mov	edx, DWORD PTR _m$[ebp]
	mov	eax, DWORD PTR [edx]
	mov	DWORD PTR _m_count$[ebp], eax

; 168  : 
; 169  :     // 作業域を獲得する
; 170  : 
; 171  :     __UNIT_TYPE v_2_bit_count = v->UNIT_WORD_COUNT * __UNIT_TYPE_BIT_COUNT + __UNIT_TYPE_BIT_COUNT;

	mov	ecx, DWORD PTR _v$[ebp]
	mov	edx, DWORD PTR [ecx]
	shl	edx, 5
	add	edx, 32					; 00000020H
	mov	DWORD PTR _v_2_bit_count$[ebp], edx

; 172  :     __UNIT_TYPE v_2_buf_code;
; 173  :     __UNIT_TYPE v_2_buf_words;
; 174  :     __UNIT_TYPE* v_2_buf = AllocateBlock(v_2_bit_count, &v_2_buf_words, &v_2_buf_code);

	lea	eax, DWORD PTR _v_2_buf_code$[ebp]
	push	eax
	lea	ecx, DWORD PTR _v_2_buf_words$[ebp]
	push	ecx
	mov	edx, DWORD PTR _v_2_bit_count$[ebp]
	push	edx
	call	_AllocateBlock
	add	esp, 12					; 0000000cH
	mov	DWORD PTR _v_2_buf$[ebp], eax

; 175  :     if (v_2_buf == NULL)

	cmp	DWORD PTR _v_2_buf$[ebp], 0
	jne	SHORT $LN10@ModulePowe

; 176  :     {
; 177  :         return (PMC_STATUS_NOT_ENOUGH_MEMORY);

	mov	eax, -5					; fffffffbH
	jmp	$LN1@ModulePowe
$LN10@ModulePowe:

; 178  :     }
; 179  : 
; 180  :     __UNIT_TYPE work_1_bit_count = m_count * 2 * __UNIT_TYPE_BIT_COUNT + __UNIT_TYPE_BIT_COUNT;

	mov	eax, DWORD PTR _m_count$[ebp]
	shl	eax, 1
	shl	eax, 5
	add	eax, 32					; 00000020H
	mov	DWORD PTR _work_1_bit_count$[ebp], eax

; 181  :     __UNIT_TYPE work_1_buf_code;
; 182  :     __UNIT_TYPE work_1_buf_words;
; 183  :     __UNIT_TYPE* work_1_buf = AllocateBlock(work_1_bit_count, &work_1_buf_words, &work_1_buf_code);

	lea	ecx, DWORD PTR _work_1_buf_code$[ebp]
	push	ecx
	lea	edx, DWORD PTR _work_1_buf_words$[ebp]
	push	edx
	mov	eax, DWORD PTR _work_1_bit_count$[ebp]
	push	eax
	call	_AllocateBlock
	add	esp, 12					; 0000000cH
	mov	DWORD PTR _work_1_buf$[ebp], eax

; 184  :     if (work_1_buf == NULL)

	cmp	DWORD PTR _work_1_buf$[ebp], 0
	jne	SHORT $LN11@ModulePowe

; 185  :     {
; 186  :         DeallocateBlock(v_2_buf, v_2_buf_words);

	mov	ecx, DWORD PTR _v_2_buf_words$[ebp]
	push	ecx
	mov	edx, DWORD PTR _v_2_buf$[ebp]
	push	edx
	call	_DeallocateBlock
	add	esp, 8

; 187  :         return (PMC_STATUS_NOT_ENOUGH_MEMORY);

	mov	eax, -5					; fffffffbH
	jmp	$LN1@ModulePowe
$LN11@ModulePowe:

; 188  :     }
; 189  : 
; 190  :     __UNIT_TYPE work_2_bit_count = m_count * 2 * __UNIT_TYPE_BIT_COUNT + __UNIT_TYPE_BIT_COUNT;

	mov	eax, DWORD PTR _m_count$[ebp]
	shl	eax, 1
	shl	eax, 5
	add	eax, 32					; 00000020H
	mov	DWORD PTR _work_2_bit_count$[ebp], eax

; 191  :     __UNIT_TYPE work_2_buf_code;
; 192  :     __UNIT_TYPE work_2_buf_words;
; 193  :     __UNIT_TYPE* work_2_buf = AllocateBlock(work_2_bit_count, &work_2_buf_words, &work_2_buf_code);

	lea	ecx, DWORD PTR _work_2_buf_code$[ebp]
	push	ecx
	lea	edx, DWORD PTR _work_2_buf_words$[ebp]
	push	edx
	mov	eax, DWORD PTR _work_2_bit_count$[ebp]
	push	eax
	call	_AllocateBlock
	add	esp, 12					; 0000000cH
	mov	DWORD PTR _work_2_buf$[ebp], eax

; 194  :     if (work_2_buf == NULL)

	cmp	DWORD PTR _work_2_buf$[ebp], 0
	jne	SHORT $LN12@ModulePowe

; 195  :     {
; 196  :         DeallocateBlock(work_1_buf, work_1_buf_words);

	mov	ecx, DWORD PTR _work_1_buf_words$[ebp]
	push	ecx
	mov	edx, DWORD PTR _work_1_buf$[ebp]
	push	edx
	call	_DeallocateBlock
	add	esp, 8

; 197  :         DeallocateBlock(v_2_buf, v_2_buf_words);

	mov	eax, DWORD PTR _v_2_buf_words$[ebp]
	push	eax
	mov	ecx, DWORD PTR _v_2_buf$[ebp]
	push	ecx
	call	_DeallocateBlock
	add	esp, 8

; 198  :         return (PMC_STATUS_NOT_ENOUGH_MEMORY);

	mov	eax, -5					; fffffffbH
	jmp	$LN1@ModulePowe
$LN12@ModulePowe:

; 199  :     }
; 200  : 
; 201  :     __UNIT_TYPE work_v_bit_count = m_count * __UNIT_TYPE_BIT_COUNT;

	mov	edx, DWORD PTR _m_count$[ebp]
	shl	edx, 5
	mov	DWORD PTR _work_v_bit_count$[ebp], edx

; 202  :     __UNIT_TYPE work_v_buf_code;
; 203  :     __UNIT_TYPE work_v_buf_words;
; 204  :     __UNIT_TYPE* work_v_buf = AllocateBlock(work_v_bit_count, &work_v_buf_words, &work_v_buf_code);

	lea	eax, DWORD PTR _work_v_buf_code$[ebp]
	push	eax
	lea	ecx, DWORD PTR _work_v_buf_words$[ebp]
	push	ecx
	mov	edx, DWORD PTR _work_v_bit_count$[ebp]
	push	edx
	call	_AllocateBlock
	add	esp, 12					; 0000000cH
	mov	DWORD PTR _work_v_buf$[ebp], eax

; 205  :     if (work_v_buf == NULL)

	cmp	DWORD PTR _work_v_buf$[ebp], 0
	jne	SHORT $LN13@ModulePowe

; 206  :     {
; 207  :         DeallocateBlock(work_2_buf, work_2_buf_words);

	mov	eax, DWORD PTR _work_2_buf_words$[ebp]
	push	eax
	mov	ecx, DWORD PTR _work_2_buf$[ebp]
	push	ecx
	call	_DeallocateBlock
	add	esp, 8

; 208  :         DeallocateBlock(work_1_buf, work_1_buf_words);

	mov	edx, DWORD PTR _work_1_buf_words$[ebp]
	push	edx
	mov	eax, DWORD PTR _work_1_buf$[ebp]
	push	eax
	call	_DeallocateBlock
	add	esp, 8

; 209  :         DeallocateBlock(v_2_buf, v_2_buf_words);

	mov	ecx, DWORD PTR _v_2_buf_words$[ebp]
	push	ecx
	mov	edx, DWORD PTR _v_2_buf$[ebp]
	push	edx
	call	_DeallocateBlock
	add	esp, 8

; 210  :         return (PMC_STATUS_NOT_ENOUGH_MEMORY);

	mov	eax, -5					; fffffffbH
	jmp	$LN1@ModulePowe
$LN13@ModulePowe:

; 211  :     }
; 212  : 
; 213  :     __UNIT_TYPE q_buf_bit_count = _MAXIMUM_UNIT(v->UNIT_BIT_COUNT, m->UNIT_BIT_COUNT * 2) - m->UNIT_BIT_COUNT + 1 + __UNIT_TYPE_BIT_COUNT;

	mov	eax, DWORD PTR _m$[ebp]
	mov	ecx, DWORD PTR [eax+4]
	shl	ecx, 1
	push	ecx
	mov	edx, DWORD PTR _v$[ebp]
	mov	eax, DWORD PTR [edx+4]
	push	eax
	call	__MAXIMUM_UNIT
	add	esp, 8
	mov	ecx, DWORD PTR _m$[ebp]
	sub	eax, DWORD PTR [ecx+4]
	add	eax, 33					; 00000021H
	mov	DWORD PTR _q_buf_bit_count$[ebp], eax

; 214  :     __UNIT_TYPE q_buf_code;
; 215  :     __UNIT_TYPE q_buf_words;
; 216  :     __UNIT_TYPE* q_buf = AllocateBlock(q_buf_bit_count, &q_buf_words, &q_buf_code);

	lea	edx, DWORD PTR _q_buf_code$[ebp]
	push	edx
	lea	eax, DWORD PTR _q_buf_words$[ebp]
	push	eax
	mov	ecx, DWORD PTR _q_buf_bit_count$[ebp]
	push	ecx
	call	_AllocateBlock
	add	esp, 12					; 0000000cH
	mov	DWORD PTR _q_buf$[ebp], eax

; 217  :     if (q_buf == NULL)

	cmp	DWORD PTR _q_buf$[ebp], 0
	jne	SHORT $LN14@ModulePowe

; 218  :     {
; 219  :         DeallocateBlock(work_v_buf, work_v_buf_words);

	mov	edx, DWORD PTR _work_v_buf_words$[ebp]
	push	edx
	mov	eax, DWORD PTR _work_v_buf$[ebp]
	push	eax
	call	_DeallocateBlock
	add	esp, 8

; 220  :         DeallocateBlock(work_2_buf, work_2_buf_words);

	mov	ecx, DWORD PTR _work_2_buf_words$[ebp]
	push	ecx
	mov	edx, DWORD PTR _work_2_buf$[ebp]
	push	edx
	call	_DeallocateBlock
	add	esp, 8

; 221  :         DeallocateBlock(work_1_buf, work_1_buf_words);

	mov	eax, DWORD PTR _work_1_buf_words$[ebp]
	push	eax
	mov	ecx, DWORD PTR _work_1_buf$[ebp]
	push	ecx
	call	_DeallocateBlock
	add	esp, 8

; 222  :         DeallocateBlock(v_2_buf, v_2_buf_words);

	mov	edx, DWORD PTR _v_2_buf_words$[ebp]
	push	edx
	mov	eax, DWORD PTR _v_2_buf$[ebp]
	push	eax
	call	_DeallocateBlock
	add	esp, 8

; 223  :         return (PMC_STATUS_NOT_ENOUGH_MEMORY);

	mov	eax, -5					; fffffffbH
	jmp	$LN1@ModulePowe
$LN14@ModulePowe:

; 224  :     }
; 225  : 
; 226  :     __UNIT_TYPE r_bit_count = m->UNIT_BIT_COUNT;

	mov	ecx, DWORD PTR _m$[ebp]
	mov	edx, DWORD PTR [ecx+4]
	mov	DWORD PTR _r_bit_count$[ebp], edx

; 227  :     __UNIT_TYPE r_check_code;
; 228  :     if ((result = AllocateNumber(r, r_bit_count, &r_check_code)) != PMC_STATUS_OK)

	lea	eax, DWORD PTR _r_check_code$[ebp]
	push	eax
	mov	ecx, DWORD PTR _r_bit_count$[ebp]
	push	ecx
	mov	edx, DWORD PTR _r$[ebp]
	push	edx
	call	_AllocateNumber
	add	esp, 12					; 0000000cH
	mov	DWORD PTR _result$[ebp], eax
	cmp	DWORD PTR _result$[ebp], 0
	je	SHORT $LN15@ModulePowe

; 229  :     {
; 230  :         DeallocateBlock(q_buf, q_buf_words);

	mov	eax, DWORD PTR _q_buf_words$[ebp]
	push	eax
	mov	ecx, DWORD PTR _q_buf$[ebp]
	push	ecx
	call	_DeallocateBlock
	add	esp, 8

; 231  :         DeallocateBlock(work_v_buf, work_v_buf_words);

	mov	edx, DWORD PTR _work_v_buf_words$[ebp]
	push	edx
	mov	eax, DWORD PTR _work_v_buf$[ebp]
	push	eax
	call	_DeallocateBlock
	add	esp, 8

; 232  :         DeallocateBlock(work_2_buf, work_2_buf_words);

	mov	ecx, DWORD PTR _work_2_buf_words$[ebp]
	push	ecx
	mov	edx, DWORD PTR _work_2_buf$[ebp]
	push	edx
	call	_DeallocateBlock
	add	esp, 8

; 233  :         DeallocateBlock(work_1_buf, work_1_buf_words);

	mov	eax, DWORD PTR _work_1_buf_words$[ebp]
	push	eax
	mov	ecx, DWORD PTR _work_1_buf$[ebp]
	push	ecx
	call	_DeallocateBlock
	add	esp, 8

; 234  :         DeallocateBlock(v_2_buf, v_2_buf_words);

	mov	edx, DWORD PTR _v_2_buf_words$[ebp]
	push	edx
	mov	eax, DWORD PTR _v_2_buf$[ebp]
	push	eax
	call	_DeallocateBlock
	add	esp, 8

; 235  :         return (PMC_STATUS_NOT_ENOUGH_MEMORY);

	mov	eax, -5					; fffffffbH
	jmp	$LN1@ModulePowe
$LN15@ModulePowe:

; 236  :     }
; 237  : 
; 238  :     __UNIT_TYPE v_count;
; 239  :     int cmp = Compare_Easy(v->BLOCK, v->UNIT_WORD_COUNT, m_buf, m_count);

	mov	ecx, DWORD PTR _m_count$[ebp]
	push	ecx
	mov	edx, DWORD PTR _m_buf$[ebp]
	push	edx
	mov	eax, DWORD PTR _v$[ebp]
	mov	ecx, DWORD PTR [eax]
	push	ecx
	mov	edx, DWORD PTR _v$[ebp]
	mov	eax, DWORD PTR [edx+24]
	push	eax
	call	_Compare_Easy
	add	esp, 16					; 00000010H
	mov	DWORD PTR _cmp$[ebp], eax

; 240  :     if (cmp == 0)

	cmp	DWORD PTR _cmp$[ebp], 0
	jne	SHORT $LN16@ModulePowe

; 241  :     {
; 242  :         // v == m である場合
; 243  : 
; 244  :         // v を何乗してもその剰余は 0 であるため、0 を返す。
; 245  : 
; 246  :         DeallocateNumber(*r);

	mov	ecx, DWORD PTR _r$[ebp]
	mov	edx, DWORD PTR [ecx]
	push	edx
	call	_DeallocateNumber
	add	esp, 4

; 247  :         DeallocateBlock(q_buf, q_buf_words);

	mov	eax, DWORD PTR _q_buf_words$[ebp]
	push	eax
	mov	ecx, DWORD PTR _q_buf$[ebp]
	push	ecx
	call	_DeallocateBlock
	add	esp, 8

; 248  :         DeallocateBlock(work_v_buf, work_v_buf_words);

	mov	edx, DWORD PTR _work_v_buf_words$[ebp]
	push	edx
	mov	eax, DWORD PTR _work_v_buf$[ebp]
	push	eax
	call	_DeallocateBlock
	add	esp, 8

; 249  :         DeallocateBlock(work_2_buf, work_2_buf_words);

	mov	ecx, DWORD PTR _work_2_buf_words$[ebp]
	push	ecx
	mov	edx, DWORD PTR _work_2_buf$[ebp]
	push	edx
	call	_DeallocateBlock
	add	esp, 8

; 250  :         DeallocateBlock(work_1_buf, work_1_buf_words);

	mov	eax, DWORD PTR _work_1_buf_words$[ebp]
	push	eax
	mov	ecx, DWORD PTR _work_1_buf$[ebp]
	push	ecx
	call	_DeallocateBlock
	add	esp, 8

; 251  :         DeallocateBlock(v_2_buf, v_2_buf_words);

	mov	edx, DWORD PTR _v_2_buf_words$[ebp]
	push	edx
	mov	eax, DWORD PTR _v_2_buf$[ebp]
	push	eax
	call	_DeallocateBlock
	add	esp, 8

; 252  :         *r = &number_zero;

	mov	ecx, DWORD PTR _r$[ebp]
	mov	DWORD PTR [ecx], OFFSET _number_zero

; 253  : #ifdef DO_TRACE
; 254  :         ReportOUT(*r);
; 255  : #endif
; 256  :         return (PMC_STATUS_OK);

	xor	eax, eax
	jmp	$LN1@ModulePowe

; 257  :     }

	jmp	$LN17@ModulePowe
$LN16@ModulePowe:

; 258  :     else if (cmp > 0)

	cmp	DWORD PTR _cmp$[ebp], 0
	jle	$LN18@ModulePowe

; 259  :     {
; 260  :         // v > m である場合
; 261  : 
; 262  :         // v2 を v % m に設定する。
; 263  : 
; 264  :         DivRem_X_X(v->BLOCK, v->UNIT_WORD_COUNT, m_buf, m_count, work_v_buf, q_buf, v_2_buf);

	mov	edx, DWORD PTR _v_2_buf$[ebp]
	push	edx
	mov	eax, DWORD PTR _q_buf$[ebp]
	push	eax
	mov	ecx, DWORD PTR _work_v_buf$[ebp]
	push	ecx
	mov	edx, DWORD PTR _m_count$[ebp]
	push	edx
	mov	eax, DWORD PTR _m_buf$[ebp]
	push	eax
	mov	ecx, DWORD PTR _v$[ebp]
	mov	edx, DWORD PTR [ecx]
	push	edx
	mov	eax, DWORD PTR _v$[ebp]
	mov	ecx, DWORD PTR [eax+24]
	push	ecx
	call	_DivRem_X_X
	add	esp, 28					; 0000001cH

; 265  :         if ((result = CheckBlockLight(work_v_buf, work_v_buf_code)) != PMC_STATUS_OK)

	mov	edx, DWORD PTR _work_v_buf_code$[ebp]
	push	edx
	mov	eax, DWORD PTR _work_v_buf$[ebp]
	push	eax
	call	_CheckBlockLight
	add	esp, 8
	mov	DWORD PTR _result$[ebp], eax
	cmp	DWORD PTR _result$[ebp], 0
	je	SHORT $LN20@ModulePowe

; 266  :             return (result);

	mov	eax, DWORD PTR _result$[ebp]
	jmp	$LN1@ModulePowe
$LN20@ModulePowe:

; 267  :         if ((result = CheckBlockLight(q_buf, q_buf_code)) != PMC_STATUS_OK)

	mov	ecx, DWORD PTR _q_buf_code$[ebp]
	push	ecx
	mov	edx, DWORD PTR _q_buf$[ebp]
	push	edx
	call	_CheckBlockLight
	add	esp, 8
	mov	DWORD PTR _result$[ebp], eax
	cmp	DWORD PTR _result$[ebp], 0
	je	SHORT $LN21@ModulePowe

; 268  :             return (result);

	mov	eax, DWORD PTR _result$[ebp]
	jmp	$LN1@ModulePowe
$LN21@ModulePowe:

; 269  :         if ((result = CheckBlockLight(v_2_buf, v_2_buf_code)) != PMC_STATUS_OK)

	mov	eax, DWORD PTR _v_2_buf_code$[ebp]
	push	eax
	mov	ecx, DWORD PTR _v_2_buf$[ebp]
	push	ecx
	call	_CheckBlockLight
	add	esp, 8
	mov	DWORD PTR _result$[ebp], eax
	cmp	DWORD PTR _result$[ebp], 0
	je	SHORT $LN22@ModulePowe

; 270  :             return (result);

	mov	eax, DWORD PTR _result$[ebp]
	jmp	$LN1@ModulePowe
$LN22@ModulePowe:

; 271  :         v_count = m_count;

	mov	edx, DWORD PTR _m_count$[ebp]
	mov	DWORD PTR _v_count$[ebp], edx
$LN2@ModulePowe:

; 272  :         while (v_count > 0 && v_2_buf[v_count - 1] == 0)

	cmp	DWORD PTR _v_count$[ebp], 0
	jbe	SHORT $LN3@ModulePowe
	mov	eax, DWORD PTR _v_count$[ebp]
	mov	ecx, DWORD PTR _v_2_buf$[ebp]
	cmp	DWORD PTR [ecx+eax*4-4], 0
	jne	SHORT $LN3@ModulePowe

; 273  :             --v_count;

	mov	edx, DWORD PTR _v_count$[ebp]
	sub	edx, 1
	mov	DWORD PTR _v_count$[ebp], edx
	jmp	SHORT $LN2@ModulePowe
$LN3@ModulePowe:

; 274  : 
; 275  :         if (v_count <= 0)

	cmp	DWORD PTR _v_count$[ebp], 0
	ja	SHORT $LN23@ModulePowe

; 276  :         {
; 277  :             // v2 が 0 になってしまった場合はべき乗を繰り返しても 0 になることが確定なので 0 を返す
; 278  :             DeallocateNumber(*r);

	mov	eax, DWORD PTR _r$[ebp]
	mov	ecx, DWORD PTR [eax]
	push	ecx
	call	_DeallocateNumber
	add	esp, 4

; 279  :             DeallocateBlock(q_buf, q_buf_words);

	mov	edx, DWORD PTR _q_buf_words$[ebp]
	push	edx
	mov	eax, DWORD PTR _q_buf$[ebp]
	push	eax
	call	_DeallocateBlock
	add	esp, 8

; 280  :             DeallocateBlock(work_v_buf, work_v_buf_words);

	mov	ecx, DWORD PTR _work_v_buf_words$[ebp]
	push	ecx
	mov	edx, DWORD PTR _work_v_buf$[ebp]
	push	edx
	call	_DeallocateBlock
	add	esp, 8

; 281  :             DeallocateBlock(work_2_buf, work_2_buf_words);

	mov	eax, DWORD PTR _work_2_buf_words$[ebp]
	push	eax
	mov	ecx, DWORD PTR _work_2_buf$[ebp]
	push	ecx
	call	_DeallocateBlock
	add	esp, 8

; 282  :             DeallocateBlock(work_1_buf, work_1_buf_words);

	mov	edx, DWORD PTR _work_1_buf_words$[ebp]
	push	edx
	mov	eax, DWORD PTR _work_1_buf$[ebp]
	push	eax
	call	_DeallocateBlock
	add	esp, 8

; 283  :             DeallocateBlock(v_2_buf, v_2_buf_words);

	mov	ecx, DWORD PTR _v_2_buf_words$[ebp]
	push	ecx
	mov	edx, DWORD PTR _v_2_buf$[ebp]
	push	edx
	call	_DeallocateBlock
	add	esp, 8

; 284  :             *r = &number_zero;

	mov	eax, DWORD PTR _r$[ebp]
	mov	DWORD PTR [eax], OFFSET _number_zero

; 285  : #ifdef DO_TRACE
; 286  :             ReportOUT(*r);
; 287  : #endif
; 288  :             return (PMC_STATUS_OK);

	xor	eax, eax
	jmp	$LN1@ModulePowe
$LN23@ModulePowe:

; 289  :         }
; 290  :     }

	jmp	SHORT $LN17@ModulePowe
$LN18@ModulePowe:

; 291  :     else
; 292  :     {
; 293  :         // v2 を v に設定する。
; 294  : 
; 295  :         _COPY_MEMORY_UNIT(v_2_buf, v->BLOCK, v->UNIT_WORD_COUNT);

	mov	ecx, DWORD PTR _v$[ebp]
	mov	edx, DWORD PTR [ecx]
	push	edx
	mov	eax, DWORD PTR _v$[ebp]
	mov	ecx, DWORD PTR [eax+24]
	push	ecx
	mov	edx, DWORD PTR _v_2_buf$[ebp]
	push	edx
	call	__COPY_MEMORY_UNIT
	add	esp, 12					; 0000000cH

; 296  :         v_count = v->UNIT_WORD_COUNT;

	mov	eax, DWORD PTR _v$[ebp]
	mov	ecx, DWORD PTR [eax]
	mov	DWORD PTR _v_count$[ebp], ecx
$LN17@ModulePowe:

; 297  :     }
; 298  : 
; 299  : #ifdef DO_TRACE
; 300  :     ReportLabel("vの初期化");
; 301  :     ReportDump("v", v_2_buf, v_count);
; 302  : #endif
; 303  :     __UNIT_TYPE e_count = e->UNIT_WORD_COUNT;

	mov	edx, DWORD PTR _e$[ebp]
	mov	eax, DWORD PTR [edx]
	mov	DWORD PTR _e_count$[ebp], eax

; 304  :     __UNIT_TYPE e_mask = ~((__UNIT_TYPE)-1 >> 1);

	mov	DWORD PTR _e_mask$[ebp], -2147483648	; 80000000H

; 305  :     e_mask = e_mask >> _LZCNT_ALT_UNIT(e->BLOCK[e_count - 1]);

	mov	ecx, DWORD PTR _e$[ebp]
	mov	edx, DWORD PTR [ecx+24]
	mov	eax, DWORD PTR _e_count$[ebp]
	mov	ecx, DWORD PTR [edx+eax*4-4]
	push	ecx
	call	__LZCNT_ALT_UNIT
	add	esp, 4
	mov	edx, DWORD PTR _e_mask$[ebp]
	mov	ecx, eax
	shr	edx, cl
	mov	DWORD PTR _e_mask$[ebp], edx

; 306  :     // e_mask は e の最上位 bit を示しているはず
; 307  :     // かつ、e は 2以上であるので、同時に最下位 bit であることはあり得ない
; 308  :     _COPY_MEMORY_UNIT(work_1_buf, v_2_buf, m_count);

	mov	eax, DWORD PTR _m_count$[ebp]
	push	eax
	mov	ecx, DWORD PTR _v_2_buf$[ebp]
	push	ecx
	mov	edx, DWORD PTR _work_1_buf$[ebp]
	push	edx
	call	__COPY_MEMORY_UNIT
	add	esp, 12					; 0000000cH

; 309  : 
; 310  : #ifdef _DEBUG
; 311  :     if ((e_mask & e->BLOCK[e_count - 1]) == 0)

	mov	eax, DWORD PTR _e$[ebp]
	mov	ecx, DWORD PTR [eax+24]
	mov	edx, DWORD PTR _e_count$[ebp]
	mov	eax, DWORD PTR _e_mask$[ebp]
	and	eax, DWORD PTR [ecx+edx*4-4]
	jne	SHORT $LN24@ModulePowe

; 312  :         *((int*)0) = 0;

	mov	DWORD PTR ds:0, 0
$LN24@ModulePowe:

; 313  : #endif
; 314  : 
; 315  :     __UNIT_TYPE* u_ptr = work_1_buf;

	mov	ecx, DWORD PTR _work_1_buf$[ebp]
	mov	DWORD PTR _u_ptr$[ebp], ecx

; 316  :     __UNIT_TYPE* v_ptr = v_2_buf;

	mov	edx, DWORD PTR _v_2_buf$[ebp]
	mov	DWORD PTR _v_ptr$[ebp], edx

; 317  :     __UNIT_TYPE* w_ptr = work_2_buf;

	mov	eax, DWORD PTR _work_2_buf$[ebp]
	mov	DWORD PTR _w_ptr$[ebp], eax

; 318  :     __UNIT_TYPE u_count = v_count;

	mov	ecx, DWORD PTR _v_count$[ebp]
	mov	DWORD PTR _u_count$[ebp], ecx
$LN4@ModulePowe:

; 319  : 
; 320  :     while (e_count > 0)

	cmp	DWORD PTR _e_count$[ebp], 0
	jbe	$LN5@ModulePowe

; 321  :     {
; 322  : #ifdef DO_TRACE
; 323  :         ReportLabel("ループ開始");
; 324  :         ReportVar("e_count", e_count);
; 325  :         ReportVar("e_mask", e_mask);
; 326  : #endif
; 327  : 
; 328  :         // 次の桁の準備をする
; 329  :         e_mask >>= 1;

	mov	edx, DWORD PTR _e_mask$[ebp]
	shr	edx, 1
	mov	DWORD PTR _e_mask$[ebp], edx

; 330  :         if (e_mask == 0)

	jne	SHORT $LN25@ModulePowe

; 331  :         {
; 332  :             e_mask = ~((__UNIT_TYPE)-1 >> 1);

	mov	DWORD PTR _e_mask$[ebp], -2147483648	; 80000000H

; 333  :             --e_count;

	mov	eax, DWORD PTR _e_count$[ebp]
	sub	eax, 1
	mov	DWORD PTR _e_count$[ebp], eax
$LN25@ModulePowe:

; 334  :         }
; 335  : 
; 336  :         if (e_count <= 0)

	cmp	DWORD PTR _e_count$[ebp], 0
	ja	SHORT $LN26@ModulePowe

; 337  :             break;

	jmp	$LN5@ModulePowe
$LN26@ModulePowe:

; 338  : 
; 339  : #ifdef DO_TRACE
; 340  :         ReportLabel("e の更新");
; 341  :         ReportVar("e_count", e_count);
; 342  :         ReportVar("e_mask", e_mask);
; 343  : #endif
; 344  : 
; 345  :         // w := u * u を計算する
; 346  : #ifdef DO_TRACE
; 347  :         ReportLabel("w := u * u");
; 348  :         ReportDump("u", u_ptr, u_count);
; 349  : #endif
; 350  :         _ZERO_MEMORY_UNIT(w_ptr, work_1_buf_words);

	mov	ecx, DWORD PTR _work_1_buf_words$[ebp]
	push	ecx
	mov	edx, DWORD PTR _w_ptr$[ebp]
	push	edx
	call	__ZERO_MEMORY_UNIT
	add	esp, 8

; 351  :         Multiply_X_X_Imp(u_ptr, u_count, u_ptr, u_count, w_ptr);

	mov	eax, DWORD PTR _w_ptr$[ebp]
	push	eax
	mov	ecx, DWORD PTR _u_count$[ebp]
	push	ecx
	mov	edx, DWORD PTR _u_ptr$[ebp]
	push	edx
	mov	eax, DWORD PTR _u_count$[ebp]
	push	eax
	mov	ecx, DWORD PTR _u_ptr$[ebp]
	push	ecx
	call	_Multiply_X_X_Imp
	add	esp, 20					; 00000014H

; 352  :         if ((result = CheckBlockLight(work_1_buf, work_1_buf_code)) != PMC_STATUS_OK)

	mov	edx, DWORD PTR _work_1_buf_code$[ebp]
	push	edx
	mov	eax, DWORD PTR _work_1_buf$[ebp]
	push	eax
	call	_CheckBlockLight
	add	esp, 8
	mov	DWORD PTR _result$[ebp], eax
	cmp	DWORD PTR _result$[ebp], 0
	je	SHORT $LN27@ModulePowe

; 353  :             return (result);

	mov	eax, DWORD PTR _result$[ebp]
	jmp	$LN1@ModulePowe
$LN27@ModulePowe:

; 354  :         if ((result = CheckBlockLight(work_2_buf, work_2_buf_code)) != PMC_STATUS_OK)

	mov	ecx, DWORD PTR _work_2_buf_code$[ebp]
	push	ecx
	mov	edx, DWORD PTR _work_2_buf$[ebp]
	push	edx
	call	_CheckBlockLight
	add	esp, 8
	mov	DWORD PTR _result$[ebp], eax
	cmp	DWORD PTR _result$[ebp], 0
	je	SHORT $LN28@ModulePowe

; 355  :             return (result);

	mov	eax, DWORD PTR _result$[ebp]
	jmp	$LN1@ModulePowe
$LN28@ModulePowe:

; 356  :         SwapPointer(&u_ptr, &w_ptr);

	lea	eax, DWORD PTR _w_ptr$[ebp]
	push	eax
	lea	ecx, DWORD PTR _u_ptr$[ebp]
	push	ecx
	call	_SwapPointer
	add	esp, 8

; 357  :         u_count *= 2;

	mov	edx, DWORD PTR _u_count$[ebp]
	shl	edx, 1
	mov	DWORD PTR _u_count$[ebp], edx

; 358  :         if (u_ptr[u_count - 1] == 0)

	mov	eax, DWORD PTR _u_count$[ebp]
	mov	ecx, DWORD PTR _u_ptr$[ebp]
	cmp	DWORD PTR [ecx+eax*4-4], 0
	jne	SHORT $LN29@ModulePowe

; 359  :             --u_count;

	mov	edx, DWORD PTR _u_count$[ebp]
	sub	edx, 1
	mov	DWORD PTR _u_count$[ebp], edx
$LN29@ModulePowe:

; 360  : #ifdef DO_TRACE
; 361  :         ReportDump("w", u_ptr, u_count);
; 362  : #endif
; 363  : 
; 364  :         // w := u % m を計算する
; 365  : #ifdef DO_TRACE
; 366  :         ReportLabel("w := u % m");
; 367  :         ReportDump("u", u_ptr, u_count);
; 368  :         ReportDump("m", m_buf, m_count);
; 369  : #endif
; 370  :         if (u_count >= m_count)

	mov	eax, DWORD PTR _u_count$[ebp]
	cmp	eax, DWORD PTR _m_count$[ebp]
	jb	$LN30@ModulePowe

; 371  :         {
; 372  :             _ZERO_MEMORY_UNIT(work_v_buf, work_v_buf_words);

	mov	ecx, DWORD PTR _work_v_buf_words$[ebp]
	push	ecx
	mov	edx, DWORD PTR _work_v_buf$[ebp]
	push	edx
	call	__ZERO_MEMORY_UNIT
	add	esp, 8

; 373  :             _ZERO_MEMORY_UNIT(q_buf, q_buf_words);

	mov	eax, DWORD PTR _q_buf_words$[ebp]
	push	eax
	mov	ecx, DWORD PTR _q_buf$[ebp]
	push	ecx
	call	__ZERO_MEMORY_UNIT
	add	esp, 8

; 374  :             _ZERO_MEMORY_UNIT(w_ptr, work_1_buf_words);

	mov	edx, DWORD PTR _work_1_buf_words$[ebp]
	push	edx
	mov	eax, DWORD PTR _w_ptr$[ebp]
	push	eax
	call	__ZERO_MEMORY_UNIT
	add	esp, 8

; 375  :             DivRem_X_X(u_ptr, u_count, m_buf, m_count, work_v_buf, q_buf, w_ptr);

	mov	ecx, DWORD PTR _w_ptr$[ebp]
	push	ecx
	mov	edx, DWORD PTR _q_buf$[ebp]
	push	edx
	mov	eax, DWORD PTR _work_v_buf$[ebp]
	push	eax
	mov	ecx, DWORD PTR _m_count$[ebp]
	push	ecx
	mov	edx, DWORD PTR _m_buf$[ebp]
	push	edx
	mov	eax, DWORD PTR _u_count$[ebp]
	push	eax
	mov	ecx, DWORD PTR _u_ptr$[ebp]
	push	ecx
	call	_DivRem_X_X
	add	esp, 28					; 0000001cH

; 376  :             if ((result = CheckBlockLight(work_v_buf, work_v_buf_code)) != PMC_STATUS_OK)

	mov	edx, DWORD PTR _work_v_buf_code$[ebp]
	push	edx
	mov	eax, DWORD PTR _work_v_buf$[ebp]
	push	eax
	call	_CheckBlockLight
	add	esp, 8
	mov	DWORD PTR _result$[ebp], eax
	cmp	DWORD PTR _result$[ebp], 0
	je	SHORT $LN31@ModulePowe

; 377  :                 return (result);

	mov	eax, DWORD PTR _result$[ebp]
	jmp	$LN1@ModulePowe
$LN31@ModulePowe:

; 378  :             if ((result = CheckBlockLight(q_buf, q_buf_code)) != PMC_STATUS_OK)

	mov	ecx, DWORD PTR _q_buf_code$[ebp]
	push	ecx
	mov	edx, DWORD PTR _q_buf$[ebp]
	push	edx
	call	_CheckBlockLight
	add	esp, 8
	mov	DWORD PTR _result$[ebp], eax
	cmp	DWORD PTR _result$[ebp], 0
	je	SHORT $LN32@ModulePowe

; 379  :                 return (result);

	mov	eax, DWORD PTR _result$[ebp]
	jmp	$LN1@ModulePowe
$LN32@ModulePowe:

; 380  :             if ((result = CheckBlockLight(work_1_buf, work_1_buf_code)) != PMC_STATUS_OK)

	mov	eax, DWORD PTR _work_1_buf_code$[ebp]
	push	eax
	mov	ecx, DWORD PTR _work_1_buf$[ebp]
	push	ecx
	call	_CheckBlockLight
	add	esp, 8
	mov	DWORD PTR _result$[ebp], eax
	cmp	DWORD PTR _result$[ebp], 0
	je	SHORT $LN33@ModulePowe

; 381  :                 return (result);

	mov	eax, DWORD PTR _result$[ebp]
	jmp	$LN1@ModulePowe
$LN33@ModulePowe:

; 382  :             if ((result = CheckBlockLight(work_2_buf, work_2_buf_code)) != PMC_STATUS_OK)

	mov	edx, DWORD PTR _work_2_buf_code$[ebp]
	push	edx
	mov	eax, DWORD PTR _work_2_buf$[ebp]
	push	eax
	call	_CheckBlockLight
	add	esp, 8
	mov	DWORD PTR _result$[ebp], eax
	cmp	DWORD PTR _result$[ebp], 0
	je	SHORT $LN34@ModulePowe

; 383  :                 return (result);

	mov	eax, DWORD PTR _result$[ebp]
	jmp	$LN1@ModulePowe
$LN34@ModulePowe:

; 384  :             SwapPointer(&u_ptr, &w_ptr);

	lea	ecx, DWORD PTR _w_ptr$[ebp]
	push	ecx
	lea	edx, DWORD PTR _u_ptr$[ebp]
	push	edx
	call	_SwapPointer
	add	esp, 8

; 385  :             u_count = m_count;

	mov	eax, DWORD PTR _m_count$[ebp]
	mov	DWORD PTR _u_count$[ebp], eax
$LN6@ModulePowe:

; 386  :             while (u_count > 0 && u_ptr[u_count - 1] == 0)

	cmp	DWORD PTR _u_count$[ebp], 0
	jbe	SHORT $LN7@ModulePowe
	mov	ecx, DWORD PTR _u_count$[ebp]
	mov	edx, DWORD PTR _u_ptr$[ebp]
	cmp	DWORD PTR [edx+ecx*4-4], 0
	jne	SHORT $LN7@ModulePowe

; 387  :                 --u_count;

	mov	eax, DWORD PTR _u_count$[ebp]
	sub	eax, 1
	mov	DWORD PTR _u_count$[ebp], eax
	jmp	SHORT $LN6@ModulePowe
$LN7@ModulePowe:

; 388  : 
; 389  :             if (u_count <= 0)

	cmp	DWORD PTR _u_count$[ebp], 0
	ja	SHORT $LN30@ModulePowe

; 390  :             {
; 391  :                 // 剰余が 0 になった場合はこれ以上続行しても解が 0 以外にはならないので、処理を中断して 0 を返す
; 392  :                 DeallocateNumber(*r);

	mov	ecx, DWORD PTR _r$[ebp]
	mov	edx, DWORD PTR [ecx]
	push	edx
	call	_DeallocateNumber
	add	esp, 4

; 393  :                 DeallocateBlock(q_buf, q_buf_words);

	mov	eax, DWORD PTR _q_buf_words$[ebp]
	push	eax
	mov	ecx, DWORD PTR _q_buf$[ebp]
	push	ecx
	call	_DeallocateBlock
	add	esp, 8

; 394  :                 DeallocateBlock(work_v_buf, work_v_buf_words);

	mov	edx, DWORD PTR _work_v_buf_words$[ebp]
	push	edx
	mov	eax, DWORD PTR _work_v_buf$[ebp]
	push	eax
	call	_DeallocateBlock
	add	esp, 8

; 395  :                 DeallocateBlock(work_2_buf, work_2_buf_words);

	mov	ecx, DWORD PTR _work_2_buf_words$[ebp]
	push	ecx
	mov	edx, DWORD PTR _work_2_buf$[ebp]
	push	edx
	call	_DeallocateBlock
	add	esp, 8

; 396  :                 DeallocateBlock(work_1_buf, work_1_buf_words);

	mov	eax, DWORD PTR _work_1_buf_words$[ebp]
	push	eax
	mov	ecx, DWORD PTR _work_1_buf$[ebp]
	push	ecx
	call	_DeallocateBlock
	add	esp, 8

; 397  :                 DeallocateBlock(v_2_buf, v_2_buf_words);

	mov	edx, DWORD PTR _v_2_buf_words$[ebp]
	push	edx
	mov	eax, DWORD PTR _v_2_buf$[ebp]
	push	eax
	call	_DeallocateBlock
	add	esp, 8

; 398  :                 *r = &number_zero;

	mov	ecx, DWORD PTR _r$[ebp]
	mov	DWORD PTR [ecx], OFFSET _number_zero

; 399  : #ifdef DO_TRACE
; 400  :                 ReportOUT(*r);
; 401  : #endif
; 402  :                 return (PMC_STATUS_OK);

	xor	eax, eax
	jmp	$LN1@ModulePowe
$LN30@ModulePowe:

; 403  :             }
; 404  :         }
; 405  : #ifdef DO_TRACE
; 406  :         ReportDump("w", u_ptr, u_count);
; 407  : #endif
; 408  : 
; 409  : #ifdef DO_TRACE
; 410  :         ReportLabel("e のビット検査");
; 411  :         ReportDump("e", e->BLOCK, e->UNIT_WORD_COUNT);
; 412  :         ReportVar("e_count", e_count);
; 413  :         ReportVar("e_mask", e_mask);
; 414  :         ReportVar("e_mask & e->BLOCK[e_count - 1]", e_mask & e->BLOCK[e_count - 1]);
; 415  : #endif
; 416  :         if (e_mask & e->BLOCK[e_count - 1])

	mov	edx, DWORD PTR _e$[ebp]
	mov	eax, DWORD PTR [edx+24]
	mov	ecx, DWORD PTR _e_count$[ebp]
	mov	edx, DWORD PTR _e_mask$[ebp]
	and	edx, DWORD PTR [eax+ecx*4-4]
	je	$LN36@ModulePowe

; 417  :         {
; 418  :             // e の当該桁のビットが立っている場合
; 419  : 
; 420  : #ifdef DO_TRACE
; 421  :             ReportLabel("w := u * v");
; 422  :             ReportDump("u", u_ptr, u_count);
; 423  :             ReportDump("v", v_ptr, v_count);
; 424  : #endif
; 425  : 
; 426  :             // w := u * v を計算する
; 427  :             _ZERO_MEMORY_UNIT(w_ptr, work_1_buf_words);

	mov	eax, DWORD PTR _work_1_buf_words$[ebp]
	push	eax
	mov	ecx, DWORD PTR _w_ptr$[ebp]
	push	ecx
	call	__ZERO_MEMORY_UNIT
	add	esp, 8

; 428  :             Multiply_X_X_Imp(u_ptr, u_count, v_ptr, v_count, w_ptr);

	mov	edx, DWORD PTR _w_ptr$[ebp]
	push	edx
	mov	eax, DWORD PTR _v_count$[ebp]
	push	eax
	mov	ecx, DWORD PTR _v_ptr$[ebp]
	push	ecx
	mov	edx, DWORD PTR _u_count$[ebp]
	push	edx
	mov	eax, DWORD PTR _u_ptr$[ebp]
	push	eax
	call	_Multiply_X_X_Imp
	add	esp, 20					; 00000014H

; 429  :             if ((result = CheckBlockLight(work_1_buf, work_1_buf_code)) != PMC_STATUS_OK)

	mov	ecx, DWORD PTR _work_1_buf_code$[ebp]
	push	ecx
	mov	edx, DWORD PTR _work_1_buf$[ebp]
	push	edx
	call	_CheckBlockLight
	add	esp, 8
	mov	DWORD PTR _result$[ebp], eax
	cmp	DWORD PTR _result$[ebp], 0
	je	SHORT $LN37@ModulePowe

; 430  :                 return (result);

	mov	eax, DWORD PTR _result$[ebp]
	jmp	$LN1@ModulePowe
$LN37@ModulePowe:

; 431  :             if ((result = CheckBlockLight(work_2_buf, work_2_buf_code)) != PMC_STATUS_OK)

	mov	eax, DWORD PTR _work_2_buf_code$[ebp]
	push	eax
	mov	ecx, DWORD PTR _work_2_buf$[ebp]
	push	ecx
	call	_CheckBlockLight
	add	esp, 8
	mov	DWORD PTR _result$[ebp], eax
	cmp	DWORD PTR _result$[ebp], 0
	je	SHORT $LN38@ModulePowe

; 432  :                 return (result);

	mov	eax, DWORD PTR _result$[ebp]
	jmp	$LN1@ModulePowe
$LN38@ModulePowe:

; 433  :             SwapPointer(&u_ptr, &w_ptr);

	lea	edx, DWORD PTR _w_ptr$[ebp]
	push	edx
	lea	eax, DWORD PTR _u_ptr$[ebp]
	push	eax
	call	_SwapPointer
	add	esp, 8

; 434  :             u_count += v_count;

	mov	ecx, DWORD PTR _u_count$[ebp]
	add	ecx, DWORD PTR _v_count$[ebp]
	mov	DWORD PTR _u_count$[ebp], ecx

; 435  :             if (u_ptr[u_count - 1] == 0)

	mov	edx, DWORD PTR _u_count$[ebp]
	mov	eax, DWORD PTR _u_ptr$[ebp]
	cmp	DWORD PTR [eax+edx*4-4], 0
	jne	SHORT $LN39@ModulePowe

; 436  :                 --u_count;

	mov	ecx, DWORD PTR _u_count$[ebp]
	sub	ecx, 1
	mov	DWORD PTR _u_count$[ebp], ecx
$LN39@ModulePowe:

; 437  : #ifdef DO_TRACE
; 438  :             ReportDump("w", u_ptr, u_count);
; 439  : #endif
; 440  : 
; 441  :             // w := u % m を計算する
; 442  : 
; 443  : #ifdef DO_TRACE
; 444  :             ReportLabel("w := u % m");
; 445  :             ReportDump("u", u_ptr, u_count);
; 446  :             ReportDump("m", m_buf, m_count);
; 447  : #endif
; 448  :             if (u_count >= m_count)

	mov	edx, DWORD PTR _u_count$[ebp]
	cmp	edx, DWORD PTR _m_count$[ebp]
	jb	$LN36@ModulePowe

; 449  :             {
; 450  :                 _ZERO_MEMORY_UNIT(work_v_buf, work_v_buf_words);

	mov	eax, DWORD PTR _work_v_buf_words$[ebp]
	push	eax
	mov	ecx, DWORD PTR _work_v_buf$[ebp]
	push	ecx
	call	__ZERO_MEMORY_UNIT
	add	esp, 8

; 451  :                 _ZERO_MEMORY_UNIT(q_buf, q_buf_words);

	mov	edx, DWORD PTR _q_buf_words$[ebp]
	push	edx
	mov	eax, DWORD PTR _q_buf$[ebp]
	push	eax
	call	__ZERO_MEMORY_UNIT
	add	esp, 8

; 452  :                 _ZERO_MEMORY_UNIT(w_ptr, work_1_buf_words);

	mov	ecx, DWORD PTR _work_1_buf_words$[ebp]
	push	ecx
	mov	edx, DWORD PTR _w_ptr$[ebp]
	push	edx
	call	__ZERO_MEMORY_UNIT
	add	esp, 8

; 453  :                 DivRem_X_X(u_ptr, u_count, m_buf, m_count, work_v_buf, q_buf, w_ptr);

	mov	eax, DWORD PTR _w_ptr$[ebp]
	push	eax
	mov	ecx, DWORD PTR _q_buf$[ebp]
	push	ecx
	mov	edx, DWORD PTR _work_v_buf$[ebp]
	push	edx
	mov	eax, DWORD PTR _m_count$[ebp]
	push	eax
	mov	ecx, DWORD PTR _m_buf$[ebp]
	push	ecx
	mov	edx, DWORD PTR _u_count$[ebp]
	push	edx
	mov	eax, DWORD PTR _u_ptr$[ebp]
	push	eax
	call	_DivRem_X_X
	add	esp, 28					; 0000001cH

; 454  :                 if ((result = CheckBlockLight(work_v_buf, work_v_buf_code)) != PMC_STATUS_OK)

	mov	ecx, DWORD PTR _work_v_buf_code$[ebp]
	push	ecx
	mov	edx, DWORD PTR _work_v_buf$[ebp]
	push	edx
	call	_CheckBlockLight
	add	esp, 8
	mov	DWORD PTR _result$[ebp], eax
	cmp	DWORD PTR _result$[ebp], 0
	je	SHORT $LN41@ModulePowe

; 455  :                     return (result);

	mov	eax, DWORD PTR _result$[ebp]
	jmp	$LN1@ModulePowe
$LN41@ModulePowe:

; 456  :                 if ((result = CheckBlockLight(q_buf, q_buf_code)) != PMC_STATUS_OK)

	mov	eax, DWORD PTR _q_buf_code$[ebp]
	push	eax
	mov	ecx, DWORD PTR _q_buf$[ebp]
	push	ecx
	call	_CheckBlockLight
	add	esp, 8
	mov	DWORD PTR _result$[ebp], eax
	cmp	DWORD PTR _result$[ebp], 0
	je	SHORT $LN42@ModulePowe

; 457  :                     return (result);

	mov	eax, DWORD PTR _result$[ebp]
	jmp	$LN1@ModulePowe
$LN42@ModulePowe:

; 458  :                 if ((result = CheckBlockLight(work_1_buf, work_1_buf_code)) != PMC_STATUS_OK)

	mov	edx, DWORD PTR _work_1_buf_code$[ebp]
	push	edx
	mov	eax, DWORD PTR _work_1_buf$[ebp]
	push	eax
	call	_CheckBlockLight
	add	esp, 8
	mov	DWORD PTR _result$[ebp], eax
	cmp	DWORD PTR _result$[ebp], 0
	je	SHORT $LN43@ModulePowe

; 459  :                     return (result);

	mov	eax, DWORD PTR _result$[ebp]
	jmp	$LN1@ModulePowe
$LN43@ModulePowe:

; 460  :                 if ((result = CheckBlockLight(work_2_buf, work_2_buf_code)) != PMC_STATUS_OK)

	mov	ecx, DWORD PTR _work_2_buf_code$[ebp]
	push	ecx
	mov	edx, DWORD PTR _work_2_buf$[ebp]
	push	edx
	call	_CheckBlockLight
	add	esp, 8
	mov	DWORD PTR _result$[ebp], eax
	cmp	DWORD PTR _result$[ebp], 0
	je	SHORT $LN44@ModulePowe

; 461  :                     return (result);

	mov	eax, DWORD PTR _result$[ebp]
	jmp	$LN1@ModulePowe
$LN44@ModulePowe:

; 462  :                 SwapPointer(&u_ptr, &w_ptr);

	lea	eax, DWORD PTR _w_ptr$[ebp]
	push	eax
	lea	ecx, DWORD PTR _u_ptr$[ebp]
	push	ecx
	call	_SwapPointer
	add	esp, 8

; 463  :                 u_count = m_count;

	mov	edx, DWORD PTR _m_count$[ebp]
	mov	DWORD PTR _u_count$[ebp], edx
$LN8@ModulePowe:

; 464  :                 while (u_count > 0 && u_ptr[u_count - 1] == 0)

	cmp	DWORD PTR _u_count$[ebp], 0
	jbe	SHORT $LN9@ModulePowe
	mov	eax, DWORD PTR _u_count$[ebp]
	mov	ecx, DWORD PTR _u_ptr$[ebp]
	cmp	DWORD PTR [ecx+eax*4-4], 0
	jne	SHORT $LN9@ModulePowe

; 465  :                     --u_count;

	mov	edx, DWORD PTR _u_count$[ebp]
	sub	edx, 1
	mov	DWORD PTR _u_count$[ebp], edx
	jmp	SHORT $LN8@ModulePowe
$LN9@ModulePowe:

; 466  : 
; 467  :                 if (u_count <= 0)

	cmp	DWORD PTR _u_count$[ebp], 0
	ja	SHORT $LN36@ModulePowe

; 468  :                 {
; 469  :                     // 剰余が 0 になった場合はこれ以上続行しても解が 0 以外にはならないので、処理を中断して 0 を返す
; 470  :                     DeallocateNumber(*r);

	mov	eax, DWORD PTR _r$[ebp]
	mov	ecx, DWORD PTR [eax]
	push	ecx
	call	_DeallocateNumber
	add	esp, 4

; 471  :                     DeallocateBlock(q_buf, q_buf_words);

	mov	edx, DWORD PTR _q_buf_words$[ebp]
	push	edx
	mov	eax, DWORD PTR _q_buf$[ebp]
	push	eax
	call	_DeallocateBlock
	add	esp, 8

; 472  :                     DeallocateBlock(work_v_buf, work_v_buf_words);

	mov	ecx, DWORD PTR _work_v_buf_words$[ebp]
	push	ecx
	mov	edx, DWORD PTR _work_v_buf$[ebp]
	push	edx
	call	_DeallocateBlock
	add	esp, 8

; 473  :                     DeallocateBlock(work_2_buf, work_2_buf_words);

	mov	eax, DWORD PTR _work_2_buf_words$[ebp]
	push	eax
	mov	ecx, DWORD PTR _work_2_buf$[ebp]
	push	ecx
	call	_DeallocateBlock
	add	esp, 8

; 474  :                     DeallocateBlock(work_1_buf, work_1_buf_words);

	mov	edx, DWORD PTR _work_1_buf_words$[ebp]
	push	edx
	mov	eax, DWORD PTR _work_1_buf$[ebp]
	push	eax
	call	_DeallocateBlock
	add	esp, 8

; 475  :                     DeallocateBlock(v_2_buf, v_2_buf_words);

	mov	ecx, DWORD PTR _v_2_buf_words$[ebp]
	push	ecx
	mov	edx, DWORD PTR _v_2_buf$[ebp]
	push	edx
	call	_DeallocateBlock
	add	esp, 8

; 476  :                     *r = &number_zero;

	mov	eax, DWORD PTR _r$[ebp]
	mov	DWORD PTR [eax], OFFSET _number_zero

; 477  : #ifdef DO_TRACE
; 478  :                     ReportOUT(*r);
; 479  : #endif
; 480  :                     return (PMC_STATUS_OK);

	xor	eax, eax
	jmp	$LN1@ModulePowe
$LN36@ModulePowe:

; 481  :                 }
; 482  :             }
; 483  : #ifdef DO_TRACE
; 484  :             ReportDump("w", u_ptr, u_count);
; 485  : #endif
; 486  :         }
; 487  :     }

	jmp	$LN4@ModulePowe
$LN5@ModulePowe:

; 488  : 
; 489  :     // 最下位桁まで達したので u_ptr と u_count を解として帰る
; 490  :     _COPY_MEMORY_UNIT((*r)->BLOCK, u_ptr, u_count);

	mov	ecx, DWORD PTR _u_count$[ebp]
	push	ecx
	mov	edx, DWORD PTR _u_ptr$[ebp]
	push	edx
	mov	eax, DWORD PTR _r$[ebp]
	mov	ecx, DWORD PTR [eax]
	mov	edx, DWORD PTR [ecx+24]
	push	edx
	call	__COPY_MEMORY_UNIT
	add	esp, 12					; 0000000cH

; 491  :     if ((result = CheckBlockLight((*r)->BLOCK, r_check_code)) != PMC_STATUS_OK)

	mov	eax, DWORD PTR _r_check_code$[ebp]
	push	eax
	mov	ecx, DWORD PTR _r$[ebp]
	mov	edx, DWORD PTR [ecx]
	mov	eax, DWORD PTR [edx+24]
	push	eax
	call	_CheckBlockLight
	add	esp, 8
	mov	DWORD PTR _result$[ebp], eax
	cmp	DWORD PTR _result$[ebp], 0
	je	SHORT $LN46@ModulePowe

; 492  :         return (result);

	mov	eax, DWORD PTR _result$[ebp]
	jmp	SHORT $LN1@ModulePowe
$LN46@ModulePowe:

; 493  :     CommitNumber(*r);

	mov	ecx, DWORD PTR _r$[ebp]
	mov	edx, DWORD PTR [ecx]
	push	edx
	call	_CommitNumber
	add	esp, 4

; 494  :     DeallocateBlock(q_buf, q_buf_words);

	mov	eax, DWORD PTR _q_buf_words$[ebp]
	push	eax
	mov	ecx, DWORD PTR _q_buf$[ebp]
	push	ecx
	call	_DeallocateBlock
	add	esp, 8

; 495  :     DeallocateBlock(work_v_buf, work_v_buf_words);

	mov	edx, DWORD PTR _work_v_buf_words$[ebp]
	push	edx
	mov	eax, DWORD PTR _work_v_buf$[ebp]
	push	eax
	call	_DeallocateBlock
	add	esp, 8

; 496  :     DeallocateBlock(work_2_buf, work_2_buf_words);

	mov	ecx, DWORD PTR _work_2_buf_words$[ebp]
	push	ecx
	mov	edx, DWORD PTR _work_2_buf$[ebp]
	push	edx
	call	_DeallocateBlock
	add	esp, 8

; 497  :     DeallocateBlock(work_1_buf, work_1_buf_words);

	mov	eax, DWORD PTR _work_1_buf_words$[ebp]
	push	eax
	mov	ecx, DWORD PTR _work_1_buf$[ebp]
	push	ecx
	call	_DeallocateBlock
	add	esp, 8

; 498  :     DeallocateBlock(v_2_buf, v_2_buf_words);

	mov	edx, DWORD PTR _v_2_buf_words$[ebp]
	push	edx
	mov	eax, DWORD PTR _v_2_buf$[ebp]
	push	eax
	call	_DeallocateBlock
	add	esp, 8

; 499  : #ifdef DO_TRACE
; 500  :     ReportOUT(*r);
; 501  : #endif
; 502  :     return (PMC_STATUS_OK);

	xor	eax, eax
$LN1@ModulePowe:

; 503  : }

	push	edx
	mov	ecx, ebp
	push	eax
	lea	edx, DWORD PTR $LN62@ModulePowe
	call	@_RTC_CheckStackVars@8
	pop	eax
	pop	edx
	pop	edi
	add	esp, 236				; 000000ecH
	cmp	ebp, esp
	call	__RTC_CheckEsp
	mov	esp, ebp
	pop	ebp
	ret	0
$LN62@ModulePowe:
	DD	13					; 0000000dH
	DD	$LN61@ModulePowe
$LN61@ModulePowe:
	DD	-24					; ffffffe8H
	DD	4
	DD	$LN48@ModulePowe
	DD	-36					; ffffffdcH
	DD	4
	DD	$LN49@ModulePowe
	DD	-56					; ffffffc8H
	DD	4
	DD	$LN50@ModulePowe
	DD	-68					; ffffffbcH
	DD	4
	DD	$LN51@ModulePowe
	DD	-88					; ffffffa8H
	DD	4
	DD	$LN52@ModulePowe
	DD	-100					; ffffff9cH
	DD	4
	DD	$LN53@ModulePowe
	DD	-120					; ffffff88H
	DD	4
	DD	$LN54@ModulePowe
	DD	-132					; ffffff7cH
	DD	4
	DD	$LN55@ModulePowe
	DD	-152					; ffffff68H
	DD	4
	DD	$LN56@ModulePowe
	DD	-164					; ffffff5cH
	DD	4
	DD	$LN57@ModulePowe
	DD	-184					; ffffff48H
	DD	4
	DD	$LN58@ModulePowe
	DD	-212					; ffffff2cH
	DD	4
	DD	$LN59@ModulePowe
	DD	-228					; ffffff1cH
	DD	4
	DD	$LN60@ModulePowe
$LN60@ModulePowe:
	DB	119					; 00000077H
	DB	95					; 0000005fH
	DB	112					; 00000070H
	DB	116					; 00000074H
	DB	114					; 00000072H
	DB	0
$LN59@ModulePowe:
	DB	117					; 00000075H
	DB	95					; 0000005fH
	DB	112					; 00000070H
	DB	116					; 00000074H
	DB	114					; 00000072H
	DB	0
$LN58@ModulePowe:
	DB	114					; 00000072H
	DB	95					; 0000005fH
	DB	99					; 00000063H
	DB	104					; 00000068H
	DB	101					; 00000065H
	DB	99					; 00000063H
	DB	107					; 0000006bH
	DB	95					; 0000005fH
	DB	99					; 00000063H
	DB	111					; 0000006fH
	DB	100					; 00000064H
	DB	101					; 00000065H
	DB	0
$LN57@ModulePowe:
	DB	113					; 00000071H
	DB	95					; 0000005fH
	DB	98					; 00000062H
	DB	117					; 00000075H
	DB	102					; 00000066H
	DB	95					; 0000005fH
	DB	119					; 00000077H
	DB	111					; 0000006fH
	DB	114					; 00000072H
	DB	100					; 00000064H
	DB	115					; 00000073H
	DB	0
$LN56@ModulePowe:
	DB	113					; 00000071H
	DB	95					; 0000005fH
	DB	98					; 00000062H
	DB	117					; 00000075H
	DB	102					; 00000066H
	DB	95					; 0000005fH
	DB	99					; 00000063H
	DB	111					; 0000006fH
	DB	100					; 00000064H
	DB	101					; 00000065H
	DB	0
$LN55@ModulePowe:
	DB	119					; 00000077H
	DB	111					; 0000006fH
	DB	114					; 00000072H
	DB	107					; 0000006bH
	DB	95					; 0000005fH
	DB	118					; 00000076H
	DB	95					; 0000005fH
	DB	98					; 00000062H
	DB	117					; 00000075H
	DB	102					; 00000066H
	DB	95					; 0000005fH
	DB	119					; 00000077H
	DB	111					; 0000006fH
	DB	114					; 00000072H
	DB	100					; 00000064H
	DB	115					; 00000073H
	DB	0
$LN54@ModulePowe:
	DB	119					; 00000077H
	DB	111					; 0000006fH
	DB	114					; 00000072H
	DB	107					; 0000006bH
	DB	95					; 0000005fH
	DB	118					; 00000076H
	DB	95					; 0000005fH
	DB	98					; 00000062H
	DB	117					; 00000075H
	DB	102					; 00000066H
	DB	95					; 0000005fH
	DB	99					; 00000063H
	DB	111					; 0000006fH
	DB	100					; 00000064H
	DB	101					; 00000065H
	DB	0
$LN53@ModulePowe:
	DB	119					; 00000077H
	DB	111					; 0000006fH
	DB	114					; 00000072H
	DB	107					; 0000006bH
	DB	95					; 0000005fH
	DB	50					; 00000032H
	DB	95					; 0000005fH
	DB	98					; 00000062H
	DB	117					; 00000075H
	DB	102					; 00000066H
	DB	95					; 0000005fH
	DB	119					; 00000077H
	DB	111					; 0000006fH
	DB	114					; 00000072H
	DB	100					; 00000064H
	DB	115					; 00000073H
	DB	0
$LN52@ModulePowe:
	DB	119					; 00000077H
	DB	111					; 0000006fH
	DB	114					; 00000072H
	DB	107					; 0000006bH
	DB	95					; 0000005fH
	DB	50					; 00000032H
	DB	95					; 0000005fH
	DB	98					; 00000062H
	DB	117					; 00000075H
	DB	102					; 00000066H
	DB	95					; 0000005fH
	DB	99					; 00000063H
	DB	111					; 0000006fH
	DB	100					; 00000064H
	DB	101					; 00000065H
	DB	0
$LN51@ModulePowe:
	DB	119					; 00000077H
	DB	111					; 0000006fH
	DB	114					; 00000072H
	DB	107					; 0000006bH
	DB	95					; 0000005fH
	DB	49					; 00000031H
	DB	95					; 0000005fH
	DB	98					; 00000062H
	DB	117					; 00000075H
	DB	102					; 00000066H
	DB	95					; 0000005fH
	DB	119					; 00000077H
	DB	111					; 0000006fH
	DB	114					; 00000072H
	DB	100					; 00000064H
	DB	115					; 00000073H
	DB	0
$LN50@ModulePowe:
	DB	119					; 00000077H
	DB	111					; 0000006fH
	DB	114					; 00000072H
	DB	107					; 0000006bH
	DB	95					; 0000005fH
	DB	49					; 00000031H
	DB	95					; 0000005fH
	DB	98					; 00000062H
	DB	117					; 00000075H
	DB	102					; 00000066H
	DB	95					; 0000005fH
	DB	99					; 00000063H
	DB	111					; 0000006fH
	DB	100					; 00000064H
	DB	101					; 00000065H
	DB	0
$LN49@ModulePowe:
	DB	118					; 00000076H
	DB	95					; 0000005fH
	DB	50					; 00000032H
	DB	95					; 0000005fH
	DB	98					; 00000062H
	DB	117					; 00000075H
	DB	102					; 00000066H
	DB	95					; 0000005fH
	DB	119					; 00000077H
	DB	111					; 0000006fH
	DB	114					; 00000072H
	DB	100					; 00000064H
	DB	115					; 00000073H
	DB	0
$LN48@ModulePowe:
	DB	118					; 00000076H
	DB	95					; 0000005fH
	DB	50					; 00000032H
	DB	95					; 0000005fH
	DB	98					; 00000062H
	DB	117					; 00000075H
	DB	102					; 00000066H
	DB	95					; 0000005fH
	DB	99					; 00000063H
	DB	111					; 0000006fH
	DB	100					; 00000064H
	DB	101					; 00000065H
	DB	0
_ModulePower ENDP
_TEXT	ENDS
; Function compile flags: /Odtp /RTCsu
; File z:\sources\lunor\repos\rougemeilland\palmtree.math.core.implements\palmtree.math.core.implements\pmc_modpow.c
_TEXT	SEGMENT
_r_check_code$1 = -68					; size = 4
_q_buf$2 = -60						; size = 4
_q_buf_words$3 = -52					; size = 4
_q_buf_code$4 = -40					; size = 4
_work_v_buf$5 = -32					; size = 4
_work_v_buf_words$6 = -24				; size = 4
_work_v_buf_code$7 = -12				; size = 4
_result$ = -4						; size = 4
_u$ = 8							; size = 4
_v$ = 12						; size = 4
_r$ = 16						; size = 4
_Remainder PROC

; 104  : {

	push	ebp
	mov	ebp, esp
	sub	esp, 72					; 00000048H
	push	edi
	lea	edi, DWORD PTR [ebp-72]
	mov	ecx, 18					; 00000012H
	mov	eax, -858993460				; ccccccccH
	rep stosd
	mov	ecx, OFFSET __54B479F5_pmc_modpow@c
	call	@__CheckForDebuggerJustMyCode@4

; 105  :     PMC_STATUS_CODE result;
; 106  : 
; 107  :     if (u->UNIT_BIT_COUNT < v->UNIT_BIT_COUNT)

	mov	eax, DWORD PTR _u$[ebp]
	mov	ecx, DWORD PTR _v$[ebp]
	mov	edx, DWORD PTR [eax+4]
	cmp	edx, DWORD PTR [ecx+4]
	jae	SHORT $LN2@Remainder

; 108  :     {
; 109  :         if ((result = DuplicateNumber(u, r)) != PMC_STATUS_OK)

	mov	eax, DWORD PTR _r$[ebp]
	push	eax
	mov	ecx, DWORD PTR _u$[ebp]
	push	ecx
	call	_DuplicateNumber
	add	esp, 8
	mov	DWORD PTR _result$[ebp], eax
	cmp	DWORD PTR _result$[ebp], 0
	je	SHORT $LN4@Remainder

; 110  :             return (result);

	mov	eax, DWORD PTR _result$[ebp]
	jmp	$LN1@Remainder
$LN4@Remainder:

; 111  :     }

	jmp	$LN3@Remainder
$LN2@Remainder:

; 112  :     else
; 113  :     {
; 114  :         __UNIT_TYPE work_v_buf_code;
; 115  :         __UNIT_TYPE work_v_buf_words;
; 116  :         __UNIT_TYPE* work_v_buf = AllocateBlock(v->UNIT_BIT_COUNT, &work_v_buf_words, &work_v_buf_code);

	lea	edx, DWORD PTR _work_v_buf_code$7[ebp]
	push	edx
	lea	eax, DWORD PTR _work_v_buf_words$6[ebp]
	push	eax
	mov	ecx, DWORD PTR _v$[ebp]
	mov	edx, DWORD PTR [ecx+4]
	push	edx
	call	_AllocateBlock
	add	esp, 12					; 0000000cH
	mov	DWORD PTR _work_v_buf$5[ebp], eax

; 117  :         if (work_v_buf == NULL)

	cmp	DWORD PTR _work_v_buf$5[ebp], 0
	jne	SHORT $LN5@Remainder

; 118  :         {
; 119  :             return (PMC_STATUS_NOT_ENOUGH_MEMORY);

	mov	eax, -5					; fffffffbH
	jmp	$LN1@Remainder
$LN5@Remainder:

; 120  :         }
; 121  :         __UNIT_TYPE q_buf_code;
; 122  :         __UNIT_TYPE q_buf_words;
; 123  :         __UNIT_TYPE* q_buf = AllocateBlock(u->UNIT_BIT_COUNT - v->UNIT_BIT_COUNT + 1 + __UNIT_TYPE_BIT_COUNT, &q_buf_words, &q_buf_code);

	lea	eax, DWORD PTR _q_buf_code$4[ebp]
	push	eax
	lea	ecx, DWORD PTR _q_buf_words$3[ebp]
	push	ecx
	mov	edx, DWORD PTR _u$[ebp]
	mov	eax, DWORD PTR _v$[ebp]
	mov	ecx, DWORD PTR [edx+4]
	sub	ecx, DWORD PTR [eax+4]
	add	ecx, 33					; 00000021H
	push	ecx
	call	_AllocateBlock
	add	esp, 12					; 0000000cH
	mov	DWORD PTR _q_buf$2[ebp], eax

; 124  :         if (q_buf == NULL)

	cmp	DWORD PTR _q_buf$2[ebp], 0
	jne	SHORT $LN6@Remainder

; 125  :         {
; 126  :             DeallocateBlock(work_v_buf, work_v_buf_words);

	mov	edx, DWORD PTR _work_v_buf_words$6[ebp]
	push	edx
	mov	eax, DWORD PTR _work_v_buf$5[ebp]
	push	eax
	call	_DeallocateBlock
	add	esp, 8

; 127  :             return (PMC_STATUS_NOT_ENOUGH_MEMORY);

	mov	eax, -5					; fffffffbH
	jmp	$LN1@Remainder
$LN6@Remainder:

; 128  :         }
; 129  :         __UNIT_TYPE r_check_code;
; 130  :         if ((result = AllocateNumber(r, u->UNIT_BIT_COUNT + __UNIT_TYPE_BIT_COUNT, &r_check_code)) != PMC_STATUS_OK)

	lea	ecx, DWORD PTR _r_check_code$1[ebp]
	push	ecx
	mov	edx, DWORD PTR _u$[ebp]
	mov	eax, DWORD PTR [edx+4]
	add	eax, 32					; 00000020H
	push	eax
	mov	ecx, DWORD PTR _r$[ebp]
	push	ecx
	call	_AllocateNumber
	add	esp, 12					; 0000000cH
	mov	DWORD PTR _result$[ebp], eax
	cmp	DWORD PTR _result$[ebp], 0
	je	SHORT $LN7@Remainder

; 131  :         {
; 132  :             DeallocateBlock(q_buf, q_buf_words);

	mov	edx, DWORD PTR _q_buf_words$3[ebp]
	push	edx
	mov	eax, DWORD PTR _q_buf$2[ebp]
	push	eax
	call	_DeallocateBlock
	add	esp, 8

; 133  :             DeallocateBlock(work_v_buf, work_v_buf_words);

	mov	ecx, DWORD PTR _work_v_buf_words$6[ebp]
	push	ecx
	mov	edx, DWORD PTR _work_v_buf$5[ebp]
	push	edx
	call	_DeallocateBlock
	add	esp, 8

; 134  :             return (PMC_STATUS_NOT_ENOUGH_MEMORY);

	mov	eax, -5					; fffffffbH
	jmp	$LN1@Remainder
$LN7@Remainder:

; 135  :         }
; 136  : 
; 137  :         if (u->UNIT_WORD_COUNT < v->UNIT_WORD_COUNT)

	mov	eax, DWORD PTR _u$[ebp]
	mov	ecx, DWORD PTR _v$[ebp]
	mov	edx, DWORD PTR [eax]
	cmp	edx, DWORD PTR [ecx]
	jae	SHORT $LN8@Remainder

; 138  :         {
; 139  :             q_buf[0] = 0;

	mov	eax, 4
	imul	ecx, eax, 0
	mov	edx, DWORD PTR _q_buf$2[ebp]
	mov	DWORD PTR [edx+ecx], 0

; 140  :             _COPY_MEMORY_UNIT((*r)->BLOCK, u->BLOCK, u->UNIT_WORD_COUNT);

	mov	eax, DWORD PTR _u$[ebp]
	mov	ecx, DWORD PTR [eax]
	push	ecx
	mov	edx, DWORD PTR _u$[ebp]
	mov	eax, DWORD PTR [edx+24]
	push	eax
	mov	ecx, DWORD PTR _r$[ebp]
	mov	edx, DWORD PTR [ecx]
	mov	eax, DWORD PTR [edx+24]
	push	eax
	call	__COPY_MEMORY_UNIT
	add	esp, 12					; 0000000cH

; 141  :         }

	jmp	$LN9@Remainder
$LN8@Remainder:

; 142  :         else
; 143  :         {
; 144  :             DivRem_X_X(u->BLOCK, u->UNIT_WORD_COUNT, v->BLOCK, v->UNIT_WORD_COUNT, work_v_buf, q_buf, (*r)->BLOCK);

	mov	ecx, DWORD PTR _r$[ebp]
	mov	edx, DWORD PTR [ecx]
	mov	eax, DWORD PTR [edx+24]
	push	eax
	mov	ecx, DWORD PTR _q_buf$2[ebp]
	push	ecx
	mov	edx, DWORD PTR _work_v_buf$5[ebp]
	push	edx
	mov	eax, DWORD PTR _v$[ebp]
	mov	ecx, DWORD PTR [eax]
	push	ecx
	mov	edx, DWORD PTR _v$[ebp]
	mov	eax, DWORD PTR [edx+24]
	push	eax
	mov	ecx, DWORD PTR _u$[ebp]
	mov	edx, DWORD PTR [ecx]
	push	edx
	mov	eax, DWORD PTR _u$[ebp]
	mov	ecx, DWORD PTR [eax+24]
	push	ecx
	call	_DivRem_X_X
	add	esp, 28					; 0000001cH

; 145  :             if ((result = CheckBlockLight(work_v_buf, work_v_buf_code)) != PMC_STATUS_OK)

	mov	edx, DWORD PTR _work_v_buf_code$7[ebp]
	push	edx
	mov	eax, DWORD PTR _work_v_buf$5[ebp]
	push	eax
	call	_CheckBlockLight
	add	esp, 8
	mov	DWORD PTR _result$[ebp], eax
	cmp	DWORD PTR _result$[ebp], 0
	je	SHORT $LN10@Remainder

; 146  :                 return (result);

	mov	eax, DWORD PTR _result$[ebp]
	jmp	SHORT $LN1@Remainder
$LN10@Remainder:

; 147  :             if ((result = CheckBlockLight(q_buf, q_buf_code)) != PMC_STATUS_OK)

	mov	ecx, DWORD PTR _q_buf_code$4[ebp]
	push	ecx
	mov	edx, DWORD PTR _q_buf$2[ebp]
	push	edx
	call	_CheckBlockLight
	add	esp, 8
	mov	DWORD PTR _result$[ebp], eax
	cmp	DWORD PTR _result$[ebp], 0
	je	SHORT $LN11@Remainder

; 148  :                 return (result);

	mov	eax, DWORD PTR _result$[ebp]
	jmp	SHORT $LN1@Remainder
$LN11@Remainder:

; 149  :             if ((result = CheckBlockLight((*r)->BLOCK, r_check_code)) != PMC_STATUS_OK)

	mov	eax, DWORD PTR _r_check_code$1[ebp]
	push	eax
	mov	ecx, DWORD PTR _r$[ebp]
	mov	edx, DWORD PTR [ecx]
	mov	eax, DWORD PTR [edx+24]
	push	eax
	call	_CheckBlockLight
	add	esp, 8
	mov	DWORD PTR _result$[ebp], eax
	cmp	DWORD PTR _result$[ebp], 0
	je	SHORT $LN9@Remainder

; 150  :                 return (result);

	mov	eax, DWORD PTR _result$[ebp]
	jmp	SHORT $LN1@Remainder
$LN9@Remainder:

; 151  :         }
; 152  : 
; 153  :         DeallocateBlock(q_buf, q_buf_words);

	mov	ecx, DWORD PTR _q_buf_words$3[ebp]
	push	ecx
	mov	edx, DWORD PTR _q_buf$2[ebp]
	push	edx
	call	_DeallocateBlock
	add	esp, 8

; 154  :         DeallocateBlock(work_v_buf, work_v_buf_words);

	mov	eax, DWORD PTR _work_v_buf_words$6[ebp]
	push	eax
	mov	ecx, DWORD PTR _work_v_buf$5[ebp]
	push	ecx
	call	_DeallocateBlock
	add	esp, 8

; 155  :         CommitNumber(*r);

	mov	edx, DWORD PTR _r$[ebp]
	mov	eax, DWORD PTR [edx]
	push	eax
	call	_CommitNumber
	add	esp, 4
$LN3@Remainder:

; 156  :     }
; 157  :     return (PMC_STATUS_OK);

	xor	eax, eax
$LN1@Remainder:

; 158  : }

	push	edx
	mov	ecx, ebp
	push	eax
	lea	edx, DWORD PTR $LN20@Remainder
	call	@_RTC_CheckStackVars@8
	pop	eax
	pop	edx
	pop	edi
	add	esp, 72					; 00000048H
	cmp	ebp, esp
	call	__RTC_CheckEsp
	mov	esp, ebp
	pop	ebp
	ret	0
	npad	3
$LN20@Remainder:
	DD	5
	DD	$LN19@Remainder
$LN19@Remainder:
	DD	-12					; fffffff4H
	DD	4
	DD	$LN14@Remainder
	DD	-24					; ffffffe8H
	DD	4
	DD	$LN15@Remainder
	DD	-40					; ffffffd8H
	DD	4
	DD	$LN16@Remainder
	DD	-52					; ffffffccH
	DD	4
	DD	$LN17@Remainder
	DD	-68					; ffffffbcH
	DD	4
	DD	$LN18@Remainder
$LN18@Remainder:
	DB	114					; 00000072H
	DB	95					; 0000005fH
	DB	99					; 00000063H
	DB	104					; 00000068H
	DB	101					; 00000065H
	DB	99					; 00000063H
	DB	107					; 0000006bH
	DB	95					; 0000005fH
	DB	99					; 00000063H
	DB	111					; 0000006fH
	DB	100					; 00000064H
	DB	101					; 00000065H
	DB	0
$LN17@Remainder:
	DB	113					; 00000071H
	DB	95					; 0000005fH
	DB	98					; 00000062H
	DB	117					; 00000075H
	DB	102					; 00000066H
	DB	95					; 0000005fH
	DB	119					; 00000077H
	DB	111					; 0000006fH
	DB	114					; 00000072H
	DB	100					; 00000064H
	DB	115					; 00000073H
	DB	0
$LN16@Remainder:
	DB	113					; 00000071H
	DB	95					; 0000005fH
	DB	98					; 00000062H
	DB	117					; 00000075H
	DB	102					; 00000066H
	DB	95					; 0000005fH
	DB	99					; 00000063H
	DB	111					; 0000006fH
	DB	100					; 00000064H
	DB	101					; 00000065H
	DB	0
$LN15@Remainder:
	DB	119					; 00000077H
	DB	111					; 0000006fH
	DB	114					; 00000072H
	DB	107					; 0000006bH
	DB	95					; 0000005fH
	DB	118					; 00000076H
	DB	95					; 0000005fH
	DB	98					; 00000062H
	DB	117					; 00000075H
	DB	102					; 00000066H
	DB	95					; 0000005fH
	DB	119					; 00000077H
	DB	111					; 0000006fH
	DB	114					; 00000072H
	DB	100					; 00000064H
	DB	115					; 00000073H
	DB	0
$LN14@Remainder:
	DB	119					; 00000077H
	DB	111					; 0000006fH
	DB	114					; 00000072H
	DB	107					; 0000006bH
	DB	95					; 0000005fH
	DB	118					; 00000076H
	DB	95					; 0000005fH
	DB	98					; 00000062H
	DB	117					; 00000075H
	DB	102					; 00000066H
	DB	95					; 0000005fH
	DB	99					; 00000063H
	DB	111					; 0000006fH
	DB	100					; 00000064H
	DB	101					; 00000065H
	DB	0
_Remainder ENDP
_TEXT	ENDS
; Function compile flags: /Odtp /RTCsu
; File z:\sources\lunor\repos\rougemeilland\palmtree.math.core.implements\palmtree.math.core.implements\pmc_modpow.c
_TEXT	SEGMENT
_t$ = -4						; size = 4
_u$ = 8							; size = 4
_v$ = 12						; size = 4
_SwapPointer PROC

; 97   : {

	push	ebp
	mov	ebp, esp
	push	ecx
	mov	DWORD PTR [ebp-4], -858993460		; ccccccccH
	mov	ecx, OFFSET __54B479F5_pmc_modpow@c
	call	@__CheckForDebuggerJustMyCode@4

; 98   :     __UNIT_TYPE* t = *u;

	mov	eax, DWORD PTR _u$[ebp]
	mov	ecx, DWORD PTR [eax]
	mov	DWORD PTR _t$[ebp], ecx

; 99   :     *u = *v;

	mov	edx, DWORD PTR _u$[ebp]
	mov	eax, DWORD PTR _v$[ebp]
	mov	ecx, DWORD PTR [eax]
	mov	DWORD PTR [edx], ecx

; 100  :     *v = t;

	mov	edx, DWORD PTR _v$[ebp]
	mov	eax, DWORD PTR _t$[ebp]
	mov	DWORD PTR [edx], eax

; 101  : }

	add	esp, 4
	cmp	ebp, esp
	call	__RTC_CheckEsp
	mov	esp, ebp
	pop	ebp
	ret	0
_SwapPointer ENDP
_TEXT	ENDS
; Function compile flags: /Odtp /RTCsu
; File z:\sources\lunor\repos\rougemeilland\palmtree.math.core.implements\palmtree.math.core.implements\pmc_modpow.c
_TEXT	SEGMENT
_u$ = 8							; size = 4
_u_count$ = 12						; size = 4
_v$ = 16						; size = 4
_v_count$ = 20						; size = 4
_Compare_Easy PROC

; 87   : {

	push	ebp
	mov	ebp, esp
	mov	ecx, OFFSET __54B479F5_pmc_modpow@c
	call	@__CheckForDebuggerJustMyCode@4

; 88   :     if (u_count > v_count)

	mov	eax, DWORD PTR _u_count$[ebp]
	cmp	eax, DWORD PTR _v_count$[ebp]
	jbe	SHORT $LN2@Compare_Ea

; 89   :         return (1);

	mov	eax, 1
	jmp	SHORT $LN1@Compare_Ea
	jmp	SHORT $LN1@Compare_Ea
$LN2@Compare_Ea:

; 90   :     else if (u_count < v_count)

	mov	ecx, DWORD PTR _u_count$[ebp]
	cmp	ecx, DWORD PTR _v_count$[ebp]
	jae	SHORT $LN4@Compare_Ea

; 91   :         return (-1);

	or	eax, -1
	jmp	SHORT $LN1@Compare_Ea
	jmp	SHORT $LN1@Compare_Ea
$LN4@Compare_Ea:

; 92   :     else
; 93   :         return (Compare_Imp(u, v, u_count));

	mov	edx, DWORD PTR _u_count$[ebp]
	push	edx
	mov	eax, DWORD PTR _v$[ebp]
	push	eax
	mov	ecx, DWORD PTR _u$[ebp]
	push	ecx
	call	_Compare_Imp
	add	esp, 12					; 0000000cH
$LN1@Compare_Ea:

; 94   : }

	cmp	ebp, esp
	call	__RTC_CheckEsp
	pop	ebp
	ret	0
_Compare_Easy ENDP
_TEXT	ENDS
; Function compile flags: /Odtp /RTCsu
; File z:\sources\lunor\repos\rougemeilland\palmtree.math.core.implements\palmtree.math.core.implements\pmc_internal.h
_TEXT	SEGMENT
_pos$ = -8						; size = 4
_x$ = 8							; size = 4
__LZCNT_ALT_UNIT PROC

; 905  : {

	push	ebp
	mov	ebp, esp
	sub	esp, 12					; 0000000cH
	mov	DWORD PTR [ebp-12], -858993460		; ccccccccH
	mov	DWORD PTR [ebp-8], -858993460		; ccccccccH
	mov	DWORD PTR [ebp-4], -858993460		; ccccccccH
	mov	ecx, OFFSET __4522B509_pmc_internal@h
	call	@__CheckForDebuggerJustMyCode@4

; 906  :     if (x == 0)

	cmp	DWORD PTR _x$[ebp], 0
	jne	SHORT $LN2@LZCNT_ALT_

; 907  :         return (sizeof(x) * 8);

	mov	eax, 32					; 00000020H
	jmp	SHORT $LN1@LZCNT_ALT_
$LN2@LZCNT_ALT_:

; 908  : #ifdef _M_IX86
; 909  :     _UINT32_T pos;
; 910  : #ifdef _MSC_VER
; 911  :     _BitScanReverse(&pos, x);

	bsr	eax, DWORD PTR _x$[ebp]
	mov	DWORD PTR _pos$[ebp], eax

; 912  : #elif defined(__GNUC__)
; 913  :     __asm__("bsrl %1, %0" : "=r"(pos) : "rm"(x));
; 914  : #else
; 915  : #error unknown compiler
; 916  : #endif
; 917  : #elif defined(_M_X64)
; 918  : #ifdef _MSC_VER
; 919  :     _UINT32_T pos;
; 920  :     _BitScanReverse64(&pos, x);
; 921  : #elif defined(__GNUC__)
; 922  :     _UINT64_T pos;
; 923  :     __asm__("bsrq %1, %0" : "=r"(pos) : "rm"(x));
; 924  : #else
; 925  : #error unknown compiler
; 926  : #endif
; 927  : #else
; 928  : #error unknown platform
; 929  : #endif
; 930  :     return (sizeof(x) * 8 - 1 - pos);

	mov	eax, 31					; 0000001fH
	sub	eax, DWORD PTR _pos$[ebp]
$LN1@LZCNT_ALT_:

; 931  : }

	push	edx
	mov	ecx, ebp
	push	eax
	lea	edx, DWORD PTR $LN6@LZCNT_ALT_
	call	@_RTC_CheckStackVars@8
	pop	eax
	pop	edx
	add	esp, 12					; 0000000cH
	cmp	ebp, esp
	call	__RTC_CheckEsp
	mov	esp, ebp
	pop	ebp
	ret	0
$LN6@LZCNT_ALT_:
	DD	1
	DD	$LN5@LZCNT_ALT_
$LN5@LZCNT_ALT_:
	DD	-8					; fffffff8H
	DD	4
	DD	$LN4@LZCNT_ALT_
$LN4@LZCNT_ALT_:
	DB	112					; 00000070H
	DB	111					; 0000006fH
	DB	115					; 00000073H
	DB	0
__LZCNT_ALT_UNIT ENDP
_TEXT	ENDS
; Function compile flags: /Odtp /RTCsu
; File z:\sources\lunor\repos\rougemeilland\palmtree.math.core.implements\palmtree.math.core.implements\pmc_internal.h
_TEXT	SEGMENT
tv65 = -4						; size = 4
_x$ = 8							; size = 4
_y$ = 12						; size = 4
__MAXIMUM_UNIT PROC

; 479  : {

	push	ebp
	mov	ebp, esp
	push	ecx
	mov	DWORD PTR [ebp-4], -858993460		; ccccccccH
	mov	ecx, OFFSET __4522B509_pmc_internal@h
	call	@__CheckForDebuggerJustMyCode@4

; 480  :     return (x >= y ? x : y);

	mov	eax, DWORD PTR _x$[ebp]
	cmp	eax, DWORD PTR _y$[ebp]
	jb	SHORT $LN3@MAXIMUM_UN
	mov	ecx, DWORD PTR _x$[ebp]
	mov	DWORD PTR tv65[ebp], ecx
	jmp	SHORT $LN4@MAXIMUM_UN
$LN3@MAXIMUM_UN:
	mov	edx, DWORD PTR _y$[ebp]
	mov	DWORD PTR tv65[ebp], edx
$LN4@MAXIMUM_UN:
	mov	eax, DWORD PTR tv65[ebp]

; 481  : }

	add	esp, 4
	cmp	ebp, esp
	call	__RTC_CheckEsp
	mov	esp, ebp
	pop	ebp
	ret	0
__MAXIMUM_UNIT ENDP
_TEXT	ENDS
; Function compile flags: /Odtp /RTCsu
; File z:\sources\lunor\repos\rougemeilland\palmtree.math.core.implements\palmtree.math.core.implements\pmc_internal.h
_TEXT	SEGMENT
_d$ = 8							; size = 4
_count$ = 12						; size = 4
__ZERO_MEMORY_UNIT PROC

; 392  : {

	push	ebp
	mov	ebp, esp
	push	edi
	mov	ecx, OFFSET __4522B509_pmc_internal@h
	call	@__CheckForDebuggerJustMyCode@4

; 393  : #ifdef _M_IX86
; 394  :     __stosd((unsigned long*)d, 0, (unsigned long)count);

	mov	edi, DWORD PTR _d$[ebp]
	xor	eax, eax
	mov	ecx, DWORD PTR _count$[ebp]
	rep stosd

; 395  : #elif defined(_M_X64)
; 396  :     __stosq(d, 0, count);
; 397  : #else
; 398  : #error unknown platform
; 399  : #endif
; 400  : }

	pop	edi
	cmp	ebp, esp
	call	__RTC_CheckEsp
	pop	ebp
	ret	0
__ZERO_MEMORY_UNIT ENDP
_TEXT	ENDS
; Function compile flags: /Odtp /RTCsu
; File z:\sources\lunor\repos\rougemeilland\palmtree.math.core.implements\palmtree.math.core.implements\pmc_internal.h
_TEXT	SEGMENT
_d$ = 8							; size = 4
_s$ = 12						; size = 4
_count$ = 16						; size = 4
__COPY_MEMORY_UNIT PROC

; 342  : {

	push	ebp
	mov	ebp, esp
	push	esi
	push	edi
	mov	ecx, OFFSET __4522B509_pmc_internal@h
	call	@__CheckForDebuggerJustMyCode@4

; 343  : #ifdef _M_IX86
; 344  :     __movsd((unsigned long *)d, (unsigned long *)s, (unsigned long)count);

	mov	edi, DWORD PTR _d$[ebp]
	mov	esi, DWORD PTR _s$[ebp]
	mov	ecx, DWORD PTR _count$[ebp]
	rep movsd

; 345  : #elif defined(_M_X64)
; 346  :     __movsq(d, s, count);
; 347  : #else
; 348  : #error unknown platform
; 349  : #endif
; 350  : }

	pop	edi
	pop	esi
	cmp	ebp, esp
	call	__RTC_CheckEsp
	pop	ebp
	ret	0
__COPY_MEMORY_UNIT ENDP
_TEXT	ENDS
; Function compile flags: /Odtp /RTCsu
; File z:\sources\lunor\repos\rougemeilland\palmtree.math.core.implements\palmtree.math.core.implements\pmc_modpow.c
_TEXT	SEGMENT
_result$ = -4						; size = 4
_v$ = 8							; size = 4
_e$ = 12						; size = 4
_m$ = 16						; size = 4
_r$ = 20						; size = 4
_PMC_ModPow_X_X_X@16 PROC

; 601  : {

	push	ebp
	mov	ebp, esp
	push	ecx
	mov	DWORD PTR [ebp-4], -858993460		; ccccccccH
	mov	ecx, OFFSET __54B479F5_pmc_modpow@c
	call	@__CheckForDebuggerJustMyCode@4

; 602  :     if (v == NULL)

	cmp	DWORD PTR _v$[ebp], 0
	jne	SHORT $LN2@PMC_ModPow

; 603  :         return (PMC_STATUS_ARGUMENT_ERROR);

	or	eax, -1
	jmp	$LN1@PMC_ModPow
$LN2@PMC_ModPow:

; 604  :     if (e == NULL)

	cmp	DWORD PTR _e$[ebp], 0
	jne	SHORT $LN3@PMC_ModPow

; 605  :         return (PMC_STATUS_ARGUMENT_ERROR);

	or	eax, -1
	jmp	$LN1@PMC_ModPow
$LN3@PMC_ModPow:

; 606  :     if (m == NULL)

	cmp	DWORD PTR _m$[ebp], 0
	jne	SHORT $LN4@PMC_ModPow

; 607  :         return (PMC_STATUS_ARGUMENT_ERROR);

	or	eax, -1
	jmp	$LN1@PMC_ModPow
$LN4@PMC_ModPow:

; 608  :     if (r == NULL)

	cmp	DWORD PTR _r$[ebp], 0
	jne	SHORT $LN5@PMC_ModPow

; 609  :         return (PMC_STATUS_ARGUMENT_ERROR);

	or	eax, -1
	jmp	$LN1@PMC_ModPow
$LN5@PMC_ModPow:

; 610  :     PMC_STATUS_CODE result;
; 611  :     if ((result = CheckNumber((NUMBER_HEADER*)v)) != PMC_STATUS_OK)

	mov	eax, DWORD PTR _v$[ebp]
	push	eax
	call	_CheckNumber
	add	esp, 4
	mov	DWORD PTR _result$[ebp], eax
	cmp	DWORD PTR _result$[ebp], 0
	je	SHORT $LN6@PMC_ModPow

; 612  :         return (result);

	mov	eax, DWORD PTR _result$[ebp]
	jmp	SHORT $LN1@PMC_ModPow
$LN6@PMC_ModPow:

; 613  :     if ((result = CheckNumber((NUMBER_HEADER*)e)) != PMC_STATUS_OK)

	mov	ecx, DWORD PTR _e$[ebp]
	push	ecx
	call	_CheckNumber
	add	esp, 4
	mov	DWORD PTR _result$[ebp], eax
	cmp	DWORD PTR _result$[ebp], 0
	je	SHORT $LN7@PMC_ModPow

; 614  :         return (result);

	mov	eax, DWORD PTR _result$[ebp]
	jmp	SHORT $LN1@PMC_ModPow
$LN7@PMC_ModPow:

; 615  :     if ((result = CheckNumber((NUMBER_HEADER*)m)) != PMC_STATUS_OK)

	mov	edx, DWORD PTR _m$[ebp]
	push	edx
	call	_CheckNumber
	add	esp, 4
	mov	DWORD PTR _result$[ebp], eax
	cmp	DWORD PTR _result$[ebp], 0
	je	SHORT $LN8@PMC_ModPow

; 616  :         return (result);

	mov	eax, DWORD PTR _result$[ebp]
	jmp	SHORT $LN1@PMC_ModPow
$LN8@PMC_ModPow:

; 617  :     if ((result = PMC_ModPow_X_X_X_Imp((NUMBER_HEADER*)v, (NUMBER_HEADER*)e, (NUMBER_HEADER*)m, (NUMBER_HEADER**)r)) != PMC_STATUS_OK)

	mov	eax, DWORD PTR _r$[ebp]
	push	eax
	mov	ecx, DWORD PTR _m$[ebp]
	push	ecx
	mov	edx, DWORD PTR _e$[ebp]
	push	edx
	mov	eax, DWORD PTR _v$[ebp]
	push	eax
	call	_PMC_ModPow_X_X_X_Imp
	add	esp, 16					; 00000010H
	mov	DWORD PTR _result$[ebp], eax
	cmp	DWORD PTR _result$[ebp], 0
	je	SHORT $LN9@PMC_ModPow

; 618  :         return (result);

	mov	eax, DWORD PTR _result$[ebp]
	jmp	SHORT $LN1@PMC_ModPow
$LN9@PMC_ModPow:

; 619  : #ifdef _DEBUG
; 620  :     if ((result = CheckNumber(*r)) != PMC_STATUS_OK)

	mov	ecx, DWORD PTR _r$[ebp]
	mov	edx, DWORD PTR [ecx]
	push	edx
	call	_CheckNumber
	add	esp, 4
	mov	DWORD PTR _result$[ebp], eax
	cmp	DWORD PTR _result$[ebp], 0
	je	SHORT $LN10@PMC_ModPow

; 621  :         return (result);

	mov	eax, DWORD PTR _result$[ebp]
	jmp	SHORT $LN1@PMC_ModPow
$LN10@PMC_ModPow:

; 622  : #endif
; 623  :     return (PMC_STATUS_OK);

	xor	eax, eax
$LN1@PMC_ModPow:

; 624  : }

	add	esp, 4
	cmp	ebp, esp
	call	__RTC_CheckEsp
	mov	esp, ebp
	pop	ebp
	ret	16					; 00000010H
_PMC_ModPow_X_X_X@16 ENDP
_TEXT	ENDS
; Function compile flags: /Odtp /RTCsu
; File z:\sources\lunor\repos\rougemeilland\palmtree.math.core.implements\palmtree.math.core.implements\pmc_modpow.c
_TEXT	SEGMENT
_feature$ = 8						; size = 4
_Initialize_ModPow PROC

; 627  : {

	push	ebp
	mov	ebp, esp
	mov	ecx, OFFSET __54B479F5_pmc_modpow@c
	call	@__CheckForDebuggerJustMyCode@4

; 628  :     return (PMC_STATUS_OK);

	xor	eax, eax

; 629  : }

	cmp	ebp, esp
	call	__RTC_CheckEsp
	pop	ebp
	ret	0
_Initialize_ModPow ENDP
_TEXT	ENDS
END
