; Listing generated by Microsoft (R) Optimizing Compiler Version 19.16.27026.1 

	TITLE	Z:\Sources\Lunor\Repos\rougemeilland\Palmtree.Math.Core.Implements\Palmtree.Math.Core.Implements\pmc_pow.c
	.686P
	.XMM
	include listing.inc
	.model	flat

INCLUDELIB MSVCRTD
INCLUDELIB OLDNAMES

msvcjmc	SEGMENT
__7B7A869E_ctype@h DB 01H
__457DD326_basetsd@h DB 01H
__4384A2D9_corecrt_memcpy_s@h DB 01H
__4E51A221_corecrt_wstring@h DB 01H
__2140C079_string@h DB 01H
__1887E595_winnt@h DB 01H
__9FC7C64B_processthreadsapi@h DB 01H
__FA470AEC_memoryapi@h DB 01H
__F37DAFF1_winerror@h DB 01H
__7A450CCC_winbase@h DB 01H
__B4B40122_winioctl@h DB 01H
__86261D59_stralign@h DB 01H
__4522B509_pmc_internal@h DB 01H
__89DB6AB9_autogenerated_inline_func@h DB 01H
__336CEE9B_pmc_pow@c DB 01H
msvcjmc	ENDS
PUBLIC	_Initialize_Pow
PUBLIC	_PMC_Pow_X_I@12
PUBLIC	__JustMyCode_Default
EXTRN	_AllocateBlock:PROC
EXTRN	_DeallocateBlock:PROC
EXTRN	_CheckBlockLight:PROC
EXTRN	_AllocateNumber:PROC
EXTRN	_CommitNumber:PROC
EXTRN	_CheckNumber:PROC
EXTRN	_From_I_Imp:PROC
EXTRN	_Multiply_X_X_Imp:PROC
EXTRN	@_RTC_CheckStackVars@8:PROC
EXTRN	@__CheckForDebuggerJustMyCode@4:PROC
EXTRN	__RTC_CheckEsp:PROC
EXTRN	__RTC_InitBase:PROC
EXTRN	__RTC_Shutdown:PROC
EXTRN	_number_zero:BYTE
;	COMDAT rtc$TMZ
rtc$TMZ	SEGMENT
__RTC_Shutdown.rtc$TMZ DD FLAT:__RTC_Shutdown
rtc$TMZ	ENDS
;	COMDAT rtc$IMZ
rtc$IMZ	SEGMENT
__RTC_InitBase.rtc$IMZ DD FLAT:__RTC_InitBase
rtc$IMZ	ENDS
; Function compile flags: /Odt
;	COMDAT __JustMyCode_Default
_TEXT	SEGMENT
__JustMyCode_Default PROC				; COMDAT
	push	ebp
	mov	ebp, esp
	pop	ebp
	ret	0
__JustMyCode_Default ENDP
_TEXT	ENDS
; Function compile flags: /Odtp /RTCsu
; File z:\sources\lunor\repos\rougemeilland\palmtree.math.core.implements\palmtree.math.core.implements\pmc_pow.c
_TEXT	SEGMENT
_z_check_code$1 = -76					; size = 4
_work2_buf$2 = -68					; size = 4
_work2_buf_words$3 = -60				; size = 4
_work2_buf_code$4 = -48					; size = 4
_work1_buf$5 = -40					; size = 4
_work1_buf_words$6 = -32				; size = 4
_work1_buf_code$7 = -20					; size = 4
_work_bit_count$8 = -12					; size = 4
_x_bit_count$9 = -8					; size = 4
_result$ = -4						; size = 4
_x$ = 8							; size = 4
_n$ = 12						; size = 4
_z$ = 16						; size = 4
_PMC_Pow_X_I_Imp PROC

; 85   : {

	push	ebp
	mov	ebp, esp
	sub	esp, 80					; 00000050H
	push	edi
	lea	edi, DWORD PTR [ebp-80]
	mov	ecx, 20					; 00000014H
	mov	eax, -858993460				; ccccccccH
	rep stosd
	mov	ecx, OFFSET __336CEE9B_pmc_pow@c
	call	@__CheckForDebuggerJustMyCode@4

; 86   :     PMC_STATUS_CODE result;
; 87   :     if (x->IS_ZERO)

	mov	eax, DWORD PTR _x$[ebp]
	mov	ecx, DWORD PTR [eax+16]
	shr	ecx, 1
	and	ecx, 1
	je	SHORT $LN2@PMC_Pow_X_

; 88   :     {
; 89   :         // x が 0 である場合
; 90   : 
; 91   :         if (n == 0)

	cmp	DWORD PTR _n$[ebp], 0
	jne	SHORT $LN4@PMC_Pow_X_

; 92   :         {
; 93   :             // n が 0 である場合
; 94   : 
; 95   :             // 0 の 0 乗となるので、エラーを返す
; 96   :             return (PMC_STATUS_ARGUMENT_ERROR);

	or	eax, -1
	jmp	$LN1@PMC_Pow_X_

; 97   :         }

	jmp	SHORT $LN5@PMC_Pow_X_
$LN4@PMC_Pow_X_:

; 98   :         else
; 99   :         {
; 100  :             // n が 0 ではない場合
; 101  : 
; 102  :             *z = &number_zero;

	mov	edx, DWORD PTR _z$[ebp]
	mov	DWORD PTR [edx], OFFSET _number_zero
$LN5@PMC_Pow_X_:

; 103  :         }
; 104  :     }

	jmp	$LN3@PMC_Pow_X_
$LN2@PMC_Pow_X_:

; 105  :     else
; 106  :     {
; 107  :         // x が 0 ではない場合
; 108  : 
; 109  :         if (n == 0)

	cmp	DWORD PTR _n$[ebp], 0
	jne	SHORT $LN6@PMC_Pow_X_

; 110  :         {
; 111  :             // n が 0 である場合
; 112  : 
; 113  :             // 計算結果の 1 を返す
; 114  :             if ((result = From_I_Imp(1, z)) != PMC_STATUS_OK)

	mov	eax, DWORD PTR _z$[ebp]
	push	eax
	push	1
	call	_From_I_Imp
	add	esp, 8
	mov	DWORD PTR _result$[ebp], eax
	cmp	DWORD PTR _result$[ebp], 0
	je	SHORT $LN8@PMC_Pow_X_

; 115  :                 return (result);

	mov	eax, DWORD PTR _result$[ebp]
	jmp	$LN1@PMC_Pow_X_
$LN8@PMC_Pow_X_:

; 116  :         }

	jmp	$LN3@PMC_Pow_X_
$LN6@PMC_Pow_X_:

; 117  :         else
; 118  :         {
; 119  :             // x と n がともに 0 ではない場合
; 120  : 
; 121  :             // x の n 乗を計算する
; 122  :             __UNIT_TYPE x_bit_count = x->UNIT_BIT_COUNT;

	mov	ecx, DWORD PTR _x$[ebp]
	mov	edx, DWORD PTR [ecx+4]
	mov	DWORD PTR _x_bit_count$9[ebp], edx

; 123  : 
; 124  :             // べき乗の計算結果のビット長が論理的な限界を超えると思われる場合、エラーを返す
; 125  :             if (x_bit_count > ((__UNIT_TYPE)-1 - __UNIT_TYPE_BIT_COUNT) / n)

	mov	eax, -33				; ffffffdfH
	xor	edx, edx
	div	DWORD PTR _n$[ebp]
	cmp	DWORD PTR _x_bit_count$9[ebp], eax
	jbe	SHORT $LN9@PMC_Pow_X_

; 126  :                 return (PMC_STATUS_OVERFLOW);

	mov	eax, -2					; fffffffeH
	jmp	$LN1@PMC_Pow_X_
$LN9@PMC_Pow_X_:

; 127  : 
; 128  :             __UNIT_TYPE work_bit_count = x_bit_count * n + __UNIT_TYPE_BIT_COUNT;

	mov	eax, DWORD PTR _x_bit_count$9[ebp]
	imul	eax, DWORD PTR _n$[ebp]
	add	eax, 32					; 00000020H
	mov	DWORD PTR _work_bit_count$8[ebp], eax

; 129  : 
; 130  :             __UNIT_TYPE work1_buf_code;
; 131  :             __UNIT_TYPE work1_buf_words;
; 132  :             __UNIT_TYPE* work1_buf = AllocateBlock(work_bit_count, &work1_buf_words, &work1_buf_code);

	lea	ecx, DWORD PTR _work1_buf_code$7[ebp]
	push	ecx
	lea	edx, DWORD PTR _work1_buf_words$6[ebp]
	push	edx
	mov	eax, DWORD PTR _work_bit_count$8[ebp]
	push	eax
	call	_AllocateBlock
	add	esp, 12					; 0000000cH
	mov	DWORD PTR _work1_buf$5[ebp], eax

; 133  :             if (work1_buf == NULL)

	cmp	DWORD PTR _work1_buf$5[ebp], 0
	jne	SHORT $LN10@PMC_Pow_X_

; 134  :             {
; 135  :                 return (PMC_STATUS_NOT_ENOUGH_MEMORY);

	mov	eax, -5					; fffffffbH
	jmp	$LN1@PMC_Pow_X_
$LN10@PMC_Pow_X_:

; 136  :             }
; 137  :             __UNIT_TYPE work2_buf_code;
; 138  :             __UNIT_TYPE work2_buf_words;
; 139  :             __UNIT_TYPE* work2_buf = AllocateBlock(work_bit_count, &work2_buf_words, &work2_buf_code);

	lea	ecx, DWORD PTR _work2_buf_code$4[ebp]
	push	ecx
	lea	edx, DWORD PTR _work2_buf_words$3[ebp]
	push	edx
	mov	eax, DWORD PTR _work_bit_count$8[ebp]
	push	eax
	call	_AllocateBlock
	add	esp, 12					; 0000000cH
	mov	DWORD PTR _work2_buf$2[ebp], eax

; 140  :             if (work1_buf == NULL)

	cmp	DWORD PTR _work1_buf$5[ebp], 0
	jne	SHORT $LN11@PMC_Pow_X_

; 141  :             {
; 142  :                 DeallocateBlock(work1_buf, work1_buf_words);

	mov	ecx, DWORD PTR _work1_buf_words$6[ebp]
	push	ecx
	mov	edx, DWORD PTR _work1_buf$5[ebp]
	push	edx
	call	_DeallocateBlock
	add	esp, 8

; 143  :                 return (PMC_STATUS_NOT_ENOUGH_MEMORY);

	mov	eax, -5					; fffffffbH
	jmp	$LN1@PMC_Pow_X_
$LN11@PMC_Pow_X_:

; 144  :             }
; 145  :             __UNIT_TYPE z_check_code;
; 146  :             if ((result = AllocateNumber(z, work_bit_count, &z_check_code)) != PMC_STATUS_OK)

	lea	eax, DWORD PTR _z_check_code$1[ebp]
	push	eax
	mov	ecx, DWORD PTR _work_bit_count$8[ebp]
	push	ecx
	mov	edx, DWORD PTR _z$[ebp]
	push	edx
	call	_AllocateNumber
	add	esp, 12					; 0000000cH
	mov	DWORD PTR _result$[ebp], eax
	cmp	DWORD PTR _result$[ebp], 0
	je	SHORT $LN12@PMC_Pow_X_

; 147  :             {
; 148  :                 DeallocateBlock(work1_buf, work1_buf_words);

	mov	eax, DWORD PTR _work1_buf_words$6[ebp]
	push	eax
	mov	ecx, DWORD PTR _work1_buf$5[ebp]
	push	ecx
	call	_DeallocateBlock
	add	esp, 8

; 149  :                 DeallocateBlock(work2_buf, work2_buf_words);

	mov	edx, DWORD PTR _work2_buf_words$3[ebp]
	push	edx
	mov	eax, DWORD PTR _work2_buf$2[ebp]
	push	eax
	call	_DeallocateBlock
	add	esp, 8

; 150  :                 return (PMC_STATUS_NOT_ENOUGH_MEMORY);

	mov	eax, -5					; fffffffbH
	jmp	$LN1@PMC_Pow_X_
$LN12@PMC_Pow_X_:

; 151  :             }
; 152  : 
; 153  :             Pow_Imp(x->BLOCK, x->UNIT_WORD_COUNT, n, work1_buf, work2_buf, (*z)->BLOCK);

	mov	ecx, DWORD PTR _z$[ebp]
	mov	edx, DWORD PTR [ecx]
	mov	eax, DWORD PTR [edx+24]
	push	eax
	mov	ecx, DWORD PTR _work2_buf$2[ebp]
	push	ecx
	mov	edx, DWORD PTR _work1_buf$5[ebp]
	push	edx
	mov	eax, DWORD PTR _n$[ebp]
	push	eax
	mov	ecx, DWORD PTR _x$[ebp]
	mov	edx, DWORD PTR [ecx]
	push	edx
	mov	eax, DWORD PTR _x$[ebp]
	mov	ecx, DWORD PTR [eax+24]
	push	ecx
	call	_Pow_Imp
	add	esp, 24					; 00000018H

; 154  : 
; 155  :             if ((result = CheckBlockLight(work1_buf, work1_buf_code)) != PMC_STATUS_OK)

	mov	edx, DWORD PTR _work1_buf_code$7[ebp]
	push	edx
	mov	eax, DWORD PTR _work1_buf$5[ebp]
	push	eax
	call	_CheckBlockLight
	add	esp, 8
	mov	DWORD PTR _result$[ebp], eax
	cmp	DWORD PTR _result$[ebp], 0
	je	SHORT $LN13@PMC_Pow_X_

; 156  :                 return (result);

	mov	eax, DWORD PTR _result$[ebp]
	jmp	SHORT $LN1@PMC_Pow_X_
$LN13@PMC_Pow_X_:

; 157  :             if ((result = CheckBlockLight(work2_buf, work2_buf_code)) != PMC_STATUS_OK)

	mov	ecx, DWORD PTR _work2_buf_code$4[ebp]
	push	ecx
	mov	edx, DWORD PTR _work2_buf$2[ebp]
	push	edx
	call	_CheckBlockLight
	add	esp, 8
	mov	DWORD PTR _result$[ebp], eax
	cmp	DWORD PTR _result$[ebp], 0
	je	SHORT $LN14@PMC_Pow_X_

; 158  :                 return (result);

	mov	eax, DWORD PTR _result$[ebp]
	jmp	SHORT $LN1@PMC_Pow_X_
$LN14@PMC_Pow_X_:

; 159  :             if ((result = CheckBlockLight((*z)->BLOCK, z_check_code)) != PMC_STATUS_OK)

	mov	eax, DWORD PTR _z_check_code$1[ebp]
	push	eax
	mov	ecx, DWORD PTR _z$[ebp]
	mov	edx, DWORD PTR [ecx]
	mov	eax, DWORD PTR [edx+24]
	push	eax
	call	_CheckBlockLight
	add	esp, 8
	mov	DWORD PTR _result$[ebp], eax
	cmp	DWORD PTR _result$[ebp], 0
	je	SHORT $LN15@PMC_Pow_X_

; 160  :                 return (result);

	mov	eax, DWORD PTR _result$[ebp]
	jmp	SHORT $LN1@PMC_Pow_X_
$LN15@PMC_Pow_X_:

; 161  :             DeallocateBlock(work1_buf, work1_buf_words);

	mov	ecx, DWORD PTR _work1_buf_words$6[ebp]
	push	ecx
	mov	edx, DWORD PTR _work1_buf$5[ebp]
	push	edx
	call	_DeallocateBlock
	add	esp, 8

; 162  :             DeallocateBlock(work2_buf, work2_buf_words);

	mov	eax, DWORD PTR _work2_buf_words$3[ebp]
	push	eax
	mov	ecx, DWORD PTR _work2_buf$2[ebp]
	push	ecx
	call	_DeallocateBlock
	add	esp, 8

; 163  :             CommitNumber(*z);

	mov	edx, DWORD PTR _z$[ebp]
	mov	eax, DWORD PTR [edx]
	push	eax
	call	_CommitNumber
	add	esp, 4
$LN3@PMC_Pow_X_:

; 164  :         }
; 165  :     }
; 166  :     return (PMC_STATUS_OK);

	xor	eax, eax
$LN1@PMC_Pow_X_:

; 167  : }

	push	edx
	mov	ecx, ebp
	push	eax
	lea	edx, DWORD PTR $LN23@PMC_Pow_X_
	call	@_RTC_CheckStackVars@8
	pop	eax
	pop	edx
	pop	edi
	add	esp, 80					; 00000050H
	cmp	ebp, esp
	call	__RTC_CheckEsp
	mov	esp, ebp
	pop	ebp
	ret	0
	npad	2
$LN23@PMC_Pow_X_:
	DD	5
	DD	$LN22@PMC_Pow_X_
$LN22@PMC_Pow_X_:
	DD	-20					; ffffffecH
	DD	4
	DD	$LN17@PMC_Pow_X_
	DD	-32					; ffffffe0H
	DD	4
	DD	$LN18@PMC_Pow_X_
	DD	-48					; ffffffd0H
	DD	4
	DD	$LN19@PMC_Pow_X_
	DD	-60					; ffffffc4H
	DD	4
	DD	$LN20@PMC_Pow_X_
	DD	-76					; ffffffb4H
	DD	4
	DD	$LN21@PMC_Pow_X_
$LN21@PMC_Pow_X_:
	DB	122					; 0000007aH
	DB	95					; 0000005fH
	DB	99					; 00000063H
	DB	104					; 00000068H
	DB	101					; 00000065H
	DB	99					; 00000063H
	DB	107					; 0000006bH
	DB	95					; 0000005fH
	DB	99					; 00000063H
	DB	111					; 0000006fH
	DB	100					; 00000064H
	DB	101					; 00000065H
	DB	0
$LN20@PMC_Pow_X_:
	DB	119					; 00000077H
	DB	111					; 0000006fH
	DB	114					; 00000072H
	DB	107					; 0000006bH
	DB	50					; 00000032H
	DB	95					; 0000005fH
	DB	98					; 00000062H
	DB	117					; 00000075H
	DB	102					; 00000066H
	DB	95					; 0000005fH
	DB	119					; 00000077H
	DB	111					; 0000006fH
	DB	114					; 00000072H
	DB	100					; 00000064H
	DB	115					; 00000073H
	DB	0
$LN19@PMC_Pow_X_:
	DB	119					; 00000077H
	DB	111					; 0000006fH
	DB	114					; 00000072H
	DB	107					; 0000006bH
	DB	50					; 00000032H
	DB	95					; 0000005fH
	DB	98					; 00000062H
	DB	117					; 00000075H
	DB	102					; 00000066H
	DB	95					; 0000005fH
	DB	99					; 00000063H
	DB	111					; 0000006fH
	DB	100					; 00000064H
	DB	101					; 00000065H
	DB	0
$LN18@PMC_Pow_X_:
	DB	119					; 00000077H
	DB	111					; 0000006fH
	DB	114					; 00000072H
	DB	107					; 0000006bH
	DB	49					; 00000031H
	DB	95					; 0000005fH
	DB	98					; 00000062H
	DB	117					; 00000075H
	DB	102					; 00000066H
	DB	95					; 0000005fH
	DB	119					; 00000077H
	DB	111					; 0000006fH
	DB	114					; 00000072H
	DB	100					; 00000064H
	DB	115					; 00000073H
	DB	0
$LN17@PMC_Pow_X_:
	DB	119					; 00000077H
	DB	111					; 0000006fH
	DB	114					; 00000072H
	DB	107					; 0000006bH
	DB	49					; 00000031H
	DB	95					; 0000005fH
	DB	98					; 00000062H
	DB	117					; 00000075H
	DB	102					; 00000066H
	DB	95					; 0000005fH
	DB	99					; 00000063H
	DB	111					; 0000006fH
	DB	100					; 00000064H
	DB	101					; 00000065H
	DB	0
_PMC_Pow_X_I_Imp ENDP
_TEXT	ENDS
; Function compile flags: /Odtp /RTCsu
; File z:\sources\lunor\repos\rougemeilland\palmtree.math.core.implements\palmtree.math.core.implements\pmc_pow.c
_TEXT	SEGMENT
_t_ptr$1 = -28						; size = 4
_v_count$ = -24						; size = 4
_u_count$ = -20						; size = 4
_w_ptr$ = -16						; size = 4
_v_ptr$ = -12						; size = 4
_u_ptr$ = -8						; size = 4
_n_mask$ = -4						; size = 4
_x_buf$ = 8						; size = 4
_x_buf_count$ = 12					; size = 4
_n$ = 16						; size = 4
_work1_buf$ = 20					; size = 4
_work2_buf$ = 24					; size = 4
_z_buf$ = 28						; size = 4
_Pow_Imp PROC

; 39   : {

	push	ebp
	mov	ebp, esp
	sub	esp, 28					; 0000001cH
	mov	eax, -858993460				; ccccccccH
	mov	DWORD PTR [ebp-28], eax
	mov	DWORD PTR [ebp-24], eax
	mov	DWORD PTR [ebp-20], eax
	mov	DWORD PTR [ebp-16], eax
	mov	DWORD PTR [ebp-12], eax
	mov	DWORD PTR [ebp-8], eax
	mov	DWORD PTR [ebp-4], eax
	mov	ecx, OFFSET __336CEE9B_pmc_pow@c
	call	@__CheckForDebuggerJustMyCode@4

; 40   :     _UINT32_T n_mask = 1;

	mov	DWORD PTR _n_mask$[ebp], 1

; 41   :     n_mask = _rotr(n_mask, _LZCNT_ALT_32(n) + 1);

	mov	eax, DWORD PTR _n$[ebp]
	push	eax
	call	__LZCNT_ALT_32
	add	esp, 4
	add	eax, 1
	mov	edx, DWORD PTR _n_mask$[ebp]
	mov	ecx, eax
	ror	edx, cl
	mov	DWORD PTR _n_mask$[ebp], edx

; 42   : 
; 43   :     // この時点で n & n_mask は 0ではないはず
; 44   : 
; 45   :     __UNIT_TYPE* u_ptr = work1_buf;

	mov	eax, DWORD PTR _work1_buf$[ebp]
	mov	DWORD PTR _u_ptr$[ebp], eax

; 46   :     __UNIT_TYPE* v_ptr = x_buf;

	mov	ecx, DWORD PTR _x_buf$[ebp]
	mov	DWORD PTR _v_ptr$[ebp], ecx

; 47   :     __UNIT_TYPE* w_ptr = work2_buf;

	mov	edx, DWORD PTR _work2_buf$[ebp]
	mov	DWORD PTR _w_ptr$[ebp], edx

; 48   :     __UNIT_TYPE u_count = x_buf_count;

	mov	eax, DWORD PTR _x_buf_count$[ebp]
	mov	DWORD PTR _u_count$[ebp], eax

; 49   :     __UNIT_TYPE v_count = x_buf_count;

	mov	ecx, DWORD PTR _x_buf_count$[ebp]
	mov	DWORD PTR _v_count$[ebp], ecx

; 50   :     _COPY_MEMORY_UNIT(work1_buf, x_buf, x_buf_count);

	mov	edx, DWORD PTR _x_buf_count$[ebp]
	push	edx
	mov	eax, DWORD PTR _x_buf$[ebp]
	push	eax
	mov	ecx, DWORD PTR _work1_buf$[ebp]
	push	ecx
	call	__COPY_MEMORY_UNIT
	add	esp, 12					; 0000000cH

; 51   :     n_mask >>= 1;

	mov	edx, DWORD PTR _n_mask$[ebp]
	shr	edx, 1
	mov	DWORD PTR _n_mask$[ebp], edx
$LN2@Pow_Imp:

; 52   :     while (n_mask != 0)

	cmp	DWORD PTR _n_mask$[ebp], 0
	je	$LN3@Pow_Imp

; 53   :     {
; 54   :         // u を自乗して w に格納する
; 55   :         _ZERO_MEMORY_UNIT(w_ptr, u_count * 2);

	mov	eax, DWORD PTR _u_count$[ebp]
	shl	eax, 1
	push	eax
	mov	ecx, DWORD PTR _w_ptr$[ebp]
	push	ecx
	call	__ZERO_MEMORY_UNIT
	add	esp, 8

; 56   :         Multiply_X_X_Imp(u_ptr, u_count, u_ptr, u_count, w_ptr);

	mov	edx, DWORD PTR _w_ptr$[ebp]
	push	edx
	mov	eax, DWORD PTR _u_count$[ebp]
	push	eax
	mov	ecx, DWORD PTR _u_ptr$[ebp]
	push	ecx
	mov	edx, DWORD PTR _u_count$[ebp]
	push	edx
	mov	eax, DWORD PTR _u_ptr$[ebp]
	push	eax
	call	_Multiply_X_X_Imp
	add	esp, 20					; 00000014H

; 57   :         u_count *= 2;

	mov	ecx, DWORD PTR _u_count$[ebp]
	shl	ecx, 1
	mov	DWORD PTR _u_count$[ebp], ecx

; 58   :         if (w_ptr[u_count - 1] == 0)

	mov	edx, DWORD PTR _u_count$[ebp]
	mov	eax, DWORD PTR _w_ptr$[ebp]
	cmp	DWORD PTR [eax+edx*4-4], 0
	jne	SHORT $LN4@Pow_Imp

; 59   :             --u_count;

	mov	ecx, DWORD PTR _u_count$[ebp]
	sub	ecx, 1
	mov	DWORD PTR _u_count$[ebp], ecx
$LN4@Pow_Imp:

; 60   : 
; 61   :         // n の該当桁の bit を調べる
; 62   :         if (n & n_mask)

	mov	edx, DWORD PTR _n$[ebp]
	and	edx, DWORD PTR _n_mask$[ebp]
	je	SHORT $LN5@Pow_Imp

; 63   :         {
; 64   :             // bit が立っていたら u = w * v とする
; 65   :             _ZERO_MEMORY_UNIT(u_ptr, u_count + v_count);

	mov	eax, DWORD PTR _u_count$[ebp]
	add	eax, DWORD PTR _v_count$[ebp]
	push	eax
	mov	ecx, DWORD PTR _u_ptr$[ebp]
	push	ecx
	call	__ZERO_MEMORY_UNIT
	add	esp, 8

; 66   :             Multiply_X_X_Imp(w_ptr, u_count, v_ptr, v_count, u_ptr);

	mov	edx, DWORD PTR _u_ptr$[ebp]
	push	edx
	mov	eax, DWORD PTR _v_count$[ebp]
	push	eax
	mov	ecx, DWORD PTR _v_ptr$[ebp]
	push	ecx
	mov	edx, DWORD PTR _u_count$[ebp]
	push	edx
	mov	eax, DWORD PTR _w_ptr$[ebp]
	push	eax
	call	_Multiply_X_X_Imp
	add	esp, 20					; 00000014H

; 67   :             u_count += v_count;

	mov	ecx, DWORD PTR _u_count$[ebp]
	add	ecx, DWORD PTR _v_count$[ebp]
	mov	DWORD PTR _u_count$[ebp], ecx

; 68   :             if (u_ptr[u_count - 1] == 0)

	mov	edx, DWORD PTR _u_count$[ebp]
	mov	eax, DWORD PTR _u_ptr$[ebp]
	cmp	DWORD PTR [eax+edx*4-4], 0
	jne	SHORT $LN7@Pow_Imp

; 69   :                 --u_count;

	mov	ecx, DWORD PTR _u_count$[ebp]
	sub	ecx, 1
	mov	DWORD PTR _u_count$[ebp], ecx
$LN7@Pow_Imp:

; 70   :         }

	jmp	SHORT $LN6@Pow_Imp
$LN5@Pow_Imp:

; 71   :         else
; 72   :         {
; 73   :             // u と w を交換する
; 74   :             __UNIT_TYPE* t_ptr = u_ptr;

	mov	edx, DWORD PTR _u_ptr$[ebp]
	mov	DWORD PTR _t_ptr$1[ebp], edx

; 75   :             u_ptr = w_ptr;

	mov	eax, DWORD PTR _w_ptr$[ebp]
	mov	DWORD PTR _u_ptr$[ebp], eax

; 76   :             w_ptr = t_ptr;

	mov	ecx, DWORD PTR _t_ptr$1[ebp]
	mov	DWORD PTR _w_ptr$[ebp], ecx
$LN6@Pow_Imp:

; 77   :         }
; 78   : 
; 79   :         n_mask >>= 1;

	mov	edx, DWORD PTR _n_mask$[ebp]
	shr	edx, 1
	mov	DWORD PTR _n_mask$[ebp], edx

; 80   :     }

	jmp	$LN2@Pow_Imp
$LN3@Pow_Imp:

; 81   :     _COPY_MEMORY_UNIT(z_buf, u_ptr, u_count);

	mov	eax, DWORD PTR _u_count$[ebp]
	push	eax
	mov	ecx, DWORD PTR _u_ptr$[ebp]
	push	ecx
	mov	edx, DWORD PTR _z_buf$[ebp]
	push	edx
	call	__COPY_MEMORY_UNIT
	add	esp, 12					; 0000000cH

; 82   : }

	add	esp, 28					; 0000001cH
	cmp	ebp, esp
	call	__RTC_CheckEsp
	mov	esp, ebp
	pop	ebp
	ret	0
_Pow_Imp ENDP
_TEXT	ENDS
; Function compile flags: /Odtp /RTCsu
; File z:\sources\lunor\repos\rougemeilland\palmtree.math.core.implements\palmtree.math.core.implements\pmc_internal.h
_TEXT	SEGMENT
_pos$ = -8						; size = 4
_x$ = 8							; size = 4
__LZCNT_ALT_32 PROC

; 855  : {

	push	ebp
	mov	ebp, esp
	sub	esp, 12					; 0000000cH
	mov	DWORD PTR [ebp-12], -858993460		; ccccccccH
	mov	DWORD PTR [ebp-8], -858993460		; ccccccccH
	mov	DWORD PTR [ebp-4], -858993460		; ccccccccH
	mov	ecx, OFFSET __4522B509_pmc_internal@h
	call	@__CheckForDebuggerJustMyCode@4

; 856  :     if (x == 0)

	cmp	DWORD PTR _x$[ebp], 0
	jne	SHORT $LN2@LZCNT_ALT_

; 857  :         return (sizeof(x) * 8);

	mov	eax, 32					; 00000020H
	jmp	SHORT $LN1@LZCNT_ALT_
$LN2@LZCNT_ALT_:

; 858  :     _UINT32_T pos;
; 859  : #ifdef _MSC_VER
; 860  :     _BitScanReverse(&pos, x);

	bsr	eax, DWORD PTR _x$[ebp]
	mov	DWORD PTR _pos$[ebp], eax

; 861  : #elif defined(__GNUC__)
; 862  :     __asm__( "bsrl %1, %0" : "=r"(pos) : "rm"(x) );
; 863  : #else
; 864  : #error unknown compiler
; 865  : #endif
; 866  :     return (sizeof(x) * 8 - 1 - pos);

	mov	eax, 31					; 0000001fH
	sub	eax, DWORD PTR _pos$[ebp]
$LN1@LZCNT_ALT_:

; 867  : }

	push	edx
	mov	ecx, ebp
	push	eax
	lea	edx, DWORD PTR $LN6@LZCNT_ALT_
	call	@_RTC_CheckStackVars@8
	pop	eax
	pop	edx
	add	esp, 12					; 0000000cH
	cmp	ebp, esp
	call	__RTC_CheckEsp
	mov	esp, ebp
	pop	ebp
	ret	0
$LN6@LZCNT_ALT_:
	DD	1
	DD	$LN5@LZCNT_ALT_
$LN5@LZCNT_ALT_:
	DD	-8					; fffffff8H
	DD	4
	DD	$LN4@LZCNT_ALT_
$LN4@LZCNT_ALT_:
	DB	112					; 00000070H
	DB	111					; 0000006fH
	DB	115					; 00000073H
	DB	0
__LZCNT_ALT_32 ENDP
_TEXT	ENDS
; Function compile flags: /Odtp /RTCsu
; File z:\sources\lunor\repos\rougemeilland\palmtree.math.core.implements\palmtree.math.core.implements\pmc_internal.h
_TEXT	SEGMENT
_d$ = 8							; size = 4
_count$ = 12						; size = 4
__ZERO_MEMORY_UNIT PROC

; 375  : {

	push	ebp
	mov	ebp, esp
	push	edi
	mov	ecx, OFFSET __4522B509_pmc_internal@h
	call	@__CheckForDebuggerJustMyCode@4

; 376  : #ifdef _M_IX86
; 377  :     __stosd((unsigned long*)d, 0, (unsigned long)count);

	mov	edi, DWORD PTR _d$[ebp]
	xor	eax, eax
	mov	ecx, DWORD PTR _count$[ebp]
	rep stosd

; 378  : #elif defined(_M_X64)
; 379  :     __stosq(d, 0, count);
; 380  : #else
; 381  : #error unknown platform
; 382  : #endif
; 383  : }

	pop	edi
	cmp	ebp, esp
	call	__RTC_CheckEsp
	pop	ebp
	ret	0
__ZERO_MEMORY_UNIT ENDP
_TEXT	ENDS
; Function compile flags: /Odtp /RTCsu
; File z:\sources\lunor\repos\rougemeilland\palmtree.math.core.implements\palmtree.math.core.implements\pmc_internal.h
_TEXT	SEGMENT
_d$ = 8							; size = 4
_s$ = 12						; size = 4
_count$ = 16						; size = 4
__COPY_MEMORY_UNIT PROC

; 325  : {

	push	ebp
	mov	ebp, esp
	push	esi
	push	edi
	mov	ecx, OFFSET __4522B509_pmc_internal@h
	call	@__CheckForDebuggerJustMyCode@4

; 326  : #ifdef _M_IX86
; 327  :     __movsd((unsigned long *)d, (unsigned long *)s, (unsigned long)count);

	mov	edi, DWORD PTR _d$[ebp]
	mov	esi, DWORD PTR _s$[ebp]
	mov	ecx, DWORD PTR _count$[ebp]
	rep movsd

; 328  : #elif defined(_M_X64)
; 329  :     __movsq(d, s, count);
; 330  : #else
; 331  : #error unknown platform
; 332  : #endif
; 333  : }

	pop	edi
	pop	esi
	cmp	ebp, esp
	call	__RTC_CheckEsp
	pop	ebp
	ret	0
__COPY_MEMORY_UNIT ENDP
_TEXT	ENDS
; Function compile flags: /Odtp /RTCsu
; File z:\sources\lunor\repos\rougemeilland\palmtree.math.core.implements\palmtree.math.core.implements\pmc_pow.c
_TEXT	SEGMENT
_result$ = -4						; size = 4
_x$ = 8							; size = 4
_n$ = 12						; size = 4
_z$ = 16						; size = 4
_PMC_Pow_X_I@12 PROC

; 170  : {

	push	ebp
	mov	ebp, esp
	push	ecx
	mov	DWORD PTR [ebp-4], -858993460		; ccccccccH
	mov	ecx, OFFSET __336CEE9B_pmc_pow@c
	call	@__CheckForDebuggerJustMyCode@4

; 171  :     if (__UNIT_TYPE_BIT_COUNT < sizeof(n) * 8)

	xor	eax, eax
	je	SHORT $LN2@PMC_Pow_X_

; 172  :     {
; 173  :         // _UINT32_T が 1 ワードで表現しきれない処理系には対応しない
; 174  :         return (PMC_STATUS_INTERNAL_ERROR);

	mov	eax, -256				; ffffff00H
	jmp	SHORT $LN1@PMC_Pow_X_
$LN2@PMC_Pow_X_:

; 175  :     }
; 176  :     if (x == NULL)

	cmp	DWORD PTR _x$[ebp], 0
	jne	SHORT $LN3@PMC_Pow_X_

; 177  :         return (PMC_STATUS_ARGUMENT_ERROR);

	or	eax, -1
	jmp	SHORT $LN1@PMC_Pow_X_
$LN3@PMC_Pow_X_:

; 178  :     if (z == NULL)

	cmp	DWORD PTR _z$[ebp], 0
	jne	SHORT $LN4@PMC_Pow_X_

; 179  :         return (PMC_STATUS_ARGUMENT_ERROR);

	or	eax, -1
	jmp	SHORT $LN1@PMC_Pow_X_
$LN4@PMC_Pow_X_:

; 180  :     PMC_STATUS_CODE result;
; 181  :     if ((result = CheckNumber((NUMBER_HEADER*)x)) != PMC_STATUS_OK)

	mov	ecx, DWORD PTR _x$[ebp]
	push	ecx
	call	_CheckNumber
	add	esp, 4
	mov	DWORD PTR _result$[ebp], eax
	cmp	DWORD PTR _result$[ebp], 0
	je	SHORT $LN5@PMC_Pow_X_

; 182  :         return (result);

	mov	eax, DWORD PTR _result$[ebp]
	jmp	SHORT $LN1@PMC_Pow_X_
$LN5@PMC_Pow_X_:

; 183  :     if ((result = PMC_Pow_X_I_Imp((NUMBER_HEADER*)x, n, (NUMBER_HEADER**)z)) != PMC_STATUS_OK)

	mov	edx, DWORD PTR _z$[ebp]
	push	edx
	mov	eax, DWORD PTR _n$[ebp]
	push	eax
	mov	ecx, DWORD PTR _x$[ebp]
	push	ecx
	call	_PMC_Pow_X_I_Imp
	add	esp, 12					; 0000000cH
	mov	DWORD PTR _result$[ebp], eax
	cmp	DWORD PTR _result$[ebp], 0
	je	SHORT $LN6@PMC_Pow_X_

; 184  :         return (result);

	mov	eax, DWORD PTR _result$[ebp]
	jmp	SHORT $LN1@PMC_Pow_X_
$LN6@PMC_Pow_X_:

; 185  : #ifdef _DEBUG
; 186  :     if ((result = CheckNumber(*z)) != PMC_STATUS_OK)

	mov	edx, DWORD PTR _z$[ebp]
	mov	eax, DWORD PTR [edx]
	push	eax
	call	_CheckNumber
	add	esp, 4
	mov	DWORD PTR _result$[ebp], eax
	cmp	DWORD PTR _result$[ebp], 0
	je	SHORT $LN7@PMC_Pow_X_

; 187  :         return (result);

	mov	eax, DWORD PTR _result$[ebp]
	jmp	SHORT $LN1@PMC_Pow_X_
$LN7@PMC_Pow_X_:

; 188  : #endif
; 189  :     return (PMC_STATUS_OK);

	xor	eax, eax
$LN1@PMC_Pow_X_:

; 190  : }

	add	esp, 4
	cmp	ebp, esp
	call	__RTC_CheckEsp
	mov	esp, ebp
	pop	ebp
	ret	12					; 0000000cH
_PMC_Pow_X_I@12 ENDP
_TEXT	ENDS
; Function compile flags: /Odtp /RTCsu
; File z:\sources\lunor\repos\rougemeilland\palmtree.math.core.implements\palmtree.math.core.implements\pmc_pow.c
_TEXT	SEGMENT
_feature$ = 8						; size = 4
_Initialize_Pow PROC

; 193  : {

	push	ebp
	mov	ebp, esp
	mov	ecx, OFFSET __336CEE9B_pmc_pow@c
	call	@__CheckForDebuggerJustMyCode@4

; 194  :     return (PMC_STATUS_OK);

	xor	eax, eax

; 195  : }

	cmp	ebp, esp
	call	__RTC_CheckEsp
	pop	ebp
	ret	0
_Initialize_Pow ENDP
_TEXT	ENDS
END
