; Listing generated by Microsoft (R) Optimizing Compiler Version 19.16.27026.1 

	TITLE	Z:\Sources\Lunor\Repos\rougemeilland\Palmtree.Math.Core.Implements\Palmtree.Math.Core.Implements\pmc_from.c
	.686P
	.XMM
	include listing.inc
	.model	flat

INCLUDELIB MSVCRTD
INCLUDELIB OLDNAMES

msvcjmc	SEGMENT
__7B7A869E_ctype@h DB 01H
__457DD326_basetsd@h DB 01H
__4384A2D9_corecrt_memcpy_s@h DB 01H
__4E51A221_corecrt_wstring@h DB 01H
__2140C079_string@h DB 01H
__1887E595_winnt@h DB 01H
__9FC7C64B_processthreadsapi@h DB 01H
__FA470AEC_memoryapi@h DB 01H
__F37DAFF1_winerror@h DB 01H
__7A450CCC_winbase@h DB 01H
__B4B40122_winioctl@h DB 01H
__86261D59_stralign@h DB 01H
__4522B509_pmc_internal@h DB 01H
__5C0CD9D4_pmc_from@c DB 01H
msvcjmc	ENDS
PUBLIC	_From_I_Imp
PUBLIC	_From_L_Imp
PUBLIC	_Initialize_From
PUBLIC	_PMC_From_I@8
PUBLIC	_PMC_From_L@12
PUBLIC	__JustMyCode_Default
EXTRN	_AllocateNumber:PROC
EXTRN	_CommitNumber:PROC
EXTRN	_CheckNumber:PROC
EXTRN	@_RTC_CheckStackVars@8:PROC
EXTRN	@__CheckForDebuggerJustMyCode@4:PROC
EXTRN	__RTC_CheckEsp:PROC
EXTRN	__RTC_InitBase:PROC
EXTRN	__RTC_Shutdown:PROC
EXTRN	__aullshr:PROC
EXTRN	_number_zero:BYTE
;	COMDAT rtc$TMZ
rtc$TMZ	SEGMENT
__RTC_Shutdown.rtc$TMZ DD FLAT:__RTC_Shutdown
rtc$TMZ	ENDS
;	COMDAT rtc$IMZ
rtc$IMZ	SEGMENT
__RTC_InitBase.rtc$IMZ DD FLAT:__RTC_InitBase
rtc$IMZ	ENDS
; Function compile flags: /Odt
;	COMDAT __JustMyCode_Default
_TEXT	SEGMENT
__JustMyCode_Default PROC				; COMDAT
	push	ebp
	mov	ebp, esp
	pop	ebp
	ret	0
__JustMyCode_Default ENDP
_TEXT	ENDS
; Function compile flags: /Odtp /RTCsu
; File z:\sources\lunor\repos\rougemeilland\palmtree.math.core.implements\palmtree.math.core.implements\pmc_internal.h
_TEXT	SEGMENT
_pos$ = -8						; size = 4
_x$ = 8							; size = 4
__LZCNT_ALT_UNIT PROC

; 905  : {

	push	ebp
	mov	ebp, esp
	sub	esp, 12					; 0000000cH
	mov	DWORD PTR [ebp-12], -858993460		; ccccccccH
	mov	DWORD PTR [ebp-8], -858993460		; ccccccccH
	mov	DWORD PTR [ebp-4], -858993460		; ccccccccH
	mov	ecx, OFFSET __4522B509_pmc_internal@h
	call	@__CheckForDebuggerJustMyCode@4

; 906  :     if (x == 0)

	cmp	DWORD PTR _x$[ebp], 0
	jne	SHORT $LN2@LZCNT_ALT_

; 907  :         return (sizeof(x) * 8);

	mov	eax, 32					; 00000020H
	jmp	SHORT $LN1@LZCNT_ALT_
$LN2@LZCNT_ALT_:

; 908  : #ifdef _M_IX86
; 909  :     _UINT32_T pos;
; 910  : #ifdef _MSC_VER
; 911  :     _BitScanReverse(&pos, x);

	bsr	eax, DWORD PTR _x$[ebp]
	mov	DWORD PTR _pos$[ebp], eax

; 912  : #elif defined(__GNUC__)
; 913  :     __asm__("bsrl %1, %0" : "=r"(pos) : "rm"(x));
; 914  : #else
; 915  : #error unknown compiler
; 916  : #endif
; 917  : #elif defined(_M_X64)
; 918  : #ifdef _MSC_VER
; 919  :     _UINT32_T pos;
; 920  :     _BitScanReverse64(&pos, x);
; 921  : #elif defined(__GNUC__)
; 922  :     _UINT64_T pos;
; 923  :     __asm__("bsrq %1, %0" : "=r"(pos) : "rm"(x));
; 924  : #else
; 925  : #error unknown compiler
; 926  : #endif
; 927  : #else
; 928  : #error unknown platform
; 929  : #endif
; 930  :     return (sizeof(x) * 8 - 1 - pos);

	mov	eax, 31					; 0000001fH
	sub	eax, DWORD PTR _pos$[ebp]
$LN1@LZCNT_ALT_:

; 931  : }

	push	edx
	mov	ecx, ebp
	push	eax
	lea	edx, DWORD PTR $LN6@LZCNT_ALT_
	call	@_RTC_CheckStackVars@8
	pop	eax
	pop	edx
	add	esp, 12					; 0000000cH
	cmp	ebp, esp
	call	__RTC_CheckEsp
	mov	esp, ebp
	pop	ebp
	ret	0
$LN6@LZCNT_ALT_:
	DD	1
	DD	$LN5@LZCNT_ALT_
$LN5@LZCNT_ALT_:
	DD	-8					; fffffff8H
	DD	4
	DD	$LN4@LZCNT_ALT_
$LN4@LZCNT_ALT_:
	DB	112					; 00000070H
	DB	111					; 0000006fH
	DB	115					; 00000073H
	DB	0
__LZCNT_ALT_UNIT ENDP
_TEXT	ENDS
; Function compile flags: /Odtp /RTCsu
; File z:\sources\lunor\repos\rougemeilland\palmtree.math.core.implements\palmtree.math.core.implements\pmc_internal.h
_TEXT	SEGMENT
_pos$ = -8						; size = 4
_x$ = 8							; size = 4
__LZCNT_ALT_32 PROC

; 872  : {

	push	ebp
	mov	ebp, esp
	sub	esp, 12					; 0000000cH
	mov	DWORD PTR [ebp-12], -858993460		; ccccccccH
	mov	DWORD PTR [ebp-8], -858993460		; ccccccccH
	mov	DWORD PTR [ebp-4], -858993460		; ccccccccH
	mov	ecx, OFFSET __4522B509_pmc_internal@h
	call	@__CheckForDebuggerJustMyCode@4

; 873  :     if (x == 0)

	cmp	DWORD PTR _x$[ebp], 0
	jne	SHORT $LN2@LZCNT_ALT_

; 874  :         return (sizeof(x) * 8);

	mov	eax, 32					; 00000020H
	jmp	SHORT $LN1@LZCNT_ALT_
$LN2@LZCNT_ALT_:

; 875  :     _UINT32_T pos;
; 876  : #ifdef _MSC_VER
; 877  :     _BitScanReverse(&pos, x);

	bsr	eax, DWORD PTR _x$[ebp]
	mov	DWORD PTR _pos$[ebp], eax

; 878  : #elif defined(__GNUC__)
; 879  :     __asm__( "bsrl %1, %0" : "=r"(pos) : "rm"(x) );
; 880  : #else
; 881  : #error unknown compiler
; 882  : #endif
; 883  :     return (sizeof(x) * 8 - 1 - pos);

	mov	eax, 31					; 0000001fH
	sub	eax, DWORD PTR _pos$[ebp]
$LN1@LZCNT_ALT_:

; 884  : }

	push	edx
	mov	ecx, ebp
	push	eax
	lea	edx, DWORD PTR $LN6@LZCNT_ALT_
	call	@_RTC_CheckStackVars@8
	pop	eax
	pop	edx
	add	esp, 12					; 0000000cH
	cmp	ebp, esp
	call	__RTC_CheckEsp
	mov	esp, ebp
	pop	ebp
	ret	0
$LN6@LZCNT_ALT_:
	DD	1
	DD	$LN5@LZCNT_ALT_
$LN5@LZCNT_ALT_:
	DD	-8					; fffffff8H
	DD	4
	DD	$LN4@LZCNT_ALT_
$LN4@LZCNT_ALT_:
	DB	112					; 00000070H
	DB	111					; 0000006fH
	DB	115					; 00000073H
	DB	0
__LZCNT_ALT_32 ENDP
_TEXT	ENDS
; Function compile flags: /Odtp /RTCsu
; File z:\sources\lunor\repos\rougemeilland\palmtree.math.core.implements\palmtree.math.core.implements\pmc_internal.h
_TEXT	SEGMENT
_value$ = 8						; size = 8
_result_high$ = 16					; size = 4
__FROMDWORDTOWORD PROC

; 458  : {

	push	ebp
	mov	ebp, esp
	mov	ecx, OFFSET __4522B509_pmc_internal@h
	call	@__CheckForDebuggerJustMyCode@4

; 459  :     *result_high = (_UINT32_T)(value >> 32);

	mov	eax, DWORD PTR _value$[ebp]
	mov	edx, DWORD PTR _value$[ebp+4]
	mov	cl, 32					; 00000020H
	call	__aullshr
	mov	ecx, DWORD PTR _result_high$[ebp]
	mov	DWORD PTR [ecx], eax

; 460  :     return ((_UINT32_T)value);

	mov	eax, DWORD PTR _value$[ebp]

; 461  : }

	cmp	ebp, esp
	call	__RTC_CheckEsp
	pop	ebp
	ret	0
__FROMDWORDTOWORD ENDP
_TEXT	ENDS
; Function compile flags: /Odtp /RTCsu
; File z:\sources\lunor\repos\rougemeilland\palmtree.math.core.implements\palmtree.math.core.implements\pmc_from.c
_TEXT	SEGMENT
_result$ = -16						; size = 4
_p$ = -8						; size = 4
_x$ = 8							; size = 8
_o$ = 16						; size = 4
_PMC_From_L@12 PROC

; 111  : {

	push	ebp
	mov	ebp, esp
	sub	esp, 16					; 00000010H
	mov	eax, -858993460				; ccccccccH
	mov	DWORD PTR [ebp-16], eax
	mov	DWORD PTR [ebp-12], eax
	mov	DWORD PTR [ebp-8], eax
	mov	DWORD PTR [ebp-4], eax
	mov	ecx, OFFSET __5C0CD9D4_pmc_from@c
	call	@__CheckForDebuggerJustMyCode@4

; 112  :     NUMBER_HEADER* p;
; 113  :     PMC_STATUS_CODE result;
; 114  :     if (sizeof(__UNIT_TYPE) * 2 < sizeof(x))

	xor	eax, eax
	je	SHORT $LN2@PMC_From_L

; 115  :     {
; 116  :         // 32bit未満のCPUには未対応
; 117  :         return (PMC_STATUS_INTERNAL_ERROR);

	mov	eax, -256				; ffffff00H
	jmp	SHORT $LN1@PMC_From_L
$LN2@PMC_From_L:

; 118  :     }
; 119  :     if (x == 0)

	mov	ecx, DWORD PTR _x$[ebp]
	or	ecx, DWORD PTR _x$[ebp+4]
	jne	SHORT $LN3@PMC_From_L

; 120  :         *o = &number_zero;

	mov	edx, DWORD PTR _o$[ebp]
	mov	DWORD PTR [edx], OFFSET _number_zero
	jmp	SHORT $LN4@PMC_From_L
$LN3@PMC_From_L:

; 121  :     else
; 122  :     {
; 123  :         if ((result = From_L_Imp(x, &p)) != PMC_STATUS_OK)

	lea	eax, DWORD PTR _p$[ebp]
	push	eax
	mov	ecx, DWORD PTR _x$[ebp+4]
	push	ecx
	mov	edx, DWORD PTR _x$[ebp]
	push	edx
	call	_From_L_Imp
	add	esp, 12					; 0000000cH
	mov	DWORD PTR _result$[ebp], eax
	cmp	DWORD PTR _result$[ebp], 0
	je	SHORT $LN5@PMC_From_L

; 124  :             return (result);

	mov	eax, DWORD PTR _result$[ebp]
	jmp	SHORT $LN1@PMC_From_L
$LN5@PMC_From_L:

; 125  :         *o = p;

	mov	eax, DWORD PTR _o$[ebp]
	mov	ecx, DWORD PTR _p$[ebp]
	mov	DWORD PTR [eax], ecx
$LN4@PMC_From_L:

; 126  :     }
; 127  : #ifdef _DEBUG
; 128  :     if ((result = CheckNumber(*o)) != PMC_STATUS_OK)

	mov	edx, DWORD PTR _o$[ebp]
	mov	eax, DWORD PTR [edx]
	push	eax
	call	_CheckNumber
	add	esp, 4
	mov	DWORD PTR _result$[ebp], eax
	cmp	DWORD PTR _result$[ebp], 0
	je	SHORT $LN6@PMC_From_L

; 129  :         return (result);

	mov	eax, DWORD PTR _result$[ebp]
	jmp	SHORT $LN1@PMC_From_L
$LN6@PMC_From_L:

; 130  : #endif
; 131  :     return (PMC_STATUS_OK);

	xor	eax, eax
$LN1@PMC_From_L:

; 132  : }

	push	edx
	mov	ecx, ebp
	push	eax
	lea	edx, DWORD PTR $LN10@PMC_From_L
	call	@_RTC_CheckStackVars@8
	pop	eax
	pop	edx
	add	esp, 16					; 00000010H
	cmp	ebp, esp
	call	__RTC_CheckEsp
	mov	esp, ebp
	pop	ebp
	ret	12					; 0000000cH
$LN10@PMC_From_L:
	DD	1
	DD	$LN9@PMC_From_L
$LN9@PMC_From_L:
	DD	-8					; fffffff8H
	DD	4
	DD	$LN8@PMC_From_L
$LN8@PMC_From_L:
	DB	112					; 00000070H
	DB	0
_PMC_From_L@12 ENDP
_TEXT	ENDS
; Function compile flags: /Odtp /RTCsu
; File z:\sources\lunor\repos\rougemeilland\palmtree.math.core.implements\palmtree.math.core.implements\pmc_from.c
_TEXT	SEGMENT
_p$1 = -12						; size = 4
_result$ = -4						; size = 4
_x$ = 8							; size = 4
_o$ = 12						; size = 4
_PMC_From_I@8 PROC

; 90   : {

	push	ebp
	mov	ebp, esp
	sub	esp, 16					; 00000010H
	mov	eax, -858993460				; ccccccccH
	mov	DWORD PTR [ebp-16], eax
	mov	DWORD PTR [ebp-12], eax
	mov	DWORD PTR [ebp-8], eax
	mov	DWORD PTR [ebp-4], eax
	mov	ecx, OFFSET __5C0CD9D4_pmc_from@c
	call	@__CheckForDebuggerJustMyCode@4

; 91   :     PMC_STATUS_CODE result;
; 92   :     if (sizeof(__UNIT_TYPE) < sizeof(x))

	xor	eax, eax
	je	SHORT $LN2@PMC_From_I

; 93   :         return (PMC_STATUS_INTERNAL_ERROR);

	mov	eax, -256				; ffffff00H
	jmp	SHORT $LN1@PMC_From_I
$LN2@PMC_From_I:

; 94   :     if (x == 0)

	cmp	DWORD PTR _x$[ebp], 0
	jne	SHORT $LN3@PMC_From_I

; 95   :         *o = &number_zero;

	mov	ecx, DWORD PTR _o$[ebp]
	mov	DWORD PTR [ecx], OFFSET _number_zero
	jmp	SHORT $LN4@PMC_From_I
$LN3@PMC_From_I:

; 96   :     else
; 97   :     {
; 98   :         NUMBER_HEADER* p;
; 99   :         if ((result = From_I_Imp(x, &p)) != PMC_STATUS_OK)

	lea	edx, DWORD PTR _p$1[ebp]
	push	edx
	mov	eax, DWORD PTR _x$[ebp]
	push	eax
	call	_From_I_Imp
	add	esp, 8
	mov	DWORD PTR _result$[ebp], eax
	cmp	DWORD PTR _result$[ebp], 0
	je	SHORT $LN5@PMC_From_I

; 100  :             return (result);

	mov	eax, DWORD PTR _result$[ebp]
	jmp	SHORT $LN1@PMC_From_I
$LN5@PMC_From_I:

; 101  :         *o = p;

	mov	ecx, DWORD PTR _o$[ebp]
	mov	edx, DWORD PTR _p$1[ebp]
	mov	DWORD PTR [ecx], edx
$LN4@PMC_From_I:

; 102  :     }
; 103  : #ifdef _DEBUG
; 104  :     if ((result = CheckNumber(*o)) != PMC_STATUS_OK)

	mov	eax, DWORD PTR _o$[ebp]
	mov	ecx, DWORD PTR [eax]
	push	ecx
	call	_CheckNumber
	add	esp, 4
	mov	DWORD PTR _result$[ebp], eax
	cmp	DWORD PTR _result$[ebp], 0
	je	SHORT $LN6@PMC_From_I

; 105  :         return (result);

	mov	eax, DWORD PTR _result$[ebp]
	jmp	SHORT $LN1@PMC_From_I
$LN6@PMC_From_I:

; 106  : #endif
; 107  :     return (PMC_STATUS_OK);

	xor	eax, eax
$LN1@PMC_From_I:

; 108  : }

	push	edx
	mov	ecx, ebp
	push	eax
	lea	edx, DWORD PTR $LN10@PMC_From_I
	call	@_RTC_CheckStackVars@8
	pop	eax
	pop	edx
	add	esp, 16					; 00000010H
	cmp	ebp, esp
	call	__RTC_CheckEsp
	mov	esp, ebp
	pop	ebp
	ret	8
	npad	2
$LN10@PMC_From_I:
	DD	1
	DD	$LN9@PMC_From_I
$LN9@PMC_From_I:
	DD	-12					; fffffff4H
	DD	4
	DD	$LN8@PMC_From_I
$LN8@PMC_From_I:
	DB	112					; 00000070H
	DB	0
_PMC_From_I@8 ENDP
_TEXT	ENDS
; Function compile flags: /Odtp /RTCsu
; File z:\sources\lunor\repos\rougemeilland\palmtree.math.core.implements\palmtree.math.core.implements\pmc_from.c
_TEXT	SEGMENT
_feature$ = 8						; size = 4
_Initialize_From PROC

; 135  : {

	push	ebp
	mov	ebp, esp
	mov	ecx, OFFSET __5C0CD9D4_pmc_from@c
	call	@__CheckForDebuggerJustMyCode@4

; 136  :     return (PMC_STATUS_OK);

	xor	eax, eax

; 137  : }

	cmp	ebp, esp
	call	__RTC_CheckEsp
	pop	ebp
	ret	0
_Initialize_From ENDP
_TEXT	ENDS
; Function compile flags: /Odtp /RTCsu
; File z:\sources\lunor\repos\rougemeilland\palmtree.math.core.implements\palmtree.math.core.implements\pmc_from.c
_TEXT	SEGMENT
_x_bit_length$1 = -32					; size = 4
_x_bit_length$2 = -28					; size = 4
_x_bit_length$3 = -24					; size = 4
_x_lo$4 = -20						; size = 4
_x_hi$5 = -12						; size = 4
_result$ = -4						; size = 4
_x$ = 8							; size = 8
_o$ = 16						; size = 4
_From_L_Imp PROC

; 48   : {

	push	ebp
	mov	ebp, esp
	sub	esp, 32					; 00000020H
	mov	eax, -858993460				; ccccccccH
	mov	DWORD PTR [ebp-32], eax
	mov	DWORD PTR [ebp-28], eax
	mov	DWORD PTR [ebp-24], eax
	mov	DWORD PTR [ebp-20], eax
	mov	DWORD PTR [ebp-16], eax
	mov	DWORD PTR [ebp-12], eax
	mov	DWORD PTR [ebp-8], eax
	mov	DWORD PTR [ebp-4], eax
	mov	ecx, OFFSET __5C0CD9D4_pmc_from@c
	call	@__CheckForDebuggerJustMyCode@4

; 49   :     PMC_STATUS_CODE result;
; 50   :     if (sizeof(__UNIT_TYPE) * 2 < sizeof(x))

	xor	eax, eax
	je	SHORT $LN2@From_L_Imp

; 51   :     {
; 52   :         // _UINT64_T を表現するのに 2 ワードでは不足する処理系には対応しない。
; 53   :         return (PMC_STATUS_INTERNAL_ERROR);

	mov	eax, -256				; ffffff00H
	jmp	$LN1@From_L_Imp

; 54   :     }

	jmp	$LN3@From_L_Imp
$LN2@From_L_Imp:

; 55   :     else if (sizeof(__UNIT_TYPE) < sizeof(x))

	mov	ecx, 1
	test	ecx, ecx
	je	$LN4@From_L_Imp

; 56   :     {
; 57   :         // _UINT64_T を表現するのに 1 ワードでは不足する(ちょうど 2 ワード必要とする)処理系の場合
; 58   : 
; 59   :         _UINT32_T x_hi;
; 60   :         _UINT32_T x_lo = _FROMDWORDTOWORD(x, &x_hi);

	lea	edx, DWORD PTR _x_hi$5[ebp]
	push	edx
	mov	eax, DWORD PTR _x$[ebp+4]
	push	eax
	mov	ecx, DWORD PTR _x$[ebp]
	push	ecx
	call	__FROMDWORDTOWORD
	add	esp, 12					; 0000000cH
	mov	DWORD PTR _x_lo$4[ebp], eax

; 61   :         if (x_hi == 0)

	cmp	DWORD PTR _x_hi$5[ebp], 0
	jne	SHORT $LN6@From_L_Imp

; 62   :         {
; 63   :             __UNIT_TYPE x_bit_length = sizeof(x_lo) * 8 - _LZCNT_ALT_32(x_lo);

	mov	edx, DWORD PTR _x_lo$4[ebp]
	push	edx
	call	__LZCNT_ALT_32
	add	esp, 4
	mov	ecx, 32					; 00000020H
	sub	ecx, eax
	mov	DWORD PTR _x_bit_length$3[ebp], ecx

; 64   :             if ((result = AllocateNumber(o, x_bit_length, NULL)) != PMC_STATUS_OK)

	push	0
	mov	edx, DWORD PTR _x_bit_length$3[ebp]
	push	edx
	mov	eax, DWORD PTR _o$[ebp]
	push	eax
	call	_AllocateNumber
	add	esp, 12					; 0000000cH
	mov	DWORD PTR _result$[ebp], eax
	cmp	DWORD PTR _result$[ebp], 0
	je	SHORT $LN8@From_L_Imp

; 65   :                 return (result);

	mov	eax, DWORD PTR _result$[ebp]
	jmp	$LN1@From_L_Imp
$LN8@From_L_Imp:

; 66   :         }

	jmp	SHORT $LN7@From_L_Imp
$LN6@From_L_Imp:

; 67   :         else
; 68   :         {
; 69   :             __UNIT_TYPE x_bit_length = sizeof(x) * 8 - _LZCNT_ALT_32(x_hi);

	mov	ecx, DWORD PTR _x_hi$5[ebp]
	push	ecx
	call	__LZCNT_ALT_32
	add	esp, 4
	mov	edx, 64					; 00000040H
	sub	edx, eax
	mov	DWORD PTR _x_bit_length$2[ebp], edx

; 70   :             if ((result = AllocateNumber(o, x_bit_length, NULL)) != PMC_STATUS_OK)

	push	0
	mov	eax, DWORD PTR _x_bit_length$2[ebp]
	push	eax
	mov	ecx, DWORD PTR _o$[ebp]
	push	ecx
	call	_AllocateNumber
	add	esp, 12					; 0000000cH
	mov	DWORD PTR _result$[ebp], eax
	cmp	DWORD PTR _result$[ebp], 0
	je	SHORT $LN9@From_L_Imp

; 71   :                 return (result);

	mov	eax, DWORD PTR _result$[ebp]
	jmp	$LN1@From_L_Imp
$LN9@From_L_Imp:

; 72   :             (*o)->BLOCK[1] = x_hi;

	mov	edx, DWORD PTR _o$[ebp]
	mov	eax, DWORD PTR [edx]
	mov	ecx, 4
	shl	ecx, 0
	mov	edx, DWORD PTR [eax+24]
	mov	eax, DWORD PTR _x_hi$5[ebp]
	mov	DWORD PTR [ecx+edx], eax
$LN7@From_L_Imp:

; 73   :         }
; 74   :         (*o)->BLOCK[0] = x_lo;

	mov	ecx, DWORD PTR _o$[ebp]
	mov	edx, DWORD PTR [ecx]
	mov	eax, 4
	imul	ecx, eax, 0
	mov	edx, DWORD PTR [edx+24]
	mov	eax, DWORD PTR _x_lo$4[ebp]
	mov	DWORD PTR [ecx+edx], eax

; 75   :     }

	jmp	SHORT $LN3@From_L_Imp
$LN4@From_L_Imp:

; 76   :     else
; 77   :     {
; 78   :         // _UINT64_T を表現するのに 1 ワードで十分である処理系の場合
; 79   : 
; 80   :         __UNIT_TYPE x_bit_length = sizeof(x) * 8 - _LZCNT_ALT_UNIT((__UNIT_TYPE)x);

	mov	ecx, DWORD PTR _x$[ebp]
	push	ecx
	call	__LZCNT_ALT_UNIT
	add	esp, 4
	mov	edx, 64					; 00000040H
	sub	edx, eax
	mov	DWORD PTR _x_bit_length$1[ebp], edx

; 81   :         if ((result = AllocateNumber(o, x_bit_length, NULL)) != PMC_STATUS_OK)

	push	0
	mov	eax, DWORD PTR _x_bit_length$1[ebp]
	push	eax
	mov	ecx, DWORD PTR _o$[ebp]
	push	ecx
	call	_AllocateNumber
	add	esp, 12					; 0000000cH
	mov	DWORD PTR _result$[ebp], eax
	cmp	DWORD PTR _result$[ebp], 0
	je	SHORT $LN10@From_L_Imp

; 82   :             return (result);

	mov	eax, DWORD PTR _result$[ebp]
	jmp	SHORT $LN1@From_L_Imp
$LN10@From_L_Imp:

; 83   :         (*o)->BLOCK[0] = (__UNIT_TYPE)x;

	mov	edx, DWORD PTR _x$[ebp]
	mov	eax, DWORD PTR _o$[ebp]
	mov	ecx, DWORD PTR [eax]
	mov	eax, 4
	imul	eax, eax, 0
	mov	ecx, DWORD PTR [ecx+24]
	mov	DWORD PTR [eax+ecx], edx
$LN3@From_L_Imp:

; 84   :     }
; 85   :     CommitNumber(*o);

	mov	edx, DWORD PTR _o$[ebp]
	mov	eax, DWORD PTR [edx]
	push	eax
	call	_CommitNumber
	add	esp, 4

; 86   :     return (PMC_STATUS_OK);

	xor	eax, eax
$LN1@From_L_Imp:

; 87   : }

	push	edx
	mov	ecx, ebp
	push	eax
	lea	edx, DWORD PTR $LN14@From_L_Imp
	call	@_RTC_CheckStackVars@8
	pop	eax
	pop	edx
	add	esp, 32					; 00000020H
	cmp	ebp, esp
	call	__RTC_CheckEsp
	mov	esp, ebp
	pop	ebp
	ret	0
	npad	1
$LN14@From_L_Imp:
	DD	1
	DD	$LN13@From_L_Imp
$LN13@From_L_Imp:
	DD	-12					; fffffff4H
	DD	4
	DD	$LN12@From_L_Imp
$LN12@From_L_Imp:
	DB	120					; 00000078H
	DB	95					; 0000005fH
	DB	104					; 00000068H
	DB	105					; 00000069H
	DB	0
_From_L_Imp ENDP
_TEXT	ENDS
; Function compile flags: /Odtp /RTCsu
; File z:\sources\lunor\repos\rougemeilland\palmtree.math.core.implements\palmtree.math.core.implements\pmc_from.c
_TEXT	SEGMENT
_result$ = -4						; size = 4
_x$ = 8							; size = 4
_o$ = 12						; size = 4
_From_I_Imp PROC

; 38   : {

	push	ebp
	mov	ebp, esp
	push	ecx
	mov	DWORD PTR [ebp-4], -858993460		; ccccccccH
	mov	ecx, OFFSET __5C0CD9D4_pmc_from@c
	call	@__CheckForDebuggerJustMyCode@4

; 39   :     PMC_STATUS_CODE result;
; 40   :     if ((result = AllocateNumber(o, sizeof(x) * 8 - _LZCNT_ALT_32(x), NULL)) != PMC_STATUS_OK)

	push	0
	mov	eax, DWORD PTR _x$[ebp]
	push	eax
	call	__LZCNT_ALT_32
	add	esp, 4
	mov	ecx, 32					; 00000020H
	sub	ecx, eax
	push	ecx
	mov	edx, DWORD PTR _o$[ebp]
	push	edx
	call	_AllocateNumber
	add	esp, 12					; 0000000cH
	mov	DWORD PTR _result$[ebp], eax
	cmp	DWORD PTR _result$[ebp], 0
	je	SHORT $LN2@From_I_Imp

; 41   :         return (result);

	mov	eax, DWORD PTR _result$[ebp]
	jmp	SHORT $LN1@From_I_Imp
$LN2@From_I_Imp:

; 42   :     (*o)->BLOCK[0] = x;

	mov	eax, DWORD PTR _o$[ebp]
	mov	ecx, DWORD PTR [eax]
	mov	edx, 4
	imul	eax, edx, 0
	mov	ecx, DWORD PTR [ecx+24]
	mov	edx, DWORD PTR _x$[ebp]
	mov	DWORD PTR [eax+ecx], edx

; 43   :     CommitNumber(*o);

	mov	eax, DWORD PTR _o$[ebp]
	mov	ecx, DWORD PTR [eax]
	push	ecx
	call	_CommitNumber
	add	esp, 4

; 44   :     return (PMC_STATUS_OK);

	xor	eax, eax
$LN1@From_I_Imp:

; 45   : }

	add	esp, 4
	cmp	ebp, esp
	call	__RTC_CheckEsp
	mov	esp, ebp
	pop	ebp
	ret	0
_From_I_Imp ENDP
_TEXT	ENDS
END
