; Listing generated by Microsoft (R) Optimizing Compiler Version 19.16.27026.1 

	TITLE	Z:\Sources\Lunor\Repos\rougemeilland\Palmtree.Math.Core.Implements\Palmtree.Math.Core.Implements\TEST_op_GreatestCommonDivisor.c
	.686P
	.XMM
	include listing.inc
	.model	flat

INCLUDELIB MSVCRTD
INCLUDELIB OLDNAMES

msvcjmc	SEGMENT
__7B7A869E_ctype@h DB 01H
__457DD326_basetsd@h DB 01H
__4384A2D9_corecrt_memcpy_s@h DB 01H
__4E51A221_corecrt_wstring@h DB 01H
__2140C079_string@h DB 01H
__1887E595_winnt@h DB 01H
__9FC7C64B_processthreadsapi@h DB 01H
__FA470AEC_memoryapi@h DB 01H
__F37DAFF1_winerror@h DB 01H
__7A450CCC_winbase@h DB 01H
__B4B40122_winioctl@h DB 01H
__86261D59_stralign@h DB 01H
__1C66ECB2_pmc_debug@h DB 01H
__F88242F5_test_op_greatestcommondivisor@c DB 01H
msvcjmc	ENDS
PUBLIC	_TEST_PMC_GreatestCommonDivisor_I_X
PUBLIC	_TEST_PMC_GreatestCommonDivisor_L_X
PUBLIC	_TEST_PMC_GreatestCommonDivisor_X_I
PUBLIC	_TEST_PMC_GreatestCommonDivisor_X_L
PUBLIC	_TEST_PMC_GreatestCommonDivisor_X_X
PUBLIC	__JustMyCode_Default
EXTRN	_TEST_Assert:PROC
EXTRN	_FormatTestLabel:PROC
EXTRN	_FormatTestMesssage:PROC
EXTRN	@_RTC_CheckStackVars@8:PROC
EXTRN	@__CheckForDebuggerJustMyCode@4:PROC
EXTRN	@__security_check_cookie@4:PROC
EXTRN	__RTC_CheckEsp:PROC
EXTRN	__RTC_InitBase:PROC
EXTRN	__RTC_Shutdown:PROC
EXTRN	___security_cookie:DWORD
;	COMDAT rtc$TMZ
rtc$TMZ	SEGMENT
__RTC_Shutdown.rtc$TMZ DD FLAT:__RTC_Shutdown
rtc$TMZ	ENDS
;	COMDAT rtc$IMZ
rtc$IMZ	SEGMENT
__RTC_InitBase.rtc$IMZ DD FLAT:__RTC_InitBase
rtc$IMZ	ENDS
_DATA	SEGMENT
$SG94435 DB	'PMC_From_B', 082H, 0ccH, 095H, 09cH, 08bH, 'A', 083H, 'R'
	DB	081H, '[', 083H, 'h', 082H, 0aaH, 08aH, 0faH, 091H, 0d2H, 092H
	DB	0caH, 082H, 0e8H, 082H, 0c5H, 082H, 0cdH, 082H, 0c8H, 082H, 0a2H
	DB	'(%d)', 00H
	ORG $+3
$SG94436 DB	'PMC_GreatestCommonDivisor_I_X (%d.%d)', 00H
	ORG $+2
$SG94437 DB	'PMC_GreatestCommonDivisor_I_X', 082H, 0ccH, 095H, 09cH, 08bH
	DB	'A', 083H, 'R', 081H, '[', 083H, 'h', 082H, 0aaH, 08aH, 0faH, 091H
	DB	0d2H, 092H, 0caH, 082H, 0e8H, 082H, 0c5H, 082H, 0cdH, 082H, 0c8H
	DB	082H, 0a2H, '(%d)', 00H
$SG94438 DB	'PMC_GreatestCommonDivisor_I_X (%d.%d)', 00H
	ORG $+2
$SG94440 DB	'PMC_To_X_B', 082H, 0ccH, 095H, 09cH, 08bH, 'A', 083H, 'R'
	DB	081H, '[', 083H, 'h', 082H, 0aaH, 08aH, 0faH, 091H, 0d2H, 092H
	DB	0caH, 082H, 0e8H, 082H, 0c5H, 082H, 0cdH, 082H, 0c8H, 082H, 0a2H
	DB	'(%d)', 00H
	ORG $+3
$SG94441 DB	'PMC_GreatestCommonDivisor_I_X (%d.%d)', 00H
	ORG $+2
$SG94442 DB	083H, 'f', 081H, '[', 083H, '^', 082H, 0ccH, 093H, 0e0H, 097H
	DB	'e', 082H, 0aaH, 088H, 0eaH, 092H, 'v', 082H, 0b5H, 082H, 0c8H
	DB	082H, 0a2H, 00H
	ORG $+3
$SG94443 DB	'PMC_GreatestCommonDivisor_I_X (%d.%d)', 00H
	ORG $+2
$SG94472 DB	'PMC_From_B', 082H, 0ccH, 095H, 09cH, 08bH, 'A', 083H, 'R'
	DB	081H, '[', 083H, 'h', 082H, 0aaH, 08aH, 0faH, 091H, 0d2H, 092H
	DB	0caH, 082H, 0e8H, 082H, 0c5H, 082H, 0cdH, 082H, 0c8H, 082H, 0a2H
	DB	'(%d)', 00H
	ORG $+3
$SG94473 DB	'PMC_GreatestCommonDivisor_L_X (%d.%d)', 00H
	ORG $+6
$SG94474 DB	'PMC_GreatestCommonDivisor_L_X', 082H, 0ccH, 095H, 09cH, 08bH
	DB	'A', 083H, 'R', 081H, '[', 083H, 'h', 082H, 0aaH, 08aH, 0faH, 091H
	DB	0d2H, 092H, 0caH, 082H, 0e8H, 082H, 0c5H, 082H, 0cdH, 082H, 0c8H
	DB	082H, 0a2H, '(%d)', 00H
$SG94475 DB	'PMC_GreatestCommonDivisor_L_X (%d.%d)', 00H
	ORG $+2
$SG94477 DB	'PMC_To_X_B', 082H, 0ccH, 095H, 09cH, 08bH, 'A', 083H, 'R'
	DB	081H, '[', 083H, 'h', 082H, 0aaH, 08aH, 0faH, 091H, 0d2H, 092H
	DB	0caH, 082H, 0e8H, 082H, 0c5H, 082H, 0cdH, 082H, 0c8H, 082H, 0a2H
	DB	'(%d)', 00H
	ORG $+3
$SG94478 DB	'PMC_GreatestCommonDivisor_L_X (%d.%d)', 00H
	ORG $+2
$SG94479 DB	083H, 'f', 081H, '[', 083H, '^', 082H, 0ccH, 093H, 0e0H, 097H
	DB	'e', 082H, 0aaH, 088H, 0eaH, 092H, 'v', 082H, 0b5H, 082H, 0c8H
	DB	082H, 0a2H, 00H
	ORG $+3
$SG94480 DB	'PMC_GreatestCommonDivisor_L_X (%d.%d)', 00H
	ORG $+2
$SG94509 DB	'PMC_From_B', 082H, 0ccH, 095H, 09cH, 08bH, 'A', 083H, 'R'
	DB	081H, '[', 083H, 'h', 082H, 0aaH, 08aH, 0faH, 091H, 0d2H, 092H
	DB	0caH, 082H, 0e8H, 082H, 0c5H, 082H, 0cdH, 082H, 0c8H, 082H, 0a2H
	DB	'(%d)', 00H
	ORG $+3
$SG94510 DB	'PMC_GreatestCommonDivisor_X_I (%d.%d)', 00H
	ORG $+6
$SG94511 DB	'PMC_GreatestCommonDivisor_X_I', 082H, 0ccH, 095H, 09cH, 08bH
	DB	'A', 083H, 'R', 081H, '[', 083H, 'h', 082H, 0aaH, 08aH, 0faH, 091H
	DB	0d2H, 092H, 0caH, 082H, 0e8H, 082H, 0c5H, 082H, 0cdH, 082H, 0c8H
	DB	082H, 0a2H, '(%d)', 00H
$SG94512 DB	'PMC_GreatestCommonDivisor_X_I (%d.%d)', 00H
	ORG $+2
$SG94514 DB	'PMC_To_X_B', 082H, 0ccH, 095H, 09cH, 08bH, 'A', 083H, 'R'
	DB	081H, '[', 083H, 'h', 082H, 0aaH, 08aH, 0faH, 091H, 0d2H, 092H
	DB	0caH, 082H, 0e8H, 082H, 0c5H, 082H, 0cdH, 082H, 0c8H, 082H, 0a2H
	DB	'(%d)', 00H
	ORG $+3
$SG94515 DB	'PMC_GreatestCommonDivisor_X_I (%d.%d)', 00H
	ORG $+2
$SG94516 DB	083H, 'f', 081H, '[', 083H, '^', 082H, 0ccH, 093H, 0e0H, 097H
	DB	'e', 082H, 0aaH, 088H, 0eaH, 092H, 'v', 082H, 0b5H, 082H, 0c8H
	DB	082H, 0a2H, 00H
	ORG $+3
$SG94517 DB	'PMC_GreatestCommonDivisor_X_I (%d.%d)', 00H
	ORG $+2
$SG94546 DB	'PMC_From_B', 082H, 0ccH, 095H, 09cH, 08bH, 'A', 083H, 'R'
	DB	081H, '[', 083H, 'h', 082H, 0aaH, 08aH, 0faH, 091H, 0d2H, 092H
	DB	0caH, 082H, 0e8H, 082H, 0c5H, 082H, 0cdH, 082H, 0c8H, 082H, 0a2H
	DB	'(%d)', 00H
	ORG $+3
$SG94547 DB	'PMC_GreatestCommonDivisor_X_L (%d.%d)', 00H
	ORG $+6
$SG94548 DB	'PMC_GreatestCommonDivisor_X_L', 082H, 0ccH, 095H, 09cH, 08bH
	DB	'A', 083H, 'R', 081H, '[', 083H, 'h', 082H, 0aaH, 08aH, 0faH, 091H
	DB	0d2H, 092H, 0caH, 082H, 0e8H, 082H, 0c5H, 082H, 0cdH, 082H, 0c8H
	DB	082H, 0a2H, '(%d)', 00H
$SG94549 DB	'PMC_GreatestCommonDivisor_X_L (%d.%d)', 00H
	ORG $+2
$SG94551 DB	'PMC_To_X_B', 082H, 0ccH, 095H, 09cH, 08bH, 'A', 083H, 'R'
	DB	081H, '[', 083H, 'h', 082H, 0aaH, 08aH, 0faH, 091H, 0d2H, 092H
	DB	0caH, 082H, 0e8H, 082H, 0c5H, 082H, 0cdH, 082H, 0c8H, 082H, 0a2H
	DB	'(%d)', 00H
	ORG $+3
$SG94552 DB	'PMC_GreatestCommonDivisor_X_L (%d.%d)', 00H
	ORG $+2
$SG94553 DB	083H, 'f', 081H, '[', 083H, '^', 082H, 0ccH, 093H, 0e0H, 097H
	DB	'e', 082H, 0aaH, 088H, 0eaH, 092H, 'v', 082H, 0b5H, 082H, 0c8H
	DB	082H, 0a2H, 00H
	ORG $+3
$SG94554 DB	'PMC_GreatestCommonDivisor_X_L (%d.%d)', 00H
	ORG $+2
$SG94587 DB	'PMC_From_B', 082H, 0ccH, 095H, 09cH, 08bH, 'A', 083H, 'R'
	DB	081H, '[', 083H, 'h', 082H, 0aaH, 08aH, 0faH, 091H, 0d2H, 092H
	DB	0caH, 082H, 0e8H, 082H, 0c5H, 082H, 0cdH, 082H, 0c8H, 082H, 0a2H
	DB	'(%d)', 00H
	ORG $+3
$SG94588 DB	'PMC_GreatestCommonDivisor_X_X (%d.%d)', 00H
	ORG $+2
$SG94589 DB	'PMC_From_B', 082H, 0ccH, 095H, 09cH, 08bH, 'A', 083H, 'R'
	DB	081H, '[', 083H, 'h', 082H, 0aaH, 08aH, 0faH, 091H, 0d2H, 092H
	DB	0caH, 082H, 0e8H, 082H, 0c5H, 082H, 0cdH, 082H, 0c8H, 082H, 0a2H
	DB	'(%d)', 00H
	ORG $+3
$SG94590 DB	'PMC_GreatestCommonDivisor_X_X (%d.%d)', 00H
	ORG $+6
$SG94591 DB	'PMC_GreatestCommonDivisor_X_X', 082H, 0ccH, 095H, 09cH, 08bH
	DB	'A', 083H, 'R', 081H, '[', 083H, 'h', 082H, 0aaH, 08aH, 0faH, 091H
	DB	0d2H, 092H, 0caH, 082H, 0e8H, 082H, 0c5H, 082H, 0cdH, 082H, 0c8H
	DB	082H, 0a2H, '(%d)', 00H
$SG94592 DB	'PMC_GreatestCommonDivisor_X_X (%d.%d)', 00H
	ORG $+2
$SG94594 DB	'PMC_To_X_B', 082H, 0ccH, 095H, 09cH, 08bH, 'A', 083H, 'R'
	DB	081H, '[', 083H, 'h', 082H, 0aaH, 08aH, 0faH, 091H, 0d2H, 092H
	DB	0caH, 082H, 0e8H, 082H, 0c5H, 082H, 0cdH, 082H, 0c8H, 082H, 0a2H
	DB	'(%d)', 00H
	ORG $+3
$SG94595 DB	'PMC_GreatestCommonDivisor_X_X (%d.%d)', 00H
	ORG $+2
$SG94596 DB	083H, 'f', 081H, '[', 083H, '^', 082H, 0ccH, 093H, 0e0H, 097H
	DB	'e', 082H, 0aaH, 088H, 0eaH, 092H, 'v', 082H, 0b5H, 082H, 0c8H
	DB	082H, 0a2H, 00H
	ORG $+3
$SG94597 DB	'PMC_GreatestCommonDivisor_X_X (%d.%d)', 00H
_DATA	ENDS
; Function compile flags: /Odt
;	COMDAT __JustMyCode_Default
_TEXT	SEGMENT
__JustMyCode_Default PROC				; COMDAT
	push	ebp
	mov	ebp, esp
	pop	ebp
	ret	0
__JustMyCode_Default ENDP
_TEXT	ENDS
; Function compile flags: /Odtp /RTCsu
; File z:\sources\lunor\repos\rougemeilland\palmtree.math.core.implements\palmtree.math.core.implements\pmc_debug.h
_TEXT	SEGMENT
_buffer1$ = 8						; size = 4
_count1$ = 12						; size = 4
_buffer2$ = 16						; size = 4
_count2$ = 20						; size = 4
__EQUALS_MEMORY PROC

; 147  : {

	push	ebp
	mov	ebp, esp
	mov	ecx, OFFSET __1C66ECB2_pmc_debug@h
	call	@__CheckForDebuggerJustMyCode@4

; 148  :     if (count1 != count2)

	mov	eax, DWORD PTR _count1$[ebp]
	cmp	eax, DWORD PTR _count2$[ebp]
	je	SHORT $LN2@EQUALS_MEM

; 149  :         return (-1);

	or	eax, -1
	jmp	SHORT $LN1@EQUALS_MEM
$LN2@EQUALS_MEM:

; 150  :     while (count1 > 0)

	cmp	DWORD PTR _count1$[ebp], 0
	jbe	SHORT $LN3@EQUALS_MEM

; 151  :     {
; 152  :         if (*buffer1 != *buffer2)

	mov	ecx, DWORD PTR _buffer1$[ebp]
	movzx	edx, BYTE PTR [ecx]
	mov	eax, DWORD PTR _buffer2$[ebp]
	movzx	ecx, BYTE PTR [eax]
	cmp	edx, ecx
	je	SHORT $LN5@EQUALS_MEM

; 153  :             return (-1);

	or	eax, -1
	jmp	SHORT $LN1@EQUALS_MEM
$LN5@EQUALS_MEM:

; 154  :         ++buffer1;

	mov	edx, DWORD PTR _buffer1$[ebp]
	add	edx, 1
	mov	DWORD PTR _buffer1$[ebp], edx

; 155  :         ++buffer2;

	mov	eax, DWORD PTR _buffer2$[ebp]
	add	eax, 1
	mov	DWORD PTR _buffer2$[ebp], eax

; 156  :         --count1;

	mov	ecx, DWORD PTR _count1$[ebp]
	sub	ecx, 1
	mov	DWORD PTR _count1$[ebp], ecx

; 157  :     }

	jmp	SHORT $LN2@EQUALS_MEM
$LN3@EQUALS_MEM:

; 158  :     return (0);

	xor	eax, eax
$LN1@EQUALS_MEM:

; 159  : }

	cmp	ebp, esp
	call	__RTC_CheckEsp
	pop	ebp
	ret	0
__EQUALS_MEMORY ENDP
_TEXT	ENDS
; Function compile flags: /Odtp /RTCsu
; File z:\sources\lunor\repos\rougemeilland\palmtree.math.core.implements\palmtree.math.core.implements\test_op_greatestcommondivisor.c
_TEXT	SEGMENT
tv177 = -352						; size = 4
tv162 = -348						; size = 4
tv142 = -344						; size = 4
tv92 = -340						; size = 4
tv74 = -336						; size = 4
_z_result$ = -332					; size = 4
_y_result$ = -328					; size = 4
_x_result$ = -324					; size = 4
_result$ = -320						; size = 4
_actual_z_buf_size$ = -312				; size = 4
_actual_z_buf$ = -300					; size = 256
_z$ = -36						; size = 4
_y$ = -24						; size = 4
_x$ = -12						; size = 4
__$ArrayPad$ = -4					; size = 4
_env$ = 8						; size = 4
_ep$ = 12						; size = 4
_no$ = 16						; size = 4
_x_buf$ = 20						; size = 4
_x_buf_size$ = 24					; size = 4
_y_buf$ = 28						; size = 4
_y_buf_size$ = 32					; size = 4
_desired_result_code$ = 36				; size = 4
_desired_z_buf$ = 40					; size = 4
_desired_z_buf_size$ = 44				; size = 4
_TEST_PMC_GreatestCommonDivisor_X_X PROC

; 128  : {

	push	ebp
	mov	ebp, esp
	sub	esp, 352				; 00000160H
	push	esi
	push	edi
	lea	edi, DWORD PTR [ebp-352]
	mov	ecx, 88					; 00000058H
	mov	eax, -858993460				; ccccccccH
	rep stosd
	mov	eax, DWORD PTR ___security_cookie
	xor	eax, ebp
	mov	DWORD PTR __$ArrayPad$[ebp], eax
	mov	ecx, OFFSET __F88242F5_test_op_greatestcommondivisor@c
	call	@__CheckForDebuggerJustMyCode@4

; 129  :     HANDLE x;
; 130  :     HANDLE y;
; 131  :     HANDLE z;
; 132  :     unsigned char actual_z_buf[256];
; 133  :     size_t actual_z_buf_size;
; 134  :     PMC_STATUS_CODE result;
; 135  :     PMC_STATUS_CODE x_result;
; 136  :     PMC_STATUS_CODE y_result;
; 137  :     PMC_STATUS_CODE z_result;
; 138  :     TEST_Assert(env, FormatTestLabel("PMC_GreatestCommonDivisor_X_X (%d.%d)", no, 1), (x_result = ep->PMC_From_B(x_buf, x_buf_size, &x)) == PMC_STATUS_OK, FormatTestMesssage("PMC_From_Bの復帰コードが期待通りではない(%d)", x_result));

	mov	esi, esp
	lea	eax, DWORD PTR _x$[ebp]
	push	eax
	mov	ecx, DWORD PTR _x_buf_size$[ebp]
	push	ecx
	mov	edx, DWORD PTR _x_buf$[ebp]
	push	edx
	mov	eax, DWORD PTR _ep$[ebp]
	mov	ecx, DWORD PTR [eax+16]
	call	ecx
	cmp	esi, esp
	call	__RTC_CheckEsp
	mov	DWORD PTR _x_result$[ebp], eax
	cmp	DWORD PTR _x_result$[ebp], 0
	jne	SHORT $LN7@TEST_PMC_G
	mov	DWORD PTR tv74[ebp], 1
	jmp	SHORT $LN8@TEST_PMC_G
$LN7@TEST_PMC_G:
	mov	DWORD PTR tv74[ebp], 0
$LN8@TEST_PMC_G:
	mov	edx, DWORD PTR _x_result$[ebp]
	push	edx
	push	OFFSET $SG94587
	call	_FormatTestMesssage
	add	esp, 8
	push	eax
	mov	eax, DWORD PTR tv74[ebp]
	push	eax
	push	1
	mov	ecx, DWORD PTR _no$[ebp]
	push	ecx
	push	OFFSET $SG94588
	call	_FormatTestLabel
	add	esp, 12					; 0000000cH
	push	eax
	mov	edx, DWORD PTR _env$[ebp]
	push	edx
	call	_TEST_Assert
	add	esp, 16					; 00000010H

; 139  :     TEST_Assert(env, FormatTestLabel("PMC_GreatestCommonDivisor_X_X (%d.%d)", no, 2), (y_result = ep->PMC_From_B(y_buf, y_buf_size, &y)) == PMC_STATUS_OK, FormatTestMesssage("PMC_From_Bの復帰コードが期待通りではない(%d)", y_result));

	mov	esi, esp
	lea	eax, DWORD PTR _y$[ebp]
	push	eax
	mov	ecx, DWORD PTR _y_buf_size$[ebp]
	push	ecx
	mov	edx, DWORD PTR _y_buf$[ebp]
	push	edx
	mov	eax, DWORD PTR _ep$[ebp]
	mov	ecx, DWORD PTR [eax+16]
	call	ecx
	cmp	esi, esp
	call	__RTC_CheckEsp
	mov	DWORD PTR _y_result$[ebp], eax
	cmp	DWORD PTR _y_result$[ebp], 0
	jne	SHORT $LN9@TEST_PMC_G
	mov	DWORD PTR tv92[ebp], 1
	jmp	SHORT $LN10@TEST_PMC_G
$LN9@TEST_PMC_G:
	mov	DWORD PTR tv92[ebp], 0
$LN10@TEST_PMC_G:
	mov	edx, DWORD PTR _y_result$[ebp]
	push	edx
	push	OFFSET $SG94589
	call	_FormatTestMesssage
	add	esp, 8
	push	eax
	mov	eax, DWORD PTR tv92[ebp]
	push	eax
	push	2
	mov	ecx, DWORD PTR _no$[ebp]
	push	ecx
	push	OFFSET $SG94590
	call	_FormatTestLabel
	add	esp, 12					; 0000000cH
	push	eax
	mov	edx, DWORD PTR _env$[ebp]
	push	edx
	call	_TEST_Assert
	add	esp, 16					; 00000010H

; 140  :     TEST_Assert(env, FormatTestLabel("PMC_GreatestCommonDivisor_X_X (%d.%d)", no, 3), (z_result = ep->PMC_GreatestCommonDivisor_X_X(x, y, &z)) == desired_result_code, FormatTestMesssage("PMC_GreatestCommonDivisor_X_Xの復帰コードが期待通りではない(%d)", z_result));

	mov	esi, esp
	lea	eax, DWORD PTR _z$[ebp]
	push	eax
	mov	ecx, DWORD PTR _y$[ebp]
	push	ecx
	mov	edx, DWORD PTR _x$[ebp]
	push	edx
	mov	eax, DWORD PTR _ep$[ebp]
	mov	ecx, DWORD PTR [eax+256]
	call	ecx
	cmp	esi, esp
	call	__RTC_CheckEsp
	mov	DWORD PTR _z_result$[ebp], eax
	mov	edx, DWORD PTR _z_result$[ebp]
	cmp	edx, DWORD PTR _desired_result_code$[ebp]
	jne	SHORT $LN11@TEST_PMC_G
	mov	DWORD PTR tv142[ebp], 1
	jmp	SHORT $LN12@TEST_PMC_G
$LN11@TEST_PMC_G:
	mov	DWORD PTR tv142[ebp], 0
$LN12@TEST_PMC_G:
	mov	eax, DWORD PTR _z_result$[ebp]
	push	eax
	push	OFFSET $SG94591
	call	_FormatTestMesssage
	add	esp, 8
	push	eax
	mov	ecx, DWORD PTR tv142[ebp]
	push	ecx
	push	3
	mov	edx, DWORD PTR _no$[ebp]
	push	edx
	push	OFFSET $SG94592
	call	_FormatTestLabel
	add	esp, 12					; 0000000cH
	push	eax
	mov	eax, DWORD PTR _env$[ebp]
	push	eax
	call	_TEST_Assert
	add	esp, 16					; 00000010H

; 141  :     if (desired_result_code == PMC_STATUS_OK)

	cmp	DWORD PTR _desired_result_code$[ebp], 0
	jne	$LN2@TEST_PMC_G

; 142  :     {
; 143  :         TEST_Assert(env, FormatTestLabel("PMC_GreatestCommonDivisor_X_X (%d.%d)", no, 4), (result = ep->PMC_To_X_B(z, actual_z_buf, sizeof(actual_z_buf), &actual_z_buf_size)) == PMC_STATUS_OK, FormatTestMesssage("PMC_To_X_Bの復帰コードが期待通りではない(%d)", result));

	mov	esi, esp
	lea	ecx, DWORD PTR _actual_z_buf_size$[ebp]
	push	ecx
	push	256					; 00000100H
	lea	edx, DWORD PTR _actual_z_buf$[ebp]
	push	edx
	mov	eax, DWORD PTR _z$[ebp]
	push	eax
	mov	ecx, DWORD PTR _ep$[ebp]
	mov	edx, DWORD PTR [ecx+32]
	call	edx
	cmp	esi, esp
	call	__RTC_CheckEsp
	mov	DWORD PTR _result$[ebp], eax
	cmp	DWORD PTR _result$[ebp], 0
	jne	SHORT $LN13@TEST_PMC_G
	mov	DWORD PTR tv162[ebp], 1
	jmp	SHORT $LN14@TEST_PMC_G
$LN13@TEST_PMC_G:
	mov	DWORD PTR tv162[ebp], 0
$LN14@TEST_PMC_G:
	mov	eax, DWORD PTR _result$[ebp]
	push	eax
	push	OFFSET $SG94594
	call	_FormatTestMesssage
	add	esp, 8
	push	eax
	mov	ecx, DWORD PTR tv162[ebp]
	push	ecx
	push	4
	mov	edx, DWORD PTR _no$[ebp]
	push	edx
	push	OFFSET $SG94595
	call	_FormatTestLabel
	add	esp, 12					; 0000000cH
	push	eax
	mov	eax, DWORD PTR _env$[ebp]
	push	eax
	call	_TEST_Assert
	add	esp, 16					; 00000010H

; 144  :         TEST_Assert(env, FormatTestLabel("PMC_GreatestCommonDivisor_X_X (%d.%d)", no, 5), _EQUALS_MEMORY(actual_z_buf, actual_z_buf_size, desired_z_buf, desired_z_buf_size) == 0, "データの内容が一致しない");

	mov	ecx, DWORD PTR _desired_z_buf_size$[ebp]
	push	ecx
	mov	edx, DWORD PTR _desired_z_buf$[ebp]
	push	edx
	mov	eax, DWORD PTR _actual_z_buf_size$[ebp]
	push	eax
	lea	ecx, DWORD PTR _actual_z_buf$[ebp]
	push	ecx
	call	__EQUALS_MEMORY
	add	esp, 16					; 00000010H
	test	eax, eax
	jne	SHORT $LN15@TEST_PMC_G
	mov	DWORD PTR tv177[ebp], 1
	jmp	SHORT $LN16@TEST_PMC_G
$LN15@TEST_PMC_G:
	mov	DWORD PTR tv177[ebp], 0
$LN16@TEST_PMC_G:
	push	OFFSET $SG94596
	mov	edx, DWORD PTR tv177[ebp]
	push	edx
	push	5
	mov	eax, DWORD PTR _no$[ebp]
	push	eax
	push	OFFSET $SG94597
	call	_FormatTestLabel
	add	esp, 12					; 0000000cH
	push	eax
	mov	ecx, DWORD PTR _env$[ebp]
	push	ecx
	call	_TEST_Assert
	add	esp, 16					; 00000010H
$LN2@TEST_PMC_G:

; 145  :     }
; 146  :     if (z_result == PMC_STATUS_OK)

	cmp	DWORD PTR _z_result$[ebp], 0
	jne	SHORT $LN3@TEST_PMC_G

; 147  :         ep->PMC_Dispose(z);

	mov	esi, esp
	mov	edx, DWORD PTR _z$[ebp]
	push	edx
	mov	eax, DWORD PTR _ep$[ebp]
	mov	ecx, DWORD PTR [eax+20]
	call	ecx
	cmp	esi, esp
	call	__RTC_CheckEsp
$LN3@TEST_PMC_G:

; 148  :     if (y_result == PMC_STATUS_OK)

	cmp	DWORD PTR _y_result$[ebp], 0
	jne	SHORT $LN4@TEST_PMC_G

; 149  :         ep->PMC_Dispose(y);

	mov	esi, esp
	mov	edx, DWORD PTR _y$[ebp]
	push	edx
	mov	eax, DWORD PTR _ep$[ebp]
	mov	ecx, DWORD PTR [eax+20]
	call	ecx
	cmp	esi, esp
	call	__RTC_CheckEsp
$LN4@TEST_PMC_G:

; 150  :     if (x_result == PMC_STATUS_OK)

	cmp	DWORD PTR _x_result$[ebp], 0
	jne	SHORT $LN1@TEST_PMC_G

; 151  :         ep->PMC_Dispose(x);

	mov	esi, esp
	mov	edx, DWORD PTR _x$[ebp]
	push	edx
	mov	eax, DWORD PTR _ep$[ebp]
	mov	ecx, DWORD PTR [eax+20]
	call	ecx
	cmp	esi, esp
	call	__RTC_CheckEsp
$LN1@TEST_PMC_G:

; 152  : }

	push	edx
	mov	ecx, ebp
	push	eax
	lea	edx, DWORD PTR $LN23@TEST_PMC_G
	call	@_RTC_CheckStackVars@8
	pop	eax
	pop	edx
	pop	edi
	pop	esi
	mov	ecx, DWORD PTR __$ArrayPad$[ebp]
	xor	ecx, ebp
	call	@__security_check_cookie@4
	add	esp, 352				; 00000160H
	cmp	ebp, esp
	call	__RTC_CheckEsp
	mov	esp, ebp
	pop	ebp
	ret	0
	npad	1
$LN23@TEST_PMC_G:
	DD	5
	DD	$LN22@TEST_PMC_G
$LN22@TEST_PMC_G:
	DD	-12					; fffffff4H
	DD	4
	DD	$LN17@TEST_PMC_G
	DD	-24					; ffffffe8H
	DD	4
	DD	$LN18@TEST_PMC_G
	DD	-36					; ffffffdcH
	DD	4
	DD	$LN19@TEST_PMC_G
	DD	-300					; fffffed4H
	DD	256					; 00000100H
	DD	$LN20@TEST_PMC_G
	DD	-312					; fffffec8H
	DD	4
	DD	$LN21@TEST_PMC_G
$LN21@TEST_PMC_G:
	DB	97					; 00000061H
	DB	99					; 00000063H
	DB	116					; 00000074H
	DB	117					; 00000075H
	DB	97					; 00000061H
	DB	108					; 0000006cH
	DB	95					; 0000005fH
	DB	122					; 0000007aH
	DB	95					; 0000005fH
	DB	98					; 00000062H
	DB	117					; 00000075H
	DB	102					; 00000066H
	DB	95					; 0000005fH
	DB	115					; 00000073H
	DB	105					; 00000069H
	DB	122					; 0000007aH
	DB	101					; 00000065H
	DB	0
$LN20@TEST_PMC_G:
	DB	97					; 00000061H
	DB	99					; 00000063H
	DB	116					; 00000074H
	DB	117					; 00000075H
	DB	97					; 00000061H
	DB	108					; 0000006cH
	DB	95					; 0000005fH
	DB	122					; 0000007aH
	DB	95					; 0000005fH
	DB	98					; 00000062H
	DB	117					; 00000075H
	DB	102					; 00000066H
	DB	0
$LN19@TEST_PMC_G:
	DB	122					; 0000007aH
	DB	0
$LN18@TEST_PMC_G:
	DB	121					; 00000079H
	DB	0
$LN17@TEST_PMC_G:
	DB	120					; 00000078H
	DB	0
_TEST_PMC_GreatestCommonDivisor_X_X ENDP
_TEXT	ENDS
; Function compile flags: /Odtp /RTCsu
; File z:\sources\lunor\repos\rougemeilland\palmtree.math.core.implements\palmtree.math.core.implements\test_op_greatestcommondivisor.c
_TEXT	SEGMENT
tv159 = -332						; size = 4
tv144 = -328						; size = 4
tv92 = -324						; size = 4
tv74 = -320						; size = 4
_z_result$ = -316					; size = 4
_x_result$ = -312					; size = 4
_result$ = -308						; size = 4
_actual_z_buf_size$ = -300				; size = 4
_actual_z_buf$ = -288					; size = 256
_z$ = -24						; size = 4
_x$ = -12						; size = 4
__$ArrayPad$ = -4					; size = 4
_env$ = 8						; size = 4
_ep$ = 12						; size = 4
_no$ = 16						; size = 4
_x_buf$ = 20						; size = 4
_x_buf_size$ = 24					; size = 4
_y$ = 28						; size = 8
_desired_result_code$ = 36				; size = 4
_desired_z_buf$ = 40					; size = 4
_desired_z_buf_size$ = 44				; size = 4
_TEST_PMC_GreatestCommonDivisor_X_L PROC

; 106  : {

	push	ebp
	mov	ebp, esp
	sub	esp, 332				; 0000014cH
	push	esi
	push	edi
	lea	edi, DWORD PTR [ebp-332]
	mov	ecx, 83					; 00000053H
	mov	eax, -858993460				; ccccccccH
	rep stosd
	mov	eax, DWORD PTR ___security_cookie
	xor	eax, ebp
	mov	DWORD PTR __$ArrayPad$[ebp], eax
	mov	ecx, OFFSET __F88242F5_test_op_greatestcommondivisor@c
	call	@__CheckForDebuggerJustMyCode@4

; 107  :     HANDLE x;
; 108  :     HANDLE z;
; 109  :     unsigned char actual_z_buf[256];
; 110  :     size_t actual_z_buf_size;
; 111  :     PMC_STATUS_CODE result;
; 112  :     PMC_STATUS_CODE x_result;
; 113  :     PMC_STATUS_CODE z_result;
; 114  :     TEST_Assert(env, FormatTestLabel("PMC_GreatestCommonDivisor_X_L (%d.%d)", no, 1), (x_result = ep->PMC_From_B(x_buf, x_buf_size, &x)) == PMC_STATUS_OK, FormatTestMesssage("PMC_From_Bの復帰コードが期待通りではない(%d)", x_result));

	mov	esi, esp
	lea	eax, DWORD PTR _x$[ebp]
	push	eax
	mov	ecx, DWORD PTR _x_buf_size$[ebp]
	push	ecx
	mov	edx, DWORD PTR _x_buf$[ebp]
	push	edx
	mov	eax, DWORD PTR _ep$[ebp]
	mov	ecx, DWORD PTR [eax+16]
	call	ecx
	cmp	esi, esp
	call	__RTC_CheckEsp
	mov	DWORD PTR _x_result$[ebp], eax
	cmp	DWORD PTR _x_result$[ebp], 0
	jne	SHORT $LN6@TEST_PMC_G
	mov	DWORD PTR tv74[ebp], 1
	jmp	SHORT $LN7@TEST_PMC_G
$LN6@TEST_PMC_G:
	mov	DWORD PTR tv74[ebp], 0
$LN7@TEST_PMC_G:
	mov	edx, DWORD PTR _x_result$[ebp]
	push	edx
	push	OFFSET $SG94546
	call	_FormatTestMesssage
	add	esp, 8
	push	eax
	mov	eax, DWORD PTR tv74[ebp]
	push	eax
	push	1
	mov	ecx, DWORD PTR _no$[ebp]
	push	ecx
	push	OFFSET $SG94547
	call	_FormatTestLabel
	add	esp, 12					; 0000000cH
	push	eax
	mov	edx, DWORD PTR _env$[ebp]
	push	edx
	call	_TEST_Assert
	add	esp, 16					; 00000010H

; 115  :     TEST_Assert(env, FormatTestLabel("PMC_GreatestCommonDivisor_X_L (%d.%d)", no, 2), (z_result = ep->PMC_GreatestCommonDivisor_X_L(x, y, &z)) == desired_result_code, FormatTestMesssage("PMC_GreatestCommonDivisor_X_Lの復帰コードが期待通りではない(%d)", z_result));

	mov	esi, esp
	lea	eax, DWORD PTR _z$[ebp]
	push	eax
	mov	ecx, DWORD PTR _y$[ebp+4]
	push	ecx
	mov	edx, DWORD PTR _y$[ebp]
	push	edx
	mov	eax, DWORD PTR _x$[ebp]
	push	eax
	mov	ecx, DWORD PTR _ep$[ebp]
	mov	edx, DWORD PTR [ecx+252]
	call	edx
	cmp	esi, esp
	call	__RTC_CheckEsp
	mov	DWORD PTR _z_result$[ebp], eax
	mov	eax, DWORD PTR _z_result$[ebp]
	cmp	eax, DWORD PTR _desired_result_code$[ebp]
	jne	SHORT $LN8@TEST_PMC_G
	mov	DWORD PTR tv92[ebp], 1
	jmp	SHORT $LN9@TEST_PMC_G
$LN8@TEST_PMC_G:
	mov	DWORD PTR tv92[ebp], 0
$LN9@TEST_PMC_G:
	mov	ecx, DWORD PTR _z_result$[ebp]
	push	ecx
	push	OFFSET $SG94548
	call	_FormatTestMesssage
	add	esp, 8
	push	eax
	mov	edx, DWORD PTR tv92[ebp]
	push	edx
	push	2
	mov	eax, DWORD PTR _no$[ebp]
	push	eax
	push	OFFSET $SG94549
	call	_FormatTestLabel
	add	esp, 12					; 0000000cH
	push	eax
	mov	ecx, DWORD PTR _env$[ebp]
	push	ecx
	call	_TEST_Assert
	add	esp, 16					; 00000010H

; 116  :     if (desired_result_code == PMC_STATUS_OK)

	cmp	DWORD PTR _desired_result_code$[ebp], 0
	jne	$LN2@TEST_PMC_G

; 117  :     {
; 118  :         TEST_Assert(env, FormatTestLabel("PMC_GreatestCommonDivisor_X_L (%d.%d)", no, 3), (result = ep->PMC_To_X_B(z, actual_z_buf, sizeof(actual_z_buf), &actual_z_buf_size)) == PMC_STATUS_OK, FormatTestMesssage("PMC_To_X_Bの復帰コードが期待通りではない(%d)", result));

	mov	esi, esp
	lea	edx, DWORD PTR _actual_z_buf_size$[ebp]
	push	edx
	push	256					; 00000100H
	lea	eax, DWORD PTR _actual_z_buf$[ebp]
	push	eax
	mov	ecx, DWORD PTR _z$[ebp]
	push	ecx
	mov	edx, DWORD PTR _ep$[ebp]
	mov	eax, DWORD PTR [edx+32]
	call	eax
	cmp	esi, esp
	call	__RTC_CheckEsp
	mov	DWORD PTR _result$[ebp], eax
	cmp	DWORD PTR _result$[ebp], 0
	jne	SHORT $LN10@TEST_PMC_G
	mov	DWORD PTR tv144[ebp], 1
	jmp	SHORT $LN11@TEST_PMC_G
$LN10@TEST_PMC_G:
	mov	DWORD PTR tv144[ebp], 0
$LN11@TEST_PMC_G:
	mov	ecx, DWORD PTR _result$[ebp]
	push	ecx
	push	OFFSET $SG94551
	call	_FormatTestMesssage
	add	esp, 8
	push	eax
	mov	edx, DWORD PTR tv144[ebp]
	push	edx
	push	3
	mov	eax, DWORD PTR _no$[ebp]
	push	eax
	push	OFFSET $SG94552
	call	_FormatTestLabel
	add	esp, 12					; 0000000cH
	push	eax
	mov	ecx, DWORD PTR _env$[ebp]
	push	ecx
	call	_TEST_Assert
	add	esp, 16					; 00000010H

; 119  :         TEST_Assert(env, FormatTestLabel("PMC_GreatestCommonDivisor_X_L (%d.%d)", no, 4), _EQUALS_MEMORY(actual_z_buf, actual_z_buf_size, desired_z_buf, desired_z_buf_size) == 0, "データの内容が一致しない");

	mov	edx, DWORD PTR _desired_z_buf_size$[ebp]
	push	edx
	mov	eax, DWORD PTR _desired_z_buf$[ebp]
	push	eax
	mov	ecx, DWORD PTR _actual_z_buf_size$[ebp]
	push	ecx
	lea	edx, DWORD PTR _actual_z_buf$[ebp]
	push	edx
	call	__EQUALS_MEMORY
	add	esp, 16					; 00000010H
	test	eax, eax
	jne	SHORT $LN12@TEST_PMC_G
	mov	DWORD PTR tv159[ebp], 1
	jmp	SHORT $LN13@TEST_PMC_G
$LN12@TEST_PMC_G:
	mov	DWORD PTR tv159[ebp], 0
$LN13@TEST_PMC_G:
	push	OFFSET $SG94553
	mov	eax, DWORD PTR tv159[ebp]
	push	eax
	push	4
	mov	ecx, DWORD PTR _no$[ebp]
	push	ecx
	push	OFFSET $SG94554
	call	_FormatTestLabel
	add	esp, 12					; 0000000cH
	push	eax
	mov	edx, DWORD PTR _env$[ebp]
	push	edx
	call	_TEST_Assert
	add	esp, 16					; 00000010H
$LN2@TEST_PMC_G:

; 120  :     }
; 121  :     if (z_result == PMC_STATUS_OK)

	cmp	DWORD PTR _z_result$[ebp], 0
	jne	SHORT $LN3@TEST_PMC_G

; 122  :         ep->PMC_Dispose(z);

	mov	esi, esp
	mov	eax, DWORD PTR _z$[ebp]
	push	eax
	mov	ecx, DWORD PTR _ep$[ebp]
	mov	edx, DWORD PTR [ecx+20]
	call	edx
	cmp	esi, esp
	call	__RTC_CheckEsp
$LN3@TEST_PMC_G:

; 123  :     if (x_result == PMC_STATUS_OK)

	cmp	DWORD PTR _x_result$[ebp], 0
	jne	SHORT $LN1@TEST_PMC_G

; 124  :         ep->PMC_Dispose(x);

	mov	esi, esp
	mov	eax, DWORD PTR _x$[ebp]
	push	eax
	mov	ecx, DWORD PTR _ep$[ebp]
	mov	edx, DWORD PTR [ecx+20]
	call	edx
	cmp	esi, esp
	call	__RTC_CheckEsp
$LN1@TEST_PMC_G:

; 125  : }

	push	edx
	mov	ecx, ebp
	push	eax
	lea	edx, DWORD PTR $LN19@TEST_PMC_G
	call	@_RTC_CheckStackVars@8
	pop	eax
	pop	edx
	pop	edi
	pop	esi
	mov	ecx, DWORD PTR __$ArrayPad$[ebp]
	xor	ecx, ebp
	call	@__security_check_cookie@4
	add	esp, 332				; 0000014cH
	cmp	ebp, esp
	call	__RTC_CheckEsp
	mov	esp, ebp
	pop	ebp
	ret	0
	npad	1
$LN19@TEST_PMC_G:
	DD	4
	DD	$LN18@TEST_PMC_G
$LN18@TEST_PMC_G:
	DD	-12					; fffffff4H
	DD	4
	DD	$LN14@TEST_PMC_G
	DD	-24					; ffffffe8H
	DD	4
	DD	$LN15@TEST_PMC_G
	DD	-288					; fffffee0H
	DD	256					; 00000100H
	DD	$LN16@TEST_PMC_G
	DD	-300					; fffffed4H
	DD	4
	DD	$LN17@TEST_PMC_G
$LN17@TEST_PMC_G:
	DB	97					; 00000061H
	DB	99					; 00000063H
	DB	116					; 00000074H
	DB	117					; 00000075H
	DB	97					; 00000061H
	DB	108					; 0000006cH
	DB	95					; 0000005fH
	DB	122					; 0000007aH
	DB	95					; 0000005fH
	DB	98					; 00000062H
	DB	117					; 00000075H
	DB	102					; 00000066H
	DB	95					; 0000005fH
	DB	115					; 00000073H
	DB	105					; 00000069H
	DB	122					; 0000007aH
	DB	101					; 00000065H
	DB	0
$LN16@TEST_PMC_G:
	DB	97					; 00000061H
	DB	99					; 00000063H
	DB	116					; 00000074H
	DB	117					; 00000075H
	DB	97					; 00000061H
	DB	108					; 0000006cH
	DB	95					; 0000005fH
	DB	122					; 0000007aH
	DB	95					; 0000005fH
	DB	98					; 00000062H
	DB	117					; 00000075H
	DB	102					; 00000066H
	DB	0
$LN15@TEST_PMC_G:
	DB	122					; 0000007aH
	DB	0
$LN14@TEST_PMC_G:
	DB	120					; 00000078H
	DB	0
_TEST_PMC_GreatestCommonDivisor_X_L ENDP
_TEXT	ENDS
; Function compile flags: /Odtp /RTCsu
; File z:\sources\lunor\repos\rougemeilland\palmtree.math.core.implements\palmtree.math.core.implements\test_op_greatestcommondivisor.c
_TEXT	SEGMENT
tv159 = -332						; size = 4
tv144 = -328						; size = 4
tv92 = -324						; size = 4
tv74 = -320						; size = 4
_z_result$ = -316					; size = 4
_x_result$ = -312					; size = 4
_result$ = -308						; size = 4
_actual_z_buf_size$ = -300				; size = 4
_actual_z_buf$ = -288					; size = 256
_z$ = -24						; size = 4
_x$ = -12						; size = 4
__$ArrayPad$ = -4					; size = 4
_env$ = 8						; size = 4
_ep$ = 12						; size = 4
_no$ = 16						; size = 4
_x_buf$ = 20						; size = 4
_x_buf_size$ = 24					; size = 4
_y$ = 28						; size = 4
_desired_result_code$ = 32				; size = 4
_desired_z_buf$ = 36					; size = 4
_desired_z_buf_size$ = 40				; size = 4
_TEST_PMC_GreatestCommonDivisor_X_I PROC

; 84   : {

	push	ebp
	mov	ebp, esp
	sub	esp, 332				; 0000014cH
	push	esi
	push	edi
	lea	edi, DWORD PTR [ebp-332]
	mov	ecx, 83					; 00000053H
	mov	eax, -858993460				; ccccccccH
	rep stosd
	mov	eax, DWORD PTR ___security_cookie
	xor	eax, ebp
	mov	DWORD PTR __$ArrayPad$[ebp], eax
	mov	ecx, OFFSET __F88242F5_test_op_greatestcommondivisor@c
	call	@__CheckForDebuggerJustMyCode@4

; 85   :     HANDLE x;
; 86   :     HANDLE z;
; 87   :     unsigned char actual_z_buf[256];
; 88   :     size_t actual_z_buf_size;
; 89   :     PMC_STATUS_CODE result;
; 90   :     PMC_STATUS_CODE x_result;
; 91   :     PMC_STATUS_CODE z_result;
; 92   :     TEST_Assert(env, FormatTestLabel("PMC_GreatestCommonDivisor_X_I (%d.%d)", no, 1), (x_result = ep->PMC_From_B(x_buf, x_buf_size, &x)) == PMC_STATUS_OK, FormatTestMesssage("PMC_From_Bの復帰コードが期待通りではない(%d)", x_result));

	mov	esi, esp
	lea	eax, DWORD PTR _x$[ebp]
	push	eax
	mov	ecx, DWORD PTR _x_buf_size$[ebp]
	push	ecx
	mov	edx, DWORD PTR _x_buf$[ebp]
	push	edx
	mov	eax, DWORD PTR _ep$[ebp]
	mov	ecx, DWORD PTR [eax+16]
	call	ecx
	cmp	esi, esp
	call	__RTC_CheckEsp
	mov	DWORD PTR _x_result$[ebp], eax
	cmp	DWORD PTR _x_result$[ebp], 0
	jne	SHORT $LN6@TEST_PMC_G
	mov	DWORD PTR tv74[ebp], 1
	jmp	SHORT $LN7@TEST_PMC_G
$LN6@TEST_PMC_G:
	mov	DWORD PTR tv74[ebp], 0
$LN7@TEST_PMC_G:
	mov	edx, DWORD PTR _x_result$[ebp]
	push	edx
	push	OFFSET $SG94509
	call	_FormatTestMesssage
	add	esp, 8
	push	eax
	mov	eax, DWORD PTR tv74[ebp]
	push	eax
	push	1
	mov	ecx, DWORD PTR _no$[ebp]
	push	ecx
	push	OFFSET $SG94510
	call	_FormatTestLabel
	add	esp, 12					; 0000000cH
	push	eax
	mov	edx, DWORD PTR _env$[ebp]
	push	edx
	call	_TEST_Assert
	add	esp, 16					; 00000010H

; 93   :     TEST_Assert(env, FormatTestLabel("PMC_GreatestCommonDivisor_X_I (%d.%d)", no, 2), (z_result = ep->PMC_GreatestCommonDivisor_X_I(x, y, &z)) == desired_result_code, FormatTestMesssage("PMC_GreatestCommonDivisor_X_Iの復帰コードが期待通りではない(%d)", z_result));

	mov	esi, esp
	lea	eax, DWORD PTR _z$[ebp]
	push	eax
	mov	ecx, DWORD PTR _y$[ebp]
	push	ecx
	mov	edx, DWORD PTR _x$[ebp]
	push	edx
	mov	eax, DWORD PTR _ep$[ebp]
	mov	ecx, DWORD PTR [eax+248]
	call	ecx
	cmp	esi, esp
	call	__RTC_CheckEsp
	mov	DWORD PTR _z_result$[ebp], eax
	mov	edx, DWORD PTR _z_result$[ebp]
	cmp	edx, DWORD PTR _desired_result_code$[ebp]
	jne	SHORT $LN8@TEST_PMC_G
	mov	DWORD PTR tv92[ebp], 1
	jmp	SHORT $LN9@TEST_PMC_G
$LN8@TEST_PMC_G:
	mov	DWORD PTR tv92[ebp], 0
$LN9@TEST_PMC_G:
	mov	eax, DWORD PTR _z_result$[ebp]
	push	eax
	push	OFFSET $SG94511
	call	_FormatTestMesssage
	add	esp, 8
	push	eax
	mov	ecx, DWORD PTR tv92[ebp]
	push	ecx
	push	2
	mov	edx, DWORD PTR _no$[ebp]
	push	edx
	push	OFFSET $SG94512
	call	_FormatTestLabel
	add	esp, 12					; 0000000cH
	push	eax
	mov	eax, DWORD PTR _env$[ebp]
	push	eax
	call	_TEST_Assert
	add	esp, 16					; 00000010H

; 94   :     if (desired_result_code == PMC_STATUS_OK)

	cmp	DWORD PTR _desired_result_code$[ebp], 0
	jne	$LN2@TEST_PMC_G

; 95   :     {
; 96   :         TEST_Assert(env, FormatTestLabel("PMC_GreatestCommonDivisor_X_I (%d.%d)", no, 3), (result = ep->PMC_To_X_B(z, actual_z_buf, sizeof(actual_z_buf), &actual_z_buf_size)) == PMC_STATUS_OK, FormatTestMesssage("PMC_To_X_Bの復帰コードが期待通りではない(%d)", result));

	mov	esi, esp
	lea	ecx, DWORD PTR _actual_z_buf_size$[ebp]
	push	ecx
	push	256					; 00000100H
	lea	edx, DWORD PTR _actual_z_buf$[ebp]
	push	edx
	mov	eax, DWORD PTR _z$[ebp]
	push	eax
	mov	ecx, DWORD PTR _ep$[ebp]
	mov	edx, DWORD PTR [ecx+32]
	call	edx
	cmp	esi, esp
	call	__RTC_CheckEsp
	mov	DWORD PTR _result$[ebp], eax
	cmp	DWORD PTR _result$[ebp], 0
	jne	SHORT $LN10@TEST_PMC_G
	mov	DWORD PTR tv144[ebp], 1
	jmp	SHORT $LN11@TEST_PMC_G
$LN10@TEST_PMC_G:
	mov	DWORD PTR tv144[ebp], 0
$LN11@TEST_PMC_G:
	mov	eax, DWORD PTR _result$[ebp]
	push	eax
	push	OFFSET $SG94514
	call	_FormatTestMesssage
	add	esp, 8
	push	eax
	mov	ecx, DWORD PTR tv144[ebp]
	push	ecx
	push	3
	mov	edx, DWORD PTR _no$[ebp]
	push	edx
	push	OFFSET $SG94515
	call	_FormatTestLabel
	add	esp, 12					; 0000000cH
	push	eax
	mov	eax, DWORD PTR _env$[ebp]
	push	eax
	call	_TEST_Assert
	add	esp, 16					; 00000010H

; 97   :         TEST_Assert(env, FormatTestLabel("PMC_GreatestCommonDivisor_X_I (%d.%d)", no, 4), _EQUALS_MEMORY(actual_z_buf, actual_z_buf_size, desired_z_buf, desired_z_buf_size) == 0, "データの内容が一致しない");

	mov	ecx, DWORD PTR _desired_z_buf_size$[ebp]
	push	ecx
	mov	edx, DWORD PTR _desired_z_buf$[ebp]
	push	edx
	mov	eax, DWORD PTR _actual_z_buf_size$[ebp]
	push	eax
	lea	ecx, DWORD PTR _actual_z_buf$[ebp]
	push	ecx
	call	__EQUALS_MEMORY
	add	esp, 16					; 00000010H
	test	eax, eax
	jne	SHORT $LN12@TEST_PMC_G
	mov	DWORD PTR tv159[ebp], 1
	jmp	SHORT $LN13@TEST_PMC_G
$LN12@TEST_PMC_G:
	mov	DWORD PTR tv159[ebp], 0
$LN13@TEST_PMC_G:
	push	OFFSET $SG94516
	mov	edx, DWORD PTR tv159[ebp]
	push	edx
	push	4
	mov	eax, DWORD PTR _no$[ebp]
	push	eax
	push	OFFSET $SG94517
	call	_FormatTestLabel
	add	esp, 12					; 0000000cH
	push	eax
	mov	ecx, DWORD PTR _env$[ebp]
	push	ecx
	call	_TEST_Assert
	add	esp, 16					; 00000010H
$LN2@TEST_PMC_G:

; 98   :     }
; 99   :     if (z_result == PMC_STATUS_OK)

	cmp	DWORD PTR _z_result$[ebp], 0
	jne	SHORT $LN3@TEST_PMC_G

; 100  :         ep->PMC_Dispose(z);

	mov	esi, esp
	mov	edx, DWORD PTR _z$[ebp]
	push	edx
	mov	eax, DWORD PTR _ep$[ebp]
	mov	ecx, DWORD PTR [eax+20]
	call	ecx
	cmp	esi, esp
	call	__RTC_CheckEsp
$LN3@TEST_PMC_G:

; 101  :     if (x_result == PMC_STATUS_OK)

	cmp	DWORD PTR _x_result$[ebp], 0
	jne	SHORT $LN1@TEST_PMC_G

; 102  :         ep->PMC_Dispose(x);

	mov	esi, esp
	mov	edx, DWORD PTR _x$[ebp]
	push	edx
	mov	eax, DWORD PTR _ep$[ebp]
	mov	ecx, DWORD PTR [eax+20]
	call	ecx
	cmp	esi, esp
	call	__RTC_CheckEsp
$LN1@TEST_PMC_G:

; 103  : }

	push	edx
	mov	ecx, ebp
	push	eax
	lea	edx, DWORD PTR $LN19@TEST_PMC_G
	call	@_RTC_CheckStackVars@8
	pop	eax
	pop	edx
	pop	edi
	pop	esi
	mov	ecx, DWORD PTR __$ArrayPad$[ebp]
	xor	ecx, ebp
	call	@__security_check_cookie@4
	add	esp, 332				; 0000014cH
	cmp	ebp, esp
	call	__RTC_CheckEsp
	mov	esp, ebp
	pop	ebp
	ret	0
	npad	1
$LN19@TEST_PMC_G:
	DD	4
	DD	$LN18@TEST_PMC_G
$LN18@TEST_PMC_G:
	DD	-12					; fffffff4H
	DD	4
	DD	$LN14@TEST_PMC_G
	DD	-24					; ffffffe8H
	DD	4
	DD	$LN15@TEST_PMC_G
	DD	-288					; fffffee0H
	DD	256					; 00000100H
	DD	$LN16@TEST_PMC_G
	DD	-300					; fffffed4H
	DD	4
	DD	$LN17@TEST_PMC_G
$LN17@TEST_PMC_G:
	DB	97					; 00000061H
	DB	99					; 00000063H
	DB	116					; 00000074H
	DB	117					; 00000075H
	DB	97					; 00000061H
	DB	108					; 0000006cH
	DB	95					; 0000005fH
	DB	122					; 0000007aH
	DB	95					; 0000005fH
	DB	98					; 00000062H
	DB	117					; 00000075H
	DB	102					; 00000066H
	DB	95					; 0000005fH
	DB	115					; 00000073H
	DB	105					; 00000069H
	DB	122					; 0000007aH
	DB	101					; 00000065H
	DB	0
$LN16@TEST_PMC_G:
	DB	97					; 00000061H
	DB	99					; 00000063H
	DB	116					; 00000074H
	DB	117					; 00000075H
	DB	97					; 00000061H
	DB	108					; 0000006cH
	DB	95					; 0000005fH
	DB	122					; 0000007aH
	DB	95					; 0000005fH
	DB	98					; 00000062H
	DB	117					; 00000075H
	DB	102					; 00000066H
	DB	0
$LN15@TEST_PMC_G:
	DB	122					; 0000007aH
	DB	0
$LN14@TEST_PMC_G:
	DB	120					; 00000078H
	DB	0
_TEST_PMC_GreatestCommonDivisor_X_I ENDP
_TEXT	ENDS
; Function compile flags: /Odtp /RTCsu
; File z:\sources\lunor\repos\rougemeilland\palmtree.math.core.implements\palmtree.math.core.implements\test_op_greatestcommondivisor.c
_TEXT	SEGMENT
tv159 = -332						; size = 4
tv144 = -328						; size = 4
tv92 = -324						; size = 4
tv74 = -320						; size = 4
_w_result$ = -316					; size = 4
_v_result$ = -312					; size = 4
_result$ = -308						; size = 4
_actual_w_buf_size$ = -300				; size = 4
_actual_w_buf$ = -288					; size = 256
_w$ = -24						; size = 4
_v$ = -12						; size = 4
__$ArrayPad$ = -4					; size = 4
_env$ = 8						; size = 4
_ep$ = 12						; size = 4
_no$ = 16						; size = 4
_u$ = 20						; size = 8
_v_buf$ = 28						; size = 4
_v_buf_size$ = 32					; size = 4
_desired_result_code$ = 36				; size = 4
_desired_w_buf$ = 40					; size = 4
_desired_w_buf_size$ = 44				; size = 4
_TEST_PMC_GreatestCommonDivisor_L_X PROC

; 62   : {

	push	ebp
	mov	ebp, esp
	sub	esp, 332				; 0000014cH
	push	esi
	push	edi
	lea	edi, DWORD PTR [ebp-332]
	mov	ecx, 83					; 00000053H
	mov	eax, -858993460				; ccccccccH
	rep stosd
	mov	eax, DWORD PTR ___security_cookie
	xor	eax, ebp
	mov	DWORD PTR __$ArrayPad$[ebp], eax
	mov	ecx, OFFSET __F88242F5_test_op_greatestcommondivisor@c
	call	@__CheckForDebuggerJustMyCode@4

; 63   :     HANDLE v;
; 64   :     HANDLE w;
; 65   :     unsigned char actual_w_buf[256];
; 66   :     size_t actual_w_buf_size;
; 67   :     PMC_STATUS_CODE result;
; 68   :     PMC_STATUS_CODE v_result;
; 69   :     PMC_STATUS_CODE w_result;
; 70   :     TEST_Assert(env, FormatTestLabel("PMC_GreatestCommonDivisor_L_X (%d.%d)", no, 1), (v_result = ep->PMC_From_B(v_buf, v_buf_size, &v)) == PMC_STATUS_OK, FormatTestMesssage("PMC_From_Bの復帰コードが期待通りではない(%d)", v_result));

	mov	esi, esp
	lea	eax, DWORD PTR _v$[ebp]
	push	eax
	mov	ecx, DWORD PTR _v_buf_size$[ebp]
	push	ecx
	mov	edx, DWORD PTR _v_buf$[ebp]
	push	edx
	mov	eax, DWORD PTR _ep$[ebp]
	mov	ecx, DWORD PTR [eax+16]
	call	ecx
	cmp	esi, esp
	call	__RTC_CheckEsp
	mov	DWORD PTR _v_result$[ebp], eax
	cmp	DWORD PTR _v_result$[ebp], 0
	jne	SHORT $LN6@TEST_PMC_G
	mov	DWORD PTR tv74[ebp], 1
	jmp	SHORT $LN7@TEST_PMC_G
$LN6@TEST_PMC_G:
	mov	DWORD PTR tv74[ebp], 0
$LN7@TEST_PMC_G:
	mov	edx, DWORD PTR _v_result$[ebp]
	push	edx
	push	OFFSET $SG94472
	call	_FormatTestMesssage
	add	esp, 8
	push	eax
	mov	eax, DWORD PTR tv74[ebp]
	push	eax
	push	1
	mov	ecx, DWORD PTR _no$[ebp]
	push	ecx
	push	OFFSET $SG94473
	call	_FormatTestLabel
	add	esp, 12					; 0000000cH
	push	eax
	mov	edx, DWORD PTR _env$[ebp]
	push	edx
	call	_TEST_Assert
	add	esp, 16					; 00000010H

; 71   :     TEST_Assert(env, FormatTestLabel("PMC_GreatestCommonDivisor_L_X (%d.%d)", no, 2), (w_result = ep->PMC_GreatestCommonDivisor_L_X(u, v, &w)) == desired_result_code, FormatTestMesssage("PMC_GreatestCommonDivisor_L_Xの復帰コードが期待通りではない(%d)", w_result));

	mov	esi, esp
	lea	eax, DWORD PTR _w$[ebp]
	push	eax
	mov	ecx, DWORD PTR _v$[ebp]
	push	ecx
	mov	edx, DWORD PTR _u$[ebp+4]
	push	edx
	mov	eax, DWORD PTR _u$[ebp]
	push	eax
	mov	ecx, DWORD PTR _ep$[ebp]
	mov	edx, DWORD PTR [ecx+244]
	call	edx
	cmp	esi, esp
	call	__RTC_CheckEsp
	mov	DWORD PTR _w_result$[ebp], eax
	mov	eax, DWORD PTR _w_result$[ebp]
	cmp	eax, DWORD PTR _desired_result_code$[ebp]
	jne	SHORT $LN8@TEST_PMC_G
	mov	DWORD PTR tv92[ebp], 1
	jmp	SHORT $LN9@TEST_PMC_G
$LN8@TEST_PMC_G:
	mov	DWORD PTR tv92[ebp], 0
$LN9@TEST_PMC_G:
	mov	ecx, DWORD PTR _w_result$[ebp]
	push	ecx
	push	OFFSET $SG94474
	call	_FormatTestMesssage
	add	esp, 8
	push	eax
	mov	edx, DWORD PTR tv92[ebp]
	push	edx
	push	2
	mov	eax, DWORD PTR _no$[ebp]
	push	eax
	push	OFFSET $SG94475
	call	_FormatTestLabel
	add	esp, 12					; 0000000cH
	push	eax
	mov	ecx, DWORD PTR _env$[ebp]
	push	ecx
	call	_TEST_Assert
	add	esp, 16					; 00000010H

; 72   :     if (desired_result_code == PMC_STATUS_OK)

	cmp	DWORD PTR _desired_result_code$[ebp], 0
	jne	$LN2@TEST_PMC_G

; 73   :     {
; 74   :         TEST_Assert(env, FormatTestLabel("PMC_GreatestCommonDivisor_L_X (%d.%d)", no, 3), (result = ep->PMC_To_X_B(w, actual_w_buf, sizeof(actual_w_buf), &actual_w_buf_size)) == PMC_STATUS_OK, FormatTestMesssage("PMC_To_X_Bの復帰コードが期待通りではない(%d)", result));

	mov	esi, esp
	lea	edx, DWORD PTR _actual_w_buf_size$[ebp]
	push	edx
	push	256					; 00000100H
	lea	eax, DWORD PTR _actual_w_buf$[ebp]
	push	eax
	mov	ecx, DWORD PTR _w$[ebp]
	push	ecx
	mov	edx, DWORD PTR _ep$[ebp]
	mov	eax, DWORD PTR [edx+32]
	call	eax
	cmp	esi, esp
	call	__RTC_CheckEsp
	mov	DWORD PTR _result$[ebp], eax
	cmp	DWORD PTR _result$[ebp], 0
	jne	SHORT $LN10@TEST_PMC_G
	mov	DWORD PTR tv144[ebp], 1
	jmp	SHORT $LN11@TEST_PMC_G
$LN10@TEST_PMC_G:
	mov	DWORD PTR tv144[ebp], 0
$LN11@TEST_PMC_G:
	mov	ecx, DWORD PTR _result$[ebp]
	push	ecx
	push	OFFSET $SG94477
	call	_FormatTestMesssage
	add	esp, 8
	push	eax
	mov	edx, DWORD PTR tv144[ebp]
	push	edx
	push	3
	mov	eax, DWORD PTR _no$[ebp]
	push	eax
	push	OFFSET $SG94478
	call	_FormatTestLabel
	add	esp, 12					; 0000000cH
	push	eax
	mov	ecx, DWORD PTR _env$[ebp]
	push	ecx
	call	_TEST_Assert
	add	esp, 16					; 00000010H

; 75   :         TEST_Assert(env, FormatTestLabel("PMC_GreatestCommonDivisor_L_X (%d.%d)", no, 4), _EQUALS_MEMORY(actual_w_buf, actual_w_buf_size, desired_w_buf, desired_w_buf_size) == 0, "データの内容が一致しない");

	mov	edx, DWORD PTR _desired_w_buf_size$[ebp]
	push	edx
	mov	eax, DWORD PTR _desired_w_buf$[ebp]
	push	eax
	mov	ecx, DWORD PTR _actual_w_buf_size$[ebp]
	push	ecx
	lea	edx, DWORD PTR _actual_w_buf$[ebp]
	push	edx
	call	__EQUALS_MEMORY
	add	esp, 16					; 00000010H
	test	eax, eax
	jne	SHORT $LN12@TEST_PMC_G
	mov	DWORD PTR tv159[ebp], 1
	jmp	SHORT $LN13@TEST_PMC_G
$LN12@TEST_PMC_G:
	mov	DWORD PTR tv159[ebp], 0
$LN13@TEST_PMC_G:
	push	OFFSET $SG94479
	mov	eax, DWORD PTR tv159[ebp]
	push	eax
	push	4
	mov	ecx, DWORD PTR _no$[ebp]
	push	ecx
	push	OFFSET $SG94480
	call	_FormatTestLabel
	add	esp, 12					; 0000000cH
	push	eax
	mov	edx, DWORD PTR _env$[ebp]
	push	edx
	call	_TEST_Assert
	add	esp, 16					; 00000010H
$LN2@TEST_PMC_G:

; 76   :     }
; 77   :     if (w_result == PMC_STATUS_OK)

	cmp	DWORD PTR _w_result$[ebp], 0
	jne	SHORT $LN3@TEST_PMC_G

; 78   :         ep->PMC_Dispose(w);

	mov	esi, esp
	mov	eax, DWORD PTR _w$[ebp]
	push	eax
	mov	ecx, DWORD PTR _ep$[ebp]
	mov	edx, DWORD PTR [ecx+20]
	call	edx
	cmp	esi, esp
	call	__RTC_CheckEsp
$LN3@TEST_PMC_G:

; 79   :     if (v_result == PMC_STATUS_OK)

	cmp	DWORD PTR _v_result$[ebp], 0
	jne	SHORT $LN1@TEST_PMC_G

; 80   :         ep->PMC_Dispose(v);

	mov	esi, esp
	mov	eax, DWORD PTR _v$[ebp]
	push	eax
	mov	ecx, DWORD PTR _ep$[ebp]
	mov	edx, DWORD PTR [ecx+20]
	call	edx
	cmp	esi, esp
	call	__RTC_CheckEsp
$LN1@TEST_PMC_G:

; 81   : }

	push	edx
	mov	ecx, ebp
	push	eax
	lea	edx, DWORD PTR $LN19@TEST_PMC_G
	call	@_RTC_CheckStackVars@8
	pop	eax
	pop	edx
	pop	edi
	pop	esi
	mov	ecx, DWORD PTR __$ArrayPad$[ebp]
	xor	ecx, ebp
	call	@__security_check_cookie@4
	add	esp, 332				; 0000014cH
	cmp	ebp, esp
	call	__RTC_CheckEsp
	mov	esp, ebp
	pop	ebp
	ret	0
	npad	1
$LN19@TEST_PMC_G:
	DD	4
	DD	$LN18@TEST_PMC_G
$LN18@TEST_PMC_G:
	DD	-12					; fffffff4H
	DD	4
	DD	$LN14@TEST_PMC_G
	DD	-24					; ffffffe8H
	DD	4
	DD	$LN15@TEST_PMC_G
	DD	-288					; fffffee0H
	DD	256					; 00000100H
	DD	$LN16@TEST_PMC_G
	DD	-300					; fffffed4H
	DD	4
	DD	$LN17@TEST_PMC_G
$LN17@TEST_PMC_G:
	DB	97					; 00000061H
	DB	99					; 00000063H
	DB	116					; 00000074H
	DB	117					; 00000075H
	DB	97					; 00000061H
	DB	108					; 0000006cH
	DB	95					; 0000005fH
	DB	119					; 00000077H
	DB	95					; 0000005fH
	DB	98					; 00000062H
	DB	117					; 00000075H
	DB	102					; 00000066H
	DB	95					; 0000005fH
	DB	115					; 00000073H
	DB	105					; 00000069H
	DB	122					; 0000007aH
	DB	101					; 00000065H
	DB	0
$LN16@TEST_PMC_G:
	DB	97					; 00000061H
	DB	99					; 00000063H
	DB	116					; 00000074H
	DB	117					; 00000075H
	DB	97					; 00000061H
	DB	108					; 0000006cH
	DB	95					; 0000005fH
	DB	119					; 00000077H
	DB	95					; 0000005fH
	DB	98					; 00000062H
	DB	117					; 00000075H
	DB	102					; 00000066H
	DB	0
$LN15@TEST_PMC_G:
	DB	119					; 00000077H
	DB	0
$LN14@TEST_PMC_G:
	DB	118					; 00000076H
	DB	0
_TEST_PMC_GreatestCommonDivisor_L_X ENDP
_TEXT	ENDS
; Function compile flags: /Odtp /RTCsu
; File z:\sources\lunor\repos\rougemeilland\palmtree.math.core.implements\palmtree.math.core.implements\test_op_greatestcommondivisor.c
_TEXT	SEGMENT
tv159 = -332						; size = 4
tv144 = -328						; size = 4
tv92 = -324						; size = 4
tv74 = -320						; size = 4
_w_result$ = -316					; size = 4
_v_result$ = -312					; size = 4
_result$ = -308						; size = 4
_actual_w_buf_size$ = -300				; size = 4
_actual_w_buf$ = -288					; size = 256
_w$ = -24						; size = 4
_v$ = -12						; size = 4
__$ArrayPad$ = -4					; size = 4
_env$ = 8						; size = 4
_ep$ = 12						; size = 4
_no$ = 16						; size = 4
_u$ = 20						; size = 4
_v_buf$ = 24						; size = 4
_v_buf_size$ = 28					; size = 4
_desired_result_code$ = 32				; size = 4
_desired_w_buf$ = 36					; size = 4
_desired_w_buf_size$ = 40				; size = 4
_TEST_PMC_GreatestCommonDivisor_I_X PROC

; 40   : {

	push	ebp
	mov	ebp, esp
	sub	esp, 332				; 0000014cH
	push	esi
	push	edi
	lea	edi, DWORD PTR [ebp-332]
	mov	ecx, 83					; 00000053H
	mov	eax, -858993460				; ccccccccH
	rep stosd
	mov	eax, DWORD PTR ___security_cookie
	xor	eax, ebp
	mov	DWORD PTR __$ArrayPad$[ebp], eax
	mov	ecx, OFFSET __F88242F5_test_op_greatestcommondivisor@c
	call	@__CheckForDebuggerJustMyCode@4

; 41   :     HANDLE v;
; 42   :     HANDLE w;
; 43   :     unsigned char actual_w_buf[256];
; 44   :     size_t actual_w_buf_size;
; 45   :     PMC_STATUS_CODE result;
; 46   :     PMC_STATUS_CODE v_result;
; 47   :     PMC_STATUS_CODE w_result;
; 48   :     TEST_Assert(env, FormatTestLabel("PMC_GreatestCommonDivisor_I_X (%d.%d)", no, 1), (v_result = ep->PMC_From_B(v_buf, v_buf_size, &v)) == PMC_STATUS_OK, FormatTestMesssage("PMC_From_Bの復帰コードが期待通りではない(%d)", v_result));

	mov	esi, esp
	lea	eax, DWORD PTR _v$[ebp]
	push	eax
	mov	ecx, DWORD PTR _v_buf_size$[ebp]
	push	ecx
	mov	edx, DWORD PTR _v_buf$[ebp]
	push	edx
	mov	eax, DWORD PTR _ep$[ebp]
	mov	ecx, DWORD PTR [eax+16]
	call	ecx
	cmp	esi, esp
	call	__RTC_CheckEsp
	mov	DWORD PTR _v_result$[ebp], eax
	cmp	DWORD PTR _v_result$[ebp], 0
	jne	SHORT $LN6@TEST_PMC_G
	mov	DWORD PTR tv74[ebp], 1
	jmp	SHORT $LN7@TEST_PMC_G
$LN6@TEST_PMC_G:
	mov	DWORD PTR tv74[ebp], 0
$LN7@TEST_PMC_G:
	mov	edx, DWORD PTR _v_result$[ebp]
	push	edx
	push	OFFSET $SG94435
	call	_FormatTestMesssage
	add	esp, 8
	push	eax
	mov	eax, DWORD PTR tv74[ebp]
	push	eax
	push	1
	mov	ecx, DWORD PTR _no$[ebp]
	push	ecx
	push	OFFSET $SG94436
	call	_FormatTestLabel
	add	esp, 12					; 0000000cH
	push	eax
	mov	edx, DWORD PTR _env$[ebp]
	push	edx
	call	_TEST_Assert
	add	esp, 16					; 00000010H

; 49   :     TEST_Assert(env, FormatTestLabel("PMC_GreatestCommonDivisor_I_X (%d.%d)", no, 2), (w_result = ep->PMC_GreatestCommonDivisor_I_X(u, v, &w)) == desired_result_code, FormatTestMesssage("PMC_GreatestCommonDivisor_I_Xの復帰コードが期待通りではない(%d)", w_result));

	mov	esi, esp
	lea	eax, DWORD PTR _w$[ebp]
	push	eax
	mov	ecx, DWORD PTR _v$[ebp]
	push	ecx
	mov	edx, DWORD PTR _u$[ebp]
	push	edx
	mov	eax, DWORD PTR _ep$[ebp]
	mov	ecx, DWORD PTR [eax+240]
	call	ecx
	cmp	esi, esp
	call	__RTC_CheckEsp
	mov	DWORD PTR _w_result$[ebp], eax
	mov	edx, DWORD PTR _w_result$[ebp]
	cmp	edx, DWORD PTR _desired_result_code$[ebp]
	jne	SHORT $LN8@TEST_PMC_G
	mov	DWORD PTR tv92[ebp], 1
	jmp	SHORT $LN9@TEST_PMC_G
$LN8@TEST_PMC_G:
	mov	DWORD PTR tv92[ebp], 0
$LN9@TEST_PMC_G:
	mov	eax, DWORD PTR _w_result$[ebp]
	push	eax
	push	OFFSET $SG94437
	call	_FormatTestMesssage
	add	esp, 8
	push	eax
	mov	ecx, DWORD PTR tv92[ebp]
	push	ecx
	push	2
	mov	edx, DWORD PTR _no$[ebp]
	push	edx
	push	OFFSET $SG94438
	call	_FormatTestLabel
	add	esp, 12					; 0000000cH
	push	eax
	mov	eax, DWORD PTR _env$[ebp]
	push	eax
	call	_TEST_Assert
	add	esp, 16					; 00000010H

; 50   :     if (desired_result_code == PMC_STATUS_OK)

	cmp	DWORD PTR _desired_result_code$[ebp], 0
	jne	$LN2@TEST_PMC_G

; 51   :     {
; 52   :         TEST_Assert(env, FormatTestLabel("PMC_GreatestCommonDivisor_I_X (%d.%d)", no, 3), (result = ep->PMC_To_X_B(w, actual_w_buf, sizeof(actual_w_buf), &actual_w_buf_size)) == PMC_STATUS_OK, FormatTestMesssage("PMC_To_X_Bの復帰コードが期待通りではない(%d)", result));

	mov	esi, esp
	lea	ecx, DWORD PTR _actual_w_buf_size$[ebp]
	push	ecx
	push	256					; 00000100H
	lea	edx, DWORD PTR _actual_w_buf$[ebp]
	push	edx
	mov	eax, DWORD PTR _w$[ebp]
	push	eax
	mov	ecx, DWORD PTR _ep$[ebp]
	mov	edx, DWORD PTR [ecx+32]
	call	edx
	cmp	esi, esp
	call	__RTC_CheckEsp
	mov	DWORD PTR _result$[ebp], eax
	cmp	DWORD PTR _result$[ebp], 0
	jne	SHORT $LN10@TEST_PMC_G
	mov	DWORD PTR tv144[ebp], 1
	jmp	SHORT $LN11@TEST_PMC_G
$LN10@TEST_PMC_G:
	mov	DWORD PTR tv144[ebp], 0
$LN11@TEST_PMC_G:
	mov	eax, DWORD PTR _result$[ebp]
	push	eax
	push	OFFSET $SG94440
	call	_FormatTestMesssage
	add	esp, 8
	push	eax
	mov	ecx, DWORD PTR tv144[ebp]
	push	ecx
	push	3
	mov	edx, DWORD PTR _no$[ebp]
	push	edx
	push	OFFSET $SG94441
	call	_FormatTestLabel
	add	esp, 12					; 0000000cH
	push	eax
	mov	eax, DWORD PTR _env$[ebp]
	push	eax
	call	_TEST_Assert
	add	esp, 16					; 00000010H

; 53   :         TEST_Assert(env, FormatTestLabel("PMC_GreatestCommonDivisor_I_X (%d.%d)", no, 4), _EQUALS_MEMORY(actual_w_buf, actual_w_buf_size, desired_w_buf, desired_w_buf_size) == 0, "データの内容が一致しない");

	mov	ecx, DWORD PTR _desired_w_buf_size$[ebp]
	push	ecx
	mov	edx, DWORD PTR _desired_w_buf$[ebp]
	push	edx
	mov	eax, DWORD PTR _actual_w_buf_size$[ebp]
	push	eax
	lea	ecx, DWORD PTR _actual_w_buf$[ebp]
	push	ecx
	call	__EQUALS_MEMORY
	add	esp, 16					; 00000010H
	test	eax, eax
	jne	SHORT $LN12@TEST_PMC_G
	mov	DWORD PTR tv159[ebp], 1
	jmp	SHORT $LN13@TEST_PMC_G
$LN12@TEST_PMC_G:
	mov	DWORD PTR tv159[ebp], 0
$LN13@TEST_PMC_G:
	push	OFFSET $SG94442
	mov	edx, DWORD PTR tv159[ebp]
	push	edx
	push	4
	mov	eax, DWORD PTR _no$[ebp]
	push	eax
	push	OFFSET $SG94443
	call	_FormatTestLabel
	add	esp, 12					; 0000000cH
	push	eax
	mov	ecx, DWORD PTR _env$[ebp]
	push	ecx
	call	_TEST_Assert
	add	esp, 16					; 00000010H
$LN2@TEST_PMC_G:

; 54   :     }
; 55   :     if (w_result == PMC_STATUS_OK)

	cmp	DWORD PTR _w_result$[ebp], 0
	jne	SHORT $LN3@TEST_PMC_G

; 56   :         ep->PMC_Dispose(w);

	mov	esi, esp
	mov	edx, DWORD PTR _w$[ebp]
	push	edx
	mov	eax, DWORD PTR _ep$[ebp]
	mov	ecx, DWORD PTR [eax+20]
	call	ecx
	cmp	esi, esp
	call	__RTC_CheckEsp
$LN3@TEST_PMC_G:

; 57   :     if (v_result == PMC_STATUS_OK)

	cmp	DWORD PTR _v_result$[ebp], 0
	jne	SHORT $LN1@TEST_PMC_G

; 58   :         ep->PMC_Dispose(v);

	mov	esi, esp
	mov	edx, DWORD PTR _v$[ebp]
	push	edx
	mov	eax, DWORD PTR _ep$[ebp]
	mov	ecx, DWORD PTR [eax+20]
	call	ecx
	cmp	esi, esp
	call	__RTC_CheckEsp
$LN1@TEST_PMC_G:

; 59   : }

	push	edx
	mov	ecx, ebp
	push	eax
	lea	edx, DWORD PTR $LN19@TEST_PMC_G
	call	@_RTC_CheckStackVars@8
	pop	eax
	pop	edx
	pop	edi
	pop	esi
	mov	ecx, DWORD PTR __$ArrayPad$[ebp]
	xor	ecx, ebp
	call	@__security_check_cookie@4
	add	esp, 332				; 0000014cH
	cmp	ebp, esp
	call	__RTC_CheckEsp
	mov	esp, ebp
	pop	ebp
	ret	0
	npad	1
$LN19@TEST_PMC_G:
	DD	4
	DD	$LN18@TEST_PMC_G
$LN18@TEST_PMC_G:
	DD	-12					; fffffff4H
	DD	4
	DD	$LN14@TEST_PMC_G
	DD	-24					; ffffffe8H
	DD	4
	DD	$LN15@TEST_PMC_G
	DD	-288					; fffffee0H
	DD	256					; 00000100H
	DD	$LN16@TEST_PMC_G
	DD	-300					; fffffed4H
	DD	4
	DD	$LN17@TEST_PMC_G
$LN17@TEST_PMC_G:
	DB	97					; 00000061H
	DB	99					; 00000063H
	DB	116					; 00000074H
	DB	117					; 00000075H
	DB	97					; 00000061H
	DB	108					; 0000006cH
	DB	95					; 0000005fH
	DB	119					; 00000077H
	DB	95					; 0000005fH
	DB	98					; 00000062H
	DB	117					; 00000075H
	DB	102					; 00000066H
	DB	95					; 0000005fH
	DB	115					; 00000073H
	DB	105					; 00000069H
	DB	122					; 0000007aH
	DB	101					; 00000065H
	DB	0
$LN16@TEST_PMC_G:
	DB	97					; 00000061H
	DB	99					; 00000063H
	DB	116					; 00000074H
	DB	117					; 00000075H
	DB	97					; 00000061H
	DB	108					; 0000006cH
	DB	95					; 0000005fH
	DB	119					; 00000077H
	DB	95					; 0000005fH
	DB	98					; 00000062H
	DB	117					; 00000075H
	DB	102					; 00000066H
	DB	0
$LN15@TEST_PMC_G:
	DB	119					; 00000077H
	DB	0
$LN14@TEST_PMC_G:
	DB	118					; 00000076H
	DB	0
_TEST_PMC_GreatestCommonDivisor_I_X ENDP
_TEXT	ENDS
END
