; Listing generated by Microsoft (R) Optimizing Compiler Version 19.16.27026.1 

	TITLE	Z:\Sources\Lunor\Repos\rougemeilland\Palmtree.Math.Core.Implements\Palmtree.Math.Core.Implements\TEST_op_ParseDN.c
	.686P
	.XMM
	include listing.inc
	.model	flat

INCLUDELIB MSVCRTD
INCLUDELIB OLDNAMES

msvcjmc	SEGMENT
__7B7A869E_ctype@h DB 01H
__457DD326_basetsd@h DB 01H
__4384A2D9_corecrt_memcpy_s@h DB 01H
__4E51A221_corecrt_wstring@h DB 01H
__2140C079_string@h DB 01H
__1887E595_winnt@h DB 01H
__9FC7C64B_processthreadsapi@h DB 01H
__FA470AEC_memoryapi@h DB 01H
__F37DAFF1_winerror@h DB 01H
__7A450CCC_winbase@h DB 01H
__B4B40122_winioctl@h DB 01H
__86261D59_stralign@h DB 01H
__1C66ECB2_pmc_debug@h DB 01H
__DD775EF4_test_op_parsedn@c DB 01H
msvcjmc	ENDS
PUBLIC	_TEST_PMC_ParseDN1
PUBLIC	_TEST_PMC_ParseDN2
PUBLIC	__JustMyCode_Default
EXTRN	__imp__lstrcpyA@8:PROC
EXTRN	__imp__lstrcpyW@8:PROC
EXTRN	_TEST_Assert:PROC
EXTRN	_FormatTestLabel:PROC
EXTRN	_FormatTestMesssage:PROC
EXTRN	@_RTC_CheckStackVars@8:PROC
EXTRN	@__CheckForDebuggerJustMyCode@4:PROC
EXTRN	@__security_check_cookie@4:PROC
EXTRN	__RTC_CheckEsp:PROC
EXTRN	__RTC_InitBase:PROC
EXTRN	__RTC_Shutdown:PROC
EXTRN	___security_cookie:DWORD
_BSS	SEGMENT
?actual_buf@?1??TEST_PMC_ParseDN1@@9@9 DB 0100H DUP (?)	; `TEST_PMC_ParseDN1'::`2'::actual_buf
?actual_buf_size@?1??TEST_PMC_ParseDN1@@9@9 DD 01H DUP (?) ; `TEST_PMC_ParseDN1'::`2'::actual_buf_size
?actual_buf@?1??TEST_PMC_ParseDN2@@9@9 DB 0100H DUP (?)	; `TEST_PMC_ParseDN2'::`2'::actual_buf
?actual_buf_size@?1??TEST_PMC_ParseDN2@@9@9 DD 01H DUP (?) ; `TEST_PMC_ParseDN2'::`2'::actual_buf_size
_BSS	ENDS
;	COMDAT rtc$TMZ
rtc$TMZ	SEGMENT
__RTC_Shutdown.rtc$TMZ DD FLAT:__RTC_Shutdown
rtc$TMZ	ENDS
;	COMDAT rtc$IMZ
rtc$IMZ	SEGMENT
__RTC_InitBase.rtc$IMZ DD FLAT:__RTC_InitBase
rtc$IMZ	ENDS
_DATA	SEGMENT
$SG94416 DB	'3', 00H
	ORG $+2
$SG94417 DB	'PMC_TryParse', 082H, 0ccH, 095H, 09cH, 08bH, 'A', 083H, 'R'
	DB	081H, '[', 083H, 'h', 082H, 0aaH, 08aH, 0faH, 091H, 0d2H, 092H
	DB	0caH, 082H, 0e8H, 082H, 0c5H, 082H, 0cdH, 082H, 0c8H, 082H, 0a2H
	DB	'(%d)', 00H
	ORG $+1
$SG94418 DB	'PMC_ParseDN1 (%d.%d)', 00H
	ORG $+3
$SG94420 DB	'PMC_To_X_B', 082H, 0ccH, 095H, 09cH, 08bH, 'A', 083H, 'R'
	DB	081H, '[', 083H, 'h', 082H, 0aaH, 08aH, 0faH, 091H, 0d2H, 092H
	DB	0caH, 082H, 0e8H, 082H, 0c5H, 082H, 0cdH, 082H, 0c8H, 082H, 0a2H
	DB	'(%d)', 00H
	ORG $+3
$SG94421 DB	'PMC_ParseDN1 (%d.%d)', 00H
	ORG $+3
$SG94422 DB	083H, 'f', 081H, '[', 083H, '^', 082H, 0ccH, 093H, 0e0H, 097H
	DB	'e', 082H, 0aaH, 088H, 0eaH, 092H, 'v', 082H, 0b5H, 082H, 0c8H
	DB	082H, 0a2H, 00H
	ORG $+3
$SG94423 DB	'PMC_ParseDN1 (%d.%d)', 00H
	ORG $+3
$SG94450 DB	',', 00H, 00H, 00H
$SG94451 DB	'3', 00H
	ORG $+2
$SG94452 DB	'.', 00H, 00H, 00H
$SG94453 DB	'+', 00H, 00H, 00H
$SG94454 DB	'-', 00H, 00H, 00H
$SG94455 DB	'PMC_TryParse', 082H, 0ccH, 095H, 09cH, 08bH, 'A', 083H, 'R'
	DB	081H, '[', 083H, 'h', 082H, 0aaH, 08aH, 0faH, 091H, 0d2H, 092H
	DB	0caH, 082H, 0e8H, 082H, 0c5H, 082H, 0cdH, 082H, 0c8H, 082H, 0a2H
	DB	'(%d)', 00H
	ORG $+1
$SG94456 DB	'PMC_ParseDN2 (%d.%d)', 00H
	ORG $+3
$SG94458 DB	'PMC_To_X_B', 082H, 0ccH, 095H, 09cH, 08bH, 'A', 083H, 'R'
	DB	081H, '[', 083H, 'h', 082H, 0aaH, 08aH, 0faH, 091H, 0d2H, 092H
	DB	0caH, 082H, 0e8H, 082H, 0c5H, 082H, 0cdH, 082H, 0c8H, 082H, 0a2H
	DB	'(%d)', 00H
	ORG $+3
$SG94459 DB	'PMC_ParseDN2 (%d.%d)', 00H
	ORG $+3
$SG94460 DB	083H, 'f', 081H, '[', 083H, '^', 082H, 0ccH, 093H, 0e0H, 097H
	DB	'e', 082H, 0aaH, 088H, 0eaH, 092H, 'v', 082H, 0b5H, 082H, 0c8H
	DB	082H, 0a2H, 00H
	ORG $+3
$SG94461 DB	'PMC_ParseDN2 (%d.%d)', 00H
_DATA	ENDS
; Function compile flags: /Odt
;	COMDAT __JustMyCode_Default
_TEXT	SEGMENT
__JustMyCode_Default PROC				; COMDAT
	push	ebp
	mov	ebp, esp
	pop	ebp
	ret	0
__JustMyCode_Default ENDP
_TEXT	ENDS
; Function compile flags: /Odtp /RTCsu
; File z:\sources\lunor\repos\rougemeilland\palmtree.math.core.implements\palmtree.math.core.implements\pmc_debug.h
_TEXT	SEGMENT
_buffer1$ = 8						; size = 4
_count1$ = 12						; size = 4
_buffer2$ = 16						; size = 4
_count2$ = 20						; size = 4
__EQUALS_MEMORY PROC

; 145  : {

	push	ebp
	mov	ebp, esp
	mov	ecx, OFFSET __1C66ECB2_pmc_debug@h
	call	@__CheckForDebuggerJustMyCode@4

; 146  :     if (count1 != count2)

	mov	eax, DWORD PTR _count1$[ebp]
	cmp	eax, DWORD PTR _count2$[ebp]
	je	SHORT $LN2@EQUALS_MEM

; 147  :         return (-1);

	or	eax, -1
	jmp	SHORT $LN1@EQUALS_MEM
$LN2@EQUALS_MEM:

; 148  :     while (count1 > 0)

	cmp	DWORD PTR _count1$[ebp], 0
	jbe	SHORT $LN3@EQUALS_MEM

; 149  :     {
; 150  :         if (*buffer1 != *buffer2)

	mov	ecx, DWORD PTR _buffer1$[ebp]
	movzx	edx, BYTE PTR [ecx]
	mov	eax, DWORD PTR _buffer2$[ebp]
	movzx	ecx, BYTE PTR [eax]
	cmp	edx, ecx
	je	SHORT $LN5@EQUALS_MEM

; 151  :             return (-1);

	or	eax, -1
	jmp	SHORT $LN1@EQUALS_MEM
$LN5@EQUALS_MEM:

; 152  :         ++buffer1;

	mov	edx, DWORD PTR _buffer1$[ebp]
	add	edx, 1
	mov	DWORD PTR _buffer1$[ebp], edx

; 153  :         ++buffer2;

	mov	eax, DWORD PTR _buffer2$[ebp]
	add	eax, 1
	mov	DWORD PTR _buffer2$[ebp], eax

; 154  :         --count1;

	mov	ecx, DWORD PTR _count1$[ebp]
	sub	ecx, 1
	mov	DWORD PTR _count1$[ebp], ecx

; 155  :     }

	jmp	SHORT $LN2@EQUALS_MEM
$LN3@EQUALS_MEM:

; 156  :     return (0);

	xor	eax, eax
$LN1@EQUALS_MEM:

; 157  : }

	cmp	ebp, esp
	call	__RTC_CheckEsp
	pop	ebp
	ret	0
__EQUALS_MEMORY ENDP
_TEXT	ENDS
; Function compile flags: /Odtp /RTCsu
; File z:\sources\lunor\repos\rougemeilland\palmtree.math.core.implements\palmtree.math.core.implements\test_op_parsedn.c
_TEXT	SEGMENT
tv152 = -84						; size = 4
tv137 = -80						; size = 4
tv85 = -76						; size = 4
_opt$ = -68						; size = 40
_x_result$ = -24					; size = 4
_result$ = -20						; size = 4
_x$ = -12						; size = 4
__$ArrayPad$ = -4					; size = 4
_env$ = 8						; size = 4
_ep$ = 12						; size = 4
_no$ = 16						; size = 4
_str$ = 20						; size = 4
_styles$ = 24						; size = 4
_desired_result_code$ = 28				; size = 4
_desired_buf$ = 32					; size = 4
_desired_buf_size$ = 36					; size = 4
_TEST_PMC_ParseDN2 PROC

; 64   : {

	push	ebp
	mov	ebp, esp
	sub	esp, 84					; 00000054H
	push	esi
	push	edi
	lea	edi, DWORD PTR [ebp-84]
	mov	ecx, 21					; 00000015H
	mov	eax, -858993460				; ccccccccH
	rep stosd
	mov	eax, DWORD PTR ___security_cookie
	xor	eax, ebp
	mov	DWORD PTR __$ArrayPad$[ebp], eax
	mov	ecx, OFFSET __DD775EF4_test_op_parsedn@c
	call	@__CheckForDebuggerJustMyCode@4

; 65   :     HANDLE x;
; 66   :     static unsigned char actual_buf[256];
; 67   :     static size_t actual_buf_size;
; 68   :     PMC_STATUS_CODE result;
; 69   :     PMC_STATUS_CODE x_result;
; 70   :     PMC_NUMBER_FORMAT_OPTION opt;
; 71   :     lstrcpyW(opt.GroupSeparator, L",");

	mov	esi, esp
	push	OFFSET $SG94450
	lea	eax, DWORD PTR _opt$[ebp+4]
	push	eax
	call	DWORD PTR __imp__lstrcpyW@8
	cmp	esi, esp
	call	__RTC_CheckEsp

; 72   :     lstrcpy(opt.GroupSizes, "3");

	mov	esi, esp
	push	OFFSET $SG94451
	lea	ecx, DWORD PTR _opt$[ebp+28]
	push	ecx
	call	DWORD PTR __imp__lstrcpyA@8
	cmp	esi, esp
	call	__RTC_CheckEsp

; 73   :     lstrcpyW(opt.DecimalSeparator, L".");

	mov	esi, esp
	push	OFFSET $SG94452
	lea	edx, DWORD PTR _opt$[ebp+10]
	push	edx
	call	DWORD PTR __imp__lstrcpyW@8
	cmp	esi, esp
	call	__RTC_CheckEsp

; 74   :     opt.DecimalDigits = 2;

	mov	DWORD PTR _opt$[ebp], 2

; 75   :     lstrcpyW(opt.PositiveSign, L"+");

	mov	esi, esp
	push	OFFSET $SG94453
	lea	eax, DWORD PTR _opt$[ebp+16]
	push	eax
	call	DWORD PTR __imp__lstrcpyW@8
	cmp	esi, esp
	call	__RTC_CheckEsp

; 76   :     lstrcpyW(opt.NegativeSign, L"-");

	mov	esi, esp
	push	OFFSET $SG94454
	lea	ecx, DWORD PTR _opt$[ebp+22]
	push	ecx
	call	DWORD PTR __imp__lstrcpyW@8
	cmp	esi, esp
	call	__RTC_CheckEsp

; 77   :     TEST_Assert(env, FormatTestLabel("PMC_ParseDN2 (%d.%d)", no, 1), (x_result = ep->PMC_TryParse(str, styles, &opt, &x)) == desired_result_code, FormatTestMesssage("PMC_TryParseの復帰コードが期待通りではない(%d)", x_result));

	mov	esi, esp
	lea	edx, DWORD PTR _x$[ebp]
	push	edx
	lea	eax, DWORD PTR _opt$[ebp]
	push	eax
	mov	ecx, DWORD PTR _styles$[ebp]
	push	ecx
	mov	edx, DWORD PTR _str$[ebp]
	push	edx
	mov	eax, DWORD PTR _ep$[ebp]
	mov	ecx, DWORD PTR [eax+40]
	call	ecx
	cmp	esi, esp
	call	__RTC_CheckEsp
	mov	DWORD PTR _x_result$[ebp], eax
	mov	edx, DWORD PTR _x_result$[ebp]
	cmp	edx, DWORD PTR _desired_result_code$[ebp]
	jne	SHORT $LN5@TEST_PMC_P
	mov	DWORD PTR tv85[ebp], 1
	jmp	SHORT $LN6@TEST_PMC_P
$LN5@TEST_PMC_P:
	mov	DWORD PTR tv85[ebp], 0
$LN6@TEST_PMC_P:
	mov	eax, DWORD PTR _x_result$[ebp]
	push	eax
	push	OFFSET $SG94455
	call	_FormatTestMesssage
	add	esp, 8
	push	eax
	mov	ecx, DWORD PTR tv85[ebp]
	push	ecx
	push	1
	mov	edx, DWORD PTR _no$[ebp]
	push	edx
	push	OFFSET $SG94456
	call	_FormatTestLabel
	add	esp, 12					; 0000000cH
	push	eax
	mov	eax, DWORD PTR _env$[ebp]
	push	eax
	call	_TEST_Assert
	add	esp, 16					; 00000010H

; 78   :     if (desired_result_code == PMC_STATUS_OK)

	cmp	DWORD PTR _desired_result_code$[ebp], 0
	jne	$LN2@TEST_PMC_P

; 79   :     {
; 80   :         TEST_Assert(env, FormatTestLabel("PMC_ParseDN2 (%d.%d)", no, 2), (result = ep->PMC_To_X_B(x, actual_buf, sizeof(actual_buf), &actual_buf_size)) == PMC_STATUS_OK, FormatTestMesssage("PMC_To_X_Bの復帰コードが期待通りではない(%d)", result));

	mov	esi, esp
	push	OFFSET ?actual_buf_size@?1??TEST_PMC_ParseDN2@@9@9
	push	256					; 00000100H
	push	OFFSET ?actual_buf@?1??TEST_PMC_ParseDN2@@9@9
	mov	ecx, DWORD PTR _x$[ebp]
	push	ecx
	mov	edx, DWORD PTR _ep$[ebp]
	mov	eax, DWORD PTR [edx+32]
	call	eax
	cmp	esi, esp
	call	__RTC_CheckEsp
	mov	DWORD PTR _result$[ebp], eax
	cmp	DWORD PTR _result$[ebp], 0
	jne	SHORT $LN7@TEST_PMC_P
	mov	DWORD PTR tv137[ebp], 1
	jmp	SHORT $LN8@TEST_PMC_P
$LN7@TEST_PMC_P:
	mov	DWORD PTR tv137[ebp], 0
$LN8@TEST_PMC_P:
	mov	ecx, DWORD PTR _result$[ebp]
	push	ecx
	push	OFFSET $SG94458
	call	_FormatTestMesssage
	add	esp, 8
	push	eax
	mov	edx, DWORD PTR tv137[ebp]
	push	edx
	push	2
	mov	eax, DWORD PTR _no$[ebp]
	push	eax
	push	OFFSET $SG94459
	call	_FormatTestLabel
	add	esp, 12					; 0000000cH
	push	eax
	mov	ecx, DWORD PTR _env$[ebp]
	push	ecx
	call	_TEST_Assert
	add	esp, 16					; 00000010H

; 81   :         TEST_Assert(env, FormatTestLabel("PMC_ParseDN2 (%d.%d)", no, 3), _EQUALS_MEMORY(actual_buf, actual_buf_size, desired_buf, desired_buf_size) == 0, "データの内容が一致しない");

	mov	edx, DWORD PTR _desired_buf_size$[ebp]
	push	edx
	mov	eax, DWORD PTR _desired_buf$[ebp]
	push	eax
	mov	ecx, DWORD PTR ?actual_buf_size@?1??TEST_PMC_ParseDN2@@9@9
	push	ecx
	push	OFFSET ?actual_buf@?1??TEST_PMC_ParseDN2@@9@9
	call	__EQUALS_MEMORY
	add	esp, 16					; 00000010H
	test	eax, eax
	jne	SHORT $LN9@TEST_PMC_P
	mov	DWORD PTR tv152[ebp], 1
	jmp	SHORT $LN10@TEST_PMC_P
$LN9@TEST_PMC_P:
	mov	DWORD PTR tv152[ebp], 0
$LN10@TEST_PMC_P:
	push	OFFSET $SG94460
	mov	edx, DWORD PTR tv152[ebp]
	push	edx
	push	3
	mov	eax, DWORD PTR _no$[ebp]
	push	eax
	push	OFFSET $SG94461
	call	_FormatTestLabel
	add	esp, 12					; 0000000cH
	push	eax
	mov	ecx, DWORD PTR _env$[ebp]
	push	ecx
	call	_TEST_Assert
	add	esp, 16					; 00000010H
$LN2@TEST_PMC_P:

; 82   :     }
; 83   :     if (x_result == PMC_STATUS_OK)

	cmp	DWORD PTR _x_result$[ebp], 0
	jne	SHORT $LN1@TEST_PMC_P

; 84   :         ep->PMC_Dispose(x);

	mov	esi, esp
	mov	edx, DWORD PTR _x$[ebp]
	push	edx
	mov	eax, DWORD PTR _ep$[ebp]
	mov	ecx, DWORD PTR [eax+20]
	call	ecx
	cmp	esi, esp
	call	__RTC_CheckEsp
$LN1@TEST_PMC_P:

; 85   : }

	push	edx
	mov	ecx, ebp
	push	eax
	lea	edx, DWORD PTR $LN14@TEST_PMC_P
	call	@_RTC_CheckStackVars@8
	pop	eax
	pop	edx
	pop	edi
	pop	esi
	mov	ecx, DWORD PTR __$ArrayPad$[ebp]
	xor	ecx, ebp
	call	@__security_check_cookie@4
	add	esp, 84					; 00000054H
	cmp	ebp, esp
	call	__RTC_CheckEsp
	mov	esp, ebp
	pop	ebp
	ret	0
$LN14@TEST_PMC_P:
	DD	2
	DD	$LN13@TEST_PMC_P
$LN13@TEST_PMC_P:
	DD	-12					; fffffff4H
	DD	4
	DD	$LN11@TEST_PMC_P
	DD	-68					; ffffffbcH
	DD	40					; 00000028H
	DD	$LN12@TEST_PMC_P
$LN12@TEST_PMC_P:
	DB	111					; 0000006fH
	DB	112					; 00000070H
	DB	116					; 00000074H
	DB	0
$LN11@TEST_PMC_P:
	DB	120					; 00000078H
	DB	0
_TEST_PMC_ParseDN2 ENDP
_TEXT	ENDS
; Function compile flags: /Odtp /RTCsu
; File z:\sources\lunor\repos\rougemeilland\palmtree.math.core.implements\palmtree.math.core.implements\test_op_parsedn.c
_TEXT	SEGMENT
tv152 = -84						; size = 4
tv137 = -80						; size = 4
tv85 = -76						; size = 4
_opt$ = -68						; size = 40
_x_result$ = -24					; size = 4
_result$ = -20						; size = 4
_x$ = -12						; size = 4
__$ArrayPad$ = -4					; size = 4
_env$ = 8						; size = 4
_ep$ = 12						; size = 4
_no$ = 16						; size = 4
_str$ = 20						; size = 4
_styles$ = 24						; size = 4
_group_separator$ = 28					; size = 4
_decimal_separator$ = 32				; size = 4
_positive_sign$ = 36					; size = 4
_negative_sign$ = 40					; size = 4
_desired_result_code$ = 44				; size = 4
_desired_buf$ = 48					; size = 4
_desired_buf_size$ = 52					; size = 4
_TEST_PMC_ParseDN1 PROC

; 40   : {

	push	ebp
	mov	ebp, esp
	sub	esp, 84					; 00000054H
	push	esi
	push	edi
	lea	edi, DWORD PTR [ebp-84]
	mov	ecx, 21					; 00000015H
	mov	eax, -858993460				; ccccccccH
	rep stosd
	mov	eax, DWORD PTR ___security_cookie
	xor	eax, ebp
	mov	DWORD PTR __$ArrayPad$[ebp], eax
	mov	ecx, OFFSET __DD775EF4_test_op_parsedn@c
	call	@__CheckForDebuggerJustMyCode@4

; 41   :     HANDLE x;
; 42   :     static unsigned char actual_buf[256];
; 43   :     static size_t actual_buf_size;
; 44   :     PMC_STATUS_CODE result;
; 45   :     PMC_STATUS_CODE x_result;
; 46   :     PMC_NUMBER_FORMAT_OPTION opt;
; 47   :     lstrcpyW(opt.GroupSeparator, group_separator);

	mov	esi, esp
	mov	eax, DWORD PTR _group_separator$[ebp]
	push	eax
	lea	ecx, DWORD PTR _opt$[ebp+4]
	push	ecx
	call	DWORD PTR __imp__lstrcpyW@8
	cmp	esi, esp
	call	__RTC_CheckEsp

; 48   :     lstrcpy(opt.GroupSizes, "3");

	mov	esi, esp
	push	OFFSET $SG94416
	lea	edx, DWORD PTR _opt$[ebp+28]
	push	edx
	call	DWORD PTR __imp__lstrcpyA@8
	cmp	esi, esp
	call	__RTC_CheckEsp

; 49   :     lstrcpyW(opt.DecimalSeparator, decimal_separator);

	mov	esi, esp
	mov	eax, DWORD PTR _decimal_separator$[ebp]
	push	eax
	lea	ecx, DWORD PTR _opt$[ebp+10]
	push	ecx
	call	DWORD PTR __imp__lstrcpyW@8
	cmp	esi, esp
	call	__RTC_CheckEsp

; 50   :     opt.DecimalDigits = 2;

	mov	DWORD PTR _opt$[ebp], 2

; 51   :     lstrcpyW(opt.PositiveSign, positive_sign);

	mov	esi, esp
	mov	edx, DWORD PTR _positive_sign$[ebp]
	push	edx
	lea	eax, DWORD PTR _opt$[ebp+16]
	push	eax
	call	DWORD PTR __imp__lstrcpyW@8
	cmp	esi, esp
	call	__RTC_CheckEsp

; 52   :     lstrcpyW(opt.NegativeSign, negative_sign);

	mov	esi, esp
	mov	ecx, DWORD PTR _negative_sign$[ebp]
	push	ecx
	lea	edx, DWORD PTR _opt$[ebp+22]
	push	edx
	call	DWORD PTR __imp__lstrcpyW@8
	cmp	esi, esp
	call	__RTC_CheckEsp

; 53   :     TEST_Assert(env, FormatTestLabel("PMC_ParseDN1 (%d.%d)", no, 1), (x_result = ep->PMC_TryParse(str, styles, &opt, &x)) == desired_result_code, FormatTestMesssage("PMC_TryParseの復帰コードが期待通りではない(%d)", x_result));

	mov	esi, esp
	lea	eax, DWORD PTR _x$[ebp]
	push	eax
	lea	ecx, DWORD PTR _opt$[ebp]
	push	ecx
	mov	edx, DWORD PTR _styles$[ebp]
	push	edx
	mov	eax, DWORD PTR _str$[ebp]
	push	eax
	mov	ecx, DWORD PTR _ep$[ebp]
	mov	edx, DWORD PTR [ecx+40]
	call	edx
	cmp	esi, esp
	call	__RTC_CheckEsp
	mov	DWORD PTR _x_result$[ebp], eax
	mov	eax, DWORD PTR _x_result$[ebp]
	cmp	eax, DWORD PTR _desired_result_code$[ebp]
	jne	SHORT $LN5@TEST_PMC_P
	mov	DWORD PTR tv85[ebp], 1
	jmp	SHORT $LN6@TEST_PMC_P
$LN5@TEST_PMC_P:
	mov	DWORD PTR tv85[ebp], 0
$LN6@TEST_PMC_P:
	mov	ecx, DWORD PTR _x_result$[ebp]
	push	ecx
	push	OFFSET $SG94417
	call	_FormatTestMesssage
	add	esp, 8
	push	eax
	mov	edx, DWORD PTR tv85[ebp]
	push	edx
	push	1
	mov	eax, DWORD PTR _no$[ebp]
	push	eax
	push	OFFSET $SG94418
	call	_FormatTestLabel
	add	esp, 12					; 0000000cH
	push	eax
	mov	ecx, DWORD PTR _env$[ebp]
	push	ecx
	call	_TEST_Assert
	add	esp, 16					; 00000010H

; 54   :     if (desired_result_code == PMC_STATUS_OK)

	cmp	DWORD PTR _desired_result_code$[ebp], 0
	jne	$LN2@TEST_PMC_P

; 55   :     {
; 56   :         TEST_Assert(env, FormatTestLabel("PMC_ParseDN1 (%d.%d)", no, 2), (result = ep->PMC_To_X_B(x, actual_buf, sizeof(actual_buf), &actual_buf_size)) == PMC_STATUS_OK, FormatTestMesssage("PMC_To_X_Bの復帰コードが期待通りではない(%d)", result));

	mov	esi, esp
	push	OFFSET ?actual_buf_size@?1??TEST_PMC_ParseDN1@@9@9
	push	256					; 00000100H
	push	OFFSET ?actual_buf@?1??TEST_PMC_ParseDN1@@9@9
	mov	edx, DWORD PTR _x$[ebp]
	push	edx
	mov	eax, DWORD PTR _ep$[ebp]
	mov	ecx, DWORD PTR [eax+32]
	call	ecx
	cmp	esi, esp
	call	__RTC_CheckEsp
	mov	DWORD PTR _result$[ebp], eax
	cmp	DWORD PTR _result$[ebp], 0
	jne	SHORT $LN7@TEST_PMC_P
	mov	DWORD PTR tv137[ebp], 1
	jmp	SHORT $LN8@TEST_PMC_P
$LN7@TEST_PMC_P:
	mov	DWORD PTR tv137[ebp], 0
$LN8@TEST_PMC_P:
	mov	edx, DWORD PTR _result$[ebp]
	push	edx
	push	OFFSET $SG94420
	call	_FormatTestMesssage
	add	esp, 8
	push	eax
	mov	eax, DWORD PTR tv137[ebp]
	push	eax
	push	2
	mov	ecx, DWORD PTR _no$[ebp]
	push	ecx
	push	OFFSET $SG94421
	call	_FormatTestLabel
	add	esp, 12					; 0000000cH
	push	eax
	mov	edx, DWORD PTR _env$[ebp]
	push	edx
	call	_TEST_Assert
	add	esp, 16					; 00000010H

; 57   :         TEST_Assert(env, FormatTestLabel("PMC_ParseDN1 (%d.%d)", no, 3), _EQUALS_MEMORY(actual_buf, actual_buf_size, desired_buf, desired_buf_size) == 0, "データの内容が一致しない");

	mov	eax, DWORD PTR _desired_buf_size$[ebp]
	push	eax
	mov	ecx, DWORD PTR _desired_buf$[ebp]
	push	ecx
	mov	edx, DWORD PTR ?actual_buf_size@?1??TEST_PMC_ParseDN1@@9@9
	push	edx
	push	OFFSET ?actual_buf@?1??TEST_PMC_ParseDN1@@9@9
	call	__EQUALS_MEMORY
	add	esp, 16					; 00000010H
	test	eax, eax
	jne	SHORT $LN9@TEST_PMC_P
	mov	DWORD PTR tv152[ebp], 1
	jmp	SHORT $LN10@TEST_PMC_P
$LN9@TEST_PMC_P:
	mov	DWORD PTR tv152[ebp], 0
$LN10@TEST_PMC_P:
	push	OFFSET $SG94422
	mov	eax, DWORD PTR tv152[ebp]
	push	eax
	push	3
	mov	ecx, DWORD PTR _no$[ebp]
	push	ecx
	push	OFFSET $SG94423
	call	_FormatTestLabel
	add	esp, 12					; 0000000cH
	push	eax
	mov	edx, DWORD PTR _env$[ebp]
	push	edx
	call	_TEST_Assert
	add	esp, 16					; 00000010H
$LN2@TEST_PMC_P:

; 58   :     }
; 59   :     if (x_result == PMC_STATUS_OK)

	cmp	DWORD PTR _x_result$[ebp], 0
	jne	SHORT $LN1@TEST_PMC_P

; 60   :         ep->PMC_Dispose(x);

	mov	esi, esp
	mov	eax, DWORD PTR _x$[ebp]
	push	eax
	mov	ecx, DWORD PTR _ep$[ebp]
	mov	edx, DWORD PTR [ecx+20]
	call	edx
	cmp	esi, esp
	call	__RTC_CheckEsp
$LN1@TEST_PMC_P:

; 61   : }

	push	edx
	mov	ecx, ebp
	push	eax
	lea	edx, DWORD PTR $LN14@TEST_PMC_P
	call	@_RTC_CheckStackVars@8
	pop	eax
	pop	edx
	pop	edi
	pop	esi
	mov	ecx, DWORD PTR __$ArrayPad$[ebp]
	xor	ecx, ebp
	call	@__security_check_cookie@4
	add	esp, 84					; 00000054H
	cmp	ebp, esp
	call	__RTC_CheckEsp
	mov	esp, ebp
	pop	ebp
	ret	0
$LN14@TEST_PMC_P:
	DD	2
	DD	$LN13@TEST_PMC_P
$LN13@TEST_PMC_P:
	DD	-12					; fffffff4H
	DD	4
	DD	$LN11@TEST_PMC_P
	DD	-68					; ffffffbcH
	DD	40					; 00000028H
	DD	$LN12@TEST_PMC_P
$LN12@TEST_PMC_P:
	DB	111					; 0000006fH
	DB	112					; 00000070H
	DB	116					; 00000074H
	DB	0
$LN11@TEST_PMC_P:
	DB	120					; 00000078H
	DB	0
_TEST_PMC_ParseDN1 ENDP
_TEXT	ENDS
END
