; Listing generated by Microsoft (R) Optimizing Compiler Version 19.16.27026.1 

	TITLE	Z:\Sources\Lunor\Repos\rougemeilland\Palmtree.Math.Core.Implements\Palmtree.Math.Core.Implements\TEST_op_Pow.c
	.686P
	.XMM
	include listing.inc
	.model	flat

INCLUDELIB MSVCRTD
INCLUDELIB OLDNAMES

msvcjmc	SEGMENT
__7B7A869E_ctype@h DB 01H
__457DD326_basetsd@h DB 01H
__4384A2D9_corecrt_memcpy_s@h DB 01H
__4E51A221_corecrt_wstring@h DB 01H
__2140C079_string@h DB 01H
__1887E595_winnt@h DB 01H
__9FC7C64B_processthreadsapi@h DB 01H
__FA470AEC_memoryapi@h DB 01H
__F37DAFF1_winerror@h DB 01H
__7A450CCC_winbase@h DB 01H
__B4B40122_winioctl@h DB 01H
__86261D59_stralign@h DB 01H
__1C66ECB2_pmc_debug@h DB 01H
__F2CD1EB2_test_op_pow@c DB 01H
msvcjmc	ENDS
PUBLIC	_TEST_PMC_Pow_X_I
PUBLIC	__JustMyCode_Default
EXTRN	_TEST_Assert:PROC
EXTRN	_FormatTestLabel:PROC
EXTRN	_FormatTestMesssage:PROC
EXTRN	@_RTC_CheckStackVars@8:PROC
EXTRN	@__CheckForDebuggerJustMyCode@4:PROC
EXTRN	__RTC_CheckEsp:PROC
EXTRN	__RTC_InitBase:PROC
EXTRN	__RTC_Shutdown:PROC
_BSS	SEGMENT
?actual_z_buf@?1??TEST_PMC_Pow_X_I@@9@9 DB 010000H DUP (?) ; `TEST_PMC_Pow_X_I'::`2'::actual_z_buf
_BSS	ENDS
;	COMDAT rtc$TMZ
rtc$TMZ	SEGMENT
__RTC_Shutdown.rtc$TMZ DD FLAT:__RTC_Shutdown
rtc$TMZ	ENDS
;	COMDAT rtc$IMZ
rtc$IMZ	SEGMENT
__RTC_InitBase.rtc$IMZ DD FLAT:__RTC_InitBase
rtc$IMZ	ENDS
_DATA	SEGMENT
$SG94512 DB	'PMC_FromByteArray', 082H, 0ccH, 095H, 09cH, 08bH, 'A', 083H
	DB	'R', 081H, '[', 083H, 'h', 082H, 0aaH, 08aH, 0faH, 091H, 0d2H, 092H
	DB	0caH, 082H, 0e8H, 082H, 0c5H, 082H, 0cdH, 082H, 0c8H, 082H, 0a2H
	DB	'(%d)', 00H
$SG94513 DB	'PMC_Pow_X_I (%d.%d)', 00H
$SG94514 DB	'PMC_Pow_X_I', 082H, 0ccH, 095H, 09cH, 08bH, 'A', 083H, 'R'
	DB	081H, '[', 083H, 'h', 082H, 0aaH, 08aH, 0faH, 091H, 0d2H, 092H
	DB	0caH, 082H, 0e8H, 082H, 0c5H, 082H, 0cdH, 082H, 0c8H, 082H, 0a2H
	DB	'(%d)', 00H
	ORG $+2
$SG94515 DB	'PMC_Pow_X_I (%d.%d)', 00H
$SG94517 DB	'PMC_ToByteArray', 082H, 0ccH, 095H, 09cH, 08bH, 'A', 083H
	DB	'R', 081H, '[', 083H, 'h', 082H, 0aaH, 08aH, 0faH, 091H, 0d2H, 092H
	DB	0caH, 082H, 0e8H, 082H, 0c5H, 082H, 0cdH, 082H, 0c8H, 082H, 0a2H
	DB	'(%d)', 00H
	ORG $+2
$SG94518 DB	'PMC_Pow_X_I (%d.%d)', 00H
$SG94519 DB	083H, 'f', 081H, '[', 083H, '^', 082H, 0ccH, 093H, 0e0H, 097H
	DB	'e', 082H, 0aaH, 088H, 0eaH, 092H, 'v', 082H, 0b5H, 082H, 0c8H
	DB	082H, 0a2H, 00H
	ORG $+3
$SG94520 DB	'PMC_Pow_X_I (%d.%d)', 00H
_DATA	ENDS
; Function compile flags: /Odt
;	COMDAT __JustMyCode_Default
_TEXT	SEGMENT
__JustMyCode_Default PROC				; COMDAT
	push	ebp
	mov	ebp, esp
	pop	ebp
	ret	0
__JustMyCode_Default ENDP
_TEXT	ENDS
; Function compile flags: /Odtp /RTCsu
; File z:\sources\lunor\repos\rougemeilland\palmtree.math.core.implements\palmtree.math.core.implements\pmc_debug.h
_TEXT	SEGMENT
_buffer1$ = 8						; size = 4
_count1$ = 12						; size = 4
_buffer2$ = 16						; size = 4
_count2$ = 20						; size = 4
__EQUALS_MEMORY PROC

; 153  : {

	push	ebp
	mov	ebp, esp
	mov	ecx, OFFSET __1C66ECB2_pmc_debug@h
	call	@__CheckForDebuggerJustMyCode@4

; 154  :     if (count1 != count2)

	mov	eax, DWORD PTR _count1$[ebp]
	cmp	eax, DWORD PTR _count2$[ebp]
	je	SHORT $LN2@EQUALS_MEM

; 155  :         return (-1);

	or	eax, -1
	jmp	SHORT $LN1@EQUALS_MEM
$LN2@EQUALS_MEM:

; 156  :     while (count1 > 0)

	cmp	DWORD PTR _count1$[ebp], 0
	jbe	SHORT $LN3@EQUALS_MEM

; 157  :     {
; 158  :         if (*buffer1 != *buffer2)

	mov	ecx, DWORD PTR _buffer1$[ebp]
	movzx	edx, BYTE PTR [ecx]
	mov	eax, DWORD PTR _buffer2$[ebp]
	movzx	ecx, BYTE PTR [eax]
	cmp	edx, ecx
	je	SHORT $LN5@EQUALS_MEM

; 159  :             return (-1);

	or	eax, -1
	jmp	SHORT $LN1@EQUALS_MEM
$LN5@EQUALS_MEM:

; 160  :         ++buffer1;

	mov	edx, DWORD PTR _buffer1$[ebp]
	add	edx, 1
	mov	DWORD PTR _buffer1$[ebp], edx

; 161  :         ++buffer2;

	mov	eax, DWORD PTR _buffer2$[ebp]
	add	eax, 1
	mov	DWORD PTR _buffer2$[ebp], eax

; 162  :         --count1;

	mov	ecx, DWORD PTR _count1$[ebp]
	sub	ecx, 1
	mov	DWORD PTR _count1$[ebp], ecx

; 163  :     }

	jmp	SHORT $LN2@EQUALS_MEM
$LN3@EQUALS_MEM:

; 164  :     return (0);

	xor	eax, eax
$LN1@EQUALS_MEM:

; 165  : }

	cmp	ebp, esp
	call	__RTC_CheckEsp
	pop	ebp
	ret	0
__EQUALS_MEMORY ENDP
_TEXT	ENDS
; Function compile flags: /Odtp /RTCsu
; File z:\sources\lunor\repos\rougemeilland\palmtree.math.core.implements\palmtree.math.core.implements\test_op_pow.c
_TEXT	SEGMENT
tv159 = -64						; size = 4
tv144 = -60						; size = 4
tv92 = -56						; size = 4
tv74 = -52						; size = 4
_z_result$ = -48					; size = 4
_x_result$ = -44					; size = 4
_result$ = -40						; size = 4
_actual_z_buf_size$ = -32				; size = 4
_z$ = -20						; size = 4
_x$ = -8						; size = 4
_env$ = 8						; size = 4
_ep$ = 12						; size = 4
_no$ = 16						; size = 4
_x_buf$ = 20						; size = 4
_x_buf_size$ = 24					; size = 4
_y$ = 28						; size = 4
_desired_result_code$ = 32				; size = 4
_desired_z_buf$ = 36					; size = 4
_desired_z_buf_size$ = 40				; size = 4
_TEST_PMC_Pow_X_I PROC

; 40   : {

	push	ebp
	mov	ebp, esp
	sub	esp, 64					; 00000040H
	push	esi
	push	edi
	lea	edi, DWORD PTR [ebp-64]
	mov	ecx, 16					; 00000010H
	mov	eax, -858993460				; ccccccccH
	rep stosd
	mov	ecx, OFFSET __F2CD1EB2_test_op_pow@c
	call	@__CheckForDebuggerJustMyCode@4

; 41   :     HANDLE x;
; 42   :     HANDLE z;
; 43   :     static unsigned char actual_z_buf[0x10000];
; 44   :     size_t actual_z_buf_size;
; 45   :     PMC_STATUS_CODE result;
; 46   :     PMC_STATUS_CODE x_result;
; 47   :     PMC_STATUS_CODE z_result;
; 48   :     TEST_Assert(env, FormatTestLabel("PMC_Pow_X_I (%d.%d)", no, 1), (x_result = ep->PMC_FromByteArray(x_buf, x_buf_size, &x)) == PMC_STATUS_OK, FormatTestMesssage("PMC_FromByteArrayの復帰コードが期待通りではない(%d)", x_result));

	mov	esi, esp
	lea	eax, DWORD PTR _x$[ebp]
	push	eax
	mov	ecx, DWORD PTR _x_buf_size$[ebp]
	push	ecx
	mov	edx, DWORD PTR _x_buf$[ebp]
	push	edx
	mov	eax, DWORD PTR _ep$[ebp]
	mov	ecx, DWORD PTR [eax+20]
	call	ecx
	cmp	esi, esp
	call	__RTC_CheckEsp
	mov	DWORD PTR _x_result$[ebp], eax
	cmp	DWORD PTR _x_result$[ebp], 0
	jne	SHORT $LN6@TEST_PMC_P
	mov	DWORD PTR tv74[ebp], 1
	jmp	SHORT $LN7@TEST_PMC_P
$LN6@TEST_PMC_P:
	mov	DWORD PTR tv74[ebp], 0
$LN7@TEST_PMC_P:
	mov	edx, DWORD PTR _x_result$[ebp]
	push	edx
	push	OFFSET $SG94512
	call	_FormatTestMesssage
	add	esp, 8
	push	eax
	mov	eax, DWORD PTR tv74[ebp]
	push	eax
	push	1
	mov	ecx, DWORD PTR _no$[ebp]
	push	ecx
	push	OFFSET $SG94513
	call	_FormatTestLabel
	add	esp, 12					; 0000000cH
	push	eax
	mov	edx, DWORD PTR _env$[ebp]
	push	edx
	call	_TEST_Assert
	add	esp, 16					; 00000010H

; 49   :     TEST_Assert(env, FormatTestLabel("PMC_Pow_X_I (%d.%d)", no, 2), (z_result = ep->PMC_Pow_X_I(x, y, &z)) == desired_result_code, FormatTestMesssage("PMC_Pow_X_Iの復帰コードが期待通りではない(%d)", z_result));

	mov	esi, esp
	lea	eax, DWORD PTR _z$[ebp]
	push	eax
	mov	ecx, DWORD PTR _y$[ebp]
	push	ecx
	mov	edx, DWORD PTR _x$[ebp]
	push	edx
	mov	eax, DWORD PTR _ep$[ebp]
	mov	ecx, DWORD PTR [eax+260]
	call	ecx
	cmp	esi, esp
	call	__RTC_CheckEsp
	mov	DWORD PTR _z_result$[ebp], eax
	mov	edx, DWORD PTR _z_result$[ebp]
	cmp	edx, DWORD PTR _desired_result_code$[ebp]
	jne	SHORT $LN8@TEST_PMC_P
	mov	DWORD PTR tv92[ebp], 1
	jmp	SHORT $LN9@TEST_PMC_P
$LN8@TEST_PMC_P:
	mov	DWORD PTR tv92[ebp], 0
$LN9@TEST_PMC_P:
	mov	eax, DWORD PTR _z_result$[ebp]
	push	eax
	push	OFFSET $SG94514
	call	_FormatTestMesssage
	add	esp, 8
	push	eax
	mov	ecx, DWORD PTR tv92[ebp]
	push	ecx
	push	2
	mov	edx, DWORD PTR _no$[ebp]
	push	edx
	push	OFFSET $SG94515
	call	_FormatTestLabel
	add	esp, 12					; 0000000cH
	push	eax
	mov	eax, DWORD PTR _env$[ebp]
	push	eax
	call	_TEST_Assert
	add	esp, 16					; 00000010H

; 50   :     if (desired_result_code == PMC_STATUS_OK)

	cmp	DWORD PTR _desired_result_code$[ebp], 0
	jne	$LN2@TEST_PMC_P

; 51   :     {
; 52   :         TEST_Assert(env, FormatTestLabel("PMC_Pow_X_I (%d.%d)", no, 3), (result = ep->PMC_ToByteArray(z, actual_z_buf, sizeof(actual_z_buf), &actual_z_buf_size)) == PMC_STATUS_OK, FormatTestMesssage("PMC_ToByteArrayの復帰コードが期待通りではない(%d)", result));

	mov	esi, esp
	lea	ecx, DWORD PTR _actual_z_buf_size$[ebp]
	push	ecx
	push	65536					; 00010000H
	push	OFFSET ?actual_z_buf@?1??TEST_PMC_Pow_X_I@@9@9
	mov	edx, DWORD PTR _z$[ebp]
	push	edx
	mov	eax, DWORD PTR _ep$[ebp]
	mov	ecx, DWORD PTR [eax+24]
	call	ecx
	cmp	esi, esp
	call	__RTC_CheckEsp
	mov	DWORD PTR _result$[ebp], eax
	cmp	DWORD PTR _result$[ebp], 0
	jne	SHORT $LN10@TEST_PMC_P
	mov	DWORD PTR tv144[ebp], 1
	jmp	SHORT $LN11@TEST_PMC_P
$LN10@TEST_PMC_P:
	mov	DWORD PTR tv144[ebp], 0
$LN11@TEST_PMC_P:
	mov	edx, DWORD PTR _result$[ebp]
	push	edx
	push	OFFSET $SG94517
	call	_FormatTestMesssage
	add	esp, 8
	push	eax
	mov	eax, DWORD PTR tv144[ebp]
	push	eax
	push	3
	mov	ecx, DWORD PTR _no$[ebp]
	push	ecx
	push	OFFSET $SG94518
	call	_FormatTestLabel
	add	esp, 12					; 0000000cH
	push	eax
	mov	edx, DWORD PTR _env$[ebp]
	push	edx
	call	_TEST_Assert
	add	esp, 16					; 00000010H

; 53   :         TEST_Assert(env, FormatTestLabel("PMC_Pow_X_I (%d.%d)", no, 4), _EQUALS_MEMORY(actual_z_buf, actual_z_buf_size, desired_z_buf, desired_z_buf_size) == 0, "データの内容が一致しない");

	mov	eax, DWORD PTR _desired_z_buf_size$[ebp]
	push	eax
	mov	ecx, DWORD PTR _desired_z_buf$[ebp]
	push	ecx
	mov	edx, DWORD PTR _actual_z_buf_size$[ebp]
	push	edx
	push	OFFSET ?actual_z_buf@?1??TEST_PMC_Pow_X_I@@9@9
	call	__EQUALS_MEMORY
	add	esp, 16					; 00000010H
	test	eax, eax
	jne	SHORT $LN12@TEST_PMC_P
	mov	DWORD PTR tv159[ebp], 1
	jmp	SHORT $LN13@TEST_PMC_P
$LN12@TEST_PMC_P:
	mov	DWORD PTR tv159[ebp], 0
$LN13@TEST_PMC_P:
	push	OFFSET $SG94519
	mov	eax, DWORD PTR tv159[ebp]
	push	eax
	push	4
	mov	ecx, DWORD PTR _no$[ebp]
	push	ecx
	push	OFFSET $SG94520
	call	_FormatTestLabel
	add	esp, 12					; 0000000cH
	push	eax
	mov	edx, DWORD PTR _env$[ebp]
	push	edx
	call	_TEST_Assert
	add	esp, 16					; 00000010H
$LN2@TEST_PMC_P:

; 54   :     }
; 55   :     if (z_result == PMC_STATUS_OK)

	cmp	DWORD PTR _z_result$[ebp], 0
	jne	SHORT $LN3@TEST_PMC_P

; 56   :         ep->PMC_Dispose(z);

	mov	esi, esp
	mov	eax, DWORD PTR _z$[ebp]
	push	eax
	mov	ecx, DWORD PTR _ep$[ebp]
	mov	edx, DWORD PTR [ecx+16]
	call	edx
	cmp	esi, esp
	call	__RTC_CheckEsp
$LN3@TEST_PMC_P:

; 57   :     if (x_result == PMC_STATUS_OK)

	cmp	DWORD PTR _x_result$[ebp], 0
	jne	SHORT $LN1@TEST_PMC_P

; 58   :         ep->PMC_Dispose(x);

	mov	esi, esp
	mov	eax, DWORD PTR _x$[ebp]
	push	eax
	mov	ecx, DWORD PTR _ep$[ebp]
	mov	edx, DWORD PTR [ecx+16]
	call	edx
	cmp	esi, esp
	call	__RTC_CheckEsp
$LN1@TEST_PMC_P:

; 59   : }

	push	edx
	mov	ecx, ebp
	push	eax
	lea	edx, DWORD PTR $LN18@TEST_PMC_P
	call	@_RTC_CheckStackVars@8
	pop	eax
	pop	edx
	pop	edi
	pop	esi
	add	esp, 64					; 00000040H
	cmp	ebp, esp
	call	__RTC_CheckEsp
	mov	esp, ebp
	pop	ebp
	ret	0
	npad	1
$LN18@TEST_PMC_P:
	DD	3
	DD	$LN17@TEST_PMC_P
$LN17@TEST_PMC_P:
	DD	-8					; fffffff8H
	DD	4
	DD	$LN14@TEST_PMC_P
	DD	-20					; ffffffecH
	DD	4
	DD	$LN15@TEST_PMC_P
	DD	-32					; ffffffe0H
	DD	4
	DD	$LN16@TEST_PMC_P
$LN16@TEST_PMC_P:
	DB	97					; 00000061H
	DB	99					; 00000063H
	DB	116					; 00000074H
	DB	117					; 00000075H
	DB	97					; 00000061H
	DB	108					; 0000006cH
	DB	95					; 0000005fH
	DB	122					; 0000007aH
	DB	95					; 0000005fH
	DB	98					; 00000062H
	DB	117					; 00000075H
	DB	102					; 00000066H
	DB	95					; 0000005fH
	DB	115					; 00000073H
	DB	105					; 00000069H
	DB	122					; 0000007aH
	DB	101					; 00000065H
	DB	0
$LN15@TEST_PMC_P:
	DB	122					; 0000007aH
	DB	0
$LN14@TEST_PMC_P:
	DB	120					; 00000078H
	DB	0
_TEST_PMC_Pow_X_I ENDP
_TEXT	ENDS
END
