; Listing generated by Microsoft (R) Optimizing Compiler Version 19.16.27026.1 

	TITLE	Z:\Sources\Lunor\Repos\rougemeilland\Palmtree.Math.Core.Implements\Palmtree.Math.Core.Implements\TEST_op_Subtruct.c
	.686P
	.XMM
	include listing.inc
	.model	flat

INCLUDELIB MSVCRTD
INCLUDELIB OLDNAMES

msvcjmc	SEGMENT
__7B7A869E_ctype@h DB 01H
__457DD326_basetsd@h DB 01H
__4384A2D9_corecrt_memcpy_s@h DB 01H
__4E51A221_corecrt_wstring@h DB 01H
__2140C079_string@h DB 01H
__1887E595_winnt@h DB 01H
__9FC7C64B_processthreadsapi@h DB 01H
__FA470AEC_memoryapi@h DB 01H
__F37DAFF1_winerror@h DB 01H
__7A450CCC_winbase@h DB 01H
__B4B40122_winioctl@h DB 01H
__86261D59_stralign@h DB 01H
__1C66ECB2_pmc_debug@h DB 01H
__58741880_test_op_subtruct@c DB 01H
msvcjmc	ENDS
PUBLIC	_TEST_PMC_Subtruct_I_X
PUBLIC	_TEST_PMC_Subtruct_L_X
PUBLIC	_TEST_PMC_Subtruct_X_I
PUBLIC	_TEST_PMC_Subtruct_X_L
PUBLIC	_TEST_PMC_Subtruct_X_X
PUBLIC	__JustMyCode_Default
EXTRN	_TEST_Assert:PROC
EXTRN	_FormatTestLabel:PROC
EXTRN	_FormatTestMesssage:PROC
EXTRN	@_RTC_CheckStackVars@8:PROC
EXTRN	@__CheckForDebuggerJustMyCode@4:PROC
EXTRN	@__security_check_cookie@4:PROC
EXTRN	__RTC_CheckEsp:PROC
EXTRN	__RTC_InitBase:PROC
EXTRN	__RTC_Shutdown:PROC
EXTRN	___security_cookie:DWORD
;	COMDAT rtc$TMZ
rtc$TMZ	SEGMENT
__RTC_Shutdown.rtc$TMZ DD FLAT:__RTC_Shutdown
rtc$TMZ	ENDS
;	COMDAT rtc$IMZ
rtc$IMZ	SEGMENT
__RTC_InitBase.rtc$IMZ DD FLAT:__RTC_InitBase
rtc$IMZ	ENDS
_DATA	SEGMENT
$SG94404 DB	'PMC_From_B', 082H, 0ccH, 095H, 09cH, 08bH, 'A', 083H, 'R'
	DB	081H, '[', 083H, 'h', 082H, 0aaH, 08aH, 0faH, 091H, 0d2H, 092H
	DB	0caH, 082H, 0e8H, 082H, 0c5H, 082H, 0cdH, 082H, 0c8H, 082H, 0a2H
	DB	'(%d)', 00H
	ORG $+3
$SG94405 DB	'PMC_Subtruct_I_X (%d.%d)', 00H
	ORG $+3
$SG94406 DB	'PMC_Subtruct_I_X', 082H, 0ccH, 095H, 09cH, 08bH, 'A', 083H
	DB	'R', 081H, '[', 083H, 'h', 082H, 0aaH, 08aH, 0faH, 091H, 0d2H, 092H
	DB	0caH, 082H, 0e8H, 082H, 0c5H, 082H, 0cdH, 082H, 0c8H, 082H, 0a2H
	DB	'(%d)', 00H
	ORG $+1
$SG94407 DB	'PMC_Subtruct_I_X (%d.%d)', 00H
	ORG $+3
$SG94409 DB	083H, 'f', 081H, '[', 083H, '^', 082H, 0ccH, 093H, 0e0H, 097H
	DB	'e', 082H, 0aaH, 088H, 0eaH, 092H, 'v', 082H, 0b5H, 082H, 0c8H
	DB	082H, 0a2H, 00H
	ORG $+3
$SG94410 DB	'PMC_Subtruct_I_X (%d.%d)', 00H
	ORG $+3
$SG94433 DB	'PMC_From_B', 082H, 0ccH, 095H, 09cH, 08bH, 'A', 083H, 'R'
	DB	081H, '[', 083H, 'h', 082H, 0aaH, 08aH, 0faH, 091H, 0d2H, 092H
	DB	0caH, 082H, 0e8H, 082H, 0c5H, 082H, 0cdH, 082H, 0c8H, 082H, 0a2H
	DB	'(%d)', 00H
	ORG $+3
$SG94434 DB	'PMC_Subtruct_L_X (%d.%d)', 00H
	ORG $+3
$SG94435 DB	'PMC_Subtruct_L_X', 082H, 0ccH, 095H, 09cH, 08bH, 'A', 083H
	DB	'R', 081H, '[', 083H, 'h', 082H, 0aaH, 08aH, 0faH, 091H, 0d2H, 092H
	DB	0caH, 082H, 0e8H, 082H, 0c5H, 082H, 0cdH, 082H, 0c8H, 082H, 0a2H
	DB	'(%d)', 00H
	ORG $+1
$SG94436 DB	'PMC_Subtruct_L_X (%d.%d)', 00H
	ORG $+3
$SG94438 DB	083H, 'f', 081H, '[', 083H, '^', 082H, 0ccH, 093H, 0e0H, 097H
	DB	'e', 082H, 0aaH, 088H, 0eaH, 092H, 'v', 082H, 0b5H, 082H, 0c8H
	DB	082H, 0a2H, 00H
	ORG $+3
$SG94439 DB	'PMC_Subtruct_L_X (%d.%d)', 00H
	ORG $+3
$SG94467 DB	'PMC_From_B', 082H, 0ccH, 095H, 09cH, 08bH, 'A', 083H, 'R'
	DB	081H, '[', 083H, 'h', 082H, 0aaH, 08aH, 0faH, 091H, 0d2H, 092H
	DB	0caH, 082H, 0e8H, 082H, 0c5H, 082H, 0cdH, 082H, 0c8H, 082H, 0a2H
	DB	'(%d)', 00H
	ORG $+3
$SG94468 DB	'PMC_Subtruct_X_I (%d.%d)', 00H
	ORG $+3
$SG94469 DB	'PMC_Subtruct_X_I', 082H, 0ccH, 095H, 09cH, 08bH, 'A', 083H
	DB	'R', 081H, '[', 083H, 'h', 082H, 0aaH, 08aH, 0faH, 091H, 0d2H, 092H
	DB	0caH, 082H, 0e8H, 082H, 0c5H, 082H, 0cdH, 082H, 0c8H, 082H, 0a2H
	DB	'(%d)', 00H
	ORG $+1
$SG94470 DB	'PMC_Subtruct_X_I (%d.%d)', 00H
	ORG $+3
$SG94472 DB	'PMC_To_X_B', 082H, 0ccH, 095H, 09cH, 08bH, 'A', 083H, 'R'
	DB	081H, '[', 083H, 'h', 082H, 0aaH, 08aH, 0faH, 091H, 0d2H, 092H
	DB	0caH, 082H, 0e8H, 082H, 0c5H, 082H, 0cdH, 082H, 0c8H, 082H, 0a2H
	DB	'(%d)', 00H
	ORG $+3
$SG94473 DB	'PMC_Subtruct_X_I (%d.%d)', 00H
	ORG $+3
$SG94474 DB	083H, 'f', 081H, '[', 083H, '^', 082H, 0ccH, 093H, 0e0H, 097H
	DB	'e', 082H, 0aaH, 088H, 0eaH, 092H, 'v', 082H, 0b5H, 082H, 0c8H
	DB	082H, 0a2H, 00H
	ORG $+3
$SG94475 DB	'PMC_Subtruct_X_I (%d.%d)', 00H
	ORG $+3
$SG94504 DB	'PMC_From_B', 082H, 0ccH, 095H, 09cH, 08bH, 'A', 083H, 'R'
	DB	081H, '[', 083H, 'h', 082H, 0aaH, 08aH, 0faH, 091H, 0d2H, 092H
	DB	0caH, 082H, 0e8H, 082H, 0c5H, 082H, 0cdH, 082H, 0c8H, 082H, 0a2H
	DB	'(%d)', 00H
	ORG $+3
$SG94505 DB	'PMC_Subtruct_X_L (%d.%d)', 00H
	ORG $+3
$SG94506 DB	'PMC_Subtruct_X_L', 082H, 0ccH, 095H, 09cH, 08bH, 'A', 083H
	DB	'R', 081H, '[', 083H, 'h', 082H, 0aaH, 08aH, 0faH, 091H, 0d2H, 092H
	DB	0caH, 082H, 0e8H, 082H, 0c5H, 082H, 0cdH, 082H, 0c8H, 082H, 0a2H
	DB	'(%d)', 00H
	ORG $+1
$SG94507 DB	'PMC_Subtruct_X_L (%d.%d)', 00H
	ORG $+3
$SG94509 DB	'PMC_To_X_B', 082H, 0ccH, 095H, 09cH, 08bH, 'A', 083H, 'R'
	DB	081H, '[', 083H, 'h', 082H, 0aaH, 08aH, 0faH, 091H, 0d2H, 092H
	DB	0caH, 082H, 0e8H, 082H, 0c5H, 082H, 0cdH, 082H, 0c8H, 082H, 0a2H
	DB	'(%d)', 00H
	ORG $+3
$SG94510 DB	'PMC_Subtruct_X_L (%d.%d)', 00H
	ORG $+3
$SG94511 DB	083H, 'f', 081H, '[', 083H, '^', 082H, 0ccH, 093H, 0e0H, 097H
	DB	'e', 082H, 0aaH, 088H, 0eaH, 092H, 'v', 082H, 0b5H, 082H, 0c8H
	DB	082H, 0a2H, 00H
	ORG $+3
$SG94512 DB	'PMC_Subtruct_X_L (%d.%d)', 00H
	ORG $+3
$SG94545 DB	'PMC_From_B', 082H, 0ccH, 095H, 09cH, 08bH, 'A', 083H, 'R'
	DB	081H, '[', 083H, 'h', 082H, 0aaH, 08aH, 0faH, 091H, 0d2H, 092H
	DB	0caH, 082H, 0e8H, 082H, 0c5H, 082H, 0cdH, 082H, 0c8H, 082H, 0a2H
	DB	'(%d)', 00H
	ORG $+3
$SG94546 DB	'PMC_Subtruct_X_X (%d.%d)', 00H
	ORG $+3
$SG94547 DB	'PMC_From_B', 082H, 0ccH, 095H, 09cH, 08bH, 'A', 083H, 'R'
	DB	081H, '[', 083H, 'h', 082H, 0aaH, 08aH, 0faH, 091H, 0d2H, 092H
	DB	0caH, 082H, 0e8H, 082H, 0c5H, 082H, 0cdH, 082H, 0c8H, 082H, 0a2H
	DB	'(%d)', 00H
	ORG $+3
$SG94548 DB	'PMC_Subtruct_X_X (%d.%d)', 00H
	ORG $+3
$SG94549 DB	'PMC_Subtruct_X_X', 082H, 0ccH, 095H, 09cH, 08bH, 'A', 083H
	DB	'R', 081H, '[', 083H, 'h', 082H, 0aaH, 08aH, 0faH, 091H, 0d2H, 092H
	DB	0caH, 082H, 0e8H, 082H, 0c5H, 082H, 0cdH, 082H, 0c8H, 082H, 0a2H
	DB	'(%d)', 00H
	ORG $+1
$SG94550 DB	'PMC_Subtruct_X_X (%d.%d)', 00H
	ORG $+3
$SG94552 DB	'PMC_To_X_B', 082H, 0ccH, 095H, 09cH, 08bH, 'A', 083H, 'R'
	DB	081H, '[', 083H, 'h', 082H, 0aaH, 08aH, 0faH, 091H, 0d2H, 092H
	DB	0caH, 082H, 0e8H, 082H, 0c5H, 082H, 0cdH, 082H, 0c8H, 082H, 0a2H
	DB	'(%d)', 00H
	ORG $+3
$SG94553 DB	'PMC_Subtruct_X_X (%d.%d)', 00H
	ORG $+3
$SG94554 DB	083H, 'f', 081H, '[', 083H, '^', 082H, 0ccH, 093H, 0e0H, 097H
	DB	'e', 082H, 0aaH, 088H, 0eaH, 092H, 'v', 082H, 0b5H, 082H, 0c8H
	DB	082H, 0a2H, 00H
	ORG $+3
$SG94555 DB	'PMC_Subtruct_X_X (%d.%d)', 00H
_DATA	ENDS
; Function compile flags: /Odt
;	COMDAT __JustMyCode_Default
_TEXT	SEGMENT
__JustMyCode_Default PROC				; COMDAT
	push	ebp
	mov	ebp, esp
	pop	ebp
	ret	0
__JustMyCode_Default ENDP
_TEXT	ENDS
; Function compile flags: /Odtp /RTCsu
; File z:\sources\lunor\repos\rougemeilland\palmtree.math.core.implements\palmtree.math.core.implements\pmc_debug.h
_TEXT	SEGMENT
_buffer1$ = 8						; size = 4
_count1$ = 12						; size = 4
_buffer2$ = 16						; size = 4
_count2$ = 20						; size = 4
__EQUALS_MEMORY PROC

; 145  : {

	push	ebp
	mov	ebp, esp
	mov	ecx, OFFSET __1C66ECB2_pmc_debug@h
	call	@__CheckForDebuggerJustMyCode@4

; 146  :     if (count1 != count2)

	mov	eax, DWORD PTR _count1$[ebp]
	cmp	eax, DWORD PTR _count2$[ebp]
	je	SHORT $LN2@EQUALS_MEM

; 147  :         return (-1);

	or	eax, -1
	jmp	SHORT $LN1@EQUALS_MEM
$LN2@EQUALS_MEM:

; 148  :     while (count1 > 0)

	cmp	DWORD PTR _count1$[ebp], 0
	jbe	SHORT $LN3@EQUALS_MEM

; 149  :     {
; 150  :         if (*buffer1 != *buffer2)

	mov	ecx, DWORD PTR _buffer1$[ebp]
	movzx	edx, BYTE PTR [ecx]
	mov	eax, DWORD PTR _buffer2$[ebp]
	movzx	ecx, BYTE PTR [eax]
	cmp	edx, ecx
	je	SHORT $LN5@EQUALS_MEM

; 151  :             return (-1);

	or	eax, -1
	jmp	SHORT $LN1@EQUALS_MEM
$LN5@EQUALS_MEM:

; 152  :         ++buffer1;

	mov	edx, DWORD PTR _buffer1$[ebp]
	add	edx, 1
	mov	DWORD PTR _buffer1$[ebp], edx

; 153  :         ++buffer2;

	mov	eax, DWORD PTR _buffer2$[ebp]
	add	eax, 1
	mov	DWORD PTR _buffer2$[ebp], eax

; 154  :         --count1;

	mov	ecx, DWORD PTR _count1$[ebp]
	sub	ecx, 1
	mov	DWORD PTR _count1$[ebp], ecx

; 155  :     }

	jmp	SHORT $LN2@EQUALS_MEM
$LN3@EQUALS_MEM:

; 156  :     return (0);

	xor	eax, eax
$LN1@EQUALS_MEM:

; 157  : }

	cmp	ebp, esp
	call	__RTC_CheckEsp
	pop	ebp
	ret	0
__EQUALS_MEMORY ENDP
_TEXT	ENDS
; Function compile flags: /Odtp /RTCsu
; File z:\sources\lunor\repos\rougemeilland\palmtree.math.core.implements\palmtree.math.core.implements\test_op_subtruct.c
_TEXT	SEGMENT
tv177 = -352						; size = 4
tv162 = -348						; size = 4
tv142 = -344						; size = 4
tv92 = -340						; size = 4
tv74 = -336						; size = 4
_z_result$ = -332					; size = 4
_y_result$ = -328					; size = 4
_x_result$ = -324					; size = 4
_result$ = -320						; size = 4
_actual_z_buf_size$ = -312				; size = 4
_actual_z_buf$ = -300					; size = 256
_z$ = -36						; size = 4
_y$ = -24						; size = 4
_x$ = -12						; size = 4
__$ArrayPad$ = -4					; size = 4
_env$ = 8						; size = 4
_ep$ = 12						; size = 4
_no$ = 16						; size = 4
_x_buf$ = 20						; size = 4
_x_buf_size$ = 24					; size = 4
_y_buf$ = 28						; size = 4
_y_buf_size$ = 32					; size = 4
_desired_result_code$ = 36				; size = 4
_desired_z_buf$ = 40					; size = 4
_desired_z_buf_size$ = 44				; size = 4
_TEST_PMC_Subtruct_X_X PROC

; 115  : {

	push	ebp
	mov	ebp, esp
	sub	esp, 352				; 00000160H
	push	esi
	push	edi
	lea	edi, DWORD PTR [ebp-352]
	mov	ecx, 88					; 00000058H
	mov	eax, -858993460				; ccccccccH
	rep stosd
	mov	eax, DWORD PTR ___security_cookie
	xor	eax, ebp
	mov	DWORD PTR __$ArrayPad$[ebp], eax
	mov	ecx, OFFSET __58741880_test_op_subtruct@c
	call	@__CheckForDebuggerJustMyCode@4

; 116  :     HANDLE x;
; 117  :     HANDLE y;
; 118  :     HANDLE z;
; 119  :     unsigned char actual_z_buf[256];
; 120  :     size_t actual_z_buf_size;
; 121  :     PMC_STATUS_CODE result;
; 122  :     PMC_STATUS_CODE x_result;
; 123  :     PMC_STATUS_CODE y_result;
; 124  :     PMC_STATUS_CODE z_result;
; 125  :     TEST_Assert(env, FormatTestLabel("PMC_Subtruct_X_X (%d.%d)", no, 1), (x_result = ep->PMC_From_B(x_buf, x_buf_size, &x)) == PMC_STATUS_OK, FormatTestMesssage("PMC_From_Bの復帰コードが期待通りではない(%d)", x_result));

	mov	esi, esp
	lea	eax, DWORD PTR _x$[ebp]
	push	eax
	mov	ecx, DWORD PTR _x_buf_size$[ebp]
	push	ecx
	mov	edx, DWORD PTR _x_buf$[ebp]
	push	edx
	mov	eax, DWORD PTR _ep$[ebp]
	mov	ecx, DWORD PTR [eax+16]
	call	ecx
	cmp	esi, esp
	call	__RTC_CheckEsp
	mov	DWORD PTR _x_result$[ebp], eax
	cmp	DWORD PTR _x_result$[ebp], 0
	jne	SHORT $LN7@TEST_PMC_S
	mov	DWORD PTR tv74[ebp], 1
	jmp	SHORT $LN8@TEST_PMC_S
$LN7@TEST_PMC_S:
	mov	DWORD PTR tv74[ebp], 0
$LN8@TEST_PMC_S:
	mov	edx, DWORD PTR _x_result$[ebp]
	push	edx
	push	OFFSET $SG94545
	call	_FormatTestMesssage
	add	esp, 8
	push	eax
	mov	eax, DWORD PTR tv74[ebp]
	push	eax
	push	1
	mov	ecx, DWORD PTR _no$[ebp]
	push	ecx
	push	OFFSET $SG94546
	call	_FormatTestLabel
	add	esp, 12					; 0000000cH
	push	eax
	mov	edx, DWORD PTR _env$[ebp]
	push	edx
	call	_TEST_Assert
	add	esp, 16					; 00000010H

; 126  :     TEST_Assert(env, FormatTestLabel("PMC_Subtruct_X_X (%d.%d)", no, 2), (y_result = ep->PMC_From_B(y_buf, y_buf_size, &y)) == PMC_STATUS_OK, FormatTestMesssage("PMC_From_Bの復帰コードが期待通りではない(%d)", y_result));

	mov	esi, esp
	lea	eax, DWORD PTR _y$[ebp]
	push	eax
	mov	ecx, DWORD PTR _y_buf_size$[ebp]
	push	ecx
	mov	edx, DWORD PTR _y_buf$[ebp]
	push	edx
	mov	eax, DWORD PTR _ep$[ebp]
	mov	ecx, DWORD PTR [eax+16]
	call	ecx
	cmp	esi, esp
	call	__RTC_CheckEsp
	mov	DWORD PTR _y_result$[ebp], eax
	cmp	DWORD PTR _y_result$[ebp], 0
	jne	SHORT $LN9@TEST_PMC_S
	mov	DWORD PTR tv92[ebp], 1
	jmp	SHORT $LN10@TEST_PMC_S
$LN9@TEST_PMC_S:
	mov	DWORD PTR tv92[ebp], 0
$LN10@TEST_PMC_S:
	mov	edx, DWORD PTR _y_result$[ebp]
	push	edx
	push	OFFSET $SG94547
	call	_FormatTestMesssage
	add	esp, 8
	push	eax
	mov	eax, DWORD PTR tv92[ebp]
	push	eax
	push	2
	mov	ecx, DWORD PTR _no$[ebp]
	push	ecx
	push	OFFSET $SG94548
	call	_FormatTestLabel
	add	esp, 12					; 0000000cH
	push	eax
	mov	edx, DWORD PTR _env$[ebp]
	push	edx
	call	_TEST_Assert
	add	esp, 16					; 00000010H

; 127  :     TEST_Assert(env, FormatTestLabel("PMC_Subtruct_X_X (%d.%d)", no, 3), (z_result = ep->PMC_Subtruct_X_X(x, y, &z)) == desired_result_code, FormatTestMesssage("PMC_Subtruct_X_Xの復帰コードが期待通りではない(%d)", z_result));

	mov	esi, esp
	lea	eax, DWORD PTR _z$[ebp]
	push	eax
	mov	ecx, DWORD PTR _y$[ebp]
	push	ecx
	mov	edx, DWORD PTR _x$[ebp]
	push	edx
	mov	eax, DWORD PTR _ep$[ebp]
	mov	ecx, DWORD PTR [eax+80]
	call	ecx
	cmp	esi, esp
	call	__RTC_CheckEsp
	mov	DWORD PTR _z_result$[ebp], eax
	mov	edx, DWORD PTR _z_result$[ebp]
	cmp	edx, DWORD PTR _desired_result_code$[ebp]
	jne	SHORT $LN11@TEST_PMC_S
	mov	DWORD PTR tv142[ebp], 1
	jmp	SHORT $LN12@TEST_PMC_S
$LN11@TEST_PMC_S:
	mov	DWORD PTR tv142[ebp], 0
$LN12@TEST_PMC_S:
	mov	eax, DWORD PTR _z_result$[ebp]
	push	eax
	push	OFFSET $SG94549
	call	_FormatTestMesssage
	add	esp, 8
	push	eax
	mov	ecx, DWORD PTR tv142[ebp]
	push	ecx
	push	3
	mov	edx, DWORD PTR _no$[ebp]
	push	edx
	push	OFFSET $SG94550
	call	_FormatTestLabel
	add	esp, 12					; 0000000cH
	push	eax
	mov	eax, DWORD PTR _env$[ebp]
	push	eax
	call	_TEST_Assert
	add	esp, 16					; 00000010H

; 128  :     if (desired_result_code == PMC_STATUS_OK)

	cmp	DWORD PTR _desired_result_code$[ebp], 0
	jne	$LN2@TEST_PMC_S

; 129  :     {
; 130  :         TEST_Assert(env, FormatTestLabel("PMC_Subtruct_X_X (%d.%d)", no, 4), (result = ep->PMC_To_X_B(z, actual_z_buf, sizeof(actual_z_buf), &actual_z_buf_size)) == PMC_STATUS_OK, FormatTestMesssage("PMC_To_X_Bの復帰コードが期待通りではない(%d)", result));

	mov	esi, esp
	lea	ecx, DWORD PTR _actual_z_buf_size$[ebp]
	push	ecx
	push	256					; 00000100H
	lea	edx, DWORD PTR _actual_z_buf$[ebp]
	push	edx
	mov	eax, DWORD PTR _z$[ebp]
	push	eax
	mov	ecx, DWORD PTR _ep$[ebp]
	mov	edx, DWORD PTR [ecx+32]
	call	edx
	cmp	esi, esp
	call	__RTC_CheckEsp
	mov	DWORD PTR _result$[ebp], eax
	cmp	DWORD PTR _result$[ebp], 0
	jne	SHORT $LN13@TEST_PMC_S
	mov	DWORD PTR tv162[ebp], 1
	jmp	SHORT $LN14@TEST_PMC_S
$LN13@TEST_PMC_S:
	mov	DWORD PTR tv162[ebp], 0
$LN14@TEST_PMC_S:
	mov	eax, DWORD PTR _result$[ebp]
	push	eax
	push	OFFSET $SG94552
	call	_FormatTestMesssage
	add	esp, 8
	push	eax
	mov	ecx, DWORD PTR tv162[ebp]
	push	ecx
	push	4
	mov	edx, DWORD PTR _no$[ebp]
	push	edx
	push	OFFSET $SG94553
	call	_FormatTestLabel
	add	esp, 12					; 0000000cH
	push	eax
	mov	eax, DWORD PTR _env$[ebp]
	push	eax
	call	_TEST_Assert
	add	esp, 16					; 00000010H

; 131  :         TEST_Assert(env, FormatTestLabel("PMC_Subtruct_X_X (%d.%d)", no, 5), _EQUALS_MEMORY(actual_z_buf, actual_z_buf_size, desired_z_buf, desired_z_buf_size) == 0, "データの内容が一致しない");

	mov	ecx, DWORD PTR _desired_z_buf_size$[ebp]
	push	ecx
	mov	edx, DWORD PTR _desired_z_buf$[ebp]
	push	edx
	mov	eax, DWORD PTR _actual_z_buf_size$[ebp]
	push	eax
	lea	ecx, DWORD PTR _actual_z_buf$[ebp]
	push	ecx
	call	__EQUALS_MEMORY
	add	esp, 16					; 00000010H
	test	eax, eax
	jne	SHORT $LN15@TEST_PMC_S
	mov	DWORD PTR tv177[ebp], 1
	jmp	SHORT $LN16@TEST_PMC_S
$LN15@TEST_PMC_S:
	mov	DWORD PTR tv177[ebp], 0
$LN16@TEST_PMC_S:
	push	OFFSET $SG94554
	mov	edx, DWORD PTR tv177[ebp]
	push	edx
	push	5
	mov	eax, DWORD PTR _no$[ebp]
	push	eax
	push	OFFSET $SG94555
	call	_FormatTestLabel
	add	esp, 12					; 0000000cH
	push	eax
	mov	ecx, DWORD PTR _env$[ebp]
	push	ecx
	call	_TEST_Assert
	add	esp, 16					; 00000010H
$LN2@TEST_PMC_S:

; 132  :     }
; 133  :     if (z_result == PMC_STATUS_OK)

	cmp	DWORD PTR _z_result$[ebp], 0
	jne	SHORT $LN3@TEST_PMC_S

; 134  :         ep->PMC_Dispose(z);

	mov	esi, esp
	mov	edx, DWORD PTR _z$[ebp]
	push	edx
	mov	eax, DWORD PTR _ep$[ebp]
	mov	ecx, DWORD PTR [eax+20]
	call	ecx
	cmp	esi, esp
	call	__RTC_CheckEsp
$LN3@TEST_PMC_S:

; 135  :     if (y_result == PMC_STATUS_OK)

	cmp	DWORD PTR _y_result$[ebp], 0
	jne	SHORT $LN4@TEST_PMC_S

; 136  :         ep->PMC_Dispose(y);

	mov	esi, esp
	mov	edx, DWORD PTR _y$[ebp]
	push	edx
	mov	eax, DWORD PTR _ep$[ebp]
	mov	ecx, DWORD PTR [eax+20]
	call	ecx
	cmp	esi, esp
	call	__RTC_CheckEsp
$LN4@TEST_PMC_S:

; 137  :     if (x_result == PMC_STATUS_OK)

	cmp	DWORD PTR _x_result$[ebp], 0
	jne	SHORT $LN1@TEST_PMC_S

; 138  :         ep->PMC_Dispose(x);

	mov	esi, esp
	mov	edx, DWORD PTR _x$[ebp]
	push	edx
	mov	eax, DWORD PTR _ep$[ebp]
	mov	ecx, DWORD PTR [eax+20]
	call	ecx
	cmp	esi, esp
	call	__RTC_CheckEsp
$LN1@TEST_PMC_S:

; 139  : }

	push	edx
	mov	ecx, ebp
	push	eax
	lea	edx, DWORD PTR $LN23@TEST_PMC_S
	call	@_RTC_CheckStackVars@8
	pop	eax
	pop	edx
	pop	edi
	pop	esi
	mov	ecx, DWORD PTR __$ArrayPad$[ebp]
	xor	ecx, ebp
	call	@__security_check_cookie@4
	add	esp, 352				; 00000160H
	cmp	ebp, esp
	call	__RTC_CheckEsp
	mov	esp, ebp
	pop	ebp
	ret	0
$LN23@TEST_PMC_S:
	DD	5
	DD	$LN22@TEST_PMC_S
$LN22@TEST_PMC_S:
	DD	-12					; fffffff4H
	DD	4
	DD	$LN17@TEST_PMC_S
	DD	-24					; ffffffe8H
	DD	4
	DD	$LN18@TEST_PMC_S
	DD	-36					; ffffffdcH
	DD	4
	DD	$LN19@TEST_PMC_S
	DD	-300					; fffffed4H
	DD	256					; 00000100H
	DD	$LN20@TEST_PMC_S
	DD	-312					; fffffec8H
	DD	4
	DD	$LN21@TEST_PMC_S
$LN21@TEST_PMC_S:
	DB	97					; 00000061H
	DB	99					; 00000063H
	DB	116					; 00000074H
	DB	117					; 00000075H
	DB	97					; 00000061H
	DB	108					; 0000006cH
	DB	95					; 0000005fH
	DB	122					; 0000007aH
	DB	95					; 0000005fH
	DB	98					; 00000062H
	DB	117					; 00000075H
	DB	102					; 00000066H
	DB	95					; 0000005fH
	DB	115					; 00000073H
	DB	105					; 00000069H
	DB	122					; 0000007aH
	DB	101					; 00000065H
	DB	0
$LN20@TEST_PMC_S:
	DB	97					; 00000061H
	DB	99					; 00000063H
	DB	116					; 00000074H
	DB	117					; 00000075H
	DB	97					; 00000061H
	DB	108					; 0000006cH
	DB	95					; 0000005fH
	DB	122					; 0000007aH
	DB	95					; 0000005fH
	DB	98					; 00000062H
	DB	117					; 00000075H
	DB	102					; 00000066H
	DB	0
$LN19@TEST_PMC_S:
	DB	122					; 0000007aH
	DB	0
$LN18@TEST_PMC_S:
	DB	121					; 00000079H
	DB	0
$LN17@TEST_PMC_S:
	DB	120					; 00000078H
	DB	0
_TEST_PMC_Subtruct_X_X ENDP
_TEXT	ENDS
; Function compile flags: /Odtp /RTCsu
; File z:\sources\lunor\repos\rougemeilland\palmtree.math.core.implements\palmtree.math.core.implements\test_op_subtruct.c
_TEXT	SEGMENT
tv159 = -332						; size = 4
tv144 = -328						; size = 4
tv92 = -324						; size = 4
tv74 = -320						; size = 4
_z_result$ = -316					; size = 4
_x_result$ = -312					; size = 4
_result$ = -308						; size = 4
_actual_z_buf_size$ = -300				; size = 4
_actual_z_buf$ = -288					; size = 256
_z$ = -24						; size = 4
_x$ = -12						; size = 4
__$ArrayPad$ = -4					; size = 4
_env$ = 8						; size = 4
_ep$ = 12						; size = 4
_no$ = 16						; size = 4
_x_buf$ = 20						; size = 4
_x_buf_size$ = 24					; size = 4
_y$ = 28						; size = 8
_desired_result_code$ = 36				; size = 4
_desired_z_buf$ = 40					; size = 4
_desired_z_buf_size$ = 44				; size = 4
_TEST_PMC_Subtruct_X_L PROC

; 93   : {

	push	ebp
	mov	ebp, esp
	sub	esp, 332				; 0000014cH
	push	esi
	push	edi
	lea	edi, DWORD PTR [ebp-332]
	mov	ecx, 83					; 00000053H
	mov	eax, -858993460				; ccccccccH
	rep stosd
	mov	eax, DWORD PTR ___security_cookie
	xor	eax, ebp
	mov	DWORD PTR __$ArrayPad$[ebp], eax
	mov	ecx, OFFSET __58741880_test_op_subtruct@c
	call	@__CheckForDebuggerJustMyCode@4

; 94   :     HANDLE x;
; 95   :     HANDLE z;
; 96   :     unsigned char actual_z_buf[256];
; 97   :     size_t actual_z_buf_size;
; 98   :     PMC_STATUS_CODE result;
; 99   :     PMC_STATUS_CODE x_result;
; 100  :     PMC_STATUS_CODE z_result;
; 101  :     TEST_Assert(env, FormatTestLabel("PMC_Subtruct_X_L (%d.%d)", no, 1), (x_result = ep->PMC_From_B(x_buf, x_buf_size, &x)) == PMC_STATUS_OK, FormatTestMesssage("PMC_From_Bの復帰コードが期待通りではない(%d)", x_result));

	mov	esi, esp
	lea	eax, DWORD PTR _x$[ebp]
	push	eax
	mov	ecx, DWORD PTR _x_buf_size$[ebp]
	push	ecx
	mov	edx, DWORD PTR _x_buf$[ebp]
	push	edx
	mov	eax, DWORD PTR _ep$[ebp]
	mov	ecx, DWORD PTR [eax+16]
	call	ecx
	cmp	esi, esp
	call	__RTC_CheckEsp
	mov	DWORD PTR _x_result$[ebp], eax
	cmp	DWORD PTR _x_result$[ebp], 0
	jne	SHORT $LN6@TEST_PMC_S
	mov	DWORD PTR tv74[ebp], 1
	jmp	SHORT $LN7@TEST_PMC_S
$LN6@TEST_PMC_S:
	mov	DWORD PTR tv74[ebp], 0
$LN7@TEST_PMC_S:
	mov	edx, DWORD PTR _x_result$[ebp]
	push	edx
	push	OFFSET $SG94504
	call	_FormatTestMesssage
	add	esp, 8
	push	eax
	mov	eax, DWORD PTR tv74[ebp]
	push	eax
	push	1
	mov	ecx, DWORD PTR _no$[ebp]
	push	ecx
	push	OFFSET $SG94505
	call	_FormatTestLabel
	add	esp, 12					; 0000000cH
	push	eax
	mov	edx, DWORD PTR _env$[ebp]
	push	edx
	call	_TEST_Assert
	add	esp, 16					; 00000010H

; 102  :     TEST_Assert(env, FormatTestLabel("PMC_Subtruct_X_L (%d.%d)", no, 2), (z_result = ep->PMC_Subtruct_X_L(x, y, &z)) == desired_result_code, FormatTestMesssage("PMC_Subtruct_X_Lの復帰コードが期待通りではない(%d)", z_result));

	mov	esi, esp
	lea	eax, DWORD PTR _z$[ebp]
	push	eax
	mov	ecx, DWORD PTR _y$[ebp+4]
	push	ecx
	mov	edx, DWORD PTR _y$[ebp]
	push	edx
	mov	eax, DWORD PTR _x$[ebp]
	push	eax
	mov	ecx, DWORD PTR _ep$[ebp]
	mov	edx, DWORD PTR [ecx+76]
	call	edx
	cmp	esi, esp
	call	__RTC_CheckEsp
	mov	DWORD PTR _z_result$[ebp], eax
	mov	eax, DWORD PTR _z_result$[ebp]
	cmp	eax, DWORD PTR _desired_result_code$[ebp]
	jne	SHORT $LN8@TEST_PMC_S
	mov	DWORD PTR tv92[ebp], 1
	jmp	SHORT $LN9@TEST_PMC_S
$LN8@TEST_PMC_S:
	mov	DWORD PTR tv92[ebp], 0
$LN9@TEST_PMC_S:
	mov	ecx, DWORD PTR _z_result$[ebp]
	push	ecx
	push	OFFSET $SG94506
	call	_FormatTestMesssage
	add	esp, 8
	push	eax
	mov	edx, DWORD PTR tv92[ebp]
	push	edx
	push	2
	mov	eax, DWORD PTR _no$[ebp]
	push	eax
	push	OFFSET $SG94507
	call	_FormatTestLabel
	add	esp, 12					; 0000000cH
	push	eax
	mov	ecx, DWORD PTR _env$[ebp]
	push	ecx
	call	_TEST_Assert
	add	esp, 16					; 00000010H

; 103  :     if (desired_result_code == PMC_STATUS_OK)

	cmp	DWORD PTR _desired_result_code$[ebp], 0
	jne	$LN2@TEST_PMC_S

; 104  :     {
; 105  :         TEST_Assert(env, FormatTestLabel("PMC_Subtruct_X_L (%d.%d)", no, 3), (result = ep->PMC_To_X_B(z, actual_z_buf, sizeof(actual_z_buf), &actual_z_buf_size)) == PMC_STATUS_OK, FormatTestMesssage("PMC_To_X_Bの復帰コードが期待通りではない(%d)", result));

	mov	esi, esp
	lea	edx, DWORD PTR _actual_z_buf_size$[ebp]
	push	edx
	push	256					; 00000100H
	lea	eax, DWORD PTR _actual_z_buf$[ebp]
	push	eax
	mov	ecx, DWORD PTR _z$[ebp]
	push	ecx
	mov	edx, DWORD PTR _ep$[ebp]
	mov	eax, DWORD PTR [edx+32]
	call	eax
	cmp	esi, esp
	call	__RTC_CheckEsp
	mov	DWORD PTR _result$[ebp], eax
	cmp	DWORD PTR _result$[ebp], 0
	jne	SHORT $LN10@TEST_PMC_S
	mov	DWORD PTR tv144[ebp], 1
	jmp	SHORT $LN11@TEST_PMC_S
$LN10@TEST_PMC_S:
	mov	DWORD PTR tv144[ebp], 0
$LN11@TEST_PMC_S:
	mov	ecx, DWORD PTR _result$[ebp]
	push	ecx
	push	OFFSET $SG94509
	call	_FormatTestMesssage
	add	esp, 8
	push	eax
	mov	edx, DWORD PTR tv144[ebp]
	push	edx
	push	3
	mov	eax, DWORD PTR _no$[ebp]
	push	eax
	push	OFFSET $SG94510
	call	_FormatTestLabel
	add	esp, 12					; 0000000cH
	push	eax
	mov	ecx, DWORD PTR _env$[ebp]
	push	ecx
	call	_TEST_Assert
	add	esp, 16					; 00000010H

; 106  :         TEST_Assert(env, FormatTestLabel("PMC_Subtruct_X_L (%d.%d)", no, 4), _EQUALS_MEMORY(actual_z_buf, actual_z_buf_size, desired_z_buf, desired_z_buf_size) == 0, "データの内容が一致しない");

	mov	edx, DWORD PTR _desired_z_buf_size$[ebp]
	push	edx
	mov	eax, DWORD PTR _desired_z_buf$[ebp]
	push	eax
	mov	ecx, DWORD PTR _actual_z_buf_size$[ebp]
	push	ecx
	lea	edx, DWORD PTR _actual_z_buf$[ebp]
	push	edx
	call	__EQUALS_MEMORY
	add	esp, 16					; 00000010H
	test	eax, eax
	jne	SHORT $LN12@TEST_PMC_S
	mov	DWORD PTR tv159[ebp], 1
	jmp	SHORT $LN13@TEST_PMC_S
$LN12@TEST_PMC_S:
	mov	DWORD PTR tv159[ebp], 0
$LN13@TEST_PMC_S:
	push	OFFSET $SG94511
	mov	eax, DWORD PTR tv159[ebp]
	push	eax
	push	4
	mov	ecx, DWORD PTR _no$[ebp]
	push	ecx
	push	OFFSET $SG94512
	call	_FormatTestLabel
	add	esp, 12					; 0000000cH
	push	eax
	mov	edx, DWORD PTR _env$[ebp]
	push	edx
	call	_TEST_Assert
	add	esp, 16					; 00000010H
$LN2@TEST_PMC_S:

; 107  :     }
; 108  :     if (z_result == PMC_STATUS_OK)

	cmp	DWORD PTR _z_result$[ebp], 0
	jne	SHORT $LN3@TEST_PMC_S

; 109  :         ep->PMC_Dispose(z);

	mov	esi, esp
	mov	eax, DWORD PTR _z$[ebp]
	push	eax
	mov	ecx, DWORD PTR _ep$[ebp]
	mov	edx, DWORD PTR [ecx+20]
	call	edx
	cmp	esi, esp
	call	__RTC_CheckEsp
$LN3@TEST_PMC_S:

; 110  :     if (x_result == PMC_STATUS_OK)

	cmp	DWORD PTR _x_result$[ebp], 0
	jne	SHORT $LN1@TEST_PMC_S

; 111  :         ep->PMC_Dispose(x);

	mov	esi, esp
	mov	eax, DWORD PTR _x$[ebp]
	push	eax
	mov	ecx, DWORD PTR _ep$[ebp]
	mov	edx, DWORD PTR [ecx+20]
	call	edx
	cmp	esi, esp
	call	__RTC_CheckEsp
$LN1@TEST_PMC_S:

; 112  : }

	push	edx
	mov	ecx, ebp
	push	eax
	lea	edx, DWORD PTR $LN19@TEST_PMC_S
	call	@_RTC_CheckStackVars@8
	pop	eax
	pop	edx
	pop	edi
	pop	esi
	mov	ecx, DWORD PTR __$ArrayPad$[ebp]
	xor	ecx, ebp
	call	@__security_check_cookie@4
	add	esp, 332				; 0000014cH
	cmp	ebp, esp
	call	__RTC_CheckEsp
	mov	esp, ebp
	pop	ebp
	ret	0
$LN19@TEST_PMC_S:
	DD	4
	DD	$LN18@TEST_PMC_S
$LN18@TEST_PMC_S:
	DD	-12					; fffffff4H
	DD	4
	DD	$LN14@TEST_PMC_S
	DD	-24					; ffffffe8H
	DD	4
	DD	$LN15@TEST_PMC_S
	DD	-288					; fffffee0H
	DD	256					; 00000100H
	DD	$LN16@TEST_PMC_S
	DD	-300					; fffffed4H
	DD	4
	DD	$LN17@TEST_PMC_S
$LN17@TEST_PMC_S:
	DB	97					; 00000061H
	DB	99					; 00000063H
	DB	116					; 00000074H
	DB	117					; 00000075H
	DB	97					; 00000061H
	DB	108					; 0000006cH
	DB	95					; 0000005fH
	DB	122					; 0000007aH
	DB	95					; 0000005fH
	DB	98					; 00000062H
	DB	117					; 00000075H
	DB	102					; 00000066H
	DB	95					; 0000005fH
	DB	115					; 00000073H
	DB	105					; 00000069H
	DB	122					; 0000007aH
	DB	101					; 00000065H
	DB	0
$LN16@TEST_PMC_S:
	DB	97					; 00000061H
	DB	99					; 00000063H
	DB	116					; 00000074H
	DB	117					; 00000075H
	DB	97					; 00000061H
	DB	108					; 0000006cH
	DB	95					; 0000005fH
	DB	122					; 0000007aH
	DB	95					; 0000005fH
	DB	98					; 00000062H
	DB	117					; 00000075H
	DB	102					; 00000066H
	DB	0
$LN15@TEST_PMC_S:
	DB	122					; 0000007aH
	DB	0
$LN14@TEST_PMC_S:
	DB	120					; 00000078H
	DB	0
_TEST_PMC_Subtruct_X_L ENDP
_TEXT	ENDS
; Function compile flags: /Odtp /RTCsu
; File z:\sources\lunor\repos\rougemeilland\palmtree.math.core.implements\palmtree.math.core.implements\test_op_subtruct.c
_TEXT	SEGMENT
tv159 = -332						; size = 4
tv144 = -328						; size = 4
tv92 = -324						; size = 4
tv74 = -320						; size = 4
_z_result$ = -316					; size = 4
_x_result$ = -312					; size = 4
_result$ = -308						; size = 4
_actual_z_buf_size$ = -300				; size = 4
_actual_z_buf$ = -288					; size = 256
_z$ = -24						; size = 4
_x$ = -12						; size = 4
__$ArrayPad$ = -4					; size = 4
_env$ = 8						; size = 4
_ep$ = 12						; size = 4
_no$ = 16						; size = 4
_x_buf$ = 20						; size = 4
_x_buf_size$ = 24					; size = 4
_y$ = 28						; size = 4
_desired_result_code$ = 32				; size = 4
_desired_z_buf$ = 36					; size = 4
_desired_z_buf_size$ = 40				; size = 4
_TEST_PMC_Subtruct_X_I PROC

; 71   : {

	push	ebp
	mov	ebp, esp
	sub	esp, 332				; 0000014cH
	push	esi
	push	edi
	lea	edi, DWORD PTR [ebp-332]
	mov	ecx, 83					; 00000053H
	mov	eax, -858993460				; ccccccccH
	rep stosd
	mov	eax, DWORD PTR ___security_cookie
	xor	eax, ebp
	mov	DWORD PTR __$ArrayPad$[ebp], eax
	mov	ecx, OFFSET __58741880_test_op_subtruct@c
	call	@__CheckForDebuggerJustMyCode@4

; 72   :     HANDLE x;
; 73   :     HANDLE z;
; 74   :     unsigned char actual_z_buf[256];
; 75   :     size_t actual_z_buf_size;
; 76   :     PMC_STATUS_CODE result;
; 77   :     PMC_STATUS_CODE x_result;
; 78   :     PMC_STATUS_CODE z_result;
; 79   :     TEST_Assert(env, FormatTestLabel("PMC_Subtruct_X_I (%d.%d)", no, 1), (x_result = ep->PMC_From_B(x_buf, x_buf_size, &x)) == PMC_STATUS_OK, FormatTestMesssage("PMC_From_Bの復帰コードが期待通りではない(%d)", x_result));

	mov	esi, esp
	lea	eax, DWORD PTR _x$[ebp]
	push	eax
	mov	ecx, DWORD PTR _x_buf_size$[ebp]
	push	ecx
	mov	edx, DWORD PTR _x_buf$[ebp]
	push	edx
	mov	eax, DWORD PTR _ep$[ebp]
	mov	ecx, DWORD PTR [eax+16]
	call	ecx
	cmp	esi, esp
	call	__RTC_CheckEsp
	mov	DWORD PTR _x_result$[ebp], eax
	cmp	DWORD PTR _x_result$[ebp], 0
	jne	SHORT $LN6@TEST_PMC_S
	mov	DWORD PTR tv74[ebp], 1
	jmp	SHORT $LN7@TEST_PMC_S
$LN6@TEST_PMC_S:
	mov	DWORD PTR tv74[ebp], 0
$LN7@TEST_PMC_S:
	mov	edx, DWORD PTR _x_result$[ebp]
	push	edx
	push	OFFSET $SG94467
	call	_FormatTestMesssage
	add	esp, 8
	push	eax
	mov	eax, DWORD PTR tv74[ebp]
	push	eax
	push	1
	mov	ecx, DWORD PTR _no$[ebp]
	push	ecx
	push	OFFSET $SG94468
	call	_FormatTestLabel
	add	esp, 12					; 0000000cH
	push	eax
	mov	edx, DWORD PTR _env$[ebp]
	push	edx
	call	_TEST_Assert
	add	esp, 16					; 00000010H

; 80   :     TEST_Assert(env, FormatTestLabel("PMC_Subtruct_X_I (%d.%d)", no, 2), (z_result = ep->PMC_Subtruct_X_I(x, y, &z)) == desired_result_code, FormatTestMesssage("PMC_Subtruct_X_Iの復帰コードが期待通りではない(%d)", z_result));

	mov	esi, esp
	lea	eax, DWORD PTR _z$[ebp]
	push	eax
	mov	ecx, DWORD PTR _y$[ebp]
	push	ecx
	mov	edx, DWORD PTR _x$[ebp]
	push	edx
	mov	eax, DWORD PTR _ep$[ebp]
	mov	ecx, DWORD PTR [eax+72]
	call	ecx
	cmp	esi, esp
	call	__RTC_CheckEsp
	mov	DWORD PTR _z_result$[ebp], eax
	mov	edx, DWORD PTR _z_result$[ebp]
	cmp	edx, DWORD PTR _desired_result_code$[ebp]
	jne	SHORT $LN8@TEST_PMC_S
	mov	DWORD PTR tv92[ebp], 1
	jmp	SHORT $LN9@TEST_PMC_S
$LN8@TEST_PMC_S:
	mov	DWORD PTR tv92[ebp], 0
$LN9@TEST_PMC_S:
	mov	eax, DWORD PTR _z_result$[ebp]
	push	eax
	push	OFFSET $SG94469
	call	_FormatTestMesssage
	add	esp, 8
	push	eax
	mov	ecx, DWORD PTR tv92[ebp]
	push	ecx
	push	2
	mov	edx, DWORD PTR _no$[ebp]
	push	edx
	push	OFFSET $SG94470
	call	_FormatTestLabel
	add	esp, 12					; 0000000cH
	push	eax
	mov	eax, DWORD PTR _env$[ebp]
	push	eax
	call	_TEST_Assert
	add	esp, 16					; 00000010H

; 81   :     if (desired_result_code == PMC_STATUS_OK)

	cmp	DWORD PTR _desired_result_code$[ebp], 0
	jne	$LN2@TEST_PMC_S

; 82   :     {
; 83   :         TEST_Assert(env, FormatTestLabel("PMC_Subtruct_X_I (%d.%d)", no, 3), (result = ep->PMC_To_X_B(z, actual_z_buf, sizeof(actual_z_buf), &actual_z_buf_size)) == PMC_STATUS_OK, FormatTestMesssage("PMC_To_X_Bの復帰コードが期待通りではない(%d)", result));

	mov	esi, esp
	lea	ecx, DWORD PTR _actual_z_buf_size$[ebp]
	push	ecx
	push	256					; 00000100H
	lea	edx, DWORD PTR _actual_z_buf$[ebp]
	push	edx
	mov	eax, DWORD PTR _z$[ebp]
	push	eax
	mov	ecx, DWORD PTR _ep$[ebp]
	mov	edx, DWORD PTR [ecx+32]
	call	edx
	cmp	esi, esp
	call	__RTC_CheckEsp
	mov	DWORD PTR _result$[ebp], eax
	cmp	DWORD PTR _result$[ebp], 0
	jne	SHORT $LN10@TEST_PMC_S
	mov	DWORD PTR tv144[ebp], 1
	jmp	SHORT $LN11@TEST_PMC_S
$LN10@TEST_PMC_S:
	mov	DWORD PTR tv144[ebp], 0
$LN11@TEST_PMC_S:
	mov	eax, DWORD PTR _result$[ebp]
	push	eax
	push	OFFSET $SG94472
	call	_FormatTestMesssage
	add	esp, 8
	push	eax
	mov	ecx, DWORD PTR tv144[ebp]
	push	ecx
	push	3
	mov	edx, DWORD PTR _no$[ebp]
	push	edx
	push	OFFSET $SG94473
	call	_FormatTestLabel
	add	esp, 12					; 0000000cH
	push	eax
	mov	eax, DWORD PTR _env$[ebp]
	push	eax
	call	_TEST_Assert
	add	esp, 16					; 00000010H

; 84   :         TEST_Assert(env, FormatTestLabel("PMC_Subtruct_X_I (%d.%d)", no, 4), _EQUALS_MEMORY(actual_z_buf, actual_z_buf_size, desired_z_buf, desired_z_buf_size) == 0, "データの内容が一致しない");

	mov	ecx, DWORD PTR _desired_z_buf_size$[ebp]
	push	ecx
	mov	edx, DWORD PTR _desired_z_buf$[ebp]
	push	edx
	mov	eax, DWORD PTR _actual_z_buf_size$[ebp]
	push	eax
	lea	ecx, DWORD PTR _actual_z_buf$[ebp]
	push	ecx
	call	__EQUALS_MEMORY
	add	esp, 16					; 00000010H
	test	eax, eax
	jne	SHORT $LN12@TEST_PMC_S
	mov	DWORD PTR tv159[ebp], 1
	jmp	SHORT $LN13@TEST_PMC_S
$LN12@TEST_PMC_S:
	mov	DWORD PTR tv159[ebp], 0
$LN13@TEST_PMC_S:
	push	OFFSET $SG94474
	mov	edx, DWORD PTR tv159[ebp]
	push	edx
	push	4
	mov	eax, DWORD PTR _no$[ebp]
	push	eax
	push	OFFSET $SG94475
	call	_FormatTestLabel
	add	esp, 12					; 0000000cH
	push	eax
	mov	ecx, DWORD PTR _env$[ebp]
	push	ecx
	call	_TEST_Assert
	add	esp, 16					; 00000010H
$LN2@TEST_PMC_S:

; 85   :     }
; 86   :     if (z_result == PMC_STATUS_OK)

	cmp	DWORD PTR _z_result$[ebp], 0
	jne	SHORT $LN3@TEST_PMC_S

; 87   :         ep->PMC_Dispose(z);

	mov	esi, esp
	mov	edx, DWORD PTR _z$[ebp]
	push	edx
	mov	eax, DWORD PTR _ep$[ebp]
	mov	ecx, DWORD PTR [eax+20]
	call	ecx
	cmp	esi, esp
	call	__RTC_CheckEsp
$LN3@TEST_PMC_S:

; 88   :     if (x_result == PMC_STATUS_OK)

	cmp	DWORD PTR _x_result$[ebp], 0
	jne	SHORT $LN1@TEST_PMC_S

; 89   :         ep->PMC_Dispose(x);

	mov	esi, esp
	mov	edx, DWORD PTR _x$[ebp]
	push	edx
	mov	eax, DWORD PTR _ep$[ebp]
	mov	ecx, DWORD PTR [eax+20]
	call	ecx
	cmp	esi, esp
	call	__RTC_CheckEsp
$LN1@TEST_PMC_S:

; 90   : }

	push	edx
	mov	ecx, ebp
	push	eax
	lea	edx, DWORD PTR $LN19@TEST_PMC_S
	call	@_RTC_CheckStackVars@8
	pop	eax
	pop	edx
	pop	edi
	pop	esi
	mov	ecx, DWORD PTR __$ArrayPad$[ebp]
	xor	ecx, ebp
	call	@__security_check_cookie@4
	add	esp, 332				; 0000014cH
	cmp	ebp, esp
	call	__RTC_CheckEsp
	mov	esp, ebp
	pop	ebp
	ret	0
$LN19@TEST_PMC_S:
	DD	4
	DD	$LN18@TEST_PMC_S
$LN18@TEST_PMC_S:
	DD	-12					; fffffff4H
	DD	4
	DD	$LN14@TEST_PMC_S
	DD	-24					; ffffffe8H
	DD	4
	DD	$LN15@TEST_PMC_S
	DD	-288					; fffffee0H
	DD	256					; 00000100H
	DD	$LN16@TEST_PMC_S
	DD	-300					; fffffed4H
	DD	4
	DD	$LN17@TEST_PMC_S
$LN17@TEST_PMC_S:
	DB	97					; 00000061H
	DB	99					; 00000063H
	DB	116					; 00000074H
	DB	117					; 00000075H
	DB	97					; 00000061H
	DB	108					; 0000006cH
	DB	95					; 0000005fH
	DB	122					; 0000007aH
	DB	95					; 0000005fH
	DB	98					; 00000062H
	DB	117					; 00000075H
	DB	102					; 00000066H
	DB	95					; 0000005fH
	DB	115					; 00000073H
	DB	105					; 00000069H
	DB	122					; 0000007aH
	DB	101					; 00000065H
	DB	0
$LN16@TEST_PMC_S:
	DB	97					; 00000061H
	DB	99					; 00000063H
	DB	116					; 00000074H
	DB	117					; 00000075H
	DB	97					; 00000061H
	DB	108					; 0000006cH
	DB	95					; 0000005fH
	DB	122					; 0000007aH
	DB	95					; 0000005fH
	DB	98					; 00000062H
	DB	117					; 00000075H
	DB	102					; 00000066H
	DB	0
$LN15@TEST_PMC_S:
	DB	122					; 0000007aH
	DB	0
$LN14@TEST_PMC_S:
	DB	120					; 00000078H
	DB	0
_TEST_PMC_Subtruct_X_I ENDP
_TEXT	ENDS
; Function compile flags: /Odtp /RTCsu
; File z:\sources\lunor\repos\rougemeilland\palmtree.math.core.implements\palmtree.math.core.implements\test_op_subtruct.c
_TEXT	SEGMENT
tv135 = -48						; size = 4
tv92 = -44						; size = 4
tv74 = -40						; size = 4
_v_result$ = -36					; size = 4
_result$ = -32						; size = 4
_actual_w$ = -24					; size = 8
_v$ = -8						; size = 4
_env$ = 8						; size = 4
_ep$ = 12						; size = 4
_no$ = 16						; size = 4
_u$ = 20						; size = 8
_v_buf$ = 28						; size = 4
_v_buf_size$ = 32					; size = 4
_desired_result_code$ = 36				; size = 4
_desired_w$ = 40					; size = 8
_TEST_PMC_Subtruct_L_X PROC

; 55   : {

	push	ebp
	mov	ebp, esp
	sub	esp, 48					; 00000030H
	push	esi
	push	edi
	lea	edi, DWORD PTR [ebp-48]
	mov	ecx, 12					; 0000000cH
	mov	eax, -858993460				; ccccccccH
	rep stosd
	mov	ecx, OFFSET __58741880_test_op_subtruct@c
	call	@__CheckForDebuggerJustMyCode@4

; 56   :     HANDLE v;
; 57   :     unsigned __int64 actual_w;
; 58   :     PMC_STATUS_CODE result;
; 59   :     PMC_STATUS_CODE v_result;
; 60   :     TEST_Assert(env, FormatTestLabel("PMC_Subtruct_L_X (%d.%d)", no, 1), (v_result = ep->PMC_From_B(v_buf, v_buf_size, &v)) == PMC_STATUS_OK, FormatTestMesssage("PMC_From_Bの復帰コードが期待通りではない(%d)", v_result));

	mov	esi, esp
	lea	eax, DWORD PTR _v$[ebp]
	push	eax
	mov	ecx, DWORD PTR _v_buf_size$[ebp]
	push	ecx
	mov	edx, DWORD PTR _v_buf$[ebp]
	push	edx
	mov	eax, DWORD PTR _ep$[ebp]
	mov	ecx, DWORD PTR [eax+16]
	call	ecx
	cmp	esi, esp
	call	__RTC_CheckEsp
	mov	DWORD PTR _v_result$[ebp], eax
	cmp	DWORD PTR _v_result$[ebp], 0
	jne	SHORT $LN5@TEST_PMC_S
	mov	DWORD PTR tv74[ebp], 1
	jmp	SHORT $LN6@TEST_PMC_S
$LN5@TEST_PMC_S:
	mov	DWORD PTR tv74[ebp], 0
$LN6@TEST_PMC_S:
	mov	edx, DWORD PTR _v_result$[ebp]
	push	edx
	push	OFFSET $SG94433
	call	_FormatTestMesssage
	add	esp, 8
	push	eax
	mov	eax, DWORD PTR tv74[ebp]
	push	eax
	push	1
	mov	ecx, DWORD PTR _no$[ebp]
	push	ecx
	push	OFFSET $SG94434
	call	_FormatTestLabel
	add	esp, 12					; 0000000cH
	push	eax
	mov	edx, DWORD PTR _env$[ebp]
	push	edx
	call	_TEST_Assert
	add	esp, 16					; 00000010H

; 61   :     TEST_Assert(env, FormatTestLabel("PMC_Subtruct_L_X (%d.%d)", no, 2), (result = ep->PMC_Subtruct_L_X(u, v, &actual_w)) == desired_result_code, FormatTestMesssage("PMC_Subtruct_L_Xの復帰コードが期待通りではない(%d)", result));

	mov	esi, esp
	lea	eax, DWORD PTR _actual_w$[ebp]
	push	eax
	mov	ecx, DWORD PTR _v$[ebp]
	push	ecx
	mov	edx, DWORD PTR _u$[ebp+4]
	push	edx
	mov	eax, DWORD PTR _u$[ebp]
	push	eax
	mov	ecx, DWORD PTR _ep$[ebp]
	mov	edx, DWORD PTR [ecx+68]
	call	edx
	cmp	esi, esp
	call	__RTC_CheckEsp
	mov	DWORD PTR _result$[ebp], eax
	mov	eax, DWORD PTR _result$[ebp]
	cmp	eax, DWORD PTR _desired_result_code$[ebp]
	jne	SHORT $LN7@TEST_PMC_S
	mov	DWORD PTR tv92[ebp], 1
	jmp	SHORT $LN8@TEST_PMC_S
$LN7@TEST_PMC_S:
	mov	DWORD PTR tv92[ebp], 0
$LN8@TEST_PMC_S:
	mov	ecx, DWORD PTR _result$[ebp]
	push	ecx
	push	OFFSET $SG94435
	call	_FormatTestMesssage
	add	esp, 8
	push	eax
	mov	edx, DWORD PTR tv92[ebp]
	push	edx
	push	2
	mov	eax, DWORD PTR _no$[ebp]
	push	eax
	push	OFFSET $SG94436
	call	_FormatTestLabel
	add	esp, 12					; 0000000cH
	push	eax
	mov	ecx, DWORD PTR _env$[ebp]
	push	ecx
	call	_TEST_Assert
	add	esp, 16					; 00000010H

; 62   :     if (desired_result_code == PMC_STATUS_OK)

	cmp	DWORD PTR _desired_result_code$[ebp], 0
	jne	SHORT $LN2@TEST_PMC_S

; 63   :     {
; 64   :         TEST_Assert(env, FormatTestLabel("PMC_Subtruct_L_X (%d.%d)", no, 3), actual_w == desired_w, "データの内容が一致しない");

	mov	edx, DWORD PTR _actual_w$[ebp]
	cmp	edx, DWORD PTR _desired_w$[ebp]
	jne	SHORT $LN9@TEST_PMC_S
	mov	eax, DWORD PTR _actual_w$[ebp+4]
	cmp	eax, DWORD PTR _desired_w$[ebp+4]
	jne	SHORT $LN9@TEST_PMC_S
	mov	DWORD PTR tv135[ebp], 1
	jmp	SHORT $LN10@TEST_PMC_S
$LN9@TEST_PMC_S:
	mov	DWORD PTR tv135[ebp], 0
$LN10@TEST_PMC_S:
	push	OFFSET $SG94438
	mov	ecx, DWORD PTR tv135[ebp]
	push	ecx
	push	3
	mov	edx, DWORD PTR _no$[ebp]
	push	edx
	push	OFFSET $SG94439
	call	_FormatTestLabel
	add	esp, 12					; 0000000cH
	push	eax
	mov	eax, DWORD PTR _env$[ebp]
	push	eax
	call	_TEST_Assert
	add	esp, 16					; 00000010H
$LN2@TEST_PMC_S:

; 65   :     }
; 66   :     if (v_result == PMC_STATUS_OK)

	cmp	DWORD PTR _v_result$[ebp], 0
	jne	SHORT $LN1@TEST_PMC_S

; 67   :         ep->PMC_Dispose(v);

	mov	esi, esp
	mov	ecx, DWORD PTR _v$[ebp]
	push	ecx
	mov	edx, DWORD PTR _ep$[ebp]
	mov	eax, DWORD PTR [edx+20]
	call	eax
	cmp	esi, esp
	call	__RTC_CheckEsp
$LN1@TEST_PMC_S:

; 68   : }

	push	edx
	mov	ecx, ebp
	push	eax
	lea	edx, DWORD PTR $LN14@TEST_PMC_S
	call	@_RTC_CheckStackVars@8
	pop	eax
	pop	edx
	pop	edi
	pop	esi
	add	esp, 48					; 00000030H
	cmp	ebp, esp
	call	__RTC_CheckEsp
	mov	esp, ebp
	pop	ebp
	ret	0
	npad	2
$LN14@TEST_PMC_S:
	DD	2
	DD	$LN13@TEST_PMC_S
$LN13@TEST_PMC_S:
	DD	-8					; fffffff8H
	DD	4
	DD	$LN11@TEST_PMC_S
	DD	-24					; ffffffe8H
	DD	8
	DD	$LN12@TEST_PMC_S
$LN12@TEST_PMC_S:
	DB	97					; 00000061H
	DB	99					; 00000063H
	DB	116					; 00000074H
	DB	117					; 00000075H
	DB	97					; 00000061H
	DB	108					; 0000006cH
	DB	95					; 0000005fH
	DB	119					; 00000077H
	DB	0
$LN11@TEST_PMC_S:
	DB	118					; 00000076H
	DB	0
_TEST_PMC_Subtruct_L_X ENDP
_TEXT	ENDS
; Function compile flags: /Odtp /RTCsu
; File z:\sources\lunor\repos\rougemeilland\palmtree.math.core.implements\palmtree.math.core.implements\test_op_subtruct.c
_TEXT	SEGMENT
tv135 = -44						; size = 4
tv92 = -40						; size = 4
tv74 = -36						; size = 4
_v_result$ = -32					; size = 4
_result$ = -28						; size = 4
_actual_w$ = -20					; size = 4
_v$ = -8						; size = 4
_env$ = 8						; size = 4
_ep$ = 12						; size = 4
_no$ = 16						; size = 4
_u$ = 20						; size = 4
_v_buf$ = 24						; size = 4
_v_buf_size$ = 28					; size = 4
_desired_result_code$ = 32				; size = 4
_desired_w$ = 36					; size = 4
_TEST_PMC_Subtruct_I_X PROC

; 39   : {

	push	ebp
	mov	ebp, esp
	sub	esp, 44					; 0000002cH
	push	esi
	push	edi
	lea	edi, DWORD PTR [ebp-44]
	mov	ecx, 11					; 0000000bH
	mov	eax, -858993460				; ccccccccH
	rep stosd
	mov	ecx, OFFSET __58741880_test_op_subtruct@c
	call	@__CheckForDebuggerJustMyCode@4

; 40   :     HANDLE v;
; 41   :     unsigned __int32 actual_w;
; 42   :     PMC_STATUS_CODE result;
; 43   :     PMC_STATUS_CODE v_result;
; 44   :     TEST_Assert(env, FormatTestLabel("PMC_Subtruct_I_X (%d.%d)", no, 1), (v_result = ep->PMC_From_B(v_buf, v_buf_size, &v)) == PMC_STATUS_OK, FormatTestMesssage("PMC_From_Bの復帰コードが期待通りではない(%d)", v_result));

	mov	esi, esp
	lea	eax, DWORD PTR _v$[ebp]
	push	eax
	mov	ecx, DWORD PTR _v_buf_size$[ebp]
	push	ecx
	mov	edx, DWORD PTR _v_buf$[ebp]
	push	edx
	mov	eax, DWORD PTR _ep$[ebp]
	mov	ecx, DWORD PTR [eax+16]
	call	ecx
	cmp	esi, esp
	call	__RTC_CheckEsp
	mov	DWORD PTR _v_result$[ebp], eax
	cmp	DWORD PTR _v_result$[ebp], 0
	jne	SHORT $LN5@TEST_PMC_S
	mov	DWORD PTR tv74[ebp], 1
	jmp	SHORT $LN6@TEST_PMC_S
$LN5@TEST_PMC_S:
	mov	DWORD PTR tv74[ebp], 0
$LN6@TEST_PMC_S:
	mov	edx, DWORD PTR _v_result$[ebp]
	push	edx
	push	OFFSET $SG94404
	call	_FormatTestMesssage
	add	esp, 8
	push	eax
	mov	eax, DWORD PTR tv74[ebp]
	push	eax
	push	1
	mov	ecx, DWORD PTR _no$[ebp]
	push	ecx
	push	OFFSET $SG94405
	call	_FormatTestLabel
	add	esp, 12					; 0000000cH
	push	eax
	mov	edx, DWORD PTR _env$[ebp]
	push	edx
	call	_TEST_Assert
	add	esp, 16					; 00000010H

; 45   :     TEST_Assert(env, FormatTestLabel("PMC_Subtruct_I_X (%d.%d)", no, 2), (result = ep->PMC_Subtruct_I_X(u, v, &actual_w)) == desired_result_code, FormatTestMesssage("PMC_Subtruct_I_Xの復帰コードが期待通りではない(%d)", result));

	mov	esi, esp
	lea	eax, DWORD PTR _actual_w$[ebp]
	push	eax
	mov	ecx, DWORD PTR _v$[ebp]
	push	ecx
	mov	edx, DWORD PTR _u$[ebp]
	push	edx
	mov	eax, DWORD PTR _ep$[ebp]
	mov	ecx, DWORD PTR [eax+64]
	call	ecx
	cmp	esi, esp
	call	__RTC_CheckEsp
	mov	DWORD PTR _result$[ebp], eax
	mov	edx, DWORD PTR _result$[ebp]
	cmp	edx, DWORD PTR _desired_result_code$[ebp]
	jne	SHORT $LN7@TEST_PMC_S
	mov	DWORD PTR tv92[ebp], 1
	jmp	SHORT $LN8@TEST_PMC_S
$LN7@TEST_PMC_S:
	mov	DWORD PTR tv92[ebp], 0
$LN8@TEST_PMC_S:
	mov	eax, DWORD PTR _result$[ebp]
	push	eax
	push	OFFSET $SG94406
	call	_FormatTestMesssage
	add	esp, 8
	push	eax
	mov	ecx, DWORD PTR tv92[ebp]
	push	ecx
	push	2
	mov	edx, DWORD PTR _no$[ebp]
	push	edx
	push	OFFSET $SG94407
	call	_FormatTestLabel
	add	esp, 12					; 0000000cH
	push	eax
	mov	eax, DWORD PTR _env$[ebp]
	push	eax
	call	_TEST_Assert
	add	esp, 16					; 00000010H

; 46   :     if (desired_result_code == PMC_STATUS_OK)

	cmp	DWORD PTR _desired_result_code$[ebp], 0
	jne	SHORT $LN2@TEST_PMC_S

; 47   :     {
; 48   :         TEST_Assert(env, FormatTestLabel("PMC_Subtruct_I_X (%d.%d)", no, 3), actual_w == desired_w, "データの内容が一致しない");

	mov	ecx, DWORD PTR _actual_w$[ebp]
	cmp	ecx, DWORD PTR _desired_w$[ebp]
	jne	SHORT $LN9@TEST_PMC_S
	mov	DWORD PTR tv135[ebp], 1
	jmp	SHORT $LN10@TEST_PMC_S
$LN9@TEST_PMC_S:
	mov	DWORD PTR tv135[ebp], 0
$LN10@TEST_PMC_S:
	push	OFFSET $SG94409
	mov	edx, DWORD PTR tv135[ebp]
	push	edx
	push	3
	mov	eax, DWORD PTR _no$[ebp]
	push	eax
	push	OFFSET $SG94410
	call	_FormatTestLabel
	add	esp, 12					; 0000000cH
	push	eax
	mov	ecx, DWORD PTR _env$[ebp]
	push	ecx
	call	_TEST_Assert
	add	esp, 16					; 00000010H
$LN2@TEST_PMC_S:

; 49   :     }
; 50   :     if (v_result == PMC_STATUS_OK)

	cmp	DWORD PTR _v_result$[ebp], 0
	jne	SHORT $LN1@TEST_PMC_S

; 51   :         ep->PMC_Dispose(v);

	mov	esi, esp
	mov	edx, DWORD PTR _v$[ebp]
	push	edx
	mov	eax, DWORD PTR _ep$[ebp]
	mov	ecx, DWORD PTR [eax+20]
	call	ecx
	cmp	esi, esp
	call	__RTC_CheckEsp
$LN1@TEST_PMC_S:

; 52   : }

	push	edx
	mov	ecx, ebp
	push	eax
	lea	edx, DWORD PTR $LN14@TEST_PMC_S
	call	@_RTC_CheckStackVars@8
	pop	eax
	pop	edx
	pop	edi
	pop	esi
	add	esp, 44					; 0000002cH
	cmp	ebp, esp
	call	__RTC_CheckEsp
	mov	esp, ebp
	pop	ebp
	ret	0
	npad	2
$LN14@TEST_PMC_S:
	DD	2
	DD	$LN13@TEST_PMC_S
$LN13@TEST_PMC_S:
	DD	-8					; fffffff8H
	DD	4
	DD	$LN11@TEST_PMC_S
	DD	-20					; ffffffecH
	DD	4
	DD	$LN12@TEST_PMC_S
$LN12@TEST_PMC_S:
	DB	97					; 00000061H
	DB	99					; 00000063H
	DB	116					; 00000074H
	DB	117					; 00000075H
	DB	97					; 00000061H
	DB	108					; 0000006cH
	DB	95					; 0000005fH
	DB	119					; 00000077H
	DB	0
$LN11@TEST_PMC_S:
	DB	118					; 00000076H
	DB	0
_TEST_PMC_Subtruct_I_X ENDP
_TEXT	ENDS
END
