; Listing generated by Microsoft (R) Optimizing Compiler Version 19.16.27026.1 

	TITLE	Z:\Sources\Lunor\Repos\rougemeilland\Palmtree.Math.Core.Implements\Palmtree.Math.Core.Implements\TEST_op_ModPow.c
	.686P
	.XMM
	include listing.inc
	.model	flat

INCLUDELIB MSVCRTD
INCLUDELIB OLDNAMES

msvcjmc	SEGMENT
__7B7A869E_ctype@h DB 01H
__457DD326_basetsd@h DB 01H
__4384A2D9_corecrt_memcpy_s@h DB 01H
__4E51A221_corecrt_wstring@h DB 01H
__2140C079_string@h DB 01H
__1887E595_winnt@h DB 01H
__9FC7C64B_processthreadsapi@h DB 01H
__FA470AEC_memoryapi@h DB 01H
__F37DAFF1_winerror@h DB 01H
__7A450CCC_winbase@h DB 01H
__B4B40122_winioctl@h DB 01H
__86261D59_stralign@h DB 01H
__1C66ECB2_pmc_debug@h DB 01H
__D6457698_test_op_modpow@c DB 01H
msvcjmc	ENDS
PUBLIC	_TEST_PMC_ModPow_X_X_X
PUBLIC	__JustMyCode_Default
EXTRN	_TEST_Assert:PROC
EXTRN	_FormatTestLabel:PROC
EXTRN	_FormatTestMesssage:PROC
EXTRN	@_RTC_CheckStackVars@8:PROC
EXTRN	@__CheckForDebuggerJustMyCode@4:PROC
EXTRN	@__security_check_cookie@4:PROC
EXTRN	__RTC_CheckEsp:PROC
EXTRN	__RTC_InitBase:PROC
EXTRN	__RTC_Shutdown:PROC
EXTRN	___security_cookie:DWORD
;	COMDAT rtc$TMZ
rtc$TMZ	SEGMENT
__RTC_Shutdown.rtc$TMZ DD FLAT:__RTC_Shutdown
rtc$TMZ	ENDS
;	COMDAT rtc$IMZ
rtc$IMZ	SEGMENT
__RTC_InitBase.rtc$IMZ DD FLAT:__RTC_InitBase
rtc$IMZ	ENDS
_DATA	SEGMENT
$SG94545 DB	'PMC_FromByteArray', 082H, 0ccH, 095H, 09cH, 08bH, 'A', 083H
	DB	'R', 081H, '[', 083H, 'h', 082H, 0aaH, 08aH, 0faH, 091H, 0d2H, 092H
	DB	0caH, 082H, 0e8H, 082H, 0c5H, 082H, 0cdH, 082H, 0c8H, 082H, 0a2H
	DB	'(%d)', 00H
$SG94546 DB	'PMC_ModPow_X_X_X (%d.%d)', 00H
	ORG $+3
$SG94547 DB	'PMC_FromByteArray', 082H, 0ccH, 095H, 09cH, 08bH, 'A', 083H
	DB	'R', 081H, '[', 083H, 'h', 082H, 0aaH, 08aH, 0faH, 091H, 0d2H, 092H
	DB	0caH, 082H, 0e8H, 082H, 0c5H, 082H, 0cdH, 082H, 0c8H, 082H, 0a2H
	DB	'(%d)', 00H
$SG94548 DB	'PMC_ModPow_X_X_X (%d.%d)', 00H
	ORG $+3
$SG94549 DB	'PMC_FromByteArray', 082H, 0ccH, 095H, 09cH, 08bH, 'A', 083H
	DB	'R', 081H, '[', 083H, 'h', 082H, 0aaH, 08aH, 0faH, 091H, 0d2H, 092H
	DB	0caH, 082H, 0e8H, 082H, 0c5H, 082H, 0cdH, 082H, 0c8H, 082H, 0a2H
	DB	'(%d)', 00H
$SG94550 DB	'PMC_ModPow_X_X_X (%d.%d)', 00H
	ORG $+3
$SG94551 DB	'PMC_ModPow_X_X_X', 082H, 0ccH, 095H, 09cH, 08bH, 'A', 083H
	DB	'R', 081H, '[', 083H, 'h', 082H, 0aaH, 08aH, 0faH, 091H, 0d2H, 092H
	DB	0caH, 082H, 0e8H, 082H, 0c5H, 082H, 0cdH, 082H, 0c8H, 082H, 0a2H
	DB	'(%d)', 00H
	ORG $+1
$SG94552 DB	'PMC_ModPow_X_X_X (%d.%d)', 00H
	ORG $+3
$SG94554 DB	'PMC_ToByteArray', 082H, 0ccH, 095H, 09cH, 08bH, 'A', 083H
	DB	'R', 081H, '[', 083H, 'h', 082H, 0aaH, 08aH, 0faH, 091H, 0d2H, 092H
	DB	0caH, 082H, 0e8H, 082H, 0c5H, 082H, 0cdH, 082H, 0c8H, 082H, 0a2H
	DB	'(%d)', 00H
	ORG $+2
$SG94555 DB	'PMC_ModPow_X_X_X (%d.%d)', 00H
	ORG $+3
$SG94556 DB	083H, 'f', 081H, '[', 083H, '^', 082H, 0ccH, 093H, 0e0H, 097H
	DB	'e', 082H, 0aaH, 088H, 0eaH, 092H, 'v', 082H, 0b5H, 082H, 0c8H
	DB	082H, 0a2H, 00H
	ORG $+3
$SG94557 DB	'PMC_ModPow_X_X_X (%d.%d)', 00H
_DATA	ENDS
; Function compile flags: /Odt
;	COMDAT __JustMyCode_Default
_TEXT	SEGMENT
__JustMyCode_Default PROC				; COMDAT
	push	ebp
	mov	ebp, esp
	pop	ebp
	ret	0
__JustMyCode_Default ENDP
_TEXT	ENDS
; Function compile flags: /Odtp /RTCsu
; File z:\sources\lunor\repos\rougemeilland\palmtree.math.core.implements\palmtree.math.core.implements\pmc_debug.h
_TEXT	SEGMENT
_buffer1$ = 8						; size = 4
_count1$ = 12						; size = 4
_buffer2$ = 16						; size = 4
_count2$ = 20						; size = 4
__EQUALS_MEMORY PROC

; 155  : {

	push	ebp
	mov	ebp, esp
	mov	ecx, OFFSET __1C66ECB2_pmc_debug@h
	call	@__CheckForDebuggerJustMyCode@4

; 156  :     if (count1 != count2)

	mov	eax, DWORD PTR _count1$[ebp]
	cmp	eax, DWORD PTR _count2$[ebp]
	je	SHORT $LN2@EQUALS_MEM

; 157  :         return (-1);

	or	eax, -1
	jmp	SHORT $LN1@EQUALS_MEM
$LN2@EQUALS_MEM:

; 158  :     while (count1 > 0)

	cmp	DWORD PTR _count1$[ebp], 0
	jbe	SHORT $LN3@EQUALS_MEM

; 159  :     {
; 160  :         if (*buffer1 != *buffer2)

	mov	ecx, DWORD PTR _buffer1$[ebp]
	movzx	edx, BYTE PTR [ecx]
	mov	eax, DWORD PTR _buffer2$[ebp]
	movzx	ecx, BYTE PTR [eax]
	cmp	edx, ecx
	je	SHORT $LN5@EQUALS_MEM

; 161  :             return (-1);

	or	eax, -1
	jmp	SHORT $LN1@EQUALS_MEM
$LN5@EQUALS_MEM:

; 162  :         ++buffer1;

	mov	edx, DWORD PTR _buffer1$[ebp]
	add	edx, 1
	mov	DWORD PTR _buffer1$[ebp], edx

; 163  :         ++buffer2;

	mov	eax, DWORD PTR _buffer2$[ebp]
	add	eax, 1
	mov	DWORD PTR _buffer2$[ebp], eax

; 164  :         --count1;

	mov	ecx, DWORD PTR _count1$[ebp]
	sub	ecx, 1
	mov	DWORD PTR _count1$[ebp], ecx

; 165  :     }

	jmp	SHORT $LN2@EQUALS_MEM
$LN3@EQUALS_MEM:

; 166  :     return (0);

	xor	eax, eax
$LN1@EQUALS_MEM:

; 167  : }

	cmp	ebp, esp
	call	__RTC_CheckEsp
	pop	ebp
	ret	0
__EQUALS_MEMORY ENDP
_TEXT	ENDS
; Function compile flags: /Odtp /RTCsu
; File z:\sources\lunor\repos\rougemeilland\palmtree.math.core.implements\palmtree.math.core.implements\test_op_modpow.c
_TEXT	SEGMENT
tv196 = -372						; size = 4
tv181 = -368						; size = 4
tv161 = -364						; size = 4
tv142 = -360						; size = 4
tv92 = -356						; size = 4
tv74 = -352						; size = 4
_r_result$ = -348					; size = 4
_m_result$ = -344					; size = 4
_e_result$ = -340					; size = 4
_v_result$ = -336					; size = 4
_result$ = -332						; size = 4
_actual_r_buf_size$ = -324				; size = 4
_actual_r_buf$ = -312					; size = 256
_r$ = -48						; size = 4
_m$ = -36						; size = 4
_e$ = -24						; size = 4
_v$ = -12						; size = 4
__$ArrayPad$ = -4					; size = 4
_env$ = 8						; size = 4
_ep$ = 12						; size = 4
_no$ = 16						; size = 4
_v_buf$ = 20						; size = 4
_v_buf_size$ = 24					; size = 4
_e_buf$ = 28						; size = 4
_e_buf_size$ = 32					; size = 4
_m_buf$ = 36						; size = 4
_m_buf_size$ = 40					; size = 4
_desired_result_code$ = 44				; size = 4
_desired_r_buf$ = 48					; size = 4
_desired_r_buf_size$ = 52				; size = 4
_TEST_PMC_ModPow_X_X_X PROC

; 40   : {

	push	ebp
	mov	ebp, esp
	sub	esp, 372				; 00000174H
	push	esi
	push	edi
	lea	edi, DWORD PTR [ebp-372]
	mov	ecx, 93					; 0000005dH
	mov	eax, -858993460				; ccccccccH
	rep stosd
	mov	eax, DWORD PTR ___security_cookie
	xor	eax, ebp
	mov	DWORD PTR __$ArrayPad$[ebp], eax
	mov	ecx, OFFSET __D6457698_test_op_modpow@c
	call	@__CheckForDebuggerJustMyCode@4

; 41   :     HANDLE v;
; 42   :     HANDLE e;
; 43   :     HANDLE m;
; 44   :     HANDLE r;
; 45   :     unsigned char actual_r_buf[256];
; 46   :     size_t actual_r_buf_size;
; 47   :     PMC_STATUS_CODE result;
; 48   :     PMC_STATUS_CODE v_result;
; 49   :     PMC_STATUS_CODE e_result;
; 50   :     PMC_STATUS_CODE m_result;
; 51   :     PMC_STATUS_CODE r_result;
; 52   :     TEST_Assert(env, FormatTestLabel("PMC_ModPow_X_X_X (%d.%d)", no, 1), (v_result = ep->PMC_FromByteArray(v_buf, v_buf_size, &v)) == PMC_STATUS_OK, FormatTestMesssage("PMC_FromByteArrayの復帰コードが期待通りではない(%d)", v_result));

	mov	esi, esp
	lea	eax, DWORD PTR _v$[ebp]
	push	eax
	mov	ecx, DWORD PTR _v_buf_size$[ebp]
	push	ecx
	mov	edx, DWORD PTR _v_buf$[ebp]
	push	edx
	mov	eax, DWORD PTR _ep$[ebp]
	mov	ecx, DWORD PTR [eax+24]
	call	ecx
	cmp	esi, esp
	call	__RTC_CheckEsp
	mov	DWORD PTR _v_result$[ebp], eax
	cmp	DWORD PTR _v_result$[ebp], 0
	jne	SHORT $LN8@TEST_PMC_M
	mov	DWORD PTR tv74[ebp], 1
	jmp	SHORT $LN9@TEST_PMC_M
$LN8@TEST_PMC_M:
	mov	DWORD PTR tv74[ebp], 0
$LN9@TEST_PMC_M:
	mov	edx, DWORD PTR _v_result$[ebp]
	push	edx
	push	OFFSET $SG94545
	call	_FormatTestMesssage
	add	esp, 8
	push	eax
	mov	eax, DWORD PTR tv74[ebp]
	push	eax
	push	1
	mov	ecx, DWORD PTR _no$[ebp]
	push	ecx
	push	OFFSET $SG94546
	call	_FormatTestLabel
	add	esp, 12					; 0000000cH
	push	eax
	mov	edx, DWORD PTR _env$[ebp]
	push	edx
	call	_TEST_Assert
	add	esp, 16					; 00000010H

; 53   :     TEST_Assert(env, FormatTestLabel("PMC_ModPow_X_X_X (%d.%d)", no, 2), (e_result = ep->PMC_FromByteArray(e_buf, e_buf_size, &e)) == PMC_STATUS_OK, FormatTestMesssage("PMC_FromByteArrayの復帰コードが期待通りではない(%d)", e_result));

	mov	esi, esp
	lea	eax, DWORD PTR _e$[ebp]
	push	eax
	mov	ecx, DWORD PTR _e_buf_size$[ebp]
	push	ecx
	mov	edx, DWORD PTR _e_buf$[ebp]
	push	edx
	mov	eax, DWORD PTR _ep$[ebp]
	mov	ecx, DWORD PTR [eax+24]
	call	ecx
	cmp	esi, esp
	call	__RTC_CheckEsp
	mov	DWORD PTR _e_result$[ebp], eax
	cmp	DWORD PTR _e_result$[ebp], 0
	jne	SHORT $LN10@TEST_PMC_M
	mov	DWORD PTR tv92[ebp], 1
	jmp	SHORT $LN11@TEST_PMC_M
$LN10@TEST_PMC_M:
	mov	DWORD PTR tv92[ebp], 0
$LN11@TEST_PMC_M:
	mov	edx, DWORD PTR _e_result$[ebp]
	push	edx
	push	OFFSET $SG94547
	call	_FormatTestMesssage
	add	esp, 8
	push	eax
	mov	eax, DWORD PTR tv92[ebp]
	push	eax
	push	2
	mov	ecx, DWORD PTR _no$[ebp]
	push	ecx
	push	OFFSET $SG94548
	call	_FormatTestLabel
	add	esp, 12					; 0000000cH
	push	eax
	mov	edx, DWORD PTR _env$[ebp]
	push	edx
	call	_TEST_Assert
	add	esp, 16					; 00000010H

; 54   :     TEST_Assert(env, FormatTestLabel("PMC_ModPow_X_X_X (%d.%d)", no, 3), (m_result = ep->PMC_FromByteArray(m_buf, m_buf_size, &m)) == PMC_STATUS_OK, FormatTestMesssage("PMC_FromByteArrayの復帰コードが期待通りではない(%d)", m_result));

	mov	esi, esp
	lea	eax, DWORD PTR _m$[ebp]
	push	eax
	mov	ecx, DWORD PTR _m_buf_size$[ebp]
	push	ecx
	mov	edx, DWORD PTR _m_buf$[ebp]
	push	edx
	mov	eax, DWORD PTR _ep$[ebp]
	mov	ecx, DWORD PTR [eax+24]
	call	ecx
	cmp	esi, esp
	call	__RTC_CheckEsp
	mov	DWORD PTR _m_result$[ebp], eax
	cmp	DWORD PTR _m_result$[ebp], 0
	jne	SHORT $LN12@TEST_PMC_M
	mov	DWORD PTR tv142[ebp], 1
	jmp	SHORT $LN13@TEST_PMC_M
$LN12@TEST_PMC_M:
	mov	DWORD PTR tv142[ebp], 0
$LN13@TEST_PMC_M:
	mov	edx, DWORD PTR _m_result$[ebp]
	push	edx
	push	OFFSET $SG94549
	call	_FormatTestMesssage
	add	esp, 8
	push	eax
	mov	eax, DWORD PTR tv142[ebp]
	push	eax
	push	3
	mov	ecx, DWORD PTR _no$[ebp]
	push	ecx
	push	OFFSET $SG94550
	call	_FormatTestLabel
	add	esp, 12					; 0000000cH
	push	eax
	mov	edx, DWORD PTR _env$[ebp]
	push	edx
	call	_TEST_Assert
	add	esp, 16					; 00000010H

; 55   :     TEST_Assert(env, FormatTestLabel("PMC_ModPow_X_X_X (%d.%d)", no, 4), (r_result = ep->PMC_ModPow_X_X_X(v, e, m, &r)) == desired_result_code, FormatTestMesssage("PMC_ModPow_X_X_Xの復帰コードが期待通りではない(%d)", r_result));

	mov	esi, esp
	lea	eax, DWORD PTR _r$[ebp]
	push	eax
	mov	ecx, DWORD PTR _m$[ebp]
	push	ecx
	mov	edx, DWORD PTR _e$[ebp]
	push	edx
	mov	eax, DWORD PTR _v$[ebp]
	push	eax
	mov	ecx, DWORD PTR _ep$[ebp]
	mov	edx, DWORD PTR [ecx+268]
	call	edx
	cmp	esi, esp
	call	__RTC_CheckEsp
	mov	DWORD PTR _r_result$[ebp], eax
	mov	eax, DWORD PTR _r_result$[ebp]
	cmp	eax, DWORD PTR _desired_result_code$[ebp]
	jne	SHORT $LN14@TEST_PMC_M
	mov	DWORD PTR tv161[ebp], 1
	jmp	SHORT $LN15@TEST_PMC_M
$LN14@TEST_PMC_M:
	mov	DWORD PTR tv161[ebp], 0
$LN15@TEST_PMC_M:
	mov	ecx, DWORD PTR _r_result$[ebp]
	push	ecx
	push	OFFSET $SG94551
	call	_FormatTestMesssage
	add	esp, 8
	push	eax
	mov	edx, DWORD PTR tv161[ebp]
	push	edx
	push	4
	mov	eax, DWORD PTR _no$[ebp]
	push	eax
	push	OFFSET $SG94552
	call	_FormatTestLabel
	add	esp, 12					; 0000000cH
	push	eax
	mov	ecx, DWORD PTR _env$[ebp]
	push	ecx
	call	_TEST_Assert
	add	esp, 16					; 00000010H

; 56   :     if (desired_result_code == PMC_STATUS_OK)

	cmp	DWORD PTR _desired_result_code$[ebp], 0
	jne	$LN2@TEST_PMC_M

; 57   :     {
; 58   :         TEST_Assert(env, FormatTestLabel("PMC_ModPow_X_X_X (%d.%d)", no, 5), (result = ep->PMC_ToByteArray(r, actual_r_buf, sizeof(actual_r_buf), &actual_r_buf_size)) == PMC_STATUS_OK, FormatTestMesssage("PMC_ToByteArrayの復帰コードが期待通りではない(%d)", result));

	mov	esi, esp
	lea	edx, DWORD PTR _actual_r_buf_size$[ebp]
	push	edx
	push	256					; 00000100H
	lea	eax, DWORD PTR _actual_r_buf$[ebp]
	push	eax
	mov	ecx, DWORD PTR _r$[ebp]
	push	ecx
	mov	edx, DWORD PTR _ep$[ebp]
	mov	eax, DWORD PTR [edx+28]
	call	eax
	cmp	esi, esp
	call	__RTC_CheckEsp
	mov	DWORD PTR _result$[ebp], eax
	cmp	DWORD PTR _result$[ebp], 0
	jne	SHORT $LN16@TEST_PMC_M
	mov	DWORD PTR tv181[ebp], 1
	jmp	SHORT $LN17@TEST_PMC_M
$LN16@TEST_PMC_M:
	mov	DWORD PTR tv181[ebp], 0
$LN17@TEST_PMC_M:
	mov	ecx, DWORD PTR _result$[ebp]
	push	ecx
	push	OFFSET $SG94554
	call	_FormatTestMesssage
	add	esp, 8
	push	eax
	mov	edx, DWORD PTR tv181[ebp]
	push	edx
	push	5
	mov	eax, DWORD PTR _no$[ebp]
	push	eax
	push	OFFSET $SG94555
	call	_FormatTestLabel
	add	esp, 12					; 0000000cH
	push	eax
	mov	ecx, DWORD PTR _env$[ebp]
	push	ecx
	call	_TEST_Assert
	add	esp, 16					; 00000010H

; 59   :         TEST_Assert(env, FormatTestLabel("PMC_ModPow_X_X_X (%d.%d)", no, 6), _EQUALS_MEMORY(actual_r_buf, actual_r_buf_size, desired_r_buf, desired_r_buf_size) == 0, "データの内容が一致しない");

	mov	edx, DWORD PTR _desired_r_buf_size$[ebp]
	push	edx
	mov	eax, DWORD PTR _desired_r_buf$[ebp]
	push	eax
	mov	ecx, DWORD PTR _actual_r_buf_size$[ebp]
	push	ecx
	lea	edx, DWORD PTR _actual_r_buf$[ebp]
	push	edx
	call	__EQUALS_MEMORY
	add	esp, 16					; 00000010H
	test	eax, eax
	jne	SHORT $LN18@TEST_PMC_M
	mov	DWORD PTR tv196[ebp], 1
	jmp	SHORT $LN19@TEST_PMC_M
$LN18@TEST_PMC_M:
	mov	DWORD PTR tv196[ebp], 0
$LN19@TEST_PMC_M:
	push	OFFSET $SG94556
	mov	eax, DWORD PTR tv196[ebp]
	push	eax
	push	6
	mov	ecx, DWORD PTR _no$[ebp]
	push	ecx
	push	OFFSET $SG94557
	call	_FormatTestLabel
	add	esp, 12					; 0000000cH
	push	eax
	mov	edx, DWORD PTR _env$[ebp]
	push	edx
	call	_TEST_Assert
	add	esp, 16					; 00000010H
$LN2@TEST_PMC_M:

; 60   :     }
; 61   :     if (r_result == PMC_STATUS_OK)

	cmp	DWORD PTR _r_result$[ebp], 0
	jne	SHORT $LN3@TEST_PMC_M

; 62   :         ep->PMC_Dispose(r);

	mov	esi, esp
	mov	eax, DWORD PTR _r$[ebp]
	push	eax
	mov	ecx, DWORD PTR _ep$[ebp]
	mov	edx, DWORD PTR [ecx+16]
	call	edx
	cmp	esi, esp
	call	__RTC_CheckEsp
$LN3@TEST_PMC_M:

; 63   :     if (m_result == PMC_STATUS_OK)

	cmp	DWORD PTR _m_result$[ebp], 0
	jne	SHORT $LN4@TEST_PMC_M

; 64   :         ep->PMC_Dispose(m);

	mov	esi, esp
	mov	eax, DWORD PTR _m$[ebp]
	push	eax
	mov	ecx, DWORD PTR _ep$[ebp]
	mov	edx, DWORD PTR [ecx+16]
	call	edx
	cmp	esi, esp
	call	__RTC_CheckEsp
$LN4@TEST_PMC_M:

; 65   :     if (e_result == PMC_STATUS_OK)

	cmp	DWORD PTR _e_result$[ebp], 0
	jne	SHORT $LN5@TEST_PMC_M

; 66   :         ep->PMC_Dispose(e);

	mov	esi, esp
	mov	eax, DWORD PTR _e$[ebp]
	push	eax
	mov	ecx, DWORD PTR _ep$[ebp]
	mov	edx, DWORD PTR [ecx+16]
	call	edx
	cmp	esi, esp
	call	__RTC_CheckEsp
$LN5@TEST_PMC_M:

; 67   :     if (v_result == PMC_STATUS_OK)

	cmp	DWORD PTR _v_result$[ebp], 0
	jne	SHORT $LN1@TEST_PMC_M

; 68   :         ep->PMC_Dispose(v);

	mov	esi, esp
	mov	eax, DWORD PTR _v$[ebp]
	push	eax
	mov	ecx, DWORD PTR _ep$[ebp]
	mov	edx, DWORD PTR [ecx+16]
	call	edx
	cmp	esi, esp
	call	__RTC_CheckEsp
$LN1@TEST_PMC_M:

; 69   : }

	push	edx
	mov	ecx, ebp
	push	eax
	lea	edx, DWORD PTR $LN27@TEST_PMC_M
	call	@_RTC_CheckStackVars@8
	pop	eax
	pop	edx
	pop	edi
	pop	esi
	mov	ecx, DWORD PTR __$ArrayPad$[ebp]
	xor	ecx, ebp
	call	@__security_check_cookie@4
	add	esp, 372				; 00000174H
	cmp	ebp, esp
	call	__RTC_CheckEsp
	mov	esp, ebp
	pop	ebp
	ret	0
	npad	1
$LN27@TEST_PMC_M:
	DD	6
	DD	$LN26@TEST_PMC_M
$LN26@TEST_PMC_M:
	DD	-12					; fffffff4H
	DD	4
	DD	$LN20@TEST_PMC_M
	DD	-24					; ffffffe8H
	DD	4
	DD	$LN21@TEST_PMC_M
	DD	-36					; ffffffdcH
	DD	4
	DD	$LN22@TEST_PMC_M
	DD	-48					; ffffffd0H
	DD	4
	DD	$LN23@TEST_PMC_M
	DD	-312					; fffffec8H
	DD	256					; 00000100H
	DD	$LN24@TEST_PMC_M
	DD	-324					; fffffebcH
	DD	4
	DD	$LN25@TEST_PMC_M
$LN25@TEST_PMC_M:
	DB	97					; 00000061H
	DB	99					; 00000063H
	DB	116					; 00000074H
	DB	117					; 00000075H
	DB	97					; 00000061H
	DB	108					; 0000006cH
	DB	95					; 0000005fH
	DB	114					; 00000072H
	DB	95					; 0000005fH
	DB	98					; 00000062H
	DB	117					; 00000075H
	DB	102					; 00000066H
	DB	95					; 0000005fH
	DB	115					; 00000073H
	DB	105					; 00000069H
	DB	122					; 0000007aH
	DB	101					; 00000065H
	DB	0
$LN24@TEST_PMC_M:
	DB	97					; 00000061H
	DB	99					; 00000063H
	DB	116					; 00000074H
	DB	117					; 00000075H
	DB	97					; 00000061H
	DB	108					; 0000006cH
	DB	95					; 0000005fH
	DB	114					; 00000072H
	DB	95					; 0000005fH
	DB	98					; 00000062H
	DB	117					; 00000075H
	DB	102					; 00000066H
	DB	0
$LN23@TEST_PMC_M:
	DB	114					; 00000072H
	DB	0
$LN22@TEST_PMC_M:
	DB	109					; 0000006dH
	DB	0
$LN21@TEST_PMC_M:
	DB	101					; 00000065H
	DB	0
$LN20@TEST_PMC_M:
	DB	118					; 00000076H
	DB	0
_TEST_PMC_ModPow_X_X_X ENDP
_TEXT	ENDS
END
